ARM GAS  /tmp/ccf0jRrA.s 			page 1


   1              		.cpu cortex-m3
   2              		.eabi_attribute 20, 1
   3              		.eabi_attribute 21, 1
   4              		.eabi_attribute 23, 3
   5              		.eabi_attribute 24, 1
   6              		.eabi_attribute 25, 1
   7              		.eabi_attribute 26, 1
   8              		.eabi_attribute 30, 2
   9              		.eabi_attribute 34, 1
  10              		.eabi_attribute 18, 4
  11              		.file	"adc.c"
  12              		.text
  13              	.Ltext0:
  14              		.cfi_sections	.debug_frame
  15              		.section	.text.adcInit,"ax",%progbits
  16              		.align	1
  17              		.p2align 2,,3
  18              		.global	adcInit
  19              		.syntax unified
  20              		.thumb
  21              		.thumb_func
  22              		.fpu softvfp
  23              		.type	adcInit, %function
  24              	adcInit:
  25              	.LFB63:
  26              		.file 1 "../os/hal/src/adc.c"
  27              		.loc 1 61 0
  28              		.cfi_startproc
  29              		@ args = 0, pretend = 0, frame = 0
  30              		@ frame_needed = 0, uses_anonymous_args = 0
  31              		@ link register save eliminated.
  32              		.loc 1 63 0
  33 0000 FFF7FEBF 		b	adc_lld_init
  34              	.LVL0:
  35              		.cfi_endproc
  36              	.LFE63:
  37              		.size	adcInit, .-adcInit
  38              		.section	.text.adcObjectInit,"ax",%progbits
  39              		.align	1
  40              		.p2align 2,,3
  41              		.global	adcObjectInit
  42              		.syntax unified
  43              		.thumb
  44              		.thumb_func
  45              		.fpu softvfp
  46              		.type	adcObjectInit, %function
  47              	adcObjectInit:
  48              	.LFB64:
  49              		.loc 1 73 0
  50              		.cfi_startproc
  51              		@ args = 0, pretend = 0, frame = 0
  52              		@ frame_needed = 0, uses_anonymous_args = 0
  53              		@ link register save eliminated.
  54              	.LVL1:
  55              		.loc 1 76 0
  56 0000 0023     		movs	r3, #0
  57              		.loc 1 75 0
ARM GAS  /tmp/ccf0jRrA.s 			page 2


  58 0002 0122     		movs	r2, #1
  59              		.loc 1 76 0
  60 0004 4360     		str	r3, [r0, #4]
  61              		.loc 1 75 0
  62 0006 0270     		strb	r2, [r0]
  63              		.loc 1 77 0
  64 0008 8360     		str	r3, [r0, #8]
  65              		.loc 1 78 0
  66 000a C360     		str	r3, [r0, #12]
  67              		.loc 1 79 0
  68 000c 0361     		str	r3, [r0, #16]
  69              		.loc 1 81 0
  70 000e 4361     		str	r3, [r0, #20]
  71              		.loc 1 85 0
  72 0010 1830     		adds	r0, r0, #24
  73              	.LVL2:
  74 0012 FFF7FEBF 		b	chMtxInit
  75              	.LVL3:
  76              		.cfi_endproc
  77              	.LFE64:
  78              		.size	adcObjectInit, .-adcObjectInit
  79 0016 00BF     		.section	.text.adcStart,"ax",%progbits
  80              		.align	1
  81              		.p2align 2,,3
  82              		.global	adcStart
  83              		.syntax unified
  84              		.thumb
  85              		.thumb_func
  86              		.fpu softvfp
  87              		.type	adcStart, %function
  88              	adcStart:
  89              	.LFB65:
  90              		.loc 1 104 0
  91              		.cfi_startproc
  92              		@ args = 0, pretend = 0, frame = 0
  93              		@ frame_needed = 0, uses_anonymous_args = 0
  94              	.LVL4:
  95 0000 10B5     		push	{r4, lr}
  96              		.cfi_def_cfa_offset 8
  97              		.cfi_offset 4, -8
  98              		.cfi_offset 14, -4
  99              	.LBB10:
 100              		.loc 1 108 0
 101 0002 4023     		movs	r3, #64
 102              	.LBE10:
 103              		.loc 1 104 0
 104 0004 0446     		mov	r4, r0
 105              	.LBB11:
 106              		.loc 1 108 0
 107              		.syntax unified
 108              	@ 108 "../os/hal/src/adc.c" 1
 109 0006 83F31188 		msr     BASEPRI, r3
 110              	@ 0 "" 2
 111              		.thumb
 112              		.syntax unified
 113              	.LBE11:
 114              		.loc 1 111 0
ARM GAS  /tmp/ccf0jRrA.s 			page 3


 115 000a 4160     		str	r1, [r0, #4]
 116              		.loc 1 112 0
 117 000c FFF7FEFF 		bl	adc_lld_start
 118              	.LVL5:
 119              		.loc 1 113 0
 120 0010 0222     		movs	r2, #2
 121              	.LBB12:
 122              		.loc 1 114 0
 123 0012 0023     		movs	r3, #0
 124              	.LBE12:
 125              		.loc 1 113 0
 126 0014 2270     		strb	r2, [r4]
 127              	.LBB13:
 128              		.loc 1 114 0
 129              		.syntax unified
 130              	@ 114 "../os/hal/src/adc.c" 1
 131 0016 83F31188 		msr     BASEPRI, r3
 132              	@ 0 "" 2
 133              		.thumb
 134              		.syntax unified
 135 001a 10BD     		pop	{r4, pc}
 136              	.LBE13:
 137              		.cfi_endproc
 138              	.LFE65:
 139              		.size	adcStart, .-adcStart
 140              		.section	.text.adcStop,"ax",%progbits
 141              		.align	1
 142              		.p2align 2,,3
 143              		.global	adcStop
 144              		.syntax unified
 145              		.thumb
 146              		.thumb_func
 147              		.fpu softvfp
 148              		.type	adcStop, %function
 149              	adcStop:
 150              	.LFB66:
 151              		.loc 1 124 0
 152              		.cfi_startproc
 153              		@ args = 0, pretend = 0, frame = 0
 154              		@ frame_needed = 0, uses_anonymous_args = 0
 155              	.LVL6:
 156 0000 10B5     		push	{r4, lr}
 157              		.cfi_def_cfa_offset 8
 158              		.cfi_offset 4, -8
 159              		.cfi_offset 14, -4
 160              	.LBB14:
 161              		.loc 1 128 0
 162 0002 4023     		movs	r3, #64
 163              	.LBE14:
 164              		.loc 1 124 0
 165 0004 0446     		mov	r4, r0
 166              	.LBB15:
 167              		.loc 1 128 0
 168              		.syntax unified
 169              	@ 128 "../os/hal/src/adc.c" 1
 170 0006 83F31188 		msr     BASEPRI, r3
 171              	@ 0 "" 2
ARM GAS  /tmp/ccf0jRrA.s 			page 4


 172              		.thumb
 173              		.syntax unified
 174              	.LBE15:
 175              		.loc 1 131 0
 176 000a FFF7FEFF 		bl	adc_lld_stop
 177              	.LVL7:
 178              		.loc 1 132 0
 179 000e 0122     		movs	r2, #1
 180              	.LBB16:
 181              		.loc 1 133 0
 182 0010 0023     		movs	r3, #0
 183              	.LBE16:
 184              		.loc 1 132 0
 185 0012 2270     		strb	r2, [r4]
 186              	.LBB17:
 187              		.loc 1 133 0
 188              		.syntax unified
 189              	@ 133 "../os/hal/src/adc.c" 1
 190 0014 83F31188 		msr     BASEPRI, r3
 191              	@ 0 "" 2
 192              		.thumb
 193              		.syntax unified
 194 0018 10BD     		pop	{r4, pc}
 195              	.LBE17:
 196              		.cfi_endproc
 197              	.LFE66:
 198              		.size	adcStop, .-adcStop
 199 001a 00BF     		.section	.text.adcStartConversion,"ax",%progbits
 200              		.align	1
 201              		.p2align 2,,3
 202              		.global	adcStartConversion
 203              		.syntax unified
 204              		.thumb
 205              		.thumb_func
 206              		.fpu softvfp
 207              		.type	adcStartConversion, %function
 208              	adcStartConversion:
 209              	.LFB67:
 210              		.loc 1 155 0
 211              		.cfi_startproc
 212              		@ args = 0, pretend = 0, frame = 0
 213              		@ frame_needed = 0, uses_anonymous_args = 0
 214              	.LVL8:
 215 0000 38B5     		push	{r3, r4, r5, lr}
 216              		.cfi_def_cfa_offset 16
 217              		.cfi_offset 3, -16
 218              		.cfi_offset 4, -12
 219              		.cfi_offset 5, -8
 220              		.cfi_offset 14, -4
 221              		.loc 1 155 0
 222 0002 1D46     		mov	r5, r3
 223              	.LBB18:
 224              		.loc 1 157 0
 225 0004 4023     		movs	r3, #64
 226              	.LVL9:
 227              		.syntax unified
 228              	@ 157 "../os/hal/src/adc.c" 1
ARM GAS  /tmp/ccf0jRrA.s 			page 5


 229 0006 83F31188 		msr     BASEPRI, r3
 230              	@ 0 "" 2
 231              	.LVL10:
 232              		.thumb
 233              		.syntax unified
 234              	.LBE18:
 235              	.LBB19:
 236              	.LBB20:
 237              		.loc 1 197 0
 238 000a 0323     		movs	r3, #3
 239              		.loc 1 194 0
 240 000c 8260     		str	r2, [r0, #8]
 241              		.loc 1 197 0
 242 000e 0370     		strb	r3, [r0]
 243              		.loc 1 195 0
 244 0010 C560     		str	r5, [r0, #12]
 245              		.loc 1 196 0
 246 0012 0161     		str	r1, [r0, #16]
 247              		.loc 1 198 0
 248 0014 FFF7FEFF 		bl	adc_lld_start_conversion
 249              	.LVL11:
 250              	.LBE20:
 251              	.LBE19:
 252              	.LBB21:
 253              		.loc 1 159 0
 254 0018 0023     		movs	r3, #0
 255              		.syntax unified
 256              	@ 159 "../os/hal/src/adc.c" 1
 257 001a 83F31188 		msr     BASEPRI, r3
 258              	@ 0 "" 2
 259              		.thumb
 260              		.syntax unified
 261 001e 38BD     		pop	{r3, r4, r5, pc}
 262              	.LBE21:
 263              		.cfi_endproc
 264              	.LFE67:
 265              		.size	adcStartConversion, .-adcStartConversion
 266              		.section	.text.adcStartConversionI,"ax",%progbits
 267              		.align	1
 268              		.p2align 2,,3
 269              		.global	adcStartConversionI
 270              		.syntax unified
 271              		.thumb
 272              		.thumb_func
 273              		.fpu softvfp
 274              		.type	adcStartConversionI, %function
 275              	adcStartConversionI:
 276              	.LFB68:
 277              		.loc 1 183 0
 278              		.cfi_startproc
 279              		@ args = 0, pretend = 0, frame = 0
 280              		@ frame_needed = 0, uses_anonymous_args = 0
 281              		@ link register save eliminated.
 282              	.LVL12:
 283 0000 30B4     		push	{r4, r5}
 284              		.cfi_def_cfa_offset 8
 285              		.cfi_offset 4, -8
ARM GAS  /tmp/ccf0jRrA.s 			page 6


 286              		.cfi_offset 5, -4
 287              		.loc 1 197 0
 288 0002 0325     		movs	r5, #3
 289              		.loc 1 194 0
 290 0004 8260     		str	r2, [r0, #8]
 291              		.loc 1 197 0
 292 0006 0570     		strb	r5, [r0]
 293              		.loc 1 195 0
 294 0008 C360     		str	r3, [r0, #12]
 295              		.loc 1 196 0
 296 000a 0161     		str	r1, [r0, #16]
 297              		.loc 1 199 0
 298 000c 30BC     		pop	{r4, r5}
 299              		.cfi_restore 5
 300              		.cfi_restore 4
 301              		.cfi_def_cfa_offset 0
 302              		.loc 1 198 0
 303 000e FFF7FEBF 		b	adc_lld_start_conversion
 304              	.LVL13:
 305              		.cfi_endproc
 306              	.LFE68:
 307              		.size	adcStartConversionI, .-adcStartConversionI
 308 0012 00BF     		.section	.text.adcStopConversion,"ax",%progbits
 309              		.align	1
 310              		.p2align 2,,3
 311              		.global	adcStopConversion
 312              		.syntax unified
 313              		.thumb
 314              		.thumb_func
 315              		.fpu softvfp
 316              		.type	adcStopConversion, %function
 317              	adcStopConversion:
 318              	.LFB69:
 319              		.loc 1 211 0
 320              		.cfi_startproc
 321              		@ args = 0, pretend = 0, frame = 0
 322              		@ frame_needed = 0, uses_anonymous_args = 0
 323              	.LVL14:
 324              	.LBB22:
 325              		.loc 1 215 0
 326 0000 4023     		movs	r3, #64
 327              		.syntax unified
 328              	@ 215 "../os/hal/src/adc.c" 1
 329 0002 83F31188 		msr     BASEPRI, r3
 330              	@ 0 "" 2
 331              		.thumb
 332              		.syntax unified
 333              	.LBE22:
 334              		.loc 1 219 0
 335 0006 0378     		ldrb	r3, [r0]	@ zero_extendqisi2
 336 0008 022B     		cmp	r3, #2
 337 000a 12D0     		beq	.L19
 338              		.loc 1 211 0
 339 000c 10B5     		push	{r4, lr}
 340              		.cfi_def_cfa_offset 8
 341              		.cfi_offset 4, -8
 342              		.cfi_offset 14, -4
ARM GAS  /tmp/ccf0jRrA.s 			page 7


 343 000e 0446     		mov	r4, r0
 344              		.loc 1 220 0
 345 0010 FFF7FEFF 		bl	adc_lld_stop_conversion
 346              	.LVL15:
 347              		.loc 1 221 0
 348 0014 0023     		movs	r3, #0
 349              		.loc 1 222 0
 350 0016 0222     		movs	r2, #2
 351              		.loc 1 223 0
 352 0018 6069     		ldr	r0, [r4, #20]
 353              		.loc 1 221 0
 354 001a 2361     		str	r3, [r4, #16]
 355              		.loc 1 222 0
 356 001c 2270     		strb	r2, [r4]
 357              		.loc 1 223 0
 358 001e 20B1     		cbz	r0, .L13
 359              	.LVL16:
 360              	.LBB23:
 361              		.loc 1 223 0 is_stmt 0 discriminator 1
 362 0020 6361     		str	r3, [r4, #20]
 363 0022 6FF00101 		mvn	r1, #1
 364 0026 FFF7FEFF 		bl	chSchWakeupS
 365              	.LVL17:
 366              	.L13:
 367              	.LBE23:
 368              	.LBB24:
 369              		.loc 1 225 0 is_stmt 1
 370 002a 0023     		movs	r3, #0
 371              		.syntax unified
 372              	@ 225 "../os/hal/src/adc.c" 1
 373 002c 83F31188 		msr     BASEPRI, r3
 374              	@ 0 "" 2
 375              		.thumb
 376              		.syntax unified
 377 0030 10BD     		pop	{r4, pc}
 378              	.LVL18:
 379              	.L19:
 380              		.cfi_def_cfa_offset 0
 381              		.cfi_restore 4
 382              		.cfi_restore 14
 383 0032 0023     		movs	r3, #0
 384              		.syntax unified
 385              	@ 225 "../os/hal/src/adc.c" 1
 386 0034 83F31188 		msr     BASEPRI, r3
 387              	@ 0 "" 2
 388              		.thumb
 389              		.syntax unified
 390 0038 7047     		bx	lr
 391              	.LBE24:
 392              		.cfi_endproc
 393              	.LFE69:
 394              		.size	adcStopConversion, .-adcStopConversion
 395 003a 00BF     		.section	.text.adcStopConversionI,"ax",%progbits
 396              		.align	1
 397              		.p2align 2,,3
 398              		.global	adcStopConversionI
 399              		.syntax unified
ARM GAS  /tmp/ccf0jRrA.s 			page 8


 400              		.thumb
 401              		.thumb_func
 402              		.fpu softvfp
 403              		.type	adcStopConversionI, %function
 404              	adcStopConversionI:
 405              	.LFB70:
 406              		.loc 1 238 0
 407              		.cfi_startproc
 408              		@ args = 0, pretend = 0, frame = 0
 409              		@ frame_needed = 0, uses_anonymous_args = 0
 410              	.LVL19:
 411              		.loc 1 247 0
 412 0000 0378     		ldrb	r3, [r0]	@ zero_extendqisi2
 413 0002 022B     		cmp	r3, #2
 414 0004 13D0     		beq	.L31
 415              		.loc 1 238 0
 416 0006 10B5     		push	{r4, lr}
 417              		.cfi_def_cfa_offset 8
 418              		.cfi_offset 4, -8
 419              		.cfi_offset 14, -4
 420 0008 0446     		mov	r4, r0
 421              		.loc 1 248 0
 422 000a FFF7FEFF 		bl	adc_lld_stop_conversion
 423              	.LVL20:
 424              		.loc 1 249 0
 425 000e 0022     		movs	r2, #0
 426              		.loc 1 250 0
 427 0010 0221     		movs	r1, #2
 428              		.loc 1 251 0
 429 0012 6369     		ldr	r3, [r4, #20]
 430              		.loc 1 249 0
 431 0014 2261     		str	r2, [r4, #16]
 432              		.loc 1 250 0
 433 0016 2170     		strb	r1, [r4]
 434              		.loc 1 251 0
 435 0018 43B1     		cbz	r3, .L23
 436              	.LVL21:
 437              	.LBB25:
 438              		.loc 1 251 0 is_stmt 0 discriminator 1
 439 001a 6FF00101 		mvn	r1, #1
 440 001e 6261     		str	r2, [r4, #20]
 441 0020 5962     		str	r1, [r3, #36]
 442 0022 1846     		mov	r0, r3
 443              	.LBE25:
 444              		.loc 1 253 0 is_stmt 1 discriminator 1
 445 0024 BDE81040 		pop	{r4, lr}
 446              		.cfi_remember_state
 447              		.cfi_restore 14
 448              		.cfi_restore 4
 449              		.cfi_def_cfa_offset 0
 450              	.LVL22:
 451              	.LBB26:
 452              		.loc 1 251 0 discriminator 1
 453 0028 FFF7FEBF 		b	chSchReadyI
 454              	.LVL23:
 455              	.L23:
 456              		.cfi_restore_state
ARM GAS  /tmp/ccf0jRrA.s 			page 9


 457 002c 10BD     		pop	{r4, pc}
 458              	.LVL24:
 459              	.L31:
 460              		.cfi_def_cfa_offset 0
 461              		.cfi_restore 4
 462              		.cfi_restore 14
 463 002e 7047     		bx	lr
 464              	.LBE26:
 465              		.cfi_endproc
 466              	.LFE70:
 467              		.size	adcStopConversionI, .-adcStopConversionI
 468              		.section	.text.adcConvert,"ax",%progbits
 469              		.align	1
 470              		.p2align 2,,3
 471              		.global	adcConvert
 472              		.syntax unified
 473              		.thumb
 474              		.thumb_func
 475              		.fpu softvfp
 476              		.type	adcConvert, %function
 477              	adcConvert:
 478              	.LFB71:
 479              		.loc 1 282 0
 480              		.cfi_startproc
 481              		@ args = 0, pretend = 0, frame = 0
 482              		@ frame_needed = 0, uses_anonymous_args = 0
 483              	.LVL25:
 484 0000 70B5     		push	{r4, r5, r6, lr}
 485              		.cfi_def_cfa_offset 16
 486              		.cfi_offset 4, -16
 487              		.cfi_offset 5, -12
 488              		.cfi_offset 6, -8
 489              		.cfi_offset 14, -4
 490              		.loc 1 282 0
 491 0002 1E46     		mov	r6, r3
 492 0004 0446     		mov	r4, r0
 493              	.LBB27:
 494              		.loc 1 285 0
 495 0006 4023     		movs	r3, #64
 496              	.LVL26:
 497              		.syntax unified
 498              	@ 285 "../os/hal/src/adc.c" 1
 499 0008 83F31188 		msr     BASEPRI, r3
 500              	@ 0 "" 2
 501              	.LVL27:
 502              		.thumb
 503              		.syntax unified
 504              	.LBE27:
 505              	.LBB28:
 506              	.LBB29:
 507              		.loc 1 197 0
 508 000c 0323     		movs	r3, #3
 509              	.LBE29:
 510              	.LBE28:
 511              		.loc 1 288 0
 512 000e 094D     		ldr	r5, .L36
 513              	.LBB31:
ARM GAS  /tmp/ccf0jRrA.s 			page 10


 514              	.LBB30:
 515              		.loc 1 194 0
 516 0010 8260     		str	r2, [r0, #8]
 517              		.loc 1 196 0
 518 0012 0161     		str	r1, [r0, #16]
 519              		.loc 1 195 0
 520 0014 C660     		str	r6, [r0, #12]
 521              		.loc 1 197 0
 522 0016 0370     		strb	r3, [r0]
 523              		.loc 1 198 0
 524 0018 FFF7FEFF 		bl	adc_lld_start_conversion
 525              	.LVL28:
 526              	.LBE30:
 527              	.LBE31:
 528              		.loc 1 288 0
 529 001c AB69     		ldr	r3, [r5, #24]
 530              		.loc 1 289 0
 531 001e 0220     		movs	r0, #2
 532              		.loc 1 288 0
 533 0020 6361     		str	r3, [r4, #20]
 534              		.loc 1 289 0
 535 0022 FFF7FEFF 		bl	chSchGoSleepS
 536              	.LVL29:
 537              		.loc 1 290 0
 538 0026 AA69     		ldr	r2, [r5, #24]
 539              	.LBB32:
 540              		.loc 1 291 0
 541 0028 0023     		movs	r3, #0
 542              	.LBE32:
 543              		.loc 1 290 0
 544 002a 506A     		ldr	r0, [r2, #36]
 545              	.LVL30:
 546              	.LBB33:
 547              		.loc 1 291 0
 548              		.syntax unified
 549              	@ 291 "../os/hal/src/adc.c" 1
 550 002c 83F31188 		msr     BASEPRI, r3
 551              	@ 0 "" 2
 552              		.thumb
 553              		.syntax unified
 554              	.LBE33:
 555              		.loc 1 293 0
 556 0030 70BD     		pop	{r4, r5, r6, pc}
 557              	.LVL31:
 558              	.L37:
 559 0032 00BF     		.align	2
 560              	.L36:
 561 0034 00000000 		.word	rlist
 562              		.cfi_endproc
 563              	.LFE71:
 564              		.size	adcConvert, .-adcConvert
 565              		.section	.text.adcAcquireBus,"ax",%progbits
 566              		.align	1
 567              		.p2align 2,,3
 568              		.global	adcAcquireBus
 569              		.syntax unified
 570              		.thumb
ARM GAS  /tmp/ccf0jRrA.s 			page 11


 571              		.thumb_func
 572              		.fpu softvfp
 573              		.type	adcAcquireBus, %function
 574              	adcAcquireBus:
 575              	.LFB72:
 576              		.loc 1 308 0
 577              		.cfi_startproc
 578              		@ args = 0, pretend = 0, frame = 0
 579              		@ frame_needed = 0, uses_anonymous_args = 0
 580              		@ link register save eliminated.
 581              	.LVL32:
 582              		.loc 1 313 0
 583 0000 1830     		adds	r0, r0, #24
 584              	.LVL33:
 585 0002 FFF7FEBF 		b	chMtxLock
 586              	.LVL34:
 587              		.cfi_endproc
 588              	.LFE72:
 589              		.size	adcAcquireBus, .-adcAcquireBus
 590 0006 00BF     		.section	.text.adcReleaseBus,"ax",%progbits
 591              		.align	1
 592              		.p2align 2,,3
 593              		.global	adcReleaseBus
 594              		.syntax unified
 595              		.thumb
 596              		.thumb_func
 597              		.fpu softvfp
 598              		.type	adcReleaseBus, %function
 599              	adcReleaseBus:
 600              	.LFB73:
 601              		.loc 1 328 0
 602              		.cfi_startproc
 603              		@ args = 0, pretend = 0, frame = 0
 604              		@ frame_needed = 0, uses_anonymous_args = 0
 605              		@ link register save eliminated.
 606              	.LVL35:
 607              		.loc 1 334 0
 608 0000 FFF7FEBF 		b	chMtxUnlock
 609              	.LVL36:
 610              		.cfi_endproc
 611              	.LFE73:
 612              		.size	adcReleaseBus, .-adcReleaseBus
 613              		.text
 614              	.Letext0:
 615              		.file 2 "/usr/lib/gcc/arm-none-eabi/6.3.1/include/stddef.h"
 616              		.file 3 "/usr/include/newlib/machine/_default_types.h"
 617              		.file 4 "/usr/include/newlib/sys/_stdint.h"
 618              		.file 5 "../os/ports/GCC/ARMCMx/chtypes.h"
 619              		.file 6 "../os/kernel/include/chlists.h"
 620              		.file 7 "../os/kernel/include/chthreads.h"
 621              		.file 8 "../os/ports/GCC/ARMCMx/chcore_v7m.h"
 622              		.file 9 "../os/kernel/include/chvt.h"
 623              		.file 10 "../os/kernel/include/chschd.h"
 624              		.file 11 "../os/kernel/include/chsem.h"
 625              		.file 12 "../os/kernel/include/chmtx.h"
 626              		.file 13 "../os/kernel/include/chevents.h"
 627              		.file 14 "../os/kernel/include/chregistry.h"
ARM GAS  /tmp/ccf0jRrA.s 			page 12


 628              		.file 15 "../os/kernel/include/chqueues.h"
 629              		.file 16 "../os/kernel/include/ch.h"
 630              		.file 17 "../os/ports/common/ARMCMx/CMSIS/include/core_cm3.h"
 631              		.file 18 "../os/hal/platforms/LPC17xx/system_LPC17xx.h"
 632              		.file 19 "../os/hal/platforms/LPC17xx/LPC17xx.h"
 633              		.file 20 "../os/hal/platforms/LPC17xx/lpc17xx_dma.h"
 634              		.file 21 "../os/hal/platforms/LPC17xx/pal_lld.h"
 635              		.file 22 "../os/hal/include/adc.h"
 636              		.file 23 "../os/hal/platforms/LPC17xx/adc_lld.h"
 637              		.file 24 "../os/hal/include/can.h"
 638              		.file 25 "../os/hal/platforms/LPC17xx/can_lld.h"
 639              		.file 26 "../os/hal/include/gpt.h"
 640              		.file 27 "../os/hal/platforms/LPC17xx/gpt_lld.h"
 641              		.file 28 "../os/hal/include/serial.h"
 642              		.file 29 "../os/hal/platforms/LPC17xx/serial_lld.h"
 643              		.file 30 "../os/hal/include/spi.h"
 644              		.file 31 "../os/hal/platforms/LPC17xx/spi_lld.h"