ARM GAS  /tmp/ccIjqrE9.s 			page 1


   1              		.cpu cortex-m3
   2              		.eabi_attribute 20, 1
   3              		.eabi_attribute 21, 1
   4              		.eabi_attribute 23, 3
   5              		.eabi_attribute 24, 1
   6              		.eabi_attribute 25, 1
   7              		.eabi_attribute 26, 1
   8              		.eabi_attribute 30, 2
   9              		.eabi_attribute 34, 1
  10              		.eabi_attribute 18, 4
  11              		.file	"adc_lld.c"
  12              		.text
  13              	.Ltext0:
  14              		.cfi_sections	.debug_frame
  15              		.section	.text.Vector98,"ax",%progbits
  16              		.align	1
  17              		.p2align 2,,3
  18              		.global	Vector98
  19              		.syntax unified
  20              		.thumb
  21              		.thumb_func
  22              		.fpu softvfp
  23              		.type	Vector98, %function
  24              	Vector98:
  25              	.LFB63:
  26              		.file 1 "../os/hal/platforms/LPC17xx/adc_lld.c"
  27              		.loc 1 86 0
  28              		.cfi_startproc
  29              		@ args = 0, pretend = 0, frame = 0
  30              		@ frame_needed = 0, uses_anonymous_args = 0
  31 0000 F8B5     		push	{r3, r4, r5, r6, r7, lr}
  32              		.cfi_def_cfa_offset 24
  33              		.cfi_offset 3, -24
  34              		.cfi_offset 4, -20
  35              		.cfi_offset 5, -16
  36              		.cfi_offset 6, -12
  37              		.cfi_offset 7, -8
  38              		.cfi_offset 14, -4
  39              		.loc 1 92 0
  40 0002 4F4E     		ldr	r6, .L41
  41              		.loc 1 94 0
  42 0004 4F4D     		ldr	r5, .L41+4
  43              		.loc 1 92 0
  44 0006 326B     		ldr	r2, [r6, #48]
  45              	.LVL0:
  46              		.loc 1 94 0
  47 0008 2C6B     		ldr	r4, [r5, #48]
  48              	.LVL1:
  49              		.loc 1 98 0
  50 000a 12F47F43 		ands	r3, r2, #65280
  51 000e 2CD0     		beq	.L2
  52              		.loc 1 99 0
  53 0010 2B69     		ldr	r3, [r5, #16]
  54 0012 2BB3     		cbz	r3, .L3
  55              	.LVL2:
  56              	.LBB14:
  57              	.LBB15:
ARM GAS  /tmp/ccIjqrE9.s 			page 2


  58              		.loc 1 288 0
  59 0014 0021     		movs	r1, #0
  60              		.loc 1 287 0
  61 0016 AA6A     		ldr	r2, [r5, #40]
  62              	.LVL3:
  63              	.LBE15:
  64              	.LBE14:
  65              		.loc 1 100 0
  66 0018 9E68     		ldr	r6, [r3, #8]
  67              	.LBB17:
  68              	.LBB16:
  69              		.loc 1 287 0
  70 001a 1368     		ldr	r3, [r2]
  71 001c 23F0E063 		bic	r3, r3, #117440512
  72 0020 23F48033 		bic	r3, r3, #65536
  73 0024 1360     		str	r3, [r2]
  74              		.loc 1 288 0
  75 0026 D160     		str	r1, [r2, #12]
  76              	.LVL4:
  77              	.LBE16:
  78              	.LBE17:
  79              		.loc 1 100 0
  80 0028 4EB1     		cbz	r6, .L5
  81              		.loc 1 100 0 is_stmt 0 discriminator 1
  82 002a 0523     		movs	r3, #5
  83 002c 0121     		movs	r1, #1
  84 002e 2B70     		strb	r3, [r5]
  85 0030 2846     		mov	r0, r5
  86 0032 B047     		blx	r6
  87              	.LVL5:
  88 0034 2B78     		ldrb	r3, [r5]	@ zero_extendqisi2
  89 0036 052B     		cmp	r3, #5
  90 0038 04BF     		itt	eq
  91 003a 0223     		moveq	r3, #2
  92 003c 2B70     		strbeq	r3, [r5]
  93              	.L5:
  94              		.loc 1 100 0 discriminator 5
  95 003e 0022     		movs	r2, #0
  96              	.LBB18:
  97 0040 4023     		movs	r3, #64
  98              	.LBE18:
  99 0042 2A61     		str	r2, [r5, #16]
 100              	.LBB19:
 101              		.syntax unified
 102              	@ 100 "../os/hal/platforms/LPC17xx/adc_lld.c" 1
 103 0044 83F31188 		msr     BASEPRI, r3
 104              	@ 0 "" 2
 105              		.thumb
 106              		.syntax unified
 107              	.LBE19:
 108 0048 6B69     		ldr	r3, [r5, #20]
 109 004a 33B1     		cbz	r3, .L7
 110              	.LVL6:
 111              	.LBB20:
 112              		.loc 1 100 0 discriminator 6
 113 004c 4FF0FF31 		mov	r1, #-1
 114 0050 1846     		mov	r0, r3
ARM GAS  /tmp/ccIjqrE9.s 			page 3


 115 0052 5962     		str	r1, [r3, #36]
 116 0054 6A61     		str	r2, [r5, #20]
 117 0056 FFF7FEFF 		bl	chSchReadyI
 118              	.LVL7:
 119              	.L7:
 120              	.LBE20:
 121              	.LBB21:
 122              		.loc 1 100 0 discriminator 8
 123 005a 0023     		movs	r3, #0
 124              		.syntax unified
 125              	@ 100 "../os/hal/platforms/LPC17xx/adc_lld.c" 1
 126 005c 83F31188 		msr     BASEPRI, r3
 127              	@ 0 "" 2
 128              	.LVL8:
 129              		.thumb
 130              		.syntax unified
 131              	.L3:
 132              	.LBE21:
 133              		.loc 1 121 0 is_stmt 1
 134 0060 2C63     		str	r4, [r5, #48]
 135              		.loc 1 123 0
 136 0062 BDE8F840 		pop	{r3, r4, r5, r6, r7, lr}
 137              		.cfi_remember_state
 138              		.cfi_restore 14
 139              		.cfi_restore 7
 140              		.cfi_restore 6
 141              		.cfi_restore 5
 142              		.cfi_restore 4
 143              		.cfi_restore 3
 144              		.cfi_def_cfa_offset 0
 145              	.LVL9:
 146              		.loc 1 122 0
 147 0066 FFF7FEBF 		b	_port_irq_epilogue
 148              	.LVL10:
 149              	.L2:
 150              		.cfi_restore_state
 151              		.loc 1 106 0
 152 006a 0127     		movs	r7, #1
 153              		.loc 1 107 0
 154 006c A968     		ldr	r1, [r5, #8]
 155              		.loc 1 104 0
 156 006e D2B2     		uxtb	r2, r2
 157              	.LVL11:
 158              	.L9:
 159              		.loc 1 106 0
 160 0070 07FA03F0 		lsl	r0, r7, r3
 161 0074 1042     		tst	r0, r2
 162 0076 05D0     		beq	.L8
 163              		.loc 1 107 0
 164 0078 181D     		adds	r0, r3, #4
 165 007a 56F82000 		ldr	r0, [r6, r0, lsl #2]
 166 007e 41F82400 		str	r0, [r1, r4, lsl #2]
 167              		.loc 1 108 0
 168 0082 0134     		adds	r4, r4, #1
 169              	.LVL12:
 170              	.L8:
 171 0084 0133     		adds	r3, r3, #1
ARM GAS  /tmp/ccIjqrE9.s 			page 4


 172              	.LVL13:
 173              		.loc 1 105 0 discriminator 2
 174 0086 082B     		cmp	r3, #8
 175 0088 F2D1     		bne	.L9
 176              		.loc 1 112 0
 177 008a EB6A     		ldr	r3, [r5, #44]
 178 008c B4EB530F 		cmp	r4, r3, lsr #1
 179 0090 14D0     		beq	.L40
 180              	.LVL14:
 181              	.L10:
 182              		.loc 1 116 0
 183 0092 9C42     		cmp	r4, r3
 184 0094 E4D1     		bne	.L3
 185              	.LVL15:
 186              		.loc 1 118 0
 187 0096 2B69     		ldr	r3, [r5, #16]
 188 0098 1978     		ldrb	r1, [r3]	@ zero_extendqisi2
 189 009a C9B1     		cbz	r1, .L11
 190              		.loc 1 118 0 is_stmt 0 discriminator 1
 191 009c 5C68     		ldr	r4, [r3, #4]
 192 009e 002C     		cmp	r4, #0
 193 00a0 DED0     		beq	.L3
 194              		.loc 1 118 0 discriminator 3
 195 00a2 EA68     		ldr	r2, [r5, #12]
 196 00a4 012A     		cmp	r2, #1
 197 00a6 42D9     		bls	.L12
 198              	.LBB22:
 199              		.loc 1 118 0 discriminator 4
 200 00a8 5888     		ldrh	r0, [r3, #2]
 201 00aa 5208     		lsrs	r2, r2, #1
 202              	.LVL16:
 203 00ac AB68     		ldr	r3, [r5, #8]
 204              	.LVL17:
 205 00ae 9100     		lsls	r1, r2, #2
 206 00b0 00FB0131 		mla	r1, r0, r1, r3
 207 00b4 2348     		ldr	r0, .L41+4
 208 00b6 A047     		blx	r4
 209              	.LVL18:
 210              	.LBE22:
 211              		.loc 1 117 0 is_stmt 1 discriminator 4
 212 00b8 0024     		movs	r4, #0
 213 00ba D1E7     		b	.L3
 214              	.LVL19:
 215              	.L40:
 216              		.loc 1 113 0
 217 00bc 2A69     		ldr	r2, [r5, #16]
 218              	.LVL20:
 219 00be 5668     		ldr	r6, [r2, #4]
 220 00c0 002E     		cmp	r6, #0
 221 00c2 E6D0     		beq	.L10
 222              		.loc 1 113 0 is_stmt 0 discriminator 1
 223 00c4 EA68     		ldr	r2, [r5, #12]
 224 00c6 1F48     		ldr	r0, .L41+4
 225 00c8 5208     		lsrs	r2, r2, #1
 226 00ca B047     		blx	r6
 227              	.LVL21:
 228 00cc EB6A     		ldr	r3, [r5, #44]
ARM GAS  /tmp/ccIjqrE9.s 			page 5


 229 00ce E0E7     		b	.L10
 230              	.LVL22:
 231              	.L11:
 232              	.LBB23:
 233              	.LBB24:
 234              		.loc 1 287 0 is_stmt 1
 235 00d0 A86A     		ldr	r0, [r5, #40]
 236              	.LBE24:
 237              	.LBE23:
 238              		.loc 1 118 0
 239 00d2 5C68     		ldr	r4, [r3, #4]
 240              	.LBB26:
 241              	.LBB25:
 242              		.loc 1 287 0
 243 00d4 0268     		ldr	r2, [r0]
 244 00d6 22F0E062 		bic	r2, r2, #117440512
 245 00da 22F48032 		bic	r2, r2, #65536
 246 00de 0260     		str	r2, [r0]
 247              		.loc 1 288 0
 248 00e0 C160     		str	r1, [r0, #12]
 249              	.LVL23:
 250              	.LBE25:
 251              	.LBE26:
 252              		.loc 1 118 0
 253 00e2 FCB1     		cbz	r4, .L13
 254              		.loc 1 118 0 is_stmt 0 discriminator 6
 255 00e4 0421     		movs	r1, #4
 256 00e6 EA68     		ldr	r2, [r5, #12]
 257 00e8 2970     		strb	r1, [r5]
 258 00ea 012A     		cmp	r2, #1
 259 00ec 24D9     		bls	.L14
 260              	.LBB27:
 261              		.loc 1 118 0 discriminator 8
 262 00ee 5988     		ldrh	r1, [r3, #2]
 263 00f0 5208     		lsrs	r2, r2, #1
 264              	.LVL24:
 265 00f2 AB68     		ldr	r3, [r5, #8]
 266              	.LVL25:
 267 00f4 9000     		lsls	r0, r2, #2
 268 00f6 00FB0131 		mla	r1, r0, r1, r3
 269 00fa 1248     		ldr	r0, .L41+4
 270 00fc A047     		blx	r4
 271              	.LVL26:
 272              	.L15:
 273              	.LBE27:
 274              		.loc 1 118 0 discriminator 11
 275 00fe 2B78     		ldrb	r3, [r5]	@ zero_extendqisi2
 276 0100 042B     		cmp	r3, #4
 277 0102 0FD0     		beq	.L13
 278              	.L16:
 279              	.LBB28:
 280              		.loc 1 118 0 discriminator 13
 281 0104 4023     		movs	r3, #64
 282              		.syntax unified
 283              	@ 118 "../os/hal/platforms/LPC17xx/adc_lld.c" 1
 284 0106 83F31188 		msr     BASEPRI, r3
 285              	@ 0 "" 2
ARM GAS  /tmp/ccIjqrE9.s 			page 6


 286              		.thumb
 287              		.syntax unified
 288              	.LBE28:
 289 010a 6B69     		ldr	r3, [r5, #20]
 290 010c 2BB1     		cbz	r3, .L17
 291              	.LVL27:
 292              	.LBB29:
 293              		.loc 1 118 0 discriminator 14
 294 010e 0022     		movs	r2, #0
 295 0110 1846     		mov	r0, r3
 296 0112 5A62     		str	r2, [r3, #36]
 297 0114 6A61     		str	r2, [r5, #20]
 298 0116 FFF7FEFF 		bl	chSchReadyI
 299              	.LVL28:
 300              	.L17:
 301              	.LBE29:
 302              	.LBB30:
 303              		.loc 1 118 0 discriminator 16
 304 011a 0023     		movs	r3, #0
 305              		.syntax unified
 306              	@ 118 "../os/hal/platforms/LPC17xx/adc_lld.c" 1
 307 011c 83F31188 		msr     BASEPRI, r3
 308              	@ 0 "" 2
 309              		.thumb
 310              		.syntax unified
 311              	.LBE30:
 312              		.loc 1 117 0 is_stmt 1 discriminator 16
 313 0120 1C46     		mov	r4, r3
 314 0122 9DE7     		b	.L3
 315              	.L13:
 316              		.loc 1 118 0 discriminator 12
 317 0124 0222     		movs	r2, #2
 318 0126 0023     		movs	r3, #0
 319 0128 2A70     		strb	r2, [r5]
 320 012a 2B61     		str	r3, [r5, #16]
 321 012c EAE7     		b	.L16
 322              	.L12:
 323              		.loc 1 118 0 is_stmt 0 discriminator 5
 324 012e A968     		ldr	r1, [r5, #8]
 325 0130 0448     		ldr	r0, .L41+4
 326 0132 A047     		blx	r4
 327              	.LVL29:
 328              		.loc 1 117 0 is_stmt 1 discriminator 5
 329 0134 0024     		movs	r4, #0
 330 0136 93E7     		b	.L3
 331              	.L14:
 332              		.loc 1 118 0 discriminator 9
 333 0138 A968     		ldr	r1, [r5, #8]
 334 013a 0248     		ldr	r0, .L41+4
 335 013c A047     		blx	r4
 336              	.LVL30:
 337 013e DEE7     		b	.L15
 338              	.L42:
 339              		.align	2
 340              	.L41:
 341 0140 00400340 		.word	1073954816
 342 0144 00000000 		.word	.LANCHOR0
ARM GAS  /tmp/ccIjqrE9.s 			page 7


 343              		.cfi_endproc
 344              	.LFE63:
 345              		.size	Vector98, .-Vector98
 346              		.section	.text.adc_lld_init,"ax",%progbits
 347              		.align	1
 348              		.p2align 2,,3
 349              		.global	adc_lld_init
 350              		.syntax unified
 351              		.thumb
 352              		.thumb_func
 353              		.fpu softvfp
 354              		.type	adc_lld_init, %function
 355              	adc_lld_init:
 356              	.LFB64:
 357              		.loc 1 135 0
 358              		.cfi_startproc
 359              		@ args = 0, pretend = 0, frame = 0
 360              		@ frame_needed = 0, uses_anonymous_args = 0
 361 0000 10B5     		push	{r4, lr}
 362              		.cfi_def_cfa_offset 8
 363              		.cfi_offset 4, -8
 364              		.cfi_offset 14, -4
 365              		.loc 1 138 0
 366 0002 064C     		ldr	r4, .L45
 367 0004 2046     		mov	r0, r4
 368 0006 FFF7FEFF 		bl	adcObjectInit
 369              	.LVL31:
 370              		.loc 1 139 0
 371 000a 054B     		ldr	r3, .L45+4
 372              		.loc 1 144 0
 373 000c 6021     		movs	r1, #96
 374              		.loc 1 139 0
 375 000e A362     		str	r3, [r4, #40]
 376              		.loc 1 144 0
 377 0010 1620     		movs	r0, #22
 378              		.loc 1 146 0
 379 0012 BDE81040 		pop	{r4, lr}
 380              		.cfi_restore 14
 381              		.cfi_restore 4
 382              		.cfi_def_cfa_offset 0
 383              		.loc 1 144 0
 384 0016 FFF7FEBF 		b	nvicEnableVector
 385              	.LVL32:
 386              	.L46:
 387 001a 00BF     		.align	2
 388              	.L45:
 389 001c 00000000 		.word	.LANCHOR0
 390 0020 00400340 		.word	1073954816
 391              		.cfi_endproc
 392              	.LFE64:
 393              		.size	adc_lld_init, .-adc_lld_init
 394              		.section	.text.adc_lld_start,"ax",%progbits
 395              		.align	1
 396              		.p2align 2,,3
 397              		.global	adc_lld_start
 398              		.syntax unified
 399              		.thumb
ARM GAS  /tmp/ccIjqrE9.s 			page 8


 400              		.thumb_func
 401              		.fpu softvfp
 402              		.type	adc_lld_start, %function
 403              	adc_lld_start:
 404              	.LFB65:
 405              		.loc 1 155 0
 406              		.cfi_startproc
 407              		@ args = 0, pretend = 0, frame = 0
 408              		@ frame_needed = 0, uses_anonymous_args = 0
 409              		@ link register save eliminated.
 410              	.LVL33:
 411              		.loc 1 158 0
 412 0000 0378     		ldrb	r3, [r0]	@ zero_extendqisi2
 413 0002 012B     		cmp	r3, #1
 414 0004 06D1     		bne	.L47
 415              		.loc 1 159 0
 416 0006 044A     		ldr	r2, .L49
 417 0008 D2F8C430 		ldr	r3, [r2, #196]
 418 000c 43F48053 		orr	r3, r3, #4096
 419 0010 C2F8C430 		str	r3, [r2, #196]
 420              	.L47:
 421 0014 7047     		bx	lr
 422              	.L50:
 423 0016 00BF     		.align	2
 424              	.L49:
 425 0018 00C00F40 		.word	1074774016
 426              		.cfi_endproc
 427              	.LFE65:
 428              		.size	adc_lld_start, .-adc_lld_start
 429              		.section	.text.adc_lld_stop,"ax",%progbits
 430              		.align	1
 431              		.p2align 2,,3
 432              		.global	adc_lld_stop
 433              		.syntax unified
 434              		.thumb
 435              		.thumb_func
 436              		.fpu softvfp
 437              		.type	adc_lld_stop, %function
 438              	adc_lld_stop:
 439              	.LFB66:
 440              		.loc 1 176 0
 441              		.cfi_startproc
 442              		@ args = 0, pretend = 0, frame = 0
 443              		@ frame_needed = 0, uses_anonymous_args = 0
 444              		@ link register save eliminated.
 445              	.LVL34:
 446              		.loc 1 179 0
 447 0000 0378     		ldrb	r3, [r0]	@ zero_extendqisi2
 448 0002 022B     		cmp	r3, #2
 449 0004 09D1     		bne	.L51
 450              		.loc 1 180 0
 451 0006 0021     		movs	r1, #0
 452 0008 836A     		ldr	r3, [r0, #40]
 453              		.loc 1 181 0
 454 000a 044A     		ldr	r2, .L53
 455              		.loc 1 180 0
 456 000c 1960     		str	r1, [r3]
ARM GAS  /tmp/ccIjqrE9.s 			page 9


 457              		.loc 1 181 0
 458 000e D2F8C430 		ldr	r3, [r2, #196]
 459 0012 23F48053 		bic	r3, r3, #4096
 460 0016 C2F8C430 		str	r3, [r2, #196]
 461              	.L51:
 462 001a 7047     		bx	lr
 463              	.L54:
 464              		.align	2
 465              	.L53:
 466 001c 00C00F40 		.word	1074774016
 467              		.cfi_endproc
 468              	.LFE66:
 469              		.size	adc_lld_stop, .-adc_lld_stop
 470              		.section	.text.adc_lld_start_conversion,"ax",%progbits
 471              		.align	1
 472              		.p2align 2,,3
 473              		.global	adc_lld_start_conversion
 474              		.syntax unified
 475              		.thumb
 476              		.thumb_func
 477              		.fpu softvfp
 478              		.type	adc_lld_start_conversion, %function
 479              	adc_lld_start_conversion:
 480              	.LFB67:
 481              		.loc 1 196 0
 482              		.cfi_startproc
 483              		@ args = 0, pretend = 0, frame = 0
 484              		@ frame_needed = 0, uses_anonymous_args = 0
 485              		@ link register save eliminated.
 486              	.LVL35:
 487 0000 70B4     		push	{r4, r5, r6}
 488              		.cfi_def_cfa_offset 12
 489              		.cfi_offset 4, -12
 490              		.cfi_offset 5, -8
 491              		.cfi_offset 6, -4
 492              		.loc 1 208 0
 493 0002 0026     		movs	r6, #0
 494              		.loc 1 209 0
 495 0004 3346     		mov	r3, r6
 496              		.loc 1 207 0
 497 0006 0569     		ldr	r5, [r0, #16]
 498              		.loc 1 209 0
 499 0008 C468     		ldr	r4, [r0, #12]
 500 000a 6A88     		ldrh	r2, [r5, #2]
 501 000c 816A     		ldr	r1, [r0, #40]
 502 000e 02FB04F2 		mul	r2, r2, r4
 503              		.loc 1 207 0
 504 0012 EC68     		ldr	r4, [r5, #12]
 505              	.LVL36:
 506              		.loc 1 209 0
 507 0014 C262     		str	r2, [r0, #44]
 508              	.LVL37:
 509              		.loc 1 208 0
 510 0016 0663     		str	r6, [r0, #48]
 511              	.LVL38:
 512              	.L56:
 513              		.loc 1 212 0 discriminator 3
ARM GAS  /tmp/ccIjqrE9.s 			page 10


 514 0018 1A1D     		adds	r2, r3, #4
 515 001a 0133     		adds	r3, r3, #1
 516              	.LVL39:
 517              		.loc 1 211 0 discriminator 3
 518 001c 082B     		cmp	r3, #8
 519              		.loc 1 212 0 discriminator 3
 520 001e 51F82220 		ldr	r2, [r1, r2, lsl #2]
 521              		.loc 1 211 0 discriminator 3
 522 0022 F9D1     		bne	.L56
 523              		.loc 1 270 0
 524 0024 A3B2     		uxth	r3, r4
 525              		.loc 1 269 0
 526 0026 2A69     		ldr	r2, [r5, #16]
 527              		.loc 1 270 0
 528 0028 43F40013 		orr	r3, r3, #2097152
 529 002c 43F43063 		orr	r3, r3, #2816
 530              		.loc 1 269 0
 531 0030 CA60     		str	r2, [r1, #12]
 532              		.loc 1 270 0
 533 0032 0B60     		str	r3, [r1]
 534              		.loc 1 271 0
 535 0034 0A68     		ldr	r2, [r1]
 536 0036 230C     		lsrs	r3, r4, #16
 537 0038 1B04     		lsls	r3, r3, #16
 538 003a 1343     		orrs	r3, r3, r2
 539 003c 0B60     		str	r3, [r1]
 540              		.loc 1 273 0
 541 003e 70BC     		pop	{r4, r5, r6}
 542              		.cfi_restore 6
 543              		.cfi_restore 5
 544              		.cfi_restore 4
 545              		.cfi_def_cfa_offset 0
 546              	.LVL40:
 547 0040 7047     		bx	lr
 548              		.cfi_endproc
 549              	.LFE67:
 550              		.size	adc_lld_start_conversion, .-adc_lld_start_conversion
 551 0042 00BF     		.section	.text.adc_lld_stop_conversion,"ax",%progbits
 552              		.align	1
 553              		.p2align 2,,3
 554              		.global	adc_lld_stop_conversion
 555              		.syntax unified
 556              		.thumb
 557              		.thumb_func
 558              		.fpu softvfp
 559              		.type	adc_lld_stop_conversion, %function
 560              	adc_lld_stop_conversion:
 561              	.LFB68:
 562              		.loc 1 282 0
 563              		.cfi_startproc
 564              		@ args = 0, pretend = 0, frame = 0
 565              		@ frame_needed = 0, uses_anonymous_args = 0
 566              		@ link register save eliminated.
 567              	.LVL41:
 568              		.loc 1 288 0
 569 0000 0021     		movs	r1, #0
 570              		.loc 1 287 0
ARM GAS  /tmp/ccIjqrE9.s 			page 11


 571 0002 826A     		ldr	r2, [r0, #40]
 572 0004 1368     		ldr	r3, [r2]
 573 0006 23F0E063 		bic	r3, r3, #117440512
 574 000a 23F48033 		bic	r3, r3, #65536
 575 000e 1360     		str	r3, [r2]
 576              		.loc 1 288 0
 577 0010 D160     		str	r1, [r2, #12]
 578 0012 7047     		bx	lr
 579              		.cfi_endproc
 580              	.LFE68:
 581              		.size	adc_lld_stop_conversion, .-adc_lld_stop_conversion
 582              		.global	ADCD1
 583              		.section	.bss.ADCD1,"aw",%nobits
 584              		.align	2
 585              		.set	.LANCHOR0,. + 0
 586              		.type	ADCD1, %object
 587              		.size	ADCD1, 52
 588              	ADCD1:
 589 0000 00000000 		.space	52
 589      00000000 
 589      00000000 
 589      00000000 
 589      00000000 
 590              		.text
 591              	.Letext0:
 592              		.file 2 "/usr/lib/gcc/arm-none-eabi/6.3.1/include/stddef.h"
 593              		.file 3 "/usr/include/newlib/machine/_default_types.h"
 594              		.file 4 "/usr/include/newlib/sys/_stdint.h"
 595              		.file 5 "../os/ports/GCC/ARMCMx/chtypes.h"
 596              		.file 6 "../os/kernel/include/chlists.h"
 597              		.file 7 "../os/kernel/include/chthreads.h"
 598              		.file 8 "../os/ports/GCC/ARMCMx/chcore_v7m.h"
 599              		.file 9 "../os/kernel/include/chvt.h"
 600              		.file 10 "../os/kernel/include/chschd.h"
 601              		.file 11 "../os/kernel/include/chsem.h"
 602              		.file 12 "../os/kernel/include/chmtx.h"
 603              		.file 13 "../os/kernel/include/chevents.h"
 604              		.file 14 "../os/kernel/include/chregistry.h"
 605              		.file 15 "../os/kernel/include/chqueues.h"
 606              		.file 16 "../os/kernel/include/ch.h"
 607              		.file 17 "../os/ports/common/ARMCMx/CMSIS/include/core_cm3.h"
 608              		.file 18 "../os/hal/platforms/LPC17xx/system_LPC17xx.h"
 609              		.file 19 "../os/hal/platforms/LPC17xx/LPC17xx.h"
 610              		.file 20 "../os/hal/platforms/LPC17xx/lpc17xx_dma.h"
 611              		.file 21 "../os/hal/platforms/LPC17xx/pal_lld.h"
 612              		.file 22 "../os/hal/include/adc.h"
 613              		.file 23 "../os/hal/platforms/LPC17xx/adc_lld.h"
 614              		.file 24 "../os/hal/include/can.h"
 615              		.file 25 "../os/hal/platforms/LPC17xx/can_lld.h"
 616              		.file 26 "../os/hal/include/gpt.h"
 617              		.file 27 "../os/hal/platforms/LPC17xx/gpt_lld.h"
 618              		.file 28 "../os/hal/include/serial.h"
 619              		.file 29 "../os/hal/platforms/LPC17xx/serial_lld.h"
 620              		.file 30 "../os/hal/include/spi.h"
 621              		.file 31 "../os/hal/platforms/LPC17xx/spi_lld.h"
 622              		.file 32 "../os/ports/common/ARMCMx/nvic.h"