ARM GAS  /tmp/ccBv5s24.s 			page 1


   1              		.cpu cortex-m3
   2              		.eabi_attribute 20, 1
   3              		.eabi_attribute 21, 1
   4              		.eabi_attribute 23, 3
   5              		.eabi_attribute 24, 1
   6              		.eabi_attribute 25, 1
   7              		.eabi_attribute 26, 1
   8              		.eabi_attribute 30, 2
   9              		.eabi_attribute 34, 1
  10              		.eabi_attribute 18, 4
  11              		.file	"chdynamic.c"
  12              		.text
  13              	.Ltext0:
  14              		.cfi_sections	.debug_frame
  15              		.section	.text.chThdAddRef,"ax",%progbits
  16              		.align	1
  17              		.p2align 2,,3
  18              		.global	chThdAddRef
  19              		.syntax unified
  20              		.thumb
  21              		.thumb_func
  22              		.fpu softvfp
  23              		.type	chThdAddRef, %function
  24              	chThdAddRef:
  25              	.LFB7:
  26              		.file 1 "../os/kernel/src/chdynamic.c"
  27              		.loc 1 45 0
  28              		.cfi_startproc
  29              		@ args = 0, pretend = 0, frame = 0
  30              		@ frame_needed = 0, uses_anonymous_args = 0
  31              		@ link register save eliminated.
  32              	.LVL0:
  33              	.LBB2:
  34              		.loc 1 47 0
  35 0000 4023     		movs	r3, #64
  36              		.syntax unified
  37              	@ 47 "../os/kernel/src/chdynamic.c" 1
  38 0002 83F31188 		msr     BASEPRI, r3
  39              	@ 0 "" 2
  40              		.thumb
  41              		.syntax unified
  42              	.LBE2:
  43              		.loc 1 49 0
  44 0006 827F     		ldrb	r2, [r0, #30]	@ zero_extendqisi2
  45              	.LBB3:
  46              		.loc 1 50 0
  47 0008 0023     		movs	r3, #0
  48              	.LBE3:
  49              		.loc 1 49 0
  50 000a 0132     		adds	r2, r2, #1
  51 000c 8277     		strb	r2, [r0, #30]
  52              	.LBB4:
  53              		.loc 1 50 0
  54              		.syntax unified
  55              	@ 50 "../os/kernel/src/chdynamic.c" 1
  56 000e 83F31188 		msr     BASEPRI, r3
  57              	@ 0 "" 2
ARM GAS  /tmp/ccBv5s24.s 			page 2


  58              		.thumb
  59              		.syntax unified
  60              	.LBE4:
  61              		.loc 1 52 0
  62 0012 7047     		bx	lr
  63              		.cfi_endproc
  64              	.LFE7:
  65              		.size	chThdAddRef, .-chThdAddRef
  66              		.section	.text.chThdRelease,"ax",%progbits
  67              		.align	1
  68              		.p2align 2,,3
  69              		.global	chThdRelease
  70              		.syntax unified
  71              		.thumb
  72              		.thumb_func
  73              		.fpu softvfp
  74              		.type	chThdRelease, %function
  75              	chThdRelease:
  76              	.LFB8:
  77              		.loc 1 67 0
  78              		.cfi_startproc
  79              		@ args = 0, pretend = 0, frame = 0
  80              		@ frame_needed = 0, uses_anonymous_args = 0
  81              		@ link register save eliminated.
  82              	.LVL1:
  83              		.loc 1 67 0
  84 0000 0146     		mov	r1, r0
  85              	.LBB5:
  86              		.loc 1 70 0
  87 0002 4023     		movs	r3, #64
  88              		.syntax unified
  89              	@ 70 "../os/kernel/src/chdynamic.c" 1
  90 0004 83F31188 		msr     BASEPRI, r3
  91              	@ 0 "" 2
  92              		.thumb
  93              		.syntax unified
  94              	.LBE5:
  95              		.loc 1 72 0
  96 0008 827F     		ldrb	r2, [r0, #30]	@ zero_extendqisi2
  97              	.LBB6:
  98              		.loc 1 73 0
  99 000a 0023     		movs	r3, #0
 100              	.LBE6:
 101              		.loc 1 72 0
 102 000c 013A     		subs	r2, r2, #1
 103 000e D2B2     		uxtb	r2, r2
 104 0010 8277     		strb	r2, [r0, #30]
 105              	.LVL2:
 106              	.LBB7:
 107              		.loc 1 73 0
 108              		.syntax unified
 109              	@ 73 "../os/kernel/src/chdynamic.c" 1
 110 0012 83F31188 		msr     BASEPRI, r3
 111              	@ 0 "" 2
 112              		.thumb
 113              		.syntax unified
 114              	.LBE7:
ARM GAS  /tmp/ccBv5s24.s 			page 3


 115              		.loc 1 78 0
 116 0016 12B9     		cbnz	r2, .L2
 117              		.loc 1 78 0 is_stmt 0 discriminator 1
 118 0018 037F     		ldrb	r3, [r0, #28]	@ zero_extendqisi2
 119 001a 0E2B     		cmp	r3, #14
 120 001c 00D0     		beq	.L7
 121              	.L2:
 122 001e 7047     		bx	lr
 123              	.L7:
 124              		.loc 1 79 0 is_stmt 1
 125 0020 437F     		ldrb	r3, [r0, #29]	@ zero_extendqisi2
 126 0022 03F00303 		and	r3, r3, #3
 127 0026 012B     		cmp	r3, #1
 128 0028 02D0     		beq	.L4
 129 002a 022B     		cmp	r3, #2
 130 002c 07D0     		beq	.L5
 131 002e 7047     		bx	lr
 132              	.L4:
 133              		.loc 1 83 0
 134 0030 0269     		ldr	r2, [r0, #16]
 135              	.LVL3:
 136 0032 4369     		ldr	r3, [r0, #20]
 137 0034 1A61     		str	r2, [r3, #16]
 138              	.LVL4:
 139 0036 0269     		ldr	r2, [r0, #16]
 140 0038 5361     		str	r3, [r2, #20]
 141              		.loc 1 85 0
 142 003a FFF7FEBF 		b	chHeapFree
 143              	.LVL5:
 144              	.L5:
 145              		.loc 1 91 0
 146 003e 0269     		ldr	r2, [r0, #16]
 147              	.LVL6:
 148 0040 4369     		ldr	r3, [r0, #20]
 149 0042 1A61     		str	r2, [r3, #16]
 150              	.LVL7:
 151 0044 0269     		ldr	r2, [r0, #16]
 152              		.loc 1 93 0
 153 0046 406C     		ldr	r0, [r0, #68]
 154              	.LVL8:
 155              		.loc 1 91 0
 156 0048 5361     		str	r3, [r2, #20]
 157              		.loc 1 93 0
 158 004a FFF7FEBF 		b	chPoolFree
 159              	.LVL9:
 160              		.cfi_endproc
 161              	.LFE8:
 162              		.size	chThdRelease, .-chThdRelease
 163 004e 00BF     		.section	.text.chThdCreateFromHeap,"ax",%progbits
 164              		.align	1
 165              		.p2align 2,,3
 166              		.global	chThdCreateFromHeap
 167              		.syntax unified
 168              		.thumb
 169              		.thumb_func
 170              		.fpu softvfp
 171              		.type	chThdCreateFromHeap, %function
ARM GAS  /tmp/ccBv5s24.s 			page 4


 172              	chThdCreateFromHeap:
 173              	.LFB9:
 174              		.loc 1 124 0
 175              		.cfi_startproc
 176              		@ args = 4, pretend = 0, frame = 0
 177              		@ frame_needed = 0, uses_anonymous_args = 0
 178              	.LVL10:
 179 0000 F0B5     		push	{r4, r5, r6, r7, lr}
 180              		.cfi_def_cfa_offset 20
 181              		.cfi_offset 4, -20
 182              		.cfi_offset 5, -16
 183              		.cfi_offset 6, -12
 184              		.cfi_offset 7, -8
 185              		.cfi_offset 14, -4
 186 0002 83B0     		sub	sp, sp, #12
 187              		.cfi_def_cfa_offset 32
 188              		.loc 1 124 0
 189 0004 1646     		mov	r6, r2
 190 0006 1F46     		mov	r7, r3
 191 0008 0D46     		mov	r5, r1
 192              		.loc 1 128 0
 193 000a FFF7FEFF 		bl	chHeapAlloc
 194              	.LVL11:
 195              		.loc 1 129 0
 196 000e A8B1     		cbz	r0, .L11
 197              	.LBB8:
 198              		.loc 1 141 0
 199 0010 4023     		movs	r3, #64
 200              		.syntax unified
 201              	@ 141 "../os/kernel/src/chdynamic.c" 1
 202 0012 83F31188 		msr     BASEPRI, r3
 203              	@ 0 "" 2
 204              		.thumb
 205              		.syntax unified
 206              	.LBE8:
 207              		.loc 1 142 0
 208 0016 089B     		ldr	r3, [sp, #32]
 209 0018 3246     		mov	r2, r6
 210 001a 0093     		str	r3, [sp]
 211 001c 2946     		mov	r1, r5
 212 001e 3B46     		mov	r3, r7
 213 0020 FFF7FEFF 		bl	chThdCreateI
 214              	.LVL12:
 215              		.loc 1 143 0
 216 0024 0123     		movs	r3, #1
 217              		.loc 1 144 0
 218 0026 0021     		movs	r1, #0
 219              		.loc 1 143 0
 220 0028 4377     		strb	r3, [r0, #29]
 221              		.loc 1 142 0
 222 002a 0446     		mov	r4, r0
 223              	.LVL13:
 224              		.loc 1 144 0
 225 002c FFF7FEFF 		bl	chSchWakeupS
 226              	.LVL14:
 227              	.LBB9:
 228              		.loc 1 145 0
ARM GAS  /tmp/ccBv5s24.s 			page 5


 229 0030 0023     		movs	r3, #0
 230              		.syntax unified
 231              	@ 145 "../os/kernel/src/chdynamic.c" 1
 232 0032 83F31188 		msr     BASEPRI, r3
 233              	@ 0 "" 2
 234              	.LVL15:
 235              		.thumb
 236              		.syntax unified
 237              	.L8:
 238              	.LBE9:
 239              		.loc 1 147 0
 240 0036 2046     		mov	r0, r4
 241 0038 03B0     		add	sp, sp, #12
 242              		.cfi_remember_state
 243              		.cfi_def_cfa_offset 20
 244              		@ sp needed
 245 003a F0BD     		pop	{r4, r5, r6, r7, pc}
 246              	.LVL16:
 247              	.L11:
 248              		.cfi_restore_state
 249 003c 0446     		mov	r4, r0
 250 003e FAE7     		b	.L8
 251              		.cfi_endproc
 252              	.LFE9:
 253              		.size	chThdCreateFromHeap, .-chThdCreateFromHeap
 254              		.section	.text.chThdCreateFromMemoryPool,"ax",%progbits
 255              		.align	1
 256              		.p2align 2,,3
 257              		.global	chThdCreateFromMemoryPool
 258              		.syntax unified
 259              		.thumb
 260              		.thumb_func
 261              		.fpu softvfp
 262              		.type	chThdCreateFromMemoryPool, %function
 263              	chThdCreateFromMemoryPool:
 264              	.LFB10:
 265              		.loc 1 173 0
 266              		.cfi_startproc
 267              		@ args = 0, pretend = 0, frame = 0
 268              		@ frame_needed = 0, uses_anonymous_args = 0
 269              	.LVL17:
 270 0000 2DE9F041 		push	{r4, r5, r6, r7, r8, lr}
 271              		.cfi_def_cfa_offset 24
 272              		.cfi_offset 4, -24
 273              		.cfi_offset 5, -20
 274              		.cfi_offset 6, -16
 275              		.cfi_offset 7, -12
 276              		.cfi_offset 8, -8
 277              		.cfi_offset 14, -4
 278 0004 82B0     		sub	sp, sp, #8
 279              		.cfi_def_cfa_offset 32
 280              		.loc 1 173 0
 281 0006 0E46     		mov	r6, r1
 282 0008 1746     		mov	r7, r2
 283 000a 9846     		mov	r8, r3
 284 000c 0546     		mov	r5, r0
 285              		.loc 1 179 0
ARM GAS  /tmp/ccBv5s24.s 			page 6


 286 000e FFF7FEFF 		bl	chPoolAlloc
 287              	.LVL18:
 288              		.loc 1 180 0
 289 0012 B8B1     		cbz	r0, .L16
 290              	.LBB10:
 291              		.loc 1 192 0
 292 0014 4023     		movs	r3, #64
 293              		.syntax unified
 294              	@ 192 "../os/kernel/src/chdynamic.c" 1
 295 0016 83F31188 		msr     BASEPRI, r3
 296              	@ 0 "" 2
 297              		.thumb
 298              		.syntax unified
 299              	.LBE10:
 300              		.loc 1 193 0
 301 001a 6968     		ldr	r1, [r5, #4]
 302 001c 3B46     		mov	r3, r7
 303 001e 3246     		mov	r2, r6
 304 0020 CDF80080 		str	r8, [sp]
 305 0024 FFF7FEFF 		bl	chThdCreateI
 306              	.LVL19:
 307              		.loc 1 194 0
 308 0028 0223     		movs	r3, #2
 309              		.loc 1 195 0
 310 002a 4564     		str	r5, [r0, #68]
 311              		.loc 1 194 0
 312 002c 4377     		strb	r3, [r0, #29]
 313              		.loc 1 196 0
 314 002e 0021     		movs	r1, #0
 315              		.loc 1 193 0
 316 0030 0446     		mov	r4, r0
 317              	.LVL20:
 318              		.loc 1 196 0
 319 0032 FFF7FEFF 		bl	chSchWakeupS
 320              	.LVL21:
 321              	.LBB11:
 322              		.loc 1 197 0
 323 0036 0023     		movs	r3, #0
 324              		.syntax unified
 325              	@ 197 "../os/kernel/src/chdynamic.c" 1
 326 0038 83F31188 		msr     BASEPRI, r3
 327              	@ 0 "" 2
 328              	.LVL22:
 329              		.thumb
 330              		.syntax unified
 331              	.L13:
 332              	.LBE11:
 333              		.loc 1 199 0
 334 003c 2046     		mov	r0, r4
 335 003e 02B0     		add	sp, sp, #8
 336              		.cfi_remember_state
 337              		.cfi_def_cfa_offset 24
 338              		@ sp needed
 339 0040 BDE8F081 		pop	{r4, r5, r6, r7, r8, pc}
 340              	.LVL23:
 341              	.L16:
 342              		.cfi_restore_state
ARM GAS  /tmp/ccBv5s24.s 			page 7


 343 0044 0446     		mov	r4, r0
 344 0046 F9E7     		b	.L13
 345              		.cfi_endproc
 346              	.LFE10:
 347              		.size	chThdCreateFromMemoryPool, .-chThdCreateFromMemoryPool
 348              		.text
 349              	.Letext0:
 350              		.file 2 "/usr/lib/gcc/arm-none-eabi/6.3.1/include/stddef.h"
 351              		.file 3 "/usr/include/newlib/machine/_default_types.h"
 352              		.file 4 "/usr/include/newlib/sys/_stdint.h"
 353              		.file 5 "../os/ports/GCC/ARMCMx/chtypes.h"
 354              		.file 6 "../os/kernel/include/chlists.h"
 355              		.file 7 "../os/kernel/include/chthreads.h"
 356              		.file 8 "../os/ports/GCC/ARMCMx/chcore_v7m.h"
 357              		.file 9 "../os/kernel/include/chvt.h"
 358              		.file 10 "../os/kernel/include/chschd.h"
 359              		.file 11 "../os/kernel/include/chmtx.h"
 360              		.file 12 "../os/kernel/include/chmemcore.h"
 361              		.file 13 "../os/kernel/include/chheap.h"
 362              		.file 14 "../os/kernel/include/chmempools.h"
 363              		.file 15 "../os/kernel/include/chregistry.h"
 364              		.file 16 "../os/kernel/include/ch.h"