ARM GAS  /tmp/ccouyMsZ.s 			page 1


   1              		.cpu cortex-m3
   2              		.eabi_attribute 20, 1
   3              		.eabi_attribute 21, 1
   4              		.eabi_attribute 23, 3
   5              		.eabi_attribute 24, 1
   6              		.eabi_attribute 25, 1
   7              		.eabi_attribute 26, 1
   8              		.eabi_attribute 30, 2
   9              		.eabi_attribute 34, 1
  10              		.eabi_attribute 18, 4
  11              		.file	"chheap.c"
  12              		.text
  13              	.Ltext0:
  14              		.cfi_sections	.debug_frame
  15              		.section	.text._heap_init,"ax",%progbits
  16              		.align	1
  17              		.p2align 2,,3
  18              		.global	_heap_init
  19              		.syntax unified
  20              		.thumb
  21              		.thumb_func
  22              		.fpu softvfp
  23              		.type	_heap_init, %function
  24              	_heap_init:
  25              	.LFB7:
  26              		.file 1 "../os/kernel/src/chheap.c"
  27              		.loc 1 68 0
  28              		.cfi_startproc
  29              		@ args = 0, pretend = 0, frame = 0
  30              		@ frame_needed = 0, uses_anonymous_args = 0
  31              		@ link register save eliminated.
  32              		.loc 1 70 0
  33 0000 0022     		movs	r2, #0
  34              		.loc 1 69 0
  35 0002 044B     		ldr	r3, .L2
  36 0004 0449     		ldr	r1, .L2+4
  37              		.loc 1 73 0
  38 0006 03F11000 		add	r0, r3, #16
  39              		.loc 1 70 0
  40 000a 9A60     		str	r2, [r3, #8]
  41              		.loc 1 71 0
  42 000c DA60     		str	r2, [r3, #12]
  43              		.loc 1 69 0
  44 000e 1960     		str	r1, [r3]
  45              		.loc 1 73 0
  46 0010 FFF7FEBF 		b	chMtxInit
  47              	.LVL0:
  48              	.L3:
  49              		.align	2
  50              	.L2:
  51 0014 00000000 		.word	.LANCHOR0
  52 0018 00000000 		.word	chCoreAlloc
  53              		.cfi_endproc
  54              	.LFE7:
  55              		.size	_heap_init, .-_heap_init
  56              		.section	.text.chHeapInit,"ax",%progbits
  57              		.align	1
ARM GAS  /tmp/ccouyMsZ.s 			page 2


  58              		.p2align 2,,3
  59              		.global	chHeapInit
  60              		.syntax unified
  61              		.thumb
  62              		.thumb_func
  63              		.fpu softvfp
  64              		.type	chHeapInit, %function
  65              	chHeapInit:
  66              	.LFB8:
  67              		.loc 1 92 0
  68              		.cfi_startproc
  69              		@ args = 0, pretend = 0, frame = 0
  70              		@ frame_needed = 0, uses_anonymous_args = 0
  71              		@ link register save eliminated.
  72              	.LVL1:
  73              		.loc 1 97 0
  74 0000 0023     		movs	r3, #0
  75              		.loc 1 101 0
  76 0002 083A     		subs	r2, r2, #8
  77              	.LVL2:
  78              		.loc 1 98 0
  79 0004 8160     		str	r1, [r0, #8]
  80              		.loc 1 97 0
  81 0006 0360     		str	r3, [r0]
  82              	.LVL3:
  83              		.loc 1 99 0
  84 0008 C360     		str	r3, [r0, #12]
  85              		.loc 1 103 0
  86 000a 1030     		adds	r0, r0, #16
  87              	.LVL4:
  88              		.loc 1 101 0
  89 000c 4A60     		str	r2, [r1, #4]
  90              		.loc 1 100 0
  91 000e 0B60     		str	r3, [r1]
  92              		.loc 1 103 0
  93 0010 FFF7FEBF 		b	chMtxInit
  94              	.LVL5:
  95              		.cfi_endproc
  96              	.LFE8:
  97              		.size	chHeapInit, .-chHeapInit
  98              		.section	.text.chHeapAlloc,"ax",%progbits
  99              		.align	1
 100              		.p2align 2,,3
 101              		.global	chHeapAlloc
 102              		.syntax unified
 103              		.thumb
 104              		.thumb_func
 105              		.fpu softvfp
 106              		.type	chHeapAlloc, %function
 107              	chHeapAlloc:
 108              	.LFB9:
 109              		.loc 1 125 0
 110              		.cfi_startproc
 111              		@ args = 0, pretend = 0, frame = 0
 112              		@ frame_needed = 0, uses_anonymous_args = 0
 113              	.LVL6:
 114 0000 F8B5     		push	{r3, r4, r5, r6, r7, lr}
ARM GAS  /tmp/ccouyMsZ.s 			page 3


 115              		.cfi_def_cfa_offset 24
 116              		.cfi_offset 3, -24
 117              		.cfi_offset 4, -20
 118              		.cfi_offset 5, -16
 119              		.cfi_offset 6, -12
 120              		.cfi_offset 7, -8
 121              		.cfi_offset 14, -4
 122              		.loc 1 129 0
 123 0002 1D4E     		ldr	r6, .L21
 124              		.loc 1 131 0
 125 0004 0731     		adds	r1, r1, #7
 126              	.LVL7:
 127              		.loc 1 129 0
 128 0006 0028     		cmp	r0, #0
 129 0008 18BF     		it	ne
 130 000a 0646     		movne	r6, r0
 131              	.LVL8:
 132              		.loc 1 133 0
 133 000c 06F11000 		add	r0, r6, #16
 134              		.loc 1 131 0
 135 0010 21F00705 		bic	r5, r1, #7
 136              	.LVL9:
 137              		.loc 1 132 0
 138 0014 06F10804 		add	r4, r6, #8
 139              	.LVL10:
 140              		.loc 1 133 0
 141 0018 FFF7FEFF 		bl	chMtxLock
 142              	.LVL11:
 143              		.loc 1 135 0
 144 001c 03E0     		b	.L7
 145              	.LVL12:
 146              	.L11:
 147              		.loc 1 137 0
 148 001e 4368     		ldr	r3, [r0, #4]
 149 0020 9D42     		cmp	r5, r3
 150 0022 11D9     		bls	.L20
 151 0024 0446     		mov	r4, r0
 152              	.LVL13:
 153              	.L7:
 154              		.loc 1 135 0
 155 0026 2068     		ldr	r0, [r4]
 156              	.LVL14:
 157 0028 0028     		cmp	r0, #0
 158 002a F8D1     		bne	.L11
 159              		.loc 1 160 0
 160 002c FFF7FEFF 		bl	chMtxUnlock
 161              	.LVL15:
 162              		.loc 1 164 0
 163 0030 3368     		ldr	r3, [r6]
 164 0032 FBB1     		cbz	r3, .L13
 165              		.loc 1 165 0
 166 0034 05F10800 		add	r0, r5, #8
 167 0038 9847     		blx	r3
 168              	.LVL16:
 169              		.loc 1 166 0
 170 003a D8B1     		cbz	r0, .L13
 171              		.loc 1 167 0
ARM GAS  /tmp/ccouyMsZ.s 			page 4


 172 003c 0660     		str	r6, [r0]
 173              		.loc 1 168 0
 174 003e 4560     		str	r5, [r0, #4]
 175              		.loc 1 169 0
 176 0040 00F10804 		add	r4, r0, #8
 177              	.LVL17:
 178              	.L5:
 179              		.loc 1 174 0
 180 0044 2046     		mov	r0, r4
 181 0046 F8BD     		pop	{r3, r4, r5, r6, r7, pc}
 182              	.LVL18:
 183              	.L20:
 184              		.loc 1 138 0
 185 0048 05F10802 		add	r2, r5, #8
 186 004c 9342     		cmp	r3, r2
 187 004e 08D2     		bcs	.L8
 188              		.loc 1 142 0
 189 0050 0368     		ldr	r3, [r0]
 190 0052 2360     		str	r3, [r4]
 191              	.L9:
 192              		.loc 1 152 0
 193 0054 0446     		mov	r4, r0
 194              	.LVL19:
 195 0056 44F8086B 		str	r6, [r4], #8
 196              		.loc 1 154 0
 197 005a FFF7FEFF 		bl	chMtxUnlock
 198              	.LVL20:
 199              		.loc 1 174 0
 200 005e 2046     		mov	r0, r4
 201 0060 F8BD     		pop	{r3, r4, r5, r6, r7, pc}
 202              	.LVL21:
 203              	.L8:
 204              		.loc 1 147 0
 205 0062 0168     		ldr	r1, [r0]
 206              		.loc 1 148 0
 207 0064 5B1B     		subs	r3, r3, r5
 208              		.loc 1 146 0
 209 0066 8718     		adds	r7, r0, r2
 210              	.LVL22:
 211              		.loc 1 148 0
 212 0068 083B     		subs	r3, r3, #8
 213              		.loc 1 147 0
 214 006a 8150     		str	r1, [r0, r2]
 215              		.loc 1 148 0
 216 006c 7B60     		str	r3, [r7, #4]
 217              		.loc 1 149 0
 218 006e 2760     		str	r7, [r4]
 219              		.loc 1 150 0
 220 0070 4560     		str	r5, [r0, #4]
 221 0072 EFE7     		b	.L9
 222              	.LVL23:
 223              	.L13:
 224              		.loc 1 173 0
 225 0074 0024     		movs	r4, #0
 226              	.LVL24:
 227 0076 E5E7     		b	.L5
 228              	.L22:
ARM GAS  /tmp/ccouyMsZ.s 			page 5


 229              		.align	2
 230              	.L21:
 231 0078 00000000 		.word	.LANCHOR0
 232              		.cfi_endproc
 233              	.LFE9:
 234              		.size	chHeapAlloc, .-chHeapAlloc
 235              		.section	.text.chHeapFree,"ax",%progbits
 236              		.align	1
 237              		.p2align 2,,3
 238              		.global	chHeapFree
 239              		.syntax unified
 240              		.thumb
 241              		.thumb_func
 242              		.fpu softvfp
 243              		.type	chHeapFree, %function
 244              	chHeapFree:
 245              	.LFB10:
 246              		.loc 1 187 0
 247              		.cfi_startproc
 248              		@ args = 0, pretend = 0, frame = 0
 249              		@ frame_needed = 0, uses_anonymous_args = 0
 250              	.LVL25:
 251 0000 70B5     		push	{r4, r5, r6, lr}
 252              		.cfi_def_cfa_offset 16
 253              		.cfi_offset 4, -16
 254              		.cfi_offset 5, -12
 255              		.cfi_offset 6, -8
 256              		.cfi_offset 14, -4
 257              		.loc 1 187 0
 258 0002 0646     		mov	r6, r0
 259              		.loc 1 194 0
 260 0004 50F8080C 		ldr	r0, [r0, #-8]
 261              	.LVL26:
 262              		.loc 1 193 0
 263 0008 A6F10804 		sub	r4, r6, #8
 264              	.LVL27:
 265              		.loc 1 195 0
 266 000c 00F10805 		add	r5, r0, #8
 267              	.LVL28:
 268              		.loc 1 196 0
 269 0010 1030     		adds	r0, r0, #16
 270              	.LVL29:
 271 0012 FFF7FEFF 		bl	chMtxLock
 272              	.LVL30:
 273              		.loc 1 195 0
 274 0016 2B46     		mov	r3, r5
 275              	.LVL31:
 276              	.L30:
 277              		.loc 1 203 0
 278 0018 AB42     		cmp	r3, r5
 279              		.loc 1 204 0
 280 001a 1A68     		ldr	r2, [r3]
 281              		.loc 1 203 0
 282 001c 01D0     		beq	.L24
 283              		.loc 1 203 0 is_stmt 0 discriminator 2
 284 001e A342     		cmp	r3, r4
 285 0020 02D2     		bcs	.L27
ARM GAS  /tmp/ccouyMsZ.s 			page 6


 286              	.L24:
 287              		.loc 1 203 0 discriminator 3
 288 0022 1AB1     		cbz	r2, .L26
 289              		.loc 1 204 0 is_stmt 1
 290 0024 9442     		cmp	r4, r2
 291 0026 01D3     		bcc	.L26
 292              	.L27:
 293              	.LVL32:
 294              		.loc 1 221 0
 295 0028 1346     		mov	r3, r2
 296              		.loc 1 199 0
 297 002a F5E7     		b	.L30
 298              	.LVL33:
 299              	.L26:
 300              		.loc 1 206 0
 301 002c 46F8082C 		str	r2, [r6, #-8]
 302              	.LVL34:
 303              		.loc 1 207 0
 304 0030 1C60     		str	r4, [r3]
 305              		.loc 1 209 0
 306 0032 16E90500 		ldmdb	r6, {r0, r2}
 307 0036 B118     		adds	r1, r6, r2
 308 0038 8142     		cmp	r1, r0
 309 003a 09D0     		beq	.L35
 310              		.loc 1 214 0
 311 003c 5968     		ldr	r1, [r3, #4]
 312 003e 01F10802 		add	r2, r1, #8
 313 0042 1A44     		add	r2, r2, r3
 314 0044 9442     		cmp	r4, r2
 315 0046 12D0     		beq	.L36
 316              	.L29:
 317              		.loc 1 226 0
 318 0048 BDE87040 		pop	{r4, r5, r6, lr}
 319              		.cfi_remember_state
 320              		.cfi_restore 14
 321              		.cfi_restore 6
 322              		.cfi_restore 5
 323              		.cfi_restore 4
 324              		.cfi_def_cfa_offset 0
 325              	.LVL35:
 326              		.loc 1 224 0
 327 004c FFF7FEBF 		b	chMtxUnlock
 328              	.LVL36:
 329              	.L35:
 330              		.cfi_restore_state
 331              		.loc 1 211 0
 332 0050 4968     		ldr	r1, [r1, #4]
 333 0052 02F10800 		add	r0, r2, #8
 334 0056 0144     		add	r1, r1, r0
 335 0058 46F8041C 		str	r1, [r6, #-4]
 336              		.loc 1 212 0
 337 005c B258     		ldr	r2, [r6, r2]
 338 005e 46F8082C 		str	r2, [r6, #-8]
 339              		.loc 1 214 0
 340 0062 5968     		ldr	r1, [r3, #4]
 341 0064 01F10802 		add	r2, r1, #8
 342 0068 1A44     		add	r2, r2, r3
ARM GAS  /tmp/ccouyMsZ.s 			page 7


 343 006a 9442     		cmp	r4, r2
 344 006c ECD1     		bne	.L29
 345              	.L36:
 346              		.loc 1 216 0
 347 006e 56F8042C 		ldr	r2, [r6, #-4]
 348 0072 0832     		adds	r2, r2, #8
 349 0074 1144     		add	r1, r1, r2
 350 0076 5960     		str	r1, [r3, #4]
 351              		.loc 1 217 0
 352 0078 56F8082C 		ldr	r2, [r6, #-8]
 353 007c 1A60     		str	r2, [r3]
 354              		.loc 1 226 0
 355 007e BDE87040 		pop	{r4, r5, r6, lr}
 356              		.cfi_restore 4
 357              		.cfi_restore 5
 358              		.cfi_restore 6
 359              		.cfi_restore 14
 360              		.cfi_def_cfa_offset 0
 361              	.LVL37:
 362              		.loc 1 224 0
 363 0082 FFF7FEBF 		b	chMtxUnlock
 364              	.LVL38:
 365              		.cfi_endproc
 366              	.LFE10:
 367              		.size	chHeapFree, .-chHeapFree
 368 0086 00BF     		.section	.text.chHeapStatus,"ax",%progbits
 369              		.align	1
 370              		.p2align 2,,3
 371              		.global	chHeapStatus
 372              		.syntax unified
 373              		.thumb
 374              		.thumb_func
 375              		.fpu softvfp
 376              		.type	chHeapStatus, %function
 377              	chHeapStatus:
 378              	.LFB11:
 379              		.loc 1 243 0
 380              		.cfi_startproc
 381              		@ args = 0, pretend = 0, frame = 0
 382              		@ frame_needed = 0, uses_anonymous_args = 0
 383              	.LVL39:
 384 0000 38B5     		push	{r3, r4, r5, lr}
 385              		.cfi_def_cfa_offset 16
 386              		.cfi_offset 3, -16
 387              		.cfi_offset 4, -12
 388              		.cfi_offset 5, -8
 389              		.cfi_offset 14, -4
 390              		.loc 1 248 0
 391 0002 0E4C     		ldr	r4, .L48
 392              		.loc 1 243 0
 393 0004 0D46     		mov	r5, r1
 394              		.loc 1 248 0
 395 0006 0028     		cmp	r0, #0
 396 0008 18BF     		it	ne
 397 000a 0446     		movne	r4, r0
 398              	.LVL40:
 399              		.loc 1 250 0
ARM GAS  /tmp/ccouyMsZ.s 			page 8


 400 000c 04F11000 		add	r0, r4, #16
 401 0010 FFF7FEFF 		bl	chMtxLock
 402              	.LVL41:
 403              		.loc 1 253 0
 404 0014 A368     		ldr	r3, [r4, #8]
 405 0016 6BB1     		cbz	r3, .L42
 406              		.loc 1 253 0 is_stmt 0 discriminator 3
 407 0018 0022     		movs	r2, #0
 408 001a 1446     		mov	r4, r2
 409              	.LVL42:
 410              	.L40:
 411              		.loc 1 254 0 is_stmt 1 discriminator 3
 412 001c 5868     		ldr	r0, [r3, #4]
 413              		.loc 1 253 0 discriminator 3
 414 001e 1B68     		ldr	r3, [r3]
 415 0020 0134     		adds	r4, r4, #1
 416              	.LVL43:
 417              		.loc 1 254 0 discriminator 3
 418 0022 0244     		add	r2, r2, r0
 419              	.LVL44:
 420              		.loc 1 253 0 discriminator 3
 421 0024 002B     		cmp	r3, #0
 422 0026 F9D1     		bne	.L40
 423              	.LVL45:
 424              	.L39:
 425              		.loc 1 255 0
 426 0028 05B1     		cbz	r5, .L41
 427              		.loc 1 256 0
 428 002a 2A60     		str	r2, [r5]
 429              	.L41:
 430              		.loc 1 258 0
 431 002c FFF7FEFF 		bl	chMtxUnlock
 432              	.LVL46:
 433              		.loc 1 260 0
 434 0030 2046     		mov	r0, r4
 435 0032 38BD     		pop	{r3, r4, r5, pc}
 436              	.LVL47:
 437              	.L42:
 438              		.loc 1 252 0
 439 0034 1A46     		mov	r2, r3
 440              		.loc 1 253 0
 441 0036 1C46     		mov	r4, r3
 442              	.LVL48:
 443 0038 F6E7     		b	.L39
 444              	.L49:
 445 003a 00BF     		.align	2
 446              	.L48:
 447 003c 00000000 		.word	.LANCHOR0
 448              		.cfi_endproc
 449              	.LFE11:
 450              		.size	chHeapStatus, .-chHeapStatus
 451              		.section	.bss.default_heap,"aw",%nobits
 452              		.align	3
 453              		.set	.LANCHOR0,. + 0
 454              		.type	default_heap, %object
 455              		.size	default_heap, 32
 456              	default_heap:
ARM GAS  /tmp/ccouyMsZ.s 			page 9


 457 0000 00000000 		.space	32
 457      00000000 
 457      00000000 
 457      00000000 
 457      00000000 
 458              		.text
 459              	.Letext0:
 460              		.file 2 "/usr/lib/gcc/arm-none-eabi/6.3.1/include/stddef.h"
 461              		.file 3 "/usr/include/newlib/machine/_default_types.h"
 462              		.file 4 "/usr/include/newlib/sys/_stdint.h"
 463              		.file 5 "../os/ports/GCC/ARMCMx/chtypes.h"
 464              		.file 6 "../os/kernel/include/chlists.h"
 465              		.file 7 "../os/kernel/include/chthreads.h"
 466              		.file 8 "../os/ports/GCC/ARMCMx/chcore_v7m.h"
 467              		.file 9 "../os/kernel/include/chvt.h"
 468              		.file 10 "../os/kernel/include/chschd.h"
 469              		.file 11 "../os/kernel/include/chmtx.h"
 470              		.file 12 "../os/kernel/include/chmemcore.h"
 471              		.file 13 "../os/kernel/include/chheap.h"
 472              		.file 14 "../os/kernel/include/chregistry.h"
 473              		.file 15 "../os/kernel/include/ch.h"