ARM GAS  /tmp/ccPxlM4D.s 			page 1


   1              		.cpu cortex-m3
   2              		.eabi_attribute 20, 1
   3              		.eabi_attribute 21, 1
   4              		.eabi_attribute 23, 3
   5              		.eabi_attribute 24, 1
   6              		.eabi_attribute 25, 1
   7              		.eabi_attribute 26, 1
   8              		.eabi_attribute 30, 2
   9              		.eabi_attribute 34, 1
  10              		.eabi_attribute 18, 4
  11              		.file	"chmboxes.c"
  12              		.text
  13              	.Ltext0:
  14              		.cfi_sections	.debug_frame
  15              		.section	.text.chMBInit,"ax",%progbits
  16              		.align	1
  17              		.p2align 2,,3
  18              		.global	chMBInit
  19              		.syntax unified
  20              		.thumb
  21              		.thumb_func
  22              		.fpu softvfp
  23              		.type	chMBInit, %function
  24              	chMBInit:
  25              	.LFB7:
  26              		.file 1 "../os/kernel/src/chmboxes.c"
  27              		.loc 1 65 0
  28              		.cfi_startproc
  29              		@ args = 0, pretend = 0, frame = 0
  30              		@ frame_needed = 0, uses_anonymous_args = 0
  31              	.LVL0:
  32 0000 0B46     		mov	r3, r1
  33 0002 10B5     		push	{r4, lr}
  34              		.cfi_def_cfa_offset 8
  35              		.cfi_offset 4, -8
  36              		.cfi_offset 14, -4
  37              		.loc 1 65 0
  38 0004 0446     		mov	r4, r0
  39              		.loc 1 70 0
  40 0006 01EB8201 		add	r1, r1, r2, lsl #2
  41              	.LVL1:
  42 000a 4160     		str	r1, [r0, #4]
  43              		.loc 1 69 0
  44 000c C360     		str	r3, [r0, #12]
  45 000e 8360     		str	r3, [r0, #8]
  46 0010 0360     		str	r3, [r0]
  47              		.loc 1 71 0
  48 0012 1146     		mov	r1, r2
  49 0014 1C30     		adds	r0, r0, #28
  50              	.LVL2:
  51 0016 FFF7FEFF 		bl	chSemInit
  52              	.LVL3:
  53              		.loc 1 72 0
  54 001a 04F11000 		add	r0, r4, #16
  55 001e 0021     		movs	r1, #0
  56              		.loc 1 73 0
  57 0020 BDE81040 		pop	{r4, lr}
ARM GAS  /tmp/ccPxlM4D.s 			page 2


  58              		.cfi_restore 14
  59              		.cfi_restore 4
  60              		.cfi_def_cfa_offset 0
  61              	.LVL4:
  62              		.loc 1 72 0
  63 0024 FFF7FEBF 		b	chSemInit
  64              	.LVL5:
  65              		.cfi_endproc
  66              	.LFE7:
  67              		.size	chMBInit, .-chMBInit
  68              		.section	.text.chMBReset,"ax",%progbits
  69              		.align	1
  70              		.p2align 2,,3
  71              		.global	chMBReset
  72              		.syntax unified
  73              		.thumb
  74              		.thumb_func
  75              		.fpu softvfp
  76              		.type	chMBReset, %function
  77              	chMBReset:
  78              	.LFB8:
  79              		.loc 1 84 0
  80              		.cfi_startproc
  81              		@ args = 0, pretend = 0, frame = 0
  82              		@ frame_needed = 0, uses_anonymous_args = 0
  83              	.LVL6:
  84 0000 10B5     		push	{r4, lr}
  85              		.cfi_def_cfa_offset 8
  86              		.cfi_offset 4, -8
  87              		.cfi_offset 14, -4
  88              	.LBB14:
  89              		.loc 1 88 0
  90 0002 4023     		movs	r3, #64
  91              	.LBE14:
  92              		.loc 1 84 0
  93 0004 0446     		mov	r4, r0
  94              	.LBB15:
  95              		.loc 1 88 0
  96              		.syntax unified
  97              	@ 88 "../os/kernel/src/chmboxes.c" 1
  98 0006 83F31188 		msr     BASEPRI, r3
  99              	@ 0 "" 2
 100              		.thumb
 101              		.syntax unified
 102              	.LBE15:
 103              		.loc 1 89 0
 104 000a 0368     		ldr	r3, [r0]
 105              		.loc 1 90 0
 106 000c 4168     		ldr	r1, [r0, #4]
 107              		.loc 1 89 0
 108 000e C360     		str	r3, [r0, #12]
 109              		.loc 1 90 0
 110 0010 C91A     		subs	r1, r1, r3
 111              		.loc 1 89 0
 112 0012 8360     		str	r3, [r0, #8]
 113              		.loc 1 90 0
 114 0014 8910     		asrs	r1, r1, #2
ARM GAS  /tmp/ccPxlM4D.s 			page 3


 115 0016 1C30     		adds	r0, r0, #28
 116              	.LVL7:
 117 0018 FFF7FEFF 		bl	chSemResetI
 118              	.LVL8:
 119              		.loc 1 91 0
 120 001c 04F11000 		add	r0, r4, #16
 121 0020 0021     		movs	r1, #0
 122 0022 FFF7FEFF 		bl	chSemResetI
 123              	.LVL9:
 124              		.loc 1 92 0
 125 0026 FFF7FEFF 		bl	chSchRescheduleS
 126              	.LVL10:
 127              	.LBB16:
 128              		.loc 1 93 0
 129 002a 0023     		movs	r3, #0
 130              		.syntax unified
 131              	@ 93 "../os/kernel/src/chmboxes.c" 1
 132 002c 83F31188 		msr     BASEPRI, r3
 133              	@ 0 "" 2
 134              		.thumb
 135              		.syntax unified
 136 0030 10BD     		pop	{r4, pc}
 137              	.LBE16:
 138              		.cfi_endproc
 139              	.LFE8:
 140              		.size	chMBReset, .-chMBReset
 141 0032 00BF     		.section	.text.chMBPost,"ax",%progbits
 142              		.align	1
 143              		.p2align 2,,3
 144              		.global	chMBPost
 145              		.syntax unified
 146              		.thumb
 147              		.thumb_func
 148              		.fpu softvfp
 149              		.type	chMBPost, %function
 150              	chMBPost:
 151              	.LFB9:
 152              		.loc 1 115 0
 153              		.cfi_startproc
 154              		@ args = 0, pretend = 0, frame = 0
 155              		@ frame_needed = 0, uses_anonymous_args = 0
 156              	.LVL11:
 157 0000 70B5     		push	{r4, r5, r6, lr}
 158              		.cfi_def_cfa_offset 16
 159              		.cfi_offset 4, -16
 160              		.cfi_offset 5, -12
 161              		.cfi_offset 6, -8
 162              		.cfi_offset 14, -4
 163              	.LBB23:
 164              		.loc 1 118 0
 165 0002 4023     		movs	r3, #64
 166              	.LBE23:
 167              		.loc 1 115 0
 168 0004 0446     		mov	r4, r0
 169 0006 0E46     		mov	r6, r1
 170              	.LBB24:
 171              		.loc 1 118 0
ARM GAS  /tmp/ccPxlM4D.s 			page 4


 172              		.syntax unified
 173              	@ 118 "../os/kernel/src/chmboxes.c" 1
 174 0008 83F31188 		msr     BASEPRI, r3
 175              	@ 0 "" 2
 176              	.LVL12:
 177              		.thumb
 178              		.syntax unified
 179              	.LBE24:
 180              	.LBB25:
 181              	.LBB26:
 182              		.loc 1 149 0
 183 000c 1146     		mov	r1, r2
 184              	.LVL13:
 185 000e 1C30     		adds	r0, r0, #28
 186              	.LVL14:
 187 0010 FFF7FEFF 		bl	chSemWaitTimeoutS
 188              	.LVL15:
 189              		.loc 1 150 0
 190 0014 0546     		mov	r5, r0
 191 0016 78B9     		cbnz	r0, .L6
 192              	.LVL16:
 193              	.LBB27:
 194              	.LBB28:
 195              		.loc 1 151 0
 196 0018 A268     		ldr	r2, [r4, #8]
 197              		.loc 1 152 0
 198 001a 6168     		ldr	r1, [r4, #4]
 199              		.loc 1 151 0
 200 001c 131D     		adds	r3, r2, #4
 201              		.loc 1 152 0
 202 001e 8B42     		cmp	r3, r1
 203              		.loc 1 151 0
 204 0020 A360     		str	r3, [r4, #8]
 205              		.loc 1 153 0
 206 0022 28BF     		it	cs
 207 0024 2368     		ldrcs	r3, [r4]
 208              		.loc 1 151 0
 209 0026 1660     		str	r6, [r2]
 210              		.loc 1 154 0
 211 0028 04F11000 		add	r0, r4, #16
 212              	.LVL17:
 213              		.loc 1 153 0
 214 002c 28BF     		it	cs
 215 002e A360     		strcs	r3, [r4, #8]
 216              		.loc 1 154 0
 217 0030 FFF7FEFF 		bl	chSemSignalI
 218              	.LVL18:
 219              		.loc 1 155 0
 220 0034 FFF7FEFF 		bl	chSchRescheduleS
 221              	.LVL19:
 222              	.L6:
 223              	.LBE28:
 224              	.LBE27:
 225              	.LBE26:
 226              	.LBE25:
 227              	.LBB29:
 228              		.loc 1 120 0
ARM GAS  /tmp/ccPxlM4D.s 			page 5


 229 0038 0023     		movs	r3, #0
 230              		.syntax unified
 231              	@ 120 "../os/kernel/src/chmboxes.c" 1
 232 003a 83F31188 		msr     BASEPRI, r3
 233              	@ 0 "" 2
 234              		.thumb
 235              		.syntax unified
 236              	.LBE29:
 237              		.loc 1 122 0
 238 003e 2846     		mov	r0, r5
 239 0040 70BD     		pop	{r4, r5, r6, pc}
 240              		.cfi_endproc
 241              	.LFE9:
 242              		.size	chMBPost, .-chMBPost
 243 0042 00BF     		.section	.text.chMBPostS,"ax",%progbits
 244              		.align	1
 245              		.p2align 2,,3
 246              		.global	chMBPostS
 247              		.syntax unified
 248              		.thumb
 249              		.thumb_func
 250              		.fpu softvfp
 251              		.type	chMBPostS, %function
 252              	chMBPostS:
 253              	.LFB10:
 254              		.loc 1 143 0
 255              		.cfi_startproc
 256              		@ args = 0, pretend = 0, frame = 0
 257              		@ frame_needed = 0, uses_anonymous_args = 0
 258              	.LVL20:
 259 0000 70B5     		push	{r4, r5, r6, lr}
 260              		.cfi_def_cfa_offset 16
 261              		.cfi_offset 4, -16
 262              		.cfi_offset 5, -12
 263              		.cfi_offset 6, -8
 264              		.cfi_offset 14, -4
 265              		.loc 1 143 0
 266 0002 0446     		mov	r4, r0
 267 0004 0E46     		mov	r6, r1
 268              		.loc 1 149 0
 269 0006 1C30     		adds	r0, r0, #28
 270              	.LVL21:
 271 0008 1146     		mov	r1, r2
 272              	.LVL22:
 273 000a FFF7FEFF 		bl	chSemWaitTimeoutS
 274              	.LVL23:
 275              		.loc 1 150 0
 276 000e 0546     		mov	r5, r0
 277 0010 78B9     		cbnz	r0, .L10
 278              	.LVL24:
 279              	.LBB32:
 280              	.LBB33:
 281              		.loc 1 151 0
 282 0012 A268     		ldr	r2, [r4, #8]
 283              		.loc 1 152 0
 284 0014 6168     		ldr	r1, [r4, #4]
 285              		.loc 1 151 0
ARM GAS  /tmp/ccPxlM4D.s 			page 6


 286 0016 131D     		adds	r3, r2, #4
 287              		.loc 1 152 0
 288 0018 8B42     		cmp	r3, r1
 289              		.loc 1 151 0
 290 001a A360     		str	r3, [r4, #8]
 291              		.loc 1 153 0
 292 001c 28BF     		it	cs
 293 001e 2368     		ldrcs	r3, [r4]
 294              		.loc 1 151 0
 295 0020 1660     		str	r6, [r2]
 296              		.loc 1 154 0
 297 0022 04F11000 		add	r0, r4, #16
 298              	.LVL25:
 299              		.loc 1 153 0
 300 0026 28BF     		it	cs
 301 0028 A360     		strcs	r3, [r4, #8]
 302              		.loc 1 154 0
 303 002a FFF7FEFF 		bl	chSemSignalI
 304              	.LVL26:
 305              		.loc 1 155 0
 306 002e FFF7FEFF 		bl	chSchRescheduleS
 307              	.LVL27:
 308              	.L10:
 309              	.LBE33:
 310              	.LBE32:
 311              		.loc 1 158 0
 312 0032 2846     		mov	r0, r5
 313 0034 70BD     		pop	{r4, r5, r6, pc}
 314              		.cfi_endproc
 315              	.LFE10:
 316              		.size	chMBPostS, .-chMBPostS
 317 0036 00BF     		.section	.text.chMBPostI,"ax",%progbits
 318              		.align	1
 319              		.p2align 2,,3
 320              		.global	chMBPostI
 321              		.syntax unified
 322              		.thumb
 323              		.thumb_func
 324              		.fpu softvfp
 325              		.type	chMBPostI, %function
 326              	chMBPostI:
 327              	.LFB11:
 328              		.loc 1 174 0
 329              		.cfi_startproc
 330              		@ args = 0, pretend = 0, frame = 0
 331              		@ frame_needed = 0, uses_anonymous_args = 0
 332              	.LVL28:
 333 0000 38B5     		push	{r3, r4, r5, lr}
 334              		.cfi_def_cfa_offset 16
 335              		.cfi_offset 3, -16
 336              		.cfi_offset 4, -12
 337              		.cfi_offset 5, -8
 338              		.cfi_offset 14, -4
 339              		.loc 1 179 0
 340 0002 436A     		ldr	r3, [r0, #36]
 341 0004 002B     		cmp	r3, #0
 342 0006 12DD     		ble	.L17
ARM GAS  /tmp/ccPxlM4D.s 			page 7


 343              		.loc 1 182 0
 344 0008 8468     		ldr	r4, [r0, #8]
 345              		.loc 1 183 0
 346 000a 4568     		ldr	r5, [r0, #4]
 347              		.loc 1 182 0
 348 000c 221D     		adds	r2, r4, #4
 349              		.loc 1 181 0
 350 000e 013B     		subs	r3, r3, #1
 351              		.loc 1 183 0
 352 0010 AA42     		cmp	r2, r5
 353              		.loc 1 181 0
 354 0012 4362     		str	r3, [r0, #36]
 355              		.loc 1 184 0
 356 0014 28BF     		it	cs
 357 0016 0368     		ldrcs	r3, [r0]
 358              		.loc 1 182 0
 359 0018 8260     		str	r2, [r0, #8]
 360 001a 2160     		str	r1, [r4]
 361              		.loc 1 185 0
 362 001c 00F11000 		add	r0, r0, #16
 363              	.LVL29:
 364              		.loc 1 184 0
 365 0020 28BF     		it	cs
 366 0022 40F8083C 		strcs	r3, [r0, #-8]
 367              		.loc 1 185 0
 368 0026 FFF7FEFF 		bl	chSemSignalI
 369              	.LVL30:
 370              		.loc 1 186 0
 371 002a 0020     		movs	r0, #0
 372 002c 38BD     		pop	{r3, r4, r5, pc}
 373              	.LVL31:
 374              	.L17:
 375              		.loc 1 180 0
 376 002e 4FF0FF30 		mov	r0, #-1
 377              	.LVL32:
 378              		.loc 1 187 0
 379 0032 38BD     		pop	{r3, r4, r5, pc}
 380              		.cfi_endproc
 381              	.LFE11:
 382              		.size	chMBPostI, .-chMBPostI
 383              		.section	.text.chMBPostAhead,"ax",%progbits
 384              		.align	1
 385              		.p2align 2,,3
 386              		.global	chMBPostAhead
 387              		.syntax unified
 388              		.thumb
 389              		.thumb_func
 390              		.fpu softvfp
 391              		.type	chMBPostAhead, %function
 392              	chMBPostAhead:
 393              	.LFB12:
 394              		.loc 1 208 0
 395              		.cfi_startproc
 396              		@ args = 0, pretend = 0, frame = 0
 397              		@ frame_needed = 0, uses_anonymous_args = 0
 398              	.LVL33:
 399 0000 70B5     		push	{r4, r5, r6, lr}
ARM GAS  /tmp/ccPxlM4D.s 			page 8


 400              		.cfi_def_cfa_offset 16
 401              		.cfi_offset 4, -16
 402              		.cfi_offset 5, -12
 403              		.cfi_offset 6, -8
 404              		.cfi_offset 14, -4
 405              	.LBB40:
 406              		.loc 1 211 0
 407 0002 4023     		movs	r3, #64
 408              	.LBE40:
 409              		.loc 1 208 0
 410 0004 0446     		mov	r4, r0
 411 0006 0E46     		mov	r6, r1
 412              	.LBB41:
 413              		.loc 1 211 0
 414              		.syntax unified
 415              	@ 211 "../os/kernel/src/chmboxes.c" 1
 416 0008 83F31188 		msr     BASEPRI, r3
 417              	@ 0 "" 2
 418              	.LVL34:
 419              		.thumb
 420              		.syntax unified
 421              	.LBE41:
 422              	.LBB42:
 423              	.LBB43:
 424              		.loc 1 242 0
 425 000c 1146     		mov	r1, r2
 426              	.LVL35:
 427 000e 1C30     		adds	r0, r0, #28
 428              	.LVL36:
 429 0010 FFF7FEFF 		bl	chSemWaitTimeoutS
 430              	.LVL37:
 431              		.loc 1 243 0
 432 0014 0546     		mov	r5, r0
 433 0016 20B1     		cbz	r0, .L23
 434              	.LVL38:
 435              	.LBE43:
 436              	.LBE42:
 437              	.LBB47:
 438              		.loc 1 213 0
 439 0018 0023     		movs	r3, #0
 440              		.syntax unified
 441              	@ 213 "../os/kernel/src/chmboxes.c" 1
 442 001a 83F31188 		msr     BASEPRI, r3
 443              	@ 0 "" 2
 444              		.thumb
 445              		.syntax unified
 446              	.LBE47:
 447              		.loc 1 215 0
 448 001e 2846     		mov	r0, r5
 449 0020 70BD     		pop	{r4, r5, r6, pc}
 450              	.LVL39:
 451              	.L23:
 452              	.LBB48:
 453              	.LBB46:
 454              	.LBB44:
 455              	.LBB45:
 456              		.loc 1 244 0
ARM GAS  /tmp/ccPxlM4D.s 			page 9


 457 0022 E368     		ldr	r3, [r4, #12]
 458 0024 2268     		ldr	r2, [r4]
 459 0026 043B     		subs	r3, r3, #4
 460 0028 9342     		cmp	r3, r2
 461 002a E360     		str	r3, [r4, #12]
 462 002c 02D2     		bcs	.L21
 463              		.loc 1 245 0
 464 002e 6368     		ldr	r3, [r4, #4]
 465 0030 043B     		subs	r3, r3, #4
 466 0032 E360     		str	r3, [r4, #12]
 467              	.L21:
 468              		.loc 1 246 0
 469 0034 1E60     		str	r6, [r3]
 470              		.loc 1 247 0
 471 0036 04F11000 		add	r0, r4, #16
 472              	.LVL40:
 473 003a FFF7FEFF 		bl	chSemSignalI
 474              	.LVL41:
 475              		.loc 1 248 0
 476 003e FFF7FEFF 		bl	chSchRescheduleS
 477              	.LVL42:
 478              	.LBE45:
 479              	.LBE44:
 480              	.LBE46:
 481              	.LBE48:
 482              	.LBB49:
 483              		.loc 1 213 0
 484 0042 0023     		movs	r3, #0
 485              		.syntax unified
 486              	@ 213 "../os/kernel/src/chmboxes.c" 1
 487 0044 83F31188 		msr     BASEPRI, r3
 488              	@ 0 "" 2
 489              		.thumb
 490              		.syntax unified
 491              	.LBE49:
 492              		.loc 1 215 0
 493 0048 2846     		mov	r0, r5
 494 004a 70BD     		pop	{r4, r5, r6, pc}
 495              		.cfi_endproc
 496              	.LFE12:
 497              		.size	chMBPostAhead, .-chMBPostAhead
 498              		.section	.text.chMBPostAheadS,"ax",%progbits
 499              		.align	1
 500              		.p2align 2,,3
 501              		.global	chMBPostAheadS
 502              		.syntax unified
 503              		.thumb
 504              		.thumb_func
 505              		.fpu softvfp
 506              		.type	chMBPostAheadS, %function
 507              	chMBPostAheadS:
 508              	.LFB13:
 509              		.loc 1 236 0
 510              		.cfi_startproc
 511              		@ args = 0, pretend = 0, frame = 0
 512              		@ frame_needed = 0, uses_anonymous_args = 0
 513              	.LVL43:
ARM GAS  /tmp/ccPxlM4D.s 			page 10


 514 0000 70B5     		push	{r4, r5, r6, lr}
 515              		.cfi_def_cfa_offset 16
 516              		.cfi_offset 4, -16
 517              		.cfi_offset 5, -12
 518              		.cfi_offset 6, -8
 519              		.cfi_offset 14, -4
 520              		.loc 1 236 0
 521 0002 0446     		mov	r4, r0
 522 0004 0E46     		mov	r6, r1
 523              		.loc 1 242 0
 524 0006 1C30     		adds	r0, r0, #28
 525              	.LVL44:
 526 0008 1146     		mov	r1, r2
 527              	.LVL45:
 528 000a FFF7FEFF 		bl	chSemWaitTimeoutS
 529              	.LVL46:
 530              		.loc 1 243 0
 531 000e 0546     		mov	r5, r0
 532 0010 60B9     		cbnz	r0, .L24
 533              	.LVL47:
 534              	.LBB52:
 535              	.LBB53:
 536              		.loc 1 244 0
 537 0012 E368     		ldr	r3, [r4, #12]
 538 0014 2268     		ldr	r2, [r4]
 539 0016 043B     		subs	r3, r3, #4
 540 0018 9342     		cmp	r3, r2
 541 001a E360     		str	r3, [r4, #12]
 542 001c 08D3     		bcc	.L28
 543              	.L26:
 544              		.loc 1 246 0
 545 001e 1E60     		str	r6, [r3]
 546              		.loc 1 247 0
 547 0020 04F11000 		add	r0, r4, #16
 548              	.LVL48:
 549 0024 FFF7FEFF 		bl	chSemSignalI
 550              	.LVL49:
 551              		.loc 1 248 0
 552 0028 FFF7FEFF 		bl	chSchRescheduleS
 553              	.LVL50:
 554              	.L24:
 555              	.LBE53:
 556              	.LBE52:
 557              		.loc 1 251 0
 558 002c 2846     		mov	r0, r5
 559 002e 70BD     		pop	{r4, r5, r6, pc}
 560              	.LVL51:
 561              	.L28:
 562              	.LBB55:
 563              	.LBB54:
 564              		.loc 1 245 0
 565 0030 6368     		ldr	r3, [r4, #4]
 566 0032 043B     		subs	r3, r3, #4
 567 0034 E360     		str	r3, [r4, #12]
 568 0036 F2E7     		b	.L26
 569              	.LBE54:
 570              	.LBE55:
ARM GAS  /tmp/ccPxlM4D.s 			page 11


 571              		.cfi_endproc
 572              	.LFE13:
 573              		.size	chMBPostAheadS, .-chMBPostAheadS
 574              		.section	.text.chMBPostAheadI,"ax",%progbits
 575              		.align	1
 576              		.p2align 2,,3
 577              		.global	chMBPostAheadI
 578              		.syntax unified
 579              		.thumb
 580              		.thumb_func
 581              		.fpu softvfp
 582              		.type	chMBPostAheadI, %function
 583              	chMBPostAheadI:
 584              	.LFB14:
 585              		.loc 1 267 0
 586              		.cfi_startproc
 587              		@ args = 0, pretend = 0, frame = 0
 588              		@ frame_needed = 0, uses_anonymous_args = 0
 589              	.LVL52:
 590              		.loc 1 272 0
 591 0000 426A     		ldr	r2, [r0, #36]
 592 0002 002A     		cmp	r2, #0
 593 0004 11DD     		ble	.L32
 594              		.loc 1 275 0
 595 0006 C368     		ldr	r3, [r0, #12]
 596              		.loc 1 267 0
 597 0008 10B5     		push	{r4, lr}
 598              		.cfi_def_cfa_offset 8
 599              		.cfi_offset 4, -8
 600              		.cfi_offset 14, -4
 601              		.loc 1 275 0
 602 000a 0468     		ldr	r4, [r0]
 603 000c 043B     		subs	r3, r3, #4
 604              		.loc 1 274 0
 605 000e 013A     		subs	r2, r2, #1
 606              		.loc 1 275 0
 607 0010 A342     		cmp	r3, r4
 608              		.loc 1 274 0
 609 0012 4262     		str	r2, [r0, #36]
 610              		.loc 1 275 0
 611 0014 C360     		str	r3, [r0, #12]
 612 0016 02D2     		bcs	.L31
 613              		.loc 1 276 0
 614 0018 4368     		ldr	r3, [r0, #4]
 615 001a 043B     		subs	r3, r3, #4
 616 001c C360     		str	r3, [r0, #12]
 617              	.L31:
 618              		.loc 1 277 0
 619 001e 1960     		str	r1, [r3]
 620              		.loc 1 278 0
 621 0020 1030     		adds	r0, r0, #16
 622              	.LVL53:
 623 0022 FFF7FEFF 		bl	chSemSignalI
 624              	.LVL54:
 625              		.loc 1 279 0
 626 0026 0020     		movs	r0, #0
 627 0028 10BD     		pop	{r4, pc}
ARM GAS  /tmp/ccPxlM4D.s 			page 12


 628              	.LVL55:
 629              	.L32:
 630              		.cfi_def_cfa_offset 0
 631              		.cfi_restore 4
 632              		.cfi_restore 14
 633              		.loc 1 273 0
 634 002a 4FF0FF30 		mov	r0, #-1
 635              	.LVL56:
 636 002e 7047     		bx	lr
 637              		.cfi_endproc
 638              	.LFE14:
 639              		.size	chMBPostAheadI, .-chMBPostAheadI
 640              		.section	.text.chMBFetch,"ax",%progbits
 641              		.align	1
 642              		.p2align 2,,3
 643              		.global	chMBFetch
 644              		.syntax unified
 645              		.thumb
 646              		.thumb_func
 647              		.fpu softvfp
 648              		.type	chMBFetch, %function
 649              	chMBFetch:
 650              	.LFB15:
 651              		.loc 1 301 0
 652              		.cfi_startproc
 653              		@ args = 0, pretend = 0, frame = 0
 654              		@ frame_needed = 0, uses_anonymous_args = 0
 655              	.LVL57:
 656 0000 70B5     		push	{r4, r5, r6, lr}
 657              		.cfi_def_cfa_offset 16
 658              		.cfi_offset 4, -16
 659              		.cfi_offset 5, -12
 660              		.cfi_offset 6, -8
 661              		.cfi_offset 14, -4
 662              	.LBB62:
 663              		.loc 1 304 0
 664 0002 4023     		movs	r3, #64
 665              	.LBE62:
 666              		.loc 1 301 0
 667 0004 0446     		mov	r4, r0
 668 0006 0E46     		mov	r6, r1
 669              	.LBB63:
 670              		.loc 1 304 0
 671              		.syntax unified
 672              	@ 304 "../os/kernel/src/chmboxes.c" 1
 673 0008 83F31188 		msr     BASEPRI, r3
 674              	@ 0 "" 2
 675              	.LVL58:
 676              		.thumb
 677              		.syntax unified
 678              	.LBE63:
 679              	.LBB64:
 680              	.LBB65:
 681              		.loc 1 335 0
 682 000c 1146     		mov	r1, r2
 683              	.LVL59:
 684 000e 1030     		adds	r0, r0, #16
ARM GAS  /tmp/ccPxlM4D.s 			page 13


 685              	.LVL60:
 686 0010 FFF7FEFF 		bl	chSemWaitTimeoutS
 687              	.LVL61:
 688              		.loc 1 336 0
 689 0014 0546     		mov	r5, r0
 690 0016 80B9     		cbnz	r0, .L38
 691              	.LVL62:
 692              	.LBB66:
 693              	.LBB67:
 694              		.loc 1 337 0
 695 0018 E368     		ldr	r3, [r4, #12]
 696              		.loc 1 338 0
 697 001a 6268     		ldr	r2, [r4, #4]
 698              		.loc 1 337 0
 699 001c 1968     		ldr	r1, [r3]
 700 001e 0433     		adds	r3, r3, #4
 701              		.loc 1 338 0
 702 0020 9342     		cmp	r3, r2
 703              		.loc 1 337 0
 704 0022 E360     		str	r3, [r4, #12]
 705              		.loc 1 339 0
 706 0024 28BF     		it	cs
 707 0026 2368     		ldrcs	r3, [r4]
 708              		.loc 1 337 0
 709 0028 3160     		str	r1, [r6]
 710              		.loc 1 340 0
 711 002a 04F11C00 		add	r0, r4, #28
 712              	.LVL63:
 713              		.loc 1 339 0
 714 002e 28BF     		it	cs
 715 0030 E360     		strcs	r3, [r4, #12]
 716              		.loc 1 340 0
 717 0032 FFF7FEFF 		bl	chSemSignalI
 718              	.LVL64:
 719              		.loc 1 341 0
 720 0036 FFF7FEFF 		bl	chSchRescheduleS
 721              	.LVL65:
 722              	.L38:
 723              	.LBE67:
 724              	.LBE66:
 725              	.LBE65:
 726              	.LBE64:
 727              	.LBB68:
 728              		.loc 1 306 0
 729 003a 0023     		movs	r3, #0
 730              		.syntax unified
 731              	@ 306 "../os/kernel/src/chmboxes.c" 1
 732 003c 83F31188 		msr     BASEPRI, r3
 733              	@ 0 "" 2
 734              		.thumb
 735              		.syntax unified
 736              	.LBE68:
 737              		.loc 1 308 0
 738 0040 2846     		mov	r0, r5
 739 0042 70BD     		pop	{r4, r5, r6, pc}
 740              		.cfi_endproc
 741              	.LFE15:
ARM GAS  /tmp/ccPxlM4D.s 			page 14


 742              		.size	chMBFetch, .-chMBFetch
 743              		.section	.text.chMBFetchS,"ax",%progbits
 744              		.align	1
 745              		.p2align 2,,3
 746              		.global	chMBFetchS
 747              		.syntax unified
 748              		.thumb
 749              		.thumb_func
 750              		.fpu softvfp
 751              		.type	chMBFetchS, %function
 752              	chMBFetchS:
 753              	.LFB16:
 754              		.loc 1 329 0
 755              		.cfi_startproc
 756              		@ args = 0, pretend = 0, frame = 0
 757              		@ frame_needed = 0, uses_anonymous_args = 0
 758              	.LVL66:
 759 0000 70B5     		push	{r4, r5, r6, lr}
 760              		.cfi_def_cfa_offset 16
 761              		.cfi_offset 4, -16
 762              		.cfi_offset 5, -12
 763              		.cfi_offset 6, -8
 764              		.cfi_offset 14, -4
 765              		.loc 1 329 0
 766 0002 0446     		mov	r4, r0
 767 0004 0E46     		mov	r6, r1
 768              		.loc 1 335 0
 769 0006 1030     		adds	r0, r0, #16
 770              	.LVL67:
 771 0008 1146     		mov	r1, r2
 772              	.LVL68:
 773 000a FFF7FEFF 		bl	chSemWaitTimeoutS
 774              	.LVL69:
 775              		.loc 1 336 0
 776 000e 0546     		mov	r5, r0
 777 0010 80B9     		cbnz	r0, .L41
 778              	.LVL70:
 779              	.LBB71:
 780              	.LBB72:
 781              		.loc 1 337 0
 782 0012 E368     		ldr	r3, [r4, #12]
 783              		.loc 1 338 0
 784 0014 6268     		ldr	r2, [r4, #4]
 785              		.loc 1 337 0
 786 0016 1968     		ldr	r1, [r3]
 787 0018 0433     		adds	r3, r3, #4
 788              		.loc 1 338 0
 789 001a 9342     		cmp	r3, r2
 790              		.loc 1 337 0
 791 001c E360     		str	r3, [r4, #12]
 792              		.loc 1 339 0
 793 001e 28BF     		it	cs
 794 0020 2368     		ldrcs	r3, [r4]
 795              		.loc 1 337 0
 796 0022 3160     		str	r1, [r6]
 797              		.loc 1 340 0
 798 0024 04F11C00 		add	r0, r4, #28
ARM GAS  /tmp/ccPxlM4D.s 			page 15


 799              	.LVL71:
 800              		.loc 1 339 0
 801 0028 28BF     		it	cs
 802 002a E360     		strcs	r3, [r4, #12]
 803              		.loc 1 340 0
 804 002c FFF7FEFF 		bl	chSemSignalI
 805              	.LVL72:
 806              		.loc 1 341 0
 807 0030 FFF7FEFF 		bl	chSchRescheduleS
 808              	.LVL73:
 809              	.L41:
 810              	.LBE72:
 811              	.LBE71:
 812              		.loc 1 344 0
 813 0034 2846     		mov	r0, r5
 814 0036 70BD     		pop	{r4, r5, r6, pc}
 815              		.cfi_endproc
 816              	.LFE16:
 817              		.size	chMBFetchS, .-chMBFetchS
 818              		.section	.text.chMBFetchI,"ax",%progbits
 819              		.align	1
 820              		.p2align 2,,3
 821              		.global	chMBFetchI
 822              		.syntax unified
 823              		.thumb
 824              		.thumb_func
 825              		.fpu softvfp
 826              		.type	chMBFetchI, %function
 827              	chMBFetchI:
 828              	.LFB17:
 829              		.loc 1 360 0
 830              		.cfi_startproc
 831              		@ args = 0, pretend = 0, frame = 0
 832              		@ frame_needed = 0, uses_anonymous_args = 0
 833              	.LVL74:
 834              		.loc 1 365 0
 835 0000 8269     		ldr	r2, [r0, #24]
 836 0002 002A     		cmp	r2, #0
 837 0004 14DD     		ble	.L48
 838              		.loc 1 368 0
 839 0006 C368     		ldr	r3, [r0, #12]
 840              		.loc 1 367 0
 841 0008 013A     		subs	r2, r2, #1
 842              		.loc 1 360 0
 843 000a 10B5     		push	{r4, lr}
 844              		.cfi_def_cfa_offset 8
 845              		.cfi_offset 4, -8
 846              		.cfi_offset 14, -4
 847              		.loc 1 367 0
 848 000c 8261     		str	r2, [r0, #24]
 849              		.loc 1 369 0
 850 000e 4268     		ldr	r2, [r0, #4]
 851              		.loc 1 368 0
 852 0010 1C68     		ldr	r4, [r3]
 853 0012 0433     		adds	r3, r3, #4
 854              		.loc 1 369 0
 855 0014 9342     		cmp	r3, r2
ARM GAS  /tmp/ccPxlM4D.s 			page 16


 856              		.loc 1 368 0
 857 0016 C360     		str	r3, [r0, #12]
 858              		.loc 1 370 0
 859 0018 28BF     		it	cs
 860 001a 0368     		ldrcs	r3, [r0]
 861              		.loc 1 368 0
 862 001c 0C60     		str	r4, [r1]
 863              		.loc 1 371 0
 864 001e 00F11C00 		add	r0, r0, #28
 865              	.LVL75:
 866              		.loc 1 370 0
 867 0022 28BF     		it	cs
 868 0024 40F8103C 		strcs	r3, [r0, #-16]
 869              		.loc 1 371 0
 870 0028 FFF7FEFF 		bl	chSemSignalI
 871              	.LVL76:
 872              		.loc 1 372 0
 873 002c 0020     		movs	r0, #0
 874 002e 10BD     		pop	{r4, pc}
 875              	.LVL77:
 876              	.L48:
 877              		.cfi_def_cfa_offset 0
 878              		.cfi_restore 4
 879              		.cfi_restore 14
 880              		.loc 1 366 0
 881 0030 4FF0FF30 		mov	r0, #-1
 882              	.LVL78:
 883 0034 7047     		bx	lr
 884              		.cfi_endproc
 885              	.LFE17:
 886              		.size	chMBFetchI, .-chMBFetchI
 887 0036 00BF     		.text
 888              	.Letext0:
 889              		.file 2 "/usr/include/newlib/machine/_default_types.h"
 890              		.file 3 "/usr/include/newlib/sys/_stdint.h"
 891              		.file 4 "../os/ports/GCC/ARMCMx/chtypes.h"
 892              		.file 5 "../os/kernel/include/chlists.h"
 893              		.file 6 "../os/kernel/include/chthreads.h"
 894              		.file 7 "../os/ports/GCC/ARMCMx/chcore_v7m.h"
 895              		.file 8 "../os/kernel/include/chvt.h"
 896              		.file 9 "../os/kernel/include/chschd.h"
 897              		.file 10 "../os/kernel/include/chsem.h"
 898              		.file 11 "../os/kernel/include/chmtx.h"
 899              		.file 12 "../os/kernel/include/chmboxes.h"
 900              		.file 13 "../os/kernel/include/chregistry.h"
 901              		.file 14 "../os/kernel/include/ch.h"
 902              		.section	.debug_info,"",%progbits
 903              	.Ldebug_info0:
 904 0000 220F0000 		.4byte	0xf22
 905 0004 0400     		.2byte	0x4
 906 0006 00000000 		.4byte	.Ldebug_abbrev0
 907 000a 04       		.byte	0x4
 908 000b 01       		.uleb128 0x1
 909 000c A8020000 		.4byte	.LASF133
 910 0010 0C       		.byte	0xc
 911 0011 13000000 		.4byte	.LASF134
 912 0015 AC050000 		.4byte	.LASF135
ARM GAS  /tmp/ccPxlM4D.s 			page 17


 913 0019 A8000000 		.4byte	.Ldebug_ranges0+0xa8
 914 001d 00000000 		.4byte	0
 915 0021 00000000 		.4byte	.Ldebug_line0
 916 0025 02       		.uleb128 0x2
 917 0026 04       		.byte	0x4
 918 0027 05       		.byte	0x5
 919 0028 696E7400 		.ascii	"int\000"
 920 002c 03       		.uleb128 0x3
 921 002d 04       		.byte	0x4
 922 002e 07       		.byte	0x7
 923 002f BE010000 		.4byte	.LASF0
 924 0033 03       		.uleb128 0x3
 925 0034 08       		.byte	0x8
 926 0035 05       		.byte	0x5
 927 0036 F5000000 		.4byte	.LASF1
 928 003a 03       		.uleb128 0x3
 929 003b 08       		.byte	0x8
 930 003c 04       		.byte	0x4
 931 003d 44030000 		.4byte	.LASF2
 932 0041 03       		.uleb128 0x3
 933 0042 01       		.byte	0x1
 934 0043 06       		.byte	0x6
 935 0044 03010000 		.4byte	.LASF3
 936 0048 04       		.uleb128 0x4
 937 0049 56000000 		.4byte	.LASF6
 938 004d 02       		.byte	0x2
 939 004e 1D       		.byte	0x1d
 940 004f 53000000 		.4byte	0x53
 941 0053 03       		.uleb128 0x3
 942 0054 01       		.byte	0x1
 943 0055 08       		.byte	0x8
 944 0056 F1030000 		.4byte	.LASF4
 945 005a 03       		.uleb128 0x3
 946 005b 02       		.byte	0x2
 947 005c 05       		.byte	0x5
 948 005d 10040000 		.4byte	.LASF5
 949 0061 04       		.uleb128 0x4
 950 0062 CD040000 		.4byte	.LASF7
 951 0066 02       		.byte	0x2
 952 0067 2B       		.byte	0x2b
 953 0068 6C000000 		.4byte	0x6c
 954 006c 03       		.uleb128 0x3
 955 006d 02       		.byte	0x2
 956 006e 07       		.byte	0x7
 957 006f 1F020000 		.4byte	.LASF8
 958 0073 04       		.uleb128 0x4
 959 0074 F4040000 		.4byte	.LASF9
 960 0078 02       		.byte	0x2
 961 0079 3F       		.byte	0x3f
 962 007a 7E000000 		.4byte	0x7e
 963 007e 03       		.uleb128 0x3
 964 007f 04       		.byte	0x4
 965 0080 05       		.byte	0x5
 966 0081 46010000 		.4byte	.LASF10
 967 0085 04       		.uleb128 0x4
 968 0086 9C010000 		.4byte	.LASF11
 969 008a 02       		.byte	0x2
ARM GAS  /tmp/ccPxlM4D.s 			page 18


 970 008b 41       		.byte	0x41
 971 008c 90000000 		.4byte	0x90
 972 0090 03       		.uleb128 0x3
 973 0091 04       		.byte	0x4
 974 0092 07       		.byte	0x7
 975 0093 D3010000 		.4byte	.LASF12
 976 0097 04       		.uleb128 0x4
 977 0098 B6030000 		.4byte	.LASF13
 978 009c 02       		.byte	0x2
 979 009d 5B       		.byte	0x5b
 980 009e A2000000 		.4byte	0xa2
 981 00a2 03       		.uleb128 0x3
 982 00a3 08       		.byte	0x8
 983 00a4 07       		.byte	0x7
 984 00a5 92000000 		.4byte	.LASF14
 985 00a9 04       		.uleb128 0x4
 986 00aa 80050000 		.4byte	.LASF15
 987 00ae 03       		.byte	0x3
 988 00af 18       		.byte	0x18
 989 00b0 48000000 		.4byte	0x48
 990 00b4 04       		.uleb128 0x4
 991 00b5 58010000 		.4byte	.LASF16
 992 00b9 03       		.byte	0x3
 993 00ba 24       		.byte	0x24
 994 00bb 61000000 		.4byte	0x61
 995 00bf 04       		.uleb128 0x4
 996 00c0 E9030000 		.4byte	.LASF17
 997 00c4 03       		.byte	0x3
 998 00c5 2C       		.byte	0x2c
 999 00c6 73000000 		.4byte	0x73
 1000 00ca 04       		.uleb128 0x4
 1001 00cb 8C040000 		.4byte	.LASF18
 1002 00cf 03       		.byte	0x3
 1003 00d0 30       		.byte	0x30
 1004 00d1 85000000 		.4byte	0x85
 1005 00d5 04       		.uleb128 0x4
 1006 00d6 44000000 		.4byte	.LASF19
 1007 00da 03       		.byte	0x3
 1008 00db 3C       		.byte	0x3c
 1009 00dc 97000000 		.4byte	0x97
 1010 00e0 03       		.uleb128 0x3
 1011 00e1 01       		.byte	0x1
 1012 00e2 02       		.byte	0x2
 1013 00e3 E3030000 		.4byte	.LASF20
 1014 00e7 04       		.uleb128 0x4
 1015 00e8 56020000 		.4byte	.LASF21
 1016 00ec 04       		.byte	0x4
 1017 00ed 25       		.byte	0x25
 1018 00ee A9000000 		.4byte	0xa9
 1019 00f2 04       		.uleb128 0x4
 1020 00f3 4F010000 		.4byte	.LASF22
 1021 00f7 04       		.byte	0x4
 1022 00f8 26       		.byte	0x26
 1023 00f9 A9000000 		.4byte	0xa9
 1024 00fd 04       		.uleb128 0x4
 1025 00fe C1030000 		.4byte	.LASF23
 1026 0102 04       		.byte	0x4
ARM GAS  /tmp/ccPxlM4D.s 			page 19


 1027 0103 27       		.byte	0x27
 1028 0104 A9000000 		.4byte	0xa9
 1029 0108 04       		.uleb128 0x4
 1030 0109 3C010000 		.4byte	.LASF24
 1031 010d 04       		.byte	0x4
 1032 010e 28       		.byte	0x28
 1033 010f A9000000 		.4byte	0xa9
 1034 0113 04       		.uleb128 0x4
 1035 0114 DB030000 		.4byte	.LASF25
 1036 0118 04       		.byte	0x4
 1037 0119 29       		.byte	0x29
 1038 011a CA000000 		.4byte	0xca
 1039 011e 04       		.uleb128 0x4
 1040 011f 3D020000 		.4byte	.LASF26
 1041 0123 04       		.byte	0x4
 1042 0124 2A       		.byte	0x2a
 1043 0125 BF000000 		.4byte	0xbf
 1044 0129 04       		.uleb128 0x4
 1045 012a 6A020000 		.4byte	.LASF27
 1046 012e 04       		.byte	0x4
 1047 012f 2C       		.byte	0x2c
 1048 0130 CA000000 		.4byte	0xca
 1049 0134 04       		.uleb128 0x4
 1050 0135 DF040000 		.4byte	.LASF28
 1051 0139 04       		.byte	0x4
 1052 013a 2E       		.byte	0x2e
 1053 013b CA000000 		.4byte	0xca
 1054 013f 05       		.uleb128 0x5
 1055 0140 34010000 		.4byte	0x134
 1056 0144 04       		.uleb128 0x4
 1057 0145 B8010000 		.4byte	.LASF29
 1058 0149 04       		.byte	0x4
 1059 014a 2F       		.byte	0x2f
 1060 014b BF000000 		.4byte	0xbf
 1061 014f 04       		.uleb128 0x4
 1062 0150 6D040000 		.4byte	.LASF30
 1063 0154 05       		.byte	0x5
 1064 0155 23       		.byte	0x23
 1065 0156 5A010000 		.4byte	0x15a
 1066 015a 06       		.uleb128 0x6
 1067 015b 6D040000 		.4byte	.LASF30
 1068 015f 48       		.byte	0x48
 1069 0160 06       		.byte	0x6
 1070 0161 57       		.byte	0x57
 1071 0162 57020000 		.4byte	0x257
 1072 0166 07       		.uleb128 0x7
 1073 0167 46040000 		.4byte	.LASF31
 1074 016b 06       		.byte	0x6
 1075 016c 58       		.byte	0x58
 1076 016d 78020000 		.4byte	0x278
 1077 0171 00       		.byte	0
 1078 0172 07       		.uleb128 0x7
 1079 0173 D4030000 		.4byte	.LASF32
 1080 0177 06       		.byte	0x6
 1081 0178 5A       		.byte	0x5a
 1082 0179 78020000 		.4byte	0x278
 1083 017d 04       		.byte	0x4
ARM GAS  /tmp/ccPxlM4D.s 			page 20


 1084 017e 07       		.uleb128 0x7
 1085 017f E1000000 		.4byte	.LASF33
 1086 0183 06       		.byte	0x6
 1087 0184 5C       		.byte	0x5c
 1088 0185 13010000 		.4byte	0x113
 1089 0189 08       		.byte	0x8
 1090 018a 07       		.uleb128 0x7
 1091 018b 01060000 		.4byte	.LASF34
 1092 018f 06       		.byte	0x6
 1093 0190 5D       		.byte	0x5d
 1094 0191 3D030000 		.4byte	0x33d
 1095 0195 0C       		.byte	0xc
 1096 0196 07       		.uleb128 0x7
 1097 0197 6B010000 		.4byte	.LASF35
 1098 019b 06       		.byte	0x6
 1099 019c 5F       		.byte	0x5f
 1100 019d 78020000 		.4byte	0x278
 1101 01a1 10       		.byte	0x10
 1102 01a2 07       		.uleb128 0x7
 1103 01a3 72030000 		.4byte	.LASF36
 1104 01a7 06       		.byte	0x6
 1105 01a8 60       		.byte	0x60
 1106 01a9 78020000 		.4byte	0x278
 1107 01ad 14       		.byte	0x14
 1108 01ae 07       		.uleb128 0x7
 1109 01af 8F050000 		.4byte	.LASF37
 1110 01b3 06       		.byte	0x6
 1111 01b4 67       		.byte	0x67
 1112 01b5 9A050000 		.4byte	0x59a
 1113 01b9 18       		.byte	0x18
 1114 01ba 07       		.uleb128 0x7
 1115 01bb 1A040000 		.4byte	.LASF38
 1116 01bf 06       		.byte	0x6
 1117 01c0 72       		.byte	0x72
 1118 01c1 F2000000 		.4byte	0xf2
 1119 01c5 1C       		.byte	0x1c
 1120 01c6 07       		.uleb128 0x7
 1121 01c7 5C040000 		.4byte	.LASF39
 1122 01cb 06       		.byte	0x6
 1123 01cc 76       		.byte	0x76
 1124 01cd E7000000 		.4byte	0xe7
 1125 01d1 1D       		.byte	0x1d
 1126 01d2 07       		.uleb128 0x7
 1127 01d3 5D050000 		.4byte	.LASF40
 1128 01d7 06       		.byte	0x6
 1129 01d8 7B       		.byte	0x7b
 1130 01d9 FD000000 		.4byte	0xfd
 1131 01dd 1E       		.byte	0x1e
 1132 01de 07       		.uleb128 0x7
 1133 01df 22040000 		.4byte	.LASF41
 1134 01e3 06       		.byte	0x6
 1135 01e4 81       		.byte	0x81
 1136 01e5 08010000 		.4byte	0x108
 1137 01e9 1F       		.byte	0x1f
 1138 01ea 07       		.uleb128 0x7
 1139 01eb FE040000 		.4byte	.LASF42
 1140 01ef 06       		.byte	0x6
ARM GAS  /tmp/ccPxlM4D.s 			page 21


 1141 01f0 88       		.byte	0x88
 1142 01f1 3F010000 		.4byte	0x13f
 1143 01f5 20       		.byte	0x20
 1144 01f6 08       		.uleb128 0x8
 1145 01f7 705F7500 		.ascii	"p_u\000"
 1146 01fb 06       		.byte	0x6
 1147 01fc AD       		.byte	0xad
 1148 01fd 65050000 		.4byte	0x565
 1149 0201 24       		.byte	0x24
 1150 0202 07       		.uleb128 0x7
 1151 0203 07060000 		.4byte	.LASF43
 1152 0207 06       		.byte	0x6
 1153 0208 B2       		.byte	0xb2
 1154 0209 9E020000 		.4byte	0x29e
 1155 020d 28       		.byte	0x28
 1156 020e 07       		.uleb128 0x7
 1157 020f 1A050000 		.4byte	.LASF44
 1158 0213 06       		.byte	0x6
 1159 0214 B8       		.byte	0xb8
 1160 0215 7E020000 		.4byte	0x27e
 1161 0219 2C       		.byte	0x2c
 1162 021a 07       		.uleb128 0x7
 1163 021b 0D000000 		.4byte	.LASF45
 1164 021f 06       		.byte	0x6
 1165 0220 BC       		.byte	0xbc
 1166 0221 1E010000 		.4byte	0x11e
 1167 0225 34       		.byte	0x34
 1168 0226 07       		.uleb128 0x7
 1169 0227 81040000 		.4byte	.LASF46
 1170 022b 06       		.byte	0x6
 1171 022c C2       		.byte	0xc2
 1172 022d 29010000 		.4byte	0x129
 1173 0231 38       		.byte	0x38
 1174 0232 07       		.uleb128 0x7
 1175 0233 06040000 		.4byte	.LASF47
 1176 0237 06       		.byte	0x6
 1177 0238 C9       		.byte	0xc9
 1178 0239 AC050000 		.4byte	0x5ac
 1179 023d 3C       		.byte	0x3c
 1180 023e 07       		.uleb128 0x7
 1181 023f E9040000 		.4byte	.LASF48
 1182 0243 06       		.byte	0x6
 1183 0244 CD       		.byte	0xcd
 1184 0245 13010000 		.4byte	0x113
 1185 0249 40       		.byte	0x40
 1186 024a 07       		.uleb128 0x7
 1187 024b 2C010000 		.4byte	.LASF49
 1188 024f 06       		.byte	0x6
 1189 0250 D3       		.byte	0xd3
 1190 0251 B4020000 		.4byte	0x2b4
 1191 0255 44       		.byte	0x44
 1192 0256 00       		.byte	0
 1193 0257 09       		.uleb128 0x9
 1194 0258 08       		.byte	0x8
 1195 0259 05       		.byte	0x5
 1196 025a 5A       		.byte	0x5a
 1197 025b 78020000 		.4byte	0x278
ARM GAS  /tmp/ccPxlM4D.s 			page 22


 1198 025f 07       		.uleb128 0x7
 1199 0260 46040000 		.4byte	.LASF31
 1200 0264 05       		.byte	0x5
 1201 0265 5B       		.byte	0x5b
 1202 0266 78020000 		.4byte	0x278
 1203 026a 00       		.byte	0
 1204 026b 07       		.uleb128 0x7
 1205 026c D4030000 		.4byte	.LASF32
 1206 0270 05       		.byte	0x5
 1207 0271 5D       		.byte	0x5d
 1208 0272 78020000 		.4byte	0x278
 1209 0276 04       		.byte	0x4
 1210 0277 00       		.byte	0
 1211 0278 0A       		.uleb128 0xa
 1212 0279 04       		.byte	0x4
 1213 027a 4F010000 		.4byte	0x14f
 1214 027e 04       		.uleb128 0x4
 1215 027f 80030000 		.4byte	.LASF50
 1216 0283 05       		.byte	0x5
 1217 0284 5F       		.byte	0x5f
 1218 0285 57020000 		.4byte	0x257
 1219 0289 09       		.uleb128 0x9
 1220 028a 04       		.byte	0x4
 1221 028b 05       		.byte	0x5
 1222 028c 64       		.byte	0x64
 1223 028d 9E020000 		.4byte	0x29e
 1224 0291 07       		.uleb128 0x7
 1225 0292 46040000 		.4byte	.LASF31
 1226 0296 05       		.byte	0x5
 1227 0297 66       		.byte	0x66
 1228 0298 78020000 		.4byte	0x278
 1229 029c 00       		.byte	0
 1230 029d 00       		.byte	0
 1231 029e 04       		.uleb128 0x4
 1232 029f 5E020000 		.4byte	.LASF51
 1233 02a3 05       		.byte	0x5
 1234 02a4 69       		.byte	0x69
 1235 02a5 89020000 		.4byte	0x289
 1236 02a9 04       		.uleb128 0x4
 1237 02aa A7010000 		.4byte	.LASF52
 1238 02ae 07       		.byte	0x7
 1239 02af DE       		.byte	0xde
 1240 02b0 B4020000 		.4byte	0x2b4
 1241 02b4 0B       		.uleb128 0xb
 1242 02b5 04       		.byte	0x4
 1243 02b6 04       		.uleb128 0x4
 1244 02b7 81020000 		.4byte	.LASF53
 1245 02bb 07       		.byte	0x7
 1246 02bc E4       		.byte	0xe4
 1247 02bd D5000000 		.4byte	0xd5
 1248 02c1 0C       		.uleb128 0xc
 1249 02c2 13050000 		.4byte	.LASF54
 1250 02c6 24       		.byte	0x24
 1251 02c7 07       		.byte	0x7
 1252 02c8 0501     		.2byte	0x105
 1253 02ca 3D030000 		.4byte	0x33d
 1254 02ce 0D       		.uleb128 0xd
ARM GAS  /tmp/ccPxlM4D.s 			page 23


 1255 02cf 723400   		.ascii	"r4\000"
 1256 02d2 07       		.byte	0x7
 1257 02d3 1801     		.2byte	0x118
 1258 02d5 A9020000 		.4byte	0x2a9
 1259 02d9 00       		.byte	0
 1260 02da 0D       		.uleb128 0xd
 1261 02db 723500   		.ascii	"r5\000"
 1262 02de 07       		.byte	0x7
 1263 02df 1901     		.2byte	0x119
 1264 02e1 A9020000 		.4byte	0x2a9
 1265 02e5 04       		.byte	0x4
 1266 02e6 0D       		.uleb128 0xd
 1267 02e7 723600   		.ascii	"r6\000"
 1268 02ea 07       		.byte	0x7
 1269 02eb 1A01     		.2byte	0x11a
 1270 02ed A9020000 		.4byte	0x2a9
 1271 02f1 08       		.byte	0x8
 1272 02f2 0D       		.uleb128 0xd
 1273 02f3 723700   		.ascii	"r7\000"
 1274 02f6 07       		.byte	0x7
 1275 02f7 1B01     		.2byte	0x11b
 1276 02f9 A9020000 		.4byte	0x2a9
 1277 02fd 0C       		.byte	0xc
 1278 02fe 0D       		.uleb128 0xd
 1279 02ff 723800   		.ascii	"r8\000"
 1280 0302 07       		.byte	0x7
 1281 0303 1C01     		.2byte	0x11c
 1282 0305 A9020000 		.4byte	0x2a9
 1283 0309 10       		.byte	0x10
 1284 030a 0D       		.uleb128 0xd
 1285 030b 723900   		.ascii	"r9\000"
 1286 030e 07       		.byte	0x7
 1287 030f 1D01     		.2byte	0x11d
 1288 0311 A9020000 		.4byte	0x2a9
 1289 0315 14       		.byte	0x14
 1290 0316 0D       		.uleb128 0xd
 1291 0317 72313000 		.ascii	"r10\000"
 1292 031b 07       		.byte	0x7
 1293 031c 1E01     		.2byte	0x11e
 1294 031e A9020000 		.4byte	0x2a9
 1295 0322 18       		.byte	0x18
 1296 0323 0D       		.uleb128 0xd
 1297 0324 72313100 		.ascii	"r11\000"
 1298 0328 07       		.byte	0x7
 1299 0329 1F01     		.2byte	0x11f
 1300 032b A9020000 		.4byte	0x2a9
 1301 032f 1C       		.byte	0x1c
 1302 0330 0D       		.uleb128 0xd
 1303 0331 6C7200   		.ascii	"lr\000"
 1304 0334 07       		.byte	0x7
 1305 0335 2001     		.2byte	0x120
 1306 0337 A9020000 		.4byte	0x2a9
 1307 033b 20       		.byte	0x20
 1308 033c 00       		.byte	0
 1309 033d 0C       		.uleb128 0xc
 1310 033e 17020000 		.4byte	.LASF55
 1311 0342 04       		.byte	0x4
ARM GAS  /tmp/ccPxlM4D.s 			page 24


 1312 0343 07       		.byte	0x7
 1313 0344 2A01     		.2byte	0x12a
 1314 0346 58030000 		.4byte	0x358
 1315 034a 0D       		.uleb128 0xd
 1316 034b 72313300 		.ascii	"r13\000"
 1317 034f 07       		.byte	0x7
 1318 0350 2B01     		.2byte	0x12b
 1319 0352 58030000 		.4byte	0x358
 1320 0356 00       		.byte	0
 1321 0357 00       		.byte	0
 1322 0358 0A       		.uleb128 0xa
 1323 0359 04       		.byte	0x4
 1324 035a C1020000 		.4byte	0x2c1
 1325 035e 03       		.uleb128 0x3
 1326 035f 04       		.byte	0x4
 1327 0360 07       		.byte	0x7
 1328 0361 3B030000 		.4byte	.LASF56
 1329 0365 04       		.uleb128 0x4
 1330 0366 FA010000 		.4byte	.LASF57
 1331 036a 08       		.byte	0x8
 1332 036b 51       		.byte	0x51
 1333 036c 70030000 		.4byte	0x370
 1334 0370 0A       		.uleb128 0xa
 1335 0371 04       		.byte	0x4
 1336 0372 76030000 		.4byte	0x376
 1337 0376 0E       		.uleb128 0xe
 1338 0377 81030000 		.4byte	0x381
 1339 037b 0F       		.uleb128 0xf
 1340 037c B4020000 		.4byte	0x2b4
 1341 0380 00       		.byte	0
 1342 0381 04       		.uleb128 0x4
 1343 0382 A9040000 		.4byte	.LASF58
 1344 0386 08       		.byte	0x8
 1345 0387 56       		.byte	0x56
 1346 0388 8C030000 		.4byte	0x38c
 1347 038c 06       		.uleb128 0x6
 1348 038d A9040000 		.4byte	.LASF58
 1349 0391 14       		.byte	0x14
 1350 0392 08       		.byte	0x8
 1351 0393 5D       		.byte	0x5d
 1352 0394 D5030000 		.4byte	0x3d5
 1353 0398 07       		.uleb128 0x7
 1354 0399 CB010000 		.4byte	.LASF59
 1355 039d 08       		.byte	0x8
 1356 039e 5E       		.byte	0x5e
 1357 039f D5030000 		.4byte	0x3d5
 1358 03a3 00       		.byte	0
 1359 03a4 07       		.uleb128 0x7
 1360 03a5 B0010000 		.4byte	.LASF60
 1361 03a9 08       		.byte	0x8
 1362 03aa 60       		.byte	0x60
 1363 03ab D5030000 		.4byte	0x3d5
 1364 03af 04       		.byte	0x4
 1365 03b0 07       		.uleb128 0x7
 1366 03b1 A0020000 		.4byte	.LASF61
 1367 03b5 08       		.byte	0x8
 1368 03b6 62       		.byte	0x62
ARM GAS  /tmp/ccPxlM4D.s 			page 25


 1369 03b7 34010000 		.4byte	0x134
 1370 03bb 08       		.byte	0x8
 1371 03bc 07       		.uleb128 0x7
 1372 03bd 3C000000 		.4byte	.LASF62
 1373 03c1 08       		.byte	0x8
 1374 03c2 63       		.byte	0x63
 1375 03c3 65030000 		.4byte	0x365
 1376 03c7 0C       		.byte	0xc
 1377 03c8 07       		.uleb128 0x7
 1378 03c9 2F050000 		.4byte	.LASF63
 1379 03cd 08       		.byte	0x8
 1380 03ce 65       		.byte	0x65
 1381 03cf B4020000 		.4byte	0x2b4
 1382 03d3 10       		.byte	0x10
 1383 03d4 00       		.byte	0
 1384 03d5 0A       		.uleb128 0xa
 1385 03d6 04       		.byte	0x4
 1386 03d7 81030000 		.4byte	0x381
 1387 03db 09       		.uleb128 0x9
 1388 03dc 10       		.byte	0x10
 1389 03dd 08       		.byte	0x8
 1390 03de 6F       		.byte	0x6f
 1391 03df 14040000 		.4byte	0x414
 1392 03e3 07       		.uleb128 0x7
 1393 03e4 CB010000 		.4byte	.LASF59
 1394 03e8 08       		.byte	0x8
 1395 03e9 70       		.byte	0x70
 1396 03ea D5030000 		.4byte	0x3d5
 1397 03ee 00       		.byte	0
 1398 03ef 07       		.uleb128 0x7
 1399 03f0 B0010000 		.4byte	.LASF60
 1400 03f4 08       		.byte	0x8
 1401 03f5 72       		.byte	0x72
 1402 03f6 D5030000 		.4byte	0x3d5
 1403 03fa 04       		.byte	0x4
 1404 03fb 07       		.uleb128 0x7
 1405 03fc A0020000 		.4byte	.LASF61
 1406 0400 08       		.byte	0x8
 1407 0401 74       		.byte	0x74
 1408 0402 34010000 		.4byte	0x134
 1409 0406 08       		.byte	0x8
 1410 0407 07       		.uleb128 0x7
 1411 0408 96050000 		.4byte	.LASF64
 1412 040c 08       		.byte	0x8
 1413 040d 75       		.byte	0x75
 1414 040e 3F010000 		.4byte	0x13f
 1415 0412 0C       		.byte	0xc
 1416 0413 00       		.byte	0
 1417 0414 04       		.uleb128 0x4
 1418 0415 F2050000 		.4byte	.LASF65
 1419 0419 08       		.byte	0x8
 1420 041a 76       		.byte	0x76
 1421 041b DB030000 		.4byte	0x3db
 1422 041f 10       		.uleb128 0x10
 1423 0420 6A000000 		.4byte	.LASF73
 1424 0424 08       		.byte	0x8
 1425 0425 EE       		.byte	0xee
ARM GAS  /tmp/ccPxlM4D.s 			page 26


 1426 0426 14040000 		.4byte	0x414
 1427 042a 09       		.uleb128 0x9
 1428 042b 1C       		.byte	0x1c
 1429 042c 09       		.byte	0x9
 1430 042d 57       		.byte	0x57
 1431 042e 7B040000 		.4byte	0x47b
 1432 0432 07       		.uleb128 0x7
 1433 0433 A1040000 		.4byte	.LASF66
 1434 0437 09       		.byte	0x9
 1435 0438 58       		.byte	0x58
 1436 0439 7E020000 		.4byte	0x27e
 1437 043d 00       		.byte	0
 1438 043e 07       		.uleb128 0x7
 1439 043f 38040000 		.4byte	.LASF67
 1440 0443 09       		.byte	0x9
 1441 0444 59       		.byte	0x59
 1442 0445 13010000 		.4byte	0x113
 1443 0449 08       		.byte	0x8
 1444 044a 07       		.uleb128 0x7
 1445 044b 7A030000 		.4byte	.LASF68
 1446 044f 09       		.byte	0x9
 1447 0450 5B       		.byte	0x5b
 1448 0451 3D030000 		.4byte	0x33d
 1449 0455 0C       		.byte	0xc
 1450 0456 07       		.uleb128 0x7
 1451 0457 43020000 		.4byte	.LASF69
 1452 045b 09       		.byte	0x9
 1453 045c 5E       		.byte	0x5e
 1454 045d 78020000 		.4byte	0x278
 1455 0461 10       		.byte	0x10
 1456 0462 07       		.uleb128 0x7
 1457 0463 AE030000 		.4byte	.LASF70
 1458 0467 09       		.byte	0x9
 1459 0468 5F       		.byte	0x5f
 1460 0469 78020000 		.4byte	0x278
 1461 046d 14       		.byte	0x14
 1462 046e 07       		.uleb128 0x7
 1463 046f A4030000 		.4byte	.LASF71
 1464 0473 09       		.byte	0x9
 1465 0474 62       		.byte	0x62
 1466 0475 78020000 		.4byte	0x278
 1467 0479 18       		.byte	0x18
 1468 047a 00       		.byte	0
 1469 047b 04       		.uleb128 0x4
 1470 047c 64050000 		.4byte	.LASF72
 1471 0480 09       		.byte	0x9
 1472 0481 64       		.byte	0x64
 1473 0482 2A040000 		.4byte	0x42a
 1474 0486 10       		.uleb128 0x10
 1475 0487 7A050000 		.4byte	.LASF74
 1476 048b 09       		.byte	0x9
 1477 048c 68       		.byte	0x68
 1478 048d 7B040000 		.4byte	0x47b
 1479 0491 06       		.uleb128 0x6
 1480 0492 36050000 		.4byte	.LASF75
 1481 0496 0C       		.byte	0xc
 1482 0497 0A       		.byte	0xa
ARM GAS  /tmp/ccPxlM4D.s 			page 27


 1483 0498 25       		.byte	0x25
 1484 0499 B6040000 		.4byte	0x4b6
 1485 049d 07       		.uleb128 0x7
 1486 049e 83010000 		.4byte	.LASF76
 1487 04a2 0A       		.byte	0xa
 1488 04a3 26       		.byte	0x26
 1489 04a4 7E020000 		.4byte	0x27e
 1490 04a8 00       		.byte	0
 1491 04a9 07       		.uleb128 0x7
 1492 04aa 11020000 		.4byte	.LASF77
 1493 04ae 0A       		.byte	0xa
 1494 04af 28       		.byte	0x28
 1495 04b0 44010000 		.4byte	0x144
 1496 04b4 08       		.byte	0x8
 1497 04b5 00       		.byte	0
 1498 04b6 04       		.uleb128 0x4
 1499 04b7 36050000 		.4byte	.LASF75
 1500 04bb 0A       		.byte	0xa
 1501 04bc 29       		.byte	0x29
 1502 04bd 91040000 		.4byte	0x491
 1503 04c1 06       		.uleb128 0x6
 1504 04c2 76020000 		.4byte	.LASF78
 1505 04c6 10       		.byte	0x10
 1506 04c7 0B       		.byte	0xb
 1507 04c8 25       		.byte	0x25
 1508 04c9 F2040000 		.4byte	0x4f2
 1509 04cd 07       		.uleb128 0x7
 1510 04ce 34010000 		.4byte	.LASF79
 1511 04d2 0B       		.byte	0xb
 1512 04d3 26       		.byte	0x26
 1513 04d4 7E020000 		.4byte	0x27e
 1514 04d8 00       		.byte	0
 1515 04d9 07       		.uleb128 0x7
 1516 04da F9050000 		.4byte	.LASF80
 1517 04de 0B       		.byte	0xb
 1518 04df 28       		.byte	0x28
 1519 04e0 78020000 		.4byte	0x278
 1520 04e4 08       		.byte	0x8
 1521 04e5 07       		.uleb128 0x7
 1522 04e6 D8040000 		.4byte	.LASF81
 1523 04ea 0B       		.byte	0xb
 1524 04eb 2A       		.byte	0x2a
 1525 04ec F2040000 		.4byte	0x4f2
 1526 04f0 0C       		.byte	0xc
 1527 04f1 00       		.byte	0
 1528 04f2 0A       		.uleb128 0xa
 1529 04f3 04       		.byte	0x4
 1530 04f4 C1040000 		.4byte	0x4c1
 1531 04f8 04       		.uleb128 0x4
 1532 04f9 76020000 		.4byte	.LASF78
 1533 04fd 0B       		.byte	0xb
 1534 04fe 2C       		.byte	0x2c
 1535 04ff C1040000 		.4byte	0x4c1
 1536 0503 09       		.uleb128 0x9
 1537 0504 28       		.byte	0x28
 1538 0505 0C       		.byte	0xc
 1539 0506 2C       		.byte	0x2c
ARM GAS  /tmp/ccPxlM4D.s 			page 28


 1540 0507 54050000 		.4byte	0x554
 1541 050b 07       		.uleb128 0x7
 1542 050c 95030000 		.4byte	.LASF82
 1543 0510 0C       		.byte	0xc
 1544 0511 2D       		.byte	0x2d
 1545 0512 54050000 		.4byte	0x554
 1546 0516 00       		.byte	0
 1547 0517 07       		.uleb128 0x7
 1548 0518 FF030000 		.4byte	.LASF83
 1549 051c 0C       		.byte	0xc
 1550 051d 2F       		.byte	0x2f
 1551 051e 54050000 		.4byte	0x554
 1552 0522 04       		.byte	0x4
 1553 0523 07       		.uleb128 0x7
 1554 0524 D8000000 		.4byte	.LASF84
 1555 0528 0C       		.byte	0xc
 1556 0529 31       		.byte	0x31
 1557 052a 54050000 		.4byte	0x554
 1558 052e 08       		.byte	0x8
 1559 052f 07       		.uleb128 0x7
 1560 0530 4D000000 		.4byte	.LASF85
 1561 0534 0C       		.byte	0xc
 1562 0535 32       		.byte	0x32
 1563 0536 54050000 		.4byte	0x554
 1564 053a 0C       		.byte	0xc
 1565 053b 07       		.uleb128 0x7
 1566 053c 40050000 		.4byte	.LASF86
 1567 0540 0C       		.byte	0xc
 1568 0541 33       		.byte	0x33
 1569 0542 B6040000 		.4byte	0x4b6
 1570 0546 10       		.byte	0x10
 1571 0547 07       		.uleb128 0x7
 1572 0548 EE010000 		.4byte	.LASF87
 1573 054c 0C       		.byte	0xc
 1574 054d 35       		.byte	0x35
 1575 054e B6040000 		.4byte	0x4b6
 1576 0552 1C       		.byte	0x1c
 1577 0553 00       		.byte	0
 1578 0554 0A       		.uleb128 0xa
 1579 0555 04       		.byte	0x4
 1580 0556 1E010000 		.4byte	0x11e
 1581 055a 04       		.uleb128 0x4
 1582 055b 7B000000 		.4byte	.LASF88
 1583 055f 0C       		.byte	0xc
 1584 0560 37       		.byte	0x37
 1585 0561 03050000 		.4byte	0x503
 1586 0565 11       		.uleb128 0x11
 1587 0566 04       		.byte	0x4
 1588 0567 06       		.byte	0x6
 1589 0568 8F       		.byte	0x8f
 1590 0569 9A050000 		.4byte	0x59a
 1591 056d 12       		.uleb128 0x12
 1592 056e 56050000 		.4byte	.LASF89
 1593 0572 06       		.byte	0x6
 1594 0573 96       		.byte	0x96
 1595 0574 1E010000 		.4byte	0x11e
 1596 0578 12       		.uleb128 0x12
ARM GAS  /tmp/ccPxlM4D.s 			page 29


 1597 0579 B7000000 		.4byte	.LASF90
 1598 057d 06       		.byte	0x6
 1599 057e 9D       		.byte	0x9d
 1600 057f 1E010000 		.4byte	0x11e
 1601 0583 12       		.uleb128 0x12
 1602 0584 88050000 		.4byte	.LASF91
 1603 0588 06       		.byte	0x6
 1604 0589 A4       		.byte	0xa4
 1605 058a B4020000 		.4byte	0x2b4
 1606 058e 12       		.uleb128 0x12
 1607 058f 3F040000 		.4byte	.LASF92
 1608 0593 06       		.byte	0x6
 1609 0594 AB       		.byte	0xab
 1610 0595 29010000 		.4byte	0x129
 1611 0599 00       		.byte	0
 1612 059a 0A       		.uleb128 0xa
 1613 059b 04       		.byte	0x4
 1614 059c A7050000 		.4byte	0x5a7
 1615 05a0 03       		.uleb128 0x3
 1616 05a1 01       		.byte	0x1
 1617 05a2 08       		.byte	0x8
 1618 05a3 B6040000 		.4byte	.LASF93
 1619 05a7 13       		.uleb128 0x13
 1620 05a8 A0050000 		.4byte	0x5a0
 1621 05ac 0A       		.uleb128 0xa
 1622 05ad 04       		.byte	0x4
 1623 05ae F8040000 		.4byte	0x4f8
 1624 05b2 09       		.uleb128 0x9
 1625 05b3 16       		.byte	0x16
 1626 05b4 0D       		.byte	0xd
 1627 05b5 25       		.byte	0x25
 1628 05b6 93060000 		.4byte	0x693
 1629 05ba 07       		.uleb128 0x7
 1630 05bb 03020000 		.4byte	.LASF94
 1631 05bf 0D       		.byte	0xd
 1632 05c0 26       		.byte	0x26
 1633 05c1 93060000 		.4byte	0x693
 1634 05c5 00       		.byte	0
 1635 05c6 07       		.uleb128 0x7
 1636 05c7 8C020000 		.4byte	.LASF95
 1637 05cb 0D       		.byte	0xd
 1638 05cc 27       		.byte	0x27
 1639 05cd A9000000 		.4byte	0xa9
 1640 05d1 04       		.byte	0x4
 1641 05d2 07       		.uleb128 0x7
 1642 05d3 8D030000 		.4byte	.LASF96
 1643 05d7 0D       		.byte	0xd
 1644 05d8 28       		.byte	0x28
 1645 05d9 A9000000 		.4byte	0xa9
 1646 05dd 05       		.byte	0x5
 1647 05de 07       		.uleb128 0x7
 1648 05df A1050000 		.4byte	.LASF97
 1649 05e3 0D       		.byte	0xd
 1650 05e4 29       		.byte	0x29
 1651 05e5 B4000000 		.4byte	0xb4
 1652 05e9 06       		.byte	0x6
 1653 05ea 07       		.uleb128 0x7
ARM GAS  /tmp/ccPxlM4D.s 			page 30


 1654 05eb C9030000 		.4byte	.LASF98
 1655 05ef 0D       		.byte	0xd
 1656 05f0 2A       		.byte	0x2a
 1657 05f1 A9000000 		.4byte	0xa9
 1658 05f5 08       		.byte	0x8
 1659 05f6 07       		.uleb128 0x7
 1660 05f7 50030000 		.4byte	.LASF99
 1661 05fb 0D       		.byte	0xd
 1662 05fc 2B       		.byte	0x2b
 1663 05fd A9000000 		.4byte	0xa9
 1664 0601 09       		.byte	0x9
 1665 0602 07       		.uleb128 0x7
 1666 0603 A9000000 		.4byte	.LASF100
 1667 0607 0D       		.byte	0xd
 1668 0608 2C       		.byte	0x2c
 1669 0609 A9000000 		.4byte	0xa9
 1670 060d 0A       		.byte	0xa
 1671 060e 07       		.uleb128 0x7
 1672 060f 95040000 		.4byte	.LASF101
 1673 0613 0D       		.byte	0xd
 1674 0614 2D       		.byte	0x2d
 1675 0615 A9000000 		.4byte	0xa9
 1676 0619 0B       		.byte	0xb
 1677 061a 07       		.uleb128 0x7
 1678 061b 4B050000 		.4byte	.LASF102
 1679 061f 0D       		.byte	0xd
 1680 0620 2E       		.byte	0x2e
 1681 0621 A9000000 		.4byte	0xa9
 1682 0625 0C       		.byte	0xc
 1683 0626 07       		.uleb128 0x7
 1684 0627 74040000 		.4byte	.LASF103
 1685 062b 0D       		.byte	0xd
 1686 062c 2F       		.byte	0x2f
 1687 062d A9000000 		.4byte	0xa9
 1688 0631 0D       		.byte	0xd
 1689 0632 07       		.uleb128 0x7
 1690 0633 00000000 		.4byte	.LASF104
 1691 0637 0D       		.byte	0xd
 1692 0638 30       		.byte	0x30
 1693 0639 A9000000 		.4byte	0xa9
 1694 063d 0E       		.byte	0xe
 1695 063e 07       		.uleb128 0x7
 1696 063f 66030000 		.4byte	.LASF105
 1697 0643 0D       		.byte	0xd
 1698 0644 31       		.byte	0x31
 1699 0645 A9000000 		.4byte	0xa9
 1700 0649 0F       		.byte	0xf
 1701 064a 07       		.uleb128 0x7
 1702 064b 0F010000 		.4byte	.LASF106
 1703 064f 0D       		.byte	0xd
 1704 0650 32       		.byte	0x32
 1705 0651 A9000000 		.4byte	0xa9
 1706 0655 10       		.byte	0x10
 1707 0656 07       		.uleb128 0x7
 1708 0657 E8000000 		.4byte	.LASF107
 1709 065b 0D       		.byte	0xd
 1710 065c 34       		.byte	0x34
ARM GAS  /tmp/ccPxlM4D.s 			page 31


 1711 065d A9000000 		.4byte	0xa9
 1712 0661 11       		.byte	0x11
 1713 0662 07       		.uleb128 0x7
 1714 0663 1F010000 		.4byte	.LASF108
 1715 0667 0D       		.byte	0xd
 1716 0668 35       		.byte	0x35
 1717 0669 A9000000 		.4byte	0xa9
 1718 066d 12       		.byte	0x12
 1719 066e 07       		.uleb128 0x7
 1720 066f 94020000 		.4byte	.LASF109
 1721 0673 0D       		.byte	0xd
 1722 0674 36       		.byte	0x36
 1723 0675 A9000000 		.4byte	0xa9
 1724 0679 13       		.byte	0x13
 1725 067a 07       		.uleb128 0x7
 1726 067b 4D040000 		.4byte	.LASF110
 1727 067f 0D       		.byte	0xd
 1728 0680 37       		.byte	0x37
 1729 0681 A9000000 		.4byte	0xa9
 1730 0685 14       		.byte	0x14
 1731 0686 07       		.uleb128 0x7
 1732 0687 2C040000 		.4byte	.LASF111
 1733 068b 0D       		.byte	0xd
 1734 068c 39       		.byte	0x39
 1735 068d A9000000 		.4byte	0xa9
 1736 0691 15       		.byte	0x15
 1737 0692 00       		.byte	0
 1738 0693 14       		.uleb128 0x14
 1739 0694 A0050000 		.4byte	0x5a0
 1740 0698 A3060000 		.4byte	0x6a3
 1741 069c 15       		.uleb128 0x15
 1742 069d 5E030000 		.4byte	0x35e
 1743 06a1 03       		.byte	0x3
 1744 06a2 00       		.byte	0
 1745 06a3 04       		.uleb128 0x4
 1746 06a4 61010000 		.4byte	.LASF112
 1747 06a8 0D       		.byte	0xd
 1748 06a9 3A       		.byte	0x3a
 1749 06aa B2050000 		.4byte	0x5b2
 1750 06ae 13       		.uleb128 0x13
 1751 06af A3060000 		.4byte	0x6a3
 1752 06b3 10       		.uleb128 0x10
 1753 06b4 E5010000 		.4byte	.LASF113
 1754 06b8 0D       		.byte	0xd
 1755 06b9 77       		.byte	0x77
 1756 06ba AE060000 		.4byte	0x6ae
 1757 06be 14       		.uleb128 0x14
 1758 06bf B6020000 		.4byte	0x2b6
 1759 06c3 CE060000 		.4byte	0x6ce
 1760 06c7 15       		.uleb128 0x15
 1761 06c8 5E030000 		.4byte	0x35e
 1762 06cc 17       		.byte	0x17
 1763 06cd 00       		.byte	0
 1764 06ce 10       		.uleb128 0x10
 1765 06cf 73010000 		.4byte	.LASF114
 1766 06d3 0E       		.byte	0xe
 1767 06d4 82       		.byte	0x82
ARM GAS  /tmp/ccPxlM4D.s 			page 32


 1768 06d5 BE060000 		.4byte	0x6be
 1769 06d9 16       		.uleb128 0x16
 1770 06da 32020000 		.4byte	.LASF117
 1771 06de 01       		.byte	0x1
 1772 06df 6801     		.2byte	0x168
 1773 06e1 1E010000 		.4byte	0x11e
 1774 06e5 00000000 		.4byte	.LFB17
 1775 06e9 36000000 		.4byte	.LFE17-.LFB17
 1776 06ed 01       		.uleb128 0x1
 1777 06ee 9C       		.byte	0x9c
 1778 06ef 27070000 		.4byte	0x727
 1779 06f3 17       		.uleb128 0x17
 1780 06f4 6D627000 		.ascii	"mbp\000"
 1781 06f8 01       		.byte	0x1
 1782 06f9 6801     		.2byte	0x168
 1783 06fb 27070000 		.4byte	0x727
 1784 06ff 00000000 		.4byte	.LLST56
 1785 0703 18       		.uleb128 0x18
 1786 0704 7C020000 		.4byte	.LASF115
 1787 0708 01       		.byte	0x1
 1788 0709 6801     		.2byte	0x168
 1789 070b 54050000 		.4byte	0x554
 1790 070f 47000000 		.4byte	.LLST57
 1791 0713 19       		.uleb128 0x19
 1792 0714 2C000000 		.4byte	.LVL76
 1793 0718 EE0E0000 		.4byte	0xeee
 1794 071c 1A       		.uleb128 0x1a
 1795 071d 01       		.uleb128 0x1
 1796 071e 50       		.byte	0x50
 1797 071f 05       		.uleb128 0x5
 1798 0720 F3       		.byte	0xf3
 1799 0721 01       		.uleb128 0x1
 1800 0722 50       		.byte	0x50
 1801 0723 23       		.byte	0x23
 1802 0724 1C       		.uleb128 0x1c
 1803 0725 00       		.byte	0
 1804 0726 00       		.byte	0
 1805 0727 0A       		.uleb128 0xa
 1806 0728 04       		.byte	0x4
 1807 0729 5A050000 		.4byte	0x55a
 1808 072d 1B       		.uleb128 0x1b
 1809 072e 4B020000 		.4byte	.LASF120
 1810 0732 01       		.byte	0x1
 1811 0733 4901     		.2byte	0x149
 1812 0735 1E010000 		.4byte	0x11e
 1813 0739 01       		.byte	0x1
 1814 073a 6F070000 		.4byte	0x76f
 1815 073e 1C       		.uleb128 0x1c
 1816 073f 6D627000 		.ascii	"mbp\000"
 1817 0743 01       		.byte	0x1
 1818 0744 4901     		.2byte	0x149
 1819 0746 27070000 		.4byte	0x727
 1820 074a 1D       		.uleb128 0x1d
 1821 074b 7C020000 		.4byte	.LASF115
 1822 074f 01       		.byte	0x1
 1823 0750 4901     		.2byte	0x149
 1824 0752 54050000 		.4byte	0x554
ARM GAS  /tmp/ccPxlM4D.s 			page 33


 1825 0756 1D       		.uleb128 0x1d
 1826 0757 9F030000 		.4byte	.LASF116
 1827 075b 01       		.byte	0x1
 1828 075c 4901     		.2byte	0x149
 1829 075e 34010000 		.4byte	0x134
 1830 0762 1E       		.uleb128 0x1e
 1831 0763 56050000 		.4byte	.LASF89
 1832 0767 01       		.byte	0x1
 1833 0768 4A01     		.2byte	0x14a
 1834 076a 1E010000 		.4byte	0x11e
 1835 076e 00       		.byte	0
 1836 076f 16       		.uleb128 0x16
 1837 0770 25050000 		.4byte	.LASF118
 1838 0774 01       		.byte	0x1
 1839 0775 2D01     		.2byte	0x12d
 1840 0777 1E010000 		.4byte	0x11e
 1841 077b 00000000 		.4byte	.LFB15
 1842 077f 44000000 		.4byte	.LFE15-.LFB15
 1843 0783 01       		.uleb128 0x1
 1844 0784 9C       		.byte	0x9c
 1845 0785 A5080000 		.4byte	0x8a5
 1846 0789 17       		.uleb128 0x17
 1847 078a 6D627000 		.ascii	"mbp\000"
 1848 078e 01       		.byte	0x1
 1849 078f 2D01     		.2byte	0x12d
 1850 0791 27070000 		.4byte	0x727
 1851 0795 73000000 		.4byte	.LLST39
 1852 0799 18       		.uleb128 0x18
 1853 079a 7C020000 		.4byte	.LASF115
 1854 079e 01       		.byte	0x1
 1855 079f 2D01     		.2byte	0x12d
 1856 07a1 54050000 		.4byte	0x554
 1857 07a5 91000000 		.4byte	.LLST40
 1858 07a9 18       		.uleb128 0x18
 1859 07aa 9F030000 		.4byte	.LASF116
 1860 07ae 01       		.byte	0x1
 1861 07af 2D01     		.2byte	0x12d
 1862 07b1 34010000 		.4byte	0x134
 1863 07b5 AF000000 		.4byte	.LLST41
 1864 07b9 1E       		.uleb128 0x1e
 1865 07ba 56050000 		.4byte	.LASF89
 1866 07be 01       		.byte	0x1
 1867 07bf 2E01     		.2byte	0x12e
 1868 07c1 1E010000 		.4byte	0x11e
 1869 07c5 1F       		.uleb128 0x1f
 1870 07c6 90000000 		.4byte	.Ldebug_ranges0+0x90
 1871 07ca DD070000 		.4byte	0x7dd
 1872 07ce 20       		.uleb128 0x20
 1873 07cf 746D7000 		.ascii	"tmp\000"
 1874 07d3 01       		.byte	0x1
 1875 07d4 3001     		.2byte	0x130
 1876 07d6 CA000000 		.4byte	0xca
 1877 07da 01       		.uleb128 0x1
 1878 07db 53       		.byte	0x53
 1879 07dc 00       		.byte	0
 1880 07dd 21       		.uleb128 0x21
 1881 07de 3A000000 		.4byte	.LBB68
ARM GAS  /tmp/ccPxlM4D.s 			page 34


 1882 07e2 06000000 		.4byte	.LBE68-.LBB68
 1883 07e6 F9070000 		.4byte	0x7f9
 1884 07ea 20       		.uleb128 0x20
 1885 07eb 746D7000 		.ascii	"tmp\000"
 1886 07ef 01       		.byte	0x1
 1887 07f0 3201     		.2byte	0x132
 1888 07f2 CA000000 		.4byte	0xca
 1889 07f6 01       		.uleb128 0x1
 1890 07f7 53       		.byte	0x53
 1891 07f8 00       		.byte	0
 1892 07f9 22       		.uleb128 0x22
 1893 07fa 2D070000 		.4byte	0x72d
 1894 07fe 0C000000 		.4byte	.LBB64
 1895 0802 2E000000 		.4byte	.LBE64-.LBB64
 1896 0806 01       		.byte	0x1
 1897 0807 3101     		.2byte	0x131
 1898 0809 23       		.uleb128 0x23
 1899 080a 56070000 		.4byte	0x756
 1900 080e D0000000 		.4byte	.LLST42
 1901 0812 23       		.uleb128 0x23
 1902 0813 4A070000 		.4byte	0x74a
 1903 0817 F1000000 		.4byte	.LLST43
 1904 081b 23       		.uleb128 0x23
 1905 081c 3E070000 		.4byte	0x73e
 1906 0820 0F010000 		.4byte	.LLST44
 1907 0824 24       		.uleb128 0x24
 1908 0825 0C000000 		.4byte	.LBB65
 1909 0829 2E000000 		.4byte	.LBE65-.LBB65
 1910 082d 25       		.uleb128 0x25
 1911 082e 62070000 		.4byte	0x762
 1912 0832 2D010000 		.4byte	.LLST45
 1913 0836 21       		.uleb128 0x21
 1914 0837 18000000 		.4byte	.LBB66
 1915 083b 22000000 		.4byte	.LBE66-.LBB66
 1916 083f 8B080000 		.4byte	0x88b
 1917 0843 23       		.uleb128 0x23
 1918 0844 56070000 		.4byte	0x756
 1919 0848 4B010000 		.4byte	.LLST46
 1920 084c 23       		.uleb128 0x23
 1921 084d 4A070000 		.4byte	0x74a
 1922 0851 61010000 		.4byte	.LLST47
 1923 0855 23       		.uleb128 0x23
 1924 0856 3E070000 		.4byte	0x73e
 1925 085a 74010000 		.4byte	.LLST48
 1926 085e 24       		.uleb128 0x24
 1927 085f 18000000 		.4byte	.LBB67
 1928 0863 22000000 		.4byte	.LBE67-.LBB67
 1929 0867 26       		.uleb128 0x26
 1930 0868 62070000 		.4byte	0x762
 1931 086c 27       		.uleb128 0x27
 1932 086d 36000000 		.4byte	.LVL64
 1933 0871 EE0E0000 		.4byte	0xeee
 1934 0875 80080000 		.4byte	0x880
 1935 0879 1A       		.uleb128 0x1a
 1936 087a 01       		.uleb128 0x1
 1937 087b 50       		.byte	0x50
 1938 087c 02       		.uleb128 0x2
ARM GAS  /tmp/ccPxlM4D.s 			page 35


 1939 087d 74       		.byte	0x74
 1940 087e 1C       		.sleb128 28
 1941 087f 00       		.byte	0
 1942 0880 28       		.uleb128 0x28
 1943 0881 3A000000 		.4byte	.LVL65
 1944 0885 F90E0000 		.4byte	0xef9
 1945 0889 00       		.byte	0
 1946 088a 00       		.byte	0
 1947 088b 19       		.uleb128 0x19
 1948 088c 14000000 		.4byte	.LVL61
 1949 0890 040F0000 		.4byte	0xf04
 1950 0894 1A       		.uleb128 0x1a
 1951 0895 01       		.uleb128 0x1
 1952 0896 50       		.byte	0x50
 1953 0897 02       		.uleb128 0x2
 1954 0898 74       		.byte	0x74
 1955 0899 10       		.sleb128 16
 1956 089a 1A       		.uleb128 0x1a
 1957 089b 01       		.uleb128 0x1
 1958 089c 51       		.byte	0x51
 1959 089d 03       		.uleb128 0x3
 1960 089e F3       		.byte	0xf3
 1961 089f 01       		.uleb128 0x1
 1962 08a0 52       		.byte	0x52
 1963 08a1 00       		.byte	0
 1964 08a2 00       		.byte	0
 1965 08a3 00       		.byte	0
 1966 08a4 00       		.byte	0
 1967 08a5 16       		.uleb128 0x16
 1968 08a6 83000000 		.4byte	.LASF119
 1969 08aa 01       		.byte	0x1
 1970 08ab 0B01     		.2byte	0x10b
 1971 08ad 1E010000 		.4byte	0x11e
 1972 08b1 00000000 		.4byte	.LFB14
 1973 08b5 30000000 		.4byte	.LFE14-.LFB14
 1974 08b9 01       		.uleb128 0x1
 1975 08ba 9C       		.byte	0x9c
 1976 08bb F3080000 		.4byte	0x8f3
 1977 08bf 17       		.uleb128 0x17
 1978 08c0 6D627000 		.ascii	"mbp\000"
 1979 08c4 01       		.byte	0x1
 1980 08c5 0B01     		.2byte	0x10b
 1981 08c7 27070000 		.4byte	0x727
 1982 08cb 87010000 		.4byte	.LLST37
 1983 08cf 17       		.uleb128 0x17
 1984 08d0 6D736700 		.ascii	"msg\000"
 1985 08d4 01       		.byte	0x1
 1986 08d5 0B01     		.2byte	0x10b
 1987 08d7 1E010000 		.4byte	0x11e
 1988 08db CE010000 		.4byte	.LLST38
 1989 08df 19       		.uleb128 0x19
 1990 08e0 26000000 		.4byte	.LVL54
 1991 08e4 EE0E0000 		.4byte	0xeee
 1992 08e8 1A       		.uleb128 0x1a
 1993 08e9 01       		.uleb128 0x1
 1994 08ea 50       		.byte	0x50
 1995 08eb 05       		.uleb128 0x5
ARM GAS  /tmp/ccPxlM4D.s 			page 36


 1996 08ec F3       		.byte	0xf3
 1997 08ed 01       		.uleb128 0x1
 1998 08ee 50       		.byte	0x50
 1999 08ef 23       		.byte	0x23
 2000 08f0 10       		.uleb128 0x10
 2001 08f1 00       		.byte	0
 2002 08f2 00       		.byte	0
 2003 08f3 29       		.uleb128 0x29
 2004 08f4 C9000000 		.4byte	.LASF121
 2005 08f8 01       		.byte	0x1
 2006 08f9 EC       		.byte	0xec
 2007 08fa 1E010000 		.4byte	0x11e
 2008 08fe 01       		.byte	0x1
 2009 08ff 30090000 		.4byte	0x930
 2010 0903 2A       		.uleb128 0x2a
 2011 0904 6D627000 		.ascii	"mbp\000"
 2012 0908 01       		.byte	0x1
 2013 0909 EC       		.byte	0xec
 2014 090a 27070000 		.4byte	0x727
 2015 090e 2A       		.uleb128 0x2a
 2016 090f 6D736700 		.ascii	"msg\000"
 2017 0913 01       		.byte	0x1
 2018 0914 EC       		.byte	0xec
 2019 0915 1E010000 		.4byte	0x11e
 2020 0919 2B       		.uleb128 0x2b
 2021 091a 9F030000 		.4byte	.LASF116
 2022 091e 01       		.byte	0x1
 2023 091f EC       		.byte	0xec
 2024 0920 34010000 		.4byte	0x134
 2025 0924 2C       		.uleb128 0x2c
 2026 0925 56050000 		.4byte	.LASF89
 2027 0929 01       		.byte	0x1
 2028 092a ED       		.byte	0xed
 2029 092b 1E010000 		.4byte	0x11e
 2030 092f 00       		.byte	0
 2031 0930 2D       		.uleb128 0x2d
 2032 0931 05050000 		.4byte	.LASF122
 2033 0935 01       		.byte	0x1
 2034 0936 D0       		.byte	0xd0
 2035 0937 1E010000 		.4byte	0x11e
 2036 093b 00000000 		.4byte	.LFB12
 2037 093f 4C000000 		.4byte	.LFE12-.LFB12
 2038 0943 01       		.uleb128 0x1
 2039 0944 9C       		.byte	0x9c
 2040 0945 530A0000 		.4byte	0xa53
 2041 0949 2E       		.uleb128 0x2e
 2042 094a 6D627000 		.ascii	"mbp\000"
 2043 094e 01       		.byte	0x1
 2044 094f D0       		.byte	0xd0
 2045 0950 27070000 		.4byte	0x727
 2046 0954 FA010000 		.4byte	.LLST23
 2047 0958 2E       		.uleb128 0x2e
 2048 0959 6D736700 		.ascii	"msg\000"
 2049 095d 01       		.byte	0x1
 2050 095e D0       		.byte	0xd0
 2051 095f 1E010000 		.4byte	0x11e
 2052 0963 18020000 		.4byte	.LLST24
ARM GAS  /tmp/ccPxlM4D.s 			page 37


 2053 0967 2F       		.uleb128 0x2f
 2054 0968 9F030000 		.4byte	.LASF116
 2055 096c 01       		.byte	0x1
 2056 096d D0       		.byte	0xd0
 2057 096e 34010000 		.4byte	0x134
 2058 0972 36020000 		.4byte	.LLST25
 2059 0976 2C       		.uleb128 0x2c
 2060 0977 56050000 		.4byte	.LASF89
 2061 097b 01       		.byte	0x1
 2062 097c D1       		.byte	0xd1
 2063 097d 1E010000 		.4byte	0x11e
 2064 0981 1F       		.uleb128 0x1f
 2065 0982 30000000 		.4byte	.Ldebug_ranges0+0x30
 2066 0986 98090000 		.4byte	0x998
 2067 098a 30       		.uleb128 0x30
 2068 098b 746D7000 		.ascii	"tmp\000"
 2069 098f 01       		.byte	0x1
 2070 0990 D3       		.byte	0xd3
 2071 0991 CA000000 		.4byte	0xca
 2072 0995 01       		.uleb128 0x1
 2073 0996 53       		.byte	0x53
 2074 0997 00       		.byte	0
 2075 0998 1F       		.uleb128 0x1f
 2076 0999 60000000 		.4byte	.Ldebug_ranges0+0x60
 2077 099d AF090000 		.4byte	0x9af
 2078 09a1 30       		.uleb128 0x30
 2079 09a2 746D7000 		.ascii	"tmp\000"
 2080 09a6 01       		.byte	0x1
 2081 09a7 D5       		.byte	0xd5
 2082 09a8 CA000000 		.4byte	0xca
 2083 09ac 01       		.uleb128 0x1
 2084 09ad 53       		.byte	0x53
 2085 09ae 00       		.byte	0
 2086 09af 31       		.uleb128 0x31
 2087 09b0 F3080000 		.4byte	0x8f3
 2088 09b4 0C000000 		.4byte	.LBB42
 2089 09b8 48000000 		.4byte	.Ldebug_ranges0+0x48
 2090 09bc 01       		.byte	0x1
 2091 09bd D4       		.byte	0xd4
 2092 09be 23       		.uleb128 0x23
 2093 09bf 19090000 		.4byte	0x919
 2094 09c3 57020000 		.4byte	.LLST26
 2095 09c7 23       		.uleb128 0x23
 2096 09c8 0E090000 		.4byte	0x90e
 2097 09cc 86020000 		.4byte	.LLST27
 2098 09d0 23       		.uleb128 0x23
 2099 09d1 03090000 		.4byte	0x903
 2100 09d5 AF020000 		.4byte	.LLST28
 2101 09d9 32       		.uleb128 0x32
 2102 09da 48000000 		.4byte	.Ldebug_ranges0+0x48
 2103 09de 25       		.uleb128 0x25
 2104 09df 24090000 		.4byte	0x924
 2105 09e3 D8020000 		.4byte	.LLST29
 2106 09e7 21       		.uleb128 0x21
 2107 09e8 22000000 		.4byte	.LBB44
 2108 09ec 20000000 		.4byte	.LBE44-.LBB44
 2109 09f0 390A0000 		.4byte	0xa39
ARM GAS  /tmp/ccPxlM4D.s 			page 38


 2110 09f4 33       		.uleb128 0x33
 2111 09f5 19090000 		.4byte	0x919
 2112 09f9 04       		.uleb128 0x4
 2113 09fa F3       		.byte	0xf3
 2114 09fb 01       		.uleb128 0x1
 2115 09fc 52       		.byte	0x52
 2116 09fd 9F       		.byte	0x9f
 2117 09fe 33       		.uleb128 0x33
 2118 09ff 0E090000 		.4byte	0x90e
 2119 0a03 01       		.uleb128 0x1
 2120 0a04 56       		.byte	0x56
 2121 0a05 33       		.uleb128 0x33
 2122 0a06 03090000 		.4byte	0x903
 2123 0a0a 01       		.uleb128 0x1
 2124 0a0b 54       		.byte	0x54
 2125 0a0c 24       		.uleb128 0x24
 2126 0a0d 22000000 		.4byte	.LBB45
 2127 0a11 20000000 		.4byte	.LBE45-.LBB45
 2128 0a15 26       		.uleb128 0x26
 2129 0a16 24090000 		.4byte	0x924
 2130 0a1a 27       		.uleb128 0x27
 2131 0a1b 3E000000 		.4byte	.LVL41
 2132 0a1f EE0E0000 		.4byte	0xeee
 2133 0a23 2E0A0000 		.4byte	0xa2e
 2134 0a27 1A       		.uleb128 0x1a
 2135 0a28 01       		.uleb128 0x1
 2136 0a29 50       		.byte	0x50
 2137 0a2a 02       		.uleb128 0x2
 2138 0a2b 74       		.byte	0x74
 2139 0a2c 10       		.sleb128 16
 2140 0a2d 00       		.byte	0
 2141 0a2e 28       		.uleb128 0x28
 2142 0a2f 42000000 		.4byte	.LVL42
 2143 0a33 F90E0000 		.4byte	0xef9
 2144 0a37 00       		.byte	0
 2145 0a38 00       		.byte	0
 2146 0a39 19       		.uleb128 0x19
 2147 0a3a 14000000 		.4byte	.LVL37
 2148 0a3e 040F0000 		.4byte	0xf04
 2149 0a42 1A       		.uleb128 0x1a
 2150 0a43 01       		.uleb128 0x1
 2151 0a44 50       		.byte	0x50
 2152 0a45 02       		.uleb128 0x2
 2153 0a46 74       		.byte	0x74
 2154 0a47 1C       		.sleb128 28
 2155 0a48 1A       		.uleb128 0x1a
 2156 0a49 01       		.uleb128 0x1
 2157 0a4a 51       		.byte	0x51
 2158 0a4b 03       		.uleb128 0x3
 2159 0a4c F3       		.byte	0xf3
 2160 0a4d 01       		.uleb128 0x1
 2161 0a4e 52       		.byte	0x52
 2162 0a4f 00       		.byte	0
 2163 0a50 00       		.byte	0
 2164 0a51 00       		.byte	0
 2165 0a52 00       		.byte	0
 2166 0a53 2D       		.uleb128 0x2d
ARM GAS  /tmp/ccPxlM4D.s 			page 39


 2167 0a54 60000000 		.4byte	.LASF123
 2168 0a58 01       		.byte	0x1
 2169 0a59 AE       		.byte	0xae
 2170 0a5a 1E010000 		.4byte	0x11e
 2171 0a5e 00000000 		.4byte	.LFB11
 2172 0a62 34000000 		.4byte	.LFE11-.LFB11
 2173 0a66 01       		.uleb128 0x1
 2174 0a67 9C       		.byte	0x9c
 2175 0a68 9E0A0000 		.4byte	0xa9e
 2176 0a6c 2E       		.uleb128 0x2e
 2177 0a6d 6D627000 		.ascii	"mbp\000"
 2178 0a71 01       		.byte	0x1
 2179 0a72 AE       		.byte	0xae
 2180 0a73 27070000 		.4byte	0x727
 2181 0a77 01030000 		.4byte	.LLST21
 2182 0a7b 2E       		.uleb128 0x2e
 2183 0a7c 6D736700 		.ascii	"msg\000"
 2184 0a80 01       		.byte	0x1
 2185 0a81 AE       		.byte	0xae
 2186 0a82 1E010000 		.4byte	0x11e
 2187 0a86 48030000 		.4byte	.LLST22
 2188 0a8a 19       		.uleb128 0x19
 2189 0a8b 2A000000 		.4byte	.LVL30
 2190 0a8f EE0E0000 		.4byte	0xeee
 2191 0a93 1A       		.uleb128 0x1a
 2192 0a94 01       		.uleb128 0x1
 2193 0a95 50       		.byte	0x50
 2194 0a96 05       		.uleb128 0x5
 2195 0a97 F3       		.byte	0xf3
 2196 0a98 01       		.uleb128 0x1
 2197 0a99 50       		.byte	0x50
 2198 0a9a 23       		.byte	0x23
 2199 0a9b 10       		.uleb128 0x10
 2200 0a9c 00       		.byte	0
 2201 0a9d 00       		.byte	0
 2202 0a9e 29       		.uleb128 0x29
 2203 0a9f 71000000 		.4byte	.LASF124
 2204 0aa3 01       		.byte	0x1
 2205 0aa4 8F       		.byte	0x8f
 2206 0aa5 1E010000 		.4byte	0x11e
 2207 0aa9 01       		.byte	0x1
 2208 0aaa DB0A0000 		.4byte	0xadb
 2209 0aae 2A       		.uleb128 0x2a
 2210 0aaf 6D627000 		.ascii	"mbp\000"
 2211 0ab3 01       		.byte	0x1
 2212 0ab4 8F       		.byte	0x8f
 2213 0ab5 27070000 		.4byte	0x727
 2214 0ab9 2A       		.uleb128 0x2a
 2215 0aba 6D736700 		.ascii	"msg\000"
 2216 0abe 01       		.byte	0x1
 2217 0abf 8F       		.byte	0x8f
 2218 0ac0 1E010000 		.4byte	0x11e
 2219 0ac4 2B       		.uleb128 0x2b
 2220 0ac5 9F030000 		.4byte	.LASF116
 2221 0ac9 01       		.byte	0x1
 2222 0aca 8F       		.byte	0x8f
 2223 0acb 34010000 		.4byte	0x134
ARM GAS  /tmp/ccPxlM4D.s 			page 40


 2224 0acf 2C       		.uleb128 0x2c
 2225 0ad0 56050000 		.4byte	.LASF89
 2226 0ad4 01       		.byte	0x1
 2227 0ad5 90       		.byte	0x90
 2228 0ad6 1E010000 		.4byte	0x11e
 2229 0ada 00       		.byte	0
 2230 0adb 2D       		.uleb128 0x2d
 2231 0adc 64040000 		.4byte	.LASF125
 2232 0ae0 01       		.byte	0x1
 2233 0ae1 73       		.byte	0x73
 2234 0ae2 1E010000 		.4byte	0x11e
 2235 0ae6 00000000 		.4byte	.LFB9
 2236 0aea 42000000 		.4byte	.LFE9-.LFB9
 2237 0aee 01       		.uleb128 0x1
 2238 0aef 9C       		.byte	0x9c
 2239 0af0 090C0000 		.4byte	0xc09
 2240 0af4 2E       		.uleb128 0x2e
 2241 0af5 6D627000 		.ascii	"mbp\000"
 2242 0af9 01       		.byte	0x1
 2243 0afa 73       		.byte	0x73
 2244 0afb 27070000 		.4byte	0x727
 2245 0aff 74030000 		.4byte	.LLST4
 2246 0b03 2E       		.uleb128 0x2e
 2247 0b04 6D736700 		.ascii	"msg\000"
 2248 0b08 01       		.byte	0x1
 2249 0b09 73       		.byte	0x73
 2250 0b0a 1E010000 		.4byte	0x11e
 2251 0b0e 92030000 		.4byte	.LLST5
 2252 0b12 2F       		.uleb128 0x2f
 2253 0b13 9F030000 		.4byte	.LASF116
 2254 0b17 01       		.byte	0x1
 2255 0b18 73       		.byte	0x73
 2256 0b19 34010000 		.4byte	0x134
 2257 0b1d B0030000 		.4byte	.LLST6
 2258 0b21 2C       		.uleb128 0x2c
 2259 0b22 56050000 		.4byte	.LASF89
 2260 0b26 01       		.byte	0x1
 2261 0b27 74       		.byte	0x74
 2262 0b28 1E010000 		.4byte	0x11e
 2263 0b2c 1F       		.uleb128 0x1f
 2264 0b2d 18000000 		.4byte	.Ldebug_ranges0+0x18
 2265 0b31 430B0000 		.4byte	0xb43
 2266 0b35 30       		.uleb128 0x30
 2267 0b36 746D7000 		.ascii	"tmp\000"
 2268 0b3a 01       		.byte	0x1
 2269 0b3b 76       		.byte	0x76
 2270 0b3c CA000000 		.4byte	0xca
 2271 0b40 01       		.uleb128 0x1
 2272 0b41 53       		.byte	0x53
 2273 0b42 00       		.byte	0
 2274 0b43 21       		.uleb128 0x21
 2275 0b44 38000000 		.4byte	.LBB29
 2276 0b48 06000000 		.4byte	.LBE29-.LBB29
 2277 0b4c 5E0B0000 		.4byte	0xb5e
 2278 0b50 30       		.uleb128 0x30
 2279 0b51 746D7000 		.ascii	"tmp\000"
 2280 0b55 01       		.byte	0x1
ARM GAS  /tmp/ccPxlM4D.s 			page 41


 2281 0b56 78       		.byte	0x78
 2282 0b57 CA000000 		.4byte	0xca
 2283 0b5b 01       		.uleb128 0x1
 2284 0b5c 53       		.byte	0x53
 2285 0b5d 00       		.byte	0
 2286 0b5e 34       		.uleb128 0x34
 2287 0b5f 9E0A0000 		.4byte	0xa9e
 2288 0b63 0C000000 		.4byte	.LBB25
 2289 0b67 2C000000 		.4byte	.LBE25-.LBB25
 2290 0b6b 01       		.byte	0x1
 2291 0b6c 77       		.byte	0x77
 2292 0b6d 23       		.uleb128 0x23
 2293 0b6e C40A0000 		.4byte	0xac4
 2294 0b72 D1030000 		.4byte	.LLST7
 2295 0b76 23       		.uleb128 0x23
 2296 0b77 B90A0000 		.4byte	0xab9
 2297 0b7b F2030000 		.4byte	.LLST8
 2298 0b7f 23       		.uleb128 0x23
 2299 0b80 AE0A0000 		.4byte	0xaae
 2300 0b84 10040000 		.4byte	.LLST9
 2301 0b88 24       		.uleb128 0x24
 2302 0b89 0C000000 		.4byte	.LBB26
 2303 0b8d 2C000000 		.4byte	.LBE26-.LBB26
 2304 0b91 25       		.uleb128 0x25
 2305 0b92 CF0A0000 		.4byte	0xacf
 2306 0b96 2E040000 		.4byte	.LLST10
 2307 0b9a 21       		.uleb128 0x21
 2308 0b9b 18000000 		.4byte	.LBB27
 2309 0b9f 20000000 		.4byte	.LBE27-.LBB27
 2310 0ba3 EF0B0000 		.4byte	0xbef
 2311 0ba7 23       		.uleb128 0x23
 2312 0ba8 C40A0000 		.4byte	0xac4
 2313 0bac 4C040000 		.4byte	.LLST11
 2314 0bb0 23       		.uleb128 0x23
 2315 0bb1 B90A0000 		.4byte	0xab9
 2316 0bb5 62040000 		.4byte	.LLST12
 2317 0bb9 23       		.uleb128 0x23
 2318 0bba AE0A0000 		.4byte	0xaae
 2319 0bbe 75040000 		.4byte	.LLST13
 2320 0bc2 24       		.uleb128 0x24
 2321 0bc3 18000000 		.4byte	.LBB28
 2322 0bc7 20000000 		.4byte	.LBE28-.LBB28
 2323 0bcb 26       		.uleb128 0x26
 2324 0bcc CF0A0000 		.4byte	0xacf
 2325 0bd0 27       		.uleb128 0x27
 2326 0bd1 34000000 		.4byte	.LVL18
 2327 0bd5 EE0E0000 		.4byte	0xeee
 2328 0bd9 E40B0000 		.4byte	0xbe4
 2329 0bdd 1A       		.uleb128 0x1a
 2330 0bde 01       		.uleb128 0x1
 2331 0bdf 50       		.byte	0x50
 2332 0be0 02       		.uleb128 0x2
 2333 0be1 74       		.byte	0x74
 2334 0be2 10       		.sleb128 16
 2335 0be3 00       		.byte	0
 2336 0be4 28       		.uleb128 0x28
 2337 0be5 38000000 		.4byte	.LVL19
ARM GAS  /tmp/ccPxlM4D.s 			page 42


 2338 0be9 F90E0000 		.4byte	0xef9
 2339 0bed 00       		.byte	0
 2340 0bee 00       		.byte	0
 2341 0bef 19       		.uleb128 0x19
 2342 0bf0 14000000 		.4byte	.LVL15
 2343 0bf4 040F0000 		.4byte	0xf04
 2344 0bf8 1A       		.uleb128 0x1a
 2345 0bf9 01       		.uleb128 0x1
 2346 0bfa 50       		.byte	0x50
 2347 0bfb 02       		.uleb128 0x2
 2348 0bfc 74       		.byte	0x74
 2349 0bfd 1C       		.sleb128 28
 2350 0bfe 1A       		.uleb128 0x1a
 2351 0bff 01       		.uleb128 0x1
 2352 0c00 51       		.byte	0x51
 2353 0c01 03       		.uleb128 0x3
 2354 0c02 F3       		.byte	0xf3
 2355 0c03 01       		.uleb128 0x1
 2356 0c04 52       		.byte	0x52
 2357 0c05 00       		.byte	0
 2358 0c06 00       		.byte	0
 2359 0c07 00       		.byte	0
 2360 0c08 00       		.byte	0
 2361 0c09 35       		.uleb128 0x35
 2362 0c0a 5C030000 		.4byte	.LASF126
 2363 0c0e 01       		.byte	0x1
 2364 0c0f 54       		.byte	0x54
 2365 0c10 00000000 		.4byte	.LFB8
 2366 0c14 32000000 		.4byte	.LFE8-.LFB8
 2367 0c18 01       		.uleb128 0x1
 2368 0c19 9C       		.byte	0x9c
 2369 0c1a 960C0000 		.4byte	0xc96
 2370 0c1e 2E       		.uleb128 0x2e
 2371 0c1f 6D627000 		.ascii	"mbp\000"
 2372 0c23 01       		.byte	0x1
 2373 0c24 54       		.byte	0x54
 2374 0c25 27070000 		.4byte	0x727
 2375 0c29 88040000 		.4byte	.LLST3
 2376 0c2d 1F       		.uleb128 0x1f
 2377 0c2e 00000000 		.4byte	.Ldebug_ranges0+0
 2378 0c32 440C0000 		.4byte	0xc44
 2379 0c36 30       		.uleb128 0x30
 2380 0c37 746D7000 		.ascii	"tmp\000"
 2381 0c3b 01       		.byte	0x1
 2382 0c3c 58       		.byte	0x58
 2383 0c3d CA000000 		.4byte	0xca
 2384 0c41 01       		.uleb128 0x1
 2385 0c42 53       		.byte	0x53
 2386 0c43 00       		.byte	0
 2387 0c44 21       		.uleb128 0x21
 2388 0c45 2A000000 		.4byte	.LBB16
 2389 0c49 08000000 		.4byte	.LBE16-.LBB16
 2390 0c4d 5F0C0000 		.4byte	0xc5f
 2391 0c51 30       		.uleb128 0x30
 2392 0c52 746D7000 		.ascii	"tmp\000"
 2393 0c56 01       		.byte	0x1
 2394 0c57 5D       		.byte	0x5d
ARM GAS  /tmp/ccPxlM4D.s 			page 43


 2395 0c58 CA000000 		.4byte	0xca
 2396 0c5c 01       		.uleb128 0x1
 2397 0c5d 53       		.byte	0x53
 2398 0c5e 00       		.byte	0
 2399 0c5f 27       		.uleb128 0x27
 2400 0c60 1C000000 		.4byte	.LVL8
 2401 0c64 0F0F0000 		.4byte	0xf0f
 2402 0c68 730C0000 		.4byte	0xc73
 2403 0c6c 1A       		.uleb128 0x1a
 2404 0c6d 01       		.uleb128 0x1
 2405 0c6e 50       		.byte	0x50
 2406 0c6f 02       		.uleb128 0x2
 2407 0c70 74       		.byte	0x74
 2408 0c71 1C       		.sleb128 28
 2409 0c72 00       		.byte	0
 2410 0c73 27       		.uleb128 0x27
 2411 0c74 26000000 		.4byte	.LVL9
 2412 0c78 0F0F0000 		.4byte	0xf0f
 2413 0c7c 8C0C0000 		.4byte	0xc8c
 2414 0c80 1A       		.uleb128 0x1a
 2415 0c81 01       		.uleb128 0x1
 2416 0c82 50       		.byte	0x50
 2417 0c83 02       		.uleb128 0x2
 2418 0c84 74       		.byte	0x74
 2419 0c85 10       		.sleb128 16
 2420 0c86 1A       		.uleb128 0x1a
 2421 0c87 01       		.uleb128 0x1
 2422 0c88 51       		.byte	0x51
 2423 0c89 01       		.uleb128 0x1
 2424 0c8a 30       		.byte	0x30
 2425 0c8b 00       		.byte	0
 2426 0c8c 28       		.uleb128 0x28
 2427 0c8d 2A000000 		.4byte	.LVL10
 2428 0c91 F90E0000 		.4byte	0xef9
 2429 0c95 00       		.byte	0
 2430 0c96 35       		.uleb128 0x35
 2431 0c97 C0000000 		.4byte	.LASF127
 2432 0c9b 01       		.byte	0x1
 2433 0c9c 41       		.byte	0x41
 2434 0c9d 00000000 		.4byte	.LFB7
 2435 0ca1 28000000 		.4byte	.LFE7-.LFB7
 2436 0ca5 01       		.uleb128 0x1
 2437 0ca6 9C       		.byte	0x9c
 2438 0ca7 0A0D0000 		.4byte	0xd0a
 2439 0cab 2E       		.uleb128 0x2e
 2440 0cac 6D627000 		.ascii	"mbp\000"
 2441 0cb0 01       		.byte	0x1
 2442 0cb1 41       		.byte	0x41
 2443 0cb2 27070000 		.4byte	0x727
 2444 0cb6 A6040000 		.4byte	.LLST0
 2445 0cba 2E       		.uleb128 0x2e
 2446 0cbb 62756600 		.ascii	"buf\000"
 2447 0cbf 01       		.byte	0x1
 2448 0cc0 41       		.byte	0x41
 2449 0cc1 54050000 		.4byte	0x554
 2450 0cc5 DF040000 		.4byte	.LLST1
 2451 0cc9 2E       		.uleb128 0x2e
ARM GAS  /tmp/ccPxlM4D.s 			page 44


 2452 0cca 6E00     		.ascii	"n\000"
 2453 0ccc 01       		.byte	0x1
 2454 0ccd 41       		.byte	0x41
 2455 0cce 44010000 		.4byte	0x144
 2456 0cd2 0B050000 		.4byte	.LLST2
 2457 0cd6 27       		.uleb128 0x27
 2458 0cd7 1A000000 		.4byte	.LVL3
 2459 0cdb 1A0F0000 		.4byte	0xf1a
 2460 0cdf F10C0000 		.4byte	0xcf1
 2461 0ce3 1A       		.uleb128 0x1a
 2462 0ce4 01       		.uleb128 0x1
 2463 0ce5 50       		.byte	0x50
 2464 0ce6 02       		.uleb128 0x2
 2465 0ce7 74       		.byte	0x74
 2466 0ce8 1C       		.sleb128 28
 2467 0ce9 1A       		.uleb128 0x1a
 2468 0cea 01       		.uleb128 0x1
 2469 0ceb 51       		.byte	0x51
 2470 0cec 03       		.uleb128 0x3
 2471 0ced F3       		.byte	0xf3
 2472 0cee 01       		.uleb128 0x1
 2473 0cef 52       		.byte	0x52
 2474 0cf0 00       		.byte	0
 2475 0cf1 36       		.uleb128 0x36
 2476 0cf2 28000000 		.4byte	.LVL5
 2477 0cf6 1A0F0000 		.4byte	0xf1a
 2478 0cfa 1A       		.uleb128 0x1a
 2479 0cfb 01       		.uleb128 0x1
 2480 0cfc 50       		.byte	0x50
 2481 0cfd 05       		.uleb128 0x5
 2482 0cfe F3       		.byte	0xf3
 2483 0cff 01       		.uleb128 0x1
 2484 0d00 50       		.byte	0x50
 2485 0d01 23       		.byte	0x23
 2486 0d02 10       		.uleb128 0x10
 2487 0d03 1A       		.uleb128 0x1a
 2488 0d04 01       		.uleb128 0x1
 2489 0d05 51       		.byte	0x51
 2490 0d06 01       		.uleb128 0x1
 2491 0d07 30       		.byte	0x30
 2492 0d08 00       		.byte	0
 2493 0d09 00       		.byte	0
 2494 0d0a 37       		.uleb128 0x37
 2495 0d0b 9E0A0000 		.4byte	0xa9e
 2496 0d0f 00000000 		.4byte	.LFB10
 2497 0d13 36000000 		.4byte	.LFE10-.LFB10
 2498 0d17 01       		.uleb128 0x1
 2499 0d18 9C       		.byte	0x9c
 2500 0d19 AE0D0000 		.4byte	0xdae
 2501 0d1d 23       		.uleb128 0x23
 2502 0d1e AE0A0000 		.4byte	0xaae
 2503 0d22 2C050000 		.4byte	.LLST14
 2504 0d26 23       		.uleb128 0x23
 2505 0d27 B90A0000 		.4byte	0xab9
 2506 0d2b 4A050000 		.4byte	.LLST15
 2507 0d2f 23       		.uleb128 0x23
 2508 0d30 C40A0000 		.4byte	0xac4
ARM GAS  /tmp/ccPxlM4D.s 			page 45


 2509 0d34 68050000 		.4byte	.LLST16
 2510 0d38 25       		.uleb128 0x25
 2511 0d39 CF0A0000 		.4byte	0xacf
 2512 0d3d 89050000 		.4byte	.LLST17
 2513 0d41 21       		.uleb128 0x21
 2514 0d42 12000000 		.4byte	.LBB32
 2515 0d46 20000000 		.4byte	.LBE32-.LBB32
 2516 0d4a 960D0000 		.4byte	0xd96
 2517 0d4e 23       		.uleb128 0x23
 2518 0d4f C40A0000 		.4byte	0xac4
 2519 0d53 A7050000 		.4byte	.LLST18
 2520 0d57 23       		.uleb128 0x23
 2521 0d58 B90A0000 		.4byte	0xab9
 2522 0d5c BD050000 		.4byte	.LLST19
 2523 0d60 23       		.uleb128 0x23
 2524 0d61 AE0A0000 		.4byte	0xaae
 2525 0d65 D0050000 		.4byte	.LLST20
 2526 0d69 24       		.uleb128 0x24
 2527 0d6a 12000000 		.4byte	.LBB33
 2528 0d6e 20000000 		.4byte	.LBE33-.LBB33
 2529 0d72 26       		.uleb128 0x26
 2530 0d73 380D0000 		.4byte	0xd38
 2531 0d77 27       		.uleb128 0x27
 2532 0d78 2E000000 		.4byte	.LVL26
 2533 0d7c EE0E0000 		.4byte	0xeee
 2534 0d80 8B0D0000 		.4byte	0xd8b
 2535 0d84 1A       		.uleb128 0x1a
 2536 0d85 01       		.uleb128 0x1
 2537 0d86 50       		.byte	0x50
 2538 0d87 02       		.uleb128 0x2
 2539 0d88 74       		.byte	0x74
 2540 0d89 10       		.sleb128 16
 2541 0d8a 00       		.byte	0
 2542 0d8b 28       		.uleb128 0x28
 2543 0d8c 32000000 		.4byte	.LVL27
 2544 0d90 F90E0000 		.4byte	0xef9
 2545 0d94 00       		.byte	0
 2546 0d95 00       		.byte	0
 2547 0d96 19       		.uleb128 0x19
 2548 0d97 0E000000 		.4byte	.LVL23
 2549 0d9b 040F0000 		.4byte	0xf04
 2550 0d9f 1A       		.uleb128 0x1a
 2551 0da0 01       		.uleb128 0x1
 2552 0da1 50       		.byte	0x50
 2553 0da2 02       		.uleb128 0x2
 2554 0da3 74       		.byte	0x74
 2555 0da4 1C       		.sleb128 28
 2556 0da5 1A       		.uleb128 0x1a
 2557 0da6 01       		.uleb128 0x1
 2558 0da7 51       		.byte	0x51
 2559 0da8 03       		.uleb128 0x3
 2560 0da9 F3       		.byte	0xf3
 2561 0daa 01       		.uleb128 0x1
 2562 0dab 52       		.byte	0x52
 2563 0dac 00       		.byte	0
 2564 0dad 00       		.byte	0
 2565 0dae 37       		.uleb128 0x37
ARM GAS  /tmp/ccPxlM4D.s 			page 46


 2566 0daf F3080000 		.4byte	0x8f3
 2567 0db3 00000000 		.4byte	.LFB13
 2568 0db7 38000000 		.4byte	.LFE13-.LFB13
 2569 0dbb 01       		.uleb128 0x1
 2570 0dbc 9C       		.byte	0x9c
 2571 0dbd 4A0E0000 		.4byte	0xe4a
 2572 0dc1 23       		.uleb128 0x23
 2573 0dc2 03090000 		.4byte	0x903
 2574 0dc6 E3050000 		.4byte	.LLST30
 2575 0dca 23       		.uleb128 0x23
 2576 0dcb 0E090000 		.4byte	0x90e
 2577 0dcf 01060000 		.4byte	.LLST31
 2578 0dd3 23       		.uleb128 0x23
 2579 0dd4 19090000 		.4byte	0x919
 2580 0dd8 1F060000 		.4byte	.LLST32
 2581 0ddc 25       		.uleb128 0x25
 2582 0ddd 24090000 		.4byte	0x924
 2583 0de1 40060000 		.4byte	.LLST33
 2584 0de5 1F       		.uleb128 0x1f
 2585 0de6 78000000 		.4byte	.Ldebug_ranges0+0x78
 2586 0dea 320E0000 		.4byte	0xe32
 2587 0dee 23       		.uleb128 0x23
 2588 0def 19090000 		.4byte	0x919
 2589 0df3 69060000 		.4byte	.LLST34
 2590 0df7 23       		.uleb128 0x23
 2591 0df8 0E090000 		.4byte	0x90e
 2592 0dfc 8D060000 		.4byte	.LLST35
 2593 0e00 23       		.uleb128 0x23
 2594 0e01 03090000 		.4byte	0x903
 2595 0e05 AB060000 		.4byte	.LLST36
 2596 0e09 32       		.uleb128 0x32
 2597 0e0a 78000000 		.4byte	.Ldebug_ranges0+0x78
 2598 0e0e 26       		.uleb128 0x26
 2599 0e0f DC0D0000 		.4byte	0xddc
 2600 0e13 27       		.uleb128 0x27
 2601 0e14 28000000 		.4byte	.LVL49
 2602 0e18 EE0E0000 		.4byte	0xeee
 2603 0e1c 270E0000 		.4byte	0xe27
 2604 0e20 1A       		.uleb128 0x1a
 2605 0e21 01       		.uleb128 0x1
 2606 0e22 50       		.byte	0x50
 2607 0e23 02       		.uleb128 0x2
 2608 0e24 74       		.byte	0x74
 2609 0e25 10       		.sleb128 16
 2610 0e26 00       		.byte	0
 2611 0e27 28       		.uleb128 0x28
 2612 0e28 2C000000 		.4byte	.LVL50
 2613 0e2c F90E0000 		.4byte	0xef9
 2614 0e30 00       		.byte	0
 2615 0e31 00       		.byte	0
 2616 0e32 19       		.uleb128 0x19
 2617 0e33 0E000000 		.4byte	.LVL46
 2618 0e37 040F0000 		.4byte	0xf04
 2619 0e3b 1A       		.uleb128 0x1a
 2620 0e3c 01       		.uleb128 0x1
 2621 0e3d 50       		.byte	0x50
 2622 0e3e 02       		.uleb128 0x2
ARM GAS  /tmp/ccPxlM4D.s 			page 47


 2623 0e3f 74       		.byte	0x74
 2624 0e40 1C       		.sleb128 28
 2625 0e41 1A       		.uleb128 0x1a
 2626 0e42 01       		.uleb128 0x1
 2627 0e43 51       		.byte	0x51
 2628 0e44 03       		.uleb128 0x3
 2629 0e45 F3       		.byte	0xf3
 2630 0e46 01       		.uleb128 0x1
 2631 0e47 52       		.byte	0x52
 2632 0e48 00       		.byte	0
 2633 0e49 00       		.byte	0
 2634 0e4a 37       		.uleb128 0x37
 2635 0e4b 2D070000 		.4byte	0x72d
 2636 0e4f 00000000 		.4byte	.LFB16
 2637 0e53 38000000 		.4byte	.LFE16-.LFB16
 2638 0e57 01       		.uleb128 0x1
 2639 0e58 9C       		.byte	0x9c
 2640 0e59 EE0E0000 		.4byte	0xeee
 2641 0e5d 23       		.uleb128 0x23
 2642 0e5e 3E070000 		.4byte	0x73e
 2643 0e62 C9060000 		.4byte	.LLST49
 2644 0e66 23       		.uleb128 0x23
 2645 0e67 4A070000 		.4byte	0x74a
 2646 0e6b E7060000 		.4byte	.LLST50
 2647 0e6f 23       		.uleb128 0x23
 2648 0e70 56070000 		.4byte	0x756
 2649 0e74 05070000 		.4byte	.LLST51
 2650 0e78 25       		.uleb128 0x25
 2651 0e79 62070000 		.4byte	0x762
 2652 0e7d 26070000 		.4byte	.LLST52
 2653 0e81 21       		.uleb128 0x21
 2654 0e82 12000000 		.4byte	.LBB71
 2655 0e86 22000000 		.4byte	.LBE71-.LBB71
 2656 0e8a D60E0000 		.4byte	0xed6
 2657 0e8e 23       		.uleb128 0x23
 2658 0e8f 56070000 		.4byte	0x756
 2659 0e93 44070000 		.4byte	.LLST53
 2660 0e97 23       		.uleb128 0x23
 2661 0e98 4A070000 		.4byte	0x74a
 2662 0e9c 5A070000 		.4byte	.LLST54
 2663 0ea0 23       		.uleb128 0x23
 2664 0ea1 3E070000 		.4byte	0x73e
 2665 0ea5 6D070000 		.4byte	.LLST55
 2666 0ea9 24       		.uleb128 0x24
 2667 0eaa 12000000 		.4byte	.LBB72
 2668 0eae 22000000 		.4byte	.LBE72-.LBB72
 2669 0eb2 26       		.uleb128 0x26
 2670 0eb3 780E0000 		.4byte	0xe78
 2671 0eb7 27       		.uleb128 0x27
 2672 0eb8 30000000 		.4byte	.LVL72
 2673 0ebc EE0E0000 		.4byte	0xeee
 2674 0ec0 CB0E0000 		.4byte	0xecb
 2675 0ec4 1A       		.uleb128 0x1a
 2676 0ec5 01       		.uleb128 0x1
 2677 0ec6 50       		.byte	0x50
 2678 0ec7 02       		.uleb128 0x2
 2679 0ec8 74       		.byte	0x74
ARM GAS  /tmp/ccPxlM4D.s 			page 48


 2680 0ec9 1C       		.sleb128 28
 2681 0eca 00       		.byte	0
 2682 0ecb 28       		.uleb128 0x28
 2683 0ecc 34000000 		.4byte	.LVL73
 2684 0ed0 F90E0000 		.4byte	0xef9
 2685 0ed4 00       		.byte	0
 2686 0ed5 00       		.byte	0
 2687 0ed6 19       		.uleb128 0x19
 2688 0ed7 0E000000 		.4byte	.LVL69
 2689 0edb 040F0000 		.4byte	0xf04
 2690 0edf 1A       		.uleb128 0x1a
 2691 0ee0 01       		.uleb128 0x1
 2692 0ee1 50       		.byte	0x50
 2693 0ee2 02       		.uleb128 0x2
 2694 0ee3 74       		.byte	0x74
 2695 0ee4 10       		.sleb128 16
 2696 0ee5 1A       		.uleb128 0x1a
 2697 0ee6 01       		.uleb128 0x1
 2698 0ee7 51       		.byte	0x51
 2699 0ee8 03       		.uleb128 0x3
 2700 0ee9 F3       		.byte	0xf3
 2701 0eea 01       		.uleb128 0x1
 2702 0eeb 52       		.byte	0x52
 2703 0eec 00       		.byte	0
 2704 0eed 00       		.byte	0
 2705 0eee 38       		.uleb128 0x38
 2706 0eef 2F000000 		.4byte	.LASF128
 2707 0ef3 2F000000 		.4byte	.LASF128
 2708 0ef7 0A       		.byte	0xa
 2709 0ef8 36       		.byte	0x36
 2710 0ef9 38       		.uleb128 0x38
 2711 0efa 8B010000 		.4byte	.LASF129
 2712 0efe 8B010000 		.4byte	.LASF129
 2713 0f02 09       		.byte	0x9
 2714 0f03 95       		.byte	0x95
 2715 0f04 38       		.uleb128 0x38
 2716 0f05 BB040000 		.4byte	.LASF130
 2717 0f09 BB040000 		.4byte	.LASF130
 2718 0f0d 0A       		.byte	0xa
 2719 0f0e 34       		.byte	0x34
 2720 0f0f 38       		.uleb128 0x38
 2721 0f10 6E050000 		.4byte	.LASF131
 2722 0f14 6E050000 		.4byte	.LASF131
 2723 0f18 0A       		.byte	0xa
 2724 0f19 30       		.byte	0x30
 2725 0f1a 38       		.uleb128 0x38
 2726 0f1b 11060000 		.4byte	.LASF132
 2727 0f1f 11060000 		.4byte	.LASF132
 2728 0f23 0A       		.byte	0xa
 2729 0f24 2E       		.byte	0x2e
 2730 0f25 00       		.byte	0
 2731              		.section	.debug_abbrev,"",%progbits
 2732              	.Ldebug_abbrev0:
 2733 0000 01       		.uleb128 0x1
 2734 0001 11       		.uleb128 0x11
 2735 0002 01       		.byte	0x1
 2736 0003 25       		.uleb128 0x25
ARM GAS  /tmp/ccPxlM4D.s 			page 49


 2737 0004 0E       		.uleb128 0xe
 2738 0005 13       		.uleb128 0x13
 2739 0006 0B       		.uleb128 0xb
 2740 0007 03       		.uleb128 0x3
 2741 0008 0E       		.uleb128 0xe
 2742 0009 1B       		.uleb128 0x1b
 2743 000a 0E       		.uleb128 0xe
 2744 000b 55       		.uleb128 0x55
 2745 000c 17       		.uleb128 0x17
 2746 000d 11       		.uleb128 0x11
 2747 000e 01       		.uleb128 0x1
 2748 000f 10       		.uleb128 0x10
 2749 0010 17       		.uleb128 0x17
 2750 0011 00       		.byte	0
 2751 0012 00       		.byte	0
 2752 0013 02       		.uleb128 0x2
 2753 0014 24       		.uleb128 0x24
 2754 0015 00       		.byte	0
 2755 0016 0B       		.uleb128 0xb
 2756 0017 0B       		.uleb128 0xb
 2757 0018 3E       		.uleb128 0x3e
 2758 0019 0B       		.uleb128 0xb
 2759 001a 03       		.uleb128 0x3
 2760 001b 08       		.uleb128 0x8
 2761 001c 00       		.byte	0
 2762 001d 00       		.byte	0
 2763 001e 03       		.uleb128 0x3
 2764 001f 24       		.uleb128 0x24
 2765 0020 00       		.byte	0
 2766 0021 0B       		.uleb128 0xb
 2767 0022 0B       		.uleb128 0xb
 2768 0023 3E       		.uleb128 0x3e
 2769 0024 0B       		.uleb128 0xb
 2770 0025 03       		.uleb128 0x3
 2771 0026 0E       		.uleb128 0xe
 2772 0027 00       		.byte	0
 2773 0028 00       		.byte	0
 2774 0029 04       		.uleb128 0x4
 2775 002a 16       		.uleb128 0x16
 2776 002b 00       		.byte	0
 2777 002c 03       		.uleb128 0x3
 2778 002d 0E       		.uleb128 0xe
 2779 002e 3A       		.uleb128 0x3a
 2780 002f 0B       		.uleb128 0xb
 2781 0030 3B       		.uleb128 0x3b
 2782 0031 0B       		.uleb128 0xb
 2783 0032 49       		.uleb128 0x49
 2784 0033 13       		.uleb128 0x13
 2785 0034 00       		.byte	0
 2786 0035 00       		.byte	0
 2787 0036 05       		.uleb128 0x5
 2788 0037 35       		.uleb128 0x35
 2789 0038 00       		.byte	0
 2790 0039 49       		.uleb128 0x49
 2791 003a 13       		.uleb128 0x13
 2792 003b 00       		.byte	0
 2793 003c 00       		.byte	0
ARM GAS  /tmp/ccPxlM4D.s 			page 50


 2794 003d 06       		.uleb128 0x6
 2795 003e 13       		.uleb128 0x13
 2796 003f 01       		.byte	0x1
 2797 0040 03       		.uleb128 0x3
 2798 0041 0E       		.uleb128 0xe
 2799 0042 0B       		.uleb128 0xb
 2800 0043 0B       		.uleb128 0xb
 2801 0044 3A       		.uleb128 0x3a
 2802 0045 0B       		.uleb128 0xb
 2803 0046 3B       		.uleb128 0x3b
 2804 0047 0B       		.uleb128 0xb
 2805 0048 01       		.uleb128 0x1
 2806 0049 13       		.uleb128 0x13
 2807 004a 00       		.byte	0
 2808 004b 00       		.byte	0
 2809 004c 07       		.uleb128 0x7
 2810 004d 0D       		.uleb128 0xd
 2811 004e 00       		.byte	0
 2812 004f 03       		.uleb128 0x3
 2813 0050 0E       		.uleb128 0xe
 2814 0051 3A       		.uleb128 0x3a
 2815 0052 0B       		.uleb128 0xb
 2816 0053 3B       		.uleb128 0x3b
 2817 0054 0B       		.uleb128 0xb
 2818 0055 49       		.uleb128 0x49
 2819 0056 13       		.uleb128 0x13
 2820 0057 38       		.uleb128 0x38
 2821 0058 0B       		.uleb128 0xb
 2822 0059 00       		.byte	0
 2823 005a 00       		.byte	0
 2824 005b 08       		.uleb128 0x8
 2825 005c 0D       		.uleb128 0xd
 2826 005d 00       		.byte	0
 2827 005e 03       		.uleb128 0x3
 2828 005f 08       		.uleb128 0x8
 2829 0060 3A       		.uleb128 0x3a
 2830 0061 0B       		.uleb128 0xb
 2831 0062 3B       		.uleb128 0x3b
 2832 0063 0B       		.uleb128 0xb
 2833 0064 49       		.uleb128 0x49
 2834 0065 13       		.uleb128 0x13
 2835 0066 38       		.uleb128 0x38
 2836 0067 0B       		.uleb128 0xb
 2837 0068 00       		.byte	0
 2838 0069 00       		.byte	0
 2839 006a 09       		.uleb128 0x9
 2840 006b 13       		.uleb128 0x13
 2841 006c 01       		.byte	0x1
 2842 006d 0B       		.uleb128 0xb
 2843 006e 0B       		.uleb128 0xb
 2844 006f 3A       		.uleb128 0x3a
 2845 0070 0B       		.uleb128 0xb
 2846 0071 3B       		.uleb128 0x3b
 2847 0072 0B       		.uleb128 0xb
 2848 0073 01       		.uleb128 0x1
 2849 0074 13       		.uleb128 0x13
 2850 0075 00       		.byte	0
ARM GAS  /tmp/ccPxlM4D.s 			page 51


 2851 0076 00       		.byte	0
 2852 0077 0A       		.uleb128 0xa
 2853 0078 0F       		.uleb128 0xf
 2854 0079 00       		.byte	0
 2855 007a 0B       		.uleb128 0xb
 2856 007b 0B       		.uleb128 0xb
 2857 007c 49       		.uleb128 0x49
 2858 007d 13       		.uleb128 0x13
 2859 007e 00       		.byte	0
 2860 007f 00       		.byte	0
 2861 0080 0B       		.uleb128 0xb
 2862 0081 0F       		.uleb128 0xf
 2863 0082 00       		.byte	0
 2864 0083 0B       		.uleb128 0xb
 2865 0084 0B       		.uleb128 0xb
 2866 0085 00       		.byte	0
 2867 0086 00       		.byte	0
 2868 0087 0C       		.uleb128 0xc
 2869 0088 13       		.uleb128 0x13
 2870 0089 01       		.byte	0x1
 2871 008a 03       		.uleb128 0x3
 2872 008b 0E       		.uleb128 0xe
 2873 008c 0B       		.uleb128 0xb
 2874 008d 0B       		.uleb128 0xb
 2875 008e 3A       		.uleb128 0x3a
 2876 008f 0B       		.uleb128 0xb
 2877 0090 3B       		.uleb128 0x3b
 2878 0091 05       		.uleb128 0x5
 2879 0092 01       		.uleb128 0x1
 2880 0093 13       		.uleb128 0x13
 2881 0094 00       		.byte	0
 2882 0095 00       		.byte	0
 2883 0096 0D       		.uleb128 0xd
 2884 0097 0D       		.uleb128 0xd
 2885 0098 00       		.byte	0
 2886 0099 03       		.uleb128 0x3
 2887 009a 08       		.uleb128 0x8
 2888 009b 3A       		.uleb128 0x3a
 2889 009c 0B       		.uleb128 0xb
 2890 009d 3B       		.uleb128 0x3b
 2891 009e 05       		.uleb128 0x5
 2892 009f 49       		.uleb128 0x49
 2893 00a0 13       		.uleb128 0x13
 2894 00a1 38       		.uleb128 0x38
 2895 00a2 0B       		.uleb128 0xb
 2896 00a3 00       		.byte	0
 2897 00a4 00       		.byte	0
 2898 00a5 0E       		.uleb128 0xe
 2899 00a6 15       		.uleb128 0x15
 2900 00a7 01       		.byte	0x1
 2901 00a8 27       		.uleb128 0x27
 2902 00a9 19       		.uleb128 0x19
 2903 00aa 01       		.uleb128 0x1
 2904 00ab 13       		.uleb128 0x13
 2905 00ac 00       		.byte	0
 2906 00ad 00       		.byte	0
 2907 00ae 0F       		.uleb128 0xf
ARM GAS  /tmp/ccPxlM4D.s 			page 52


 2908 00af 05       		.uleb128 0x5
 2909 00b0 00       		.byte	0
 2910 00b1 49       		.uleb128 0x49
 2911 00b2 13       		.uleb128 0x13
 2912 00b3 00       		.byte	0
 2913 00b4 00       		.byte	0
 2914 00b5 10       		.uleb128 0x10
 2915 00b6 34       		.uleb128 0x34
 2916 00b7 00       		.byte	0
 2917 00b8 03       		.uleb128 0x3
 2918 00b9 0E       		.uleb128 0xe
 2919 00ba 3A       		.uleb128 0x3a
 2920 00bb 0B       		.uleb128 0xb
 2921 00bc 3B       		.uleb128 0x3b
 2922 00bd 0B       		.uleb128 0xb
 2923 00be 49       		.uleb128 0x49
 2924 00bf 13       		.uleb128 0x13
 2925 00c0 3F       		.uleb128 0x3f
 2926 00c1 19       		.uleb128 0x19
 2927 00c2 3C       		.uleb128 0x3c
 2928 00c3 19       		.uleb128 0x19
 2929 00c4 00       		.byte	0
 2930 00c5 00       		.byte	0
 2931 00c6 11       		.uleb128 0x11
 2932 00c7 17       		.uleb128 0x17
 2933 00c8 01       		.byte	0x1
 2934 00c9 0B       		.uleb128 0xb
 2935 00ca 0B       		.uleb128 0xb
 2936 00cb 3A       		.uleb128 0x3a
 2937 00cc 0B       		.uleb128 0xb
 2938 00cd 3B       		.uleb128 0x3b
 2939 00ce 0B       		.uleb128 0xb
 2940 00cf 01       		.uleb128 0x1
 2941 00d0 13       		.uleb128 0x13
 2942 00d1 00       		.byte	0
 2943 00d2 00       		.byte	0
 2944 00d3 12       		.uleb128 0x12
 2945 00d4 0D       		.uleb128 0xd
 2946 00d5 00       		.byte	0
 2947 00d6 03       		.uleb128 0x3
 2948 00d7 0E       		.uleb128 0xe
 2949 00d8 3A       		.uleb128 0x3a
 2950 00d9 0B       		.uleb128 0xb
 2951 00da 3B       		.uleb128 0x3b
 2952 00db 0B       		.uleb128 0xb
 2953 00dc 49       		.uleb128 0x49
 2954 00dd 13       		.uleb128 0x13
 2955 00de 00       		.byte	0
 2956 00df 00       		.byte	0
 2957 00e0 13       		.uleb128 0x13
 2958 00e1 26       		.uleb128 0x26
 2959 00e2 00       		.byte	0
 2960 00e3 49       		.uleb128 0x49
 2961 00e4 13       		.uleb128 0x13
 2962 00e5 00       		.byte	0
 2963 00e6 00       		.byte	0
 2964 00e7 14       		.uleb128 0x14
ARM GAS  /tmp/ccPxlM4D.s 			page 53


 2965 00e8 01       		.uleb128 0x1
 2966 00e9 01       		.byte	0x1
 2967 00ea 49       		.uleb128 0x49
 2968 00eb 13       		.uleb128 0x13
 2969 00ec 01       		.uleb128 0x1
 2970 00ed 13       		.uleb128 0x13
 2971 00ee 00       		.byte	0
 2972 00ef 00       		.byte	0
 2973 00f0 15       		.uleb128 0x15
 2974 00f1 21       		.uleb128 0x21
 2975 00f2 00       		.byte	0
 2976 00f3 49       		.uleb128 0x49
 2977 00f4 13       		.uleb128 0x13
 2978 00f5 2F       		.uleb128 0x2f
 2979 00f6 0B       		.uleb128 0xb
 2980 00f7 00       		.byte	0
 2981 00f8 00       		.byte	0
 2982 00f9 16       		.uleb128 0x16
 2983 00fa 2E       		.uleb128 0x2e
 2984 00fb 01       		.byte	0x1
 2985 00fc 3F       		.uleb128 0x3f
 2986 00fd 19       		.uleb128 0x19
 2987 00fe 03       		.uleb128 0x3
 2988 00ff 0E       		.uleb128 0xe
 2989 0100 3A       		.uleb128 0x3a
 2990 0101 0B       		.uleb128 0xb
 2991 0102 3B       		.uleb128 0x3b
 2992 0103 05       		.uleb128 0x5
 2993 0104 27       		.uleb128 0x27
 2994 0105 19       		.uleb128 0x19
 2995 0106 49       		.uleb128 0x49
 2996 0107 13       		.uleb128 0x13
 2997 0108 11       		.uleb128 0x11
 2998 0109 01       		.uleb128 0x1
 2999 010a 12       		.uleb128 0x12
 3000 010b 06       		.uleb128 0x6
 3001 010c 40       		.uleb128 0x40
 3002 010d 18       		.uleb128 0x18
 3003 010e 9742     		.uleb128 0x2117
 3004 0110 19       		.uleb128 0x19
 3005 0111 01       		.uleb128 0x1
 3006 0112 13       		.uleb128 0x13
 3007 0113 00       		.byte	0
 3008 0114 00       		.byte	0
 3009 0115 17       		.uleb128 0x17
 3010 0116 05       		.uleb128 0x5
 3011 0117 00       		.byte	0
 3012 0118 03       		.uleb128 0x3
 3013 0119 08       		.uleb128 0x8
 3014 011a 3A       		.uleb128 0x3a
 3015 011b 0B       		.uleb128 0xb
 3016 011c 3B       		.uleb128 0x3b
 3017 011d 05       		.uleb128 0x5
 3018 011e 49       		.uleb128 0x49
 3019 011f 13       		.uleb128 0x13
 3020 0120 02       		.uleb128 0x2
 3021 0121 17       		.uleb128 0x17
ARM GAS  /tmp/ccPxlM4D.s 			page 54


 3022 0122 00       		.byte	0
 3023 0123 00       		.byte	0
 3024 0124 18       		.uleb128 0x18
 3025 0125 05       		.uleb128 0x5
 3026 0126 00       		.byte	0
 3027 0127 03       		.uleb128 0x3
 3028 0128 0E       		.uleb128 0xe
 3029 0129 3A       		.uleb128 0x3a
 3030 012a 0B       		.uleb128 0xb
 3031 012b 3B       		.uleb128 0x3b
 3032 012c 05       		.uleb128 0x5
 3033 012d 49       		.uleb128 0x49
 3034 012e 13       		.uleb128 0x13
 3035 012f 02       		.uleb128 0x2
 3036 0130 17       		.uleb128 0x17
 3037 0131 00       		.byte	0
 3038 0132 00       		.byte	0
 3039 0133 19       		.uleb128 0x19
 3040 0134 898201   		.uleb128 0x4109
 3041 0137 01       		.byte	0x1
 3042 0138 11       		.uleb128 0x11
 3043 0139 01       		.uleb128 0x1
 3044 013a 31       		.uleb128 0x31
 3045 013b 13       		.uleb128 0x13
 3046 013c 00       		.byte	0
 3047 013d 00       		.byte	0
 3048 013e 1A       		.uleb128 0x1a
 3049 013f 8A8201   		.uleb128 0x410a
 3050 0142 00       		.byte	0
 3051 0143 02       		.uleb128 0x2
 3052 0144 18       		.uleb128 0x18
 3053 0145 9142     		.uleb128 0x2111
 3054 0147 18       		.uleb128 0x18
 3055 0148 00       		.byte	0
 3056 0149 00       		.byte	0
 3057 014a 1B       		.uleb128 0x1b
 3058 014b 2E       		.uleb128 0x2e
 3059 014c 01       		.byte	0x1
 3060 014d 3F       		.uleb128 0x3f
 3061 014e 19       		.uleb128 0x19
 3062 014f 03       		.uleb128 0x3
 3063 0150 0E       		.uleb128 0xe
 3064 0151 3A       		.uleb128 0x3a
 3065 0152 0B       		.uleb128 0xb
 3066 0153 3B       		.uleb128 0x3b
 3067 0154 05       		.uleb128 0x5
 3068 0155 27       		.uleb128 0x27
 3069 0156 19       		.uleb128 0x19
 3070 0157 49       		.uleb128 0x49
 3071 0158 13       		.uleb128 0x13
 3072 0159 20       		.uleb128 0x20
 3073 015a 0B       		.uleb128 0xb
 3074 015b 01       		.uleb128 0x1
 3075 015c 13       		.uleb128 0x13
 3076 015d 00       		.byte	0
 3077 015e 00       		.byte	0
 3078 015f 1C       		.uleb128 0x1c
ARM GAS  /tmp/ccPxlM4D.s 			page 55


 3079 0160 05       		.uleb128 0x5
 3080 0161 00       		.byte	0
 3081 0162 03       		.uleb128 0x3
 3082 0163 08       		.uleb128 0x8
 3083 0164 3A       		.uleb128 0x3a
 3084 0165 0B       		.uleb128 0xb
 3085 0166 3B       		.uleb128 0x3b
 3086 0167 05       		.uleb128 0x5
 3087 0168 49       		.uleb128 0x49
 3088 0169 13       		.uleb128 0x13
 3089 016a 00       		.byte	0
 3090 016b 00       		.byte	0
 3091 016c 1D       		.uleb128 0x1d
 3092 016d 05       		.uleb128 0x5
 3093 016e 00       		.byte	0
 3094 016f 03       		.uleb128 0x3
 3095 0170 0E       		.uleb128 0xe
 3096 0171 3A       		.uleb128 0x3a
 3097 0172 0B       		.uleb128 0xb
 3098 0173 3B       		.uleb128 0x3b
 3099 0174 05       		.uleb128 0x5
 3100 0175 49       		.uleb128 0x49
 3101 0176 13       		.uleb128 0x13
 3102 0177 00       		.byte	0
 3103 0178 00       		.byte	0
 3104 0179 1E       		.uleb128 0x1e
 3105 017a 34       		.uleb128 0x34
 3106 017b 00       		.byte	0
 3107 017c 03       		.uleb128 0x3
 3108 017d 0E       		.uleb128 0xe
 3109 017e 3A       		.uleb128 0x3a
 3110 017f 0B       		.uleb128 0xb
 3111 0180 3B       		.uleb128 0x3b
 3112 0181 05       		.uleb128 0x5
 3113 0182 49       		.uleb128 0x49
 3114 0183 13       		.uleb128 0x13
 3115 0184 00       		.byte	0
 3116 0185 00       		.byte	0
 3117 0186 1F       		.uleb128 0x1f
 3118 0187 0B       		.uleb128 0xb
 3119 0188 01       		.byte	0x1
 3120 0189 55       		.uleb128 0x55
 3121 018a 17       		.uleb128 0x17
 3122 018b 01       		.uleb128 0x1
 3123 018c 13       		.uleb128 0x13
 3124 018d 00       		.byte	0
 3125 018e 00       		.byte	0
 3126 018f 20       		.uleb128 0x20
 3127 0190 34       		.uleb128 0x34
 3128 0191 00       		.byte	0
 3129 0192 03       		.uleb128 0x3
 3130 0193 08       		.uleb128 0x8
 3131 0194 3A       		.uleb128 0x3a
 3132 0195 0B       		.uleb128 0xb
 3133 0196 3B       		.uleb128 0x3b
 3134 0197 05       		.uleb128 0x5
 3135 0198 49       		.uleb128 0x49
ARM GAS  /tmp/ccPxlM4D.s 			page 56


 3136 0199 13       		.uleb128 0x13
 3137 019a 02       		.uleb128 0x2
 3138 019b 18       		.uleb128 0x18
 3139 019c 00       		.byte	0
 3140 019d 00       		.byte	0
 3141 019e 21       		.uleb128 0x21
 3142 019f 0B       		.uleb128 0xb
 3143 01a0 01       		.byte	0x1
 3144 01a1 11       		.uleb128 0x11
 3145 01a2 01       		.uleb128 0x1
 3146 01a3 12       		.uleb128 0x12
 3147 01a4 06       		.uleb128 0x6
 3148 01a5 01       		.uleb128 0x1
 3149 01a6 13       		.uleb128 0x13
 3150 01a7 00       		.byte	0
 3151 01a8 00       		.byte	0
 3152 01a9 22       		.uleb128 0x22
 3153 01aa 1D       		.uleb128 0x1d
 3154 01ab 01       		.byte	0x1
 3155 01ac 31       		.uleb128 0x31
 3156 01ad 13       		.uleb128 0x13
 3157 01ae 11       		.uleb128 0x11
 3158 01af 01       		.uleb128 0x1
 3159 01b0 12       		.uleb128 0x12
 3160 01b1 06       		.uleb128 0x6
 3161 01b2 58       		.uleb128 0x58
 3162 01b3 0B       		.uleb128 0xb
 3163 01b4 59       		.uleb128 0x59
 3164 01b5 05       		.uleb128 0x5
 3165 01b6 00       		.byte	0
 3166 01b7 00       		.byte	0
 3167 01b8 23       		.uleb128 0x23
 3168 01b9 05       		.uleb128 0x5
 3169 01ba 00       		.byte	0
 3170 01bb 31       		.uleb128 0x31
 3171 01bc 13       		.uleb128 0x13
 3172 01bd 02       		.uleb128 0x2
 3173 01be 17       		.uleb128 0x17
 3174 01bf 00       		.byte	0
 3175 01c0 00       		.byte	0
 3176 01c1 24       		.uleb128 0x24
 3177 01c2 0B       		.uleb128 0xb
 3178 01c3 01       		.byte	0x1
 3179 01c4 11       		.uleb128 0x11
 3180 01c5 01       		.uleb128 0x1
 3181 01c6 12       		.uleb128 0x12
 3182 01c7 06       		.uleb128 0x6
 3183 01c8 00       		.byte	0
 3184 01c9 00       		.byte	0
 3185 01ca 25       		.uleb128 0x25
 3186 01cb 34       		.uleb128 0x34
 3187 01cc 00       		.byte	0
 3188 01cd 31       		.uleb128 0x31
 3189 01ce 13       		.uleb128 0x13
 3190 01cf 02       		.uleb128 0x2
 3191 01d0 17       		.uleb128 0x17
 3192 01d1 00       		.byte	0
ARM GAS  /tmp/ccPxlM4D.s 			page 57


 3193 01d2 00       		.byte	0
 3194 01d3 26       		.uleb128 0x26
 3195 01d4 34       		.uleb128 0x34
 3196 01d5 00       		.byte	0
 3197 01d6 31       		.uleb128 0x31
 3198 01d7 13       		.uleb128 0x13
 3199 01d8 00       		.byte	0
 3200 01d9 00       		.byte	0
 3201 01da 27       		.uleb128 0x27
 3202 01db 898201   		.uleb128 0x4109
 3203 01de 01       		.byte	0x1
 3204 01df 11       		.uleb128 0x11
 3205 01e0 01       		.uleb128 0x1
 3206 01e1 31       		.uleb128 0x31
 3207 01e2 13       		.uleb128 0x13
 3208 01e3 01       		.uleb128 0x1
 3209 01e4 13       		.uleb128 0x13
 3210 01e5 00       		.byte	0
 3211 01e6 00       		.byte	0
 3212 01e7 28       		.uleb128 0x28
 3213 01e8 898201   		.uleb128 0x4109
 3214 01eb 00       		.byte	0
 3215 01ec 11       		.uleb128 0x11
 3216 01ed 01       		.uleb128 0x1
 3217 01ee 31       		.uleb128 0x31
 3218 01ef 13       		.uleb128 0x13
 3219 01f0 00       		.byte	0
 3220 01f1 00       		.byte	0
 3221 01f2 29       		.uleb128 0x29
 3222 01f3 2E       		.uleb128 0x2e
 3223 01f4 01       		.byte	0x1
 3224 01f5 3F       		.uleb128 0x3f
 3225 01f6 19       		.uleb128 0x19
 3226 01f7 03       		.uleb128 0x3
 3227 01f8 0E       		.uleb128 0xe
 3228 01f9 3A       		.uleb128 0x3a
 3229 01fa 0B       		.uleb128 0xb
 3230 01fb 3B       		.uleb128 0x3b
 3231 01fc 0B       		.uleb128 0xb
 3232 01fd 27       		.uleb128 0x27
 3233 01fe 19       		.uleb128 0x19
 3234 01ff 49       		.uleb128 0x49
 3235 0200 13       		.uleb128 0x13
 3236 0201 20       		.uleb128 0x20
 3237 0202 0B       		.uleb128 0xb
 3238 0203 01       		.uleb128 0x1
 3239 0204 13       		.uleb128 0x13
 3240 0205 00       		.byte	0
 3241 0206 00       		.byte	0
 3242 0207 2A       		.uleb128 0x2a
 3243 0208 05       		.uleb128 0x5
 3244 0209 00       		.byte	0
 3245 020a 03       		.uleb128 0x3
 3246 020b 08       		.uleb128 0x8
 3247 020c 3A       		.uleb128 0x3a
 3248 020d 0B       		.uleb128 0xb
 3249 020e 3B       		.uleb128 0x3b
ARM GAS  /tmp/ccPxlM4D.s 			page 58


 3250 020f 0B       		.uleb128 0xb
 3251 0210 49       		.uleb128 0x49
 3252 0211 13       		.uleb128 0x13
 3253 0212 00       		.byte	0
 3254 0213 00       		.byte	0
 3255 0214 2B       		.uleb128 0x2b
 3256 0215 05       		.uleb128 0x5
 3257 0216 00       		.byte	0
 3258 0217 03       		.uleb128 0x3
 3259 0218 0E       		.uleb128 0xe
 3260 0219 3A       		.uleb128 0x3a
 3261 021a 0B       		.uleb128 0xb
 3262 021b 3B       		.uleb128 0x3b
 3263 021c 0B       		.uleb128 0xb
 3264 021d 49       		.uleb128 0x49
 3265 021e 13       		.uleb128 0x13
 3266 021f 00       		.byte	0
 3267 0220 00       		.byte	0
 3268 0221 2C       		.uleb128 0x2c
 3269 0222 34       		.uleb128 0x34
 3270 0223 00       		.byte	0
 3271 0224 03       		.uleb128 0x3
 3272 0225 0E       		.uleb128 0xe
 3273 0226 3A       		.uleb128 0x3a
 3274 0227 0B       		.uleb128 0xb
 3275 0228 3B       		.uleb128 0x3b
 3276 0229 0B       		.uleb128 0xb
 3277 022a 49       		.uleb128 0x49
 3278 022b 13       		.uleb128 0x13
 3279 022c 00       		.byte	0
 3280 022d 00       		.byte	0
 3281 022e 2D       		.uleb128 0x2d
 3282 022f 2E       		.uleb128 0x2e
 3283 0230 01       		.byte	0x1
 3284 0231 3F       		.uleb128 0x3f
 3285 0232 19       		.uleb128 0x19
 3286 0233 03       		.uleb128 0x3
 3287 0234 0E       		.uleb128 0xe
 3288 0235 3A       		.uleb128 0x3a
 3289 0236 0B       		.uleb128 0xb
 3290 0237 3B       		.uleb128 0x3b
 3291 0238 0B       		.uleb128 0xb
 3292 0239 27       		.uleb128 0x27
 3293 023a 19       		.uleb128 0x19
 3294 023b 49       		.uleb128 0x49
 3295 023c 13       		.uleb128 0x13
 3296 023d 11       		.uleb128 0x11
 3297 023e 01       		.uleb128 0x1
 3298 023f 12       		.uleb128 0x12
 3299 0240 06       		.uleb128 0x6
 3300 0241 40       		.uleb128 0x40
 3301 0242 18       		.uleb128 0x18
 3302 0243 9742     		.uleb128 0x2117
 3303 0245 19       		.uleb128 0x19
 3304 0246 01       		.uleb128 0x1
 3305 0247 13       		.uleb128 0x13
 3306 0248 00       		.byte	0
ARM GAS  /tmp/ccPxlM4D.s 			page 59


 3307 0249 00       		.byte	0
 3308 024a 2E       		.uleb128 0x2e
 3309 024b 05       		.uleb128 0x5
 3310 024c 00       		.byte	0
 3311 024d 03       		.uleb128 0x3
 3312 024e 08       		.uleb128 0x8
 3313 024f 3A       		.uleb128 0x3a
 3314 0250 0B       		.uleb128 0xb
 3315 0251 3B       		.uleb128 0x3b
 3316 0252 0B       		.uleb128 0xb
 3317 0253 49       		.uleb128 0x49
 3318 0254 13       		.uleb128 0x13
 3319 0255 02       		.uleb128 0x2
 3320 0256 17       		.uleb128 0x17
 3321 0257 00       		.byte	0
 3322 0258 00       		.byte	0
 3323 0259 2F       		.uleb128 0x2f
 3324 025a 05       		.uleb128 0x5
 3325 025b 00       		.byte	0
 3326 025c 03       		.uleb128 0x3
 3327 025d 0E       		.uleb128 0xe
 3328 025e 3A       		.uleb128 0x3a
 3329 025f 0B       		.uleb128 0xb
 3330 0260 3B       		.uleb128 0x3b
 3331 0261 0B       		.uleb128 0xb
 3332 0262 49       		.uleb128 0x49
 3333 0263 13       		.uleb128 0x13
 3334 0264 02       		.uleb128 0x2
 3335 0265 17       		.uleb128 0x17
 3336 0266 00       		.byte	0
 3337 0267 00       		.byte	0
 3338 0268 30       		.uleb128 0x30
 3339 0269 34       		.uleb128 0x34
 3340 026a 00       		.byte	0
 3341 026b 03       		.uleb128 0x3
 3342 026c 08       		.uleb128 0x8
 3343 026d 3A       		.uleb128 0x3a
 3344 026e 0B       		.uleb128 0xb
 3345 026f 3B       		.uleb128 0x3b
 3346 0270 0B       		.uleb128 0xb
 3347 0271 49       		.uleb128 0x49
 3348 0272 13       		.uleb128 0x13
 3349 0273 02       		.uleb128 0x2
 3350 0274 18       		.uleb128 0x18
 3351 0275 00       		.byte	0
 3352 0276 00       		.byte	0
 3353 0277 31       		.uleb128 0x31
 3354 0278 1D       		.uleb128 0x1d
 3355 0279 01       		.byte	0x1
 3356 027a 31       		.uleb128 0x31
 3357 027b 13       		.uleb128 0x13
 3358 027c 52       		.uleb128 0x52
 3359 027d 01       		.uleb128 0x1
 3360 027e 55       		.uleb128 0x55
 3361 027f 17       		.uleb128 0x17
 3362 0280 58       		.uleb128 0x58
 3363 0281 0B       		.uleb128 0xb
ARM GAS  /tmp/ccPxlM4D.s 			page 60


 3364 0282 59       		.uleb128 0x59
 3365 0283 0B       		.uleb128 0xb
 3366 0284 00       		.byte	0
 3367 0285 00       		.byte	0
 3368 0286 32       		.uleb128 0x32
 3369 0287 0B       		.uleb128 0xb
 3370 0288 01       		.byte	0x1
 3371 0289 55       		.uleb128 0x55
 3372 028a 17       		.uleb128 0x17
 3373 028b 00       		.byte	0
 3374 028c 00       		.byte	0
 3375 028d 33       		.uleb128 0x33
 3376 028e 05       		.uleb128 0x5
 3377 028f 00       		.byte	0
 3378 0290 31       		.uleb128 0x31
 3379 0291 13       		.uleb128 0x13
 3380 0292 02       		.uleb128 0x2
 3381 0293 18       		.uleb128 0x18
 3382 0294 00       		.byte	0
 3383 0295 00       		.byte	0
 3384 0296 34       		.uleb128 0x34
 3385 0297 1D       		.uleb128 0x1d
 3386 0298 01       		.byte	0x1
 3387 0299 31       		.uleb128 0x31
 3388 029a 13       		.uleb128 0x13
 3389 029b 11       		.uleb128 0x11
 3390 029c 01       		.uleb128 0x1
 3391 029d 12       		.uleb128 0x12
 3392 029e 06       		.uleb128 0x6
 3393 029f 58       		.uleb128 0x58
 3394 02a0 0B       		.uleb128 0xb
 3395 02a1 59       		.uleb128 0x59
 3396 02a2 0B       		.uleb128 0xb
 3397 02a3 00       		.byte	0
 3398 02a4 00       		.byte	0
 3399 02a5 35       		.uleb128 0x35
 3400 02a6 2E       		.uleb128 0x2e
 3401 02a7 01       		.byte	0x1
 3402 02a8 3F       		.uleb128 0x3f
 3403 02a9 19       		.uleb128 0x19
 3404 02aa 03       		.uleb128 0x3
 3405 02ab 0E       		.uleb128 0xe
 3406 02ac 3A       		.uleb128 0x3a
 3407 02ad 0B       		.uleb128 0xb
 3408 02ae 3B       		.uleb128 0x3b
 3409 02af 0B       		.uleb128 0xb
 3410 02b0 27       		.uleb128 0x27
 3411 02b1 19       		.uleb128 0x19
 3412 02b2 11       		.uleb128 0x11
 3413 02b3 01       		.uleb128 0x1
 3414 02b4 12       		.uleb128 0x12
 3415 02b5 06       		.uleb128 0x6
 3416 02b6 40       		.uleb128 0x40
 3417 02b7 18       		.uleb128 0x18
 3418 02b8 9742     		.uleb128 0x2117
 3419 02ba 19       		.uleb128 0x19
 3420 02bb 01       		.uleb128 0x1
ARM GAS  /tmp/ccPxlM4D.s 			page 61


 3421 02bc 13       		.uleb128 0x13
 3422 02bd 00       		.byte	0
 3423 02be 00       		.byte	0
 3424 02bf 36       		.uleb128 0x36
 3425 02c0 898201   		.uleb128 0x4109
 3426 02c3 01       		.byte	0x1
 3427 02c4 11       		.uleb128 0x11
 3428 02c5 01       		.uleb128 0x1
 3429 02c6 9542     		.uleb128 0x2115
 3430 02c8 19       		.uleb128 0x19
 3431 02c9 31       		.uleb128 0x31
 3432 02ca 13       		.uleb128 0x13
 3433 02cb 00       		.byte	0
 3434 02cc 00       		.byte	0
 3435 02cd 37       		.uleb128 0x37
 3436 02ce 2E       		.uleb128 0x2e
 3437 02cf 01       		.byte	0x1
 3438 02d0 31       		.uleb128 0x31
 3439 02d1 13       		.uleb128 0x13
 3440 02d2 11       		.uleb128 0x11
 3441 02d3 01       		.uleb128 0x1
 3442 02d4 12       		.uleb128 0x12
 3443 02d5 06       		.uleb128 0x6
 3444 02d6 40       		.uleb128 0x40
 3445 02d7 18       		.uleb128 0x18
 3446 02d8 9742     		.uleb128 0x2117
 3447 02da 19       		.uleb128 0x19
 3448 02db 01       		.uleb128 0x1
 3449 02dc 13       		.uleb128 0x13
 3450 02dd 00       		.byte	0
 3451 02de 00       		.byte	0
 3452 02df 38       		.uleb128 0x38
 3453 02e0 2E       		.uleb128 0x2e
 3454 02e1 00       		.byte	0
 3455 02e2 3F       		.uleb128 0x3f
 3456 02e3 19       		.uleb128 0x19
 3457 02e4 3C       		.uleb128 0x3c
 3458 02e5 19       		.uleb128 0x19
 3459 02e6 6E       		.uleb128 0x6e
 3460 02e7 0E       		.uleb128 0xe
 3461 02e8 03       		.uleb128 0x3
 3462 02e9 0E       		.uleb128 0xe
 3463 02ea 3A       		.uleb128 0x3a
 3464 02eb 0B       		.uleb128 0xb
 3465 02ec 3B       		.uleb128 0x3b
 3466 02ed 0B       		.uleb128 0xb
 3467 02ee 00       		.byte	0
 3468 02ef 00       		.byte	0
 3469 02f0 00       		.byte	0
 3470              		.section	.debug_loc,"",%progbits
 3471              	.Ldebug_loc0:
 3472              	.LLST56:
 3473 0000 00000000 		.4byte	.LVL74
 3474 0004 22000000 		.4byte	.LVL75
 3475 0008 0100     		.2byte	0x1
 3476 000a 50       		.byte	0x50
 3477 000b 22000000 		.4byte	.LVL75
ARM GAS  /tmp/ccPxlM4D.s 			page 62


 3478 000f 2B000000 		.4byte	.LVL76-1
 3479 0013 0300     		.2byte	0x3
 3480 0015 70       		.byte	0x70
 3481 0016 64       		.sleb128 -28
 3482 0017 9F       		.byte	0x9f
 3483 0018 2B000000 		.4byte	.LVL76-1
 3484 001c 30000000 		.4byte	.LVL77
 3485 0020 0400     		.2byte	0x4
 3486 0022 F3       		.byte	0xf3
 3487 0023 01       		.uleb128 0x1
 3488 0024 50       		.byte	0x50
 3489 0025 9F       		.byte	0x9f
 3490 0026 30000000 		.4byte	.LVL77
 3491 002a 34000000 		.4byte	.LVL78
 3492 002e 0100     		.2byte	0x1
 3493 0030 50       		.byte	0x50
 3494 0031 34000000 		.4byte	.LVL78
 3495 0035 36000000 		.4byte	.LFE17
 3496 0039 0400     		.2byte	0x4
 3497 003b F3       		.byte	0xf3
 3498 003c 01       		.uleb128 0x1
 3499 003d 50       		.byte	0x50
 3500 003e 9F       		.byte	0x9f
 3501 003f 00000000 		.4byte	0
 3502 0043 00000000 		.4byte	0
 3503              	.LLST57:
 3504 0047 00000000 		.4byte	.LVL74
 3505 004b 2B000000 		.4byte	.LVL76-1
 3506 004f 0100     		.2byte	0x1
 3507 0051 51       		.byte	0x51
 3508 0052 2B000000 		.4byte	.LVL76-1
 3509 0056 30000000 		.4byte	.LVL77
 3510 005a 0400     		.2byte	0x4
 3511 005c F3       		.byte	0xf3
 3512 005d 01       		.uleb128 0x1
 3513 005e 51       		.byte	0x51
 3514 005f 9F       		.byte	0x9f
 3515 0060 30000000 		.4byte	.LVL77
 3516 0064 36000000 		.4byte	.LFE17
 3517 0068 0100     		.2byte	0x1
 3518 006a 51       		.byte	0x51
 3519 006b 00000000 		.4byte	0
 3520 006f 00000000 		.4byte	0
 3521              	.LLST39:
 3522 0073 00000000 		.4byte	.LVL57
 3523 0077 10000000 		.4byte	.LVL60
 3524 007b 0100     		.2byte	0x1
 3525 007d 50       		.byte	0x50
 3526 007e 10000000 		.4byte	.LVL60
 3527 0082 44000000 		.4byte	.LFE15
 3528 0086 0100     		.2byte	0x1
 3529 0088 54       		.byte	0x54
 3530 0089 00000000 		.4byte	0
 3531 008d 00000000 		.4byte	0
 3532              	.LLST40:
 3533 0091 00000000 		.4byte	.LVL57
 3534 0095 0E000000 		.4byte	.LVL59
ARM GAS  /tmp/ccPxlM4D.s 			page 63


 3535 0099 0100     		.2byte	0x1
 3536 009b 51       		.byte	0x51
 3537 009c 0E000000 		.4byte	.LVL59
 3538 00a0 44000000 		.4byte	.LFE15
 3539 00a4 0100     		.2byte	0x1
 3540 00a6 56       		.byte	0x56
 3541 00a7 00000000 		.4byte	0
 3542 00ab 00000000 		.4byte	0
 3543              	.LLST41:
 3544 00af 00000000 		.4byte	.LVL57
 3545 00b3 13000000 		.4byte	.LVL61-1
 3546 00b7 0100     		.2byte	0x1
 3547 00b9 52       		.byte	0x52
 3548 00ba 13000000 		.4byte	.LVL61-1
 3549 00be 44000000 		.4byte	.LFE15
 3550 00c2 0400     		.2byte	0x4
 3551 00c4 F3       		.byte	0xf3
 3552 00c5 01       		.uleb128 0x1
 3553 00c6 52       		.byte	0x52
 3554 00c7 9F       		.byte	0x9f
 3555 00c8 00000000 		.4byte	0
 3556 00cc 00000000 		.4byte	0
 3557              	.LLST42:
 3558 00d0 0C000000 		.4byte	.LVL58
 3559 00d4 13000000 		.4byte	.LVL61-1
 3560 00d8 0100     		.2byte	0x1
 3561 00da 52       		.byte	0x52
 3562 00db 13000000 		.4byte	.LVL61-1
 3563 00df 3A000000 		.4byte	.LVL65
 3564 00e3 0400     		.2byte	0x4
 3565 00e5 F3       		.byte	0xf3
 3566 00e6 01       		.uleb128 0x1
 3567 00e7 52       		.byte	0x52
 3568 00e8 9F       		.byte	0x9f
 3569 00e9 00000000 		.4byte	0
 3570 00ed 00000000 		.4byte	0
 3571              	.LLST43:
 3572 00f1 0C000000 		.4byte	.LVL58
 3573 00f5 0E000000 		.4byte	.LVL59
 3574 00f9 0100     		.2byte	0x1
 3575 00fb 51       		.byte	0x51
 3576 00fc 0E000000 		.4byte	.LVL59
 3577 0100 3A000000 		.4byte	.LVL65
 3578 0104 0100     		.2byte	0x1
 3579 0106 56       		.byte	0x56
 3580 0107 00000000 		.4byte	0
 3581 010b 00000000 		.4byte	0
 3582              	.LLST44:
 3583 010f 0C000000 		.4byte	.LVL58
 3584 0113 10000000 		.4byte	.LVL60
 3585 0117 0100     		.2byte	0x1
 3586 0119 50       		.byte	0x50
 3587 011a 10000000 		.4byte	.LVL60
 3588 011e 3A000000 		.4byte	.LVL65
 3589 0122 0100     		.2byte	0x1
 3590 0124 54       		.byte	0x54
 3591 0125 00000000 		.4byte	0
ARM GAS  /tmp/ccPxlM4D.s 			page 64


 3592 0129 00000000 		.4byte	0
 3593              	.LLST45:
 3594 012d 14000000 		.4byte	.LVL61
 3595 0131 2E000000 		.4byte	.LVL63
 3596 0135 0100     		.2byte	0x1
 3597 0137 50       		.byte	0x50
 3598 0138 2E000000 		.4byte	.LVL63
 3599 013c 3A000000 		.4byte	.LVL65
 3600 0140 0100     		.2byte	0x1
 3601 0142 55       		.byte	0x55
 3602 0143 00000000 		.4byte	0
 3603 0147 00000000 		.4byte	0
 3604              	.LLST46:
 3605 014b 18000000 		.4byte	.LVL62
 3606 014f 3A000000 		.4byte	.LVL65
 3607 0153 0400     		.2byte	0x4
 3608 0155 F3       		.byte	0xf3
 3609 0156 01       		.uleb128 0x1
 3610 0157 52       		.byte	0x52
 3611 0158 9F       		.byte	0x9f
 3612 0159 00000000 		.4byte	0
 3613 015d 00000000 		.4byte	0
 3614              	.LLST47:
 3615 0161 18000000 		.4byte	.LVL62
 3616 0165 3A000000 		.4byte	.LVL65
 3617 0169 0100     		.2byte	0x1
 3618 016b 56       		.byte	0x56
 3619 016c 00000000 		.4byte	0
 3620 0170 00000000 		.4byte	0
 3621              	.LLST48:
 3622 0174 18000000 		.4byte	.LVL62
 3623 0178 3A000000 		.4byte	.LVL65
 3624 017c 0100     		.2byte	0x1
 3625 017e 54       		.byte	0x54
 3626 017f 00000000 		.4byte	0
 3627 0183 00000000 		.4byte	0
 3628              	.LLST37:
 3629 0187 00000000 		.4byte	.LVL52
 3630 018b 22000000 		.4byte	.LVL53
 3631 018f 0100     		.2byte	0x1
 3632 0191 50       		.byte	0x50
 3633 0192 22000000 		.4byte	.LVL53
 3634 0196 25000000 		.4byte	.LVL54-1
 3635 019a 0300     		.2byte	0x3
 3636 019c 70       		.byte	0x70
 3637 019d 70       		.sleb128 -16
 3638 019e 9F       		.byte	0x9f
 3639 019f 25000000 		.4byte	.LVL54-1
 3640 01a3 2A000000 		.4byte	.LVL55
 3641 01a7 0400     		.2byte	0x4
 3642 01a9 F3       		.byte	0xf3
 3643 01aa 01       		.uleb128 0x1
 3644 01ab 50       		.byte	0x50
 3645 01ac 9F       		.byte	0x9f
 3646 01ad 2A000000 		.4byte	.LVL55
 3647 01b1 2E000000 		.4byte	.LVL56
 3648 01b5 0100     		.2byte	0x1
ARM GAS  /tmp/ccPxlM4D.s 			page 65


 3649 01b7 50       		.byte	0x50
 3650 01b8 2E000000 		.4byte	.LVL56
 3651 01bc 30000000 		.4byte	.LFE14
 3652 01c0 0400     		.2byte	0x4
 3653 01c2 F3       		.byte	0xf3
 3654 01c3 01       		.uleb128 0x1
 3655 01c4 50       		.byte	0x50
 3656 01c5 9F       		.byte	0x9f
 3657 01c6 00000000 		.4byte	0
 3658 01ca 00000000 		.4byte	0
 3659              	.LLST38:
 3660 01ce 00000000 		.4byte	.LVL52
 3661 01d2 25000000 		.4byte	.LVL54-1
 3662 01d6 0100     		.2byte	0x1
 3663 01d8 51       		.byte	0x51
 3664 01d9 25000000 		.4byte	.LVL54-1
 3665 01dd 2A000000 		.4byte	.LVL55
 3666 01e1 0400     		.2byte	0x4
 3667 01e3 F3       		.byte	0xf3
 3668 01e4 01       		.uleb128 0x1
 3669 01e5 51       		.byte	0x51
 3670 01e6 9F       		.byte	0x9f
 3671 01e7 2A000000 		.4byte	.LVL55
 3672 01eb 30000000 		.4byte	.LFE14
 3673 01ef 0100     		.2byte	0x1
 3674 01f1 51       		.byte	0x51
 3675 01f2 00000000 		.4byte	0
 3676 01f6 00000000 		.4byte	0
 3677              	.LLST23:
 3678 01fa 00000000 		.4byte	.LVL33
 3679 01fe 10000000 		.4byte	.LVL36
 3680 0202 0100     		.2byte	0x1
 3681 0204 50       		.byte	0x50
 3682 0205 10000000 		.4byte	.LVL36
 3683 0209 4C000000 		.4byte	.LFE12
 3684 020d 0100     		.2byte	0x1
 3685 020f 54       		.byte	0x54
 3686 0210 00000000 		.4byte	0
 3687 0214 00000000 		.4byte	0
 3688              	.LLST24:
 3689 0218 00000000 		.4byte	.LVL33
 3690 021c 0E000000 		.4byte	.LVL35
 3691 0220 0100     		.2byte	0x1
 3692 0222 51       		.byte	0x51
 3693 0223 0E000000 		.4byte	.LVL35
 3694 0227 4C000000 		.4byte	.LFE12
 3695 022b 0100     		.2byte	0x1
 3696 022d 56       		.byte	0x56
 3697 022e 00000000 		.4byte	0
 3698 0232 00000000 		.4byte	0
 3699              	.LLST25:
 3700 0236 00000000 		.4byte	.LVL33
 3701 023a 13000000 		.4byte	.LVL37-1
 3702 023e 0100     		.2byte	0x1
 3703 0240 52       		.byte	0x52
 3704 0241 13000000 		.4byte	.LVL37-1
 3705 0245 4C000000 		.4byte	.LFE12
ARM GAS  /tmp/ccPxlM4D.s 			page 66


 3706 0249 0400     		.2byte	0x4
 3707 024b F3       		.byte	0xf3
 3708 024c 01       		.uleb128 0x1
 3709 024d 52       		.byte	0x52
 3710 024e 9F       		.byte	0x9f
 3711 024f 00000000 		.4byte	0
 3712 0253 00000000 		.4byte	0
 3713              	.LLST26:
 3714 0257 0C000000 		.4byte	.LVL34
 3715 025b 13000000 		.4byte	.LVL37-1
 3716 025f 0100     		.2byte	0x1
 3717 0261 52       		.byte	0x52
 3718 0262 13000000 		.4byte	.LVL37-1
 3719 0266 18000000 		.4byte	.LVL38
 3720 026a 0400     		.2byte	0x4
 3721 026c F3       		.byte	0xf3
 3722 026d 01       		.uleb128 0x1
 3723 026e 52       		.byte	0x52
 3724 026f 9F       		.byte	0x9f
 3725 0270 22000000 		.4byte	.LVL39
 3726 0274 42000000 		.4byte	.LVL42
 3727 0278 0400     		.2byte	0x4
 3728 027a F3       		.byte	0xf3
 3729 027b 01       		.uleb128 0x1
 3730 027c 52       		.byte	0x52
 3731 027d 9F       		.byte	0x9f
 3732 027e 00000000 		.4byte	0
 3733 0282 00000000 		.4byte	0
 3734              	.LLST27:
 3735 0286 0C000000 		.4byte	.LVL34
 3736 028a 0E000000 		.4byte	.LVL35
 3737 028e 0100     		.2byte	0x1
 3738 0290 51       		.byte	0x51
 3739 0291 0E000000 		.4byte	.LVL35
 3740 0295 18000000 		.4byte	.LVL38
 3741 0299 0100     		.2byte	0x1
 3742 029b 56       		.byte	0x56
 3743 029c 22000000 		.4byte	.LVL39
 3744 02a0 42000000 		.4byte	.LVL42
 3745 02a4 0100     		.2byte	0x1
 3746 02a6 56       		.byte	0x56
 3747 02a7 00000000 		.4byte	0
 3748 02ab 00000000 		.4byte	0
 3749              	.LLST28:
 3750 02af 0C000000 		.4byte	.LVL34
 3751 02b3 10000000 		.4byte	.LVL36
 3752 02b7 0100     		.2byte	0x1
 3753 02b9 50       		.byte	0x50
 3754 02ba 10000000 		.4byte	.LVL36
 3755 02be 18000000 		.4byte	.LVL38
 3756 02c2 0100     		.2byte	0x1
 3757 02c4 54       		.byte	0x54
 3758 02c5 22000000 		.4byte	.LVL39
 3759 02c9 42000000 		.4byte	.LVL42
 3760 02cd 0100     		.2byte	0x1
 3761 02cf 54       		.byte	0x54
 3762 02d0 00000000 		.4byte	0
ARM GAS  /tmp/ccPxlM4D.s 			page 67


 3763 02d4 00000000 		.4byte	0
 3764              	.LLST29:
 3765 02d8 14000000 		.4byte	.LVL37
 3766 02dc 18000000 		.4byte	.LVL38
 3767 02e0 0100     		.2byte	0x1
 3768 02e2 50       		.byte	0x50
 3769 02e3 22000000 		.4byte	.LVL39
 3770 02e7 3A000000 		.4byte	.LVL40
 3771 02eb 0100     		.2byte	0x1
 3772 02ed 50       		.byte	0x50
 3773 02ee 3A000000 		.4byte	.LVL40
 3774 02f2 42000000 		.4byte	.LVL42
 3775 02f6 0100     		.2byte	0x1
 3776 02f8 55       		.byte	0x55
 3777 02f9 00000000 		.4byte	0
 3778 02fd 00000000 		.4byte	0
 3779              	.LLST21:
 3780 0301 00000000 		.4byte	.LVL28
 3781 0305 20000000 		.4byte	.LVL29
 3782 0309 0100     		.2byte	0x1
 3783 030b 50       		.byte	0x50
 3784 030c 20000000 		.4byte	.LVL29
 3785 0310 29000000 		.4byte	.LVL30-1
 3786 0314 0300     		.2byte	0x3
 3787 0316 70       		.byte	0x70
 3788 0317 70       		.sleb128 -16
 3789 0318 9F       		.byte	0x9f
 3790 0319 29000000 		.4byte	.LVL30-1
 3791 031d 2E000000 		.4byte	.LVL31
 3792 0321 0400     		.2byte	0x4
 3793 0323 F3       		.byte	0xf3
 3794 0324 01       		.uleb128 0x1
 3795 0325 50       		.byte	0x50
 3796 0326 9F       		.byte	0x9f
 3797 0327 2E000000 		.4byte	.LVL31
 3798 032b 32000000 		.4byte	.LVL32
 3799 032f 0100     		.2byte	0x1
 3800 0331 50       		.byte	0x50
 3801 0332 32000000 		.4byte	.LVL32
 3802 0336 34000000 		.4byte	.LFE11
 3803 033a 0400     		.2byte	0x4
 3804 033c F3       		.byte	0xf3
 3805 033d 01       		.uleb128 0x1
 3806 033e 50       		.byte	0x50
 3807 033f 9F       		.byte	0x9f
 3808 0340 00000000 		.4byte	0
 3809 0344 00000000 		.4byte	0
 3810              	.LLST22:
 3811 0348 00000000 		.4byte	.LVL28
 3812 034c 29000000 		.4byte	.LVL30-1
 3813 0350 0100     		.2byte	0x1
 3814 0352 51       		.byte	0x51
 3815 0353 29000000 		.4byte	.LVL30-1
 3816 0357 2E000000 		.4byte	.LVL31
 3817 035b 0400     		.2byte	0x4
 3818 035d F3       		.byte	0xf3
 3819 035e 01       		.uleb128 0x1
ARM GAS  /tmp/ccPxlM4D.s 			page 68


 3820 035f 51       		.byte	0x51
 3821 0360 9F       		.byte	0x9f
 3822 0361 2E000000 		.4byte	.LVL31
 3823 0365 34000000 		.4byte	.LFE11
 3824 0369 0100     		.2byte	0x1
 3825 036b 51       		.byte	0x51
 3826 036c 00000000 		.4byte	0
 3827 0370 00000000 		.4byte	0
 3828              	.LLST4:
 3829 0374 00000000 		.4byte	.LVL11
 3830 0378 10000000 		.4byte	.LVL14
 3831 037c 0100     		.2byte	0x1
 3832 037e 50       		.byte	0x50
 3833 037f 10000000 		.4byte	.LVL14
 3834 0383 42000000 		.4byte	.LFE9
 3835 0387 0100     		.2byte	0x1
 3836 0389 54       		.byte	0x54
 3837 038a 00000000 		.4byte	0
 3838 038e 00000000 		.4byte	0
 3839              	.LLST5:
 3840 0392 00000000 		.4byte	.LVL11
 3841 0396 0E000000 		.4byte	.LVL13
 3842 039a 0100     		.2byte	0x1
 3843 039c 51       		.byte	0x51
 3844 039d 0E000000 		.4byte	.LVL13
 3845 03a1 42000000 		.4byte	.LFE9
 3846 03a5 0100     		.2byte	0x1
 3847 03a7 56       		.byte	0x56
 3848 03a8 00000000 		.4byte	0
 3849 03ac 00000000 		.4byte	0
 3850              	.LLST6:
 3851 03b0 00000000 		.4byte	.LVL11
 3852 03b4 13000000 		.4byte	.LVL15-1
 3853 03b8 0100     		.2byte	0x1
 3854 03ba 52       		.byte	0x52
 3855 03bb 13000000 		.4byte	.LVL15-1
 3856 03bf 42000000 		.4byte	.LFE9
 3857 03c3 0400     		.2byte	0x4
 3858 03c5 F3       		.byte	0xf3
 3859 03c6 01       		.uleb128 0x1
 3860 03c7 52       		.byte	0x52
 3861 03c8 9F       		.byte	0x9f
 3862 03c9 00000000 		.4byte	0
 3863 03cd 00000000 		.4byte	0
 3864              	.LLST7:
 3865 03d1 0C000000 		.4byte	.LVL12
 3866 03d5 13000000 		.4byte	.LVL15-1
 3867 03d9 0100     		.2byte	0x1
 3868 03db 52       		.byte	0x52
 3869 03dc 13000000 		.4byte	.LVL15-1
 3870 03e0 38000000 		.4byte	.LVL19
 3871 03e4 0400     		.2byte	0x4
 3872 03e6 F3       		.byte	0xf3
 3873 03e7 01       		.uleb128 0x1
 3874 03e8 52       		.byte	0x52
 3875 03e9 9F       		.byte	0x9f
 3876 03ea 00000000 		.4byte	0
ARM GAS  /tmp/ccPxlM4D.s 			page 69


 3877 03ee 00000000 		.4byte	0
 3878              	.LLST8:
 3879 03f2 0C000000 		.4byte	.LVL12
 3880 03f6 0E000000 		.4byte	.LVL13
 3881 03fa 0100     		.2byte	0x1
 3882 03fc 51       		.byte	0x51
 3883 03fd 0E000000 		.4byte	.LVL13
 3884 0401 38000000 		.4byte	.LVL19
 3885 0405 0100     		.2byte	0x1
 3886 0407 56       		.byte	0x56
 3887 0408 00000000 		.4byte	0
 3888 040c 00000000 		.4byte	0
 3889              	.LLST9:
 3890 0410 0C000000 		.4byte	.LVL12
 3891 0414 10000000 		.4byte	.LVL14
 3892 0418 0100     		.2byte	0x1
 3893 041a 50       		.byte	0x50
 3894 041b 10000000 		.4byte	.LVL14
 3895 041f 38000000 		.4byte	.LVL19
 3896 0423 0100     		.2byte	0x1
 3897 0425 54       		.byte	0x54
 3898 0426 00000000 		.4byte	0
 3899 042a 00000000 		.4byte	0
 3900              	.LLST10:
 3901 042e 14000000 		.4byte	.LVL15
 3902 0432 2C000000 		.4byte	.LVL17
 3903 0436 0100     		.2byte	0x1
 3904 0438 50       		.byte	0x50
 3905 0439 2C000000 		.4byte	.LVL17
 3906 043d 38000000 		.4byte	.LVL19
 3907 0441 0100     		.2byte	0x1
 3908 0443 55       		.byte	0x55
 3909 0444 00000000 		.4byte	0
 3910 0448 00000000 		.4byte	0
 3911              	.LLST11:
 3912 044c 18000000 		.4byte	.LVL16
 3913 0450 38000000 		.4byte	.LVL19
 3914 0454 0400     		.2byte	0x4
 3915 0456 F3       		.byte	0xf3
 3916 0457 01       		.uleb128 0x1
 3917 0458 52       		.byte	0x52
 3918 0459 9F       		.byte	0x9f
 3919 045a 00000000 		.4byte	0
 3920 045e 00000000 		.4byte	0
 3921              	.LLST12:
 3922 0462 18000000 		.4byte	.LVL16
 3923 0466 38000000 		.4byte	.LVL19
 3924 046a 0100     		.2byte	0x1
 3925 046c 56       		.byte	0x56
 3926 046d 00000000 		.4byte	0
 3927 0471 00000000 		.4byte	0
 3928              	.LLST13:
 3929 0475 18000000 		.4byte	.LVL16
 3930 0479 38000000 		.4byte	.LVL19
 3931 047d 0100     		.2byte	0x1
 3932 047f 54       		.byte	0x54
 3933 0480 00000000 		.4byte	0
ARM GAS  /tmp/ccPxlM4D.s 			page 70


 3934 0484 00000000 		.4byte	0
 3935              	.LLST3:
 3936 0488 00000000 		.4byte	.LVL6
 3937 048c 18000000 		.4byte	.LVL7
 3938 0490 0100     		.2byte	0x1
 3939 0492 50       		.byte	0x50
 3940 0493 18000000 		.4byte	.LVL7
 3941 0497 32000000 		.4byte	.LFE8
 3942 049b 0100     		.2byte	0x1
 3943 049d 54       		.byte	0x54
 3944 049e 00000000 		.4byte	0
 3945 04a2 00000000 		.4byte	0
 3946              	.LLST0:
 3947 04a6 00000000 		.4byte	.LVL0
 3948 04aa 16000000 		.4byte	.LVL2
 3949 04ae 0100     		.2byte	0x1
 3950 04b0 50       		.byte	0x50
 3951 04b1 16000000 		.4byte	.LVL2
 3952 04b5 24000000 		.4byte	.LVL4
 3953 04b9 0100     		.2byte	0x1
 3954 04bb 54       		.byte	0x54
 3955 04bc 24000000 		.4byte	.LVL4
 3956 04c0 27000000 		.4byte	.LVL5-1
 3957 04c4 0300     		.2byte	0x3
 3958 04c6 70       		.byte	0x70
 3959 04c7 70       		.sleb128 -16
 3960 04c8 9F       		.byte	0x9f
 3961 04c9 27000000 		.4byte	.LVL5-1
 3962 04cd 28000000 		.4byte	.LFE7
 3963 04d1 0400     		.2byte	0x4
 3964 04d3 F3       		.byte	0xf3
 3965 04d4 01       		.uleb128 0x1
 3966 04d5 50       		.byte	0x50
 3967 04d6 9F       		.byte	0x9f
 3968 04d7 00000000 		.4byte	0
 3969 04db 00000000 		.4byte	0
 3970              	.LLST1:
 3971 04df 00000000 		.4byte	.LVL0
 3972 04e3 0A000000 		.4byte	.LVL1
 3973 04e7 0100     		.2byte	0x1
 3974 04e9 51       		.byte	0x51
 3975 04ea 0A000000 		.4byte	.LVL1
 3976 04ee 19000000 		.4byte	.LVL3-1
 3977 04f2 0100     		.2byte	0x1
 3978 04f4 53       		.byte	0x53
 3979 04f5 19000000 		.4byte	.LVL3-1
 3980 04f9 28000000 		.4byte	.LFE7
 3981 04fd 0400     		.2byte	0x4
 3982 04ff F3       		.byte	0xf3
 3983 0500 01       		.uleb128 0x1
 3984 0501 51       		.byte	0x51
 3985 0502 9F       		.byte	0x9f
 3986 0503 00000000 		.4byte	0
 3987 0507 00000000 		.4byte	0
 3988              	.LLST2:
 3989 050b 00000000 		.4byte	.LVL0
 3990 050f 19000000 		.4byte	.LVL3-1
ARM GAS  /tmp/ccPxlM4D.s 			page 71


 3991 0513 0100     		.2byte	0x1
 3992 0515 52       		.byte	0x52
 3993 0516 19000000 		.4byte	.LVL3-1
 3994 051a 28000000 		.4byte	.LFE7
 3995 051e 0400     		.2byte	0x4
 3996 0520 F3       		.byte	0xf3
 3997 0521 01       		.uleb128 0x1
 3998 0522 52       		.byte	0x52
 3999 0523 9F       		.byte	0x9f
 4000 0524 00000000 		.4byte	0
 4001 0528 00000000 		.4byte	0
 4002              	.LLST14:
 4003 052c 00000000 		.4byte	.LVL20
 4004 0530 08000000 		.4byte	.LVL21
 4005 0534 0100     		.2byte	0x1
 4006 0536 50       		.byte	0x50
 4007 0537 08000000 		.4byte	.LVL21
 4008 053b 36000000 		.4byte	.LFE10
 4009 053f 0100     		.2byte	0x1
 4010 0541 54       		.byte	0x54
 4011 0542 00000000 		.4byte	0
 4012 0546 00000000 		.4byte	0
 4013              	.LLST15:
 4014 054a 00000000 		.4byte	.LVL20
 4015 054e 0A000000 		.4byte	.LVL22
 4016 0552 0100     		.2byte	0x1
 4017 0554 51       		.byte	0x51
 4018 0555 0A000000 		.4byte	.LVL22
 4019 0559 36000000 		.4byte	.LFE10
 4020 055d 0100     		.2byte	0x1
 4021 055f 56       		.byte	0x56
 4022 0560 00000000 		.4byte	0
 4023 0564 00000000 		.4byte	0
 4024              	.LLST16:
 4025 0568 00000000 		.4byte	.LVL20
 4026 056c 0D000000 		.4byte	.LVL23-1
 4027 0570 0100     		.2byte	0x1
 4028 0572 52       		.byte	0x52
 4029 0573 0D000000 		.4byte	.LVL23-1
 4030 0577 36000000 		.4byte	.LFE10
 4031 057b 0400     		.2byte	0x4
 4032 057d F3       		.byte	0xf3
 4033 057e 01       		.uleb128 0x1
 4034 057f 52       		.byte	0x52
 4035 0580 9F       		.byte	0x9f
 4036 0581 00000000 		.4byte	0
 4037 0585 00000000 		.4byte	0
 4038              	.LLST17:
 4039 0589 0E000000 		.4byte	.LVL23
 4040 058d 26000000 		.4byte	.LVL25
 4041 0591 0100     		.2byte	0x1
 4042 0593 50       		.byte	0x50
 4043 0594 26000000 		.4byte	.LVL25
 4044 0598 36000000 		.4byte	.LFE10
 4045 059c 0100     		.2byte	0x1
 4046 059e 55       		.byte	0x55
 4047 059f 00000000 		.4byte	0
ARM GAS  /tmp/ccPxlM4D.s 			page 72


 4048 05a3 00000000 		.4byte	0
 4049              	.LLST18:
 4050 05a7 12000000 		.4byte	.LVL24
 4051 05ab 32000000 		.4byte	.LVL27
 4052 05af 0400     		.2byte	0x4
 4053 05b1 F3       		.byte	0xf3
 4054 05b2 01       		.uleb128 0x1
 4055 05b3 52       		.byte	0x52
 4056 05b4 9F       		.byte	0x9f
 4057 05b5 00000000 		.4byte	0
 4058 05b9 00000000 		.4byte	0
 4059              	.LLST19:
 4060 05bd 12000000 		.4byte	.LVL24
 4061 05c1 32000000 		.4byte	.LVL27
 4062 05c5 0100     		.2byte	0x1
 4063 05c7 56       		.byte	0x56
 4064 05c8 00000000 		.4byte	0
 4065 05cc 00000000 		.4byte	0
 4066              	.LLST20:
 4067 05d0 12000000 		.4byte	.LVL24
 4068 05d4 32000000 		.4byte	.LVL27
 4069 05d8 0100     		.2byte	0x1
 4070 05da 54       		.byte	0x54
 4071 05db 00000000 		.4byte	0
 4072 05df 00000000 		.4byte	0
 4073              	.LLST30:
 4074 05e3 00000000 		.4byte	.LVL43
 4075 05e7 08000000 		.4byte	.LVL44
 4076 05eb 0100     		.2byte	0x1
 4077 05ed 50       		.byte	0x50
 4078 05ee 08000000 		.4byte	.LVL44
 4079 05f2 38000000 		.4byte	.LFE13
 4080 05f6 0100     		.2byte	0x1
 4081 05f8 54       		.byte	0x54
 4082 05f9 00000000 		.4byte	0
 4083 05fd 00000000 		.4byte	0
 4084              	.LLST31:
 4085 0601 00000000 		.4byte	.LVL43
 4086 0605 0A000000 		.4byte	.LVL45
 4087 0609 0100     		.2byte	0x1
 4088 060b 51       		.byte	0x51
 4089 060c 0A000000 		.4byte	.LVL45
 4090 0610 38000000 		.4byte	.LFE13
 4091 0614 0100     		.2byte	0x1
 4092 0616 56       		.byte	0x56
 4093 0617 00000000 		.4byte	0
 4094 061b 00000000 		.4byte	0
 4095              	.LLST32:
 4096 061f 00000000 		.4byte	.LVL43
 4097 0623 0D000000 		.4byte	.LVL46-1
 4098 0627 0100     		.2byte	0x1
 4099 0629 52       		.byte	0x52
 4100 062a 0D000000 		.4byte	.LVL46-1
 4101 062e 38000000 		.4byte	.LFE13
 4102 0632 0400     		.2byte	0x4
 4103 0634 F3       		.byte	0xf3
 4104 0635 01       		.uleb128 0x1
ARM GAS  /tmp/ccPxlM4D.s 			page 73


 4105 0636 52       		.byte	0x52
 4106 0637 9F       		.byte	0x9f
 4107 0638 00000000 		.4byte	0
 4108 063c 00000000 		.4byte	0
 4109              	.LLST33:
 4110 0640 0E000000 		.4byte	.LVL46
 4111 0644 24000000 		.4byte	.LVL48
 4112 0648 0100     		.2byte	0x1
 4113 064a 50       		.byte	0x50
 4114 064b 24000000 		.4byte	.LVL48
 4115 064f 30000000 		.4byte	.LVL51
 4116 0653 0100     		.2byte	0x1
 4117 0655 55       		.byte	0x55
 4118 0656 30000000 		.4byte	.LVL51
 4119 065a 38000000 		.4byte	.LFE13
 4120 065e 0100     		.2byte	0x1
 4121 0660 50       		.byte	0x50
 4122 0661 00000000 		.4byte	0
 4123 0665 00000000 		.4byte	0
 4124              	.LLST34:
 4125 0669 12000000 		.4byte	.LVL47
 4126 066d 2C000000 		.4byte	.LVL50
 4127 0671 0400     		.2byte	0x4
 4128 0673 F3       		.byte	0xf3
 4129 0674 01       		.uleb128 0x1
 4130 0675 52       		.byte	0x52
 4131 0676 9F       		.byte	0x9f
 4132 0677 30000000 		.4byte	.LVL51
 4133 067b 38000000 		.4byte	.LFE13
 4134 067f 0400     		.2byte	0x4
 4135 0681 F3       		.byte	0xf3
 4136 0682 01       		.uleb128 0x1
 4137 0683 52       		.byte	0x52
 4138 0684 9F       		.byte	0x9f
 4139 0685 00000000 		.4byte	0
 4140 0689 00000000 		.4byte	0
 4141              	.LLST35:
 4142 068d 12000000 		.4byte	.LVL47
 4143 0691 2C000000 		.4byte	.LVL50
 4144 0695 0100     		.2byte	0x1
 4145 0697 56       		.byte	0x56
 4146 0698 30000000 		.4byte	.LVL51
 4147 069c 38000000 		.4byte	.LFE13
 4148 06a0 0100     		.2byte	0x1
 4149 06a2 56       		.byte	0x56
 4150 06a3 00000000 		.4byte	0
 4151 06a7 00000000 		.4byte	0
 4152              	.LLST36:
 4153 06ab 12000000 		.4byte	.LVL47
 4154 06af 2C000000 		.4byte	.LVL50
 4155 06b3 0100     		.2byte	0x1
 4156 06b5 54       		.byte	0x54
 4157 06b6 30000000 		.4byte	.LVL51
 4158 06ba 38000000 		.4byte	.LFE13
 4159 06be 0100     		.2byte	0x1
 4160 06c0 54       		.byte	0x54
 4161 06c1 00000000 		.4byte	0
ARM GAS  /tmp/ccPxlM4D.s 			page 74


 4162 06c5 00000000 		.4byte	0
 4163              	.LLST49:
 4164 06c9 00000000 		.4byte	.LVL66
 4165 06cd 08000000 		.4byte	.LVL67
 4166 06d1 0100     		.2byte	0x1
 4167 06d3 50       		.byte	0x50
 4168 06d4 08000000 		.4byte	.LVL67
 4169 06d8 38000000 		.4byte	.LFE16
 4170 06dc 0100     		.2byte	0x1
 4171 06de 54       		.byte	0x54
 4172 06df 00000000 		.4byte	0
 4173 06e3 00000000 		.4byte	0
 4174              	.LLST50:
 4175 06e7 00000000 		.4byte	.LVL66
 4176 06eb 0A000000 		.4byte	.LVL68
 4177 06ef 0100     		.2byte	0x1
 4178 06f1 51       		.byte	0x51
 4179 06f2 0A000000 		.4byte	.LVL68
 4180 06f6 38000000 		.4byte	.LFE16
 4181 06fa 0100     		.2byte	0x1
 4182 06fc 56       		.byte	0x56
 4183 06fd 00000000 		.4byte	0
 4184 0701 00000000 		.4byte	0
 4185              	.LLST51:
 4186 0705 00000000 		.4byte	.LVL66
 4187 0709 0D000000 		.4byte	.LVL69-1
 4188 070d 0100     		.2byte	0x1
 4189 070f 52       		.byte	0x52
 4190 0710 0D000000 		.4byte	.LVL69-1
 4191 0714 38000000 		.4byte	.LFE16
 4192 0718 0400     		.2byte	0x4
 4193 071a F3       		.byte	0xf3
 4194 071b 01       		.uleb128 0x1
 4195 071c 52       		.byte	0x52
 4196 071d 9F       		.byte	0x9f
 4197 071e 00000000 		.4byte	0
 4198 0722 00000000 		.4byte	0
 4199              	.LLST52:
 4200 0726 0E000000 		.4byte	.LVL69
 4201 072a 28000000 		.4byte	.LVL71
 4202 072e 0100     		.2byte	0x1
 4203 0730 50       		.byte	0x50
 4204 0731 28000000 		.4byte	.LVL71
 4205 0735 38000000 		.4byte	.LFE16
 4206 0739 0100     		.2byte	0x1
 4207 073b 55       		.byte	0x55
 4208 073c 00000000 		.4byte	0
 4209 0740 00000000 		.4byte	0
 4210              	.LLST53:
 4211 0744 12000000 		.4byte	.LVL70
 4212 0748 34000000 		.4byte	.LVL73
 4213 074c 0400     		.2byte	0x4
 4214 074e F3       		.byte	0xf3
 4215 074f 01       		.uleb128 0x1
 4216 0750 52       		.byte	0x52
 4217 0751 9F       		.byte	0x9f
 4218 0752 00000000 		.4byte	0
ARM GAS  /tmp/ccPxlM4D.s 			page 75


 4219 0756 00000000 		.4byte	0
 4220              	.LLST54:
 4221 075a 12000000 		.4byte	.LVL70
 4222 075e 34000000 		.4byte	.LVL73
 4223 0762 0100     		.2byte	0x1
 4224 0764 56       		.byte	0x56
 4225 0765 00000000 		.4byte	0
 4226 0769 00000000 		.4byte	0
 4227              	.LLST55:
 4228 076d 12000000 		.4byte	.LVL70
 4229 0771 34000000 		.4byte	.LVL73
 4230 0775 0100     		.2byte	0x1
 4231 0777 54       		.byte	0x54
 4232 0778 00000000 		.4byte	0
 4233 077c 00000000 		.4byte	0
 4234              		.section	.debug_aranges,"",%progbits
 4235 0000 6C000000 		.4byte	0x6c
 4236 0004 0200     		.2byte	0x2
 4237 0006 00000000 		.4byte	.Ldebug_info0
 4238 000a 04       		.byte	0x4
 4239 000b 00       		.byte	0
 4240 000c 0000     		.2byte	0
 4241 000e 0000     		.2byte	0
 4242 0010 00000000 		.4byte	.LFB7
 4243 0014 28000000 		.4byte	.LFE7-.LFB7
 4244 0018 00000000 		.4byte	.LFB8
 4245 001c 32000000 		.4byte	.LFE8-.LFB8
 4246 0020 00000000 		.4byte	.LFB9
 4247 0024 42000000 		.4byte	.LFE9-.LFB9
 4248 0028 00000000 		.4byte	.LFB10
 4249 002c 36000000 		.4byte	.LFE10-.LFB10
 4250 0030 00000000 		.4byte	.LFB11
 4251 0034 34000000 		.4byte	.LFE11-.LFB11
 4252 0038 00000000 		.4byte	.LFB12
 4253 003c 4C000000 		.4byte	.LFE12-.LFB12
 4254 0040 00000000 		.4byte	.LFB13
 4255 0044 38000000 		.4byte	.LFE13-.LFB13
 4256 0048 00000000 		.4byte	.LFB14
 4257 004c 30000000 		.4byte	.LFE14-.LFB14
 4258 0050 00000000 		.4byte	.LFB15
 4259 0054 44000000 		.4byte	.LFE15-.LFB15
 4260 0058 00000000 		.4byte	.LFB16
 4261 005c 38000000 		.4byte	.LFE16-.LFB16
 4262 0060 00000000 		.4byte	.LFB17
 4263 0064 36000000 		.4byte	.LFE17-.LFB17
 4264 0068 00000000 		.4byte	0
 4265 006c 00000000 		.4byte	0
 4266              		.section	.debug_ranges,"",%progbits
 4267              	.Ldebug_ranges0:
 4268 0000 02000000 		.4byte	.LBB14
 4269 0004 04000000 		.4byte	.LBE14
 4270 0008 06000000 		.4byte	.LBB15
 4271 000c 0A000000 		.4byte	.LBE15
 4272 0010 00000000 		.4byte	0
 4273 0014 00000000 		.4byte	0
 4274 0018 02000000 		.4byte	.LBB23
 4275 001c 04000000 		.4byte	.LBE23
ARM GAS  /tmp/ccPxlM4D.s 			page 76


 4276 0020 08000000 		.4byte	.LBB24
 4277 0024 0C000000 		.4byte	.LBE24
 4278 0028 00000000 		.4byte	0
 4279 002c 00000000 		.4byte	0
 4280 0030 02000000 		.4byte	.LBB40
 4281 0034 04000000 		.4byte	.LBE40
 4282 0038 08000000 		.4byte	.LBB41
 4283 003c 0C000000 		.4byte	.LBE41
 4284 0040 00000000 		.4byte	0
 4285 0044 00000000 		.4byte	0
 4286 0048 0C000000 		.4byte	.LBB42
 4287 004c 18000000 		.4byte	.LBE42
 4288 0050 22000000 		.4byte	.LBB48
 4289 0054 42000000 		.4byte	.LBE48
 4290 0058 00000000 		.4byte	0
 4291 005c 00000000 		.4byte	0
 4292 0060 18000000 		.4byte	.LBB47
 4293 0064 1E000000 		.4byte	.LBE47
 4294 0068 42000000 		.4byte	.LBB49
 4295 006c 48000000 		.4byte	.LBE49
 4296 0070 00000000 		.4byte	0
 4297 0074 00000000 		.4byte	0
 4298 0078 12000000 		.4byte	.LBB52
 4299 007c 2C000000 		.4byte	.LBE52
 4300 0080 30000000 		.4byte	.LBB55
 4301 0084 38000000 		.4byte	.LBE55
 4302 0088 00000000 		.4byte	0
 4303 008c 00000000 		.4byte	0
 4304 0090 02000000 		.4byte	.LBB62
 4305 0094 04000000 		.4byte	.LBE62
 4306 0098 08000000 		.4byte	.LBB63
 4307 009c 0C000000 		.4byte	.LBE63
 4308 00a0 00000000 		.4byte	0
 4309 00a4 00000000 		.4byte	0
 4310 00a8 00000000 		.4byte	.LFB7
 4311 00ac 28000000 		.4byte	.LFE7
 4312 00b0 00000000 		.4byte	.LFB8
 4313 00b4 32000000 		.4byte	.LFE8
 4314 00b8 00000000 		.4byte	.LFB9
 4315 00bc 42000000 		.4byte	.LFE9
 4316 00c0 00000000 		.4byte	.LFB10
 4317 00c4 36000000 		.4byte	.LFE10
 4318 00c8 00000000 		.4byte	.LFB11
 4319 00cc 34000000 		.4byte	.LFE11
 4320 00d0 00000000 		.4byte	.LFB12
 4321 00d4 4C000000 		.4byte	.LFE12
 4322 00d8 00000000 		.4byte	.LFB13
 4323 00dc 38000000 		.4byte	.LFE13
 4324 00e0 00000000 		.4byte	.LFB14
 4325 00e4 30000000 		.4byte	.LFE14
 4326 00e8 00000000 		.4byte	.LFB15
 4327 00ec 44000000 		.4byte	.LFE15
 4328 00f0 00000000 		.4byte	.LFB16
 4329 00f4 38000000 		.4byte	.LFE16
 4330 00f8 00000000 		.4byte	.LFB17
 4331 00fc 36000000 		.4byte	.LFE17
 4332 0100 00000000 		.4byte	0
ARM GAS  /tmp/ccPxlM4D.s 			page 77


 4333 0104 00000000 		.4byte	0
 4334              		.section	.debug_line,"",%progbits
 4335              	.Ldebug_line0:
 4336 0000 A8020000 		.section	.debug_str,"MS",%progbits,1
 4336      02003E01 
 4336      00000201 
 4336      FB0E0D00 
 4336      01010101 
 4337              	.LASF104:
 4338 0000 63665F6F 		.ascii	"cf_off_older\000"
 4338      66665F6F 
 4338      6C646572 
 4338      00
 4339              	.LASF45:
 4340 000d 705F6D73 		.ascii	"p_msg\000"
 4340      6700
 4341              	.LASF134:
 4342 0013 2E2E2F6F 		.ascii	"../os/kernel/src/chmboxes.c\000"
 4342      732F6B65 
 4342      726E656C 
 4342      2F737263 
 4342      2F63686D 
 4343              	.LASF128:
 4344 002f 63685365 		.ascii	"chSemSignalI\000"
 4344      6D536967 
 4344      6E616C49 
 4344      00
 4345              	.LASF62:
 4346 003c 76745F66 		.ascii	"vt_func\000"
 4346      756E6300 
 4347              	.LASF19:
 4348 0044 75696E74 		.ascii	"uint64_t\000"
 4348      36345F74 
 4348      00
 4349              	.LASF85:
 4350 004d 6D625F72 		.ascii	"mb_rdptr\000"
 4350      64707472 
 4350      00
 4351              	.LASF6:
 4352 0056 5F5F7569 		.ascii	"__uint8_t\000"
 4352      6E74385F 
 4352      7400
 4353              	.LASF123:
 4354 0060 63684D42 		.ascii	"chMBPostI\000"
 4354      506F7374 
 4354      4900
 4355              	.LASF73:
 4356 006a 76746C69 		.ascii	"vtlist\000"
 4356      737400
 4357              	.LASF124:
 4358 0071 63684D42 		.ascii	"chMBPostS\000"
 4358      506F7374 
 4358      5300
 4359              	.LASF88:
 4360 007b 4D61696C 		.ascii	"Mailbox\000"
 4360      626F7800 
 4361              	.LASF119:
ARM GAS  /tmp/ccPxlM4D.s 			page 78


 4362 0083 63684D42 		.ascii	"chMBPostAheadI\000"
 4362      506F7374 
 4362      41686561 
 4362      644900
 4363              	.LASF14:
 4364 0092 6C6F6E67 		.ascii	"long long unsigned int\000"
 4364      206C6F6E 
 4364      6720756E 
 4364      7369676E 
 4364      65642069 
 4365              	.LASF100:
 4366 00a9 63685F74 		.ascii	"ch_threadsize\000"
 4366      68726561 
 4366      6473697A 
 4366      6500
 4367              	.LASF90:
 4368 00b7 65786974 		.ascii	"exitcode\000"
 4368      636F6465 
 4368      00
 4369              	.LASF127:
 4370 00c0 63684D42 		.ascii	"chMBInit\000"
 4370      496E6974 
 4370      00
 4371              	.LASF121:
 4372 00c9 63684D42 		.ascii	"chMBPostAheadS\000"
 4372      506F7374 
 4372      41686561 
 4372      645300
 4373              	.LASF84:
 4374 00d8 6D625F77 		.ascii	"mb_wrptr\000"
 4374      72707472 
 4374      00
 4375              	.LASF33:
 4376 00e1 705F7072 		.ascii	"p_prio\000"
 4376      696F00
 4377              	.LASF107:
 4378 00e8 63665F6F 		.ascii	"cf_off_state\000"
 4378      66665F73 
 4378      74617465 
 4378      00
 4379              	.LASF1:
 4380 00f5 6C6F6E67 		.ascii	"long long int\000"
 4380      206C6F6E 
 4380      6720696E 
 4380      7400
 4381              	.LASF3:
 4382 0103 7369676E 		.ascii	"signed char\000"
 4382      65642063 
 4382      68617200 
 4383              	.LASF106:
 4384 010f 63665F6F 		.ascii	"cf_off_stklimit\000"
 4384      66665F73 
 4384      746B6C69 
 4384      6D697400 
 4385              	.LASF108:
 4386 011f 63665F6F 		.ascii	"cf_off_flags\000"
 4386      66665F66 
ARM GAS  /tmp/ccPxlM4D.s 			page 79


 4386      6C616773 
 4386      00
 4387              	.LASF49:
 4388 012c 705F6D70 		.ascii	"p_mpool\000"
 4388      6F6F6C00 
 4389              	.LASF79:
 4390 0134 6D5F7175 		.ascii	"m_queue\000"
 4390      65756500 
 4391              	.LASF24:
 4392 013c 74736C69 		.ascii	"tslices_t\000"
 4392      6365735F 
 4392      7400
 4393              	.LASF10:
 4394 0146 6C6F6E67 		.ascii	"long int\000"
 4394      20696E74 
 4394      00
 4395              	.LASF22:
 4396 014f 74737461 		.ascii	"tstate_t\000"
 4396      74655F74 
 4396      00
 4397              	.LASF16:
 4398 0158 75696E74 		.ascii	"uint16_t\000"
 4398      31365F74 
 4398      00
 4399              	.LASF112:
 4400 0161 63686465 		.ascii	"chdebug_t\000"
 4400      6275675F 
 4400      7400
 4401              	.LASF35:
 4402 016b 705F6E65 		.ascii	"p_newer\000"
 4402      77657200 
 4403              	.LASF114:
 4404 0173 5F69646C 		.ascii	"_idle_thread_wa\000"
 4404      655F7468 
 4404      72656164 
 4404      5F776100 
 4405              	.LASF76:
 4406 0183 735F7175 		.ascii	"s_queue\000"
 4406      65756500 
 4407              	.LASF129:
 4408 018b 63685363 		.ascii	"chSchRescheduleS\000"
 4408      68526573 
 4408      63686564 
 4408      756C6553 
 4408      00
 4409              	.LASF11:
 4410 019c 5F5F7569 		.ascii	"__uint32_t\000"
 4410      6E743332 
 4410      5F7400
 4411              	.LASF52:
 4412 01a7 72656761 		.ascii	"regarm_t\000"
 4412      726D5F74 
 4412      00
 4413              	.LASF60:
 4414 01b0 76745F70 		.ascii	"vt_prev\000"
 4414      72657600 
 4415              	.LASF29:
ARM GAS  /tmp/ccPxlM4D.s 			page 80


 4416 01b8 636E745F 		.ascii	"cnt_t\000"
 4416      7400
 4417              	.LASF0:
 4418 01be 756E7369 		.ascii	"unsigned int\000"
 4418      676E6564 
 4418      20696E74 
 4418      00
 4419              	.LASF59:
 4420 01cb 76745F6E 		.ascii	"vt_next\000"
 4420      65787400 
 4421              	.LASF12:
 4422 01d3 6C6F6E67 		.ascii	"long unsigned int\000"
 4422      20756E73 
 4422      69676E65 
 4422      6420696E 
 4422      7400
 4423              	.LASF113:
 4424 01e5 63685F64 		.ascii	"ch_debug\000"
 4424      65627567 
 4424      00
 4425              	.LASF87:
 4426 01ee 6D625F65 		.ascii	"mb_emptysem\000"
 4426      6D707479 
 4426      73656D00 
 4427              	.LASF57:
 4428 01fa 76746675 		.ascii	"vtfunc_t\000"
 4428      6E635F74 
 4428      00
 4429              	.LASF94:
 4430 0203 63685F69 		.ascii	"ch_identifier\000"
 4430      64656E74 
 4430      69666965 
 4430      7200
 4431              	.LASF77:
 4432 0211 735F636E 		.ascii	"s_cnt\000"
 4432      7400
 4433              	.LASF55:
 4434 0217 636F6E74 		.ascii	"context\000"
 4434      65787400 
 4435              	.LASF8:
 4436 021f 73686F72 		.ascii	"short unsigned int\000"
 4436      7420756E 
 4436      7369676E 
 4436      65642069 
 4436      6E7400
 4437              	.LASF117:
 4438 0232 63684D42 		.ascii	"chMBFetchI\000"
 4438      46657463 
 4438      684900
 4439              	.LASF26:
 4440 023d 6D73675F 		.ascii	"msg_t\000"
 4440      7400
 4441              	.LASF69:
 4442 0243 725F6E65 		.ascii	"r_newer\000"
 4442      77657200 
 4443              	.LASF120:
 4444 024b 63684D42 		.ascii	"chMBFetchS\000"
ARM GAS  /tmp/ccPxlM4D.s 			page 81


 4444      46657463 
 4444      685300
 4445              	.LASF21:
 4446 0256 746D6F64 		.ascii	"tmode_t\000"
 4446      655F7400 
 4447              	.LASF51:
 4448 025e 54687265 		.ascii	"ThreadsList\000"
 4448      6164734C 
 4448      69737400 
 4449              	.LASF27:
 4450 026a 6576656E 		.ascii	"eventmask_t\000"
 4450      746D6173 
 4450      6B5F7400 
 4451              	.LASF78:
 4452 0276 4D757465 		.ascii	"Mutex\000"
 4452      7800
 4453              	.LASF115:
 4454 027c 6D736770 		.ascii	"msgp\000"
 4454      00
 4455              	.LASF53:
 4456 0281 73746B61 		.ascii	"stkalign_t\000"
 4456      6C69676E 
 4456      5F7400
 4457              	.LASF95:
 4458 028c 63685F7A 		.ascii	"ch_zero\000"
 4458      65726F00 
 4459              	.LASF109:
 4460 0294 63665F6F 		.ascii	"cf_off_refs\000"
 4460      66665F72 
 4460      65667300 
 4461              	.LASF61:
 4462 02a0 76745F74 		.ascii	"vt_time\000"
 4462      696D6500 
 4463              	.LASF133:
 4464 02a8 474E5520 		.ascii	"GNU C11 6.3.1 20170620 -mcpu=cortex-m3 -mno-thumb-i"
 4464      43313120 
 4464      362E332E 
 4464      31203230 
 4464      31373036 
 4465 02db 6E746572 		.ascii	"nterwork -mthumb -ggdb -O2 -fomit-frame-pointer -ff"
 4465      776F726B 
 4465      202D6D74 
 4465      68756D62 
 4465      202D6767 
 4466 030e 756E6374 		.ascii	"unction-sections -fdata-sections -fno-common\000"
 4466      696F6E2D 
 4466      73656374 
 4466      696F6E73 
 4466      202D6664 
 4467              	.LASF56:
 4468 033b 73697A65 		.ascii	"sizetype\000"
 4468      74797065 
 4468      00
 4469              	.LASF2:
 4470 0344 6C6F6E67 		.ascii	"long double\000"
 4470      20646F75 
 4470      626C6500 
ARM GAS  /tmp/ccPxlM4D.s 			page 82


 4471              	.LASF99:
 4472 0350 63685F74 		.ascii	"ch_timesize\000"
 4472      696D6573 
 4472      697A6500 
 4473              	.LASF126:
 4474 035c 63684D42 		.ascii	"chMBReset\000"
 4474      52657365 
 4474      7400
 4475              	.LASF105:
 4476 0366 63665F6F 		.ascii	"cf_off_name\000"
 4476      66665F6E 
 4476      616D6500 
 4477              	.LASF36:
 4478 0372 705F6F6C 		.ascii	"p_older\000"
 4478      64657200 
 4479              	.LASF68:
 4480 037a 725F6374 		.ascii	"r_ctx\000"
 4480      7800
 4481              	.LASF50:
 4482 0380 54687265 		.ascii	"ThreadsQueue\000"
 4482      61647351 
 4482      75657565 
 4482      00
 4483              	.LASF96:
 4484 038d 63685F73 		.ascii	"ch_size\000"
 4484      697A6500 
 4485              	.LASF82:
 4486 0395 6D625F62 		.ascii	"mb_buffer\000"
 4486      75666665 
 4486      7200
 4487              	.LASF116:
 4488 039f 74696D65 		.ascii	"time\000"
 4488      00
 4489              	.LASF71:
 4490 03a4 725F6375 		.ascii	"r_current\000"
 4490      7272656E 
 4490      7400
 4491              	.LASF70:
 4492 03ae 725F6F6C 		.ascii	"r_older\000"
 4492      64657200 
 4493              	.LASF13:
 4494 03b6 5F5F7569 		.ascii	"__uint64_t\000"
 4494      6E743634 
 4494      5F7400
 4495              	.LASF23:
 4496 03c1 74726566 		.ascii	"trefs_t\000"
 4496      735F7400 
 4497              	.LASF98:
 4498 03c9 63685F70 		.ascii	"ch_ptrsize\000"
 4498      74727369 
 4498      7A6500
 4499              	.LASF32:
 4500 03d4 705F7072 		.ascii	"p_prev\000"
 4500      657600
 4501              	.LASF25:
 4502 03db 74707269 		.ascii	"tprio_t\000"
 4502      6F5F7400 
ARM GAS  /tmp/ccPxlM4D.s 			page 83


 4503              	.LASF20:
 4504 03e3 5F426F6F 		.ascii	"_Bool\000"
 4504      6C00
 4505              	.LASF17:
 4506 03e9 696E7433 		.ascii	"int32_t\000"
 4506      325F7400 
 4507              	.LASF4:
 4508 03f1 756E7369 		.ascii	"unsigned char\000"
 4508      676E6564 
 4508      20636861 
 4508      7200
 4509              	.LASF83:
 4510 03ff 6D625F74 		.ascii	"mb_top\000"
 4510      6F7000
 4511              	.LASF47:
 4512 0406 705F6D74 		.ascii	"p_mtxlist\000"
 4512      786C6973 
 4512      7400
 4513              	.LASF5:
 4514 0410 73686F72 		.ascii	"short int\000"
 4514      7420696E 
 4514      7400
 4515              	.LASF38:
 4516 041a 705F7374 		.ascii	"p_state\000"
 4516      61746500 
 4517              	.LASF41:
 4518 0422 705F7072 		.ascii	"p_preempt\000"
 4518      65656D70 
 4518      7400
 4519              	.LASF111:
 4520 042c 63665F6F 		.ascii	"cf_off_time\000"
 4520      66665F74 
 4520      696D6500 
 4521              	.LASF67:
 4522 0438 725F7072 		.ascii	"r_prio\000"
 4522      696F00
 4523              	.LASF92:
 4524 043f 65776D61 		.ascii	"ewmask\000"
 4524      736B00
 4525              	.LASF31:
 4526 0446 705F6E65 		.ascii	"p_next\000"
 4526      787400
 4527              	.LASF110:
 4528 044d 63665F6F 		.ascii	"cf_off_preempt\000"
 4528      66665F70 
 4528      7265656D 
 4528      707400
 4529              	.LASF39:
 4530 045c 705F666C 		.ascii	"p_flags\000"
 4530      61677300 
 4531              	.LASF125:
 4532 0464 63684D42 		.ascii	"chMBPost\000"
 4532      506F7374 
 4532      00
 4533              	.LASF30:
 4534 046d 54687265 		.ascii	"Thread\000"
 4534      616400
ARM GAS  /tmp/ccPxlM4D.s 			page 84


 4535              	.LASF103:
 4536 0474 63665F6F 		.ascii	"cf_off_newer\000"
 4536      66665F6E 
 4536      65776572 
 4536      00
 4537              	.LASF46:
 4538 0481 705F6570 		.ascii	"p_epending\000"
 4538      656E6469 
 4538      6E6700
 4539              	.LASF18:
 4540 048c 75696E74 		.ascii	"uint32_t\000"
 4540      33325F74 
 4540      00
 4541              	.LASF101:
 4542 0495 63665F6F 		.ascii	"cf_off_prio\000"
 4542      66665F70 
 4542      72696F00 
 4543              	.LASF66:
 4544 04a1 725F7175 		.ascii	"r_queue\000"
 4544      65756500 
 4545              	.LASF58:
 4546 04a9 56697274 		.ascii	"VirtualTimer\000"
 4546      75616C54 
 4546      696D6572 
 4546      00
 4547              	.LASF93:
 4548 04b6 63686172 		.ascii	"char\000"
 4548      00
 4549              	.LASF130:
 4550 04bb 63685365 		.ascii	"chSemWaitTimeoutS\000"
 4550      6D576169 
 4550      7454696D 
 4550      656F7574 
 4550      5300
 4551              	.LASF7:
 4552 04cd 5F5F7569 		.ascii	"__uint16_t\000"
 4552      6E743136 
 4552      5F7400
 4553              	.LASF81:
 4554 04d8 6D5F6E65 		.ascii	"m_next\000"
 4554      787400
 4555              	.LASF28:
 4556 04df 73797374 		.ascii	"systime_t\000"
 4556      696D655F 
 4556      7400
 4557              	.LASF48:
 4558 04e9 705F7265 		.ascii	"p_realprio\000"
 4558      616C7072 
 4558      696F00
 4559              	.LASF9:
 4560 04f4 5F5F696E 		.ascii	"__int32_t\000"
 4560      7433325F 
 4560      7400
 4561              	.LASF42:
 4562 04fe 705F7469 		.ascii	"p_time\000"
 4562      6D6500
 4563              	.LASF122:
ARM GAS  /tmp/ccPxlM4D.s 			page 85


 4564 0505 63684D42 		.ascii	"chMBPostAhead\000"
 4564      506F7374 
 4564      41686561 
 4564      6400
 4565              	.LASF54:
 4566 0513 696E7463 		.ascii	"intctx\000"
 4566      747800
 4567              	.LASF44:
 4568 051a 705F6D73 		.ascii	"p_msgqueue\000"
 4568      67717565 
 4568      756500
 4569              	.LASF118:
 4570 0525 63684D42 		.ascii	"chMBFetch\000"
 4570      46657463 
 4570      6800
 4571              	.LASF63:
 4572 052f 76745F70 		.ascii	"vt_par\000"
 4572      617200
 4573              	.LASF75:
 4574 0536 53656D61 		.ascii	"Semaphore\000"
 4574      70686F72 
 4574      6500
 4575              	.LASF86:
 4576 0540 6D625F66 		.ascii	"mb_fullsem\000"
 4576      756C6C73 
 4576      656D00
 4577              	.LASF102:
 4578 054b 63665F6F 		.ascii	"cf_off_ctx\000"
 4578      66665F63 
 4578      747800
 4579              	.LASF89:
 4580 0556 7264796D 		.ascii	"rdymsg\000"
 4580      736700
 4581              	.LASF40:
 4582 055d 705F7265 		.ascii	"p_refs\000"
 4582      667300
 4583              	.LASF72:
 4584 0564 52656164 		.ascii	"ReadyList\000"
 4584      794C6973 
 4584      7400
 4585              	.LASF131:
 4586 056e 63685365 		.ascii	"chSemResetI\000"
 4586      6D526573 
 4586      65744900 
 4587              	.LASF74:
 4588 057a 726C6973 		.ascii	"rlist\000"
 4588      7400
 4589              	.LASF15:
 4590 0580 75696E74 		.ascii	"uint8_t\000"
 4590      385F7400 
 4591              	.LASF91:
 4592 0588 77746F62 		.ascii	"wtobjp\000"
 4592      6A7000
 4593              	.LASF37:
 4594 058f 705F6E61 		.ascii	"p_name\000"
 4594      6D6500
 4595              	.LASF64:
ARM GAS  /tmp/ccPxlM4D.s 			page 86


 4596 0596 76745F73 		.ascii	"vt_systime\000"
 4596      79737469 
 4596      6D6500
 4597              	.LASF97:
 4598 05a1 63685F76 		.ascii	"ch_version\000"
 4598      65727369 
 4598      6F6E00
 4599              	.LASF135:
 4600 05ac 2F686F6D 		.ascii	"/home/ekobayu/Arok-Gandring-Lokajaya/LPC/ChibiOS-RT"
 4600      652F656B 
 4600      6F626179 
 4600      752F4172 
 4600      6F6B2D47 
 4601 05df 2D4C5043 		.ascii	"-LPC/Chibi_LPC1766\000"
 4601      2F436869 
 4601      62695F4C 
 4601      50433137 
 4601      363600
 4602              	.LASF65:
 4603 05f2 56544C69 		.ascii	"VTList\000"
 4603      737400
 4604              	.LASF80:
 4605 05f9 6D5F6F77 		.ascii	"m_owner\000"
 4605      6E657200 
 4606              	.LASF34:
 4607 0601 705F6374 		.ascii	"p_ctx\000"
 4607      7800
 4608              	.LASF43:
 4609 0607 705F7761 		.ascii	"p_waiting\000"
 4609      6974696E 
 4609      6700
 4610              	.LASF132:
 4611 0611 63685365 		.ascii	"chSemInit\000"
 4611      6D496E69 
 4611      7400
 4612              		.ident	"GCC: (15:6.3.1+svn253039-1build1) 6.3.1 20170620"
ARM GAS  /tmp/ccPxlM4D.s 			page 87


DEFINED SYMBOLS
                            *ABS*:0000000000000000 chmboxes.c
     /tmp/ccPxlM4D.s:16     .text.chMBInit:0000000000000000 $t
     /tmp/ccPxlM4D.s:24     .text.chMBInit:0000000000000000 chMBInit
     /tmp/ccPxlM4D.s:69     .text.chMBReset:0000000000000000 $t
     /tmp/ccPxlM4D.s:77     .text.chMBReset:0000000000000000 chMBReset
     /tmp/ccPxlM4D.s:142    .text.chMBPost:0000000000000000 $t
     /tmp/ccPxlM4D.s:150    .text.chMBPost:0000000000000000 chMBPost
     /tmp/ccPxlM4D.s:244    .text.chMBPostS:0000000000000000 $t
     /tmp/ccPxlM4D.s:252    .text.chMBPostS:0000000000000000 chMBPostS
     /tmp/ccPxlM4D.s:318    .text.chMBPostI:0000000000000000 $t
     /tmp/ccPxlM4D.s:326    .text.chMBPostI:0000000000000000 chMBPostI
     /tmp/ccPxlM4D.s:384    .text.chMBPostAhead:0000000000000000 $t
     /tmp/ccPxlM4D.s:392    .text.chMBPostAhead:0000000000000000 chMBPostAhead
     /tmp/ccPxlM4D.s:499    .text.chMBPostAheadS:0000000000000000 $t
     /tmp/ccPxlM4D.s:507    .text.chMBPostAheadS:0000000000000000 chMBPostAheadS
     /tmp/ccPxlM4D.s:575    .text.chMBPostAheadI:0000000000000000 $t
     /tmp/ccPxlM4D.s:583    .text.chMBPostAheadI:0000000000000000 chMBPostAheadI
     /tmp/ccPxlM4D.s:641    .text.chMBFetch:0000000000000000 $t
     /tmp/ccPxlM4D.s:649    .text.chMBFetch:0000000000000000 chMBFetch
     /tmp/ccPxlM4D.s:744    .text.chMBFetchS:0000000000000000 $t
     /tmp/ccPxlM4D.s:752    .text.chMBFetchS:0000000000000000 chMBFetchS
     /tmp/ccPxlM4D.s:819    .text.chMBFetchI:0000000000000000 $t
     /tmp/ccPxlM4D.s:827    .text.chMBFetchI:0000000000000000 chMBFetchI
                     .debug_frame:0000000000000010 $d

UNDEFINED SYMBOLS
chSemInit
chSemResetI
chSchRescheduleS
chSemWaitTimeoutS
chSemSignalI
