ARM GAS  /tmp/ccPxlM4D.s 			page 1


   1              		.cpu cortex-m3
   2              		.eabi_attribute 20, 1
   3              		.eabi_attribute 21, 1
   4              		.eabi_attribute 23, 3
   5              		.eabi_attribute 24, 1
   6              		.eabi_attribute 25, 1
   7              		.eabi_attribute 26, 1
   8              		.eabi_attribute 30, 2
   9              		.eabi_attribute 34, 1
  10              		.eabi_attribute 18, 4
  11              		.file	"chmboxes.c"
  12              		.text
  13              	.Ltext0:
  14              		.cfi_sections	.debug_frame
  15              		.section	.text.chMBInit,"ax",%progbits
  16              		.align	1
  17              		.p2align 2,,3
  18              		.global	chMBInit
  19              		.syntax unified
  20              		.thumb
  21              		.thumb_func
  22              		.fpu softvfp
  23              		.type	chMBInit, %function
  24              	chMBInit:
  25              	.LFB7:
  26              		.file 1 "../os/kernel/src/chmboxes.c"
  27              		.loc 1 65 0
  28              		.cfi_startproc
  29              		@ args = 0, pretend = 0, frame = 0
  30              		@ frame_needed = 0, uses_anonymous_args = 0
  31              	.LVL0:
  32 0000 0B46     		mov	r3, r1
  33 0002 10B5     		push	{r4, lr}
  34              		.cfi_def_cfa_offset 8
  35              		.cfi_offset 4, -8
  36              		.cfi_offset 14, -4
  37              		.loc 1 65 0
  38 0004 0446     		mov	r4, r0
  39              		.loc 1 70 0
  40 0006 01EB8201 		add	r1, r1, r2, lsl #2
  41              	.LVL1:
  42 000a 4160     		str	r1, [r0, #4]
  43              		.loc 1 69 0
  44 000c C360     		str	r3, [r0, #12]
  45 000e 8360     		str	r3, [r0, #8]
  46 0010 0360     		str	r3, [r0]
  47              		.loc 1 71 0
  48 0012 1146     		mov	r1, r2
  49 0014 1C30     		adds	r0, r0, #28
  50              	.LVL2:
  51 0016 FFF7FEFF 		bl	chSemInit
  52              	.LVL3:
  53              		.loc 1 72 0
  54 001a 04F11000 		add	r0, r4, #16
  55 001e 0021     		movs	r1, #0
  56              		.loc 1 73 0
  57 0020 BDE81040 		pop	{r4, lr}
ARM GAS  /tmp/ccPxlM4D.s 			page 2


  58              		.cfi_restore 14
  59              		.cfi_restore 4
  60              		.cfi_def_cfa_offset 0
  61              	.LVL4:
  62              		.loc 1 72 0
  63 0024 FFF7FEBF 		b	chSemInit
  64              	.LVL5:
  65              		.cfi_endproc
  66              	.LFE7:
  67              		.size	chMBInit, .-chMBInit
  68              		.section	.text.chMBReset,"ax",%progbits
  69              		.align	1
  70              		.p2align 2,,3
  71              		.global	chMBReset
  72              		.syntax unified
  73              		.thumb
  74              		.thumb_func
  75              		.fpu softvfp
  76              		.type	chMBReset, %function
  77              	chMBReset:
  78              	.LFB8:
  79              		.loc 1 84 0
  80              		.cfi_startproc
  81              		@ args = 0, pretend = 0, frame = 0
  82              		@ frame_needed = 0, uses_anonymous_args = 0
  83              	.LVL6:
  84 0000 10B5     		push	{r4, lr}
  85              		.cfi_def_cfa_offset 8
  86              		.cfi_offset 4, -8
  87              		.cfi_offset 14, -4
  88              	.LBB14:
  89              		.loc 1 88 0
  90 0002 4023     		movs	r3, #64
  91              	.LBE14:
  92              		.loc 1 84 0
  93 0004 0446     		mov	r4, r0
  94              	.LBB15:
  95              		.loc 1 88 0
  96              		.syntax unified
  97              	@ 88 "../os/kernel/src/chmboxes.c" 1
  98 0006 83F31188 		msr     BASEPRI, r3
  99              	@ 0 "" 2
 100              		.thumb
 101              		.syntax unified
 102              	.LBE15:
 103              		.loc 1 89 0
 104 000a 0368     		ldr	r3, [r0]
 105              		.loc 1 90 0
 106 000c 4168     		ldr	r1, [r0, #4]
 107              		.loc 1 89 0
 108 000e C360     		str	r3, [r0, #12]
 109              		.loc 1 90 0
 110 0010 C91A     		subs	r1, r1, r3
 111              		.loc 1 89 0
 112 0012 8360     		str	r3, [r0, #8]
 113              		.loc 1 90 0
 114 0014 8910     		asrs	r1, r1, #2
ARM GAS  /tmp/ccPxlM4D.s 			page 3


 115 0016 1C30     		adds	r0, r0, #28
 116              	.LVL7:
 117 0018 FFF7FEFF 		bl	chSemResetI
 118              	.LVL8:
 119              		.loc 1 91 0
 120 001c 04F11000 		add	r0, r4, #16
 121 0020 0021     		movs	r1, #0
 122 0022 FFF7FEFF 		bl	chSemResetI
 123              	.LVL9:
 124              		.loc 1 92 0
 125 0026 FFF7FEFF 		bl	chSchRescheduleS
 126              	.LVL10:
 127              	.LBB16:
 128              		.loc 1 93 0
 129 002a 0023     		movs	r3, #0
 130              		.syntax unified
 131              	@ 93 "../os/kernel/src/chmboxes.c" 1
 132 002c 83F31188 		msr     BASEPRI, r3
 133              	@ 0 "" 2
 134              		.thumb
 135              		.syntax unified
 136 0030 10BD     		pop	{r4, pc}
 137              	.LBE16:
 138              		.cfi_endproc
 139              	.LFE8:
 140              		.size	chMBReset, .-chMBReset
 141 0032 00BF     		.section	.text.chMBPost,"ax",%progbits
 142              		.align	1
 143              		.p2align 2,,3
 144              		.global	chMBPost
 145              		.syntax unified
 146              		.thumb
 147              		.thumb_func
 148              		.fpu softvfp
 149              		.type	chMBPost, %function
 150              	chMBPost:
 151              	.LFB9:
 152              		.loc 1 115 0
 153              		.cfi_startproc
 154              		@ args = 0, pretend = 0, frame = 0
 155              		@ frame_needed = 0, uses_anonymous_args = 0
 156              	.LVL11:
 157 0000 70B5     		push	{r4, r5, r6, lr}
 158              		.cfi_def_cfa_offset 16
 159              		.cfi_offset 4, -16
 160              		.cfi_offset 5, -12
 161              		.cfi_offset 6, -8
 162              		.cfi_offset 14, -4
 163              	.LBB23:
 164              		.loc 1 118 0
 165 0002 4023     		movs	r3, #64
 166              	.LBE23:
 167              		.loc 1 115 0
 168 0004 0446     		mov	r4, r0
 169 0006 0E46     		mov	r6, r1
 170              	.LBB24:
 171              		.loc 1 118 0
ARM GAS  /tmp/ccPxlM4D.s 			page 4


 172              		.syntax unified
 173              	@ 118 "../os/kernel/src/chmboxes.c" 1
 174 0008 83F31188 		msr     BASEPRI, r3
 175              	@ 0 "" 2
 176              	.LVL12:
 177              		.thumb
 178              		.syntax unified
 179              	.LBE24:
 180              	.LBB25:
 181              	.LBB26:
 182              		.loc 1 149 0
 183 000c 1146     		mov	r1, r2
 184              	.LVL13:
 185 000e 1C30     		adds	r0, r0, #28
 186              	.LVL14:
 187 0010 FFF7FEFF 		bl	chSemWaitTimeoutS
 188              	.LVL15:
 189              		.loc 1 150 0
 190 0014 0546     		mov	r5, r0
 191 0016 78B9     		cbnz	r0, .L6
 192              	.LVL16:
 193              	.LBB27:
 194              	.LBB28:
 195              		.loc 1 151 0
 196 0018 A268     		ldr	r2, [r4, #8]
 197              		.loc 1 152 0
 198 001a 6168     		ldr	r1, [r4, #4]
 199              		.loc 1 151 0
 200 001c 131D     		adds	r3, r2, #4
 201              		.loc 1 152 0
 202 001e 8B42     		cmp	r3, r1
 203              		.loc 1 151 0
 204 0020 A360     		str	r3, [r4, #8]
 205              		.loc 1 153 0
 206 0022 28BF     		it	cs
 207 0024 2368     		ldrcs	r3, [r4]
 208              		.loc 1 151 0
 209 0026 1660     		str	r6, [r2]
 210              		.loc 1 154 0
 211 0028 04F11000 		add	r0, r4, #16
 212              	.LVL17:
 213              		.loc 1 153 0
 214 002c 28BF     		it	cs
 215 002e A360     		strcs	r3, [r4, #8]
 216              		.loc 1 154 0
 217 0030 FFF7FEFF 		bl	chSemSignalI
 218              	.LVL18:
 219              		.loc 1 155 0
 220 0034 FFF7FEFF 		bl	chSchRescheduleS
 221              	.LVL19:
 222              	.L6:
 223              	.LBE28:
 224              	.LBE27:
 225              	.LBE26:
 226              	.LBE25:
 227              	.LBB29:
 228              		.loc 1 120 0
ARM GAS  /tmp/ccPxlM4D.s 			page 5


 229 0038 0023     		movs	r3, #0
 230              		.syntax unified
 231              	@ 120 "../os/kernel/src/chmboxes.c" 1
 232 003a 83F31188 		msr     BASEPRI, r3
 233              	@ 0 "" 2
 234              		.thumb
 235              		.syntax unified
 236              	.LBE29:
 237              		.loc 1 122 0
 238 003e 2846     		mov	r0, r5
 239 0040 70BD     		pop	{r4, r5, r6, pc}
 240              		.cfi_endproc
 241              	.LFE9:
 242              		.size	chMBPost, .-chMBPost
 243 0042 00BF     		.section	.text.chMBPostS,"ax",%progbits
 244              		.align	1
 245              		.p2align 2,,3
 246              		.global	chMBPostS
 247              		.syntax unified
 248              		.thumb
 249              		.thumb_func
 250              		.fpu softvfp
 251              		.type	chMBPostS, %function
 252              	chMBPostS:
 253              	.LFB10:
 254              		.loc 1 143 0
 255              		.cfi_startproc
 256              		@ args = 0, pretend = 0, frame = 0
 257              		@ frame_needed = 0, uses_anonymous_args = 0
 258              	.LVL20:
 259 0000 70B5     		push	{r4, r5, r6, lr}
 260              		.cfi_def_cfa_offset 16
 261              		.cfi_offset 4, -16
 262              		.cfi_offset 5, -12
 263              		.cfi_offset 6, -8
 264              		.cfi_offset 14, -4
 265              		.loc 1 143 0
 266 0002 0446     		mov	r4, r0
 267 0004 0E46     		mov	r6, r1
 268              		.loc 1 149 0
 269 0006 1C30     		adds	r0, r0, #28
 270              	.LVL21:
 271 0008 1146     		mov	r1, r2
 272              	.LVL22:
 273 000a FFF7FEFF 		bl	chSemWaitTimeoutS
 274              	.LVL23:
 275              		.loc 1 150 0
 276 000e 0546     		mov	r5, r0
 277 0010 78B9     		cbnz	r0, .L10
 278              	.LVL24:
 279              	.LBB32:
 280              	.LBB33:
 281              		.loc 1 151 0
 282 0012 A268     		ldr	r2, [r4, #8]
 283              		.loc 1 152 0
 284 0014 6168     		ldr	r1, [r4, #4]
 285              		.loc 1 151 0
ARM GAS  /tmp/ccPxlM4D.s 			page 6


 286 0016 131D     		adds	r3, r2, #4
 287              		.loc 1 152 0
 288 0018 8B42     		cmp	r3, r1
 289              		.loc 1 151 0
 290 001a A360     		str	r3, [r4, #8]
 291              		.loc 1 153 0
 292 001c 28BF     		it	cs
 293 001e 2368     		ldrcs	r3, [r4]
 294              		.loc 1 151 0
 295 0020 1660     		str	r6, [r2]
 296              		.loc 1 154 0
 297 0022 04F11000 		add	r0, r4, #16
 298              	.LVL25:
 299              		.loc 1 153 0
 300 0026 28BF     		it	cs
 301 0028 A360     		strcs	r3, [r4, #8]
 302              		.loc 1 154 0
 303 002a FFF7FEFF 		bl	chSemSignalI
 304              	.LVL26:
 305              		.loc 1 155 0
 306 002e FFF7FEFF 		bl	chSchRescheduleS
 307              	.LVL27:
 308              	.L10:
 309              	.LBE33:
 310              	.LBE32:
 311              		.loc 1 158 0
 312 0032 2846     		mov	r0, r5
 313 0034 70BD     		pop	{r4, r5, r6, pc}
 314              		.cfi_endproc
 315              	.LFE10:
 316              		.size	chMBPostS, .-chMBPostS
 317 0036 00BF     		.section	.text.chMBPostI,"ax",%progbits
 318              		.align	1
 319              		.p2align 2,,3
 320              		.global	chMBPostI
 321              		.syntax unified
 322              		.thumb
 323              		.thumb_func
 324              		.fpu softvfp
 325              		.type	chMBPostI, %function
 326              	chMBPostI:
 327              	.LFB11:
 328              		.loc 1 174 0
 329              		.cfi_startproc
 330              		@ args = 0, pretend = 0, frame = 0
 331              		@ frame_needed = 0, uses_anonymous_args = 0
 332              	.LVL28:
 333 0000 38B5     		push	{r3, r4, r5, lr}
 334              		.cfi_def_cfa_offset 16
 335              		.cfi_offset 3, -16
 336              		.cfi_offset 4, -12
 337              		.cfi_offset 5, -8
 338              		.cfi_offset 14, -4
 339              		.loc 1 179 0
 340 0002 436A     		ldr	r3, [r0, #36]
 341 0004 002B     		cmp	r3, #0
 342 0006 12DD     		ble	.L17
ARM GAS  /tmp/ccPxlM4D.s 			page 7


 343              		.loc 1 182 0
 344 0008 8468     		ldr	r4, [r0, #8]
 345              		.loc 1 183 0
 346 000a 4568     		ldr	r5, [r0, #4]
 347              		.loc 1 182 0
 348 000c 221D     		adds	r2, r4, #4
 349              		.loc 1 181 0
 350 000e 013B     		subs	r3, r3, #1
 351              		.loc 1 183 0
 352 0010 AA42     		cmp	r2, r5
 353              		.loc 1 181 0
 354 0012 4362     		str	r3, [r0, #36]
 355              		.loc 1 184 0
 356 0014 28BF     		it	cs
 357 0016 0368     		ldrcs	r3, [r0]
 358              		.loc 1 182 0
 359 0018 8260     		str	r2, [r0, #8]
 360 001a 2160     		str	r1, [r4]
 361              		.loc 1 185 0
 362 001c 00F11000 		add	r0, r0, #16
 363              	.LVL29:
 364              		.loc 1 184 0
 365 0020 28BF     		it	cs
 366 0022 40F8083C 		strcs	r3, [r0, #-8]
 367              		.loc 1 185 0
 368 0026 FFF7FEFF 		bl	chSemSignalI
 369              	.LVL30:
 370              		.loc 1 186 0
 371 002a 0020     		movs	r0, #0
 372 002c 38BD     		pop	{r3, r4, r5, pc}
 373              	.LVL31:
 374              	.L17:
 375              		.loc 1 180 0
 376 002e 4FF0FF30 		mov	r0, #-1
 377              	.LVL32:
 378              		.loc 1 187 0
 379 0032 38BD     		pop	{r3, r4, r5, pc}
 380              		.cfi_endproc
 381              	.LFE11:
 382              		.size	chMBPostI, .-chMBPostI
 383              		.section	.text.chMBPostAhead,"ax",%progbits
 384              		.align	1
 385              		.p2align 2,,3
 386              		.global	chMBPostAhead
 387              		.syntax unified
 388              		.thumb
 389              		.thumb_func
 390              		.fpu softvfp
 391              		.type	chMBPostAhead, %function
 392              	chMBPostAhead:
 393              	.LFB12:
 394              		.loc 1 208 0
 395              		.cfi_startproc
 396              		@ args = 0, pretend = 0, frame = 0
 397              		@ frame_needed = 0, uses_anonymous_args = 0
 398              	.LVL33:
 399 0000 70B5     		push	{r4, r5, r6, lr}
ARM GAS  /tmp/ccPxlM4D.s 			page 8


 400              		.cfi_def_cfa_offset 16
 401              		.cfi_offset 4, -16
 402              		.cfi_offset 5, -12
 403              		.cfi_offset 6, -8
 404              		.cfi_offset 14, -4
 405              	.LBB40:
 406              		.loc 1 211 0
 407 0002 4023     		movs	r3, #64
 408              	.LBE40:
 409              		.loc 1 208 0
 410 0004 0446     		mov	r4, r0
 411 0006 0E46     		mov	r6, r1
 412              	.LBB41:
 413              		.loc 1 211 0
 414              		.syntax unified
 415              	@ 211 "../os/kernel/src/chmboxes.c" 1
 416 0008 83F31188 		msr     BASEPRI, r3
 417              	@ 0 "" 2
 418              	.LVL34:
 419              		.thumb
 420              		.syntax unified
 421              	.LBE41:
 422              	.LBB42:
 423              	.LBB43:
 424              		.loc 1 242 0
 425 000c 1146     		mov	r1, r2
 426              	.LVL35:
 427 000e 1C30     		adds	r0, r0, #28
 428              	.LVL36:
 429 0010 FFF7FEFF 		bl	chSemWaitTimeoutS
 430              	.LVL37:
 431              		.loc 1 243 0
 432 0014 0546     		mov	r5, r0
 433 0016 20B1     		cbz	r0, .L23
 434              	.LVL38:
 435              	.LBE43:
 436              	.LBE42:
 437              	.LBB47:
 438              		.loc 1 213 0
 439 0018 0023     		movs	r3, #0
 440              		.syntax unified
 441              	@ 213 "../os/kernel/src/chmboxes.c" 1
 442 001a 83F31188 		msr     BASEPRI, r3
 443              	@ 0 "" 2
 444              		.thumb
 445              		.syntax unified
 446              	.LBE47:
 447              		.loc 1 215 0
 448 001e 2846     		mov	r0, r5
 449 0020 70BD     		pop	{r4, r5, r6, pc}
 450              	.LVL39:
 451              	.L23:
 452              	.LBB48:
 453              	.LBB46:
 454              	.LBB44:
 455              	.LBB45:
 456              		.loc 1 244 0
ARM GAS  /tmp/ccPxlM4D.s 			page 9


 457 0022 E368     		ldr	r3, [r4, #12]
 458 0024 2268     		ldr	r2, [r4]
 459 0026 043B     		subs	r3, r3, #4
 460 0028 9342     		cmp	r3, r2
 461 002a E360     		str	r3, [r4, #12]
 462 002c 02D2     		bcs	.L21
 463              		.loc 1 245 0
 464 002e 6368     		ldr	r3, [r4, #4]
 465 0030 043B     		subs	r3, r3, #4
 466 0032 E360     		str	r3, [r4, #12]
 467              	.L21:
 468              		.loc 1 246 0
 469 0034 1E60     		str	r6, [r3]
 470              		.loc 1 247 0
 471 0036 04F11000 		add	r0, r4, #16
 472              	.LVL40:
 473 003a FFF7FEFF 		bl	chSemSignalI
 474              	.LVL41:
 475              		.loc 1 248 0
 476 003e FFF7FEFF 		bl	chSchRescheduleS
 477              	.LVL42:
 478              	.LBE45:
 479              	.LBE44:
 480              	.LBE46:
 481              	.LBE48:
 482              	.LBB49:
 483              		.loc 1 213 0
 484 0042 0023     		movs	r3, #0
 485              		.syntax unified
 486              	@ 213 "../os/kernel/src/chmboxes.c" 1
 487 0044 83F31188 		msr     BASEPRI, r3
 488              	@ 0 "" 2
 489              		.thumb
 490              		.syntax unified
 491              	.LBE49:
 492              		.loc 1 215 0
 493 0048 2846     		mov	r0, r5
 494 004a 70BD     		pop	{r4, r5, r6, pc}
 495              		.cfi_endproc
 496              	.LFE12:
 497              		.size	chMBPostAhead, .-chMBPostAhead
 498              		.section	.text.chMBPostAheadS,"ax",%progbits
 499              		.align	1
 500              		.p2align 2,,3
 501              		.global	chMBPostAheadS
 502              		.syntax unified
 503              		.thumb
 504              		.thumb_func
 505              		.fpu softvfp
 506              		.type	chMBPostAheadS, %function
 507              	chMBPostAheadS:
 508              	.LFB13:
 509              		.loc 1 236 0
 510              		.cfi_startproc
 511              		@ args = 0, pretend = 0, frame = 0
 512              		@ frame_needed = 0, uses_anonymous_args = 0
 513              	.LVL43:
ARM GAS  /tmp/ccPxlM4D.s 			page 10


 514 0000 70B5     		push	{r4, r5, r6, lr}
 515              		.cfi_def_cfa_offset 16
 516              		.cfi_offset 4, -16
 517              		.cfi_offset 5, -12
 518              		.cfi_offset 6, -8
 519              		.cfi_offset 14, -4
 520              		.loc 1 236 0
 521 0002 0446     		mov	r4, r0
 522 0004 0E46     		mov	r6, r1
 523              		.loc 1 242 0
 524 0006 1C30     		adds	r0, r0, #28
 525              	.LVL44:
 526 0008 1146     		mov	r1, r2
 527              	.LVL45:
 528 000a FFF7FEFF 		bl	chSemWaitTimeoutS
 529              	.LVL46:
 530              		.loc 1 243 0
 531 000e 0546     		mov	r5, r0
 532 0010 60B9     		cbnz	r0, .L24
 533              	.LVL47:
 534              	.LBB52:
 535              	.LBB53:
 536              		.loc 1 244 0
 537 0012 E368     		ldr	r3, [r4, #12]
 538 0014 2268     		ldr	r2, [r4]
 539 0016 043B     		subs	r3, r3, #4
 540 0018 9342     		cmp	r3, r2
 541 001a E360     		str	r3, [r4, #12]
 542 001c 08D3     		bcc	.L28
 543              	.L26:
 544              		.loc 1 246 0
 545 001e 1E60     		str	r6, [r3]
 546              		.loc 1 247 0
 547 0020 04F11000 		add	r0, r4, #16
 548              	.LVL48:
 549 0024 FFF7FEFF 		bl	chSemSignalI
 550              	.LVL49:
 551              		.loc 1 248 0
 552 0028 FFF7FEFF 		bl	chSchRescheduleS
 553              	.LVL50:
 554              	.L24:
 555              	.LBE53:
 556              	.LBE52:
 557              		.loc 1 251 0
 558 002c 2846     		mov	r0, r5
 559 002e 70BD     		pop	{r4, r5, r6, pc}
 560              	.LVL51:
 561              	.L28:
 562              	.LBB55:
 563              	.LBB54:
 564              		.loc 1 245 0
 565 0030 6368     		ldr	r3, [r4, #4]
 566 0032 043B     		subs	r3, r3, #4
 567 0034 E360     		str	r3, [r4, #12]
 568 0036 F2E7     		b	.L26
 569              	.LBE54:
 570              	.LBE55:
ARM GAS  /tmp/ccPxlM4D.s 			page 11


 571              		.cfi_endproc
 572              	.LFE13:
 573              		.size	chMBPostAheadS, .-chMBPostAheadS
 574              		.section	.text.chMBPostAheadI,"ax",%progbits
 575              		.align	1
 576              		.p2align 2,,3
 577              		.global	chMBPostAheadI
 578              		.syntax unified
 579              		.thumb
 580              		.thumb_func
 581              		.fpu softvfp
 582              		.type	chMBPostAheadI, %function
 583              	chMBPostAheadI:
 584              	.LFB14:
 585              		.loc 1 267 0
 586              		.cfi_startproc
 587              		@ args = 0, pretend = 0, frame = 0
 588              		@ frame_needed = 0, uses_anonymous_args = 0
 589              	.LVL52:
 590              		.loc 1 272 0
 591 0000 426A     		ldr	r2, [r0, #36]
 592 0002 002A     		cmp	r2, #0
 593 0004 11DD     		ble	.L32
 594              		.loc 1 275 0
 595 0006 C368     		ldr	r3, [r0, #12]
 596              		.loc 1 267 0
 597 0008 10B5     		push	{r4, lr}
 598              		.cfi_def_cfa_offset 8
 599              		.cfi_offset 4, -8
 600              		.cfi_offset 14, -4
 601              		.loc 1 275 0
 602 000a 0468     		ldr	r4, [r0]
 603 000c 043B     		subs	r3, r3, #4
 604              		.loc 1 274 0
 605 000e 013A     		subs	r2, r2, #1
 606              		.loc 1 275 0
 607 0010 A342     		cmp	r3, r4
 608              		.loc 1 274 0
 609 0012 4262     		str	r2, [r0, #36]
 610              		.loc 1 275 0
 611 0014 C360     		str	r3, [r0, #12]
 612 0016 02D2     		bcs	.L31
 613              		.loc 1 276 0
 614 0018 4368     		ldr	r3, [r0, #4]
 615 001a 043B     		subs	r3, r3, #4
 616 001c C360     		str	r3, [r0, #12]
 617              	.L31:
 618              		.loc 1 277 0
 619 001e 1960     		str	r1, [r3]
 620              		.loc 1 278 0
 621 0020 1030     		adds	r0, r0, #16
 622              	.LVL53:
 623 0022 FFF7FEFF 		bl	chSemSignalI
 624              	.LVL54:
 625              		.loc 1 279 0
 626 0026 0020     		movs	r0, #0
 627 0028 10BD     		pop	{r4, pc}
ARM GAS  /tmp/ccPxlM4D.s 			page 12


 628              	.LVL55:
 629              	.L32:
 630              		.cfi_def_cfa_offset 0
 631              		.cfi_restore 4
 632              		.cfi_restore 14
 633              		.loc 1 273 0
 634 002a 4FF0FF30 		mov	r0, #-1
 635              	.LVL56:
 636 002e 7047     		bx	lr
 637              		.cfi_endproc
 638              	.LFE14:
 639              		.size	chMBPostAheadI, .-chMBPostAheadI
 640              		.section	.text.chMBFetch,"ax",%progbits
 641              		.align	1
 642              		.p2align 2,,3
 643              		.global	chMBFetch
 644              		.syntax unified
 645              		.thumb
 646              		.thumb_func
 647              		.fpu softvfp
 648              		.type	chMBFetch, %function
 649              	chMBFetch:
 650              	.LFB15:
 651              		.loc 1 301 0
 652              		.cfi_startproc
 653              		@ args = 0, pretend = 0, frame = 0
 654              		@ frame_needed = 0, uses_anonymous_args = 0
 655              	.LVL57:
 656 0000 70B5     		push	{r4, r5, r6, lr}
 657              		.cfi_def_cfa_offset 16
 658              		.cfi_offset 4, -16
 659              		.cfi_offset 5, -12
 660              		.cfi_offset 6, -8
 661              		.cfi_offset 14, -4
 662              	.LBB62:
 663              		.loc 1 304 0
 664 0002 4023     		movs	r3, #64
 665              	.LBE62:
 666              		.loc 1 301 0
 667 0004 0446     		mov	r4, r0
 668 0006 0E46     		mov	r6, r1
 669              	.LBB63:
 670              		.loc 1 304 0
 671              		.syntax unified
 672              	@ 304 "../os/kernel/src/chmboxes.c" 1
 673 0008 83F31188 		msr     BASEPRI, r3
 674              	@ 0 "" 2
 675              	.LVL58:
 676              		.thumb
 677              		.syntax unified
 678              	.LBE63:
 679              	.LBB64:
 680              	.LBB65:
 681              		.loc 1 335 0
 682 000c 1146     		mov	r1, r2
 683              	.LVL59:
 684 000e 1030     		adds	r0, r0, #16
ARM GAS  /tmp/ccPxlM4D.s 			page 13


 685              	.LVL60:
 686 0010 FFF7FEFF 		bl	chSemWaitTimeoutS
 687              	.LVL61:
 688              		.loc 1 336 0
 689 0014 0546     		mov	r5, r0
 690 0016 80B9     		cbnz	r0, .L38
 691              	.LVL62:
 692              	.LBB66:
 693              	.LBB67:
 694              		.loc 1 337 0
 695 0018 E368     		ldr	r3, [r4, #12]
 696              		.loc 1 338 0
 697 001a 6268     		ldr	r2, [r4, #4]
 698              		.loc 1 337 0
 699 001c 1968     		ldr	r1, [r3]
 700 001e 0433     		adds	r3, r3, #4
 701              		.loc 1 338 0
 702 0020 9342     		cmp	r3, r2
 703              		.loc 1 337 0
 704 0022 E360     		str	r3, [r4, #12]
 705              		.loc 1 339 0
 706 0024 28BF     		it	cs
 707 0026 2368     		ldrcs	r3, [r4]
 708              		.loc 1 337 0
 709 0028 3160     		str	r1, [r6]
 710              		.loc 1 340 0
 711 002a 04F11C00 		add	r0, r4, #28
 712              	.LVL63:
 713              		.loc 1 339 0
 714 002e 28BF     		it	cs
 715 0030 E360     		strcs	r3, [r4, #12]
 716              		.loc 1 340 0
 717 0032 FFF7FEFF 		bl	chSemSignalI
 718              	.LVL64:
 719              		.loc 1 341 0
 720 0036 FFF7FEFF 		bl	chSchRescheduleS
 721              	.LVL65:
 722              	.L38:
 723              	.LBE67:
 724              	.LBE66:
 725              	.LBE65:
 726              	.LBE64:
 727              	.LBB68:
 728              		.loc 1 306 0
 729 003a 0023     		movs	r3, #0
 730              		.syntax unified
 731              	@ 306 "../os/kernel/src/chmboxes.c" 1
 732 003c 83F31188 		msr     BASEPRI, r3
 733              	@ 0 "" 2
 734              		.thumb
 735              		.syntax unified
 736              	.LBE68:
 737              		.loc 1 308 0
 738 0040 2846     		mov	r0, r5
 739 0042 70BD     		pop	{r4, r5, r6, pc}
 740              		.cfi_endproc
 741              	.LFE15:
ARM GAS  /tmp/ccPxlM4D.s 			page 14


 742              		.size	chMBFetch, .-chMBFetch
 743              		.section	.text.chMBFetchS,"ax",%progbits
 744              		.align	1
 745              		.p2align 2,,3
 746              		.global	chMBFetchS
 747              		.syntax unified
 748              		.thumb
 749              		.thumb_func
 750              		.fpu softvfp
 751              		.type	chMBFetchS, %function
 752              	chMBFetchS:
 753              	.LFB16:
 754              		.loc 1 329 0
 755              		.cfi_startproc
 756              		@ args = 0, pretend = 0, frame = 0
 757              		@ frame_needed = 0, uses_anonymous_args = 0
 758              	.LVL66:
 759 0000 70B5     		push	{r4, r5, r6, lr}
 760              		.cfi_def_cfa_offset 16
 761              		.cfi_offset 4, -16
 762              		.cfi_offset 5, -12
 763              		.cfi_offset 6, -8
 764              		.cfi_offset 14, -4
 765              		.loc 1 329 0
 766 0002 0446     		mov	r4, r0
 767 0004 0E46     		mov	r6, r1
 768              		.loc 1 335 0
 769 0006 1030     		adds	r0, r0, #16
 770              	.LVL67:
 771 0008 1146     		mov	r1, r2
 772              	.LVL68:
 773 000a FFF7FEFF 		bl	chSemWaitTimeoutS
 774              	.LVL69:
 775              		.loc 1 336 0
 776 000e 0546     		mov	r5, r0
 777 0010 80B9     		cbnz	r0, .L41
 778              	.LVL70:
 779              	.LBB71:
 780              	.LBB72:
 781              		.loc 1 337 0
 782 0012 E368     		ldr	r3, [r4, #12]
 783              		.loc 1 338 0
 784 0014 6268     		ldr	r2, [r4, #4]
 785              		.loc 1 337 0
 786 0016 1968     		ldr	r1, [r3]
 787 0018 0433     		adds	r3, r3, #4
 788              		.loc 1 338 0
 789 001a 9342     		cmp	r3, r2
 790              		.loc 1 337 0
 791 001c E360     		str	r3, [r4, #12]
 792              		.loc 1 339 0
 793 001e 28BF     		it	cs
 794 0020 2368     		ldrcs	r3, [r4]
 795              		.loc 1 337 0
 796 0022 3160     		str	r1, [r6]
 797              		.loc 1 340 0
 798 0024 04F11C00 		add	r0, r4, #28
ARM GAS  /tmp/ccPxlM4D.s 			page 15


 799              	.LVL71:
 800              		.loc 1 339 0
 801 0028 28BF     		it	cs
 802 002a E360     		strcs	r3, [r4, #12]
 803              		.loc 1 340 0
 804 002c FFF7FEFF 		bl	chSemSignalI
 805              	.LVL72:
 806              		.loc 1 341 0
 807 0030 FFF7FEFF 		bl	chSchRescheduleS
 808              	.LVL73:
 809              	.L41:
 810              	.LBE72:
 811              	.LBE71:
 812              		.loc 1 344 0
 813 0034 2846     		mov	r0, r5
 814 0036 70BD     		pop	{r4, r5, r6, pc}
 815              		.cfi_endproc
 816              	.LFE16:
 817              		.size	chMBFetchS, .-chMBFetchS
 818              		.section	.text.chMBFetchI,"ax",%progbits
 819              		.align	1
 820              		.p2align 2,,3
 821              		.global	chMBFetchI
 822              		.syntax unified
 823              		.thumb
 824              		.thumb_func
 825              		.fpu softvfp
 826              		.type	chMBFetchI, %function
 827              	chMBFetchI:
 828              	.LFB17:
 829              		.loc 1 360 0
 830              		.cfi_startproc
 831              		@ args = 0, pretend = 0, frame = 0
 832              		@ frame_needed = 0, uses_anonymous_args = 0
 833              	.LVL74:
 834              		.loc 1 365 0
 835 0000 8269     		ldr	r2, [r0, #24]
 836 0002 002A     		cmp	r2, #0
 837 0004 14DD     		ble	.L48
 838              		.loc 1 368 0
 839 0006 C368     		ldr	r3, [r0, #12]
 840              		.loc 1 367 0
 841 0008 013A     		subs	r2, r2, #1
 842              		.loc 1 360 0
 843 000a 10B5     		push	{r4, lr}
 844              		.cfi_def_cfa_offset 8
 845              		.cfi_offset 4, -8
 846              		.cfi_offset 14, -4
 847              		.loc 1 367 0
 848 000c 8261     		str	r2, [r0, #24]
 849              		.loc 1 369 0
 850 000e 4268     		ldr	r2, [r0, #4]
 851              		.loc 1 368 0
 852 0010 1C68     		ldr	r4, [r3]
 853 0012 0433     		adds	r3, r3, #4
 854              		.loc 1 369 0
 855 0014 9342     		cmp	r3, r2
ARM GAS  /tmp/ccPxlM4D.s 			page 16


 856              		.loc 1 368 0
 857 0016 C360     		str	r3, [r0, #12]
 858              		.loc 1 370 0
 859 0018 28BF     		it	cs
 860 001a 0368     		ldrcs	r3, [r0]
 861              		.loc 1 368 0
 862 001c 0C60     		str	r4, [r1]
 863              		.loc 1 371 0
 864 001e 00F11C00 		add	r0, r0, #28
 865              	.LVL75:
 866              		.loc 1 370 0
 867 0022 28BF     		it	cs
 868 0024 40F8103C 		strcs	r3, [r0, #-16]
 869              		.loc 1 371 0
 870 0028 FFF7FEFF 		bl	chSemSignalI
 871              	.LVL76:
 872              		.loc 1 372 0
 873 002c 0020     		movs	r0, #0
 874 002e 10BD     		pop	{r4, pc}
 875              	.LVL77:
 876              	.L48:
 877              		.cfi_def_cfa_offset 0
 878              		.cfi_restore 4
 879              		.cfi_restore 14
 880              		.loc 1 366 0
 881 0030 4FF0FF30 		mov	r0, #-1
 882              	.LVL78:
 883 0034 7047     		bx	lr
 884              		.cfi_endproc
 885              	.LFE17:
 886              		.size	chMBFetchI, .-chMBFetchI
 887 0036 00BF     		.text
 888              	.Letext0:
 889              		.file 2 "/usr/include/newlib/machine/_default_types.h"
 890              		.file 3 "/usr/include/newlib/sys/_stdint.h"
 891              		.file 4 "../os/ports/GCC/ARMCMx/chtypes.h"
 892              		.file 5 "../os/kernel/include/chlists.h"
 893              		.file 6 "../os/kernel/include/chthreads.h"
 894              		.file 7 "../os/ports/GCC/ARMCMx/chcore_v7m.h"
 895              		.file 8 "../os/kernel/include/chvt.h"
 896              		.file 9 "../os/kernel/include/chschd.h"
 897              		.file 10 "../os/kernel/include/chsem.h"
 898              		.file 11 "../os/kernel/include/chmtx.h"
 899              		.file 12 "../os/kernel/include/chmboxes.h"
 900              		.file 13 "../os/kernel/include/chregistry.h"
 901              		.file 14 "../os/kernel/include/ch.h"