ARM GAS  /tmp/ccFNTtWO.s 			page 1


   1              		.cpu cortex-m3
   2              		.eabi_attribute 20, 1
   3              		.eabi_attribute 21, 1
   4              		.eabi_attribute 23, 3
   5              		.eabi_attribute 24, 1
   6              		.eabi_attribute 25, 1
   7              		.eabi_attribute 26, 1
   8              		.eabi_attribute 30, 2
   9              		.eabi_attribute 34, 1
  10              		.eabi_attribute 18, 4
  11              		.file	"chqueues.c"
  12              		.text
  13              	.Ltext0:
  14              		.cfi_sections	.debug_frame
  15              		.section	.text.qwait,"ax",%progbits
  16              		.align	1
  17              		.p2align 2,,3
  18              		.syntax unified
  19              		.thumb
  20              		.thumb_func
  21              		.fpu softvfp
  22              		.type	qwait, %function
  23              	qwait:
  24              	.LFB7:
  25              		.file 1 "../os/kernel/src/chqueues.c"
  26              		.loc 1 63 0
  27              		.cfi_startproc
  28              		@ args = 0, pretend = 0, frame = 0
  29              		@ frame_needed = 0, uses_anonymous_args = 0
  30              		@ link register save eliminated.
  31              	.LVL0:
  32              		.loc 1 65 0
  33 0000 69B1     		cbz	r1, .L2
  34 0002 0246     		mov	r2, r0
  35              		.loc 1 67 0
  36 0004 074B     		ldr	r3, .L7
  37              		.loc 1 63 0
  38 0006 10B4     		push	{r4}
  39              		.cfi_def_cfa_offset 4
  40              		.cfi_offset 4, -4
  41              		.loc 1 67 0
  42 0008 9B69     		ldr	r3, [r3, #24]
  43              		.loc 1 69 0
  44 000a 0D20     		movs	r0, #13
  45              	.LVL1:
  46              		.loc 1 67 0
  47 000c 5A62     		str	r2, [r3, #36]
  48              	.LVL2:
  49              	.LBB12:
  50              	.LBB13:
  51              		.file 2 "../os/kernel/include/chinline.h"
  52              		.loc 2 48 0
  53 000e 5468     		ldr	r4, [r2, #4]
  54 0010 83E81400 		stm	r3, {r2, r4}
  55              		.loc 2 49 0
  56 0014 5360     		str	r3, [r2, #4]
  57 0016 2360     		str	r3, [r4]
ARM GAS  /tmp/ccFNTtWO.s 			page 2


  58              	.LVL3:
  59              	.LBE13:
  60              	.LBE12:
  61              		.loc 1 70 0
  62 0018 10BC     		pop	{r4}
  63              		.cfi_restore 4
  64              		.cfi_def_cfa_offset 0
  65              		.loc 1 69 0
  66 001a FFF7FEBF 		b	chSchGoSleepTimeoutS
  67              	.LVL4:
  68              	.L2:
  69              		.loc 1 70 0
  70 001e 4FF0FF30 		mov	r0, #-1
  71              	.LVL5:
  72 0022 7047     		bx	lr
  73              	.L8:
  74              		.align	2
  75              	.L7:
  76 0024 00000000 		.word	rlist
  77              		.cfi_endproc
  78              	.LFE7:
  79              		.size	qwait, .-qwait
  80              		.section	.text.chIQInit,"ax",%progbits
  81              		.align	1
  82              		.p2align 2,,3
  83              		.global	chIQInit
  84              		.syntax unified
  85              		.thumb
  86              		.thumb_func
  87              		.fpu softvfp
  88              		.type	chIQInit, %function
  89              	chIQInit:
  90              	.LFB8:
  91              		.loc 1 89 0
  92              		.cfi_startproc
  93              		@ args = 4, pretend = 0, frame = 0
  94              		@ frame_needed = 0, uses_anonymous_args = 0
  95              		@ link register save eliminated.
  96              	.LVL6:
  97 0000 30B4     		push	{r4, r5}
  98              		.cfi_def_cfa_offset 8
  99              		.cfi_offset 4, -8
 100              		.cfi_offset 5, -4
 101              		.loc 1 92 0
 102 0002 0025     		movs	r5, #0
 103              		.loc 1 89 0
 104 0004 029C     		ldr	r4, [sp, #8]
 105              		.loc 1 94 0
 106 0006 0A44     		add	r2, r2, r1
 107              	.LVL7:
 108              		.loc 1 92 0
 109 0008 8560     		str	r5, [r0, #8]
 110              		.loc 1 96 0
 111 000a 0462     		str	r4, [r0, #32]
 112              		.loc 1 94 0
 113 000c 0261     		str	r2, [r0, #16]
 114              		.loc 1 91 0
ARM GAS  /tmp/ccFNTtWO.s 			page 3


 115 000e 4060     		str	r0, [r0, #4]
 116 0010 0060     		str	r0, [r0]
 117              		.loc 1 93 0
 118 0012 4161     		str	r1, [r0, #20]
 119 0014 8161     		str	r1, [r0, #24]
 120 0016 C160     		str	r1, [r0, #12]
 121              		.loc 1 95 0
 122 0018 C361     		str	r3, [r0, #28]
 123              		.loc 1 97 0
 124 001a 30BC     		pop	{r4, r5}
 125              		.cfi_restore 5
 126              		.cfi_restore 4
 127              		.cfi_def_cfa_offset 0
 128              	.LVL8:
 129 001c 7047     		bx	lr
 130              		.cfi_endproc
 131              	.LFE8:
 132              		.size	chIQInit, .-chIQInit
 133 001e 00BF     		.section	.text.chIQResetI,"ax",%progbits
 134              		.align	1
 135              		.p2align 2,,3
 136              		.global	chIQResetI
 137              		.syntax unified
 138              		.thumb
 139              		.thumb_func
 140              		.fpu softvfp
 141              		.type	chIQResetI, %function
 142              	chIQResetI:
 143              	.LFB9:
 144              		.loc 1 110 0
 145              		.cfi_startproc
 146              		@ args = 0, pretend = 0, frame = 0
 147              		@ frame_needed = 0, uses_anonymous_args = 0
 148              	.LVL9:
 149 0000 38B5     		push	{r3, r4, r5, lr}
 150              		.cfi_def_cfa_offset 16
 151              		.cfi_offset 3, -16
 152              		.cfi_offset 4, -12
 153              		.cfi_offset 5, -8
 154              		.cfi_offset 14, -4
 155              		.loc 1 110 0
 156 0002 0446     		mov	r4, r0
 157              		.loc 1 115 0
 158 0004 0022     		movs	r2, #0
 159              		.loc 1 114 0
 160 0006 C368     		ldr	r3, [r0, #12]
 161              		.loc 1 116 0
 162 0008 0068     		ldr	r0, [r0]
 163              	.LVL10:
 164              		.loc 1 115 0
 165 000a A260     		str	r2, [r4, #8]
 166              		.loc 1 116 0
 167 000c 8442     		cmp	r4, r0
 168              		.loc 1 114 0
 169 000e 6361     		str	r3, [r4, #20]
 170 0010 A361     		str	r3, [r4, #24]
 171              		.loc 1 116 0
ARM GAS  /tmp/ccFNTtWO.s 			page 4


 172 0012 0AD0     		beq	.L11
 173              		.loc 1 117 0
 174 0014 6FF00105 		mvn	r5, #1
 175              	.L13:
 176              	.LVL11:
 177              	.LBB14:
 178              	.LBB15:
 179              		.loc 2 55 0
 180 0018 0368     		ldr	r3, [r0]
 181 001a 2360     		str	r3, [r4]
 182 001c 5C60     		str	r4, [r3, #4]
 183              	.LVL12:
 184              	.LBE15:
 185              	.LBE14:
 186              		.loc 1 117 0
 187 001e FFF7FEFF 		bl	chSchReadyI
 188              	.LVL13:
 189 0022 4562     		str	r5, [r0, #36]
 190              		.loc 1 116 0
 191 0024 2068     		ldr	r0, [r4]
 192 0026 A042     		cmp	r0, r4
 193 0028 F6D1     		bne	.L13
 194              	.L11:
 195 002a 38BD     		pop	{r3, r4, r5, pc}
 196              		.cfi_endproc
 197              	.LFE9:
 198              		.size	chIQResetI, .-chIQResetI
 199              		.section	.text.chIQPutI,"ax",%progbits
 200              		.align	1
 201              		.p2align 2,,3
 202              		.global	chIQPutI
 203              		.syntax unified
 204              		.thumb
 205              		.thumb_func
 206              		.fpu softvfp
 207              		.type	chIQPutI, %function
 208              	chIQPutI:
 209              	.LFB10:
 210              		.loc 1 133 0
 211              		.cfi_startproc
 212              		@ args = 0, pretend = 0, frame = 0
 213              		@ frame_needed = 0, uses_anonymous_args = 0
 214              	.LVL14:
 215              		.loc 1 137 0
 216 0000 8369     		ldr	r3, [r0, #24]
 217 0002 4269     		ldr	r2, [r0, #20]
 218 0004 9A42     		cmp	r2, r3
 219 0006 8368     		ldr	r3, [r0, #8]
 220 0008 1ED0     		beq	.L28
 221              	.L20:
 222              		.loc 1 133 0
 223 000a 10B5     		push	{r4, lr}
 224              		.cfi_def_cfa_offset 8
 225              		.cfi_offset 4, -8
 226              		.cfi_offset 14, -4
 227              		.loc 1 140 0
 228 000c 0133     		adds	r3, r3, #1
ARM GAS  /tmp/ccFNTtWO.s 			page 5


 229              		.loc 1 141 0
 230 000e 541C     		adds	r4, r2, #1
 231              		.loc 1 140 0
 232 0010 8360     		str	r3, [r0, #8]
 233              		.loc 1 141 0
 234 0012 4461     		str	r4, [r0, #20]
 235 0014 1170     		strb	r1, [r2]
 236              		.loc 1 142 0
 237 0016 4269     		ldr	r2, [r0, #20]
 238 0018 0369     		ldr	r3, [r0, #16]
 239 001a 9A42     		cmp	r2, r3
 240 001c 0DD2     		bcs	.L21
 241              		.loc 1 145 0
 242 001e 0268     		ldr	r2, [r0]
 243 0020 8242     		cmp	r2, r0
 244 0022 0FD0     		beq	.L24
 245              	.L29:
 246 0024 0346     		mov	r3, r0
 247              	.LVL15:
 248              	.LBB16:
 249              	.LBB17:
 250              		.loc 2 55 0
 251 0026 1168     		ldr	r1, [r2]
 252              	.LVL16:
 253              	.LBE17:
 254              	.LBE16:
 255              		.loc 1 146 0
 256 0028 1046     		mov	r0, r2
 257              	.LVL17:
 258              	.LBB19:
 259              	.LBB18:
 260              		.loc 2 55 0
 261 002a 1960     		str	r1, [r3]
 262 002c 4B60     		str	r3, [r1, #4]
 263              	.LVL18:
 264              	.LBE18:
 265              	.LBE19:
 266              		.loc 1 146 0
 267 002e FFF7FEFF 		bl	chSchReadyI
 268              	.LVL19:
 269 0032 0023     		movs	r3, #0
 270 0034 4362     		str	r3, [r0, #36]
 271              		.loc 1 148 0
 272 0036 1846     		mov	r0, r3
 273 0038 10BD     		pop	{r4, pc}
 274              	.LVL20:
 275              	.L21:
 276              		.loc 1 145 0
 277 003a 0268     		ldr	r2, [r0]
 278              		.loc 1 143 0
 279 003c C368     		ldr	r3, [r0, #12]
 280              		.loc 1 145 0
 281 003e 8242     		cmp	r2, r0
 282              		.loc 1 143 0
 283 0040 4361     		str	r3, [r0, #20]
 284              		.loc 1 145 0
 285 0042 EFD1     		bne	.L29
ARM GAS  /tmp/ccFNTtWO.s 			page 6


 286              	.L24:
 287              		.loc 1 148 0
 288 0044 0020     		movs	r0, #0
 289              	.LVL21:
 290 0046 10BD     		pop	{r4, pc}
 291              	.LVL22:
 292              	.L28:
 293              		.cfi_def_cfa_offset 0
 294              		.cfi_restore 4
 295              		.cfi_restore 14
 296              		.loc 1 137 0 discriminator 1
 297 0048 002B     		cmp	r3, #0
 298 004a DED0     		beq	.L20
 299              		.loc 1 138 0
 300 004c 6FF00300 		mvn	r0, #3
 301              	.LVL23:
 302 0050 7047     		bx	lr
 303              		.cfi_endproc
 304              	.LFE10:
 305              		.size	chIQPutI, .-chIQPutI
 306 0052 00BF     		.section	.text.chIQGetTimeout,"ax",%progbits
 307              		.align	1
 308              		.p2align 2,,3
 309              		.global	chIQGetTimeout
 310              		.syntax unified
 311              		.thumb
 312              		.thumb_func
 313              		.fpu softvfp
 314              		.type	chIQGetTimeout, %function
 315              	chIQGetTimeout:
 316              	.LFB11:
 317              		.loc 1 171 0
 318              		.cfi_startproc
 319              		@ args = 0, pretend = 0, frame = 0
 320              		@ frame_needed = 0, uses_anonymous_args = 0
 321              	.LVL24:
 322 0000 70B5     		push	{r4, r5, r6, lr}
 323              		.cfi_def_cfa_offset 16
 324              		.cfi_offset 4, -16
 325              		.cfi_offset 5, -12
 326              		.cfi_offset 6, -8
 327              		.cfi_offset 14, -4
 328              	.LBB20:
 329              		.loc 1 174 0
 330 0002 4023     		movs	r3, #64
 331              	.LBE20:
 332              		.loc 1 171 0
 333 0004 0E46     		mov	r6, r1
 334 0006 0446     		mov	r4, r0
 335              	.LBB21:
 336              		.loc 1 174 0
 337              		.syntax unified
 338              	@ 174 "../os/kernel/src/chqueues.c" 1
 339 0008 83F31188 		msr     BASEPRI, r3
 340              	@ 0 "" 2
 341              		.thumb
 342              		.syntax unified
ARM GAS  /tmp/ccFNTtWO.s 			page 7


 343              	.LBE21:
 344              		.loc 1 175 0
 345 000c C369     		ldr	r3, [r0, #28]
 346 000e 3BB1     		cbz	r3, .L32
 347              		.loc 1 176 0
 348 0010 9847     		blx	r3
 349              	.LVL25:
 350 0012 05E0     		b	.L32
 351              	.L34:
 352              	.LBB22:
 353              		.loc 1 180 0
 354 0014 3146     		mov	r1, r6
 355 0016 2046     		mov	r0, r4
 356 0018 FFF7FEFF 		bl	qwait
 357              	.LVL26:
 358 001c 0028     		cmp	r0, #0
 359 001e 0FDB     		blt	.L35
 360              	.LVL27:
 361              	.L32:
 362              	.LBE22:
 363              		.loc 1 178 0
 364 0020 A568     		ldr	r5, [r4, #8]
 365 0022 002D     		cmp	r5, #0
 366 0024 F6D0     		beq	.L34
 367              		.loc 1 187 0
 368 0026 A269     		ldr	r2, [r4, #24]
 369              		.loc 1 188 0
 370 0028 2169     		ldr	r1, [r4, #16]
 371              		.loc 1 187 0
 372 002a 531C     		adds	r3, r2, #1
 373              		.loc 1 188 0
 374 002c 8B42     		cmp	r3, r1
 375              		.loc 1 187 0
 376 002e A361     		str	r3, [r4, #24]
 377              		.loc 1 186 0
 378 0030 05F1FF35 		add	r5, r5, #-1
 379              		.loc 1 189 0
 380 0034 28BF     		it	cs
 381 0036 E368     		ldrcs	r3, [r4, #12]
 382              		.loc 1 186 0
 383 0038 A560     		str	r5, [r4, #8]
 384              		.loc 1 187 0
 385 003a 1078     		ldrb	r0, [r2]	@ zero_extendqisi2
 386              	.LVL28:
 387              		.loc 1 189 0
 388 003c 28BF     		it	cs
 389 003e A361     		strcs	r3, [r4, #24]
 390              	.LVL29:
 391              	.L35:
 392              	.LBB23:
 393              		.loc 1 191 0
 394 0040 0023     		movs	r3, #0
 395              		.syntax unified
 396              	@ 191 "../os/kernel/src/chqueues.c" 1
 397 0042 83F31188 		msr     BASEPRI, r3
 398              	@ 0 "" 2
 399              		.thumb
ARM GAS  /tmp/ccFNTtWO.s 			page 8


 400              		.syntax unified
 401              	.LBE23:
 402              		.loc 1 193 0
 403 0046 70BD     		pop	{r4, r5, r6, pc}
 404              		.cfi_endproc
 405              	.LFE11:
 406              		.size	chIQGetTimeout, .-chIQGetTimeout
 407              		.section	.text.chIQReadTimeout,"ax",%progbits
 408              		.align	1
 409              		.p2align 2,,3
 410              		.global	chIQReadTimeout
 411              		.syntax unified
 412              		.thumb
 413              		.thumb_func
 414              		.fpu softvfp
 415              		.type	chIQReadTimeout, %function
 416              	chIQReadTimeout:
 417              	.LFB12:
 418              		.loc 1 220 0
 419              		.cfi_startproc
 420              		@ args = 0, pretend = 0, frame = 0
 421              		@ frame_needed = 0, uses_anonymous_args = 0
 422              	.LVL30:
 423 0000 2DE9F047 		push	{r4, r5, r6, r7, r8, r9, r10, lr}
 424              		.cfi_def_cfa_offset 32
 425              		.cfi_offset 4, -32
 426              		.cfi_offset 5, -28
 427              		.cfi_offset 6, -24
 428              		.cfi_offset 7, -20
 429              		.cfi_offset 8, -16
 430              		.cfi_offset 9, -12
 431              		.cfi_offset 10, -8
 432              		.cfi_offset 14, -4
 433              		.loc 1 220 0
 434 0004 1E46     		mov	r6, r3
 435 0006 0446     		mov	r4, r0
 436 0008 8946     		mov	r9, r1
 437 000a 9246     		mov	r10, r2
 438              		.loc 1 221 0
 439 000c D0F81C80 		ldr	r8, [r0, #28]
 440              	.LVL31:
 441              	.LBB24:
 442              		.loc 1 226 0
 443 0010 4023     		movs	r3, #64
 444              	.LVL32:
 445              		.syntax unified
 446              	@ 226 "../os/kernel/src/chqueues.c" 1
 447 0012 83F31188 		msr     BASEPRI, r3
 448              	@ 0 "" 2
 449              		.thumb
 450              		.syntax unified
 451              	.LBE24:
 452              		.loc 1 222 0
 453 0016 0027     		movs	r7, #0
 454              	.LVL33:
 455              	.L47:
 456              		.loc 1 228 0
ARM GAS  /tmp/ccFNTtWO.s 			page 9


 457 0018 B8F1000F 		cmp	r8, #0
 458 001c 07D0     		beq	.L43
 459              		.loc 1 229 0
 460 001e 2046     		mov	r0, r4
 461 0020 C047     		blx	r8
 462              	.LVL34:
 463 0022 04E0     		b	.L43
 464              	.L45:
 465              		.loc 1 232 0
 466 0024 3146     		mov	r1, r6
 467 0026 2046     		mov	r0, r4
 468 0028 FFF7FEFF 		bl	qwait
 469              	.LVL35:
 470 002c D0B9     		cbnz	r0, .L54
 471              	.L43:
 472              		.loc 1 231 0
 473 002e A568     		ldr	r5, [r4, #8]
 474 0030 002D     		cmp	r5, #0
 475 0032 F7D0     		beq	.L45
 476              		.loc 1 239 0
 477 0034 A369     		ldr	r3, [r4, #24]
 478              		.loc 1 238 0
 479 0036 013D     		subs	r5, r5, #1
 480              		.loc 1 239 0
 481 0038 5A1C     		adds	r2, r3, #1
 482 003a A261     		str	r2, [r4, #24]
 483              		.loc 1 238 0
 484 003c A560     		str	r5, [r4, #8]
 485              		.loc 1 239 0
 486 003e 1B78     		ldrb	r3, [r3]	@ zero_extendqisi2
 487 0040 09F8013B 		strb	r3, [r9], #1
 488              	.LVL36:
 489              		.loc 1 240 0
 490 0044 2369     		ldr	r3, [r4, #16]
 491 0046 A269     		ldr	r2, [r4, #24]
 492 0048 9A42     		cmp	r2, r3
 493              		.loc 1 241 0
 494 004a 24BF     		itt	cs
 495 004c E368     		ldrcs	r3, [r4, #12]
 496 004e A361     		strcs	r3, [r4, #24]
 497              	.LBB25:
 498              		.loc 1 243 0
 499 0050 0023     		movs	r3, #0
 500              		.syntax unified
 501              	@ 243 "../os/kernel/src/chqueues.c" 1
 502 0052 83F31188 		msr     BASEPRI, r3
 503              	@ 0 "" 2
 504              		.thumb
 505              		.syntax unified
 506              	.LBE25:
 507              		.loc 1 244 0
 508 0056 0137     		adds	r7, r7, #1
 509              	.LVL37:
 510              		.loc 1 245 0
 511 0058 BA45     		cmp	r10, r7
 512 005a 06D0     		beq	.L41
 513              	.LBB26:
ARM GAS  /tmp/ccFNTtWO.s 			page 10


 514              		.loc 1 248 0
 515 005c 4023     		movs	r3, #64
 516              		.syntax unified
 517              	@ 248 "../os/kernel/src/chqueues.c" 1
 518 005e 83F31188 		msr     BASEPRI, r3
 519              	@ 0 "" 2
 520              		.thumb
 521              		.syntax unified
 522              	.LBE26:
 523              		.loc 1 228 0
 524 0062 D9E7     		b	.L47
 525              	.LVL38:
 526              	.L54:
 527              	.LBB27:
 528              		.loc 1 233 0
 529 0064 2B46     		mov	r3, r5
 530              		.syntax unified
 531              	@ 233 "../os/kernel/src/chqueues.c" 1
 532 0066 83F31188 		msr     BASEPRI, r3
 533              	@ 0 "" 2
 534              	.LVL39:
 535              		.thumb
 536              		.syntax unified
 537              	.L41:
 538              	.LBE27:
 539              		.loc 1 250 0
 540 006a 3846     		mov	r0, r7
 541 006c BDE8F087 		pop	{r4, r5, r6, r7, r8, r9, r10, pc}
 542              		.cfi_endproc
 543              	.LFE12:
 544              		.size	chIQReadTimeout, .-chIQReadTimeout
 545              		.section	.text.chOQInit,"ax",%progbits
 546              		.align	1
 547              		.p2align 2,,3
 548              		.global	chOQInit
 549              		.syntax unified
 550              		.thumb
 551              		.thumb_func
 552              		.fpu softvfp
 553              		.type	chOQInit, %function
 554              	chOQInit:
 555              	.LFB13:
 556              		.loc 1 269 0
 557              		.cfi_startproc
 558              		@ args = 4, pretend = 0, frame = 0
 559              		@ frame_needed = 0, uses_anonymous_args = 0
 560              		@ link register save eliminated.
 561              	.LVL40:
 562 0000 30B4     		push	{r4, r5}
 563              		.cfi_def_cfa_offset 8
 564              		.cfi_offset 4, -8
 565              		.cfi_offset 5, -4
 566              		.loc 1 269 0
 567 0002 029C     		ldr	r4, [sp, #8]
 568              		.loc 1 274 0
 569 0004 8D18     		adds	r5, r1, r2
 570 0006 0561     		str	r5, [r0, #16]
ARM GAS  /tmp/ccFNTtWO.s 			page 11


 571              		.loc 1 276 0
 572 0008 0462     		str	r4, [r0, #32]
 573              		.loc 1 271 0
 574 000a 4060     		str	r0, [r0, #4]
 575 000c 0060     		str	r0, [r0]
 576              		.loc 1 272 0
 577 000e 8260     		str	r2, [r0, #8]
 578              		.loc 1 273 0
 579 0010 4161     		str	r1, [r0, #20]
 580 0012 8161     		str	r1, [r0, #24]
 581 0014 C160     		str	r1, [r0, #12]
 582              		.loc 1 275 0
 583 0016 C361     		str	r3, [r0, #28]
 584              		.loc 1 277 0
 585 0018 30BC     		pop	{r4, r5}
 586              		.cfi_restore 5
 587              		.cfi_restore 4
 588              		.cfi_def_cfa_offset 0
 589              	.LVL41:
 590 001a 7047     		bx	lr
 591              		.cfi_endproc
 592              	.LFE13:
 593              		.size	chOQInit, .-chOQInit
 594              		.section	.text.chOQResetI,"ax",%progbits
 595              		.align	1
 596              		.p2align 2,,3
 597              		.global	chOQResetI
 598              		.syntax unified
 599              		.thumb
 600              		.thumb_func
 601              		.fpu softvfp
 602              		.type	chOQResetI, %function
 603              	chOQResetI:
 604              	.LFB14:
 605              		.loc 1 290 0
 606              		.cfi_startproc
 607              		@ args = 0, pretend = 0, frame = 0
 608              		@ frame_needed = 0, uses_anonymous_args = 0
 609              	.LVL42:
 610 0000 38B5     		push	{r3, r4, r5, lr}
 611              		.cfi_def_cfa_offset 16
 612              		.cfi_offset 3, -16
 613              		.cfi_offset 4, -12
 614              		.cfi_offset 5, -8
 615              		.cfi_offset 14, -4
 616              		.loc 1 290 0
 617 0002 0446     		mov	r4, r0
 618              		.loc 1 294 0
 619 0004 C268     		ldr	r2, [r0, #12]
 620              		.loc 1 295 0
 621 0006 0369     		ldr	r3, [r0, #16]
 622              		.loc 1 296 0
 623 0008 0068     		ldr	r0, [r0]
 624              	.LVL43:
 625              		.loc 1 295 0
 626 000a 9B1A     		subs	r3, r3, r2
 627              		.loc 1 296 0
ARM GAS  /tmp/ccFNTtWO.s 			page 12


 628 000c 8442     		cmp	r4, r0
 629              		.loc 1 294 0
 630 000e 6261     		str	r2, [r4, #20]
 631 0010 A261     		str	r2, [r4, #24]
 632              		.loc 1 295 0
 633 0012 A360     		str	r3, [r4, #8]
 634              		.loc 1 296 0
 635 0014 0AD0     		beq	.L57
 636              		.loc 1 297 0
 637 0016 6FF00105 		mvn	r5, #1
 638              	.L59:
 639              	.LVL44:
 640              	.LBB28:
 641              	.LBB29:
 642              		.loc 2 55 0
 643 001a 0368     		ldr	r3, [r0]
 644 001c 2360     		str	r3, [r4]
 645 001e 5C60     		str	r4, [r3, #4]
 646              	.LVL45:
 647              	.LBE29:
 648              	.LBE28:
 649              		.loc 1 297 0
 650 0020 FFF7FEFF 		bl	chSchReadyI
 651              	.LVL46:
 652 0024 4562     		str	r5, [r0, #36]
 653              		.loc 1 296 0
 654 0026 2068     		ldr	r0, [r4]
 655 0028 A042     		cmp	r0, r4
 656 002a F6D1     		bne	.L59
 657              	.L57:
 658 002c 38BD     		pop	{r3, r4, r5, pc}
 659              		.cfi_endproc
 660              	.LFE14:
 661              		.size	chOQResetI, .-chOQResetI
 662 002e 00BF     		.section	.text.chOQPutTimeout,"ax",%progbits
 663              		.align	1
 664              		.p2align 2,,3
 665              		.global	chOQPutTimeout
 666              		.syntax unified
 667              		.thumb
 668              		.thumb_func
 669              		.fpu softvfp
 670              		.type	chOQPutTimeout, %function
 671              	chOQPutTimeout:
 672              	.LFB15:
 673              		.loc 1 322 0
 674              		.cfi_startproc
 675              		@ args = 0, pretend = 0, frame = 0
 676              		@ frame_needed = 0, uses_anonymous_args = 0
 677              	.LVL47:
 678 0000 F8B5     		push	{r3, r4, r5, r6, r7, lr}
 679              		.cfi_def_cfa_offset 24
 680              		.cfi_offset 3, -24
 681              		.cfi_offset 4, -20
 682              		.cfi_offset 5, -16
 683              		.cfi_offset 6, -12
 684              		.cfi_offset 7, -8
ARM GAS  /tmp/ccFNTtWO.s 			page 13


 685              		.cfi_offset 14, -4
 686              		.loc 1 322 0
 687 0002 0446     		mov	r4, r0
 688 0004 0F46     		mov	r7, r1
 689 0006 1646     		mov	r6, r2
 690              	.LBB30:
 691              		.loc 1 324 0
 692 0008 4023     		movs	r3, #64
 693              		.syntax unified
 694              	@ 324 "../os/kernel/src/chqueues.c" 1
 695 000a 83F31188 		msr     BASEPRI, r3
 696              	@ 0 "" 2
 697              		.thumb
 698              		.syntax unified
 699              	.LBE30:
 700              		.loc 1 325 0
 701 000e 05E0     		b	.L64
 702              	.LVL48:
 703              	.L66:
 704              	.LBB31:
 705              		.loc 1 328 0
 706 0010 3146     		mov	r1, r6
 707 0012 2046     		mov	r0, r4
 708 0014 FFF7FEFF 		bl	qwait
 709              	.LVL49:
 710 0018 0028     		cmp	r0, #0
 711 001a 17DB     		blt	.L74
 712              	.LVL50:
 713              	.L64:
 714              	.LBE31:
 715              		.loc 1 325 0
 716 001c A568     		ldr	r5, [r4, #8]
 717 001e 002D     		cmp	r5, #0
 718 0020 F6D0     		beq	.L66
 719              		.loc 1 335 0
 720 0022 6369     		ldr	r3, [r4, #20]
 721              		.loc 1 334 0
 722 0024 013D     		subs	r5, r5, #1
 723              		.loc 1 335 0
 724 0026 5A1C     		adds	r2, r3, #1
 725 0028 6261     		str	r2, [r4, #20]
 726              		.loc 1 334 0
 727 002a A560     		str	r5, [r4, #8]
 728              		.loc 1 335 0
 729 002c 1F70     		strb	r7, [r3]
 730              		.loc 1 336 0
 731 002e 2369     		ldr	r3, [r4, #16]
 732 0030 6269     		ldr	r2, [r4, #20]
 733 0032 9A42     		cmp	r2, r3
 734              		.loc 1 337 0
 735 0034 24BF     		itt	cs
 736 0036 E368     		ldrcs	r3, [r4, #12]
 737 0038 6361     		strcs	r3, [r4, #20]
 738              		.loc 1 339 0
 739 003a E369     		ldr	r3, [r4, #28]
 740 003c 0BB1     		cbz	r3, .L68
 741              		.loc 1 340 0
ARM GAS  /tmp/ccFNTtWO.s 			page 14


 742 003e 2046     		mov	r0, r4
 743 0040 9847     		blx	r3
 744              	.LVL51:
 745              	.L68:
 746              	.LBB33:
 747              		.loc 1 342 0
 748 0042 0023     		movs	r3, #0
 749              		.syntax unified
 750              	@ 342 "../os/kernel/src/chqueues.c" 1
 751 0044 83F31188 		msr     BASEPRI, r3
 752              	@ 0 "" 2
 753              		.thumb
 754              		.syntax unified
 755              	.LBE33:
 756              		.loc 1 343 0
 757 0048 1846     		mov	r0, r3
 758              		.loc 1 344 0
 759 004a F8BD     		pop	{r3, r4, r5, r6, r7, pc}
 760              	.LVL52:
 761              	.L74:
 762              	.LBB34:
 763              	.LBB32:
 764              		.loc 1 329 0
 765 004c 2B46     		mov	r3, r5
 766              		.syntax unified
 767              	@ 329 "../os/kernel/src/chqueues.c" 1
 768 004e 83F31188 		msr     BASEPRI, r3
 769              	@ 0 "" 2
 770              		.thumb
 771              		.syntax unified
 772              	.LBE32:
 773              		.loc 1 330 0
 774 0052 F8BD     		pop	{r3, r4, r5, r6, r7, pc}
 775              	.LBE34:
 776              		.cfi_endproc
 777              	.LFE15:
 778              		.size	chOQPutTimeout, .-chOQPutTimeout
 779              		.section	.text.chOQGetI,"ax",%progbits
 780              		.align	1
 781              		.p2align 2,,3
 782              		.global	chOQGetI
 783              		.syntax unified
 784              		.thumb
 785              		.thumb_func
 786              		.fpu softvfp
 787              		.type	chOQGetI, %function
 788              	chOQGetI:
 789              	.LFB16:
 790              		.loc 1 356 0
 791              		.cfi_startproc
 792              		@ args = 0, pretend = 0, frame = 0
 793              		@ frame_needed = 0, uses_anonymous_args = 0
 794              	.LVL53:
 795 0000 38B5     		push	{r3, r4, r5, lr}
 796              		.cfi_def_cfa_offset 16
 797              		.cfi_offset 3, -16
 798              		.cfi_offset 4, -12
ARM GAS  /tmp/ccFNTtWO.s 			page 15


 799              		.cfi_offset 5, -8
 800              		.cfi_offset 14, -4
 801              		.loc 1 361 0
 802 0002 8269     		ldr	r2, [r0, #24]
 803 0004 4369     		ldr	r3, [r0, #20]
 804 0006 9342     		cmp	r3, r2
 805 0008 8368     		ldr	r3, [r0, #8]
 806 000a 18D0     		beq	.L84
 807              	.L78:
 808              		.loc 1 366 0
 809 000c 0569     		ldr	r5, [r0, #16]
 810              		.loc 1 365 0
 811 000e 511C     		adds	r1, r2, #1
 812              		.loc 1 364 0
 813 0010 0133     		adds	r3, r3, #1
 814 0012 8360     		str	r3, [r0, #8]
 815              		.loc 1 365 0
 816 0014 8161     		str	r1, [r0, #24]
 817              		.loc 1 366 0
 818 0016 A942     		cmp	r1, r5
 819              		.loc 1 365 0
 820 0018 1478     		ldrb	r4, [r2]	@ zero_extendqisi2
 821              	.LVL54:
 822              		.loc 1 366 0
 823 001a 0DD2     		bcs	.L80
 824              	.L81:
 825              		.loc 1 369 0
 826 001c 0268     		ldr	r2, [r0]
 827 001e 8242     		cmp	r2, r0
 828 0020 08D0     		beq	.L79
 829 0022 0346     		mov	r3, r0
 830              	.LVL55:
 831              	.LBB35:
 832              	.LBB36:
 833              		.loc 2 55 0
 834 0024 1168     		ldr	r1, [r2]
 835              	.LBE36:
 836              	.LBE35:
 837              		.loc 1 370 0
 838 0026 1046     		mov	r0, r2
 839              	.LVL56:
 840              	.LBB38:
 841              	.LBB37:
 842              		.loc 2 55 0
 843 0028 1960     		str	r1, [r3]
 844 002a 4B60     		str	r3, [r1, #4]
 845              	.LVL57:
 846              	.LBE37:
 847              	.LBE38:
 848              		.loc 1 370 0
 849 002c FFF7FEFF 		bl	chSchReadyI
 850              	.LVL58:
 851 0030 0023     		movs	r3, #0
 852 0032 4362     		str	r3, [r0, #36]
 853              	.L79:
 854              		.loc 1 372 0
 855 0034 2046     		mov	r0, r4
ARM GAS  /tmp/ccFNTtWO.s 			page 16


 856 0036 38BD     		pop	{r3, r4, r5, pc}
 857              	.LVL59:
 858              	.L80:
 859              		.loc 1 367 0
 860 0038 C368     		ldr	r3, [r0, #12]
 861 003a 8361     		str	r3, [r0, #24]
 862 003c EEE7     		b	.L81
 863              	.LVL60:
 864              	.L84:
 865              		.loc 1 361 0 discriminator 1
 866 003e 002B     		cmp	r3, #0
 867 0040 E4D0     		beq	.L78
 868              		.loc 1 362 0
 869 0042 6FF00200 		mvn	r0, #2
 870              	.LVL61:
 871 0046 38BD     		pop	{r3, r4, r5, pc}
 872              		.cfi_endproc
 873              	.LFE16:
 874              		.size	chOQGetI, .-chOQGetI
 875              		.section	.text.chOQWriteTimeout,"ax",%progbits
 876              		.align	1
 877              		.p2align 2,,3
 878              		.global	chOQWriteTimeout
 879              		.syntax unified
 880              		.thumb
 881              		.thumb_func
 882              		.fpu softvfp
 883              		.type	chOQWriteTimeout, %function
 884              	chOQWriteTimeout:
 885              	.LFB17:
 886              		.loc 1 400 0
 887              		.cfi_startproc
 888              		@ args = 0, pretend = 0, frame = 0
 889              		@ frame_needed = 0, uses_anonymous_args = 0
 890              	.LVL62:
 891 0000 2DE9F84F 		push	{r3, r4, r5, r6, r7, r8, r9, r10, fp, lr}
 892              		.cfi_def_cfa_offset 40
 893              		.cfi_offset 3, -40
 894              		.cfi_offset 4, -36
 895              		.cfi_offset 5, -32
 896              		.cfi_offset 6, -28
 897              		.cfi_offset 7, -24
 898              		.cfi_offset 8, -20
 899              		.cfi_offset 9, -16
 900              		.cfi_offset 10, -12
 901              		.cfi_offset 11, -8
 902              		.cfi_offset 14, -4
 903              		.loc 1 400 0
 904 0004 9A46     		mov	r10, r3
 905 0006 0446     		mov	r4, r0
 906 0008 0E46     		mov	r6, r1
 907 000a 1746     		mov	r7, r2
 908              		.loc 1 401 0
 909 000c D0F81C90 		ldr	r9, [r0, #28]
 910              	.LVL63:
 911              	.LBB39:
 912              		.loc 1 406 0
ARM GAS  /tmp/ccFNTtWO.s 			page 17


 913 0010 4023     		movs	r3, #64
 914              	.LVL64:
 915              		.syntax unified
 916              	@ 406 "../os/kernel/src/chqueues.c" 1
 917 0012 83F31188 		msr     BASEPRI, r3
 918              	@ 0 "" 2
 919              		.thumb
 920              		.syntax unified
 921              	.LBE39:
 922              		.loc 1 402 0
 923 0016 4FF00008 		mov	r8, #0
 924              	.LVL65:
 925              	.L86:
 926              		.loc 1 408 0
 927 001a A568     		ldr	r5, [r4, #8]
 928              		.loc 1 415 0
 929 001c 06F1010B 		add	fp, r6, #1
 930              	.LVL66:
 931              		.loc 1 414 0
 932 0020 6A1E     		subs	r2, r5, #1
 933              		.loc 1 408 0
 934 0022 0DB3     		cbz	r5, .L89
 935              	.L102:
 936              		.loc 1 415 0
 937 0024 6369     		ldr	r3, [r4, #20]
 938              		.loc 1 414 0
 939 0026 A260     		str	r2, [r4, #8]
 940              		.loc 1 415 0
 941 0028 5A1C     		adds	r2, r3, #1
 942 002a 6261     		str	r2, [r4, #20]
 943 002c 3278     		ldrb	r2, [r6]	@ zero_extendqisi2
 944 002e 1A70     		strb	r2, [r3]
 945              		.loc 1 416 0
 946 0030 2369     		ldr	r3, [r4, #16]
 947 0032 6269     		ldr	r2, [r4, #20]
 948 0034 9A42     		cmp	r2, r3
 949              		.loc 1 417 0
 950 0036 24BF     		itt	cs
 951 0038 E368     		ldrcs	r3, [r4, #12]
 952 003a 6361     		strcs	r3, [r4, #20]
 953              		.loc 1 419 0
 954 003c B9F1000F 		cmp	r9, #0
 955 0040 01D0     		beq	.L91
 956              		.loc 1 420 0
 957 0042 2046     		mov	r0, r4
 958 0044 C847     		blx	r9
 959              	.LVL67:
 960              	.L91:
 961              	.LBB40:
 962              		.loc 1 422 0
 963 0046 0023     		movs	r3, #0
 964              		.syntax unified
 965              	@ 422 "../os/kernel/src/chqueues.c" 1
 966 0048 83F31188 		msr     BASEPRI, r3
 967              	@ 0 "" 2
 968              		.thumb
 969              		.syntax unified
ARM GAS  /tmp/ccFNTtWO.s 			page 18


 970              	.LBE40:
 971              		.loc 1 424 0
 972 004c 013F     		subs	r7, r7, #1
 973              	.LVL68:
 974              		.loc 1 423 0
 975 004e 08F10108 		add	r8, r8, #1
 976              	.LVL69:
 977              		.loc 1 424 0
 978 0052 12D0     		beq	.L85
 979              	.LBB41:
 980              		.loc 1 426 0
 981 0054 4023     		movs	r3, #64
 982              		.syntax unified
 983              	@ 426 "../os/kernel/src/chqueues.c" 1
 984 0056 83F31188 		msr     BASEPRI, r3
 985              	@ 0 "" 2
 986              		.thumb
 987              		.syntax unified
 988              	.LBE41:
 989              		.loc 1 415 0
 990 005a 5E46     		mov	r6, fp
 991              	.LVL70:
 992              		.loc 1 408 0
 993 005c A568     		ldr	r5, [r4, #8]
 994              		.loc 1 415 0
 995 005e 06F1010B 		add	fp, r6, #1
 996              	.LVL71:
 997              		.loc 1 414 0
 998 0062 6A1E     		subs	r2, r5, #1
 999              		.loc 1 408 0
 1000 0064 002D     		cmp	r5, #0
 1001 0066 DDD1     		bne	.L102
 1002              	.L89:
 1003              		.loc 1 409 0
 1004 0068 5146     		mov	r1, r10
 1005 006a 2046     		mov	r0, r4
 1006 006c FFF7FEFF 		bl	qwait
 1007              	.LVL72:
 1008 0070 0028     		cmp	r0, #0
 1009 0072 D2D0     		beq	.L86
 1010              	.LBB42:
 1011              		.loc 1 410 0
 1012 0074 2B46     		mov	r3, r5
 1013              		.syntax unified
 1014              	@ 410 "../os/kernel/src/chqueues.c" 1
 1015 0076 83F31188 		msr     BASEPRI, r3
 1016              	@ 0 "" 2
 1017              	.LVL73:
 1018              		.thumb
 1019              		.syntax unified
 1020              	.L85:
 1021              	.LBE42:
 1022              		.loc 1 428 0
 1023 007a 4046     		mov	r0, r8
 1024 007c BDE8F88F 		pop	{r3, r4, r5, r6, r7, r8, r9, r10, fp, pc}
 1025              		.cfi_endproc
 1026              	.LFE17:
ARM GAS  /tmp/ccFNTtWO.s 			page 19


 1027              		.size	chOQWriteTimeout, .-chOQWriteTimeout
 1028              		.text
 1029              	.Letext0:
 1030              		.file 3 "/usr/lib/gcc/arm-none-eabi/6.3.1/include/stddef.h"
 1031              		.file 4 "/usr/include/newlib/machine/_default_types.h"
 1032              		.file 5 "/usr/include/newlib/sys/_stdint.h"
 1033              		.file 6 "../os/ports/GCC/ARMCMx/chtypes.h"
 1034              		.file 7 "../os/kernel/include/chlists.h"
 1035              		.file 8 "../os/kernel/include/chthreads.h"
 1036              		.file 9 "../os/ports/GCC/ARMCMx/chcore_v7m.h"
 1037              		.file 10 "../os/kernel/include/chvt.h"
 1038              		.file 11 "../os/kernel/include/chschd.h"
 1039              		.file 12 "../os/kernel/include/chmtx.h"
 1040              		.file 13 "../os/kernel/include/chregistry.h"
 1041              		.file 14 "../os/kernel/include/chqueues.h"
 1042              		.file 15 "../os/kernel/include/ch.h"
 1043              		.section	.debug_info,"",%progbits
 1044              	.Ldebug_info0:
 1045 0000 ED0D0000 		.4byte	0xded
 1046 0004 0400     		.2byte	0x4
 1047 0006 00000000 		.4byte	.Ldebug_abbrev0
 1048 000a 04       		.byte	0x4
 1049 000b 01       		.uleb128 0x1
 1050 000c AA020000 		.4byte	.LASF135
 1051 0010 0C       		.byte	0xc
 1052 0011 59050000 		.4byte	.LASF136
 1053 0015 C5050000 		.4byte	.LASF137
 1054 0019 60000000 		.4byte	.Ldebug_ranges0+0x60
 1055 001d 00000000 		.4byte	0
 1056 0021 00000000 		.4byte	.Ldebug_line0
 1057 0025 02       		.uleb128 0x2
 1058 0026 04       		.byte	0x4
 1059 0027 05       		.byte	0x5
 1060 0028 696E7400 		.ascii	"int\000"
 1061 002c 03       		.uleb128 0x3
 1062 002d 27000000 		.4byte	.LASF4
 1063 0031 03       		.byte	0x3
 1064 0032 D8       		.byte	0xd8
 1065 0033 37000000 		.4byte	0x37
 1066 0037 04       		.uleb128 0x4
 1067 0038 04       		.byte	0x4
 1068 0039 07       		.byte	0x7
 1069 003a A7010000 		.4byte	.LASF0
 1070 003e 04       		.uleb128 0x4
 1071 003f 08       		.byte	0x8
 1072 0040 05       		.byte	0x5
 1073 0041 C7000000 		.4byte	.LASF1
 1074 0045 04       		.uleb128 0x4
 1075 0046 08       		.byte	0x8
 1076 0047 04       		.byte	0x4
 1077 0048 50030000 		.4byte	.LASF2
 1078 004c 04       		.uleb128 0x4
 1079 004d 01       		.byte	0x1
 1080 004e 06       		.byte	0x6
 1081 004f D5000000 		.4byte	.LASF3
 1082 0053 03       		.uleb128 0x3
 1083 0054 54000000 		.4byte	.LASF5
ARM GAS  /tmp/ccFNTtWO.s 			page 20


 1084 0058 04       		.byte	0x4
 1085 0059 1D       		.byte	0x1d
 1086 005a 5E000000 		.4byte	0x5e
 1087 005e 04       		.uleb128 0x4
 1088 005f 01       		.byte	0x1
 1089 0060 08       		.byte	0x8
 1090 0061 03040000 		.4byte	.LASF6
 1091 0065 04       		.uleb128 0x4
 1092 0066 02       		.byte	0x2
 1093 0067 05       		.byte	0x5
 1094 0068 1B040000 		.4byte	.LASF7
 1095 006c 03       		.uleb128 0x3
 1096 006d CE040000 		.4byte	.LASF8
 1097 0071 04       		.byte	0x4
 1098 0072 2B       		.byte	0x2b
 1099 0073 77000000 		.4byte	0x77
 1100 0077 04       		.uleb128 0x4
 1101 0078 02       		.byte	0x2
 1102 0079 07       		.byte	0x7
 1103 007a 06020000 		.4byte	.LASF9
 1104 007e 03       		.uleb128 0x3
 1105 007f 01050000 		.4byte	.LASF10
 1106 0083 04       		.byte	0x4
 1107 0084 3F       		.byte	0x3f
 1108 0085 89000000 		.4byte	0x89
 1109 0089 04       		.uleb128 0x4
 1110 008a 04       		.byte	0x4
 1111 008b 05       		.byte	0x5
 1112 008c 2E010000 		.4byte	.LASF11
 1113 0090 03       		.uleb128 0x3
 1114 0091 7D010000 		.4byte	.LASF12
 1115 0095 04       		.byte	0x4
 1116 0096 41       		.byte	0x41
 1117 0097 9B000000 		.4byte	0x9b
 1118 009b 04       		.uleb128 0x4
 1119 009c 04       		.byte	0x4
 1120 009d 07       		.byte	0x7
 1121 009e C7010000 		.4byte	.LASF13
 1122 00a2 03       		.uleb128 0x3
 1123 00a3 B6030000 		.4byte	.LASF14
 1124 00a7 04       		.byte	0x4
 1125 00a8 5B       		.byte	0x5b
 1126 00a9 AD000000 		.4byte	0xad
 1127 00ad 04       		.uleb128 0x4
 1128 00ae 08       		.byte	0x8
 1129 00af 07       		.byte	0x7
 1130 00b0 7B000000 		.4byte	.LASF15
 1131 00b4 03       		.uleb128 0x3
 1132 00b5 84050000 		.4byte	.LASF16
 1133 00b9 05       		.byte	0x5
 1134 00ba 18       		.byte	0x18
 1135 00bb 53000000 		.4byte	0x53
 1136 00bf 05       		.uleb128 0x5
 1137 00c0 B4000000 		.4byte	0xb4
 1138 00c4 03       		.uleb128 0x3
 1139 00c5 52010000 		.4byte	.LASF17
 1140 00c9 05       		.byte	0x5
ARM GAS  /tmp/ccFNTtWO.s 			page 21


 1141 00ca 24       		.byte	0x24
 1142 00cb 6C000000 		.4byte	0x6c
 1143 00cf 03       		.uleb128 0x3
 1144 00d0 FB030000 		.4byte	.LASF18
 1145 00d4 05       		.byte	0x5
 1146 00d5 2C       		.byte	0x2c
 1147 00d6 7E000000 		.4byte	0x7e
 1148 00da 03       		.uleb128 0x3
 1149 00db 93040000 		.4byte	.LASF19
 1150 00df 05       		.byte	0x5
 1151 00e0 30       		.byte	0x30
 1152 00e1 90000000 		.4byte	0x90
 1153 00e5 03       		.uleb128 0x3
 1154 00e6 3F000000 		.4byte	.LASF20
 1155 00ea 05       		.byte	0x5
 1156 00eb 3C       		.byte	0x3c
 1157 00ec A2000000 		.4byte	0xa2
 1158 00f0 03       		.uleb128 0x3
 1159 00f1 06010000 		.4byte	.LASF21
 1160 00f5 06       		.byte	0x6
 1161 00f6 24       		.byte	0x24
 1162 00f7 FB000000 		.4byte	0xfb
 1163 00fb 04       		.uleb128 0x4
 1164 00fc 01       		.byte	0x1
 1165 00fd 02       		.byte	0x2
 1166 00fe F5030000 		.4byte	.LASF22
 1167 0102 03       		.uleb128 0x3
 1168 0103 34020000 		.4byte	.LASF23
 1169 0107 06       		.byte	0x6
 1170 0108 25       		.byte	0x25
 1171 0109 B4000000 		.4byte	0xb4
 1172 010d 03       		.uleb128 0x3
 1173 010e 37010000 		.4byte	.LASF24
 1174 0112 06       		.byte	0x6
 1175 0113 26       		.byte	0x26
 1176 0114 B4000000 		.4byte	0xb4
 1177 0118 03       		.uleb128 0x3
 1178 0119 C1030000 		.4byte	.LASF25
 1179 011d 06       		.byte	0x6
 1180 011e 27       		.byte	0x27
 1181 011f B4000000 		.4byte	0xb4
 1182 0123 03       		.uleb128 0x3
 1183 0124 15010000 		.4byte	.LASF26
 1184 0128 06       		.byte	0x6
 1185 0129 28       		.byte	0x28
 1186 012a B4000000 		.4byte	0xb4
 1187 012e 03       		.uleb128 0x3
 1188 012f E5030000 		.4byte	.LASF27
 1189 0133 06       		.byte	0x6
 1190 0134 29       		.byte	0x29
 1191 0135 DA000000 		.4byte	0xda
 1192 0139 03       		.uleb128 0x3
 1193 013a 19020000 		.4byte	.LASF28
 1194 013e 06       		.byte	0x6
 1195 013f 2A       		.byte	0x2a
 1196 0140 CF000000 		.4byte	0xcf
 1197 0144 03       		.uleb128 0x3
ARM GAS  /tmp/ccFNTtWO.s 			page 22


 1198 0145 48020000 		.4byte	.LASF29
 1199 0149 06       		.byte	0x6
 1200 014a 2C       		.byte	0x2c
 1201 014b DA000000 		.4byte	0xda
 1202 014f 03       		.uleb128 0x3
 1203 0150 EC040000 		.4byte	.LASF30
 1204 0154 06       		.byte	0x6
 1205 0155 2E       		.byte	0x2e
 1206 0156 DA000000 		.4byte	0xda
 1207 015a 06       		.uleb128 0x6
 1208 015b 4F010000 		.4byte	0x14f
 1209 015f 03       		.uleb128 0x3
 1210 0160 74040000 		.4byte	.LASF31
 1211 0164 07       		.byte	0x7
 1212 0165 23       		.byte	0x23
 1213 0166 6A010000 		.4byte	0x16a
 1214 016a 07       		.uleb128 0x7
 1215 016b 74040000 		.4byte	.LASF31
 1216 016f 48       		.byte	0x48
 1217 0170 08       		.byte	0x8
 1218 0171 57       		.byte	0x57
 1219 0172 67020000 		.4byte	0x267
 1220 0176 08       		.uleb128 0x8
 1221 0177 51040000 		.4byte	.LASF32
 1222 017b 08       		.byte	0x8
 1223 017c 58       		.byte	0x58
 1224 017d 88020000 		.4byte	0x288
 1225 0181 00       		.byte	0
 1226 0182 08       		.uleb128 0x8
 1227 0183 DE030000 		.4byte	.LASF33
 1228 0187 08       		.byte	0x8
 1229 0188 5A       		.byte	0x5a
 1230 0189 88020000 		.4byte	0x288
 1231 018d 04       		.byte	0x4
 1232 018e 08       		.uleb128 0x8
 1233 018f A9000000 		.4byte	.LASF34
 1234 0193 08       		.byte	0x8
 1235 0194 5C       		.byte	0x5c
 1236 0195 2E010000 		.4byte	0x12e
 1237 0199 08       		.byte	0x8
 1238 019a 08       		.uleb128 0x8
 1239 019b 21060000 		.4byte	.LASF35
 1240 019f 08       		.byte	0x8
 1241 01a0 5D       		.byte	0x5d
 1242 01a1 4D030000 		.4byte	0x34d
 1243 01a5 0C       		.byte	0xc
 1244 01a6 08       		.uleb128 0x8
 1245 01a7 65010000 		.4byte	.LASF36
 1246 01ab 08       		.byte	0x8
 1247 01ac 5F       		.byte	0x5f
 1248 01ad 88020000 		.4byte	0x288
 1249 01b1 10       		.byte	0x10
 1250 01b2 08       		.uleb128 0x8
 1251 01b3 74030000 		.4byte	.LASF37
 1252 01b7 08       		.byte	0x8
 1253 01b8 60       		.byte	0x60
 1254 01b9 88020000 		.4byte	0x288
ARM GAS  /tmp/ccFNTtWO.s 			page 23


 1255 01bd 14       		.byte	0x14
 1256 01be 08       		.uleb128 0x8
 1257 01bf 93050000 		.4byte	.LASF38
 1258 01c3 08       		.byte	0x8
 1259 01c4 67       		.byte	0x67
 1260 01c5 18050000 		.4byte	0x518
 1261 01c9 18       		.byte	0x18
 1262 01ca 08       		.uleb128 0x8
 1263 01cb 25040000 		.4byte	.LASF39
 1264 01cf 08       		.byte	0x8
 1265 01d0 72       		.byte	0x72
 1266 01d1 0D010000 		.4byte	0x10d
 1267 01d5 1C       		.byte	0x1c
 1268 01d6 08       		.uleb128 0x8
 1269 01d7 6C040000 		.4byte	.LASF40
 1270 01db 08       		.byte	0x8
 1271 01dc 76       		.byte	0x76
 1272 01dd 02010000 		.4byte	0x102
 1273 01e1 1D       		.byte	0x1d
 1274 01e2 08       		.uleb128 0x8
 1275 01e3 48050000 		.4byte	.LASF41
 1276 01e7 08       		.byte	0x8
 1277 01e8 7B       		.byte	0x7b
 1278 01e9 18010000 		.4byte	0x118
 1279 01ed 1E       		.byte	0x1e
 1280 01ee 08       		.uleb128 0x8
 1281 01ef 2D040000 		.4byte	.LASF42
 1282 01f3 08       		.byte	0x8
 1283 01f4 81       		.byte	0x81
 1284 01f5 23010000 		.4byte	0x123
 1285 01f9 1F       		.byte	0x1f
 1286 01fa 08       		.uleb128 0x8
 1287 01fb 16050000 		.4byte	.LASF43
 1288 01ff 08       		.byte	0x8
 1289 0200 88       		.byte	0x88
 1290 0201 5A010000 		.4byte	0x15a
 1291 0205 20       		.byte	0x20
 1292 0206 09       		.uleb128 0x9
 1293 0207 705F7500 		.ascii	"p_u\000"
 1294 020b 08       		.byte	0x8
 1295 020c AD       		.byte	0xad
 1296 020d E3040000 		.4byte	0x4e3
 1297 0211 24       		.byte	0x24
 1298 0212 08       		.uleb128 0x8
 1299 0213 27060000 		.4byte	.LASF44
 1300 0217 08       		.byte	0x8
 1301 0218 B2       		.byte	0xb2
 1302 0219 AE020000 		.4byte	0x2ae
 1303 021d 28       		.byte	0x28
 1304 021e 08       		.uleb128 0x8
 1305 021f 24050000 		.4byte	.LASF45
 1306 0223 08       		.byte	0x8
 1307 0224 B8       		.byte	0xb8
 1308 0225 8E020000 		.4byte	0x28e
 1309 0229 2C       		.byte	0x2c
 1310 022a 08       		.uleb128 0x8
 1311 022b 1C000000 		.4byte	.LASF46
ARM GAS  /tmp/ccFNTtWO.s 			page 24


 1312 022f 08       		.byte	0x8
 1313 0230 BC       		.byte	0xbc
 1314 0231 39010000 		.4byte	0x139
 1315 0235 34       		.byte	0x34
 1316 0236 08       		.uleb128 0x8
 1317 0237 88040000 		.4byte	.LASF47
 1318 023b 08       		.byte	0x8
 1319 023c C2       		.byte	0xc2
 1320 023d 44010000 		.4byte	0x144
 1321 0241 38       		.byte	0x38
 1322 0242 08       		.uleb128 0x8
 1323 0243 11040000 		.4byte	.LASF48
 1324 0247 08       		.byte	0x8
 1325 0248 C9       		.byte	0xc9
 1326 0249 2A050000 		.4byte	0x52a
 1327 024d 3C       		.byte	0x3c
 1328 024e 08       		.uleb128 0x8
 1329 024f F6040000 		.4byte	.LASF49
 1330 0253 08       		.byte	0x8
 1331 0254 CD       		.byte	0xcd
 1332 0255 2E010000 		.4byte	0x12e
 1333 0259 40       		.byte	0x40
 1334 025a 08       		.uleb128 0x8
 1335 025b FE000000 		.4byte	.LASF50
 1336 025f 08       		.byte	0x8
 1337 0260 D3       		.byte	0xd3
 1338 0261 C4020000 		.4byte	0x2c4
 1339 0265 44       		.byte	0x44
 1340 0266 00       		.byte	0
 1341 0267 0A       		.uleb128 0xa
 1342 0268 08       		.byte	0x8
 1343 0269 07       		.byte	0x7
 1344 026a 5A       		.byte	0x5a
 1345 026b 88020000 		.4byte	0x288
 1346 026f 08       		.uleb128 0x8
 1347 0270 51040000 		.4byte	.LASF32
 1348 0274 07       		.byte	0x7
 1349 0275 5B       		.byte	0x5b
 1350 0276 88020000 		.4byte	0x288
 1351 027a 00       		.byte	0
 1352 027b 08       		.uleb128 0x8
 1353 027c DE030000 		.4byte	.LASF33
 1354 0280 07       		.byte	0x7
 1355 0281 5D       		.byte	0x5d
 1356 0282 88020000 		.4byte	0x288
 1357 0286 04       		.byte	0x4
 1358 0287 00       		.byte	0
 1359 0288 0B       		.uleb128 0xb
 1360 0289 04       		.byte	0x4
 1361 028a 5F010000 		.4byte	0x15f
 1362 028e 03       		.uleb128 0x3
 1363 028f 8A030000 		.4byte	.LASF51
 1364 0293 07       		.byte	0x7
 1365 0294 5F       		.byte	0x5f
 1366 0295 67020000 		.4byte	0x267
 1367 0299 0A       		.uleb128 0xa
 1368 029a 04       		.byte	0x4
ARM GAS  /tmp/ccFNTtWO.s 			page 25


 1369 029b 07       		.byte	0x7
 1370 029c 64       		.byte	0x64
 1371 029d AE020000 		.4byte	0x2ae
 1372 02a1 08       		.uleb128 0x8
 1373 02a2 51040000 		.4byte	.LASF32
 1374 02a6 07       		.byte	0x7
 1375 02a7 66       		.byte	0x66
 1376 02a8 88020000 		.4byte	0x288
 1377 02ac 00       		.byte	0
 1378 02ad 00       		.byte	0
 1379 02ae 03       		.uleb128 0x3
 1380 02af 3C020000 		.4byte	.LASF52
 1381 02b3 07       		.byte	0x7
 1382 02b4 69       		.byte	0x69
 1383 02b5 99020000 		.4byte	0x299
 1384 02b9 03       		.uleb128 0x3
 1385 02ba 88010000 		.4byte	.LASF53
 1386 02be 09       		.byte	0x9
 1387 02bf DE       		.byte	0xde
 1388 02c0 C4020000 		.4byte	0x2c4
 1389 02c4 0C       		.uleb128 0xc
 1390 02c5 04       		.byte	0x4
 1391 02c6 03       		.uleb128 0x3
 1392 02c7 72020000 		.4byte	.LASF54
 1393 02cb 09       		.byte	0x9
 1394 02cc E4       		.byte	0xe4
 1395 02cd E5000000 		.4byte	0xe5
 1396 02d1 0D       		.uleb128 0xd
 1397 02d2 1D050000 		.4byte	.LASF55
 1398 02d6 24       		.byte	0x24
 1399 02d7 09       		.byte	0x9
 1400 02d8 0501     		.2byte	0x105
 1401 02da 4D030000 		.4byte	0x34d
 1402 02de 0E       		.uleb128 0xe
 1403 02df 723400   		.ascii	"r4\000"
 1404 02e2 09       		.byte	0x9
 1405 02e3 1801     		.2byte	0x118
 1406 02e5 B9020000 		.4byte	0x2b9
 1407 02e9 00       		.byte	0
 1408 02ea 0E       		.uleb128 0xe
 1409 02eb 723500   		.ascii	"r5\000"
 1410 02ee 09       		.byte	0x9
 1411 02ef 1901     		.2byte	0x119
 1412 02f1 B9020000 		.4byte	0x2b9
 1413 02f5 04       		.byte	0x4
 1414 02f6 0E       		.uleb128 0xe
 1415 02f7 723600   		.ascii	"r6\000"
 1416 02fa 09       		.byte	0x9
 1417 02fb 1A01     		.2byte	0x11a
 1418 02fd B9020000 		.4byte	0x2b9
 1419 0301 08       		.byte	0x8
 1420 0302 0E       		.uleb128 0xe
 1421 0303 723700   		.ascii	"r7\000"
 1422 0306 09       		.byte	0x9
 1423 0307 1B01     		.2byte	0x11b
 1424 0309 B9020000 		.4byte	0x2b9
 1425 030d 0C       		.byte	0xc
ARM GAS  /tmp/ccFNTtWO.s 			page 26


 1426 030e 0E       		.uleb128 0xe
 1427 030f 723800   		.ascii	"r8\000"
 1428 0312 09       		.byte	0x9
 1429 0313 1C01     		.2byte	0x11c
 1430 0315 B9020000 		.4byte	0x2b9
 1431 0319 10       		.byte	0x10
 1432 031a 0E       		.uleb128 0xe
 1433 031b 723900   		.ascii	"r9\000"
 1434 031e 09       		.byte	0x9
 1435 031f 1D01     		.2byte	0x11d
 1436 0321 B9020000 		.4byte	0x2b9
 1437 0325 14       		.byte	0x14
 1438 0326 0E       		.uleb128 0xe
 1439 0327 72313000 		.ascii	"r10\000"
 1440 032b 09       		.byte	0x9
 1441 032c 1E01     		.2byte	0x11e
 1442 032e B9020000 		.4byte	0x2b9
 1443 0332 18       		.byte	0x18
 1444 0333 0E       		.uleb128 0xe
 1445 0334 72313100 		.ascii	"r11\000"
 1446 0338 09       		.byte	0x9
 1447 0339 1F01     		.2byte	0x11f
 1448 033b B9020000 		.4byte	0x2b9
 1449 033f 1C       		.byte	0x1c
 1450 0340 0E       		.uleb128 0xe
 1451 0341 6C7200   		.ascii	"lr\000"
 1452 0344 09       		.byte	0x9
 1453 0345 2001     		.2byte	0x120
 1454 0347 B9020000 		.4byte	0x2b9
 1455 034b 20       		.byte	0x20
 1456 034c 00       		.byte	0
 1457 034d 0D       		.uleb128 0xd
 1458 034e F9010000 		.4byte	.LASF56
 1459 0352 04       		.byte	0x4
 1460 0353 09       		.byte	0x9
 1461 0354 2A01     		.2byte	0x12a
 1462 0356 68030000 		.4byte	0x368
 1463 035a 0E       		.uleb128 0xe
 1464 035b 72313300 		.ascii	"r13\000"
 1465 035f 09       		.byte	0x9
 1466 0360 2B01     		.2byte	0x12b
 1467 0362 68030000 		.4byte	0x368
 1468 0366 00       		.byte	0
 1469 0367 00       		.byte	0
 1470 0368 0B       		.uleb128 0xb
 1471 0369 04       		.byte	0x4
 1472 036a D1020000 		.4byte	0x2d1
 1473 036e 04       		.uleb128 0x4
 1474 036f 04       		.byte	0x4
 1475 0370 07       		.byte	0x7
 1476 0371 3D030000 		.4byte	.LASF57
 1477 0375 03       		.uleb128 0x3
 1478 0376 E2010000 		.4byte	.LASF58
 1479 037a 0A       		.byte	0xa
 1480 037b 51       		.byte	0x51
 1481 037c 80030000 		.4byte	0x380
 1482 0380 0B       		.uleb128 0xb
ARM GAS  /tmp/ccFNTtWO.s 			page 27


 1483 0381 04       		.byte	0x4
 1484 0382 86030000 		.4byte	0x386
 1485 0386 0F       		.uleb128 0xf
 1486 0387 91030000 		.4byte	0x391
 1487 038b 10       		.uleb128 0x10
 1488 038c C4020000 		.4byte	0x2c4
 1489 0390 00       		.byte	0
 1490 0391 03       		.uleb128 0x3
 1491 0392 B0040000 		.4byte	.LASF59
 1492 0396 0A       		.byte	0xa
 1493 0397 56       		.byte	0x56
 1494 0398 9C030000 		.4byte	0x39c
 1495 039c 07       		.uleb128 0x7
 1496 039d B0040000 		.4byte	.LASF59
 1497 03a1 14       		.byte	0x14
 1498 03a2 0A       		.byte	0xa
 1499 03a3 5D       		.byte	0x5d
 1500 03a4 E5030000 		.4byte	0x3e5
 1501 03a8 08       		.uleb128 0x8
 1502 03a9 B4010000 		.4byte	.LASF60
 1503 03ad 0A       		.byte	0xa
 1504 03ae 5E       		.byte	0x5e
 1505 03af E5030000 		.4byte	0x3e5
 1506 03b3 00       		.byte	0
 1507 03b4 08       		.uleb128 0x8
 1508 03b5 91010000 		.4byte	.LASF61
 1509 03b9 0A       		.byte	0xa
 1510 03ba 60       		.byte	0x60
 1511 03bb E5030000 		.4byte	0x3e5
 1512 03bf 04       		.byte	0x4
 1513 03c0 08       		.uleb128 0x8
 1514 03c1 A2020000 		.4byte	.LASF62
 1515 03c5 0A       		.byte	0xa
 1516 03c6 62       		.byte	0x62
 1517 03c7 4F010000 		.4byte	0x14f
 1518 03cb 08       		.byte	0x8
 1519 03cc 08       		.uleb128 0x8
 1520 03cd 2E000000 		.4byte	.LASF63
 1521 03d1 0A       		.byte	0xa
 1522 03d2 63       		.byte	0x63
 1523 03d3 75030000 		.4byte	0x375
 1524 03d7 0C       		.byte	0xc
 1525 03d8 08       		.uleb128 0x8
 1526 03d9 2F050000 		.4byte	.LASF64
 1527 03dd 0A       		.byte	0xa
 1528 03de 65       		.byte	0x65
 1529 03df C4020000 		.4byte	0x2c4
 1530 03e3 10       		.byte	0x10
 1531 03e4 00       		.byte	0
 1532 03e5 0B       		.uleb128 0xb
 1533 03e6 04       		.byte	0x4
 1534 03e7 91030000 		.4byte	0x391
 1535 03eb 0A       		.uleb128 0xa
 1536 03ec 10       		.byte	0x10
 1537 03ed 0A       		.byte	0xa
 1538 03ee 6F       		.byte	0x6f
 1539 03ef 24040000 		.4byte	0x424
ARM GAS  /tmp/ccFNTtWO.s 			page 28


 1540 03f3 08       		.uleb128 0x8
 1541 03f4 B4010000 		.4byte	.LASF60
 1542 03f8 0A       		.byte	0xa
 1543 03f9 70       		.byte	0x70
 1544 03fa E5030000 		.4byte	0x3e5
 1545 03fe 00       		.byte	0
 1546 03ff 08       		.uleb128 0x8
 1547 0400 91010000 		.4byte	.LASF61
 1548 0404 0A       		.byte	0xa
 1549 0405 72       		.byte	0x72
 1550 0406 E5030000 		.4byte	0x3e5
 1551 040a 04       		.byte	0x4
 1552 040b 08       		.uleb128 0x8
 1553 040c A2020000 		.4byte	.LASF62
 1554 0410 0A       		.byte	0xa
 1555 0411 74       		.byte	0x74
 1556 0412 4F010000 		.4byte	0x14f
 1557 0416 08       		.byte	0x8
 1558 0417 08       		.uleb128 0x8
 1559 0418 9A050000 		.4byte	.LASF65
 1560 041c 0A       		.byte	0xa
 1561 041d 75       		.byte	0x75
 1562 041e 5A010000 		.4byte	0x15a
 1563 0422 0C       		.byte	0xc
 1564 0423 00       		.byte	0
 1565 0424 03       		.uleb128 0x3
 1566 0425 0B060000 		.4byte	.LASF66
 1567 0429 0A       		.byte	0xa
 1568 042a 76       		.byte	0x76
 1569 042b EB030000 		.4byte	0x3eb
 1570 042f 11       		.uleb128 0x11
 1571 0430 5E000000 		.4byte	.LASF74
 1572 0434 0A       		.byte	0xa
 1573 0435 EE       		.byte	0xee
 1574 0436 24040000 		.4byte	0x424
 1575 043a 0A       		.uleb128 0xa
 1576 043b 1C       		.byte	0x1c
 1577 043c 0B       		.byte	0xb
 1578 043d 57       		.byte	0x57
 1579 043e 8B040000 		.4byte	0x48b
 1580 0442 08       		.uleb128 0x8
 1581 0443 A8040000 		.4byte	.LASF67
 1582 0447 0B       		.byte	0xb
 1583 0448 58       		.byte	0x58
 1584 0449 8E020000 		.4byte	0x28e
 1585 044d 00       		.byte	0
 1586 044e 08       		.uleb128 0x8
 1587 044f 43040000 		.4byte	.LASF68
 1588 0453 0B       		.byte	0xb
 1589 0454 59       		.byte	0x59
 1590 0455 2E010000 		.4byte	0x12e
 1591 0459 08       		.byte	0x8
 1592 045a 08       		.uleb128 0x8
 1593 045b 84030000 		.4byte	.LASF69
 1594 045f 0B       		.byte	0xb
 1595 0460 5B       		.byte	0x5b
 1596 0461 4D030000 		.4byte	0x34d
ARM GAS  /tmp/ccFNTtWO.s 			page 29


 1597 0465 0C       		.byte	0xc
 1598 0466 08       		.uleb128 0x8
 1599 0467 1F020000 		.4byte	.LASF70
 1600 046b 0B       		.byte	0xb
 1601 046c 5E       		.byte	0x5e
 1602 046d 88020000 		.4byte	0x288
 1603 0471 10       		.byte	0x10
 1604 0472 08       		.uleb128 0x8
 1605 0473 AE030000 		.4byte	.LASF71
 1606 0477 0B       		.byte	0xb
 1607 0478 5F       		.byte	0x5f
 1608 0479 88020000 		.4byte	0x288
 1609 047d 14       		.byte	0x14
 1610 047e 08       		.uleb128 0x8
 1611 047f A4030000 		.4byte	.LASF72
 1612 0483 0B       		.byte	0xb
 1613 0484 62       		.byte	0x62
 1614 0485 88020000 		.4byte	0x288
 1615 0489 18       		.byte	0x18
 1616 048a 00       		.byte	0
 1617 048b 03       		.uleb128 0x3
 1618 048c 4F050000 		.4byte	.LASF73
 1619 0490 0B       		.byte	0xb
 1620 0491 64       		.byte	0x64
 1621 0492 3A040000 		.4byte	0x43a
 1622 0496 11       		.uleb128 0x11
 1623 0497 7E050000 		.4byte	.LASF75
 1624 049b 0B       		.byte	0xb
 1625 049c 68       		.byte	0x68
 1626 049d 8B040000 		.4byte	0x48b
 1627 04a1 07       		.uleb128 0x7
 1628 04a2 5F020000 		.4byte	.LASF76
 1629 04a6 10       		.byte	0x10
 1630 04a7 0C       		.byte	0xc
 1631 04a8 25       		.byte	0x25
 1632 04a9 D2040000 		.4byte	0x4d2
 1633 04ad 08       		.uleb128 0x8
 1634 04ae 0D010000 		.4byte	.LASF77
 1635 04b2 0C       		.byte	0xc
 1636 04b3 26       		.byte	0x26
 1637 04b4 8E020000 		.4byte	0x28e
 1638 04b8 00       		.byte	0
 1639 04b9 08       		.uleb128 0x8
 1640 04ba 19060000 		.4byte	.LASF78
 1641 04be 0C       		.byte	0xc
 1642 04bf 28       		.byte	0x28
 1643 04c0 88020000 		.4byte	0x288
 1644 04c4 08       		.byte	0x8
 1645 04c5 08       		.uleb128 0x8
 1646 04c6 E5040000 		.4byte	.LASF79
 1647 04ca 0C       		.byte	0xc
 1648 04cb 2A       		.byte	0x2a
 1649 04cc D2040000 		.4byte	0x4d2
 1650 04d0 0C       		.byte	0xc
 1651 04d1 00       		.byte	0
 1652 04d2 0B       		.uleb128 0xb
 1653 04d3 04       		.byte	0x4
ARM GAS  /tmp/ccFNTtWO.s 			page 30


 1654 04d4 A1040000 		.4byte	0x4a1
 1655 04d8 03       		.uleb128 0x3
 1656 04d9 5F020000 		.4byte	.LASF76
 1657 04dd 0C       		.byte	0xc
 1658 04de 2C       		.byte	0x2c
 1659 04df A1040000 		.4byte	0x4a1
 1660 04e3 12       		.uleb128 0x12
 1661 04e4 04       		.byte	0x4
 1662 04e5 08       		.byte	0x8
 1663 04e6 8F       		.byte	0x8f
 1664 04e7 18050000 		.4byte	0x518
 1665 04eb 13       		.uleb128 0x13
 1666 04ec 41050000 		.4byte	.LASF80
 1667 04f0 08       		.byte	0x8
 1668 04f1 96       		.byte	0x96
 1669 04f2 39010000 		.4byte	0x139
 1670 04f6 13       		.uleb128 0x13
 1671 04f7 A0000000 		.4byte	.LASF81
 1672 04fb 08       		.byte	0x8
 1673 04fc 9D       		.byte	0x9d
 1674 04fd 39010000 		.4byte	0x139
 1675 0501 13       		.uleb128 0x13
 1676 0502 8C050000 		.4byte	.LASF82
 1677 0506 08       		.byte	0x8
 1678 0507 A4       		.byte	0xa4
 1679 0508 C4020000 		.4byte	0x2c4
 1680 050c 13       		.uleb128 0x13
 1681 050d 4A040000 		.4byte	.LASF83
 1682 0511 08       		.byte	0x8
 1683 0512 AB       		.byte	0xab
 1684 0513 44010000 		.4byte	0x144
 1685 0517 00       		.byte	0
 1686 0518 0B       		.uleb128 0xb
 1687 0519 04       		.byte	0x4
 1688 051a 25050000 		.4byte	0x525
 1689 051e 04       		.uleb128 0x4
 1690 051f 01       		.byte	0x1
 1691 0520 08       		.byte	0x8
 1692 0521 BD040000 		.4byte	.LASF84
 1693 0525 05       		.uleb128 0x5
 1694 0526 1E050000 		.4byte	0x51e
 1695 052a 0B       		.uleb128 0xb
 1696 052b 04       		.byte	0x4
 1697 052c D8040000 		.4byte	0x4d8
 1698 0530 0A       		.uleb128 0xa
 1699 0531 16       		.byte	0x16
 1700 0532 0D       		.byte	0xd
 1701 0533 25       		.byte	0x25
 1702 0534 11060000 		.4byte	0x611
 1703 0538 08       		.uleb128 0x8
 1704 0539 EB010000 		.4byte	.LASF85
 1705 053d 0D       		.byte	0xd
 1706 053e 26       		.byte	0x26
 1707 053f 11060000 		.4byte	0x611
 1708 0543 00       		.byte	0
 1709 0544 08       		.uleb128 0x8
 1710 0545 8E020000 		.4byte	.LASF86
ARM GAS  /tmp/ccFNTtWO.s 			page 31


 1711 0549 0D       		.byte	0xd
 1712 054a 27       		.byte	0x27
 1713 054b B4000000 		.4byte	0xb4
 1714 054f 04       		.byte	0x4
 1715 0550 08       		.uleb128 0x8
 1716 0551 97030000 		.4byte	.LASF87
 1717 0555 0D       		.byte	0xd
 1718 0556 28       		.byte	0x28
 1719 0557 B4000000 		.4byte	0xb4
 1720 055b 05       		.byte	0x5
 1721 055c 08       		.uleb128 0x8
 1722 055d BA050000 		.4byte	.LASF88
 1723 0561 0D       		.byte	0xd
 1724 0562 29       		.byte	0x29
 1725 0563 C4000000 		.4byte	0xc4
 1726 0567 06       		.byte	0x6
 1727 0568 08       		.uleb128 0x8
 1728 0569 C9030000 		.4byte	.LASF89
 1729 056d 0D       		.byte	0xd
 1730 056e 2A       		.byte	0x2a
 1731 056f B4000000 		.4byte	0xb4
 1732 0573 08       		.byte	0x8
 1733 0574 08       		.uleb128 0x8
 1734 0575 5C030000 		.4byte	.LASF90
 1735 0579 0D       		.byte	0xd
 1736 057a 2B       		.byte	0x2b
 1737 057b B4000000 		.4byte	0xb4
 1738 057f 09       		.byte	0x9
 1739 0580 08       		.uleb128 0x8
 1740 0581 92000000 		.4byte	.LASF91
 1741 0585 0D       		.byte	0xd
 1742 0586 2C       		.byte	0x2c
 1743 0587 B4000000 		.4byte	0xb4
 1744 058b 0A       		.byte	0xa
 1745 058c 08       		.uleb128 0x8
 1746 058d 9C040000 		.4byte	.LASF92
 1747 0591 0D       		.byte	0xd
 1748 0592 2D       		.byte	0x2d
 1749 0593 B4000000 		.4byte	0xb4
 1750 0597 0B       		.byte	0xb
 1751 0598 08       		.uleb128 0x8
 1752 0599 36050000 		.4byte	.LASF93
 1753 059d 0D       		.byte	0xd
 1754 059e 2E       		.byte	0x2e
 1755 059f B4000000 		.4byte	0xb4
 1756 05a3 0C       		.byte	0xc
 1757 05a4 08       		.uleb128 0x8
 1758 05a5 7B040000 		.4byte	.LASF94
 1759 05a9 0D       		.byte	0xd
 1760 05aa 2F       		.byte	0x2f
 1761 05ab B4000000 		.4byte	0xb4
 1762 05af 0D       		.byte	0xd
 1763 05b0 08       		.uleb128 0x8
 1764 05b1 0F000000 		.4byte	.LASF95
 1765 05b5 0D       		.byte	0xd
 1766 05b6 30       		.byte	0x30
 1767 05b7 B4000000 		.4byte	0xb4
ARM GAS  /tmp/ccFNTtWO.s 			page 32


 1768 05bb 0E       		.byte	0xe
 1769 05bc 08       		.uleb128 0x8
 1770 05bd 68030000 		.4byte	.LASF96
 1771 05c1 0D       		.byte	0xd
 1772 05c2 31       		.byte	0x31
 1773 05c3 B4000000 		.4byte	0xb4
 1774 05c7 0F       		.byte	0xf
 1775 05c8 08       		.uleb128 0x8
 1776 05c9 E1000000 		.4byte	.LASF97
 1777 05cd 0D       		.byte	0xd
 1778 05ce 32       		.byte	0x32
 1779 05cf B4000000 		.4byte	0xb4
 1780 05d3 10       		.byte	0x10
 1781 05d4 08       		.uleb128 0x8
 1782 05d5 B0000000 		.4byte	.LASF98
 1783 05d9 0D       		.byte	0xd
 1784 05da 34       		.byte	0x34
 1785 05db B4000000 		.4byte	0xb4
 1786 05df 11       		.byte	0x11
 1787 05e0 08       		.uleb128 0x8
 1788 05e1 F1000000 		.4byte	.LASF99
 1789 05e5 0D       		.byte	0xd
 1790 05e6 35       		.byte	0x35
 1791 05e7 B4000000 		.4byte	0xb4
 1792 05eb 12       		.byte	0x12
 1793 05ec 08       		.uleb128 0x8
 1794 05ed 96020000 		.4byte	.LASF100
 1795 05f1 0D       		.byte	0xd
 1796 05f2 36       		.byte	0x36
 1797 05f3 B4000000 		.4byte	0xb4
 1798 05f7 13       		.byte	0x13
 1799 05f8 08       		.uleb128 0x8
 1800 05f9 5D040000 		.4byte	.LASF101
 1801 05fd 0D       		.byte	0xd
 1802 05fe 37       		.byte	0x37
 1803 05ff B4000000 		.4byte	0xb4
 1804 0603 14       		.byte	0x14
 1805 0604 08       		.uleb128 0x8
 1806 0605 37040000 		.4byte	.LASF102
 1807 0609 0D       		.byte	0xd
 1808 060a 39       		.byte	0x39
 1809 060b B4000000 		.4byte	0xb4
 1810 060f 15       		.byte	0x15
 1811 0610 00       		.byte	0
 1812 0611 14       		.uleb128 0x14
 1813 0612 1E050000 		.4byte	0x51e
 1814 0616 21060000 		.4byte	0x621
 1815 061a 15       		.uleb128 0x15
 1816 061b 6E030000 		.4byte	0x36e
 1817 061f 03       		.byte	0x3
 1818 0620 00       		.byte	0
 1819 0621 03       		.uleb128 0x3
 1820 0622 5B010000 		.4byte	.LASF103
 1821 0626 0D       		.byte	0xd
 1822 0627 3A       		.byte	0x3a
 1823 0628 30050000 		.4byte	0x530
 1824 062c 05       		.uleb128 0x5
ARM GAS  /tmp/ccFNTtWO.s 			page 33


 1825 062d 21060000 		.4byte	0x621
 1826 0631 11       		.uleb128 0x11
 1827 0632 D9010000 		.4byte	.LASF104
 1828 0636 0D       		.byte	0xd
 1829 0637 77       		.byte	0x77
 1830 0638 2C060000 		.4byte	0x62c
 1831 063c 03       		.uleb128 0x3
 1832 063d 65020000 		.4byte	.LASF105
 1833 0641 0E       		.byte	0xe
 1834 0642 30       		.byte	0x30
 1835 0643 47060000 		.4byte	0x647
 1836 0647 07       		.uleb128 0x7
 1837 0648 65020000 		.4byte	.LASF105
 1838 064c 24       		.byte	0x24
 1839 064d 0E       		.byte	0xe
 1840 064e 3E       		.byte	0x3e
 1841 064f B4060000 		.4byte	0x6b4
 1842 0653 08       		.uleb128 0x8
 1843 0654 BD000000 		.4byte	.LASF106
 1844 0658 0E       		.byte	0xe
 1845 0659 3F       		.byte	0x3f
 1846 065a 8E020000 		.4byte	0x28e
 1847 065e 00       		.byte	0
 1848 065f 08       		.uleb128 0x8
 1849 0660 46030000 		.4byte	.LASF107
 1850 0664 0E       		.byte	0xe
 1851 0665 40       		.byte	0x40
 1852 0666 2C000000 		.4byte	0x2c
 1853 066a 08       		.byte	0x8
 1854 066b 08       		.uleb128 0x8
 1855 066c 49010000 		.4byte	.LASF108
 1856 0670 0E       		.byte	0xe
 1857 0671 41       		.byte	0x41
 1858 0672 D6060000 		.4byte	0x6d6
 1859 0676 0C       		.byte	0xc
 1860 0677 08       		.uleb128 0x8
 1861 0678 75000000 		.4byte	.LASF109
 1862 067c 0E       		.byte	0xe
 1863 067d 42       		.byte	0x42
 1864 067e D6060000 		.4byte	0x6d6
 1865 0682 10       		.byte	0x10
 1866 0683 08       		.uleb128 0x8
 1867 0684 7C030000 		.4byte	.LASF110
 1868 0688 0E       		.byte	0xe
 1869 0689 44       		.byte	0x44
 1870 068a D6060000 		.4byte	0x6d6
 1871 068e 14       		.byte	0x14
 1872 068f 08       		.uleb128 0x8
 1873 0690 ED030000 		.4byte	.LASF111
 1874 0694 0E       		.byte	0xe
 1875 0695 45       		.byte	0x45
 1876 0696 D6060000 		.4byte	0x6d6
 1877 069a 18       		.byte	0x18
 1878 069b 08       		.uleb128 0x8
 1879 069c 75050000 		.4byte	.LASF112
 1880 06a0 0E       		.byte	0xe
 1881 06a1 46       		.byte	0x46
ARM GAS  /tmp/ccFNTtWO.s 			page 34


 1882 06a2 B4060000 		.4byte	0x6b4
 1883 06a6 1C       		.byte	0x1c
 1884 06a7 08       		.uleb128 0x8
 1885 06a8 12060000 		.4byte	.LASF113
 1886 06ac 0E       		.byte	0xe
 1887 06ad 47       		.byte	0x47
 1888 06ae C4020000 		.4byte	0x2c4
 1889 06b2 20       		.byte	0x20
 1890 06b3 00       		.byte	0
 1891 06b4 03       		.uleb128 0x3
 1892 06b5 D4030000 		.4byte	.LASF114
 1893 06b9 0E       		.byte	0xe
 1894 06ba 33       		.byte	0x33
 1895 06bb BF060000 		.4byte	0x6bf
 1896 06bf 0B       		.uleb128 0xb
 1897 06c0 04       		.byte	0x4
 1898 06c1 C5060000 		.4byte	0x6c5
 1899 06c5 0F       		.uleb128 0xf
 1900 06c6 D0060000 		.4byte	0x6d0
 1901 06ca 10       		.uleb128 0x10
 1902 06cb D0060000 		.4byte	0x6d0
 1903 06cf 00       		.byte	0
 1904 06d0 0B       		.uleb128 0xb
 1905 06d1 04       		.byte	0x4
 1906 06d2 3C060000 		.4byte	0x63c
 1907 06d6 0B       		.uleb128 0xb
 1908 06d7 04       		.byte	0x4
 1909 06d8 B4000000 		.4byte	0xb4
 1910 06dc 03       		.uleb128 0x3
 1911 06dd 54020000 		.4byte	.LASF115
 1912 06e1 0E       		.byte	0xe
 1913 06e2 7B       		.byte	0x7b
 1914 06e3 3C060000 		.4byte	0x63c
 1915 06e7 03       		.uleb128 0x3
 1916 06e8 48000000 		.4byte	.LASF116
 1917 06ec 0E       		.byte	0xe
 1918 06ed EE       		.byte	0xee
 1919 06ee 3C060000 		.4byte	0x63c
 1920 06f2 0B       		.uleb128 0xb
 1921 06f3 04       		.byte	0x4
 1922 06f4 BF000000 		.4byte	0xbf
 1923 06f8 14       		.uleb128 0x14
 1924 06f9 C6020000 		.4byte	0x2c6
 1925 06fd 08070000 		.4byte	0x708
 1926 0701 15       		.uleb128 0x15
 1927 0702 6E030000 		.4byte	0x36e
 1928 0706 17       		.byte	0x17
 1929 0707 00       		.byte	0
 1930 0708 11       		.uleb128 0x11
 1931 0709 6D010000 		.4byte	.LASF117
 1932 070d 0F       		.byte	0xf
 1933 070e 82       		.byte	0x82
 1934 070f F8060000 		.4byte	0x6f8
 1935 0713 16       		.uleb128 0x16
 1936 0714 7D020000 		.4byte	.LASF119
 1937 0718 01       		.byte	0x1
 1938 0719 8F01     		.2byte	0x18f
ARM GAS  /tmp/ccFNTtWO.s 			page 35


 1939 071b 2C000000 		.4byte	0x2c
 1940 071f 00000000 		.4byte	.LFB17
 1941 0723 80000000 		.4byte	.LFE17-.LFB17
 1942 0727 01       		.uleb128 0x1
 1943 0728 9C       		.byte	0x9c
 1944 0729 1D080000 		.4byte	0x81d
 1945 072d 17       		.uleb128 0x17
 1946 072e 6F717000 		.ascii	"oqp\000"
 1947 0732 01       		.byte	0x1
 1948 0733 8F01     		.2byte	0x18f
 1949 0735 1D080000 		.4byte	0x81d
 1950 0739 00000000 		.4byte	.LLST34
 1951 073d 17       		.uleb128 0x17
 1952 073e 627000   		.ascii	"bp\000"
 1953 0741 01       		.byte	0x1
 1954 0742 8F01     		.2byte	0x18f
 1955 0744 F2060000 		.4byte	0x6f2
 1956 0748 1E000000 		.4byte	.LLST35
 1957 074c 17       		.uleb128 0x17
 1958 074d 6E00     		.ascii	"n\000"
 1959 074f 01       		.byte	0x1
 1960 0750 9001     		.2byte	0x190
 1961 0752 2C000000 		.4byte	0x2c
 1962 0756 5D000000 		.4byte	.LLST36
 1963 075a 18       		.uleb128 0x18
 1964 075b 9F030000 		.4byte	.LASF118
 1965 075f 01       		.byte	0x1
 1966 0760 9001     		.2byte	0x190
 1967 0762 4F010000 		.4byte	0x14f
 1968 0766 93000000 		.4byte	.LLST37
 1969 076a 19       		.uleb128 0x19
 1970 076b 6E667900 		.ascii	"nfy\000"
 1971 076f 01       		.byte	0x1
 1972 0770 9101     		.2byte	0x191
 1973 0772 B4060000 		.4byte	0x6b4
 1974 0776 01       		.uleb128 0x1
 1975 0777 59       		.byte	0x59
 1976 0778 1A       		.uleb128 0x1a
 1977 0779 7700     		.ascii	"w\000"
 1978 077b 01       		.byte	0x1
 1979 077c 9201     		.2byte	0x192
 1980 077e 2C000000 		.4byte	0x2c
 1981 0782 B1000000 		.4byte	.LLST38
 1982 0786 1B       		.uleb128 0x1b
 1983 0787 10000000 		.4byte	.LBB39
 1984 078b 06000000 		.4byte	.LBE39-.LBB39
 1985 078f A2070000 		.4byte	0x7a2
 1986 0793 19       		.uleb128 0x19
 1987 0794 746D7000 		.ascii	"tmp\000"
 1988 0798 01       		.byte	0x1
 1989 0799 9601     		.2byte	0x196
 1990 079b DA000000 		.4byte	0xda
 1991 079f 01       		.uleb128 0x1
 1992 07a0 53       		.byte	0x53
 1993 07a1 00       		.byte	0
 1994 07a2 1B       		.uleb128 0x1b
 1995 07a3 74000000 		.4byte	.LBB42
ARM GAS  /tmp/ccFNTtWO.s 			page 36


 1996 07a7 06000000 		.4byte	.LBE42-.LBB42
 1997 07ab BE070000 		.4byte	0x7be
 1998 07af 19       		.uleb128 0x19
 1999 07b0 746D7000 		.ascii	"tmp\000"
 2000 07b4 01       		.byte	0x1
 2001 07b5 9A01     		.2byte	0x19a
 2002 07b7 DA000000 		.4byte	0xda
 2003 07bb 01       		.uleb128 0x1
 2004 07bc 53       		.byte	0x53
 2005 07bd 00       		.byte	0
 2006 07be 1B       		.uleb128 0x1b
 2007 07bf 46000000 		.4byte	.LBB40
 2008 07c3 06000000 		.4byte	.LBE40-.LBB40
 2009 07c7 DA070000 		.4byte	0x7da
 2010 07cb 19       		.uleb128 0x19
 2011 07cc 746D7000 		.ascii	"tmp\000"
 2012 07d0 01       		.byte	0x1
 2013 07d1 A601     		.2byte	0x1a6
 2014 07d3 DA000000 		.4byte	0xda
 2015 07d7 01       		.uleb128 0x1
 2016 07d8 53       		.byte	0x53
 2017 07d9 00       		.byte	0
 2018 07da 1B       		.uleb128 0x1b
 2019 07db 54000000 		.4byte	.LBB41
 2020 07df 06000000 		.4byte	.LBE41-.LBB41
 2021 07e3 F6070000 		.4byte	0x7f6
 2022 07e7 19       		.uleb128 0x19
 2023 07e8 746D7000 		.ascii	"tmp\000"
 2024 07ec 01       		.byte	0x1
 2025 07ed AA01     		.2byte	0x1aa
 2026 07ef DA000000 		.4byte	0xda
 2027 07f3 01       		.uleb128 0x1
 2028 07f4 53       		.byte	0x53
 2029 07f5 00       		.byte	0
 2030 07f6 1C       		.uleb128 0x1c
 2031 07f7 46000000 		.4byte	.LVL67
 2032 07fb 06080000 		.4byte	0x806
 2033 07ff 1D       		.uleb128 0x1d
 2034 0800 01       		.uleb128 0x1
 2035 0801 50       		.byte	0x50
 2036 0802 02       		.uleb128 0x2
 2037 0803 74       		.byte	0x74
 2038 0804 00       		.sleb128 0
 2039 0805 00       		.byte	0
 2040 0806 1E       		.uleb128 0x1e
 2041 0807 70000000 		.4byte	.LVL72
 2042 080b 190D0000 		.4byte	0xd19
 2043 080f 1D       		.uleb128 0x1d
 2044 0810 01       		.uleb128 0x1
 2045 0811 50       		.byte	0x50
 2046 0812 02       		.uleb128 0x2
 2047 0813 74       		.byte	0x74
 2048 0814 00       		.sleb128 0
 2049 0815 1D       		.uleb128 0x1d
 2050 0816 01       		.uleb128 0x1
 2051 0817 51       		.byte	0x51
 2052 0818 02       		.uleb128 0x2
ARM GAS  /tmp/ccFNTtWO.s 			page 37


 2053 0819 7A       		.byte	0x7a
 2054 081a 00       		.sleb128 0
 2055 081b 00       		.byte	0
 2056 081c 00       		.byte	0
 2057 081d 0B       		.uleb128 0xb
 2058 081e 04       		.byte	0x4
 2059 081f E7060000 		.4byte	0x6e7
 2060 0823 16       		.uleb128 0x16
 2061 0824 40010000 		.4byte	.LASF120
 2062 0828 01       		.byte	0x1
 2063 0829 6401     		.2byte	0x164
 2064 082b 39010000 		.4byte	0x139
 2065 082f 00000000 		.4byte	.LFB16
 2066 0833 48000000 		.4byte	.LFE16-.LFB16
 2067 0837 01       		.uleb128 0x1
 2068 0838 9C       		.byte	0x9c
 2069 0839 92080000 		.4byte	0x892
 2070 083d 17       		.uleb128 0x17
 2071 083e 6F717000 		.ascii	"oqp\000"
 2072 0842 01       		.byte	0x1
 2073 0843 6401     		.2byte	0x164
 2074 0845 1D080000 		.4byte	0x81d
 2075 0849 D0000000 		.4byte	.LLST30
 2076 084d 1A       		.uleb128 0x1a
 2077 084e 6200     		.ascii	"b\000"
 2078 0850 01       		.byte	0x1
 2079 0851 6501     		.2byte	0x165
 2080 0853 B4000000 		.4byte	0xb4
 2081 0857 15010000 		.4byte	.LLST31
 2082 085b 1F       		.uleb128 0x1f
 2083 085c 8C0D0000 		.4byte	0xd8c
 2084 0860 24000000 		.4byte	.LBB35
 2085 0864 48000000 		.4byte	.Ldebug_ranges0+0x48
 2086 0868 01       		.byte	0x1
 2087 0869 7201     		.2byte	0x172
 2088 086b 88080000 		.4byte	0x888
 2089 086f 20       		.uleb128 0x20
 2090 0870 9C0D0000 		.4byte	0xd9c
 2091 0874 28010000 		.4byte	.LLST32
 2092 0878 21       		.uleb128 0x21
 2093 0879 48000000 		.4byte	.Ldebug_ranges0+0x48
 2094 087d 22       		.uleb128 0x22
 2095 087e A70D0000 		.4byte	0xda7
 2096 0882 3B010000 		.4byte	.LLST33
 2097 0886 00       		.byte	0
 2098 0887 00       		.byte	0
 2099 0888 23       		.uleb128 0x23
 2100 0889 30000000 		.4byte	.LVL58
 2101 088d DA0D0000 		.4byte	0xdda
 2102 0891 00       		.byte	0
 2103 0892 16       		.uleb128 0x16
 2104 0893 00000000 		.4byte	.LASF121
 2105 0897 01       		.byte	0x1
 2106 0898 4201     		.2byte	0x142
 2107 089a 39010000 		.4byte	0x139
 2108 089e 00000000 		.4byte	.LFB15
 2109 08a2 54000000 		.4byte	.LFE15-.LFB15
ARM GAS  /tmp/ccFNTtWO.s 			page 38


 2110 08a6 01       		.uleb128 0x1
 2111 08a7 9C       		.byte	0x9c
 2112 08a8 6B090000 		.4byte	0x96b
 2113 08ac 17       		.uleb128 0x17
 2114 08ad 6F717000 		.ascii	"oqp\000"
 2115 08b1 01       		.byte	0x1
 2116 08b2 4201     		.2byte	0x142
 2117 08b4 1D080000 		.4byte	0x81d
 2118 08b8 4E010000 		.4byte	.LLST26
 2119 08bc 17       		.uleb128 0x17
 2120 08bd 6200     		.ascii	"b\000"
 2121 08bf 01       		.byte	0x1
 2122 08c0 4201     		.2byte	0x142
 2123 08c2 B4000000 		.4byte	0xb4
 2124 08c6 6C010000 		.4byte	.LLST27
 2125 08ca 18       		.uleb128 0x18
 2126 08cb 9F030000 		.4byte	.LASF118
 2127 08cf 01       		.byte	0x1
 2128 08d0 4201     		.2byte	0x142
 2129 08d2 4F010000 		.4byte	0x14f
 2130 08d6 8D010000 		.4byte	.LLST28
 2131 08da 1B       		.uleb128 0x1b
 2132 08db 08000000 		.4byte	.LBB30
 2133 08df 06000000 		.4byte	.LBE30-.LBB30
 2134 08e3 F6080000 		.4byte	0x8f6
 2135 08e7 19       		.uleb128 0x19
 2136 08e8 746D7000 		.ascii	"tmp\000"
 2137 08ec 01       		.byte	0x1
 2138 08ed 4401     		.2byte	0x144
 2139 08ef DA000000 		.4byte	0xda
 2140 08f3 01       		.uleb128 0x1
 2141 08f4 53       		.byte	0x53
 2142 08f5 00       		.byte	0
 2143 08f6 24       		.uleb128 0x24
 2144 08f7 30000000 		.4byte	.Ldebug_ranges0+0x30
 2145 08fb 42090000 		.4byte	0x942
 2146 08ff 1A       		.uleb128 0x1a
 2147 0900 6D736700 		.ascii	"msg\000"
 2148 0904 01       		.byte	0x1
 2149 0905 4601     		.2byte	0x146
 2150 0907 39010000 		.4byte	0x139
 2151 090b AB010000 		.4byte	.LLST29
 2152 090f 1B       		.uleb128 0x1b
 2153 0910 4C000000 		.4byte	.LBB32
 2154 0914 06000000 		.4byte	.LBE32-.LBB32
 2155 0918 2B090000 		.4byte	0x92b
 2156 091c 19       		.uleb128 0x19
 2157 091d 746D7000 		.ascii	"tmp\000"
 2158 0921 01       		.byte	0x1
 2159 0922 4901     		.2byte	0x149
 2160 0924 DA000000 		.4byte	0xda
 2161 0928 01       		.uleb128 0x1
 2162 0929 53       		.byte	0x53
 2163 092a 00       		.byte	0
 2164 092b 1E       		.uleb128 0x1e
 2165 092c 18000000 		.4byte	.LVL49
 2166 0930 190D0000 		.4byte	0xd19
ARM GAS  /tmp/ccFNTtWO.s 			page 39


 2167 0934 1D       		.uleb128 0x1d
 2168 0935 01       		.uleb128 0x1
 2169 0936 50       		.byte	0x50
 2170 0937 02       		.uleb128 0x2
 2171 0938 74       		.byte	0x74
 2172 0939 00       		.sleb128 0
 2173 093a 1D       		.uleb128 0x1d
 2174 093b 01       		.uleb128 0x1
 2175 093c 51       		.byte	0x51
 2176 093d 02       		.uleb128 0x2
 2177 093e 76       		.byte	0x76
 2178 093f 00       		.sleb128 0
 2179 0940 00       		.byte	0
 2180 0941 00       		.byte	0
 2181 0942 1B       		.uleb128 0x1b
 2182 0943 42000000 		.4byte	.LBB33
 2183 0947 06000000 		.4byte	.LBE33-.LBB33
 2184 094b 5E090000 		.4byte	0x95e
 2185 094f 19       		.uleb128 0x19
 2186 0950 746D7000 		.ascii	"tmp\000"
 2187 0954 01       		.byte	0x1
 2188 0955 5601     		.2byte	0x156
 2189 0957 DA000000 		.4byte	0xda
 2190 095b 01       		.uleb128 0x1
 2191 095c 53       		.byte	0x53
 2192 095d 00       		.byte	0
 2193 095e 25       		.uleb128 0x25
 2194 095f 42000000 		.4byte	.LVL51
 2195 0963 1D       		.uleb128 0x1d
 2196 0964 01       		.uleb128 0x1
 2197 0965 50       		.byte	0x50
 2198 0966 02       		.uleb128 0x2
 2199 0967 74       		.byte	0x74
 2200 0968 00       		.sleb128 0
 2201 0969 00       		.byte	0
 2202 096a 00       		.byte	0
 2203 096b 26       		.uleb128 0x26
 2204 096c 0B050000 		.4byte	.LASF122
 2205 0970 01       		.byte	0x1
 2206 0971 2201     		.2byte	0x122
 2207 0973 00000000 		.4byte	.LFB14
 2208 0977 2E000000 		.4byte	.LFE14-.LFB14
 2209 097b 01       		.uleb128 0x1
 2210 097c 9C       		.byte	0x9c
 2211 097d CC090000 		.4byte	0x9cc
 2212 0981 17       		.uleb128 0x17
 2213 0982 6F717000 		.ascii	"oqp\000"
 2214 0986 01       		.byte	0x1
 2215 0987 2201     		.2byte	0x122
 2216 0989 1D080000 		.4byte	0x81d
 2217 098d C9010000 		.4byte	.LLST23
 2218 0991 27       		.uleb128 0x27
 2219 0992 8C0D0000 		.4byte	0xd8c
 2220 0996 1A000000 		.4byte	.LBB28
 2221 099a 06000000 		.4byte	.LBE28-.LBB28
 2222 099e 01       		.byte	0x1
 2223 099f 2901     		.2byte	0x129
ARM GAS  /tmp/ccFNTtWO.s 			page 40


 2224 09a1 C2090000 		.4byte	0x9c2
 2225 09a5 20       		.uleb128 0x20
 2226 09a6 9C0D0000 		.4byte	0xd9c
 2227 09aa E7010000 		.4byte	.LLST24
 2228 09ae 28       		.uleb128 0x28
 2229 09af 1A000000 		.4byte	.LBB29
 2230 09b3 06000000 		.4byte	.LBE29-.LBB29
 2231 09b7 22       		.uleb128 0x22
 2232 09b8 A70D0000 		.4byte	0xda7
 2233 09bc FA010000 		.4byte	.LLST25
 2234 09c0 00       		.byte	0
 2235 09c1 00       		.byte	0
 2236 09c2 23       		.uleb128 0x23
 2237 09c3 24000000 		.4byte	.LVL46
 2238 09c7 DA0D0000 		.4byte	0xdda
 2239 09cb 00       		.byte	0
 2240 09cc 26       		.uleb128 0x26
 2241 09cd 25010000 		.4byte	.LASF123
 2242 09d1 01       		.byte	0x1
 2243 09d2 0C01     		.2byte	0x10c
 2244 09d4 00000000 		.4byte	.LFB13
 2245 09d8 1C000000 		.4byte	.LFE13-.LFB13
 2246 09dc 01       		.uleb128 0x1
 2247 09dd 9C       		.byte	0x9c
 2248 09de 2A0A0000 		.4byte	0xa2a
 2249 09e2 29       		.uleb128 0x29
 2250 09e3 6F717000 		.ascii	"oqp\000"
 2251 09e7 01       		.byte	0x1
 2252 09e8 0C01     		.2byte	0x10c
 2253 09ea 1D080000 		.4byte	0x81d
 2254 09ee 01       		.uleb128 0x1
 2255 09ef 50       		.byte	0x50
 2256 09f0 29       		.uleb128 0x29
 2257 09f1 627000   		.ascii	"bp\000"
 2258 09f4 01       		.byte	0x1
 2259 09f5 0C01     		.2byte	0x10c
 2260 09f7 D6060000 		.4byte	0x6d6
 2261 09fb 01       		.uleb128 0x1
 2262 09fc 51       		.byte	0x51
 2263 09fd 2A       		.uleb128 0x2a
 2264 09fe 01020000 		.4byte	.LASF124
 2265 0a02 01       		.byte	0x1
 2266 0a03 0C01     		.2byte	0x10c
 2267 0a05 2C000000 		.4byte	0x2c
 2268 0a09 01       		.uleb128 0x1
 2269 0a0a 52       		.byte	0x52
 2270 0a0b 2A       		.uleb128 0x2a
 2271 0a0c 22000000 		.4byte	.LASF125
 2272 0a10 01       		.byte	0x1
 2273 0a11 0C01     		.2byte	0x10c
 2274 0a13 B4060000 		.4byte	0x6b4
 2275 0a17 01       		.uleb128 0x1
 2276 0a18 53       		.byte	0x53
 2277 0a19 18       		.uleb128 0x18
 2278 0a1a 99010000 		.4byte	.LASF126
 2279 0a1e 01       		.byte	0x1
 2280 0a1f 0D01     		.2byte	0x10d
ARM GAS  /tmp/ccFNTtWO.s 			page 41


 2281 0a21 C4020000 		.4byte	0x2c4
 2282 0a25 0D020000 		.4byte	.LLST22
 2283 0a29 00       		.byte	0
 2284 0a2a 2B       		.uleb128 0x2b
 2285 0a2b 65000000 		.4byte	.LASF127
 2286 0a2f 01       		.byte	0x1
 2287 0a30 DB       		.byte	0xdb
 2288 0a31 2C000000 		.4byte	0x2c
 2289 0a35 00000000 		.4byte	.LFB12
 2290 0a39 70000000 		.4byte	.LFE12-.LFB12
 2291 0a3d 01       		.uleb128 0x1
 2292 0a3e 9C       		.byte	0x9c
 2293 0a3f 290B0000 		.4byte	0xb29
 2294 0a43 2C       		.uleb128 0x2c
 2295 0a44 69717000 		.ascii	"iqp\000"
 2296 0a48 01       		.byte	0x1
 2297 0a49 DB       		.byte	0xdb
 2298 0a4a 290B0000 		.4byte	0xb29
 2299 0a4e 2D020000 		.4byte	.LLST17
 2300 0a52 2C       		.uleb128 0x2c
 2301 0a53 627000   		.ascii	"bp\000"
 2302 0a56 01       		.byte	0x1
 2303 0a57 DB       		.byte	0xdb
 2304 0a58 D6060000 		.4byte	0x6d6
 2305 0a5c 4B020000 		.4byte	.LLST18
 2306 0a60 2C       		.uleb128 0x2c
 2307 0a61 6E00     		.ascii	"n\000"
 2308 0a63 01       		.byte	0x1
 2309 0a64 DC       		.byte	0xdc
 2310 0a65 2C000000 		.4byte	0x2c
 2311 0a69 81020000 		.4byte	.LLST19
 2312 0a6d 2D       		.uleb128 0x2d
 2313 0a6e 9F030000 		.4byte	.LASF118
 2314 0a72 01       		.byte	0x1
 2315 0a73 DC       		.byte	0xdc
 2316 0a74 4F010000 		.4byte	0x14f
 2317 0a78 A4020000 		.4byte	.LLST20
 2318 0a7c 2E       		.uleb128 0x2e
 2319 0a7d 6E667900 		.ascii	"nfy\000"
 2320 0a81 01       		.byte	0x1
 2321 0a82 DD       		.byte	0xdd
 2322 0a83 B4060000 		.4byte	0x6b4
 2323 0a87 01       		.uleb128 0x1
 2324 0a88 58       		.byte	0x58
 2325 0a89 2F       		.uleb128 0x2f
 2326 0a8a 7200     		.ascii	"r\000"
 2327 0a8c 01       		.byte	0x1
 2328 0a8d DE       		.byte	0xde
 2329 0a8e 2C000000 		.4byte	0x2c
 2330 0a92 C2020000 		.4byte	.LLST21
 2331 0a96 1B       		.uleb128 0x1b
 2332 0a97 10000000 		.4byte	.LBB24
 2333 0a9b 06000000 		.4byte	.LBE24-.LBB24
 2334 0a9f B10A0000 		.4byte	0xab1
 2335 0aa3 2E       		.uleb128 0x2e
 2336 0aa4 746D7000 		.ascii	"tmp\000"
 2337 0aa8 01       		.byte	0x1
ARM GAS  /tmp/ccFNTtWO.s 			page 42


 2338 0aa9 E2       		.byte	0xe2
 2339 0aaa DA000000 		.4byte	0xda
 2340 0aae 01       		.uleb128 0x1
 2341 0aaf 53       		.byte	0x53
 2342 0ab0 00       		.byte	0
 2343 0ab1 1B       		.uleb128 0x1b
 2344 0ab2 64000000 		.4byte	.LBB27
 2345 0ab6 06000000 		.4byte	.LBE27-.LBB27
 2346 0aba CC0A0000 		.4byte	0xacc
 2347 0abe 2E       		.uleb128 0x2e
 2348 0abf 746D7000 		.ascii	"tmp\000"
 2349 0ac3 01       		.byte	0x1
 2350 0ac4 E9       		.byte	0xe9
 2351 0ac5 DA000000 		.4byte	0xda
 2352 0ac9 01       		.uleb128 0x1
 2353 0aca 53       		.byte	0x53
 2354 0acb 00       		.byte	0
 2355 0acc 1B       		.uleb128 0x1b
 2356 0acd 50000000 		.4byte	.LBB25
 2357 0ad1 06000000 		.4byte	.LBE25-.LBB25
 2358 0ad5 E70A0000 		.4byte	0xae7
 2359 0ad9 2E       		.uleb128 0x2e
 2360 0ada 746D7000 		.ascii	"tmp\000"
 2361 0ade 01       		.byte	0x1
 2362 0adf F3       		.byte	0xf3
 2363 0ae0 DA000000 		.4byte	0xda
 2364 0ae4 01       		.uleb128 0x1
 2365 0ae5 53       		.byte	0x53
 2366 0ae6 00       		.byte	0
 2367 0ae7 1B       		.uleb128 0x1b
 2368 0ae8 5C000000 		.4byte	.LBB26
 2369 0aec 06000000 		.4byte	.LBE26-.LBB26
 2370 0af0 020B0000 		.4byte	0xb02
 2371 0af4 2E       		.uleb128 0x2e
 2372 0af5 746D7000 		.ascii	"tmp\000"
 2373 0af9 01       		.byte	0x1
 2374 0afa F8       		.byte	0xf8
 2375 0afb DA000000 		.4byte	0xda
 2376 0aff 01       		.uleb128 0x1
 2377 0b00 53       		.byte	0x53
 2378 0b01 00       		.byte	0
 2379 0b02 1C       		.uleb128 0x1c
 2380 0b03 22000000 		.4byte	.LVL34
 2381 0b07 120B0000 		.4byte	0xb12
 2382 0b0b 1D       		.uleb128 0x1d
 2383 0b0c 01       		.uleb128 0x1
 2384 0b0d 50       		.byte	0x50
 2385 0b0e 02       		.uleb128 0x2
 2386 0b0f 74       		.byte	0x74
 2387 0b10 00       		.sleb128 0
 2388 0b11 00       		.byte	0
 2389 0b12 1E       		.uleb128 0x1e
 2390 0b13 2C000000 		.4byte	.LVL35
 2391 0b17 190D0000 		.4byte	0xd19
 2392 0b1b 1D       		.uleb128 0x1d
 2393 0b1c 01       		.uleb128 0x1
 2394 0b1d 50       		.byte	0x50
ARM GAS  /tmp/ccFNTtWO.s 			page 43


 2395 0b1e 02       		.uleb128 0x2
 2396 0b1f 74       		.byte	0x74
 2397 0b20 00       		.sleb128 0
 2398 0b21 1D       		.uleb128 0x1d
 2399 0b22 01       		.uleb128 0x1
 2400 0b23 51       		.byte	0x51
 2401 0b24 02       		.uleb128 0x2
 2402 0b25 76       		.byte	0x76
 2403 0b26 00       		.sleb128 0
 2404 0b27 00       		.byte	0
 2405 0b28 00       		.byte	0
 2406 0b29 0B       		.uleb128 0xb
 2407 0b2a 04       		.byte	0x4
 2408 0b2b DC060000 		.4byte	0x6dc
 2409 0b2f 2B       		.uleb128 0x2b
 2410 0b30 31060000 		.4byte	.LASF128
 2411 0b34 01       		.byte	0x1
 2412 0b35 AB       		.byte	0xab
 2413 0b36 39010000 		.4byte	0x139
 2414 0b3a 00000000 		.4byte	.LFB11
 2415 0b3e 48000000 		.4byte	.LFE11-.LFB11
 2416 0b42 01       		.uleb128 0x1
 2417 0b43 9C       		.byte	0x9c
 2418 0b44 F60B0000 		.4byte	0xbf6
 2419 0b48 2C       		.uleb128 0x2c
 2420 0b49 69717000 		.ascii	"iqp\000"
 2421 0b4d 01       		.byte	0x1
 2422 0b4e AB       		.byte	0xab
 2423 0b4f 290B0000 		.4byte	0xb29
 2424 0b53 E1020000 		.4byte	.LLST13
 2425 0b57 2D       		.uleb128 0x2d
 2426 0b58 9F030000 		.4byte	.LASF118
 2427 0b5c 01       		.byte	0x1
 2428 0b5d AB       		.byte	0xab
 2429 0b5e 4F010000 		.4byte	0x14f
 2430 0b62 FF020000 		.4byte	.LLST14
 2431 0b66 2F       		.uleb128 0x2f
 2432 0b67 6200     		.ascii	"b\000"
 2433 0b69 01       		.byte	0x1
 2434 0b6a AC       		.byte	0xac
 2435 0b6b B4000000 		.4byte	0xb4
 2436 0b6f 1D030000 		.4byte	.LLST15
 2437 0b73 24       		.uleb128 0x24
 2438 0b74 18000000 		.4byte	.Ldebug_ranges0+0x18
 2439 0b78 8A0B0000 		.4byte	0xb8a
 2440 0b7c 2E       		.uleb128 0x2e
 2441 0b7d 746D7000 		.ascii	"tmp\000"
 2442 0b81 01       		.byte	0x1
 2443 0b82 AE       		.byte	0xae
 2444 0b83 DA000000 		.4byte	0xda
 2445 0b87 01       		.uleb128 0x1
 2446 0b88 53       		.byte	0x53
 2447 0b89 00       		.byte	0
 2448 0b8a 1B       		.uleb128 0x1b
 2449 0b8b 14000000 		.4byte	.LBB22
 2450 0b8f 0C000000 		.4byte	.LBE22-.LBB22
 2451 0b93 CE0B0000 		.4byte	0xbce
ARM GAS  /tmp/ccFNTtWO.s 			page 44


 2452 0b97 2F       		.uleb128 0x2f
 2453 0b98 6D736700 		.ascii	"msg\000"
 2454 0b9c 01       		.byte	0x1
 2455 0b9d B3       		.byte	0xb3
 2456 0b9e 39010000 		.4byte	0x139
 2457 0ba2 30030000 		.4byte	.LLST16
 2458 0ba6 30       		.uleb128 0x30
 2459 0ba7 B70B0000 		.4byte	0xbb7
 2460 0bab 31       		.uleb128 0x31
 2461 0bac 746D7000 		.ascii	"tmp\000"
 2462 0bb0 01       		.byte	0x1
 2463 0bb1 B5       		.byte	0xb5
 2464 0bb2 DA000000 		.4byte	0xda
 2465 0bb6 00       		.byte	0
 2466 0bb7 1E       		.uleb128 0x1e
 2467 0bb8 1C000000 		.4byte	.LVL26
 2468 0bbc 190D0000 		.4byte	0xd19
 2469 0bc0 1D       		.uleb128 0x1d
 2470 0bc1 01       		.uleb128 0x1
 2471 0bc2 50       		.byte	0x50
 2472 0bc3 02       		.uleb128 0x2
 2473 0bc4 74       		.byte	0x74
 2474 0bc5 00       		.sleb128 0
 2475 0bc6 1D       		.uleb128 0x1d
 2476 0bc7 01       		.uleb128 0x1
 2477 0bc8 51       		.byte	0x51
 2478 0bc9 02       		.uleb128 0x2
 2479 0bca 76       		.byte	0x76
 2480 0bcb 00       		.sleb128 0
 2481 0bcc 00       		.byte	0
 2482 0bcd 00       		.byte	0
 2483 0bce 1B       		.uleb128 0x1b
 2484 0bcf 40000000 		.4byte	.LBB23
 2485 0bd3 06000000 		.4byte	.LBE23-.LBB23
 2486 0bd7 E90B0000 		.4byte	0xbe9
 2487 0bdb 2E       		.uleb128 0x2e
 2488 0bdc 746D7000 		.ascii	"tmp\000"
 2489 0be0 01       		.byte	0x1
 2490 0be1 BF       		.byte	0xbf
 2491 0be2 DA000000 		.4byte	0xda
 2492 0be6 01       		.uleb128 0x1
 2493 0be7 53       		.byte	0x53
 2494 0be8 00       		.byte	0
 2495 0be9 25       		.uleb128 0x25
 2496 0bea 12000000 		.4byte	.LVL25
 2497 0bee 1D       		.uleb128 0x1d
 2498 0bef 01       		.uleb128 0x1
 2499 0bf0 50       		.byte	0x50
 2500 0bf1 02       		.uleb128 0x2
 2501 0bf2 74       		.byte	0x74
 2502 0bf3 00       		.sleb128 0
 2503 0bf4 00       		.byte	0
 2504 0bf5 00       		.byte	0
 2505 0bf6 2B       		.uleb128 0x2b
 2506 0bf7 9E010000 		.4byte	.LASF129
 2507 0bfb 01       		.byte	0x1
 2508 0bfc 85       		.byte	0x85
ARM GAS  /tmp/ccFNTtWO.s 			page 45


 2509 0bfd 39010000 		.4byte	0x139
 2510 0c01 00000000 		.4byte	.LFB10
 2511 0c05 52000000 		.4byte	.LFE10-.LFB10
 2512 0c09 01       		.uleb128 0x1
 2513 0c0a 9C       		.byte	0x9c
 2514 0c0b 610C0000 		.4byte	0xc61
 2515 0c0f 2C       		.uleb128 0x2c
 2516 0c10 69717000 		.ascii	"iqp\000"
 2517 0c14 01       		.byte	0x1
 2518 0c15 85       		.byte	0x85
 2519 0c16 290B0000 		.4byte	0xb29
 2520 0c1a 43030000 		.4byte	.LLST9
 2521 0c1e 2C       		.uleb128 0x2c
 2522 0c1f 6200     		.ascii	"b\000"
 2523 0c21 01       		.byte	0x1
 2524 0c22 85       		.byte	0x85
 2525 0c23 B4000000 		.4byte	0xb4
 2526 0c27 A1030000 		.4byte	.LLST10
 2527 0c2b 32       		.uleb128 0x32
 2528 0c2c 8C0D0000 		.4byte	0xd8c
 2529 0c30 26000000 		.4byte	.LBB16
 2530 0c34 00000000 		.4byte	.Ldebug_ranges0+0
 2531 0c38 01       		.byte	0x1
 2532 0c39 92       		.byte	0x92
 2533 0c3a 570C0000 		.4byte	0xc57
 2534 0c3e 20       		.uleb128 0x20
 2535 0c3f 9C0D0000 		.4byte	0xd9c
 2536 0c43 CD030000 		.4byte	.LLST11
 2537 0c47 21       		.uleb128 0x21
 2538 0c48 00000000 		.4byte	.Ldebug_ranges0+0
 2539 0c4c 22       		.uleb128 0x22
 2540 0c4d A70D0000 		.4byte	0xda7
 2541 0c51 E0030000 		.4byte	.LLST12
 2542 0c55 00       		.byte	0
 2543 0c56 00       		.byte	0
 2544 0c57 23       		.uleb128 0x23
 2545 0c58 32000000 		.4byte	.LVL19
 2546 0c5c DA0D0000 		.4byte	0xdda
 2547 0c60 00       		.byte	0
 2548 0c61 33       		.uleb128 0x33
 2549 0c62 BC010000 		.4byte	.LASF130
 2550 0c66 01       		.byte	0x1
 2551 0c67 6E       		.byte	0x6e
 2552 0c68 00000000 		.4byte	.LFB9
 2553 0c6c 2C000000 		.4byte	.LFE9-.LFB9
 2554 0c70 01       		.uleb128 0x1
 2555 0c71 9C       		.byte	0x9c
 2556 0c72 BF0C0000 		.4byte	0xcbf
 2557 0c76 2C       		.uleb128 0x2c
 2558 0c77 69717000 		.ascii	"iqp\000"
 2559 0c7b 01       		.byte	0x1
 2560 0c7c 6E       		.byte	0x6e
 2561 0c7d 290B0000 		.4byte	0xb29
 2562 0c81 F3030000 		.4byte	.LLST6
 2563 0c85 34       		.uleb128 0x34
 2564 0c86 8C0D0000 		.4byte	0xd8c
 2565 0c8a 18000000 		.4byte	.LBB14
ARM GAS  /tmp/ccFNTtWO.s 			page 46


 2566 0c8e 06000000 		.4byte	.LBE14-.LBB14
 2567 0c92 01       		.byte	0x1
 2568 0c93 75       		.byte	0x75
 2569 0c94 B50C0000 		.4byte	0xcb5
 2570 0c98 20       		.uleb128 0x20
 2571 0c99 9C0D0000 		.4byte	0xd9c
 2572 0c9d 11040000 		.4byte	.LLST7
 2573 0ca1 28       		.uleb128 0x28
 2574 0ca2 18000000 		.4byte	.LBB15
 2575 0ca6 06000000 		.4byte	.LBE15-.LBB15
 2576 0caa 22       		.uleb128 0x22
 2577 0cab A70D0000 		.4byte	0xda7
 2578 0caf 24040000 		.4byte	.LLST8
 2579 0cb3 00       		.byte	0
 2580 0cb4 00       		.byte	0
 2581 0cb5 23       		.uleb128 0x23
 2582 0cb6 22000000 		.4byte	.LVL13
 2583 0cba DA0D0000 		.4byte	0xdda
 2584 0cbe 00       		.byte	0
 2585 0cbf 33       		.uleb128 0x33
 2586 0cc0 36000000 		.4byte	.LASF131
 2587 0cc4 01       		.byte	0x1
 2588 0cc5 58       		.byte	0x58
 2589 0cc6 00000000 		.4byte	.LFB8
 2590 0cca 1E000000 		.4byte	.LFE8-.LFB8
 2591 0cce 01       		.uleb128 0x1
 2592 0ccf 9C       		.byte	0x9c
 2593 0cd0 190D0000 		.4byte	0xd19
 2594 0cd4 35       		.uleb128 0x35
 2595 0cd5 69717000 		.ascii	"iqp\000"
 2596 0cd9 01       		.byte	0x1
 2597 0cda 58       		.byte	0x58
 2598 0cdb 290B0000 		.4byte	0xb29
 2599 0cdf 01       		.uleb128 0x1
 2600 0ce0 50       		.byte	0x50
 2601 0ce1 35       		.uleb128 0x35
 2602 0ce2 627000   		.ascii	"bp\000"
 2603 0ce5 01       		.byte	0x1
 2604 0ce6 58       		.byte	0x58
 2605 0ce7 D6060000 		.4byte	0x6d6
 2606 0ceb 01       		.uleb128 0x1
 2607 0cec 51       		.byte	0x51
 2608 0ced 2D       		.uleb128 0x2d
 2609 0cee 01020000 		.4byte	.LASF124
 2610 0cf2 01       		.byte	0x1
 2611 0cf3 58       		.byte	0x58
 2612 0cf4 2C000000 		.4byte	0x2c
 2613 0cf8 37040000 		.4byte	.LLST4
 2614 0cfc 36       		.uleb128 0x36
 2615 0cfd 58040000 		.4byte	.LASF132
 2616 0d01 01       		.byte	0x1
 2617 0d02 58       		.byte	0x58
 2618 0d03 B4060000 		.4byte	0x6b4
 2619 0d07 01       		.uleb128 0x1
 2620 0d08 53       		.byte	0x53
 2621 0d09 2D       		.uleb128 0x2d
 2622 0d0a 99010000 		.4byte	.LASF126
ARM GAS  /tmp/ccFNTtWO.s 			page 47


 2623 0d0e 01       		.byte	0x1
 2624 0d0f 59       		.byte	0x59
 2625 0d10 C4020000 		.4byte	0x2c4
 2626 0d14 58040000 		.4byte	.LLST5
 2627 0d18 00       		.byte	0
 2628 0d19 37       		.uleb128 0x37
 2629 0d1a 1F010000 		.4byte	.LASF138
 2630 0d1e 01       		.byte	0x1
 2631 0d1f 3F       		.byte	0x3f
 2632 0d20 39010000 		.4byte	0x139
 2633 0d24 00000000 		.4byte	.LFB7
 2634 0d28 28000000 		.4byte	.LFE7-.LFB7
 2635 0d2c 01       		.uleb128 0x1
 2636 0d2d 9C       		.byte	0x9c
 2637 0d2e 8C0D0000 		.4byte	0xd8c
 2638 0d32 2C       		.uleb128 0x2c
 2639 0d33 717000   		.ascii	"qp\000"
 2640 0d36 01       		.byte	0x1
 2641 0d37 3F       		.byte	0x3f
 2642 0d38 D0060000 		.4byte	0x6d0
 2643 0d3c 78040000 		.4byte	.LLST0
 2644 0d40 2D       		.uleb128 0x2d
 2645 0d41 9F030000 		.4byte	.LASF118
 2646 0d45 01       		.byte	0x1
 2647 0d46 3F       		.byte	0x3f
 2648 0d47 4F010000 		.4byte	0x14f
 2649 0d4b BD040000 		.4byte	.LLST1
 2650 0d4f 34       		.uleb128 0x34
 2651 0d50 B80D0000 		.4byte	0xdb8
 2652 0d54 0E000000 		.4byte	.LBB12
 2653 0d58 0A000000 		.4byte	.LBE12-.LBB12
 2654 0d5c 01       		.byte	0x1
 2655 0d5d 44       		.byte	0x44
 2656 0d5e 750D0000 		.4byte	0xd75
 2657 0d62 20       		.uleb128 0x20
 2658 0d63 CE0D0000 		.4byte	0xdce
 2659 0d67 E9040000 		.4byte	.LLST2
 2660 0d6b 20       		.uleb128 0x20
 2661 0d6c C40D0000 		.4byte	0xdc4
 2662 0d70 FC040000 		.4byte	.LLST3
 2663 0d74 00       		.byte	0
 2664 0d75 38       		.uleb128 0x38
 2665 0d76 1E000000 		.4byte	.LVL4
 2666 0d7a E50D0000 		.4byte	0xde5
 2667 0d7e 1D       		.uleb128 0x1d
 2668 0d7f 01       		.uleb128 0x1
 2669 0d80 50       		.byte	0x50
 2670 0d81 01       		.uleb128 0x1
 2671 0d82 3D       		.byte	0x3d
 2672 0d83 1D       		.uleb128 0x1d
 2673 0d84 01       		.uleb128 0x1
 2674 0d85 51       		.byte	0x51
 2675 0d86 03       		.uleb128 0x3
 2676 0d87 F3       		.byte	0xf3
 2677 0d88 01       		.uleb128 0x1
 2678 0d89 51       		.byte	0x51
 2679 0d8a 00       		.byte	0
ARM GAS  /tmp/ccFNTtWO.s 			page 48


 2680 0d8b 00       		.byte	0
 2681 0d8c 39       		.uleb128 0x39
 2682 0d8d C2040000 		.4byte	.LASF139
 2683 0d91 02       		.byte	0x2
 2684 0d92 34       		.byte	0x34
 2685 0d93 88020000 		.4byte	0x288
 2686 0d97 03       		.byte	0x3
 2687 0d98 B20D0000 		.4byte	0xdb2
 2688 0d9c 3A       		.uleb128 0x3a
 2689 0d9d 74717000 		.ascii	"tqp\000"
 2690 0da1 02       		.byte	0x2
 2691 0da2 34       		.byte	0x34
 2692 0da3 B20D0000 		.4byte	0xdb2
 2693 0da7 31       		.uleb128 0x31
 2694 0da8 747000   		.ascii	"tp\000"
 2695 0dab 02       		.byte	0x2
 2696 0dac 35       		.byte	0x35
 2697 0dad 88020000 		.4byte	0x288
 2698 0db1 00       		.byte	0
 2699 0db2 0B       		.uleb128 0xb
 2700 0db3 04       		.byte	0x4
 2701 0db4 8E020000 		.4byte	0x28e
 2702 0db8 3B       		.uleb128 0x3b
 2703 0db9 27020000 		.4byte	.LASF140
 2704 0dbd 02       		.byte	0x2
 2705 0dbe 2D       		.byte	0x2d
 2706 0dbf 03       		.byte	0x3
 2707 0dc0 DA0D0000 		.4byte	0xdda
 2708 0dc4 3A       		.uleb128 0x3a
 2709 0dc5 747000   		.ascii	"tp\000"
 2710 0dc8 02       		.byte	0x2
 2711 0dc9 2D       		.byte	0x2d
 2712 0dca 88020000 		.4byte	0x288
 2713 0dce 3A       		.uleb128 0x3a
 2714 0dcf 74717000 		.ascii	"tqp\000"
 2715 0dd3 02       		.byte	0x2
 2716 0dd4 2D       		.byte	0x2d
 2717 0dd5 B20D0000 		.4byte	0xdb2
 2718 0dd9 00       		.byte	0
 2719 0dda 3C       		.uleb128 0x3c
 2720 0ddb D9040000 		.4byte	.LASF133
 2721 0ddf D9040000 		.4byte	.LASF133
 2722 0de3 0B       		.byte	0xb
 2723 0de4 89       		.byte	0x89
 2724 0de5 3C       		.uleb128 0x3c
 2725 0de6 A5050000 		.4byte	.LASF134
 2726 0dea A5050000 		.4byte	.LASF134
 2727 0dee 0B       		.byte	0xb
 2728 0def 8F       		.byte	0x8f
 2729 0df0 00       		.byte	0
 2730              		.section	.debug_abbrev,"",%progbits
 2731              	.Ldebug_abbrev0:
 2732 0000 01       		.uleb128 0x1
 2733 0001 11       		.uleb128 0x11
 2734 0002 01       		.byte	0x1
 2735 0003 25       		.uleb128 0x25
 2736 0004 0E       		.uleb128 0xe
ARM GAS  /tmp/ccFNTtWO.s 			page 49


 2737 0005 13       		.uleb128 0x13
 2738 0006 0B       		.uleb128 0xb
 2739 0007 03       		.uleb128 0x3
 2740 0008 0E       		.uleb128 0xe
 2741 0009 1B       		.uleb128 0x1b
 2742 000a 0E       		.uleb128 0xe
 2743 000b 55       		.uleb128 0x55
 2744 000c 17       		.uleb128 0x17
 2745 000d 11       		.uleb128 0x11
 2746 000e 01       		.uleb128 0x1
 2747 000f 10       		.uleb128 0x10
 2748 0010 17       		.uleb128 0x17
 2749 0011 00       		.byte	0
 2750 0012 00       		.byte	0
 2751 0013 02       		.uleb128 0x2
 2752 0014 24       		.uleb128 0x24
 2753 0015 00       		.byte	0
 2754 0016 0B       		.uleb128 0xb
 2755 0017 0B       		.uleb128 0xb
 2756 0018 3E       		.uleb128 0x3e
 2757 0019 0B       		.uleb128 0xb
 2758 001a 03       		.uleb128 0x3
 2759 001b 08       		.uleb128 0x8
 2760 001c 00       		.byte	0
 2761 001d 00       		.byte	0
 2762 001e 03       		.uleb128 0x3
 2763 001f 16       		.uleb128 0x16
 2764 0020 00       		.byte	0
 2765 0021 03       		.uleb128 0x3
 2766 0022 0E       		.uleb128 0xe
 2767 0023 3A       		.uleb128 0x3a
 2768 0024 0B       		.uleb128 0xb
 2769 0025 3B       		.uleb128 0x3b
 2770 0026 0B       		.uleb128 0xb
 2771 0027 49       		.uleb128 0x49
 2772 0028 13       		.uleb128 0x13
 2773 0029 00       		.byte	0
 2774 002a 00       		.byte	0
 2775 002b 04       		.uleb128 0x4
 2776 002c 24       		.uleb128 0x24
 2777 002d 00       		.byte	0
 2778 002e 0B       		.uleb128 0xb
 2779 002f 0B       		.uleb128 0xb
 2780 0030 3E       		.uleb128 0x3e
 2781 0031 0B       		.uleb128 0xb
 2782 0032 03       		.uleb128 0x3
 2783 0033 0E       		.uleb128 0xe
 2784 0034 00       		.byte	0
 2785 0035 00       		.byte	0
 2786 0036 05       		.uleb128 0x5
 2787 0037 26       		.uleb128 0x26
 2788 0038 00       		.byte	0
 2789 0039 49       		.uleb128 0x49
 2790 003a 13       		.uleb128 0x13
 2791 003b 00       		.byte	0
 2792 003c 00       		.byte	0
 2793 003d 06       		.uleb128 0x6
ARM GAS  /tmp/ccFNTtWO.s 			page 50


 2794 003e 35       		.uleb128 0x35
 2795 003f 00       		.byte	0
 2796 0040 49       		.uleb128 0x49
 2797 0041 13       		.uleb128 0x13
 2798 0042 00       		.byte	0
 2799 0043 00       		.byte	0
 2800 0044 07       		.uleb128 0x7
 2801 0045 13       		.uleb128 0x13
 2802 0046 01       		.byte	0x1
 2803 0047 03       		.uleb128 0x3
 2804 0048 0E       		.uleb128 0xe
 2805 0049 0B       		.uleb128 0xb
 2806 004a 0B       		.uleb128 0xb
 2807 004b 3A       		.uleb128 0x3a
 2808 004c 0B       		.uleb128 0xb
 2809 004d 3B       		.uleb128 0x3b
 2810 004e 0B       		.uleb128 0xb
 2811 004f 01       		.uleb128 0x1
 2812 0050 13       		.uleb128 0x13
 2813 0051 00       		.byte	0
 2814 0052 00       		.byte	0
 2815 0053 08       		.uleb128 0x8
 2816 0054 0D       		.uleb128 0xd
 2817 0055 00       		.byte	0
 2818 0056 03       		.uleb128 0x3
 2819 0057 0E       		.uleb128 0xe
 2820 0058 3A       		.uleb128 0x3a
 2821 0059 0B       		.uleb128 0xb
 2822 005a 3B       		.uleb128 0x3b
 2823 005b 0B       		.uleb128 0xb
 2824 005c 49       		.uleb128 0x49
 2825 005d 13       		.uleb128 0x13
 2826 005e 38       		.uleb128 0x38
 2827 005f 0B       		.uleb128 0xb
 2828 0060 00       		.byte	0
 2829 0061 00       		.byte	0
 2830 0062 09       		.uleb128 0x9
 2831 0063 0D       		.uleb128 0xd
 2832 0064 00       		.byte	0
 2833 0065 03       		.uleb128 0x3
 2834 0066 08       		.uleb128 0x8
 2835 0067 3A       		.uleb128 0x3a
 2836 0068 0B       		.uleb128 0xb
 2837 0069 3B       		.uleb128 0x3b
 2838 006a 0B       		.uleb128 0xb
 2839 006b 49       		.uleb128 0x49
 2840 006c 13       		.uleb128 0x13
 2841 006d 38       		.uleb128 0x38
 2842 006e 0B       		.uleb128 0xb
 2843 006f 00       		.byte	0
 2844 0070 00       		.byte	0
 2845 0071 0A       		.uleb128 0xa
 2846 0072 13       		.uleb128 0x13
 2847 0073 01       		.byte	0x1
 2848 0074 0B       		.uleb128 0xb
 2849 0075 0B       		.uleb128 0xb
 2850 0076 3A       		.uleb128 0x3a
ARM GAS  /tmp/ccFNTtWO.s 			page 51


 2851 0077 0B       		.uleb128 0xb
 2852 0078 3B       		.uleb128 0x3b
 2853 0079 0B       		.uleb128 0xb
 2854 007a 01       		.uleb128 0x1
 2855 007b 13       		.uleb128 0x13
 2856 007c 00       		.byte	0
 2857 007d 00       		.byte	0
 2858 007e 0B       		.uleb128 0xb
 2859 007f 0F       		.uleb128 0xf
 2860 0080 00       		.byte	0
 2861 0081 0B       		.uleb128 0xb
 2862 0082 0B       		.uleb128 0xb
 2863 0083 49       		.uleb128 0x49
 2864 0084 13       		.uleb128 0x13
 2865 0085 00       		.byte	0
 2866 0086 00       		.byte	0
 2867 0087 0C       		.uleb128 0xc
 2868 0088 0F       		.uleb128 0xf
 2869 0089 00       		.byte	0
 2870 008a 0B       		.uleb128 0xb
 2871 008b 0B       		.uleb128 0xb
 2872 008c 00       		.byte	0
 2873 008d 00       		.byte	0
 2874 008e 0D       		.uleb128 0xd
 2875 008f 13       		.uleb128 0x13
 2876 0090 01       		.byte	0x1
 2877 0091 03       		.uleb128 0x3
 2878 0092 0E       		.uleb128 0xe
 2879 0093 0B       		.uleb128 0xb
 2880 0094 0B       		.uleb128 0xb
 2881 0095 3A       		.uleb128 0x3a
 2882 0096 0B       		.uleb128 0xb
 2883 0097 3B       		.uleb128 0x3b
 2884 0098 05       		.uleb128 0x5
 2885 0099 01       		.uleb128 0x1
 2886 009a 13       		.uleb128 0x13
 2887 009b 00       		.byte	0
 2888 009c 00       		.byte	0
 2889 009d 0E       		.uleb128 0xe
 2890 009e 0D       		.uleb128 0xd
 2891 009f 00       		.byte	0
 2892 00a0 03       		.uleb128 0x3
 2893 00a1 08       		.uleb128 0x8
 2894 00a2 3A       		.uleb128 0x3a
 2895 00a3 0B       		.uleb128 0xb
 2896 00a4 3B       		.uleb128 0x3b
 2897 00a5 05       		.uleb128 0x5
 2898 00a6 49       		.uleb128 0x49
 2899 00a7 13       		.uleb128 0x13
 2900 00a8 38       		.uleb128 0x38
 2901 00a9 0B       		.uleb128 0xb
 2902 00aa 00       		.byte	0
 2903 00ab 00       		.byte	0
 2904 00ac 0F       		.uleb128 0xf
 2905 00ad 15       		.uleb128 0x15
 2906 00ae 01       		.byte	0x1
 2907 00af 27       		.uleb128 0x27
ARM GAS  /tmp/ccFNTtWO.s 			page 52


 2908 00b0 19       		.uleb128 0x19
 2909 00b1 01       		.uleb128 0x1
 2910 00b2 13       		.uleb128 0x13
 2911 00b3 00       		.byte	0
 2912 00b4 00       		.byte	0
 2913 00b5 10       		.uleb128 0x10
 2914 00b6 05       		.uleb128 0x5
 2915 00b7 00       		.byte	0
 2916 00b8 49       		.uleb128 0x49
 2917 00b9 13       		.uleb128 0x13
 2918 00ba 00       		.byte	0
 2919 00bb 00       		.byte	0
 2920 00bc 11       		.uleb128 0x11
 2921 00bd 34       		.uleb128 0x34
 2922 00be 00       		.byte	0
 2923 00bf 03       		.uleb128 0x3
 2924 00c0 0E       		.uleb128 0xe
 2925 00c1 3A       		.uleb128 0x3a
 2926 00c2 0B       		.uleb128 0xb
 2927 00c3 3B       		.uleb128 0x3b
 2928 00c4 0B       		.uleb128 0xb
 2929 00c5 49       		.uleb128 0x49
 2930 00c6 13       		.uleb128 0x13
 2931 00c7 3F       		.uleb128 0x3f
 2932 00c8 19       		.uleb128 0x19
 2933 00c9 3C       		.uleb128 0x3c
 2934 00ca 19       		.uleb128 0x19
 2935 00cb 00       		.byte	0
 2936 00cc 00       		.byte	0
 2937 00cd 12       		.uleb128 0x12
 2938 00ce 17       		.uleb128 0x17
 2939 00cf 01       		.byte	0x1
 2940 00d0 0B       		.uleb128 0xb
 2941 00d1 0B       		.uleb128 0xb
 2942 00d2 3A       		.uleb128 0x3a
 2943 00d3 0B       		.uleb128 0xb
 2944 00d4 3B       		.uleb128 0x3b
 2945 00d5 0B       		.uleb128 0xb
 2946 00d6 01       		.uleb128 0x1
 2947 00d7 13       		.uleb128 0x13
 2948 00d8 00       		.byte	0
 2949 00d9 00       		.byte	0
 2950 00da 13       		.uleb128 0x13
 2951 00db 0D       		.uleb128 0xd
 2952 00dc 00       		.byte	0
 2953 00dd 03       		.uleb128 0x3
 2954 00de 0E       		.uleb128 0xe
 2955 00df 3A       		.uleb128 0x3a
 2956 00e0 0B       		.uleb128 0xb
 2957 00e1 3B       		.uleb128 0x3b
 2958 00e2 0B       		.uleb128 0xb
 2959 00e3 49       		.uleb128 0x49
 2960 00e4 13       		.uleb128 0x13
 2961 00e5 00       		.byte	0
 2962 00e6 00       		.byte	0
 2963 00e7 14       		.uleb128 0x14
 2964 00e8 01       		.uleb128 0x1
ARM GAS  /tmp/ccFNTtWO.s 			page 53


 2965 00e9 01       		.byte	0x1
 2966 00ea 49       		.uleb128 0x49
 2967 00eb 13       		.uleb128 0x13
 2968 00ec 01       		.uleb128 0x1
 2969 00ed 13       		.uleb128 0x13
 2970 00ee 00       		.byte	0
 2971 00ef 00       		.byte	0
 2972 00f0 15       		.uleb128 0x15
 2973 00f1 21       		.uleb128 0x21
 2974 00f2 00       		.byte	0
 2975 00f3 49       		.uleb128 0x49
 2976 00f4 13       		.uleb128 0x13
 2977 00f5 2F       		.uleb128 0x2f
 2978 00f6 0B       		.uleb128 0xb
 2979 00f7 00       		.byte	0
 2980 00f8 00       		.byte	0
 2981 00f9 16       		.uleb128 0x16
 2982 00fa 2E       		.uleb128 0x2e
 2983 00fb 01       		.byte	0x1
 2984 00fc 3F       		.uleb128 0x3f
 2985 00fd 19       		.uleb128 0x19
 2986 00fe 03       		.uleb128 0x3
 2987 00ff 0E       		.uleb128 0xe
 2988 0100 3A       		.uleb128 0x3a
 2989 0101 0B       		.uleb128 0xb
 2990 0102 3B       		.uleb128 0x3b
 2991 0103 05       		.uleb128 0x5
 2992 0104 27       		.uleb128 0x27
 2993 0105 19       		.uleb128 0x19
 2994 0106 49       		.uleb128 0x49
 2995 0107 13       		.uleb128 0x13
 2996 0108 11       		.uleb128 0x11
 2997 0109 01       		.uleb128 0x1
 2998 010a 12       		.uleb128 0x12
 2999 010b 06       		.uleb128 0x6
 3000 010c 40       		.uleb128 0x40
 3001 010d 18       		.uleb128 0x18
 3002 010e 9742     		.uleb128 0x2117
 3003 0110 19       		.uleb128 0x19
 3004 0111 01       		.uleb128 0x1
 3005 0112 13       		.uleb128 0x13
 3006 0113 00       		.byte	0
 3007 0114 00       		.byte	0
 3008 0115 17       		.uleb128 0x17
 3009 0116 05       		.uleb128 0x5
 3010 0117 00       		.byte	0
 3011 0118 03       		.uleb128 0x3
 3012 0119 08       		.uleb128 0x8
 3013 011a 3A       		.uleb128 0x3a
 3014 011b 0B       		.uleb128 0xb
 3015 011c 3B       		.uleb128 0x3b
 3016 011d 05       		.uleb128 0x5
 3017 011e 49       		.uleb128 0x49
 3018 011f 13       		.uleb128 0x13
 3019 0120 02       		.uleb128 0x2
 3020 0121 17       		.uleb128 0x17
 3021 0122 00       		.byte	0
ARM GAS  /tmp/ccFNTtWO.s 			page 54


 3022 0123 00       		.byte	0
 3023 0124 18       		.uleb128 0x18
 3024 0125 05       		.uleb128 0x5
 3025 0126 00       		.byte	0
 3026 0127 03       		.uleb128 0x3
 3027 0128 0E       		.uleb128 0xe
 3028 0129 3A       		.uleb128 0x3a
 3029 012a 0B       		.uleb128 0xb
 3030 012b 3B       		.uleb128 0x3b
 3031 012c 05       		.uleb128 0x5
 3032 012d 49       		.uleb128 0x49
 3033 012e 13       		.uleb128 0x13
 3034 012f 02       		.uleb128 0x2
 3035 0130 17       		.uleb128 0x17
 3036 0131 00       		.byte	0
 3037 0132 00       		.byte	0
 3038 0133 19       		.uleb128 0x19
 3039 0134 34       		.uleb128 0x34
 3040 0135 00       		.byte	0
 3041 0136 03       		.uleb128 0x3
 3042 0137 08       		.uleb128 0x8
 3043 0138 3A       		.uleb128 0x3a
 3044 0139 0B       		.uleb128 0xb
 3045 013a 3B       		.uleb128 0x3b
 3046 013b 05       		.uleb128 0x5
 3047 013c 49       		.uleb128 0x49
 3048 013d 13       		.uleb128 0x13
 3049 013e 02       		.uleb128 0x2
 3050 013f 18       		.uleb128 0x18
 3051 0140 00       		.byte	0
 3052 0141 00       		.byte	0
 3053 0142 1A       		.uleb128 0x1a
 3054 0143 34       		.uleb128 0x34
 3055 0144 00       		.byte	0
 3056 0145 03       		.uleb128 0x3
 3057 0146 08       		.uleb128 0x8
 3058 0147 3A       		.uleb128 0x3a
 3059 0148 0B       		.uleb128 0xb
 3060 0149 3B       		.uleb128 0x3b
 3061 014a 05       		.uleb128 0x5
 3062 014b 49       		.uleb128 0x49
 3063 014c 13       		.uleb128 0x13
 3064 014d 02       		.uleb128 0x2
 3065 014e 17       		.uleb128 0x17
 3066 014f 00       		.byte	0
 3067 0150 00       		.byte	0
 3068 0151 1B       		.uleb128 0x1b
 3069 0152 0B       		.uleb128 0xb
 3070 0153 01       		.byte	0x1
 3071 0154 11       		.uleb128 0x11
 3072 0155 01       		.uleb128 0x1
 3073 0156 12       		.uleb128 0x12
 3074 0157 06       		.uleb128 0x6
 3075 0158 01       		.uleb128 0x1
 3076 0159 13       		.uleb128 0x13
 3077 015a 00       		.byte	0
 3078 015b 00       		.byte	0
ARM GAS  /tmp/ccFNTtWO.s 			page 55


 3079 015c 1C       		.uleb128 0x1c
 3080 015d 898201   		.uleb128 0x4109
 3081 0160 01       		.byte	0x1
 3082 0161 11       		.uleb128 0x11
 3083 0162 01       		.uleb128 0x1
 3084 0163 01       		.uleb128 0x1
 3085 0164 13       		.uleb128 0x13
 3086 0165 00       		.byte	0
 3087 0166 00       		.byte	0
 3088 0167 1D       		.uleb128 0x1d
 3089 0168 8A8201   		.uleb128 0x410a
 3090 016b 00       		.byte	0
 3091 016c 02       		.uleb128 0x2
 3092 016d 18       		.uleb128 0x18
 3093 016e 9142     		.uleb128 0x2111
 3094 0170 18       		.uleb128 0x18
 3095 0171 00       		.byte	0
 3096 0172 00       		.byte	0
 3097 0173 1E       		.uleb128 0x1e
 3098 0174 898201   		.uleb128 0x4109
 3099 0177 01       		.byte	0x1
 3100 0178 11       		.uleb128 0x11
 3101 0179 01       		.uleb128 0x1
 3102 017a 31       		.uleb128 0x31
 3103 017b 13       		.uleb128 0x13
 3104 017c 00       		.byte	0
 3105 017d 00       		.byte	0
 3106 017e 1F       		.uleb128 0x1f
 3107 017f 1D       		.uleb128 0x1d
 3108 0180 01       		.byte	0x1
 3109 0181 31       		.uleb128 0x31
 3110 0182 13       		.uleb128 0x13
 3111 0183 52       		.uleb128 0x52
 3112 0184 01       		.uleb128 0x1
 3113 0185 55       		.uleb128 0x55
 3114 0186 17       		.uleb128 0x17
 3115 0187 58       		.uleb128 0x58
 3116 0188 0B       		.uleb128 0xb
 3117 0189 59       		.uleb128 0x59
 3118 018a 05       		.uleb128 0x5
 3119 018b 01       		.uleb128 0x1
 3120 018c 13       		.uleb128 0x13
 3121 018d 00       		.byte	0
 3122 018e 00       		.byte	0
 3123 018f 20       		.uleb128 0x20
 3124 0190 05       		.uleb128 0x5
 3125 0191 00       		.byte	0
 3126 0192 31       		.uleb128 0x31
 3127 0193 13       		.uleb128 0x13
 3128 0194 02       		.uleb128 0x2
 3129 0195 17       		.uleb128 0x17
 3130 0196 00       		.byte	0
 3131 0197 00       		.byte	0
 3132 0198 21       		.uleb128 0x21
 3133 0199 0B       		.uleb128 0xb
 3134 019a 01       		.byte	0x1
 3135 019b 55       		.uleb128 0x55
ARM GAS  /tmp/ccFNTtWO.s 			page 56


 3136 019c 17       		.uleb128 0x17
 3137 019d 00       		.byte	0
 3138 019e 00       		.byte	0
 3139 019f 22       		.uleb128 0x22
 3140 01a0 34       		.uleb128 0x34
 3141 01a1 00       		.byte	0
 3142 01a2 31       		.uleb128 0x31
 3143 01a3 13       		.uleb128 0x13
 3144 01a4 02       		.uleb128 0x2
 3145 01a5 17       		.uleb128 0x17
 3146 01a6 00       		.byte	0
 3147 01a7 00       		.byte	0
 3148 01a8 23       		.uleb128 0x23
 3149 01a9 898201   		.uleb128 0x4109
 3150 01ac 00       		.byte	0
 3151 01ad 11       		.uleb128 0x11
 3152 01ae 01       		.uleb128 0x1
 3153 01af 31       		.uleb128 0x31
 3154 01b0 13       		.uleb128 0x13
 3155 01b1 00       		.byte	0
 3156 01b2 00       		.byte	0
 3157 01b3 24       		.uleb128 0x24
 3158 01b4 0B       		.uleb128 0xb
 3159 01b5 01       		.byte	0x1
 3160 01b6 55       		.uleb128 0x55
 3161 01b7 17       		.uleb128 0x17
 3162 01b8 01       		.uleb128 0x1
 3163 01b9 13       		.uleb128 0x13
 3164 01ba 00       		.byte	0
 3165 01bb 00       		.byte	0
 3166 01bc 25       		.uleb128 0x25
 3167 01bd 898201   		.uleb128 0x4109
 3168 01c0 01       		.byte	0x1
 3169 01c1 11       		.uleb128 0x11
 3170 01c2 01       		.uleb128 0x1
 3171 01c3 00       		.byte	0
 3172 01c4 00       		.byte	0
 3173 01c5 26       		.uleb128 0x26
 3174 01c6 2E       		.uleb128 0x2e
 3175 01c7 01       		.byte	0x1
 3176 01c8 3F       		.uleb128 0x3f
 3177 01c9 19       		.uleb128 0x19
 3178 01ca 03       		.uleb128 0x3
 3179 01cb 0E       		.uleb128 0xe
 3180 01cc 3A       		.uleb128 0x3a
 3181 01cd 0B       		.uleb128 0xb
 3182 01ce 3B       		.uleb128 0x3b
 3183 01cf 05       		.uleb128 0x5
 3184 01d0 27       		.uleb128 0x27
 3185 01d1 19       		.uleb128 0x19
 3186 01d2 11       		.uleb128 0x11
 3187 01d3 01       		.uleb128 0x1
 3188 01d4 12       		.uleb128 0x12
 3189 01d5 06       		.uleb128 0x6
 3190 01d6 40       		.uleb128 0x40
 3191 01d7 18       		.uleb128 0x18
 3192 01d8 9742     		.uleb128 0x2117
ARM GAS  /tmp/ccFNTtWO.s 			page 57


 3193 01da 19       		.uleb128 0x19
 3194 01db 01       		.uleb128 0x1
 3195 01dc 13       		.uleb128 0x13
 3196 01dd 00       		.byte	0
 3197 01de 00       		.byte	0
 3198 01df 27       		.uleb128 0x27
 3199 01e0 1D       		.uleb128 0x1d
 3200 01e1 01       		.byte	0x1
 3201 01e2 31       		.uleb128 0x31
 3202 01e3 13       		.uleb128 0x13
 3203 01e4 11       		.uleb128 0x11
 3204 01e5 01       		.uleb128 0x1
 3205 01e6 12       		.uleb128 0x12
 3206 01e7 06       		.uleb128 0x6
 3207 01e8 58       		.uleb128 0x58
 3208 01e9 0B       		.uleb128 0xb
 3209 01ea 59       		.uleb128 0x59
 3210 01eb 05       		.uleb128 0x5
 3211 01ec 01       		.uleb128 0x1
 3212 01ed 13       		.uleb128 0x13
 3213 01ee 00       		.byte	0
 3214 01ef 00       		.byte	0
 3215 01f0 28       		.uleb128 0x28
 3216 01f1 0B       		.uleb128 0xb
 3217 01f2 01       		.byte	0x1
 3218 01f3 11       		.uleb128 0x11
 3219 01f4 01       		.uleb128 0x1
 3220 01f5 12       		.uleb128 0x12
 3221 01f6 06       		.uleb128 0x6
 3222 01f7 00       		.byte	0
 3223 01f8 00       		.byte	0
 3224 01f9 29       		.uleb128 0x29
 3225 01fa 05       		.uleb128 0x5
 3226 01fb 00       		.byte	0
 3227 01fc 03       		.uleb128 0x3
 3228 01fd 08       		.uleb128 0x8
 3229 01fe 3A       		.uleb128 0x3a
 3230 01ff 0B       		.uleb128 0xb
 3231 0200 3B       		.uleb128 0x3b
 3232 0201 05       		.uleb128 0x5
 3233 0202 49       		.uleb128 0x49
 3234 0203 13       		.uleb128 0x13
 3235 0204 02       		.uleb128 0x2
 3236 0205 18       		.uleb128 0x18
 3237 0206 00       		.byte	0
 3238 0207 00       		.byte	0
 3239 0208 2A       		.uleb128 0x2a
 3240 0209 05       		.uleb128 0x5
 3241 020a 00       		.byte	0
 3242 020b 03       		.uleb128 0x3
 3243 020c 0E       		.uleb128 0xe
 3244 020d 3A       		.uleb128 0x3a
 3245 020e 0B       		.uleb128 0xb
 3246 020f 3B       		.uleb128 0x3b
 3247 0210 05       		.uleb128 0x5
 3248 0211 49       		.uleb128 0x49
 3249 0212 13       		.uleb128 0x13
ARM GAS  /tmp/ccFNTtWO.s 			page 58


 3250 0213 02       		.uleb128 0x2
 3251 0214 18       		.uleb128 0x18
 3252 0215 00       		.byte	0
 3253 0216 00       		.byte	0
 3254 0217 2B       		.uleb128 0x2b
 3255 0218 2E       		.uleb128 0x2e
 3256 0219 01       		.byte	0x1
 3257 021a 3F       		.uleb128 0x3f
 3258 021b 19       		.uleb128 0x19
 3259 021c 03       		.uleb128 0x3
 3260 021d 0E       		.uleb128 0xe
 3261 021e 3A       		.uleb128 0x3a
 3262 021f 0B       		.uleb128 0xb
 3263 0220 3B       		.uleb128 0x3b
 3264 0221 0B       		.uleb128 0xb
 3265 0222 27       		.uleb128 0x27
 3266 0223 19       		.uleb128 0x19
 3267 0224 49       		.uleb128 0x49
 3268 0225 13       		.uleb128 0x13
 3269 0226 11       		.uleb128 0x11
 3270 0227 01       		.uleb128 0x1
 3271 0228 12       		.uleb128 0x12
 3272 0229 06       		.uleb128 0x6
 3273 022a 40       		.uleb128 0x40
 3274 022b 18       		.uleb128 0x18
 3275 022c 9742     		.uleb128 0x2117
 3276 022e 19       		.uleb128 0x19
 3277 022f 01       		.uleb128 0x1
 3278 0230 13       		.uleb128 0x13
 3279 0231 00       		.byte	0
 3280 0232 00       		.byte	0
 3281 0233 2C       		.uleb128 0x2c
 3282 0234 05       		.uleb128 0x5
 3283 0235 00       		.byte	0
 3284 0236 03       		.uleb128 0x3
 3285 0237 08       		.uleb128 0x8
 3286 0238 3A       		.uleb128 0x3a
 3287 0239 0B       		.uleb128 0xb
 3288 023a 3B       		.uleb128 0x3b
 3289 023b 0B       		.uleb128 0xb
 3290 023c 49       		.uleb128 0x49
 3291 023d 13       		.uleb128 0x13
 3292 023e 02       		.uleb128 0x2
 3293 023f 17       		.uleb128 0x17
 3294 0240 00       		.byte	0
 3295 0241 00       		.byte	0
 3296 0242 2D       		.uleb128 0x2d
 3297 0243 05       		.uleb128 0x5
 3298 0244 00       		.byte	0
 3299 0245 03       		.uleb128 0x3
 3300 0246 0E       		.uleb128 0xe
 3301 0247 3A       		.uleb128 0x3a
 3302 0248 0B       		.uleb128 0xb
 3303 0249 3B       		.uleb128 0x3b
 3304 024a 0B       		.uleb128 0xb
 3305 024b 49       		.uleb128 0x49
 3306 024c 13       		.uleb128 0x13
ARM GAS  /tmp/ccFNTtWO.s 			page 59


 3307 024d 02       		.uleb128 0x2
 3308 024e 17       		.uleb128 0x17
 3309 024f 00       		.byte	0
 3310 0250 00       		.byte	0
 3311 0251 2E       		.uleb128 0x2e
 3312 0252 34       		.uleb128 0x34
 3313 0253 00       		.byte	0
 3314 0254 03       		.uleb128 0x3
 3315 0255 08       		.uleb128 0x8
 3316 0256 3A       		.uleb128 0x3a
 3317 0257 0B       		.uleb128 0xb
 3318 0258 3B       		.uleb128 0x3b
 3319 0259 0B       		.uleb128 0xb
 3320 025a 49       		.uleb128 0x49
 3321 025b 13       		.uleb128 0x13
 3322 025c 02       		.uleb128 0x2
 3323 025d 18       		.uleb128 0x18
 3324 025e 00       		.byte	0
 3325 025f 00       		.byte	0
 3326 0260 2F       		.uleb128 0x2f
 3327 0261 34       		.uleb128 0x34
 3328 0262 00       		.byte	0
 3329 0263 03       		.uleb128 0x3
 3330 0264 08       		.uleb128 0x8
 3331 0265 3A       		.uleb128 0x3a
 3332 0266 0B       		.uleb128 0xb
 3333 0267 3B       		.uleb128 0x3b
 3334 0268 0B       		.uleb128 0xb
 3335 0269 49       		.uleb128 0x49
 3336 026a 13       		.uleb128 0x13
 3337 026b 02       		.uleb128 0x2
 3338 026c 17       		.uleb128 0x17
 3339 026d 00       		.byte	0
 3340 026e 00       		.byte	0
 3341 026f 30       		.uleb128 0x30
 3342 0270 0B       		.uleb128 0xb
 3343 0271 01       		.byte	0x1
 3344 0272 01       		.uleb128 0x1
 3345 0273 13       		.uleb128 0x13
 3346 0274 00       		.byte	0
 3347 0275 00       		.byte	0
 3348 0276 31       		.uleb128 0x31
 3349 0277 34       		.uleb128 0x34
 3350 0278 00       		.byte	0
 3351 0279 03       		.uleb128 0x3
 3352 027a 08       		.uleb128 0x8
 3353 027b 3A       		.uleb128 0x3a
 3354 027c 0B       		.uleb128 0xb
 3355 027d 3B       		.uleb128 0x3b
 3356 027e 0B       		.uleb128 0xb
 3357 027f 49       		.uleb128 0x49
 3358 0280 13       		.uleb128 0x13
 3359 0281 00       		.byte	0
 3360 0282 00       		.byte	0
 3361 0283 32       		.uleb128 0x32
 3362 0284 1D       		.uleb128 0x1d
 3363 0285 01       		.byte	0x1
ARM GAS  /tmp/ccFNTtWO.s 			page 60


 3364 0286 31       		.uleb128 0x31
 3365 0287 13       		.uleb128 0x13
 3366 0288 52       		.uleb128 0x52
 3367 0289 01       		.uleb128 0x1
 3368 028a 55       		.uleb128 0x55
 3369 028b 17       		.uleb128 0x17
 3370 028c 58       		.uleb128 0x58
 3371 028d 0B       		.uleb128 0xb
 3372 028e 59       		.uleb128 0x59
 3373 028f 0B       		.uleb128 0xb
 3374 0290 01       		.uleb128 0x1
 3375 0291 13       		.uleb128 0x13
 3376 0292 00       		.byte	0
 3377 0293 00       		.byte	0
 3378 0294 33       		.uleb128 0x33
 3379 0295 2E       		.uleb128 0x2e
 3380 0296 01       		.byte	0x1
 3381 0297 3F       		.uleb128 0x3f
 3382 0298 19       		.uleb128 0x19
 3383 0299 03       		.uleb128 0x3
 3384 029a 0E       		.uleb128 0xe
 3385 029b 3A       		.uleb128 0x3a
 3386 029c 0B       		.uleb128 0xb
 3387 029d 3B       		.uleb128 0x3b
 3388 029e 0B       		.uleb128 0xb
 3389 029f 27       		.uleb128 0x27
 3390 02a0 19       		.uleb128 0x19
 3391 02a1 11       		.uleb128 0x11
 3392 02a2 01       		.uleb128 0x1
 3393 02a3 12       		.uleb128 0x12
 3394 02a4 06       		.uleb128 0x6
 3395 02a5 40       		.uleb128 0x40
 3396 02a6 18       		.uleb128 0x18
 3397 02a7 9742     		.uleb128 0x2117
 3398 02a9 19       		.uleb128 0x19
 3399 02aa 01       		.uleb128 0x1
 3400 02ab 13       		.uleb128 0x13
 3401 02ac 00       		.byte	0
 3402 02ad 00       		.byte	0
 3403 02ae 34       		.uleb128 0x34
 3404 02af 1D       		.uleb128 0x1d
 3405 02b0 01       		.byte	0x1
 3406 02b1 31       		.uleb128 0x31
 3407 02b2 13       		.uleb128 0x13
 3408 02b3 11       		.uleb128 0x11
 3409 02b4 01       		.uleb128 0x1
 3410 02b5 12       		.uleb128 0x12
 3411 02b6 06       		.uleb128 0x6
 3412 02b7 58       		.uleb128 0x58
 3413 02b8 0B       		.uleb128 0xb
 3414 02b9 59       		.uleb128 0x59
 3415 02ba 0B       		.uleb128 0xb
 3416 02bb 01       		.uleb128 0x1
 3417 02bc 13       		.uleb128 0x13
 3418 02bd 00       		.byte	0
 3419 02be 00       		.byte	0
 3420 02bf 35       		.uleb128 0x35
ARM GAS  /tmp/ccFNTtWO.s 			page 61


 3421 02c0 05       		.uleb128 0x5
 3422 02c1 00       		.byte	0
 3423 02c2 03       		.uleb128 0x3
 3424 02c3 08       		.uleb128 0x8
 3425 02c4 3A       		.uleb128 0x3a
 3426 02c5 0B       		.uleb128 0xb
 3427 02c6 3B       		.uleb128 0x3b
 3428 02c7 0B       		.uleb128 0xb
 3429 02c8 49       		.uleb128 0x49
 3430 02c9 13       		.uleb128 0x13
 3431 02ca 02       		.uleb128 0x2
 3432 02cb 18       		.uleb128 0x18
 3433 02cc 00       		.byte	0
 3434 02cd 00       		.byte	0
 3435 02ce 36       		.uleb128 0x36
 3436 02cf 05       		.uleb128 0x5
 3437 02d0 00       		.byte	0
 3438 02d1 03       		.uleb128 0x3
 3439 02d2 0E       		.uleb128 0xe
 3440 02d3 3A       		.uleb128 0x3a
 3441 02d4 0B       		.uleb128 0xb
 3442 02d5 3B       		.uleb128 0x3b
 3443 02d6 0B       		.uleb128 0xb
 3444 02d7 49       		.uleb128 0x49
 3445 02d8 13       		.uleb128 0x13
 3446 02d9 02       		.uleb128 0x2
 3447 02da 18       		.uleb128 0x18
 3448 02db 00       		.byte	0
 3449 02dc 00       		.byte	0
 3450 02dd 37       		.uleb128 0x37
 3451 02de 2E       		.uleb128 0x2e
 3452 02df 01       		.byte	0x1
 3453 02e0 03       		.uleb128 0x3
 3454 02e1 0E       		.uleb128 0xe
 3455 02e2 3A       		.uleb128 0x3a
 3456 02e3 0B       		.uleb128 0xb
 3457 02e4 3B       		.uleb128 0x3b
 3458 02e5 0B       		.uleb128 0xb
 3459 02e6 27       		.uleb128 0x27
 3460 02e7 19       		.uleb128 0x19
 3461 02e8 49       		.uleb128 0x49
 3462 02e9 13       		.uleb128 0x13
 3463 02ea 11       		.uleb128 0x11
 3464 02eb 01       		.uleb128 0x1
 3465 02ec 12       		.uleb128 0x12
 3466 02ed 06       		.uleb128 0x6
 3467 02ee 40       		.uleb128 0x40
 3468 02ef 18       		.uleb128 0x18
 3469 02f0 9742     		.uleb128 0x2117
 3470 02f2 19       		.uleb128 0x19
 3471 02f3 01       		.uleb128 0x1
 3472 02f4 13       		.uleb128 0x13
 3473 02f5 00       		.byte	0
 3474 02f6 00       		.byte	0
 3475 02f7 38       		.uleb128 0x38
 3476 02f8 898201   		.uleb128 0x4109
 3477 02fb 01       		.byte	0x1
ARM GAS  /tmp/ccFNTtWO.s 			page 62


 3478 02fc 11       		.uleb128 0x11
 3479 02fd 01       		.uleb128 0x1
 3480 02fe 9542     		.uleb128 0x2115
 3481 0300 19       		.uleb128 0x19
 3482 0301 31       		.uleb128 0x31
 3483 0302 13       		.uleb128 0x13
 3484 0303 00       		.byte	0
 3485 0304 00       		.byte	0
 3486 0305 39       		.uleb128 0x39
 3487 0306 2E       		.uleb128 0x2e
 3488 0307 01       		.byte	0x1
 3489 0308 03       		.uleb128 0x3
 3490 0309 0E       		.uleb128 0xe
 3491 030a 3A       		.uleb128 0x3a
 3492 030b 0B       		.uleb128 0xb
 3493 030c 3B       		.uleb128 0x3b
 3494 030d 0B       		.uleb128 0xb
 3495 030e 27       		.uleb128 0x27
 3496 030f 19       		.uleb128 0x19
 3497 0310 49       		.uleb128 0x49
 3498 0311 13       		.uleb128 0x13
 3499 0312 20       		.uleb128 0x20
 3500 0313 0B       		.uleb128 0xb
 3501 0314 01       		.uleb128 0x1
 3502 0315 13       		.uleb128 0x13
 3503 0316 00       		.byte	0
 3504 0317 00       		.byte	0
 3505 0318 3A       		.uleb128 0x3a
 3506 0319 05       		.uleb128 0x5
 3507 031a 00       		.byte	0
 3508 031b 03       		.uleb128 0x3
 3509 031c 08       		.uleb128 0x8
 3510 031d 3A       		.uleb128 0x3a
 3511 031e 0B       		.uleb128 0xb
 3512 031f 3B       		.uleb128 0x3b
 3513 0320 0B       		.uleb128 0xb
 3514 0321 49       		.uleb128 0x49
 3515 0322 13       		.uleb128 0x13
 3516 0323 00       		.byte	0
 3517 0324 00       		.byte	0
 3518 0325 3B       		.uleb128 0x3b
 3519 0326 2E       		.uleb128 0x2e
 3520 0327 01       		.byte	0x1
 3521 0328 03       		.uleb128 0x3
 3522 0329 0E       		.uleb128 0xe
 3523 032a 3A       		.uleb128 0x3a
 3524 032b 0B       		.uleb128 0xb
 3525 032c 3B       		.uleb128 0x3b
 3526 032d 0B       		.uleb128 0xb
 3527 032e 27       		.uleb128 0x27
 3528 032f 19       		.uleb128 0x19
 3529 0330 20       		.uleb128 0x20
 3530 0331 0B       		.uleb128 0xb
 3531 0332 01       		.uleb128 0x1
 3532 0333 13       		.uleb128 0x13
 3533 0334 00       		.byte	0
 3534 0335 00       		.byte	0
ARM GAS  /tmp/ccFNTtWO.s 			page 63


 3535 0336 3C       		.uleb128 0x3c
 3536 0337 2E       		.uleb128 0x2e
 3537 0338 00       		.byte	0
 3538 0339 3F       		.uleb128 0x3f
 3539 033a 19       		.uleb128 0x19
 3540 033b 3C       		.uleb128 0x3c
 3541 033c 19       		.uleb128 0x19
 3542 033d 6E       		.uleb128 0x6e
 3543 033e 0E       		.uleb128 0xe
 3544 033f 03       		.uleb128 0x3
 3545 0340 0E       		.uleb128 0xe
 3546 0341 3A       		.uleb128 0x3a
 3547 0342 0B       		.uleb128 0xb
 3548 0343 3B       		.uleb128 0x3b
 3549 0344 0B       		.uleb128 0xb
 3550 0345 00       		.byte	0
 3551 0346 00       		.byte	0
 3552 0347 00       		.byte	0
 3553              		.section	.debug_loc,"",%progbits
 3554              	.Ldebug_loc0:
 3555              	.LLST34:
 3556 0000 00000000 		.4byte	.LVL62
 3557 0004 1A000000 		.4byte	.LVL65
 3558 0008 0100     		.2byte	0x1
 3559 000a 50       		.byte	0x50
 3560 000b 1A000000 		.4byte	.LVL65
 3561 000f 80000000 		.4byte	.LFE17
 3562 0013 0100     		.2byte	0x1
 3563 0015 54       		.byte	0x54
 3564 0016 00000000 		.4byte	0
 3565 001a 00000000 		.4byte	0
 3566              	.LLST35:
 3567 001e 00000000 		.4byte	.LVL62
 3568 0022 1A000000 		.4byte	.LVL65
 3569 0026 0100     		.2byte	0x1
 3570 0028 51       		.byte	0x51
 3571 0029 1A000000 		.4byte	.LVL65
 3572 002d 20000000 		.4byte	.LVL66
 3573 0031 0100     		.2byte	0x1
 3574 0033 56       		.byte	0x56
 3575 0034 20000000 		.4byte	.LVL66
 3576 0038 5C000000 		.4byte	.LVL70
 3577 003c 0100     		.2byte	0x1
 3578 003e 5B       		.byte	0x5b
 3579 003f 5C000000 		.4byte	.LVL70
 3580 0043 62000000 		.4byte	.LVL71
 3581 0047 0100     		.2byte	0x1
 3582 0049 56       		.byte	0x56
 3583 004a 62000000 		.4byte	.LVL71
 3584 004e 80000000 		.4byte	.LFE17
 3585 0052 0100     		.2byte	0x1
 3586 0054 5B       		.byte	0x5b
 3587 0055 00000000 		.4byte	0
 3588 0059 00000000 		.4byte	0
 3589              	.LLST36:
 3590 005d 00000000 		.4byte	.LVL62
 3591 0061 1A000000 		.4byte	.LVL65
ARM GAS  /tmp/ccFNTtWO.s 			page 64


 3592 0065 0100     		.2byte	0x1
 3593 0067 52       		.byte	0x52
 3594 0068 1A000000 		.4byte	.LVL65
 3595 006c 4E000000 		.4byte	.LVL68
 3596 0070 0100     		.2byte	0x1
 3597 0072 57       		.byte	0x57
 3598 0073 4E000000 		.4byte	.LVL68
 3599 0077 52000000 		.4byte	.LVL69
 3600 007b 0300     		.2byte	0x3
 3601 007d 77       		.byte	0x77
 3602 007e 01       		.sleb128 1
 3603 007f 9F       		.byte	0x9f
 3604 0080 5C000000 		.4byte	.LVL70
 3605 0084 7A000000 		.4byte	.LVL73
 3606 0088 0100     		.2byte	0x1
 3607 008a 57       		.byte	0x57
 3608 008b 00000000 		.4byte	0
 3609 008f 00000000 		.4byte	0
 3610              	.LLST37:
 3611 0093 00000000 		.4byte	.LVL62
 3612 0097 12000000 		.4byte	.LVL64
 3613 009b 0100     		.2byte	0x1
 3614 009d 53       		.byte	0x53
 3615 009e 12000000 		.4byte	.LVL64
 3616 00a2 80000000 		.4byte	.LFE17
 3617 00a6 0100     		.2byte	0x1
 3618 00a8 5A       		.byte	0x5a
 3619 00a9 00000000 		.4byte	0
 3620 00ad 00000000 		.4byte	0
 3621              	.LLST38:
 3622 00b1 10000000 		.4byte	.LVL63
 3623 00b5 1A000000 		.4byte	.LVL65
 3624 00b9 0200     		.2byte	0x2
 3625 00bb 30       		.byte	0x30
 3626 00bc 9F       		.byte	0x9f
 3627 00bd 1A000000 		.4byte	.LVL65
 3628 00c1 80000000 		.4byte	.LFE17
 3629 00c5 0100     		.2byte	0x1
 3630 00c7 58       		.byte	0x58
 3631 00c8 00000000 		.4byte	0
 3632 00cc 00000000 		.4byte	0
 3633              	.LLST30:
 3634 00d0 00000000 		.4byte	.LVL53
 3635 00d4 28000000 		.4byte	.LVL56
 3636 00d8 0100     		.2byte	0x1
 3637 00da 50       		.byte	0x50
 3638 00db 28000000 		.4byte	.LVL56
 3639 00df 2F000000 		.4byte	.LVL58-1
 3640 00e3 0100     		.2byte	0x1
 3641 00e5 53       		.byte	0x53
 3642 00e6 2F000000 		.4byte	.LVL58-1
 3643 00ea 38000000 		.4byte	.LVL59
 3644 00ee 0400     		.2byte	0x4
 3645 00f0 F3       		.byte	0xf3
 3646 00f1 01       		.uleb128 0x1
 3647 00f2 50       		.byte	0x50
 3648 00f3 9F       		.byte	0x9f
ARM GAS  /tmp/ccFNTtWO.s 			page 65


 3649 00f4 38000000 		.4byte	.LVL59
 3650 00f8 46000000 		.4byte	.LVL61
 3651 00fc 0100     		.2byte	0x1
 3652 00fe 50       		.byte	0x50
 3653 00ff 46000000 		.4byte	.LVL61
 3654 0103 48000000 		.4byte	.LFE16
 3655 0107 0400     		.2byte	0x4
 3656 0109 F3       		.byte	0xf3
 3657 010a 01       		.uleb128 0x1
 3658 010b 50       		.byte	0x50
 3659 010c 9F       		.byte	0x9f
 3660 010d 00000000 		.4byte	0
 3661 0111 00000000 		.4byte	0
 3662              	.LLST31:
 3663 0115 1A000000 		.4byte	.LVL54
 3664 0119 3E000000 		.4byte	.LVL60
 3665 011d 0100     		.2byte	0x1
 3666 011f 54       		.byte	0x54
 3667 0120 00000000 		.4byte	0
 3668 0124 00000000 		.4byte	0
 3669              	.LLST32:
 3670 0128 24000000 		.4byte	.LVL55
 3671 012c 2C000000 		.4byte	.LVL57
 3672 0130 0100     		.2byte	0x1
 3673 0132 53       		.byte	0x53
 3674 0133 00000000 		.4byte	0
 3675 0137 00000000 		.4byte	0
 3676              	.LLST33:
 3677 013b 24000000 		.4byte	.LVL55
 3678 013f 2C000000 		.4byte	.LVL57
 3679 0143 0100     		.2byte	0x1
 3680 0145 52       		.byte	0x52
 3681 0146 00000000 		.4byte	0
 3682 014a 00000000 		.4byte	0
 3683              	.LLST26:
 3684 014e 00000000 		.4byte	.LVL47
 3685 0152 10000000 		.4byte	.LVL48
 3686 0156 0100     		.2byte	0x1
 3687 0158 50       		.byte	0x50
 3688 0159 10000000 		.4byte	.LVL48
 3689 015d 54000000 		.4byte	.LFE15
 3690 0161 0100     		.2byte	0x1
 3691 0163 54       		.byte	0x54
 3692 0164 00000000 		.4byte	0
 3693 0168 00000000 		.4byte	0
 3694              	.LLST27:
 3695 016c 00000000 		.4byte	.LVL47
 3696 0170 10000000 		.4byte	.LVL48
 3697 0174 0100     		.2byte	0x1
 3698 0176 51       		.byte	0x51
 3699 0177 10000000 		.4byte	.LVL48
 3700 017b 54000000 		.4byte	.LFE15
 3701 017f 0400     		.2byte	0x4
 3702 0181 F3       		.byte	0xf3
 3703 0182 01       		.uleb128 0x1
 3704 0183 51       		.byte	0x51
 3705 0184 9F       		.byte	0x9f
ARM GAS  /tmp/ccFNTtWO.s 			page 66


 3706 0185 00000000 		.4byte	0
 3707 0189 00000000 		.4byte	0
 3708              	.LLST28:
 3709 018d 00000000 		.4byte	.LVL47
 3710 0191 10000000 		.4byte	.LVL48
 3711 0195 0100     		.2byte	0x1
 3712 0197 52       		.byte	0x52
 3713 0198 10000000 		.4byte	.LVL48
 3714 019c 54000000 		.4byte	.LFE15
 3715 01a0 0100     		.2byte	0x1
 3716 01a2 56       		.byte	0x56
 3717 01a3 00000000 		.4byte	0
 3718 01a7 00000000 		.4byte	0
 3719              	.LLST29:
 3720 01ab 18000000 		.4byte	.LVL49
 3721 01af 1C000000 		.4byte	.LVL50
 3722 01b3 0100     		.2byte	0x1
 3723 01b5 50       		.byte	0x50
 3724 01b6 4C000000 		.4byte	.LVL52
 3725 01ba 54000000 		.4byte	.LFE15
 3726 01be 0100     		.2byte	0x1
 3727 01c0 50       		.byte	0x50
 3728 01c1 00000000 		.4byte	0
 3729 01c5 00000000 		.4byte	0
 3730              	.LLST23:
 3731 01c9 00000000 		.4byte	.LVL42
 3732 01cd 0A000000 		.4byte	.LVL43
 3733 01d1 0100     		.2byte	0x1
 3734 01d3 50       		.byte	0x50
 3735 01d4 0A000000 		.4byte	.LVL43
 3736 01d8 2E000000 		.4byte	.LFE14
 3737 01dc 0100     		.2byte	0x1
 3738 01de 54       		.byte	0x54
 3739 01df 00000000 		.4byte	0
 3740 01e3 00000000 		.4byte	0
 3741              	.LLST24:
 3742 01e7 1A000000 		.4byte	.LVL44
 3743 01eb 20000000 		.4byte	.LVL45
 3744 01ef 0100     		.2byte	0x1
 3745 01f1 54       		.byte	0x54
 3746 01f2 00000000 		.4byte	0
 3747 01f6 00000000 		.4byte	0
 3748              	.LLST25:
 3749 01fa 1A000000 		.4byte	.LVL44
 3750 01fe 20000000 		.4byte	.LVL45
 3751 0202 0100     		.2byte	0x1
 3752 0204 50       		.byte	0x50
 3753 0205 00000000 		.4byte	0
 3754 0209 00000000 		.4byte	0
 3755              	.LLST22:
 3756 020d 00000000 		.4byte	.LVL40
 3757 0211 1A000000 		.4byte	.LVL41
 3758 0215 0200     		.2byte	0x2
 3759 0217 91       		.byte	0x91
 3760 0218 00       		.sleb128 0
 3761 0219 1A000000 		.4byte	.LVL41
 3762 021d 1C000000 		.4byte	.LFE13
ARM GAS  /tmp/ccFNTtWO.s 			page 67


 3763 0221 0200     		.2byte	0x2
 3764 0223 7D       		.byte	0x7d
 3765 0224 00       		.sleb128 0
 3766 0225 00000000 		.4byte	0
 3767 0229 00000000 		.4byte	0
 3768              	.LLST17:
 3769 022d 00000000 		.4byte	.LVL30
 3770 0231 18000000 		.4byte	.LVL33
 3771 0235 0100     		.2byte	0x1
 3772 0237 50       		.byte	0x50
 3773 0238 18000000 		.4byte	.LVL33
 3774 023c 70000000 		.4byte	.LFE12
 3775 0240 0100     		.2byte	0x1
 3776 0242 54       		.byte	0x54
 3777 0243 00000000 		.4byte	0
 3778 0247 00000000 		.4byte	0
 3779              	.LLST18:
 3780 024b 00000000 		.4byte	.LVL30
 3781 024f 18000000 		.4byte	.LVL33
 3782 0253 0100     		.2byte	0x1
 3783 0255 51       		.byte	0x51
 3784 0256 18000000 		.4byte	.LVL33
 3785 025a 44000000 		.4byte	.LVL36
 3786 025e 0100     		.2byte	0x1
 3787 0260 59       		.byte	0x59
 3788 0261 44000000 		.4byte	.LVL36
 3789 0265 64000000 		.4byte	.LVL38
 3790 0269 0300     		.2byte	0x3
 3791 026b 79       		.byte	0x79
 3792 026c 7F       		.sleb128 -1
 3793 026d 9F       		.byte	0x9f
 3794 026e 64000000 		.4byte	.LVL38
 3795 0272 6A000000 		.4byte	.LVL39
 3796 0276 0100     		.2byte	0x1
 3797 0278 59       		.byte	0x59
 3798 0279 00000000 		.4byte	0
 3799 027d 00000000 		.4byte	0
 3800              	.LLST19:
 3801 0281 00000000 		.4byte	.LVL30
 3802 0285 18000000 		.4byte	.LVL33
 3803 0289 0100     		.2byte	0x1
 3804 028b 52       		.byte	0x52
 3805 028c 58000000 		.4byte	.LVL37
 3806 0290 64000000 		.4byte	.LVL38
 3807 0294 0600     		.2byte	0x6
 3808 0296 7A       		.byte	0x7a
 3809 0297 00       		.sleb128 0
 3810 0298 77       		.byte	0x77
 3811 0299 00       		.sleb128 0
 3812 029a 1C       		.byte	0x1c
 3813 029b 9F       		.byte	0x9f
 3814 029c 00000000 		.4byte	0
 3815 02a0 00000000 		.4byte	0
 3816              	.LLST20:
 3817 02a4 00000000 		.4byte	.LVL30
 3818 02a8 12000000 		.4byte	.LVL32
 3819 02ac 0100     		.2byte	0x1
ARM GAS  /tmp/ccFNTtWO.s 			page 68


 3820 02ae 53       		.byte	0x53
 3821 02af 12000000 		.4byte	.LVL32
 3822 02b3 70000000 		.4byte	.LFE12
 3823 02b7 0100     		.2byte	0x1
 3824 02b9 56       		.byte	0x56
 3825 02ba 00000000 		.4byte	0
 3826 02be 00000000 		.4byte	0
 3827              	.LLST21:
 3828 02c2 10000000 		.4byte	.LVL31
 3829 02c6 18000000 		.4byte	.LVL33
 3830 02ca 0200     		.2byte	0x2
 3831 02cc 30       		.byte	0x30
 3832 02cd 9F       		.byte	0x9f
 3833 02ce 18000000 		.4byte	.LVL33
 3834 02d2 70000000 		.4byte	.LFE12
 3835 02d6 0100     		.2byte	0x1
 3836 02d8 57       		.byte	0x57
 3837 02d9 00000000 		.4byte	0
 3838 02dd 00000000 		.4byte	0
 3839              	.LLST13:
 3840 02e1 00000000 		.4byte	.LVL24
 3841 02e5 11000000 		.4byte	.LVL25-1
 3842 02e9 0100     		.2byte	0x1
 3843 02eb 50       		.byte	0x50
 3844 02ec 11000000 		.4byte	.LVL25-1
 3845 02f0 48000000 		.4byte	.LFE11
 3846 02f4 0100     		.2byte	0x1
 3847 02f6 54       		.byte	0x54
 3848 02f7 00000000 		.4byte	0
 3849 02fb 00000000 		.4byte	0
 3850              	.LLST14:
 3851 02ff 00000000 		.4byte	.LVL24
 3852 0303 11000000 		.4byte	.LVL25-1
 3853 0307 0100     		.2byte	0x1
 3854 0309 51       		.byte	0x51
 3855 030a 11000000 		.4byte	.LVL25-1
 3856 030e 48000000 		.4byte	.LFE11
 3857 0312 0100     		.2byte	0x1
 3858 0314 56       		.byte	0x56
 3859 0315 00000000 		.4byte	0
 3860 0319 00000000 		.4byte	0
 3861              	.LLST15:
 3862 031d 3C000000 		.4byte	.LVL28
 3863 0321 40000000 		.4byte	.LVL29
 3864 0325 0100     		.2byte	0x1
 3865 0327 50       		.byte	0x50
 3866 0328 00000000 		.4byte	0
 3867 032c 00000000 		.4byte	0
 3868              	.LLST16:
 3869 0330 1C000000 		.4byte	.LVL26
 3870 0334 20000000 		.4byte	.LVL27
 3871 0338 0100     		.2byte	0x1
 3872 033a 50       		.byte	0x50
 3873 033b 00000000 		.4byte	0
 3874 033f 00000000 		.4byte	0
 3875              	.LLST9:
 3876 0343 00000000 		.4byte	.LVL14
ARM GAS  /tmp/ccFNTtWO.s 			page 69


 3877 0347 2A000000 		.4byte	.LVL17
 3878 034b 0100     		.2byte	0x1
 3879 034d 50       		.byte	0x50
 3880 034e 2A000000 		.4byte	.LVL17
 3881 0352 31000000 		.4byte	.LVL19-1
 3882 0356 0100     		.2byte	0x1
 3883 0358 53       		.byte	0x53
 3884 0359 31000000 		.4byte	.LVL19-1
 3885 035d 3A000000 		.4byte	.LVL20
 3886 0361 0400     		.2byte	0x4
 3887 0363 F3       		.byte	0xf3
 3888 0364 01       		.uleb128 0x1
 3889 0365 50       		.byte	0x50
 3890 0366 9F       		.byte	0x9f
 3891 0367 3A000000 		.4byte	.LVL20
 3892 036b 46000000 		.4byte	.LVL21
 3893 036f 0100     		.2byte	0x1
 3894 0371 50       		.byte	0x50
 3895 0372 46000000 		.4byte	.LVL21
 3896 0376 48000000 		.4byte	.LVL22
 3897 037a 0400     		.2byte	0x4
 3898 037c F3       		.byte	0xf3
 3899 037d 01       		.uleb128 0x1
 3900 037e 50       		.byte	0x50
 3901 037f 9F       		.byte	0x9f
 3902 0380 48000000 		.4byte	.LVL22
 3903 0384 50000000 		.4byte	.LVL23
 3904 0388 0100     		.2byte	0x1
 3905 038a 50       		.byte	0x50
 3906 038b 50000000 		.4byte	.LVL23
 3907 038f 52000000 		.4byte	.LFE10
 3908 0393 0400     		.2byte	0x4
 3909 0395 F3       		.byte	0xf3
 3910 0396 01       		.uleb128 0x1
 3911 0397 50       		.byte	0x50
 3912 0398 9F       		.byte	0x9f
 3913 0399 00000000 		.4byte	0
 3914 039d 00000000 		.4byte	0
 3915              	.LLST10:
 3916 03a1 00000000 		.4byte	.LVL14
 3917 03a5 28000000 		.4byte	.LVL16
 3918 03a9 0100     		.2byte	0x1
 3919 03ab 51       		.byte	0x51
 3920 03ac 28000000 		.4byte	.LVL16
 3921 03b0 3A000000 		.4byte	.LVL20
 3922 03b4 0400     		.2byte	0x4
 3923 03b6 F3       		.byte	0xf3
 3924 03b7 01       		.uleb128 0x1
 3925 03b8 51       		.byte	0x51
 3926 03b9 9F       		.byte	0x9f
 3927 03ba 3A000000 		.4byte	.LVL20
 3928 03be 52000000 		.4byte	.LFE10
 3929 03c2 0100     		.2byte	0x1
 3930 03c4 51       		.byte	0x51
 3931 03c5 00000000 		.4byte	0
 3932 03c9 00000000 		.4byte	0
 3933              	.LLST11:
ARM GAS  /tmp/ccFNTtWO.s 			page 70


 3934 03cd 26000000 		.4byte	.LVL15
 3935 03d1 2E000000 		.4byte	.LVL18
 3936 03d5 0100     		.2byte	0x1
 3937 03d7 53       		.byte	0x53
 3938 03d8 00000000 		.4byte	0
 3939 03dc 00000000 		.4byte	0
 3940              	.LLST12:
 3941 03e0 26000000 		.4byte	.LVL15
 3942 03e4 2E000000 		.4byte	.LVL18
 3943 03e8 0100     		.2byte	0x1
 3944 03ea 52       		.byte	0x52
 3945 03eb 00000000 		.4byte	0
 3946 03ef 00000000 		.4byte	0
 3947              	.LLST6:
 3948 03f3 00000000 		.4byte	.LVL9
 3949 03f7 0A000000 		.4byte	.LVL10
 3950 03fb 0100     		.2byte	0x1
 3951 03fd 50       		.byte	0x50
 3952 03fe 0A000000 		.4byte	.LVL10
 3953 0402 2C000000 		.4byte	.LFE9
 3954 0406 0100     		.2byte	0x1
 3955 0408 54       		.byte	0x54
 3956 0409 00000000 		.4byte	0
 3957 040d 00000000 		.4byte	0
 3958              	.LLST7:
 3959 0411 18000000 		.4byte	.LVL11
 3960 0415 1E000000 		.4byte	.LVL12
 3961 0419 0100     		.2byte	0x1
 3962 041b 54       		.byte	0x54
 3963 041c 00000000 		.4byte	0
 3964 0420 00000000 		.4byte	0
 3965              	.LLST8:
 3966 0424 18000000 		.4byte	.LVL11
 3967 0428 1E000000 		.4byte	.LVL12
 3968 042c 0100     		.2byte	0x1
 3969 042e 50       		.byte	0x50
 3970 042f 00000000 		.4byte	0
 3971 0433 00000000 		.4byte	0
 3972              	.LLST4:
 3973 0437 00000000 		.4byte	.LVL6
 3974 043b 08000000 		.4byte	.LVL7
 3975 043f 0100     		.2byte	0x1
 3976 0441 52       		.byte	0x52
 3977 0442 08000000 		.4byte	.LVL7
 3978 0446 1E000000 		.4byte	.LFE8
 3979 044a 0400     		.2byte	0x4
 3980 044c F3       		.byte	0xf3
 3981 044d 01       		.uleb128 0x1
 3982 044e 52       		.byte	0x52
 3983 044f 9F       		.byte	0x9f
 3984 0450 00000000 		.4byte	0
 3985 0454 00000000 		.4byte	0
 3986              	.LLST5:
 3987 0458 00000000 		.4byte	.LVL6
 3988 045c 1C000000 		.4byte	.LVL8
 3989 0460 0200     		.2byte	0x2
 3990 0462 91       		.byte	0x91
ARM GAS  /tmp/ccFNTtWO.s 			page 71


 3991 0463 00       		.sleb128 0
 3992 0464 1C000000 		.4byte	.LVL8
 3993 0468 1E000000 		.4byte	.LFE8
 3994 046c 0200     		.2byte	0x2
 3995 046e 7D       		.byte	0x7d
 3996 046f 00       		.sleb128 0
 3997 0470 00000000 		.4byte	0
 3998 0474 00000000 		.4byte	0
 3999              	.LLST0:
 4000 0478 00000000 		.4byte	.LVL0
 4001 047c 0C000000 		.4byte	.LVL1
 4002 0480 0100     		.2byte	0x1
 4003 0482 50       		.byte	0x50
 4004 0483 0C000000 		.4byte	.LVL1
 4005 0487 1D000000 		.4byte	.LVL4-1
 4006 048b 0100     		.2byte	0x1
 4007 048d 52       		.byte	0x52
 4008 048e 1D000000 		.4byte	.LVL4-1
 4009 0492 1E000000 		.4byte	.LVL4
 4010 0496 0400     		.2byte	0x4
 4011 0498 F3       		.byte	0xf3
 4012 0499 01       		.uleb128 0x1
 4013 049a 50       		.byte	0x50
 4014 049b 9F       		.byte	0x9f
 4015 049c 1E000000 		.4byte	.LVL4
 4016 04a0 22000000 		.4byte	.LVL5
 4017 04a4 0100     		.2byte	0x1
 4018 04a6 50       		.byte	0x50
 4019 04a7 22000000 		.4byte	.LVL5
 4020 04ab 28000000 		.4byte	.LFE7
 4021 04af 0400     		.2byte	0x4
 4022 04b1 F3       		.byte	0xf3
 4023 04b2 01       		.uleb128 0x1
 4024 04b3 50       		.byte	0x50
 4025 04b4 9F       		.byte	0x9f
 4026 04b5 00000000 		.4byte	0
 4027 04b9 00000000 		.4byte	0
 4028              	.LLST1:
 4029 04bd 00000000 		.4byte	.LVL0
 4030 04c1 1D000000 		.4byte	.LVL4-1
 4031 04c5 0100     		.2byte	0x1
 4032 04c7 51       		.byte	0x51
 4033 04c8 1D000000 		.4byte	.LVL4-1
 4034 04cc 1E000000 		.4byte	.LVL4
 4035 04d0 0400     		.2byte	0x4
 4036 04d2 F3       		.byte	0xf3
 4037 04d3 01       		.uleb128 0x1
 4038 04d4 51       		.byte	0x51
 4039 04d5 9F       		.byte	0x9f
 4040 04d6 1E000000 		.4byte	.LVL4
 4041 04da 28000000 		.4byte	.LFE7
 4042 04de 0100     		.2byte	0x1
 4043 04e0 51       		.byte	0x51
 4044 04e1 00000000 		.4byte	0
 4045 04e5 00000000 		.4byte	0
 4046              	.LLST2:
 4047 04e9 0E000000 		.4byte	.LVL2
ARM GAS  /tmp/ccFNTtWO.s 			page 72


 4048 04ed 18000000 		.4byte	.LVL3
 4049 04f1 0100     		.2byte	0x1
 4050 04f3 52       		.byte	0x52
 4051 04f4 00000000 		.4byte	0
 4052 04f8 00000000 		.4byte	0
 4053              	.LLST3:
 4054 04fc 0E000000 		.4byte	.LVL2
 4055 0500 18000000 		.4byte	.LVL3
 4056 0504 0100     		.2byte	0x1
 4057 0506 53       		.byte	0x53
 4058 0507 00000000 		.4byte	0
 4059 050b 00000000 		.4byte	0
 4060              		.section	.debug_aranges,"",%progbits
 4061 0000 6C000000 		.4byte	0x6c
 4062 0004 0200     		.2byte	0x2
 4063 0006 00000000 		.4byte	.Ldebug_info0
 4064 000a 04       		.byte	0x4
 4065 000b 00       		.byte	0
 4066 000c 0000     		.2byte	0
 4067 000e 0000     		.2byte	0
 4068 0010 00000000 		.4byte	.LFB7
 4069 0014 28000000 		.4byte	.LFE7-.LFB7
 4070 0018 00000000 		.4byte	.LFB8
 4071 001c 1E000000 		.4byte	.LFE8-.LFB8
 4072 0020 00000000 		.4byte	.LFB9
 4073 0024 2C000000 		.4byte	.LFE9-.LFB9
 4074 0028 00000000 		.4byte	.LFB10
 4075 002c 52000000 		.4byte	.LFE10-.LFB10
 4076 0030 00000000 		.4byte	.LFB11
 4077 0034 48000000 		.4byte	.LFE11-.LFB11
 4078 0038 00000000 		.4byte	.LFB12
 4079 003c 70000000 		.4byte	.LFE12-.LFB12
 4080 0040 00000000 		.4byte	.LFB13
 4081 0044 1C000000 		.4byte	.LFE13-.LFB13
 4082 0048 00000000 		.4byte	.LFB14
 4083 004c 2E000000 		.4byte	.LFE14-.LFB14
 4084 0050 00000000 		.4byte	.LFB15
 4085 0054 54000000 		.4byte	.LFE15-.LFB15
 4086 0058 00000000 		.4byte	.LFB16
 4087 005c 48000000 		.4byte	.LFE16-.LFB16
 4088 0060 00000000 		.4byte	.LFB17
 4089 0064 80000000 		.4byte	.LFE17-.LFB17
 4090 0068 00000000 		.4byte	0
 4091 006c 00000000 		.4byte	0
 4092              		.section	.debug_ranges,"",%progbits
 4093              	.Ldebug_ranges0:
 4094 0000 26000000 		.4byte	.LBB16
 4095 0004 28000000 		.4byte	.LBE16
 4096 0008 2A000000 		.4byte	.LBB19
 4097 000c 2E000000 		.4byte	.LBE19
 4098 0010 00000000 		.4byte	0
 4099 0014 00000000 		.4byte	0
 4100 0018 02000000 		.4byte	.LBB20
 4101 001c 04000000 		.4byte	.LBE20
 4102 0020 08000000 		.4byte	.LBB21
 4103 0024 0C000000 		.4byte	.LBE21
 4104 0028 00000000 		.4byte	0
ARM GAS  /tmp/ccFNTtWO.s 			page 73


 4105 002c 00000000 		.4byte	0
 4106 0030 10000000 		.4byte	.LBB31
 4107 0034 1C000000 		.4byte	.LBE31
 4108 0038 4C000000 		.4byte	.LBB34
 4109 003c 54000000 		.4byte	.LBE34
 4110 0040 00000000 		.4byte	0
 4111 0044 00000000 		.4byte	0
 4112 0048 24000000 		.4byte	.LBB35
 4113 004c 26000000 		.4byte	.LBE35
 4114 0050 28000000 		.4byte	.LBB38
 4115 0054 2C000000 		.4byte	.LBE38
 4116 0058 00000000 		.4byte	0
 4117 005c 00000000 		.4byte	0
 4118 0060 00000000 		.4byte	.LFB7
 4119 0064 28000000 		.4byte	.LFE7
 4120 0068 00000000 		.4byte	.LFB8
 4121 006c 1E000000 		.4byte	.LFE8
 4122 0070 00000000 		.4byte	.LFB9
 4123 0074 2C000000 		.4byte	.LFE9
 4124 0078 00000000 		.4byte	.LFB10
 4125 007c 52000000 		.4byte	.LFE10
 4126 0080 00000000 		.4byte	.LFB11
 4127 0084 48000000 		.4byte	.LFE11
 4128 0088 00000000 		.4byte	.LFB12
 4129 008c 70000000 		.4byte	.LFE12
 4130 0090 00000000 		.4byte	.LFB13
 4131 0094 1C000000 		.4byte	.LFE13
 4132 0098 00000000 		.4byte	.LFB14
 4133 009c 2E000000 		.4byte	.LFE14
 4134 00a0 00000000 		.4byte	.LFB15
 4135 00a4 54000000 		.4byte	.LFE15
 4136 00a8 00000000 		.4byte	.LFB16
 4137 00ac 48000000 		.4byte	.LFE16
 4138 00b0 00000000 		.4byte	.LFB17
 4139 00b4 80000000 		.4byte	.LFE17
 4140 00b8 00000000 		.4byte	0
 4141 00bc 00000000 		.4byte	0
 4142              		.section	.debug_line,"",%progbits
 4143              	.Ldebug_line0:
 4144 0000 41030000 		.section	.debug_str,"MS",%progbits,1
 4144      02007601 
 4144      00000201 
 4144      FB0E0D00 
 4144      01010101 
 4145              	.LASF121:
 4146 0000 63684F51 		.ascii	"chOQPutTimeout\000"
 4146      50757454 
 4146      696D656F 
 4146      757400
 4147              	.LASF95:
 4148 000f 63665F6F 		.ascii	"cf_off_older\000"
 4148      66665F6F 
 4148      6C646572 
 4148      00
 4149              	.LASF46:
 4150 001c 705F6D73 		.ascii	"p_msg\000"
 4150      6700
ARM GAS  /tmp/ccFNTtWO.s 			page 74


 4151              	.LASF125:
 4152 0022 6F6E6679 		.ascii	"onfy\000"
 4152      00
 4153              	.LASF4:
 4154 0027 73697A65 		.ascii	"size_t\000"
 4154      5F7400
 4155              	.LASF63:
 4156 002e 76745F66 		.ascii	"vt_func\000"
 4156      756E6300 
 4157              	.LASF131:
 4158 0036 63684951 		.ascii	"chIQInit\000"
 4158      496E6974 
 4158      00
 4159              	.LASF20:
 4160 003f 75696E74 		.ascii	"uint64_t\000"
 4160      36345F74 
 4160      00
 4161              	.LASF116:
 4162 0048 4F757470 		.ascii	"OutputQueue\000"
 4162      75745175 
 4162      65756500 
 4163              	.LASF5:
 4164 0054 5F5F7569 		.ascii	"__uint8_t\000"
 4164      6E74385F 
 4164      7400
 4165              	.LASF74:
 4166 005e 76746C69 		.ascii	"vtlist\000"
 4166      737400
 4167              	.LASF127:
 4168 0065 63684951 		.ascii	"chIQReadTimeout\000"
 4168      52656164 
 4168      54696D65 
 4168      6F757400 
 4169              	.LASF109:
 4170 0075 715F746F 		.ascii	"q_top\000"
 4170      7000
 4171              	.LASF15:
 4172 007b 6C6F6E67 		.ascii	"long long unsigned int\000"
 4172      206C6F6E 
 4172      6720756E 
 4172      7369676E 
 4172      65642069 
 4173              	.LASF91:
 4174 0092 63685F74 		.ascii	"ch_threadsize\000"
 4174      68726561 
 4174      6473697A 
 4174      6500
 4175              	.LASF81:
 4176 00a0 65786974 		.ascii	"exitcode\000"
 4176      636F6465 
 4176      00
 4177              	.LASF34:
 4178 00a9 705F7072 		.ascii	"p_prio\000"
 4178      696F00
 4179              	.LASF98:
 4180 00b0 63665F6F 		.ascii	"cf_off_state\000"
 4180      66665F73 
ARM GAS  /tmp/ccFNTtWO.s 			page 75


 4180      74617465 
 4180      00
 4181              	.LASF106:
 4182 00bd 715F7761 		.ascii	"q_waiting\000"
 4182      6974696E 
 4182      6700
 4183              	.LASF1:
 4184 00c7 6C6F6E67 		.ascii	"long long int\000"
 4184      206C6F6E 
 4184      6720696E 
 4184      7400
 4185              	.LASF3:
 4186 00d5 7369676E 		.ascii	"signed char\000"
 4186      65642063 
 4186      68617200 
 4187              	.LASF97:
 4188 00e1 63665F6F 		.ascii	"cf_off_stklimit\000"
 4188      66665F73 
 4188      746B6C69 
 4188      6D697400 
 4189              	.LASF99:
 4190 00f1 63665F6F 		.ascii	"cf_off_flags\000"
 4190      66665F66 
 4190      6C616773 
 4190      00
 4191              	.LASF50:
 4192 00fe 705F6D70 		.ascii	"p_mpool\000"
 4192      6F6F6C00 
 4193              	.LASF21:
 4194 0106 626F6F6C 		.ascii	"bool_t\000"
 4194      5F7400
 4195              	.LASF77:
 4196 010d 6D5F7175 		.ascii	"m_queue\000"
 4196      65756500 
 4197              	.LASF26:
 4198 0115 74736C69 		.ascii	"tslices_t\000"
 4198      6365735F 
 4198      7400
 4199              	.LASF138:
 4200 011f 71776169 		.ascii	"qwait\000"
 4200      7400
 4201              	.LASF123:
 4202 0125 63684F51 		.ascii	"chOQInit\000"
 4202      496E6974 
 4202      00
 4203              	.LASF11:
 4204 012e 6C6F6E67 		.ascii	"long int\000"
 4204      20696E74 
 4204      00
 4205              	.LASF24:
 4206 0137 74737461 		.ascii	"tstate_t\000"
 4206      74655F74 
 4206      00
 4207              	.LASF120:
 4208 0140 63684F51 		.ascii	"chOQGetI\000"
 4208      47657449 
 4208      00
ARM GAS  /tmp/ccFNTtWO.s 			page 76


 4209              	.LASF108:
 4210 0149 715F6275 		.ascii	"q_buffer\000"
 4210      66666572 
 4210      00
 4211              	.LASF17:
 4212 0152 75696E74 		.ascii	"uint16_t\000"
 4212      31365F74 
 4212      00
 4213              	.LASF103:
 4214 015b 63686465 		.ascii	"chdebug_t\000"
 4214      6275675F 
 4214      7400
 4215              	.LASF36:
 4216 0165 705F6E65 		.ascii	"p_newer\000"
 4216      77657200 
 4217              	.LASF117:
 4218 016d 5F69646C 		.ascii	"_idle_thread_wa\000"
 4218      655F7468 
 4218      72656164 
 4218      5F776100 
 4219              	.LASF12:
 4220 017d 5F5F7569 		.ascii	"__uint32_t\000"
 4220      6E743332 
 4220      5F7400
 4221              	.LASF53:
 4222 0188 72656761 		.ascii	"regarm_t\000"
 4222      726D5F74 
 4222      00
 4223              	.LASF61:
 4224 0191 76745F70 		.ascii	"vt_prev\000"
 4224      72657600 
 4225              	.LASF126:
 4226 0199 6C696E6B 		.ascii	"link\000"
 4226      00
 4227              	.LASF129:
 4228 019e 63684951 		.ascii	"chIQPutI\000"
 4228      50757449 
 4228      00
 4229              	.LASF0:
 4230 01a7 756E7369 		.ascii	"unsigned int\000"
 4230      676E6564 
 4230      20696E74 
 4230      00
 4231              	.LASF60:
 4232 01b4 76745F6E 		.ascii	"vt_next\000"
 4232      65787400 
 4233              	.LASF130:
 4234 01bc 63684951 		.ascii	"chIQResetI\000"
 4234      52657365 
 4234      744900
 4235              	.LASF13:
 4236 01c7 6C6F6E67 		.ascii	"long unsigned int\000"
 4236      20756E73 
 4236      69676E65 
 4236      6420696E 
 4236      7400
 4237              	.LASF104:
ARM GAS  /tmp/ccFNTtWO.s 			page 77


 4238 01d9 63685F64 		.ascii	"ch_debug\000"
 4238      65627567 
 4238      00
 4239              	.LASF58:
 4240 01e2 76746675 		.ascii	"vtfunc_t\000"
 4240      6E635F74 
 4240      00
 4241              	.LASF85:
 4242 01eb 63685F69 		.ascii	"ch_identifier\000"
 4242      64656E74 
 4242      69666965 
 4242      7200
 4243              	.LASF56:
 4244 01f9 636F6E74 		.ascii	"context\000"
 4244      65787400 
 4245              	.LASF124:
 4246 0201 73697A65 		.ascii	"size\000"
 4246      00
 4247              	.LASF9:
 4248 0206 73686F72 		.ascii	"short unsigned int\000"
 4248      7420756E 
 4248      7369676E 
 4248      65642069 
 4248      6E7400
 4249              	.LASF28:
 4250 0219 6D73675F 		.ascii	"msg_t\000"
 4250      7400
 4251              	.LASF70:
 4252 021f 725F6E65 		.ascii	"r_newer\000"
 4252      77657200 
 4253              	.LASF140:
 4254 0227 71756575 		.ascii	"queue_insert\000"
 4254      655F696E 
 4254      73657274 
 4254      00
 4255              	.LASF23:
 4256 0234 746D6F64 		.ascii	"tmode_t\000"
 4256      655F7400 
 4257              	.LASF52:
 4258 023c 54687265 		.ascii	"ThreadsList\000"
 4258      6164734C 
 4258      69737400 
 4259              	.LASF29:
 4260 0248 6576656E 		.ascii	"eventmask_t\000"
 4260      746D6173 
 4260      6B5F7400 
 4261              	.LASF115:
 4262 0254 496E7075 		.ascii	"InputQueue\000"
 4262      74517565 
 4262      756500
 4263              	.LASF76:
 4264 025f 4D757465 		.ascii	"Mutex\000"
 4264      7800
 4265              	.LASF105:
 4266 0265 47656E65 		.ascii	"GenericQueue\000"
 4266      72696351 
 4266      75657565 
ARM GAS  /tmp/ccFNTtWO.s 			page 78


 4266      00
 4267              	.LASF54:
 4268 0272 73746B61 		.ascii	"stkalign_t\000"
 4268      6C69676E 
 4268      5F7400
 4269              	.LASF119:
 4270 027d 63684F51 		.ascii	"chOQWriteTimeout\000"
 4270      57726974 
 4270      6554696D 
 4270      656F7574 
 4270      00
 4271              	.LASF86:
 4272 028e 63685F7A 		.ascii	"ch_zero\000"
 4272      65726F00 
 4273              	.LASF100:
 4274 0296 63665F6F 		.ascii	"cf_off_refs\000"
 4274      66665F72 
 4274      65667300 
 4275              	.LASF62:
 4276 02a2 76745F74 		.ascii	"vt_time\000"
 4276      696D6500 
 4277              	.LASF135:
 4278 02aa 474E5520 		.ascii	"GNU C11 6.3.1 20170620 -mcpu=cortex-m3 -mno-thumb-i"
 4278      43313120 
 4278      362E332E 
 4278      31203230 
 4278      31373036 
 4279 02dd 6E746572 		.ascii	"nterwork -mthumb -ggdb -O2 -fomit-frame-pointer -ff"
 4279      776F726B 
 4279      202D6D74 
 4279      68756D62 
 4279      202D6767 
 4280 0310 756E6374 		.ascii	"unction-sections -fdata-sections -fno-common\000"
 4280      696F6E2D 
 4280      73656374 
 4280      696F6E73 
 4280      202D6664 
 4281              	.LASF57:
 4282 033d 73697A65 		.ascii	"sizetype\000"
 4282      74797065 
 4282      00
 4283              	.LASF107:
 4284 0346 715F636F 		.ascii	"q_counter\000"
 4284      756E7465 
 4284      7200
 4285              	.LASF2:
 4286 0350 6C6F6E67 		.ascii	"long double\000"
 4286      20646F75 
 4286      626C6500 
 4287              	.LASF90:
 4288 035c 63685F74 		.ascii	"ch_timesize\000"
 4288      696D6573 
 4288      697A6500 
 4289              	.LASF96:
 4290 0368 63665F6F 		.ascii	"cf_off_name\000"
 4290      66665F6E 
 4290      616D6500 
ARM GAS  /tmp/ccFNTtWO.s 			page 79


 4291              	.LASF37:
 4292 0374 705F6F6C 		.ascii	"p_older\000"
 4292      64657200 
 4293              	.LASF110:
 4294 037c 715F7772 		.ascii	"q_wrptr\000"
 4294      70747200 
 4295              	.LASF69:
 4296 0384 725F6374 		.ascii	"r_ctx\000"
 4296      7800
 4297              	.LASF51:
 4298 038a 54687265 		.ascii	"ThreadsQueue\000"
 4298      61647351 
 4298      75657565 
 4298      00
 4299              	.LASF87:
 4300 0397 63685F73 		.ascii	"ch_size\000"
 4300      697A6500 
 4301              	.LASF118:
 4302 039f 74696D65 		.ascii	"time\000"
 4302      00
 4303              	.LASF72:
 4304 03a4 725F6375 		.ascii	"r_current\000"
 4304      7272656E 
 4304      7400
 4305              	.LASF71:
 4306 03ae 725F6F6C 		.ascii	"r_older\000"
 4306      64657200 
 4307              	.LASF14:
 4308 03b6 5F5F7569 		.ascii	"__uint64_t\000"
 4308      6E743634 
 4308      5F7400
 4309              	.LASF25:
 4310 03c1 74726566 		.ascii	"trefs_t\000"
 4310      735F7400 
 4311              	.LASF89:
 4312 03c9 63685F70 		.ascii	"ch_ptrsize\000"
 4312      74727369 
 4312      7A6500
 4313              	.LASF114:
 4314 03d4 716E6F74 		.ascii	"qnotify_t\000"
 4314      6966795F 
 4314      7400
 4315              	.LASF33:
 4316 03de 705F7072 		.ascii	"p_prev\000"
 4316      657600
 4317              	.LASF27:
 4318 03e5 74707269 		.ascii	"tprio_t\000"
 4318      6F5F7400 
 4319              	.LASF111:
 4320 03ed 715F7264 		.ascii	"q_rdptr\000"
 4320      70747200 
 4321              	.LASF22:
 4322 03f5 5F426F6F 		.ascii	"_Bool\000"
 4322      6C00
 4323              	.LASF18:
 4324 03fb 696E7433 		.ascii	"int32_t\000"
 4324      325F7400 
ARM GAS  /tmp/ccFNTtWO.s 			page 80


 4325              	.LASF6:
 4326 0403 756E7369 		.ascii	"unsigned char\000"
 4326      676E6564 
 4326      20636861 
 4326      7200
 4327              	.LASF48:
 4328 0411 705F6D74 		.ascii	"p_mtxlist\000"
 4328      786C6973 
 4328      7400
 4329              	.LASF7:
 4330 041b 73686F72 		.ascii	"short int\000"
 4330      7420696E 
 4330      7400
 4331              	.LASF39:
 4332 0425 705F7374 		.ascii	"p_state\000"
 4332      61746500 
 4333              	.LASF42:
 4334 042d 705F7072 		.ascii	"p_preempt\000"
 4334      65656D70 
 4334      7400
 4335              	.LASF102:
 4336 0437 63665F6F 		.ascii	"cf_off_time\000"
 4336      66665F74 
 4336      696D6500 
 4337              	.LASF68:
 4338 0443 725F7072 		.ascii	"r_prio\000"
 4338      696F00
 4339              	.LASF83:
 4340 044a 65776D61 		.ascii	"ewmask\000"
 4340      736B00
 4341              	.LASF32:
 4342 0451 705F6E65 		.ascii	"p_next\000"
 4342      787400
 4343              	.LASF132:
 4344 0458 696E6679 		.ascii	"infy\000"
 4344      00
 4345              	.LASF101:
 4346 045d 63665F6F 		.ascii	"cf_off_preempt\000"
 4346      66665F70 
 4346      7265656D 
 4346      707400
 4347              	.LASF40:
 4348 046c 705F666C 		.ascii	"p_flags\000"
 4348      61677300 
 4349              	.LASF31:
 4350 0474 54687265 		.ascii	"Thread\000"
 4350      616400
 4351              	.LASF94:
 4352 047b 63665F6F 		.ascii	"cf_off_newer\000"
 4352      66665F6E 
 4352      65776572 
 4352      00
 4353              	.LASF47:
 4354 0488 705F6570 		.ascii	"p_epending\000"
 4354      656E6469 
 4354      6E6700
 4355              	.LASF19:
ARM GAS  /tmp/ccFNTtWO.s 			page 81


 4356 0493 75696E74 		.ascii	"uint32_t\000"
 4356      33325F74 
 4356      00
 4357              	.LASF92:
 4358 049c 63665F6F 		.ascii	"cf_off_prio\000"
 4358      66665F70 
 4358      72696F00 
 4359              	.LASF67:
 4360 04a8 725F7175 		.ascii	"r_queue\000"
 4360      65756500 
 4361              	.LASF59:
 4362 04b0 56697274 		.ascii	"VirtualTimer\000"
 4362      75616C54 
 4362      696D6572 
 4362      00
 4363              	.LASF84:
 4364 04bd 63686172 		.ascii	"char\000"
 4364      00
 4365              	.LASF139:
 4366 04c2 6669666F 		.ascii	"fifo_remove\000"
 4366      5F72656D 
 4366      6F766500 
 4367              	.LASF8:
 4368 04ce 5F5F7569 		.ascii	"__uint16_t\000"
 4368      6E743136 
 4368      5F7400
 4369              	.LASF133:
 4370 04d9 63685363 		.ascii	"chSchReadyI\000"
 4370      68526561 
 4370      64794900 
 4371              	.LASF79:
 4372 04e5 6D5F6E65 		.ascii	"m_next\000"
 4372      787400
 4373              	.LASF30:
 4374 04ec 73797374 		.ascii	"systime_t\000"
 4374      696D655F 
 4374      7400
 4375              	.LASF49:
 4376 04f6 705F7265 		.ascii	"p_realprio\000"
 4376      616C7072 
 4376      696F00
 4377              	.LASF10:
 4378 0501 5F5F696E 		.ascii	"__int32_t\000"
 4378      7433325F 
 4378      7400
 4379              	.LASF122:
 4380 050b 63684F51 		.ascii	"chOQResetI\000"
 4380      52657365 
 4380      744900
 4381              	.LASF43:
 4382 0516 705F7469 		.ascii	"p_time\000"
 4382      6D6500
 4383              	.LASF55:
 4384 051d 696E7463 		.ascii	"intctx\000"
 4384      747800
 4385              	.LASF45:
 4386 0524 705F6D73 		.ascii	"p_msgqueue\000"
ARM GAS  /tmp/ccFNTtWO.s 			page 82


 4386      67717565 
 4386      756500
 4387              	.LASF64:
 4388 052f 76745F70 		.ascii	"vt_par\000"
 4388      617200
 4389              	.LASF93:
 4390 0536 63665F6F 		.ascii	"cf_off_ctx\000"
 4390      66665F63 
 4390      747800
 4391              	.LASF80:
 4392 0541 7264796D 		.ascii	"rdymsg\000"
 4392      736700
 4393              	.LASF41:
 4394 0548 705F7265 		.ascii	"p_refs\000"
 4394      667300
 4395              	.LASF73:
 4396 054f 52656164 		.ascii	"ReadyList\000"
 4396      794C6973 
 4396      7400
 4397              	.LASF136:
 4398 0559 2E2E2F6F 		.ascii	"../os/kernel/src/chqueues.c\000"
 4398      732F6B65 
 4398      726E656C 
 4398      2F737263 
 4398      2F636871 
 4399              	.LASF112:
 4400 0575 715F6E6F 		.ascii	"q_notify\000"
 4400      74696679 
 4400      00
 4401              	.LASF75:
 4402 057e 726C6973 		.ascii	"rlist\000"
 4402      7400
 4403              	.LASF16:
 4404 0584 75696E74 		.ascii	"uint8_t\000"
 4404      385F7400 
 4405              	.LASF82:
 4406 058c 77746F62 		.ascii	"wtobjp\000"
 4406      6A7000
 4407              	.LASF38:
 4408 0593 705F6E61 		.ascii	"p_name\000"
 4408      6D6500
 4409              	.LASF65:
 4410 059a 76745F73 		.ascii	"vt_systime\000"
 4410      79737469 
 4410      6D6500
 4411              	.LASF134:
 4412 05a5 63685363 		.ascii	"chSchGoSleepTimeoutS\000"
 4412      68476F53 
 4412      6C656570 
 4412      54696D65 
 4412      6F757453 
 4413              	.LASF88:
 4414 05ba 63685F76 		.ascii	"ch_version\000"
 4414      65727369 
 4414      6F6E00
 4415              	.LASF137:
 4416 05c5 2F686F6D 		.ascii	"/home/ekobayu/Arok-Gandring-Lokajaya/LPC/ChibiOS-RT"
ARM GAS  /tmp/ccFNTtWO.s 			page 83


 4416      652F656B 
 4416      6F626179 
 4416      752F4172 
 4416      6F6B2D47 
 4417 05f8 2D4C5043 		.ascii	"-LPC/Chibi_LPC1766\000"
 4417      2F436869 
 4417      62695F4C 
 4417      50433137 
 4417      363600
 4418              	.LASF66:
 4419 060b 56544C69 		.ascii	"VTList\000"
 4419      737400
 4420              	.LASF113:
 4421 0612 715F6C69 		.ascii	"q_link\000"
 4421      6E6B00
 4422              	.LASF78:
 4423 0619 6D5F6F77 		.ascii	"m_owner\000"
 4423      6E657200 
 4424              	.LASF35:
 4425 0621 705F6374 		.ascii	"p_ctx\000"
 4425      7800
 4426              	.LASF44:
 4427 0627 705F7761 		.ascii	"p_waiting\000"
 4427      6974696E 
 4427      6700
 4428              	.LASF128:
 4429 0631 63684951 		.ascii	"chIQGetTimeout\000"
 4429      47657454 
 4429      696D656F 
 4429      757400
 4430              		.ident	"GCC: (15:6.3.1+svn253039-1build1) 6.3.1 20170620"
ARM GAS  /tmp/ccFNTtWO.s 			page 84


DEFINED SYMBOLS
                            *ABS*:0000000000000000 chqueues.c
     /tmp/ccFNTtWO.s:16     .text.qwait:0000000000000000 $t
     /tmp/ccFNTtWO.s:23     .text.qwait:0000000000000000 qwait
     /tmp/ccFNTtWO.s:76     .text.qwait:0000000000000024 $d
     /tmp/ccFNTtWO.s:81     .text.chIQInit:0000000000000000 $t
     /tmp/ccFNTtWO.s:89     .text.chIQInit:0000000000000000 chIQInit
     /tmp/ccFNTtWO.s:134    .text.chIQResetI:0000000000000000 $t
     /tmp/ccFNTtWO.s:142    .text.chIQResetI:0000000000000000 chIQResetI
     /tmp/ccFNTtWO.s:200    .text.chIQPutI:0000000000000000 $t
     /tmp/ccFNTtWO.s:208    .text.chIQPutI:0000000000000000 chIQPutI
     /tmp/ccFNTtWO.s:307    .text.chIQGetTimeout:0000000000000000 $t
     /tmp/ccFNTtWO.s:315    .text.chIQGetTimeout:0000000000000000 chIQGetTimeout
     /tmp/ccFNTtWO.s:408    .text.chIQReadTimeout:0000000000000000 $t
     /tmp/ccFNTtWO.s:416    .text.chIQReadTimeout:0000000000000000 chIQReadTimeout
     /tmp/ccFNTtWO.s:546    .text.chOQInit:0000000000000000 $t
     /tmp/ccFNTtWO.s:554    .text.chOQInit:0000000000000000 chOQInit
     /tmp/ccFNTtWO.s:595    .text.chOQResetI:0000000000000000 $t
     /tmp/ccFNTtWO.s:603    .text.chOQResetI:0000000000000000 chOQResetI
     /tmp/ccFNTtWO.s:663    .text.chOQPutTimeout:0000000000000000 $t
     /tmp/ccFNTtWO.s:671    .text.chOQPutTimeout:0000000000000000 chOQPutTimeout
     /tmp/ccFNTtWO.s:780    .text.chOQGetI:0000000000000000 $t
     /tmp/ccFNTtWO.s:788    .text.chOQGetI:0000000000000000 chOQGetI
     /tmp/ccFNTtWO.s:876    .text.chOQWriteTimeout:0000000000000000 $t
     /tmp/ccFNTtWO.s:884    .text.chOQWriteTimeout:0000000000000000 chOQWriteTimeout
                     .debug_frame:0000000000000010 $d

UNDEFINED SYMBOLS
chSchGoSleepTimeoutS
rlist
chSchReadyI
