ARM GAS  /tmp/ccFNTtWO.s 			page 1


   1              		.cpu cortex-m3
   2              		.eabi_attribute 20, 1
   3              		.eabi_attribute 21, 1
   4              		.eabi_attribute 23, 3
   5              		.eabi_attribute 24, 1
   6              		.eabi_attribute 25, 1
   7              		.eabi_attribute 26, 1
   8              		.eabi_attribute 30, 2
   9              		.eabi_attribute 34, 1
  10              		.eabi_attribute 18, 4
  11              		.file	"chqueues.c"
  12              		.text
  13              	.Ltext0:
  14              		.cfi_sections	.debug_frame
  15              		.section	.text.qwait,"ax",%progbits
  16              		.align	1
  17              		.p2align 2,,3
  18              		.syntax unified
  19              		.thumb
  20              		.thumb_func
  21              		.fpu softvfp
  22              		.type	qwait, %function
  23              	qwait:
  24              	.LFB7:
  25              		.file 1 "../os/kernel/src/chqueues.c"
  26              		.loc 1 63 0
  27              		.cfi_startproc
  28              		@ args = 0, pretend = 0, frame = 0
  29              		@ frame_needed = 0, uses_anonymous_args = 0
  30              		@ link register save eliminated.
  31              	.LVL0:
  32              		.loc 1 65 0
  33 0000 69B1     		cbz	r1, .L2
  34 0002 0246     		mov	r2, r0
  35              		.loc 1 67 0
  36 0004 074B     		ldr	r3, .L7
  37              		.loc 1 63 0
  38 0006 10B4     		push	{r4}
  39              		.cfi_def_cfa_offset 4
  40              		.cfi_offset 4, -4
  41              		.loc 1 67 0
  42 0008 9B69     		ldr	r3, [r3, #24]
  43              		.loc 1 69 0
  44 000a 0D20     		movs	r0, #13
  45              	.LVL1:
  46              		.loc 1 67 0
  47 000c 5A62     		str	r2, [r3, #36]
  48              	.LVL2:
  49              	.LBB12:
  50              	.LBB13:
  51              		.file 2 "../os/kernel/include/chinline.h"
  52              		.loc 2 48 0
  53 000e 5468     		ldr	r4, [r2, #4]
  54 0010 83E81400 		stm	r3, {r2, r4}
  55              		.loc 2 49 0
  56 0014 5360     		str	r3, [r2, #4]
  57 0016 2360     		str	r3, [r4]
ARM GAS  /tmp/ccFNTtWO.s 			page 2


  58              	.LVL3:
  59              	.LBE13:
  60              	.LBE12:
  61              		.loc 1 70 0
  62 0018 10BC     		pop	{r4}
  63              		.cfi_restore 4
  64              		.cfi_def_cfa_offset 0
  65              		.loc 1 69 0
  66 001a FFF7FEBF 		b	chSchGoSleepTimeoutS
  67              	.LVL4:
  68              	.L2:
  69              		.loc 1 70 0
  70 001e 4FF0FF30 		mov	r0, #-1
  71              	.LVL5:
  72 0022 7047     		bx	lr
  73              	.L8:
  74              		.align	2
  75              	.L7:
  76 0024 00000000 		.word	rlist
  77              		.cfi_endproc
  78              	.LFE7:
  79              		.size	qwait, .-qwait
  80              		.section	.text.chIQInit,"ax",%progbits
  81              		.align	1
  82              		.p2align 2,,3
  83              		.global	chIQInit
  84              		.syntax unified
  85              		.thumb
  86              		.thumb_func
  87              		.fpu softvfp
  88              		.type	chIQInit, %function
  89              	chIQInit:
  90              	.LFB8:
  91              		.loc 1 89 0
  92              		.cfi_startproc
  93              		@ args = 4, pretend = 0, frame = 0
  94              		@ frame_needed = 0, uses_anonymous_args = 0
  95              		@ link register save eliminated.
  96              	.LVL6:
  97 0000 30B4     		push	{r4, r5}
  98              		.cfi_def_cfa_offset 8
  99              		.cfi_offset 4, -8
 100              		.cfi_offset 5, -4
 101              		.loc 1 92 0
 102 0002 0025     		movs	r5, #0
 103              		.loc 1 89 0
 104 0004 029C     		ldr	r4, [sp, #8]
 105              		.loc 1 94 0
 106 0006 0A44     		add	r2, r2, r1
 107              	.LVL7:
 108              		.loc 1 92 0
 109 0008 8560     		str	r5, [r0, #8]
 110              		.loc 1 96 0
 111 000a 0462     		str	r4, [r0, #32]
 112              		.loc 1 94 0
 113 000c 0261     		str	r2, [r0, #16]
 114              		.loc 1 91 0
ARM GAS  /tmp/ccFNTtWO.s 			page 3


 115 000e 4060     		str	r0, [r0, #4]
 116 0010 0060     		str	r0, [r0]
 117              		.loc 1 93 0
 118 0012 4161     		str	r1, [r0, #20]
 119 0014 8161     		str	r1, [r0, #24]
 120 0016 C160     		str	r1, [r0, #12]
 121              		.loc 1 95 0
 122 0018 C361     		str	r3, [r0, #28]
 123              		.loc 1 97 0
 124 001a 30BC     		pop	{r4, r5}
 125              		.cfi_restore 5
 126              		.cfi_restore 4
 127              		.cfi_def_cfa_offset 0
 128              	.LVL8:
 129 001c 7047     		bx	lr
 130              		.cfi_endproc
 131              	.LFE8:
 132              		.size	chIQInit, .-chIQInit
 133 001e 00BF     		.section	.text.chIQResetI,"ax",%progbits
 134              		.align	1
 135              		.p2align 2,,3
 136              		.global	chIQResetI
 137              		.syntax unified
 138              		.thumb
 139              		.thumb_func
 140              		.fpu softvfp
 141              		.type	chIQResetI, %function
 142              	chIQResetI:
 143              	.LFB9:
 144              		.loc 1 110 0
 145              		.cfi_startproc
 146              		@ args = 0, pretend = 0, frame = 0
 147              		@ frame_needed = 0, uses_anonymous_args = 0
 148              	.LVL9:
 149 0000 38B5     		push	{r3, r4, r5, lr}
 150              		.cfi_def_cfa_offset 16
 151              		.cfi_offset 3, -16
 152              		.cfi_offset 4, -12
 153              		.cfi_offset 5, -8
 154              		.cfi_offset 14, -4
 155              		.loc 1 110 0
 156 0002 0446     		mov	r4, r0
 157              		.loc 1 115 0
 158 0004 0022     		movs	r2, #0
 159              		.loc 1 114 0
 160 0006 C368     		ldr	r3, [r0, #12]
 161              		.loc 1 116 0
 162 0008 0068     		ldr	r0, [r0]
 163              	.LVL10:
 164              		.loc 1 115 0
 165 000a A260     		str	r2, [r4, #8]
 166              		.loc 1 116 0
 167 000c 8442     		cmp	r4, r0
 168              		.loc 1 114 0
 169 000e 6361     		str	r3, [r4, #20]
 170 0010 A361     		str	r3, [r4, #24]
 171              		.loc 1 116 0
ARM GAS  /tmp/ccFNTtWO.s 			page 4


 172 0012 0AD0     		beq	.L11
 173              		.loc 1 117 0
 174 0014 6FF00105 		mvn	r5, #1
 175              	.L13:
 176              	.LVL11:
 177              	.LBB14:
 178              	.LBB15:
 179              		.loc 2 55 0
 180 0018 0368     		ldr	r3, [r0]
 181 001a 2360     		str	r3, [r4]
 182 001c 5C60     		str	r4, [r3, #4]
 183              	.LVL12:
 184              	.LBE15:
 185              	.LBE14:
 186              		.loc 1 117 0
 187 001e FFF7FEFF 		bl	chSchReadyI
 188              	.LVL13:
 189 0022 4562     		str	r5, [r0, #36]
 190              		.loc 1 116 0
 191 0024 2068     		ldr	r0, [r4]
 192 0026 A042     		cmp	r0, r4
 193 0028 F6D1     		bne	.L13
 194              	.L11:
 195 002a 38BD     		pop	{r3, r4, r5, pc}
 196              		.cfi_endproc
 197              	.LFE9:
 198              		.size	chIQResetI, .-chIQResetI
 199              		.section	.text.chIQPutI,"ax",%progbits
 200              		.align	1
 201              		.p2align 2,,3
 202              		.global	chIQPutI
 203              		.syntax unified
 204              		.thumb
 205              		.thumb_func
 206              		.fpu softvfp
 207              		.type	chIQPutI, %function
 208              	chIQPutI:
 209              	.LFB10:
 210              		.loc 1 133 0
 211              		.cfi_startproc
 212              		@ args = 0, pretend = 0, frame = 0
 213              		@ frame_needed = 0, uses_anonymous_args = 0
 214              	.LVL14:
 215              		.loc 1 137 0
 216 0000 8369     		ldr	r3, [r0, #24]
 217 0002 4269     		ldr	r2, [r0, #20]
 218 0004 9A42     		cmp	r2, r3
 219 0006 8368     		ldr	r3, [r0, #8]
 220 0008 1ED0     		beq	.L28
 221              	.L20:
 222              		.loc 1 133 0
 223 000a 10B5     		push	{r4, lr}
 224              		.cfi_def_cfa_offset 8
 225              		.cfi_offset 4, -8
 226              		.cfi_offset 14, -4
 227              		.loc 1 140 0
 228 000c 0133     		adds	r3, r3, #1
ARM GAS  /tmp/ccFNTtWO.s 			page 5


 229              		.loc 1 141 0
 230 000e 541C     		adds	r4, r2, #1
 231              		.loc 1 140 0
 232 0010 8360     		str	r3, [r0, #8]
 233              		.loc 1 141 0
 234 0012 4461     		str	r4, [r0, #20]
 235 0014 1170     		strb	r1, [r2]
 236              		.loc 1 142 0
 237 0016 4269     		ldr	r2, [r0, #20]
 238 0018 0369     		ldr	r3, [r0, #16]
 239 001a 9A42     		cmp	r2, r3
 240 001c 0DD2     		bcs	.L21
 241              		.loc 1 145 0
 242 001e 0268     		ldr	r2, [r0]
 243 0020 8242     		cmp	r2, r0
 244 0022 0FD0     		beq	.L24
 245              	.L29:
 246 0024 0346     		mov	r3, r0
 247              	.LVL15:
 248              	.LBB16:
 249              	.LBB17:
 250              		.loc 2 55 0
 251 0026 1168     		ldr	r1, [r2]
 252              	.LVL16:
 253              	.LBE17:
 254              	.LBE16:
 255              		.loc 1 146 0
 256 0028 1046     		mov	r0, r2
 257              	.LVL17:
 258              	.LBB19:
 259              	.LBB18:
 260              		.loc 2 55 0
 261 002a 1960     		str	r1, [r3]
 262 002c 4B60     		str	r3, [r1, #4]
 263              	.LVL18:
 264              	.LBE18:
 265              	.LBE19:
 266              		.loc 1 146 0
 267 002e FFF7FEFF 		bl	chSchReadyI
 268              	.LVL19:
 269 0032 0023     		movs	r3, #0
 270 0034 4362     		str	r3, [r0, #36]
 271              		.loc 1 148 0
 272 0036 1846     		mov	r0, r3
 273 0038 10BD     		pop	{r4, pc}
 274              	.LVL20:
 275              	.L21:
 276              		.loc 1 145 0
 277 003a 0268     		ldr	r2, [r0]
 278              		.loc 1 143 0
 279 003c C368     		ldr	r3, [r0, #12]
 280              		.loc 1 145 0
 281 003e 8242     		cmp	r2, r0
 282              		.loc 1 143 0
 283 0040 4361     		str	r3, [r0, #20]
 284              		.loc 1 145 0
 285 0042 EFD1     		bne	.L29
ARM GAS  /tmp/ccFNTtWO.s 			page 6


 286              	.L24:
 287              		.loc 1 148 0
 288 0044 0020     		movs	r0, #0
 289              	.LVL21:
 290 0046 10BD     		pop	{r4, pc}
 291              	.LVL22:
 292              	.L28:
 293              		.cfi_def_cfa_offset 0
 294              		.cfi_restore 4
 295              		.cfi_restore 14
 296              		.loc 1 137 0 discriminator 1
 297 0048 002B     		cmp	r3, #0
 298 004a DED0     		beq	.L20
 299              		.loc 1 138 0
 300 004c 6FF00300 		mvn	r0, #3
 301              	.LVL23:
 302 0050 7047     		bx	lr
 303              		.cfi_endproc
 304              	.LFE10:
 305              		.size	chIQPutI, .-chIQPutI
 306 0052 00BF     		.section	.text.chIQGetTimeout,"ax",%progbits
 307              		.align	1
 308              		.p2align 2,,3
 309              		.global	chIQGetTimeout
 310              		.syntax unified
 311              		.thumb
 312              		.thumb_func
 313              		.fpu softvfp
 314              		.type	chIQGetTimeout, %function
 315              	chIQGetTimeout:
 316              	.LFB11:
 317              		.loc 1 171 0
 318              		.cfi_startproc
 319              		@ args = 0, pretend = 0, frame = 0
 320              		@ frame_needed = 0, uses_anonymous_args = 0
 321              	.LVL24:
 322 0000 70B5     		push	{r4, r5, r6, lr}
 323              		.cfi_def_cfa_offset 16
 324              		.cfi_offset 4, -16
 325              		.cfi_offset 5, -12
 326              		.cfi_offset 6, -8
 327              		.cfi_offset 14, -4
 328              	.LBB20:
 329              		.loc 1 174 0
 330 0002 4023     		movs	r3, #64
 331              	.LBE20:
 332              		.loc 1 171 0
 333 0004 0E46     		mov	r6, r1
 334 0006 0446     		mov	r4, r0
 335              	.LBB21:
 336              		.loc 1 174 0
 337              		.syntax unified
 338              	@ 174 "../os/kernel/src/chqueues.c" 1
 339 0008 83F31188 		msr     BASEPRI, r3
 340              	@ 0 "" 2
 341              		.thumb
 342              		.syntax unified
ARM GAS  /tmp/ccFNTtWO.s 			page 7


 343              	.LBE21:
 344              		.loc 1 175 0
 345 000c C369     		ldr	r3, [r0, #28]
 346 000e 3BB1     		cbz	r3, .L32
 347              		.loc 1 176 0
 348 0010 9847     		blx	r3
 349              	.LVL25:
 350 0012 05E0     		b	.L32
 351              	.L34:
 352              	.LBB22:
 353              		.loc 1 180 0
 354 0014 3146     		mov	r1, r6
 355 0016 2046     		mov	r0, r4
 356 0018 FFF7FEFF 		bl	qwait
 357              	.LVL26:
 358 001c 0028     		cmp	r0, #0
 359 001e 0FDB     		blt	.L35
 360              	.LVL27:
 361              	.L32:
 362              	.LBE22:
 363              		.loc 1 178 0
 364 0020 A568     		ldr	r5, [r4, #8]
 365 0022 002D     		cmp	r5, #0
 366 0024 F6D0     		beq	.L34
 367              		.loc 1 187 0
 368 0026 A269     		ldr	r2, [r4, #24]
 369              		.loc 1 188 0
 370 0028 2169     		ldr	r1, [r4, #16]
 371              		.loc 1 187 0
 372 002a 531C     		adds	r3, r2, #1
 373              		.loc 1 188 0
 374 002c 8B42     		cmp	r3, r1
 375              		.loc 1 187 0
 376 002e A361     		str	r3, [r4, #24]
 377              		.loc 1 186 0
 378 0030 05F1FF35 		add	r5, r5, #-1
 379              		.loc 1 189 0
 380 0034 28BF     		it	cs
 381 0036 E368     		ldrcs	r3, [r4, #12]
 382              		.loc 1 186 0
 383 0038 A560     		str	r5, [r4, #8]
 384              		.loc 1 187 0
 385 003a 1078     		ldrb	r0, [r2]	@ zero_extendqisi2
 386              	.LVL28:
 387              		.loc 1 189 0
 388 003c 28BF     		it	cs
 389 003e A361     		strcs	r3, [r4, #24]
 390              	.LVL29:
 391              	.L35:
 392              	.LBB23:
 393              		.loc 1 191 0
 394 0040 0023     		movs	r3, #0
 395              		.syntax unified
 396              	@ 191 "../os/kernel/src/chqueues.c" 1
 397 0042 83F31188 		msr     BASEPRI, r3
 398              	@ 0 "" 2
 399              		.thumb
ARM GAS  /tmp/ccFNTtWO.s 			page 8


 400              		.syntax unified
 401              	.LBE23:
 402              		.loc 1 193 0
 403 0046 70BD     		pop	{r4, r5, r6, pc}
 404              		.cfi_endproc
 405              	.LFE11:
 406              		.size	chIQGetTimeout, .-chIQGetTimeout
 407              		.section	.text.chIQReadTimeout,"ax",%progbits
 408              		.align	1
 409              		.p2align 2,,3
 410              		.global	chIQReadTimeout
 411              		.syntax unified
 412              		.thumb
 413              		.thumb_func
 414              		.fpu softvfp
 415              		.type	chIQReadTimeout, %function
 416              	chIQReadTimeout:
 417              	.LFB12:
 418              		.loc 1 220 0
 419              		.cfi_startproc
 420              		@ args = 0, pretend = 0, frame = 0
 421              		@ frame_needed = 0, uses_anonymous_args = 0
 422              	.LVL30:
 423 0000 2DE9F047 		push	{r4, r5, r6, r7, r8, r9, r10, lr}
 424              		.cfi_def_cfa_offset 32
 425              		.cfi_offset 4, -32
 426              		.cfi_offset 5, -28
 427              		.cfi_offset 6, -24
 428              		.cfi_offset 7, -20
 429              		.cfi_offset 8, -16
 430              		.cfi_offset 9, -12
 431              		.cfi_offset 10, -8
 432              		.cfi_offset 14, -4
 433              		.loc 1 220 0
 434 0004 1E46     		mov	r6, r3
 435 0006 0446     		mov	r4, r0
 436 0008 8946     		mov	r9, r1
 437 000a 9246     		mov	r10, r2
 438              		.loc 1 221 0
 439 000c D0F81C80 		ldr	r8, [r0, #28]
 440              	.LVL31:
 441              	.LBB24:
 442              		.loc 1 226 0
 443 0010 4023     		movs	r3, #64
 444              	.LVL32:
 445              		.syntax unified
 446              	@ 226 "../os/kernel/src/chqueues.c" 1
 447 0012 83F31188 		msr     BASEPRI, r3
 448              	@ 0 "" 2
 449              		.thumb
 450              		.syntax unified
 451              	.LBE24:
 452              		.loc 1 222 0
 453 0016 0027     		movs	r7, #0
 454              	.LVL33:
 455              	.L47:
 456              		.loc 1 228 0
ARM GAS  /tmp/ccFNTtWO.s 			page 9


 457 0018 B8F1000F 		cmp	r8, #0
 458 001c 07D0     		beq	.L43
 459              		.loc 1 229 0
 460 001e 2046     		mov	r0, r4
 461 0020 C047     		blx	r8
 462              	.LVL34:
 463 0022 04E0     		b	.L43
 464              	.L45:
 465              		.loc 1 232 0
 466 0024 3146     		mov	r1, r6
 467 0026 2046     		mov	r0, r4
 468 0028 FFF7FEFF 		bl	qwait
 469              	.LVL35:
 470 002c D0B9     		cbnz	r0, .L54
 471              	.L43:
 472              		.loc 1 231 0
 473 002e A568     		ldr	r5, [r4, #8]
 474 0030 002D     		cmp	r5, #0
 475 0032 F7D0     		beq	.L45
 476              		.loc 1 239 0
 477 0034 A369     		ldr	r3, [r4, #24]
 478              		.loc 1 238 0
 479 0036 013D     		subs	r5, r5, #1
 480              		.loc 1 239 0
 481 0038 5A1C     		adds	r2, r3, #1
 482 003a A261     		str	r2, [r4, #24]
 483              		.loc 1 238 0
 484 003c A560     		str	r5, [r4, #8]
 485              		.loc 1 239 0
 486 003e 1B78     		ldrb	r3, [r3]	@ zero_extendqisi2
 487 0040 09F8013B 		strb	r3, [r9], #1
 488              	.LVL36:
 489              		.loc 1 240 0
 490 0044 2369     		ldr	r3, [r4, #16]
 491 0046 A269     		ldr	r2, [r4, #24]
 492 0048 9A42     		cmp	r2, r3
 493              		.loc 1 241 0
 494 004a 24BF     		itt	cs
 495 004c E368     		ldrcs	r3, [r4, #12]
 496 004e A361     		strcs	r3, [r4, #24]
 497              	.LBB25:
 498              		.loc 1 243 0
 499 0050 0023     		movs	r3, #0
 500              		.syntax unified
 501              	@ 243 "../os/kernel/src/chqueues.c" 1
 502 0052 83F31188 		msr     BASEPRI, r3
 503              	@ 0 "" 2
 504              		.thumb
 505              		.syntax unified
 506              	.LBE25:
 507              		.loc 1 244 0
 508 0056 0137     		adds	r7, r7, #1
 509              	.LVL37:
 510              		.loc 1 245 0
 511 0058 BA45     		cmp	r10, r7
 512 005a 06D0     		beq	.L41
 513              	.LBB26:
ARM GAS  /tmp/ccFNTtWO.s 			page 10


 514              		.loc 1 248 0
 515 005c 4023     		movs	r3, #64
 516              		.syntax unified
 517              	@ 248 "../os/kernel/src/chqueues.c" 1
 518 005e 83F31188 		msr     BASEPRI, r3
 519              	@ 0 "" 2
 520              		.thumb
 521              		.syntax unified
 522              	.LBE26:
 523              		.loc 1 228 0
 524 0062 D9E7     		b	.L47
 525              	.LVL38:
 526              	.L54:
 527              	.LBB27:
 528              		.loc 1 233 0
 529 0064 2B46     		mov	r3, r5
 530              		.syntax unified
 531              	@ 233 "../os/kernel/src/chqueues.c" 1
 532 0066 83F31188 		msr     BASEPRI, r3
 533              	@ 0 "" 2
 534              	.LVL39:
 535              		.thumb
 536              		.syntax unified
 537              	.L41:
 538              	.LBE27:
 539              		.loc 1 250 0
 540 006a 3846     		mov	r0, r7
 541 006c BDE8F087 		pop	{r4, r5, r6, r7, r8, r9, r10, pc}
 542              		.cfi_endproc
 543              	.LFE12:
 544              		.size	chIQReadTimeout, .-chIQReadTimeout
 545              		.section	.text.chOQInit,"ax",%progbits
 546              		.align	1
 547              		.p2align 2,,3
 548              		.global	chOQInit
 549              		.syntax unified
 550              		.thumb
 551              		.thumb_func
 552              		.fpu softvfp
 553              		.type	chOQInit, %function
 554              	chOQInit:
 555              	.LFB13:
 556              		.loc 1 269 0
 557              		.cfi_startproc
 558              		@ args = 4, pretend = 0, frame = 0
 559              		@ frame_needed = 0, uses_anonymous_args = 0
 560              		@ link register save eliminated.
 561              	.LVL40:
 562 0000 30B4     		push	{r4, r5}
 563              		.cfi_def_cfa_offset 8
 564              		.cfi_offset 4, -8
 565              		.cfi_offset 5, -4
 566              		.loc 1 269 0
 567 0002 029C     		ldr	r4, [sp, #8]
 568              		.loc 1 274 0
 569 0004 8D18     		adds	r5, r1, r2
 570 0006 0561     		str	r5, [r0, #16]
ARM GAS  /tmp/ccFNTtWO.s 			page 11


 571              		.loc 1 276 0
 572 0008 0462     		str	r4, [r0, #32]
 573              		.loc 1 271 0
 574 000a 4060     		str	r0, [r0, #4]
 575 000c 0060     		str	r0, [r0]
 576              		.loc 1 272 0
 577 000e 8260     		str	r2, [r0, #8]
 578              		.loc 1 273 0
 579 0010 4161     		str	r1, [r0, #20]
 580 0012 8161     		str	r1, [r0, #24]
 581 0014 C160     		str	r1, [r0, #12]
 582              		.loc 1 275 0
 583 0016 C361     		str	r3, [r0, #28]
 584              		.loc 1 277 0
 585 0018 30BC     		pop	{r4, r5}
 586              		.cfi_restore 5
 587              		.cfi_restore 4
 588              		.cfi_def_cfa_offset 0
 589              	.LVL41:
 590 001a 7047     		bx	lr
 591              		.cfi_endproc
 592              	.LFE13:
 593              		.size	chOQInit, .-chOQInit
 594              		.section	.text.chOQResetI,"ax",%progbits
 595              		.align	1
 596              		.p2align 2,,3
 597              		.global	chOQResetI
 598              		.syntax unified
 599              		.thumb
 600              		.thumb_func
 601              		.fpu softvfp
 602              		.type	chOQResetI, %function
 603              	chOQResetI:
 604              	.LFB14:
 605              		.loc 1 290 0
 606              		.cfi_startproc
 607              		@ args = 0, pretend = 0, frame = 0
 608              		@ frame_needed = 0, uses_anonymous_args = 0
 609              	.LVL42:
 610 0000 38B5     		push	{r3, r4, r5, lr}
 611              		.cfi_def_cfa_offset 16
 612              		.cfi_offset 3, -16
 613              		.cfi_offset 4, -12
 614              		.cfi_offset 5, -8
 615              		.cfi_offset 14, -4
 616              		.loc 1 290 0
 617 0002 0446     		mov	r4, r0
 618              		.loc 1 294 0
 619 0004 C268     		ldr	r2, [r0, #12]
 620              		.loc 1 295 0
 621 0006 0369     		ldr	r3, [r0, #16]
 622              		.loc 1 296 0
 623 0008 0068     		ldr	r0, [r0]
 624              	.LVL43:
 625              		.loc 1 295 0
 626 000a 9B1A     		subs	r3, r3, r2
 627              		.loc 1 296 0
ARM GAS  /tmp/ccFNTtWO.s 			page 12


 628 000c 8442     		cmp	r4, r0
 629              		.loc 1 294 0
 630 000e 6261     		str	r2, [r4, #20]
 631 0010 A261     		str	r2, [r4, #24]
 632              		.loc 1 295 0
 633 0012 A360     		str	r3, [r4, #8]
 634              		.loc 1 296 0
 635 0014 0AD0     		beq	.L57
 636              		.loc 1 297 0
 637 0016 6FF00105 		mvn	r5, #1
 638              	.L59:
 639              	.LVL44:
 640              	.LBB28:
 641              	.LBB29:
 642              		.loc 2 55 0
 643 001a 0368     		ldr	r3, [r0]
 644 001c 2360     		str	r3, [r4]
 645 001e 5C60     		str	r4, [r3, #4]
 646              	.LVL45:
 647              	.LBE29:
 648              	.LBE28:
 649              		.loc 1 297 0
 650 0020 FFF7FEFF 		bl	chSchReadyI
 651              	.LVL46:
 652 0024 4562     		str	r5, [r0, #36]
 653              		.loc 1 296 0
 654 0026 2068     		ldr	r0, [r4]
 655 0028 A042     		cmp	r0, r4
 656 002a F6D1     		bne	.L59
 657              	.L57:
 658 002c 38BD     		pop	{r3, r4, r5, pc}
 659              		.cfi_endproc
 660              	.LFE14:
 661              		.size	chOQResetI, .-chOQResetI
 662 002e 00BF     		.section	.text.chOQPutTimeout,"ax",%progbits
 663              		.align	1
 664              		.p2align 2,,3
 665              		.global	chOQPutTimeout
 666              		.syntax unified
 667              		.thumb
 668              		.thumb_func
 669              		.fpu softvfp
 670              		.type	chOQPutTimeout, %function
 671              	chOQPutTimeout:
 672              	.LFB15:
 673              		.loc 1 322 0
 674              		.cfi_startproc
 675              		@ args = 0, pretend = 0, frame = 0
 676              		@ frame_needed = 0, uses_anonymous_args = 0
 677              	.LVL47:
 678 0000 F8B5     		push	{r3, r4, r5, r6, r7, lr}
 679              		.cfi_def_cfa_offset 24
 680              		.cfi_offset 3, -24
 681              		.cfi_offset 4, -20
 682              		.cfi_offset 5, -16
 683              		.cfi_offset 6, -12
 684              		.cfi_offset 7, -8
ARM GAS  /tmp/ccFNTtWO.s 			page 13


 685              		.cfi_offset 14, -4
 686              		.loc 1 322 0
 687 0002 0446     		mov	r4, r0
 688 0004 0F46     		mov	r7, r1
 689 0006 1646     		mov	r6, r2
 690              	.LBB30:
 691              		.loc 1 324 0
 692 0008 4023     		movs	r3, #64
 693              		.syntax unified
 694              	@ 324 "../os/kernel/src/chqueues.c" 1
 695 000a 83F31188 		msr     BASEPRI, r3
 696              	@ 0 "" 2
 697              		.thumb
 698              		.syntax unified
 699              	.LBE30:
 700              		.loc 1 325 0
 701 000e 05E0     		b	.L64
 702              	.LVL48:
 703              	.L66:
 704              	.LBB31:
 705              		.loc 1 328 0
 706 0010 3146     		mov	r1, r6
 707 0012 2046     		mov	r0, r4
 708 0014 FFF7FEFF 		bl	qwait
 709              	.LVL49:
 710 0018 0028     		cmp	r0, #0
 711 001a 17DB     		blt	.L74
 712              	.LVL50:
 713              	.L64:
 714              	.LBE31:
 715              		.loc 1 325 0
 716 001c A568     		ldr	r5, [r4, #8]
 717 001e 002D     		cmp	r5, #0
 718 0020 F6D0     		beq	.L66
 719              		.loc 1 335 0
 720 0022 6369     		ldr	r3, [r4, #20]
 721              		.loc 1 334 0
 722 0024 013D     		subs	r5, r5, #1
 723              		.loc 1 335 0
 724 0026 5A1C     		adds	r2, r3, #1
 725 0028 6261     		str	r2, [r4, #20]
 726              		.loc 1 334 0
 727 002a A560     		str	r5, [r4, #8]
 728              		.loc 1 335 0
 729 002c 1F70     		strb	r7, [r3]
 730              		.loc 1 336 0
 731 002e 2369     		ldr	r3, [r4, #16]
 732 0030 6269     		ldr	r2, [r4, #20]
 733 0032 9A42     		cmp	r2, r3
 734              		.loc 1 337 0
 735 0034 24BF     		itt	cs
 736 0036 E368     		ldrcs	r3, [r4, #12]
 737 0038 6361     		strcs	r3, [r4, #20]
 738              		.loc 1 339 0
 739 003a E369     		ldr	r3, [r4, #28]
 740 003c 0BB1     		cbz	r3, .L68
 741              		.loc 1 340 0
ARM GAS  /tmp/ccFNTtWO.s 			page 14


 742 003e 2046     		mov	r0, r4
 743 0040 9847     		blx	r3
 744              	.LVL51:
 745              	.L68:
 746              	.LBB33:
 747              		.loc 1 342 0
 748 0042 0023     		movs	r3, #0
 749              		.syntax unified
 750              	@ 342 "../os/kernel/src/chqueues.c" 1
 751 0044 83F31188 		msr     BASEPRI, r3
 752              	@ 0 "" 2
 753              		.thumb
 754              		.syntax unified
 755              	.LBE33:
 756              		.loc 1 343 0
 757 0048 1846     		mov	r0, r3
 758              		.loc 1 344 0
 759 004a F8BD     		pop	{r3, r4, r5, r6, r7, pc}
 760              	.LVL52:
 761              	.L74:
 762              	.LBB34:
 763              	.LBB32:
 764              		.loc 1 329 0
 765 004c 2B46     		mov	r3, r5
 766              		.syntax unified
 767              	@ 329 "../os/kernel/src/chqueues.c" 1
 768 004e 83F31188 		msr     BASEPRI, r3
 769              	@ 0 "" 2
 770              		.thumb
 771              		.syntax unified
 772              	.LBE32:
 773              		.loc 1 330 0
 774 0052 F8BD     		pop	{r3, r4, r5, r6, r7, pc}
 775              	.LBE34:
 776              		.cfi_endproc
 777              	.LFE15:
 778              		.size	chOQPutTimeout, .-chOQPutTimeout
 779              		.section	.text.chOQGetI,"ax",%progbits
 780              		.align	1
 781              		.p2align 2,,3
 782              		.global	chOQGetI
 783              		.syntax unified
 784              		.thumb
 785              		.thumb_func
 786              		.fpu softvfp
 787              		.type	chOQGetI, %function
 788              	chOQGetI:
 789              	.LFB16:
 790              		.loc 1 356 0
 791              		.cfi_startproc
 792              		@ args = 0, pretend = 0, frame = 0
 793              		@ frame_needed = 0, uses_anonymous_args = 0
 794              	.LVL53:
 795 0000 38B5     		push	{r3, r4, r5, lr}
 796              		.cfi_def_cfa_offset 16
 797              		.cfi_offset 3, -16
 798              		.cfi_offset 4, -12
ARM GAS  /tmp/ccFNTtWO.s 			page 15


 799              		.cfi_offset 5, -8
 800              		.cfi_offset 14, -4
 801              		.loc 1 361 0
 802 0002 8269     		ldr	r2, [r0, #24]
 803 0004 4369     		ldr	r3, [r0, #20]
 804 0006 9342     		cmp	r3, r2
 805 0008 8368     		ldr	r3, [r0, #8]
 806 000a 18D0     		beq	.L84
 807              	.L78:
 808              		.loc 1 366 0
 809 000c 0569     		ldr	r5, [r0, #16]
 810              		.loc 1 365 0
 811 000e 511C     		adds	r1, r2, #1
 812              		.loc 1 364 0
 813 0010 0133     		adds	r3, r3, #1
 814 0012 8360     		str	r3, [r0, #8]
 815              		.loc 1 365 0
 816 0014 8161     		str	r1, [r0, #24]
 817              		.loc 1 366 0
 818 0016 A942     		cmp	r1, r5
 819              		.loc 1 365 0
 820 0018 1478     		ldrb	r4, [r2]	@ zero_extendqisi2
 821              	.LVL54:
 822              		.loc 1 366 0
 823 001a 0DD2     		bcs	.L80
 824              	.L81:
 825              		.loc 1 369 0
 826 001c 0268     		ldr	r2, [r0]
 827 001e 8242     		cmp	r2, r0
 828 0020 08D0     		beq	.L79
 829 0022 0346     		mov	r3, r0
 830              	.LVL55:
 831              	.LBB35:
 832              	.LBB36:
 833              		.loc 2 55 0
 834 0024 1168     		ldr	r1, [r2]
 835              	.LBE36:
 836              	.LBE35:
 837              		.loc 1 370 0
 838 0026 1046     		mov	r0, r2
 839              	.LVL56:
 840              	.LBB38:
 841              	.LBB37:
 842              		.loc 2 55 0
 843 0028 1960     		str	r1, [r3]
 844 002a 4B60     		str	r3, [r1, #4]
 845              	.LVL57:
 846              	.LBE37:
 847              	.LBE38:
 848              		.loc 1 370 0
 849 002c FFF7FEFF 		bl	chSchReadyI
 850              	.LVL58:
 851 0030 0023     		movs	r3, #0
 852 0032 4362     		str	r3, [r0, #36]
 853              	.L79:
 854              		.loc 1 372 0
 855 0034 2046     		mov	r0, r4
ARM GAS  /tmp/ccFNTtWO.s 			page 16


 856 0036 38BD     		pop	{r3, r4, r5, pc}
 857              	.LVL59:
 858              	.L80:
 859              		.loc 1 367 0
 860 0038 C368     		ldr	r3, [r0, #12]
 861 003a 8361     		str	r3, [r0, #24]
 862 003c EEE7     		b	.L81
 863              	.LVL60:
 864              	.L84:
 865              		.loc 1 361 0 discriminator 1
 866 003e 002B     		cmp	r3, #0
 867 0040 E4D0     		beq	.L78
 868              		.loc 1 362 0
 869 0042 6FF00200 		mvn	r0, #2
 870              	.LVL61:
 871 0046 38BD     		pop	{r3, r4, r5, pc}
 872              		.cfi_endproc
 873              	.LFE16:
 874              		.size	chOQGetI, .-chOQGetI
 875              		.section	.text.chOQWriteTimeout,"ax",%progbits
 876              		.align	1
 877              		.p2align 2,,3
 878              		.global	chOQWriteTimeout
 879              		.syntax unified
 880              		.thumb
 881              		.thumb_func
 882              		.fpu softvfp
 883              		.type	chOQWriteTimeout, %function
 884              	chOQWriteTimeout:
 885              	.LFB17:
 886              		.loc 1 400 0
 887              		.cfi_startproc
 888              		@ args = 0, pretend = 0, frame = 0
 889              		@ frame_needed = 0, uses_anonymous_args = 0
 890              	.LVL62:
 891 0000 2DE9F84F 		push	{r3, r4, r5, r6, r7, r8, r9, r10, fp, lr}
 892              		.cfi_def_cfa_offset 40
 893              		.cfi_offset 3, -40
 894              		.cfi_offset 4, -36
 895              		.cfi_offset 5, -32
 896              		.cfi_offset 6, -28
 897              		.cfi_offset 7, -24
 898              		.cfi_offset 8, -20
 899              		.cfi_offset 9, -16
 900              		.cfi_offset 10, -12
 901              		.cfi_offset 11, -8
 902              		.cfi_offset 14, -4
 903              		.loc 1 400 0
 904 0004 9A46     		mov	r10, r3
 905 0006 0446     		mov	r4, r0
 906 0008 0E46     		mov	r6, r1
 907 000a 1746     		mov	r7, r2
 908              		.loc 1 401 0
 909 000c D0F81C90 		ldr	r9, [r0, #28]
 910              	.LVL63:
 911              	.LBB39:
 912              		.loc 1 406 0
ARM GAS  /tmp/ccFNTtWO.s 			page 17


 913 0010 4023     		movs	r3, #64
 914              	.LVL64:
 915              		.syntax unified
 916              	@ 406 "../os/kernel/src/chqueues.c" 1
 917 0012 83F31188 		msr     BASEPRI, r3
 918              	@ 0 "" 2
 919              		.thumb
 920              		.syntax unified
 921              	.LBE39:
 922              		.loc 1 402 0
 923 0016 4FF00008 		mov	r8, #0
 924              	.LVL65:
 925              	.L86:
 926              		.loc 1 408 0
 927 001a A568     		ldr	r5, [r4, #8]
 928              		.loc 1 415 0
 929 001c 06F1010B 		add	fp, r6, #1
 930              	.LVL66:
 931              		.loc 1 414 0
 932 0020 6A1E     		subs	r2, r5, #1
 933              		.loc 1 408 0
 934 0022 0DB3     		cbz	r5, .L89
 935              	.L102:
 936              		.loc 1 415 0
 937 0024 6369     		ldr	r3, [r4, #20]
 938              		.loc 1 414 0
 939 0026 A260     		str	r2, [r4, #8]
 940              		.loc 1 415 0
 941 0028 5A1C     		adds	r2, r3, #1
 942 002a 6261     		str	r2, [r4, #20]
 943 002c 3278     		ldrb	r2, [r6]	@ zero_extendqisi2
 944 002e 1A70     		strb	r2, [r3]
 945              		.loc 1 416 0
 946 0030 2369     		ldr	r3, [r4, #16]
 947 0032 6269     		ldr	r2, [r4, #20]
 948 0034 9A42     		cmp	r2, r3
 949              		.loc 1 417 0
 950 0036 24BF     		itt	cs
 951 0038 E368     		ldrcs	r3, [r4, #12]
 952 003a 6361     		strcs	r3, [r4, #20]
 953              		.loc 1 419 0
 954 003c B9F1000F 		cmp	r9, #0
 955 0040 01D0     		beq	.L91
 956              		.loc 1 420 0
 957 0042 2046     		mov	r0, r4
 958 0044 C847     		blx	r9
 959              	.LVL67:
 960              	.L91:
 961              	.LBB40:
 962              		.loc 1 422 0
 963 0046 0023     		movs	r3, #0
 964              		.syntax unified
 965              	@ 422 "../os/kernel/src/chqueues.c" 1
 966 0048 83F31188 		msr     BASEPRI, r3
 967              	@ 0 "" 2
 968              		.thumb
 969              		.syntax unified
ARM GAS  /tmp/ccFNTtWO.s 			page 18


 970              	.LBE40:
 971              		.loc 1 424 0
 972 004c 013F     		subs	r7, r7, #1
 973              	.LVL68:
 974              		.loc 1 423 0
 975 004e 08F10108 		add	r8, r8, #1
 976              	.LVL69:
 977              		.loc 1 424 0
 978 0052 12D0     		beq	.L85
 979              	.LBB41:
 980              		.loc 1 426 0
 981 0054 4023     		movs	r3, #64
 982              		.syntax unified
 983              	@ 426 "../os/kernel/src/chqueues.c" 1
 984 0056 83F31188 		msr     BASEPRI, r3
 985              	@ 0 "" 2
 986              		.thumb
 987              		.syntax unified
 988              	.LBE41:
 989              		.loc 1 415 0
 990 005a 5E46     		mov	r6, fp
 991              	.LVL70:
 992              		.loc 1 408 0
 993 005c A568     		ldr	r5, [r4, #8]
 994              		.loc 1 415 0
 995 005e 06F1010B 		add	fp, r6, #1
 996              	.LVL71:
 997              		.loc 1 414 0
 998 0062 6A1E     		subs	r2, r5, #1
 999              		.loc 1 408 0
 1000 0064 002D     		cmp	r5, #0
 1001 0066 DDD1     		bne	.L102
 1002              	.L89:
 1003              		.loc 1 409 0
 1004 0068 5146     		mov	r1, r10
 1005 006a 2046     		mov	r0, r4
 1006 006c FFF7FEFF 		bl	qwait
 1007              	.LVL72:
 1008 0070 0028     		cmp	r0, #0
 1009 0072 D2D0     		beq	.L86
 1010              	.LBB42:
 1011              		.loc 1 410 0
 1012 0074 2B46     		mov	r3, r5
 1013              		.syntax unified
 1014              	@ 410 "../os/kernel/src/chqueues.c" 1
 1015 0076 83F31188 		msr     BASEPRI, r3
 1016              	@ 0 "" 2
 1017              	.LVL73:
 1018              		.thumb
 1019              		.syntax unified
 1020              	.L85:
 1021              	.LBE42:
 1022              		.loc 1 428 0
 1023 007a 4046     		mov	r0, r8
 1024 007c BDE8F88F 		pop	{r3, r4, r5, r6, r7, r8, r9, r10, fp, pc}
 1025              		.cfi_endproc
 1026              	.LFE17:
ARM GAS  /tmp/ccFNTtWO.s 			page 19


 1027              		.size	chOQWriteTimeout, .-chOQWriteTimeout
 1028              		.text
 1029              	.Letext0:
 1030              		.file 3 "/usr/lib/gcc/arm-none-eabi/6.3.1/include/stddef.h"
 1031              		.file 4 "/usr/include/newlib/machine/_default_types.h"
 1032              		.file 5 "/usr/include/newlib/sys/_stdint.h"
 1033              		.file 6 "../os/ports/GCC/ARMCMx/chtypes.h"
 1034              		.file 7 "../os/kernel/include/chlists.h"
 1035              		.file 8 "../os/kernel/include/chthreads.h"
 1036              		.file 9 "../os/ports/GCC/ARMCMx/chcore_v7m.h"
 1037              		.file 10 "../os/kernel/include/chvt.h"
 1038              		.file 11 "../os/kernel/include/chschd.h"
 1039              		.file 12 "../os/kernel/include/chmtx.h"
 1040              		.file 13 "../os/kernel/include/chregistry.h"
 1041              		.file 14 "../os/kernel/include/chqueues.h"
 1042              		.file 15 "../os/kernel/include/ch.h"