ARM GAS  /tmp/cca0HwEs.s 			page 1


   1              		.cpu cortex-m3
   2              		.eabi_attribute 20, 1
   3              		.eabi_attribute 21, 1
   4              		.eabi_attribute 23, 3
   5              		.eabi_attribute 24, 1
   6              		.eabi_attribute 25, 1
   7              		.eabi_attribute 26, 1
   8              		.eabi_attribute 30, 2
   9              		.eabi_attribute 34, 1
  10              		.eabi_attribute 18, 4
  11              		.file	"hal.c"
  12              		.text
  13              	.Ltext0:
  14              		.cfi_sections	.debug_frame
  15              		.section	.text.halInit,"ax",%progbits
  16              		.align	1
  17              		.p2align 2,,3
  18              		.global	halInit
  19              		.syntax unified
  20              		.thumb
  21              		.thumb_func
  22              		.fpu softvfp
  23              		.type	halInit, %function
  24              	halInit:
  25              	.LFB63:
  26              		.file 1 "../os/hal/src/hal.c"
  27              		.loc 1 61 0
  28              		.cfi_startproc
  29              		@ args = 0, pretend = 0, frame = 0
  30              		@ frame_needed = 0, uses_anonymous_args = 0
  31 0000 08B5     		push	{r3, lr}
  32              		.cfi_def_cfa_offset 8
  33              		.cfi_offset 3, -8
  34              		.cfi_offset 14, -4
  35              		.loc 1 63 0
  36 0002 FFF7FEFF 		bl	hal_lld_init
  37              	.LVL0:
  38              		.loc 1 69 0
  39 0006 0848     		ldr	r0, .L3
  40 0008 FFF7FEFF 		bl	_pal_lld_init
  41              	.LVL1:
  42              		.loc 1 72 0
  43 000c FFF7FEFF 		bl	adcInit
  44              	.LVL2:
  45              		.loc 1 75 0
  46 0010 FFF7FEFF 		bl	canInit
  47              	.LVL3:
  48              		.loc 1 84 0
  49 0014 FFF7FEFF 		bl	gptInit
  50              	.LVL4:
  51              		.loc 1 99 0
  52 0018 FFF7FEFF 		bl	sdInit
  53              	.LVL5:
  54              		.loc 1 105 0
  55 001c FFF7FEFF 		bl	spiInit
  56              	.LVL6:
  57              		.loc 1 124 0
ARM GAS  /tmp/cca0HwEs.s 			page 2


  58 0020 BDE80840 		pop	{r3, lr}
  59              		.cfi_restore 14
  60              		.cfi_restore 3
  61              		.cfi_def_cfa_offset 0
  62              		.loc 1 123 0
  63 0024 FFF7FEBF 		b	boardInit
  64              	.LVL7:
  65              	.L4:
  66              		.align	2
  67              	.L3:
  68 0028 00000000 		.word	pal_default_config
  69              		.cfi_endproc
  70              	.LFE63:
  71              		.size	halInit, .-halInit
  72              		.section	.text.halIsCounterWithin,"ax",%progbits
  73              		.align	1
  74              		.p2align 2,,3
  75              		.global	halIsCounterWithin
  76              		.syntax unified
  77              		.thumb
  78              		.thumb_func
  79              		.fpu softvfp
  80              		.type	halIsCounterWithin, %function
  81              	halIsCounterWithin:
  82              	.LFB64:
  83              		.loc 1 170 0
  84              		.cfi_startproc
  85              		@ args = 0, pretend = 0, frame = 0
  86              		@ frame_needed = 0, uses_anonymous_args = 0
  87              		@ link register save eliminated.
  88              	.LVL8:
  89              		.loc 1 171 0
  90 0000 084B     		ldr	r3, .L15
  91              		.loc 1 173 0
  92 0002 8142     		cmp	r1, r0
  93              		.loc 1 171 0
  94 0004 5B68     		ldr	r3, [r3, #4]
  95              	.LVL9:
  96              		.loc 1 173 0
  97 0006 06D9     		bls	.L6
  98              		.loc 1 173 0 is_stmt 0 discriminator 1
  99 0008 8342     		cmp	r3, r0
 100 000a 08D3     		bcc	.L14
 101              	.L12:
 102              		.loc 1 174 0 is_stmt 1 discriminator 2
 103 000c 8B42     		cmp	r3, r1
 104 000e 2CBF     		ite	cs
 105 0010 0020     		movcs	r0, #0
 106              	.LVL10:
 107 0012 0120     		movcc	r0, #1
 108 0014 7047     		bx	lr
 109              	.LVL11:
 110              	.L6:
 111              		.loc 1 174 0 is_stmt 0
 112 0016 8342     		cmp	r3, r0
 113 0018 F8D3     		bcc	.L12
 114 001a 0120     		movs	r0, #1
ARM GAS  /tmp/cca0HwEs.s 			page 3


 115              	.LVL12:
 116              		.loc 1 175 0 is_stmt 1
 117 001c 7047     		bx	lr
 118              	.LVL13:
 119              	.L14:
 120 001e 0020     		movs	r0, #0
 121              	.LVL14:
 122 0020 7047     		bx	lr
 123              	.L16:
 124 0022 00BF     		.align	2
 125              	.L15:
 126 0024 001000E0 		.word	-536866816
 127              		.cfi_endproc
 128              	.LFE64:
 129              		.size	halIsCounterWithin, .-halIsCounterWithin
 130              		.section	.text.halPolledDelay,"ax",%progbits
 131              		.align	1
 132              		.p2align 2,,3
 133              		.global	halPolledDelay
 134              		.syntax unified
 135              		.thumb
 136              		.thumb_func
 137              		.fpu softvfp
 138              		.type	halPolledDelay, %function
 139              	halPolledDelay:
 140              	.LFB65:
 141              		.loc 1 189 0
 142              		.cfi_startproc
 143              		@ args = 0, pretend = 0, frame = 0
 144              		@ frame_needed = 0, uses_anonymous_args = 0
 145              		@ link register save eliminated.
 146              	.LVL15:
 147              		.loc 1 190 0
 148 0000 084B     		ldr	r3, .L23
 149              	.LBB4:
 150              	.LBB5:
 151              		.loc 1 171 0
 152 0002 1946     		mov	r1, r3
 153              	.LBE5:
 154              	.LBE4:
 155              		.loc 1 190 0
 156 0004 5A68     		ldr	r2, [r3, #4]
 157              	.LVL16:
 158              		.loc 1 191 0
 159 0006 1044     		add	r0, r0, r2
 160              	.LVL17:
 161              	.L21:
 162              	.LBB8:
 163              	.LBB6:
 164              		.loc 1 173 0 discriminator 1
 165 0008 8242     		cmp	r2, r0
 166              		.loc 1 171 0 discriminator 1
 167 000a 4B68     		ldr	r3, [r1, #4]
 168              	.LVL18:
 169              		.loc 1 173 0 discriminator 1
 170 000c 02D2     		bcs	.L18
 171              		.loc 1 173 0 is_stmt 0
ARM GAS  /tmp/cca0HwEs.s 			page 4


 172 000e 9A42     		cmp	r2, r3
 173 0010 05D9     		bls	.L22
 174 0012 7047     		bx	lr
 175              	.L18:
 176              	.LVL19:
 177              		.loc 1 174 0 is_stmt 1
 178 0014 9A42     		cmp	r2, r3
 179 0016 F7D9     		bls	.L21
 180              	.LBE6:
 181              	.LBE8:
 182              		.loc 1 192 0
 183 0018 9842     		cmp	r0, r3
 184 001a F5D8     		bhi	.L21
 185 001c 7047     		bx	lr
 186              	.LVL20:
 187              	.L22:
 188              	.LBB9:
 189              	.LBB7:
 190              		.loc 1 173 0
 191 001e 9842     		cmp	r0, r3
 192 0020 F2D8     		bhi	.L21
 193 0022 7047     		bx	lr
 194              	.L24:
 195              		.align	2
 196              	.L23:
 197 0024 001000E0 		.word	-536866816
 198              	.LBE7:
 199              	.LBE9:
 200              		.cfi_endproc
 201              	.LFE65:
 202              		.size	halPolledDelay, .-halPolledDelay
 203              		.text
 204              	.Letext0:
 205              		.file 2 "/usr/lib/gcc/arm-none-eabi/6.3.1/include/stddef.h"
 206              		.file 3 "/usr/include/newlib/machine/_default_types.h"
 207              		.file 4 "/usr/include/newlib/sys/_stdint.h"
 208              		.file 5 "../os/ports/GCC/ARMCMx/chtypes.h"
 209              		.file 6 "../os/kernel/include/chlists.h"
 210              		.file 7 "../os/kernel/include/chthreads.h"
 211              		.file 8 "../os/ports/GCC/ARMCMx/chcore_v7m.h"
 212              		.file 9 "../os/ports/common/ARMCMx/nvic.h"
 213              		.file 10 "../os/kernel/include/chvt.h"
 214              		.file 11 "../os/kernel/include/chschd.h"
 215              		.file 12 "../os/kernel/include/chsem.h"
 216              		.file 13 "../os/kernel/include/chmtx.h"
 217              		.file 14 "../os/kernel/include/chevents.h"
 218              		.file 15 "../os/kernel/include/chregistry.h"
 219              		.file 16 "../os/kernel/include/chqueues.h"
 220              		.file 17 "../os/kernel/include/ch.h"
 221              		.file 18 "../os/ports/common/ARMCMx/CMSIS/include/core_cm3.h"
 222              		.file 19 "../os/hal/platforms/LPC17xx/system_LPC17xx.h"
 223              		.file 20 "../os/hal/platforms/LPC17xx/LPC17xx.h"
 224              		.file 21 "../os/hal/platforms/LPC17xx/hal_lld.h"
 225              		.file 22 "../os/hal/platforms/LPC17xx/lpc17xx_dma.h"
 226              		.file 23 "../os/hal/platforms/LPC17xx/pal_lld.h"
 227              		.file 24 "../os/hal/include/adc.h"
 228              		.file 25 "../os/hal/platforms/LPC17xx/adc_lld.h"
ARM GAS  /tmp/cca0HwEs.s 			page 5


 229              		.file 26 "../os/hal/include/can.h"
 230              		.file 27 "../os/hal/platforms/LPC17xx/can_lld.h"
 231              		.file 28 "../os/hal/include/gpt.h"
 232              		.file 29 "../os/hal/platforms/LPC17xx/gpt_lld.h"
 233              		.file 30 "../os/hal/include/serial.h"
 234              		.file 31 "../os/hal/platforms/LPC17xx/serial_lld.h"
 235              		.file 32 "../os/hal/include/spi.h"
 236              		.file 33 "../os/hal/platforms/LPC17xx/spi_lld.h"
 237              		.file 34 "../boards/LPC1766/board.h"
 238              		.section	.debug_info,"",%progbits
 239              	.Ldebug_info0:
 240 0000 271A0000 		.4byte	0x1a27
 241 0004 0400     		.2byte	0x4
 242 0006 00000000 		.4byte	.Ldebug_abbrev0
 243 000a 04       		.byte	0x4
 244 000b 01       		.uleb128 0x1
 245 000c 7C080000 		.4byte	.LASF328
 246 0010 0C       		.byte	0xc
 247 0011 6A050000 		.4byte	.LASF329
 248 0015 9E090000 		.4byte	.LASF330
 249 0019 20000000 		.4byte	.Ldebug_ranges0+0x20
 250 001d 00000000 		.4byte	0
 251 0021 00000000 		.4byte	.Ldebug_line0
 252 0025 02       		.uleb128 0x2
 253 0026 04       		.byte	0x4
 254 0027 05       		.byte	0x5
 255 0028 696E7400 		.ascii	"int\000"
 256 002c 03       		.uleb128 0x3
 257 002d 0E000000 		.4byte	.LASF4
 258 0031 02       		.byte	0x2
 259 0032 D8       		.byte	0xd8
 260 0033 37000000 		.4byte	0x37
 261 0037 04       		.uleb128 0x4
 262 0038 04       		.byte	0x4
 263 0039 07       		.byte	0x7
 264 003a 8B070000 		.4byte	.LASF0
 265 003e 04       		.uleb128 0x4
 266 003f 08       		.byte	0x8
 267 0040 05       		.byte	0x5
 268 0041 A8060000 		.4byte	.LASF1
 269 0045 04       		.uleb128 0x4
 270 0046 08       		.byte	0x8
 271 0047 04       		.byte	0x4
 272 0048 70090000 		.4byte	.LASF2
 273 004c 04       		.uleb128 0x4
 274 004d 01       		.byte	0x1
 275 004e 06       		.byte	0x6
 276 004f AE020000 		.4byte	.LASF3
 277 0053 03       		.uleb128 0x3
 278 0054 9C010000 		.4byte	.LASF5
 279 0058 03       		.byte	0x3
 280 0059 1D       		.byte	0x1d
 281 005a 5E000000 		.4byte	0x5e
 282 005e 04       		.uleb128 0x4
 283 005f 01       		.byte	0x1
 284 0060 08       		.byte	0x8
 285 0061 2D030000 		.4byte	.LASF6
ARM GAS  /tmp/cca0HwEs.s 			page 6


 286 0065 04       		.uleb128 0x4
 287 0066 02       		.byte	0x2
 288 0067 05       		.byte	0x5
 289 0068 150B0000 		.4byte	.LASF7
 290 006c 03       		.uleb128 0x3
 291 006d C8030000 		.4byte	.LASF8
 292 0071 03       		.byte	0x3
 293 0072 2B       		.byte	0x2b
 294 0073 77000000 		.4byte	0x77
 295 0077 04       		.uleb128 0x4
 296 0078 02       		.byte	0x2
 297 0079 07       		.byte	0x7
 298 007a 250C0000 		.4byte	.LASF9
 299 007e 03       		.uleb128 0x3
 300 007f 6B0C0000 		.4byte	.LASF10
 301 0083 03       		.byte	0x3
 302 0084 3F       		.byte	0x3f
 303 0085 89000000 		.4byte	0x89
 304 0089 04       		.uleb128 0x4
 305 008a 04       		.byte	0x4
 306 008b 05       		.byte	0x5
 307 008c 07020000 		.4byte	.LASF11
 308 0090 03       		.uleb128 0x3
 309 0091 8D060000 		.4byte	.LASF12
 310 0095 03       		.byte	0x3
 311 0096 41       		.byte	0x41
 312 0097 9B000000 		.4byte	0x9b
 313 009b 04       		.uleb128 0x4
 314 009c 04       		.byte	0x4
 315 009d 07       		.byte	0x7
 316 009e 48050000 		.4byte	.LASF13
 317 00a2 03       		.uleb128 0x3
 318 00a3 3D050000 		.4byte	.LASF14
 319 00a7 03       		.byte	0x3
 320 00a8 5B       		.byte	0x5b
 321 00a9 AD000000 		.4byte	0xad
 322 00ad 04       		.uleb128 0x4
 323 00ae 08       		.byte	0x8
 324 00af 07       		.byte	0x7
 325 00b0 EA090000 		.4byte	.LASF15
 326 00b4 03       		.uleb128 0x3
 327 00b5 CE020000 		.4byte	.LASF16
 328 00b9 04       		.byte	0x4
 329 00ba 18       		.byte	0x18
 330 00bb 53000000 		.4byte	0x53
 331 00bf 05       		.uleb128 0x5
 332 00c0 B4000000 		.4byte	0xb4
 333 00c4 06       		.uleb128 0x6
 334 00c5 B4000000 		.4byte	0xb4
 335 00c9 03       		.uleb128 0x3
 336 00ca 090A0000 		.4byte	.LASF17
 337 00ce 04       		.byte	0x4
 338 00cf 24       		.byte	0x24
 339 00d0 6C000000 		.4byte	0x6c
 340 00d4 05       		.uleb128 0x5
 341 00d5 C9000000 		.4byte	0xc9
 342 00d9 03       		.uleb128 0x3
ARM GAS  /tmp/cca0HwEs.s 			page 7


 343 00da 90000000 		.4byte	.LASF18
 344 00de 04       		.byte	0x4
 345 00df 2C       		.byte	0x2c
 346 00e0 7E000000 		.4byte	0x7e
 347 00e4 05       		.uleb128 0x5
 348 00e5 D9000000 		.4byte	0xd9
 349 00e9 03       		.uleb128 0x3
 350 00ea D40B0000 		.4byte	.LASF19
 351 00ee 04       		.byte	0x4
 352 00ef 30       		.byte	0x30
 353 00f0 90000000 		.4byte	0x90
 354 00f4 05       		.uleb128 0x5
 355 00f5 E9000000 		.4byte	0xe9
 356 00f9 06       		.uleb128 0x6
 357 00fa F4000000 		.4byte	0xf4
 358 00fe 03       		.uleb128 0x3
 359 00ff 1F0B0000 		.4byte	.LASF20
 360 0103 04       		.byte	0x4
 361 0104 3C       		.byte	0x3c
 362 0105 A2000000 		.4byte	0xa2
 363 0109 03       		.uleb128 0x3
 364 010a 5A0B0000 		.4byte	.LASF21
 365 010e 05       		.byte	0x5
 366 010f 24       		.byte	0x24
 367 0110 14010000 		.4byte	0x114
 368 0114 04       		.uleb128 0x4
 369 0115 01       		.byte	0x1
 370 0116 02       		.byte	0x2
 371 0117 89030000 		.4byte	.LASF22
 372 011b 03       		.uleb128 0x3
 373 011c B00A0000 		.4byte	.LASF23
 374 0120 05       		.byte	0x5
 375 0121 25       		.byte	0x25
 376 0122 B4000000 		.4byte	0xb4
 377 0126 03       		.uleb128 0x3
 378 0127 61020000 		.4byte	.LASF24
 379 012b 05       		.byte	0x5
 380 012c 26       		.byte	0x26
 381 012d B4000000 		.4byte	0xb4
 382 0131 03       		.uleb128 0x3
 383 0132 9B0B0000 		.4byte	.LASF25
 384 0136 05       		.byte	0x5
 385 0137 27       		.byte	0x27
 386 0138 B4000000 		.4byte	0xb4
 387 013c 03       		.uleb128 0x3
 388 013d 2C0A0000 		.4byte	.LASF26
 389 0141 05       		.byte	0x5
 390 0142 28       		.byte	0x28
 391 0143 B4000000 		.4byte	0xb4
 392 0147 03       		.uleb128 0x3
 393 0148 58000000 		.4byte	.LASF27
 394 014c 05       		.byte	0x5
 395 014d 29       		.byte	0x29
 396 014e E9000000 		.4byte	0xe9
 397 0152 03       		.uleb128 0x3
 398 0153 120A0000 		.4byte	.LASF28
 399 0157 05       		.byte	0x5
ARM GAS  /tmp/cca0HwEs.s 			page 8


 400 0158 2A       		.byte	0x2a
 401 0159 D9000000 		.4byte	0xd9
 402 015d 03       		.uleb128 0x3
 403 015e F8020000 		.4byte	.LASF29
 404 0162 05       		.byte	0x5
 405 0163 2C       		.byte	0x2c
 406 0164 E9000000 		.4byte	0xe9
 407 0168 03       		.uleb128 0x3
 408 0169 21090000 		.4byte	.LASF30
 409 016d 05       		.byte	0x5
 410 016e 2D       		.byte	0x2d
 411 016f E9000000 		.4byte	0xe9
 412 0173 03       		.uleb128 0x3
 413 0174 30000000 		.4byte	.LASF31
 414 0178 05       		.byte	0x5
 415 0179 2E       		.byte	0x2e
 416 017a E9000000 		.4byte	0xe9
 417 017e 05       		.uleb128 0x5
 418 017f 73010000 		.4byte	0x173
 419 0183 03       		.uleb128 0x3
 420 0184 88040000 		.4byte	.LASF32
 421 0188 05       		.byte	0x5
 422 0189 2F       		.byte	0x2f
 423 018a D9000000 		.4byte	0xd9
 424 018e 03       		.uleb128 0x3
 425 018f 780B0000 		.4byte	.LASF33
 426 0193 06       		.byte	0x6
 427 0194 23       		.byte	0x23
 428 0195 99010000 		.4byte	0x199
 429 0199 07       		.uleb128 0x7
 430 019a 780B0000 		.4byte	.LASF33
 431 019e 48       		.byte	0x48
 432 019f 07       		.byte	0x7
 433 01a0 57       		.byte	0x57
 434 01a1 96020000 		.4byte	0x296
 435 01a5 08       		.uleb128 0x8
 436 01a6 1B020000 		.4byte	.LASF34
 437 01aa 07       		.byte	0x7
 438 01ab 58       		.byte	0x58
 439 01ac B7020000 		.4byte	0x2b7
 440 01b0 00       		.byte	0
 441 01b1 08       		.uleb128 0x8
 442 01b2 37020000 		.4byte	.LASF35
 443 01b6 07       		.byte	0x7
 444 01b7 5A       		.byte	0x5a
 445 01b8 B7020000 		.4byte	0x2b7
 446 01bc 04       		.byte	0x4
 447 01bd 08       		.uleb128 0x8
 448 01be C1030000 		.4byte	.LASF36
 449 01c2 07       		.byte	0x7
 450 01c3 5C       		.byte	0x5c
 451 01c4 47010000 		.4byte	0x147
 452 01c8 08       		.byte	0x8
 453 01c9 08       		.uleb128 0x8
 454 01ca 52000000 		.4byte	.LASF37
 455 01ce 07       		.byte	0x7
 456 01cf 5D       		.byte	0x5d
ARM GAS  /tmp/cca0HwEs.s 			page 9


 457 01d0 7C030000 		.4byte	0x37c
 458 01d4 0C       		.byte	0xc
 459 01d5 08       		.uleb128 0x8
 460 01d6 F6010000 		.4byte	.LASF38
 461 01da 07       		.byte	0x7
 462 01db 5F       		.byte	0x5f
 463 01dc B7020000 		.4byte	0x2b7
 464 01e0 10       		.byte	0x10
 465 01e1 08       		.uleb128 0x8
 466 01e2 010A0000 		.4byte	.LASF39
 467 01e6 07       		.byte	0x7
 468 01e7 60       		.byte	0x60
 469 01e8 B7020000 		.4byte	0x2b7
 470 01ec 14       		.byte	0x14
 471 01ed 08       		.uleb128 0x8
 472 01ee B40C0000 		.4byte	.LASF40
 473 01f2 07       		.byte	0x7
 474 01f3 67       		.byte	0x67
 475 01f4 71060000 		.4byte	0x671
 476 01f8 18       		.byte	0x18
 477 01f9 08       		.uleb128 0x8
 478 01fa F90C0000 		.4byte	.LASF41
 479 01fe 07       		.byte	0x7
 480 01ff 72       		.byte	0x72
 481 0200 26010000 		.4byte	0x126
 482 0204 1C       		.byte	0x1c
 483 0205 08       		.uleb128 0x8
 484 0206 74070000 		.4byte	.LASF42
 485 020a 07       		.byte	0x7
 486 020b 76       		.byte	0x76
 487 020c 1B010000 		.4byte	0x11b
 488 0210 1D       		.byte	0x1d
 489 0211 08       		.uleb128 0x8
 490 0212 29080000 		.4byte	.LASF43
 491 0216 07       		.byte	0x7
 492 0217 7B       		.byte	0x7b
 493 0218 31010000 		.4byte	0x131
 494 021c 1E       		.byte	0x1e
 495 021d 08       		.uleb128 0x8
 496 021e BA020000 		.4byte	.LASF44
 497 0222 07       		.byte	0x7
 498 0223 81       		.byte	0x81
 499 0224 3C010000 		.4byte	0x13c
 500 0228 1F       		.byte	0x1f
 501 0229 08       		.uleb128 0x8
 502 022a 3F090000 		.4byte	.LASF45
 503 022e 07       		.byte	0x7
 504 022f 88       		.byte	0x88
 505 0230 7E010000 		.4byte	0x17e
 506 0234 20       		.byte	0x20
 507 0235 09       		.uleb128 0x9
 508 0236 705F7500 		.ascii	"p_u\000"
 509 023a 07       		.byte	0x7
 510 023b AD       		.byte	0xad
 511 023c 3C060000 		.4byte	0x63c
 512 0240 24       		.byte	0x24
 513 0241 08       		.uleb128 0x8
ARM GAS  /tmp/cca0HwEs.s 			page 10


 514 0242 64070000 		.4byte	.LASF46
 515 0246 07       		.byte	0x7
 516 0247 B2       		.byte	0xb2
 517 0248 DD020000 		.4byte	0x2dd
 518 024c 28       		.byte	0x28
 519 024d 08       		.uleb128 0x8
 520 024e 7F000000 		.4byte	.LASF47
 521 0252 07       		.byte	0x7
 522 0253 B8       		.byte	0xb8
 523 0254 BD020000 		.4byte	0x2bd
 524 0258 2C       		.byte	0x2c
 525 0259 08       		.uleb128 0x8
 526 025a DD0C0000 		.4byte	.LASF48
 527 025e 07       		.byte	0x7
 528 025f BC       		.byte	0xbc
 529 0260 52010000 		.4byte	0x152
 530 0264 34       		.byte	0x34
 531 0265 08       		.uleb128 0x8
 532 0266 B4040000 		.4byte	.LASF49
 533 026a 07       		.byte	0x7
 534 026b C2       		.byte	0xc2
 535 026c 5D010000 		.4byte	0x15d
 536 0270 38       		.byte	0x38
 537 0271 08       		.uleb128 0x8
 538 0272 6A020000 		.4byte	.LASF50
 539 0276 07       		.byte	0x7
 540 0277 C9       		.byte	0xc9
 541 0278 83060000 		.4byte	0x683
 542 027c 3C       		.byte	0x3c
 543 027d 08       		.uleb128 0x8
 544 027e 7C090000 		.4byte	.LASF51
 545 0282 07       		.byte	0x7
 546 0283 CD       		.byte	0xcd
 547 0284 47010000 		.4byte	0x147
 548 0288 40       		.byte	0x40
 549 0289 08       		.uleb128 0x8
 550 028a F9070000 		.4byte	.LASF52
 551 028e 07       		.byte	0x7
 552 028f D3       		.byte	0xd3
 553 0290 F3020000 		.4byte	0x2f3
 554 0294 44       		.byte	0x44
 555 0295 00       		.byte	0
 556 0296 0A       		.uleb128 0xa
 557 0297 08       		.byte	0x8
 558 0298 06       		.byte	0x6
 559 0299 5A       		.byte	0x5a
 560 029a B7020000 		.4byte	0x2b7
 561 029e 08       		.uleb128 0x8
 562 029f 1B020000 		.4byte	.LASF34
 563 02a3 06       		.byte	0x6
 564 02a4 5B       		.byte	0x5b
 565 02a5 B7020000 		.4byte	0x2b7
 566 02a9 00       		.byte	0
 567 02aa 08       		.uleb128 0x8
 568 02ab 37020000 		.4byte	.LASF35
 569 02af 06       		.byte	0x6
 570 02b0 5D       		.byte	0x5d
ARM GAS  /tmp/cca0HwEs.s 			page 11


 571 02b1 B7020000 		.4byte	0x2b7
 572 02b5 04       		.byte	0x4
 573 02b6 00       		.byte	0
 574 02b7 0B       		.uleb128 0xb
 575 02b8 04       		.byte	0x4
 576 02b9 8E010000 		.4byte	0x18e
 577 02bd 03       		.uleb128 0x3
 578 02be EA0B0000 		.4byte	.LASF53
 579 02c2 06       		.byte	0x6
 580 02c3 5F       		.byte	0x5f
 581 02c4 96020000 		.4byte	0x296
 582 02c8 0A       		.uleb128 0xa
 583 02c9 04       		.byte	0x4
 584 02ca 06       		.byte	0x6
 585 02cb 64       		.byte	0x64
 586 02cc DD020000 		.4byte	0x2dd
 587 02d0 08       		.uleb128 0x8
 588 02d1 1B020000 		.4byte	.LASF34
 589 02d5 06       		.byte	0x6
 590 02d6 66       		.byte	0x66
 591 02d7 B7020000 		.4byte	0x2b7
 592 02db 00       		.byte	0
 593 02dc 00       		.byte	0
 594 02dd 03       		.uleb128 0x3
 595 02de 0F090000 		.4byte	.LASF54
 596 02e2 06       		.byte	0x6
 597 02e3 69       		.byte	0x69
 598 02e4 C8020000 		.4byte	0x2c8
 599 02e8 03       		.uleb128 0x3
 600 02e9 7B020000 		.4byte	.LASF55
 601 02ed 08       		.byte	0x8
 602 02ee DE       		.byte	0xde
 603 02ef F3020000 		.4byte	0x2f3
 604 02f3 0C       		.uleb128 0xc
 605 02f4 04       		.byte	0x4
 606 02f5 03       		.uleb128 0x3
 607 02f6 0A040000 		.4byte	.LASF56
 608 02fa 08       		.byte	0x8
 609 02fb E4       		.byte	0xe4
 610 02fc FE000000 		.4byte	0xfe
 611 0300 0D       		.uleb128 0xd
 612 0301 AD040000 		.4byte	.LASF57
 613 0305 24       		.byte	0x24
 614 0306 08       		.byte	0x8
 615 0307 0501     		.2byte	0x105
 616 0309 7C030000 		.4byte	0x37c
 617 030d 0E       		.uleb128 0xe
 618 030e 723400   		.ascii	"r4\000"
 619 0311 08       		.byte	0x8
 620 0312 1801     		.2byte	0x118
 621 0314 E8020000 		.4byte	0x2e8
 622 0318 00       		.byte	0
 623 0319 0E       		.uleb128 0xe
 624 031a 723500   		.ascii	"r5\000"
 625 031d 08       		.byte	0x8
 626 031e 1901     		.2byte	0x119
 627 0320 E8020000 		.4byte	0x2e8
ARM GAS  /tmp/cca0HwEs.s 			page 12


 628 0324 04       		.byte	0x4
 629 0325 0E       		.uleb128 0xe
 630 0326 723600   		.ascii	"r6\000"
 631 0329 08       		.byte	0x8
 632 032a 1A01     		.2byte	0x11a
 633 032c E8020000 		.4byte	0x2e8
 634 0330 08       		.byte	0x8
 635 0331 0E       		.uleb128 0xe
 636 0332 723700   		.ascii	"r7\000"
 637 0335 08       		.byte	0x8
 638 0336 1B01     		.2byte	0x11b
 639 0338 E8020000 		.4byte	0x2e8
 640 033c 0C       		.byte	0xc
 641 033d 0E       		.uleb128 0xe
 642 033e 723800   		.ascii	"r8\000"
 643 0341 08       		.byte	0x8
 644 0342 1C01     		.2byte	0x11c
 645 0344 E8020000 		.4byte	0x2e8
 646 0348 10       		.byte	0x10
 647 0349 0E       		.uleb128 0xe
 648 034a 723900   		.ascii	"r9\000"
 649 034d 08       		.byte	0x8
 650 034e 1D01     		.2byte	0x11d
 651 0350 E8020000 		.4byte	0x2e8
 652 0354 14       		.byte	0x14
 653 0355 0E       		.uleb128 0xe
 654 0356 72313000 		.ascii	"r10\000"
 655 035a 08       		.byte	0x8
 656 035b 1E01     		.2byte	0x11e
 657 035d E8020000 		.4byte	0x2e8
 658 0361 18       		.byte	0x18
 659 0362 0E       		.uleb128 0xe
 660 0363 72313100 		.ascii	"r11\000"
 661 0367 08       		.byte	0x8
 662 0368 1F01     		.2byte	0x11f
 663 036a E8020000 		.4byte	0x2e8
 664 036e 1C       		.byte	0x1c
 665 036f 0E       		.uleb128 0xe
 666 0370 6C7200   		.ascii	"lr\000"
 667 0373 08       		.byte	0x8
 668 0374 2001     		.2byte	0x120
 669 0376 E8020000 		.4byte	0x2e8
 670 037a 20       		.byte	0x20
 671 037b 00       		.byte	0
 672 037c 0D       		.uleb128 0xd
 673 037d 04030000 		.4byte	.LASF58
 674 0381 04       		.byte	0x4
 675 0382 08       		.byte	0x8
 676 0383 2A01     		.2byte	0x12a
 677 0385 97030000 		.4byte	0x397
 678 0389 0E       		.uleb128 0xe
 679 038a 72313300 		.ascii	"r13\000"
 680 038e 08       		.byte	0x8
 681 038f 2B01     		.2byte	0x12b
 682 0391 97030000 		.4byte	0x397
 683 0395 00       		.byte	0
 684 0396 00       		.byte	0
ARM GAS  /tmp/cca0HwEs.s 			page 13


 685 0397 0B       		.uleb128 0xb
 686 0398 04       		.byte	0x4
 687 0399 00030000 		.4byte	0x300
 688 039d 03       		.uleb128 0x3
 689 039e 64080000 		.4byte	.LASF59
 690 03a2 09       		.byte	0x9
 691 03a3 33       		.byte	0x33
 692 03a4 F4000000 		.4byte	0xf4
 693 03a8 04       		.uleb128 0x4
 694 03a9 04       		.byte	0x4
 695 03aa 07       		.byte	0x7
 696 03ab 15000000 		.4byte	.LASF60
 697 03af 0A       		.uleb128 0xa
 698 03b0 20       		.byte	0x20
 699 03b1 09       		.byte	0x9
 700 03b2 FF       		.byte	0xff
 701 03b3 20040000 		.4byte	0x420
 702 03b7 0F       		.uleb128 0xf
 703 03b8 98070000 		.4byte	.LASF61
 704 03bc 09       		.byte	0x9
 705 03bd 0001     		.2byte	0x100
 706 03bf 9D030000 		.4byte	0x39d
 707 03c3 00       		.byte	0
 708 03c4 0F       		.uleb128 0xf
 709 03c5 8E0B0000 		.4byte	.LASF62
 710 03c9 09       		.byte	0x9
 711 03ca 0101     		.2byte	0x101
 712 03cc 9D030000 		.4byte	0x39d
 713 03d0 04       		.byte	0x4
 714 03d1 0F       		.uleb128 0xf
 715 03d2 E7030000 		.4byte	.LASF63
 716 03d6 09       		.byte	0x9
 717 03d7 0201     		.2byte	0x102
 718 03d9 9D030000 		.4byte	0x39d
 719 03dd 08       		.byte	0x8
 720 03de 0F       		.uleb128 0xf
 721 03df 39080000 		.4byte	.LASF64
 722 03e3 09       		.byte	0x9
 723 03e4 0301     		.2byte	0x103
 724 03e6 9D030000 		.4byte	0x39d
 725 03ea 0C       		.byte	0xc
 726 03eb 0F       		.uleb128 0xf
 727 03ec DB020000 		.4byte	.LASF65
 728 03f0 09       		.byte	0x9
 729 03f1 0401     		.2byte	0x104
 730 03f3 9D030000 		.4byte	0x39d
 731 03f7 10       		.byte	0x10
 732 03f8 0F       		.uleb128 0xf
 733 03f9 0A050000 		.4byte	.LASF66
 734 03fd 09       		.byte	0x9
 735 03fe 0501     		.2byte	0x105
 736 0400 9D030000 		.4byte	0x39d
 737 0404 14       		.byte	0x14
 738 0405 0F       		.uleb128 0xf
 739 0406 7D0C0000 		.4byte	.LASF67
 740 040a 09       		.byte	0x9
 741 040b 0601     		.2byte	0x106
ARM GAS  /tmp/cca0HwEs.s 			page 14


 742 040d 9D030000 		.4byte	0x39d
 743 0411 18       		.byte	0x18
 744 0412 0F       		.uleb128 0xf
 745 0413 7B0A0000 		.4byte	.LASF68
 746 0417 09       		.byte	0x9
 747 0418 0701     		.2byte	0x107
 748 041a 9D030000 		.4byte	0x39d
 749 041e 1C       		.byte	0x1c
 750 041f 00       		.byte	0
 751 0420 10       		.uleb128 0x10
 752 0421 01080000 		.4byte	.LASF69
 753 0425 09       		.byte	0x9
 754 0426 0801     		.2byte	0x108
 755 0428 AF030000 		.4byte	0x3af
 756 042c 03       		.uleb128 0x3
 757 042d AE000000 		.4byte	.LASF70
 758 0431 0A       		.byte	0xa
 759 0432 51       		.byte	0x51
 760 0433 37040000 		.4byte	0x437
 761 0437 0B       		.uleb128 0xb
 762 0438 04       		.byte	0x4
 763 0439 3D040000 		.4byte	0x43d
 764 043d 11       		.uleb128 0x11
 765 043e 48040000 		.4byte	0x448
 766 0442 12       		.uleb128 0x12
 767 0443 F3020000 		.4byte	0x2f3
 768 0447 00       		.byte	0
 769 0448 03       		.uleb128 0x3
 770 0449 DD0B0000 		.4byte	.LASF71
 771 044d 0A       		.byte	0xa
 772 044e 56       		.byte	0x56
 773 044f 53040000 		.4byte	0x453
 774 0453 07       		.uleb128 0x7
 775 0454 DD0B0000 		.4byte	.LASF71
 776 0458 14       		.byte	0x14
 777 0459 0A       		.byte	0xa
 778 045a 5D       		.byte	0x5d
 779 045b 9C040000 		.4byte	0x49c
 780 045f 08       		.uleb128 0x8
 781 0460 F0060000 		.4byte	.LASF72
 782 0464 0A       		.byte	0xa
 783 0465 5E       		.byte	0x5e
 784 0466 9C040000 		.4byte	0x49c
 785 046a 00       		.byte	0
 786 046b 08       		.uleb128 0x8
 787 046c 5A030000 		.4byte	.LASF73
 788 0470 0A       		.byte	0xa
 789 0471 60       		.byte	0x60
 790 0472 9C040000 		.4byte	0x49c
 791 0476 04       		.byte	0x4
 792 0477 08       		.uleb128 0x8
 793 0478 BB0C0000 		.4byte	.LASF74
 794 047c 0A       		.byte	0xa
 795 047d 62       		.byte	0x62
 796 047e 73010000 		.4byte	0x173
 797 0482 08       		.byte	0x8
 798 0483 08       		.uleb128 0x8
ARM GAS  /tmp/cca0HwEs.s 			page 15


 799 0484 9D040000 		.4byte	.LASF75
 800 0488 0A       		.byte	0xa
 801 0489 63       		.byte	0x63
 802 048a 2C040000 		.4byte	0x42c
 803 048e 0C       		.byte	0xc
 804 048f 08       		.uleb128 0x8
 805 0490 85010000 		.4byte	.LASF76
 806 0494 0A       		.byte	0xa
 807 0495 65       		.byte	0x65
 808 0496 F3020000 		.4byte	0x2f3
 809 049a 10       		.byte	0x10
 810 049b 00       		.byte	0
 811 049c 0B       		.uleb128 0xb
 812 049d 04       		.byte	0x4
 813 049e 48040000 		.4byte	0x448
 814 04a2 0A       		.uleb128 0xa
 815 04a3 10       		.byte	0x10
 816 04a4 0A       		.byte	0xa
 817 04a5 6F       		.byte	0x6f
 818 04a6 DB040000 		.4byte	0x4db
 819 04aa 08       		.uleb128 0x8
 820 04ab F0060000 		.4byte	.LASF72
 821 04af 0A       		.byte	0xa
 822 04b0 70       		.byte	0x70
 823 04b1 9C040000 		.4byte	0x49c
 824 04b5 00       		.byte	0
 825 04b6 08       		.uleb128 0x8
 826 04b7 5A030000 		.4byte	.LASF73
 827 04bb 0A       		.byte	0xa
 828 04bc 72       		.byte	0x72
 829 04bd 9C040000 		.4byte	0x49c
 830 04c1 04       		.byte	0x4
 831 04c2 08       		.uleb128 0x8
 832 04c3 BB0C0000 		.4byte	.LASF74
 833 04c7 0A       		.byte	0xa
 834 04c8 74       		.byte	0x74
 835 04c9 73010000 		.4byte	0x173
 836 04cd 08       		.byte	0x8
 837 04ce 08       		.uleb128 0x8
 838 04cf CC0A0000 		.4byte	.LASF77
 839 04d3 0A       		.byte	0xa
 840 04d4 75       		.byte	0x75
 841 04d5 7E010000 		.4byte	0x17e
 842 04d9 0C       		.byte	0xc
 843 04da 00       		.byte	0
 844 04db 03       		.uleb128 0x3
 845 04dc 590A0000 		.4byte	.LASF78
 846 04e0 0A       		.byte	0xa
 847 04e1 76       		.byte	0x76
 848 04e2 A2040000 		.4byte	0x4a2
 849 04e6 13       		.uleb128 0x13
 850 04e7 7F0B0000 		.4byte	.LASF86
 851 04eb 0A       		.byte	0xa
 852 04ec EE       		.byte	0xee
 853 04ed DB040000 		.4byte	0x4db
 854 04f1 0A       		.uleb128 0xa
 855 04f2 1C       		.byte	0x1c
ARM GAS  /tmp/cca0HwEs.s 			page 16


 856 04f3 0B       		.byte	0xb
 857 04f4 57       		.byte	0x57
 858 04f5 42050000 		.4byte	0x542
 859 04f9 08       		.uleb128 0x8
 860 04fa 850A0000 		.4byte	.LASF79
 861 04fe 0B       		.byte	0xb
 862 04ff 58       		.byte	0x58
 863 0500 BD020000 		.4byte	0x2bd
 864 0504 00       		.byte	0
 865 0505 08       		.uleb128 0x8
 866 0506 340B0000 		.4byte	.LASF80
 867 050a 0B       		.byte	0xb
 868 050b 59       		.byte	0x59
 869 050c 47010000 		.4byte	0x147
 870 0510 08       		.byte	0x8
 871 0511 08       		.uleb128 0x8
 872 0512 8A000000 		.4byte	.LASF81
 873 0516 0B       		.byte	0xb
 874 0517 5B       		.byte	0x5b
 875 0518 7C030000 		.4byte	0x37c
 876 051c 0C       		.byte	0xc
 877 051d 08       		.uleb128 0x8
 878 051e 6D030000 		.4byte	.LASF82
 879 0522 0B       		.byte	0xb
 880 0523 5E       		.byte	0x5e
 881 0524 B7020000 		.4byte	0x2b7
 882 0528 10       		.byte	0x10
 883 0529 08       		.uleb128 0x8
 884 052a FE0A0000 		.4byte	.LASF83
 885 052e 0B       		.byte	0xb
 886 052f 5F       		.byte	0x5f
 887 0530 B7020000 		.4byte	0x2b7
 888 0534 14       		.byte	0x14
 889 0535 08       		.uleb128 0x8
 890 0536 4F0A0000 		.4byte	.LASF84
 891 053a 0B       		.byte	0xb
 892 053b 62       		.byte	0x62
 893 053c B7020000 		.4byte	0x2b7
 894 0540 18       		.byte	0x18
 895 0541 00       		.byte	0
 896 0542 03       		.uleb128 0x3
 897 0543 8D0C0000 		.4byte	.LASF85
 898 0547 0B       		.byte	0xb
 899 0548 64       		.byte	0x64
 900 0549 F1040000 		.4byte	0x4f1
 901 054d 13       		.uleb128 0x13
 902 054e AA0A0000 		.4byte	.LASF87
 903 0552 0B       		.byte	0xb
 904 0553 68       		.byte	0x68
 905 0554 42050000 		.4byte	0x542
 906 0558 07       		.uleb128 0x7
 907 0559 E6060000 		.4byte	.LASF88
 908 055d 0C       		.byte	0xc
 909 055e 0C       		.byte	0xc
 910 055f 25       		.byte	0x25
 911 0560 7D050000 		.4byte	0x57d
 912 0564 08       		.uleb128 0x8
ARM GAS  /tmp/cca0HwEs.s 			page 17


 913 0565 0D0B0000 		.4byte	.LASF89
 914 0569 0C       		.byte	0xc
 915 056a 26       		.byte	0x26
 916 056b BD020000 		.4byte	0x2bd
 917 056f 00       		.byte	0
 918 0570 08       		.uleb128 0x8
 919 0571 E4090000 		.4byte	.LASF90
 920 0575 0C       		.byte	0xc
 921 0576 28       		.byte	0x28
 922 0577 83010000 		.4byte	0x183
 923 057b 08       		.byte	0x8
 924 057c 00       		.byte	0
 925 057d 03       		.uleb128 0x3
 926 057e E6060000 		.4byte	.LASF88
 927 0582 0C       		.byte	0xc
 928 0583 29       		.byte	0x29
 929 0584 58050000 		.4byte	0x558
 930 0588 07       		.uleb128 0x7
 931 0589 98060000 		.4byte	.LASF91
 932 058d 10       		.byte	0x10
 933 058e 0D       		.byte	0xd
 934 058f 25       		.byte	0x25
 935 0590 B9050000 		.4byte	0x5b9
 936 0594 08       		.uleb128 0x8
 937 0595 CE060000 		.4byte	.LASF92
 938 0599 0D       		.byte	0xd
 939 059a 26       		.byte	0x26
 940 059b BD020000 		.4byte	0x2bd
 941 059f 00       		.byte	0
 942 05a0 08       		.uleb128 0x8
 943 05a1 7D010000 		.4byte	.LASF93
 944 05a5 0D       		.byte	0xd
 945 05a6 28       		.byte	0x28
 946 05a7 B7020000 		.4byte	0x2b7
 947 05ab 08       		.byte	0x8
 948 05ac 08       		.uleb128 0x8
 949 05ad C80C0000 		.4byte	.LASF94
 950 05b1 0D       		.byte	0xd
 951 05b2 2A       		.byte	0x2a
 952 05b3 B9050000 		.4byte	0x5b9
 953 05b7 0C       		.byte	0xc
 954 05b8 00       		.byte	0
 955 05b9 0B       		.uleb128 0xb
 956 05ba 04       		.byte	0x4
 957 05bb 88050000 		.4byte	0x588
 958 05bf 03       		.uleb128 0x3
 959 05c0 98060000 		.4byte	.LASF91
 960 05c4 0D       		.byte	0xd
 961 05c5 2C       		.byte	0x2c
 962 05c6 88050000 		.4byte	0x588
 963 05ca 03       		.uleb128 0x3
 964 05cb BE0B0000 		.4byte	.LASF95
 965 05cf 0E       		.byte	0xe
 966 05d0 25       		.byte	0x25
 967 05d1 D5050000 		.4byte	0x5d5
 968 05d5 07       		.uleb128 0x7
 969 05d6 BE0B0000 		.4byte	.LASF95
ARM GAS  /tmp/cca0HwEs.s 			page 18


 970 05da 10       		.byte	0x10
 971 05db 0E       		.byte	0xe
 972 05dc 2A       		.byte	0x2a
 973 05dd 12060000 		.4byte	0x612
 974 05e1 08       		.uleb128 0x8
 975 05e2 A9050000 		.4byte	.LASF96
 976 05e6 0E       		.byte	0xe
 977 05e7 2B       		.byte	0x2b
 978 05e8 12060000 		.4byte	0x612
 979 05ec 00       		.byte	0
 980 05ed 08       		.uleb128 0x8
 981 05ee E30C0000 		.4byte	.LASF97
 982 05f2 0E       		.byte	0xe
 983 05f3 2E       		.byte	0x2e
 984 05f4 B7020000 		.4byte	0x2b7
 985 05f8 04       		.byte	0x4
 986 05f9 08       		.uleb128 0x8
 987 05fa 850C0000 		.4byte	.LASF98
 988 05fe 0E       		.byte	0xe
 989 05ff 30       		.byte	0x30
 990 0600 5D010000 		.4byte	0x15d
 991 0604 08       		.byte	0x8
 992 0605 08       		.uleb128 0x8
 993 0606 F6000000 		.4byte	.LASF99
 994 060a 0E       		.byte	0xe
 995 060b 33       		.byte	0x33
 996 060c 68010000 		.4byte	0x168
 997 0610 0C       		.byte	0xc
 998 0611 00       		.byte	0
 999 0612 0B       		.uleb128 0xb
 1000 0613 04       		.byte	0x4
 1001 0614 CA050000 		.4byte	0x5ca
 1002 0618 07       		.uleb128 0x7
 1003 0619 31050000 		.4byte	.LASF100
 1004 061d 04       		.byte	0x4
 1005 061e 0E       		.byte	0xe
 1006 061f 3A       		.byte	0x3a
 1007 0620 31060000 		.4byte	0x631
 1008 0624 08       		.uleb128 0x8
 1009 0625 F8040000 		.4byte	.LASF101
 1010 0629 0E       		.byte	0xe
 1011 062a 3B       		.byte	0x3b
 1012 062b 12060000 		.4byte	0x612
 1013 062f 00       		.byte	0
 1014 0630 00       		.byte	0
 1015 0631 03       		.uleb128 0x3
 1016 0632 31050000 		.4byte	.LASF100
 1017 0636 0E       		.byte	0xe
 1018 0637 3E       		.byte	0x3e
 1019 0638 18060000 		.4byte	0x618
 1020 063c 14       		.uleb128 0x14
 1021 063d 04       		.byte	0x4
 1022 063e 07       		.byte	0x7
 1023 063f 8F       		.byte	0x8f
 1024 0640 71060000 		.4byte	0x671
 1025 0644 15       		.uleb128 0x15
 1026 0645 150C0000 		.4byte	.LASF102
ARM GAS  /tmp/cca0HwEs.s 			page 19


 1027 0649 07       		.byte	0x7
 1028 064a 96       		.byte	0x96
 1029 064b 52010000 		.4byte	0x152
 1030 064f 15       		.uleb128 0x15
 1031 0650 93010000 		.4byte	.LASF103
 1032 0654 07       		.byte	0x7
 1033 0655 9D       		.byte	0x9d
 1034 0656 52010000 		.4byte	0x152
 1035 065a 15       		.uleb128 0x15
 1036 065b E0030000 		.4byte	.LASF104
 1037 065f 07       		.byte	0x7
 1038 0660 A4       		.byte	0xa4
 1039 0661 F3020000 		.4byte	0x2f3
 1040 0665 15       		.uleb128 0x15
 1041 0666 B6010000 		.4byte	.LASF105
 1042 066a 07       		.byte	0x7
 1043 066b AB       		.byte	0xab
 1044 066c 5D010000 		.4byte	0x15d
 1045 0670 00       		.byte	0
 1046 0671 0B       		.uleb128 0xb
 1047 0672 04       		.byte	0x4
 1048 0673 7E060000 		.4byte	0x67e
 1049 0677 04       		.uleb128 0x4
 1050 0678 01       		.byte	0x1
 1051 0679 08       		.byte	0x8
 1052 067a AB030000 		.4byte	.LASF106
 1053 067e 06       		.uleb128 0x6
 1054 067f 77060000 		.4byte	0x677
 1055 0683 0B       		.uleb128 0xb
 1056 0684 04       		.byte	0x4
 1057 0685 BF050000 		.4byte	0x5bf
 1058 0689 0B       		.uleb128 0xb
 1059 068a 04       		.byte	0x4
 1060 068b 8F060000 		.4byte	0x68f
 1061 068f 16       		.uleb128 0x16
 1062 0690 52010000 		.4byte	0x152
 1063 0694 9E060000 		.4byte	0x69e
 1064 0698 12       		.uleb128 0x12
 1065 0699 F3020000 		.4byte	0x2f3
 1066 069d 00       		.byte	0
 1067 069e 0A       		.uleb128 0xa
 1068 069f 16       		.byte	0x16
 1069 06a0 0F       		.byte	0xf
 1070 06a1 25       		.byte	0x25
 1071 06a2 7F070000 		.4byte	0x77f
 1072 06a6 08       		.uleb128 0x8
 1073 06a7 44000000 		.4byte	.LASF107
 1074 06ab 0F       		.byte	0xf
 1075 06ac 26       		.byte	0x26
 1076 06ad 7F070000 		.4byte	0x77f
 1077 06b1 00       		.byte	0
 1078 06b2 08       		.uleb128 0x8
 1079 06b3 5A050000 		.4byte	.LASF108
 1080 06b7 0F       		.byte	0xf
 1081 06b8 27       		.byte	0x27
 1082 06b9 B4000000 		.4byte	0xb4
 1083 06bd 04       		.byte	0x4
ARM GAS  /tmp/cca0HwEs.s 			page 20


 1084 06be 08       		.uleb128 0x8
 1085 06bf 630C0000 		.4byte	.LASF109
 1086 06c3 0F       		.byte	0xf
 1087 06c4 28       		.byte	0x28
 1088 06c5 B4000000 		.4byte	0xb4
 1089 06c9 05       		.byte	0x5
 1090 06ca 08       		.uleb128 0x8
 1091 06cb C3060000 		.4byte	.LASF110
 1092 06cf 0F       		.byte	0xf
 1093 06d0 29       		.byte	0x29
 1094 06d1 C9000000 		.4byte	0xc9
 1095 06d5 06       		.byte	0x6
 1096 06d6 08       		.uleb128 0x8
 1097 06d7 4D010000 		.4byte	.LASF111
 1098 06db 0F       		.byte	0xf
 1099 06dc 2A       		.byte	0x2a
 1100 06dd B4000000 		.4byte	0xb4
 1101 06e1 08       		.byte	0x8
 1102 06e2 08       		.uleb128 0x8
 1103 06e3 49080000 		.4byte	.LASF112
 1104 06e7 0F       		.byte	0xf
 1105 06e8 2B       		.byte	0x2b
 1106 06e9 B4000000 		.4byte	0xb4
 1107 06ed 09       		.byte	0x9
 1108 06ee 08       		.uleb128 0x8
 1109 06ef C7010000 		.4byte	.LASF113
 1110 06f3 0F       		.byte	0xf
 1111 06f4 2C       		.byte	0x2c
 1112 06f5 B4000000 		.4byte	0xb4
 1113 06f9 0A       		.byte	0xa
 1114 06fa 08       		.uleb128 0x8
 1115 06fb 52040000 		.4byte	.LASF114
 1116 06ff 0F       		.byte	0xf
 1117 0700 2D       		.byte	0x2d
 1118 0701 B4000000 		.4byte	0xb4
 1119 0705 0B       		.byte	0xb
 1120 0706 08       		.uleb128 0x8
 1121 0707 A3000000 		.4byte	.LASF115
 1122 070b 0F       		.byte	0xf
 1123 070c 2E       		.byte	0x2e
 1124 070d B4000000 		.4byte	0xb4
 1125 0711 0C       		.byte	0xc
 1126 0712 08       		.uleb128 0x8
 1127 0713 F8030000 		.4byte	.LASF116
 1128 0717 0F       		.byte	0xf
 1129 0718 2F       		.byte	0x2f
 1130 0719 B4000000 		.4byte	0xb4
 1131 071d 0D       		.byte	0xd
 1132 071e 08       		.uleb128 0x8
 1133 071f 610B0000 		.4byte	.LASF117
 1134 0723 0F       		.byte	0xf
 1135 0724 30       		.byte	0x30
 1136 0725 B4000000 		.4byte	0xb4
 1137 0729 0E       		.byte	0xe
 1138 072a 08       		.uleb128 0x8
 1139 072b 24000000 		.4byte	.LASF118
 1140 072f 0F       		.byte	0xf
ARM GAS  /tmp/cca0HwEs.s 			page 21


 1141 0730 31       		.byte	0x31
 1142 0731 B4000000 		.4byte	0xb4
 1143 0735 0F       		.byte	0xf
 1144 0736 08       		.uleb128 0x8
 1145 0737 9D070000 		.4byte	.LASF119
 1146 073b 0F       		.byte	0xf
 1147 073c 32       		.byte	0x32
 1148 073d B4000000 		.4byte	0xb4
 1149 0741 10       		.byte	0x10
 1150 0742 08       		.uleb128 0x8
 1151 0743 2A020000 		.4byte	.LASF120
 1152 0747 0F       		.byte	0xf
 1153 0748 34       		.byte	0x34
 1154 0749 B4000000 		.4byte	0xb4
 1155 074d 11       		.byte	0x11
 1156 074e 08       		.uleb128 0x8
 1157 074f 1F0A0000 		.4byte	.LASF121
 1158 0753 0F       		.byte	0xf
 1159 0754 35       		.byte	0x35
 1160 0755 B4000000 		.4byte	0xb4
 1161 0759 12       		.byte	0x12
 1162 075a 08       		.uleb128 0x8
 1163 075b 4D090000 		.4byte	.LASF122
 1164 075f 0F       		.byte	0xf
 1165 0760 36       		.byte	0x36
 1166 0761 B4000000 		.4byte	0xb4
 1167 0765 13       		.byte	0x13
 1168 0766 08       		.uleb128 0x8
 1169 0767 6E060000 		.4byte	.LASF123
 1170 076b 0F       		.byte	0xf
 1171 076c 37       		.byte	0x37
 1172 076d B4000000 		.4byte	0xb4
 1173 0771 14       		.byte	0x14
 1174 0772 08       		.uleb128 0x8
 1175 0773 87090000 		.4byte	.LASF124
 1176 0777 0F       		.byte	0xf
 1177 0778 39       		.byte	0x39
 1178 0779 B4000000 		.4byte	0xb4
 1179 077d 15       		.byte	0x15
 1180 077e 00       		.byte	0
 1181 077f 17       		.uleb128 0x17
 1182 0780 77060000 		.4byte	0x677
 1183 0784 8F070000 		.4byte	0x78f
 1184 0788 18       		.uleb128 0x18
 1185 0789 A8030000 		.4byte	0x3a8
 1186 078d 03       		.byte	0x3
 1187 078e 00       		.byte	0
 1188 078f 03       		.uleb128 0x3
 1189 0790 430C0000 		.4byte	.LASF125
 1190 0794 0F       		.byte	0xf
 1191 0795 3A       		.byte	0x3a
 1192 0796 9E060000 		.4byte	0x69e
 1193 079a 06       		.uleb128 0x6
 1194 079b 8F070000 		.4byte	0x78f
 1195 079f 13       		.uleb128 0x13
 1196 07a0 76000000 		.4byte	.LASF126
 1197 07a4 0F       		.byte	0xf
ARM GAS  /tmp/cca0HwEs.s 			page 22


 1198 07a5 77       		.byte	0x77
 1199 07a6 9A070000 		.4byte	0x79a
 1200 07aa 03       		.uleb128 0x3
 1201 07ab D3030000 		.4byte	.LASF127
 1202 07af 10       		.byte	0x10
 1203 07b0 30       		.byte	0x30
 1204 07b1 B5070000 		.4byte	0x7b5
 1205 07b5 07       		.uleb128 0x7
 1206 07b6 D3030000 		.4byte	.LASF127
 1207 07ba 24       		.byte	0x24
 1208 07bb 10       		.byte	0x10
 1209 07bc 3E       		.byte	0x3e
 1210 07bd 22080000 		.4byte	0x822
 1211 07c1 08       		.uleb128 0x8
 1212 07c2 A00A0000 		.4byte	.LASF128
 1213 07c6 10       		.byte	0x10
 1214 07c7 3F       		.byte	0x3f
 1215 07c8 BD020000 		.4byte	0x2bd
 1216 07cc 00       		.byte	0
 1217 07cd 08       		.uleb128 0x8
 1218 07ce 00050000 		.4byte	.LASF129
 1219 07d2 10       		.byte	0x10
 1220 07d3 40       		.byte	0x40
 1221 07d4 2C000000 		.4byte	0x2c
 1222 07d8 08       		.byte	0x8
 1223 07d9 08       		.uleb128 0x8
 1224 07da DB010000 		.4byte	.LASF130
 1225 07de 10       		.byte	0x10
 1226 07df 41       		.byte	0x41
 1227 07e0 44080000 		.4byte	0x844
 1228 07e4 0C       		.byte	0xc
 1229 07e5 08       		.uleb128 0x8
 1230 07e6 A6010000 		.4byte	.LASF131
 1231 07ea 10       		.byte	0x10
 1232 07eb 42       		.byte	0x42
 1233 07ec 44080000 		.4byte	0x844
 1234 07f0 10       		.byte	0x10
 1235 07f1 08       		.uleb128 0x8
 1236 07f2 BE050000 		.4byte	.LASF132
 1237 07f6 10       		.byte	0x10
 1238 07f7 44       		.byte	0x44
 1239 07f8 44080000 		.4byte	0x844
 1240 07fc 14       		.byte	0x14
 1241 07fd 08       		.uleb128 0x8
 1242 07fe 22020000 		.4byte	.LASF133
 1243 0802 10       		.byte	0x10
 1244 0803 45       		.byte	0x45
 1245 0804 44080000 		.4byte	0x844
 1246 0808 18       		.byte	0x18
 1247 0809 08       		.uleb128 0x8
 1248 080a ED010000 		.4byte	.LASF134
 1249 080e 10       		.byte	0x10
 1250 080f 46       		.byte	0x46
 1251 0810 22080000 		.4byte	0x822
 1252 0814 1C       		.byte	0x1c
 1253 0815 08       		.uleb128 0x8
 1254 0816 45030000 		.4byte	.LASF135
ARM GAS  /tmp/cca0HwEs.s 			page 23


 1255 081a 10       		.byte	0x10
 1256 081b 47       		.byte	0x47
 1257 081c F3020000 		.4byte	0x2f3
 1258 0820 20       		.byte	0x20
 1259 0821 00       		.byte	0
 1260 0822 03       		.uleb128 0x3
 1261 0823 4E070000 		.4byte	.LASF136
 1262 0827 10       		.byte	0x10
 1263 0828 33       		.byte	0x33
 1264 0829 2D080000 		.4byte	0x82d
 1265 082d 0B       		.uleb128 0xb
 1266 082e 04       		.byte	0x4
 1267 082f 33080000 		.4byte	0x833
 1268 0833 11       		.uleb128 0x11
 1269 0834 3E080000 		.4byte	0x83e
 1270 0838 12       		.uleb128 0x12
 1271 0839 3E080000 		.4byte	0x83e
 1272 083d 00       		.byte	0
 1273 083e 0B       		.uleb128 0xb
 1274 083f 04       		.byte	0x4
 1275 0840 AA070000 		.4byte	0x7aa
 1276 0844 0B       		.uleb128 0xb
 1277 0845 04       		.byte	0x4
 1278 0846 B4000000 		.4byte	0xb4
 1279 084a 03       		.uleb128 0x3
 1280 084b 580C0000 		.4byte	.LASF137
 1281 084f 10       		.byte	0x10
 1282 0850 7B       		.byte	0x7b
 1283 0851 AA070000 		.4byte	0x7aa
 1284 0855 03       		.uleb128 0x3
 1285 0856 2D040000 		.4byte	.LASF138
 1286 085a 10       		.byte	0x10
 1287 085b EE       		.byte	0xee
 1288 085c AA070000 		.4byte	0x7aa
 1289 0860 16       		.uleb128 0x16
 1290 0861 2C000000 		.4byte	0x2c
 1291 0865 79080000 		.4byte	0x879
 1292 0869 12       		.uleb128 0x12
 1293 086a F3020000 		.4byte	0x2f3
 1294 086e 12       		.uleb128 0x12
 1295 086f 79080000 		.4byte	0x879
 1296 0873 12       		.uleb128 0x12
 1297 0874 2C000000 		.4byte	0x2c
 1298 0878 00       		.byte	0
 1299 0879 0B       		.uleb128 0xb
 1300 087a 04       		.byte	0x4
 1301 087b C4000000 		.4byte	0xc4
 1302 087f 0B       		.uleb128 0xb
 1303 0880 04       		.byte	0x4
 1304 0881 60080000 		.4byte	0x860
 1305 0885 16       		.uleb128 0x16
 1306 0886 2C000000 		.4byte	0x2c
 1307 088a 9E080000 		.4byte	0x89e
 1308 088e 12       		.uleb128 0x12
 1309 088f F3020000 		.4byte	0x2f3
 1310 0893 12       		.uleb128 0x12
 1311 0894 44080000 		.4byte	0x844
ARM GAS  /tmp/cca0HwEs.s 			page 24


 1312 0898 12       		.uleb128 0x12
 1313 0899 2C000000 		.4byte	0x2c
 1314 089d 00       		.byte	0
 1315 089e 0B       		.uleb128 0xb
 1316 089f 04       		.byte	0x4
 1317 08a0 85080000 		.4byte	0x885
 1318 08a4 16       		.uleb128 0x16
 1319 08a5 52010000 		.4byte	0x152
 1320 08a9 B8080000 		.4byte	0x8b8
 1321 08ad 12       		.uleb128 0x12
 1322 08ae F3020000 		.4byte	0x2f3
 1323 08b2 12       		.uleb128 0x12
 1324 08b3 B4000000 		.4byte	0xb4
 1325 08b7 00       		.byte	0
 1326 08b8 0B       		.uleb128 0xb
 1327 08b9 04       		.byte	0x4
 1328 08ba A4080000 		.4byte	0x8a4
 1329 08be 17       		.uleb128 0x17
 1330 08bf F5020000 		.4byte	0x2f5
 1331 08c3 CE080000 		.4byte	0x8ce
 1332 08c7 18       		.uleb128 0x18
 1333 08c8 A8030000 		.4byte	0x3a8
 1334 08cc 17       		.byte	0x17
 1335 08cd 00       		.byte	0
 1336 08ce 13       		.uleb128 0x13
 1337 08cf A30B0000 		.4byte	.LASF139
 1338 08d3 11       		.byte	0x11
 1339 08d4 82       		.byte	0x82
 1340 08d5 BE080000 		.4byte	0x8be
 1341 08d9 17       		.uleb128 0x17
 1342 08da E9000000 		.4byte	0xe9
 1343 08de E9080000 		.4byte	0x8e9
 1344 08e2 18       		.uleb128 0x18
 1345 08e3 A8030000 		.4byte	0x3a8
 1346 08e7 01       		.byte	0x1
 1347 08e8 00       		.byte	0
 1348 08e9 19       		.uleb128 0x19
 1349 08ea 24070000 		.4byte	.LASF140
 1350 08ee 12       		.byte	0x12
 1351 08ef 0706     		.2byte	0x607
 1352 08f1 E4000000 		.4byte	0xe4
 1353 08f5 13       		.uleb128 0x13
 1354 08f6 86050000 		.4byte	.LASF141
 1355 08fa 13       		.byte	0x13
 1356 08fb 23       		.byte	0x23
 1357 08fc E9000000 		.4byte	0xe9
 1358 0900 17       		.uleb128 0x17
 1359 0901 E9000000 		.4byte	0xe9
 1360 0905 10090000 		.4byte	0x910
 1361 0909 18       		.uleb128 0x18
 1362 090a A8030000 		.4byte	0x3a8
 1363 090e 0B       		.byte	0xb
 1364 090f 00       		.byte	0
 1365 0910 0A       		.uleb128 0xa
 1366 0911 04       		.byte	0x4
 1367 0912 14       		.byte	0x14
 1368 0913 C7       		.byte	0xc7
ARM GAS  /tmp/cca0HwEs.s 			page 25


 1369 0914 31090000 		.4byte	0x931
 1370 0918 08       		.uleb128 0x8
 1371 0919 85060000 		.4byte	.LASF142
 1372 091d 14       		.byte	0x14
 1373 091e C8       		.byte	0xc8
 1374 091f D4000000 		.4byte	0xd4
 1375 0923 00       		.byte	0
 1376 0924 08       		.uleb128 0x8
 1377 0925 7D060000 		.4byte	.LASF143
 1378 0929 14       		.byte	0x14
 1379 092a C9       		.byte	0xc9
 1380 092b D4000000 		.4byte	0xd4
 1381 092f 02       		.byte	0x2
 1382 0930 00       		.byte	0
 1383 0931 0A       		.uleb128 0xa
 1384 0932 04       		.byte	0x4
 1385 0933 14       		.byte	0x14
 1386 0934 CB       		.byte	0xcb
 1387 0935 6A090000 		.4byte	0x96a
 1388 0939 08       		.uleb128 0x8
 1389 093a 4E060000 		.4byte	.LASF144
 1390 093e 14       		.byte	0x14
 1391 093f CC       		.byte	0xcc
 1392 0940 BF000000 		.4byte	0xbf
 1393 0944 00       		.byte	0
 1394 0945 08       		.uleb128 0x8
 1395 0946 56060000 		.4byte	.LASF145
 1396 094a 14       		.byte	0x14
 1397 094b CD       		.byte	0xcd
 1398 094c BF000000 		.4byte	0xbf
 1399 0950 01       		.byte	0x1
 1400 0951 08       		.uleb128 0x8
 1401 0952 5E060000 		.4byte	.LASF146
 1402 0956 14       		.byte	0x14
 1403 0957 CE       		.byte	0xce
 1404 0958 BF000000 		.4byte	0xbf
 1405 095c 02       		.byte	0x2
 1406 095d 08       		.uleb128 0x8
 1407 095e 66060000 		.4byte	.LASF147
 1408 0962 14       		.byte	0x14
 1409 0963 CF       		.byte	0xcf
 1410 0964 BF000000 		.4byte	0xbf
 1411 0968 03       		.byte	0x3
 1412 0969 00       		.byte	0
 1413 096a 14       		.uleb128 0x14
 1414 096b 04       		.byte	0x4
 1415 096c 14       		.byte	0x14
 1416 096d C5       		.byte	0xc5
 1417 096e 88090000 		.4byte	0x988
 1418 0972 15       		.uleb128 0x15
 1419 0973 46090000 		.4byte	.LASF148
 1420 0977 14       		.byte	0x14
 1421 0978 C6       		.byte	0xc6
 1422 0979 F4000000 		.4byte	0xf4
 1423 097d 1A       		.uleb128 0x1a
 1424 097e 10090000 		.4byte	0x910
 1425 0982 1A       		.uleb128 0x1a
ARM GAS  /tmp/cca0HwEs.s 			page 26


 1426 0983 31090000 		.4byte	0x931
 1427 0987 00       		.byte	0
 1428 0988 0A       		.uleb128 0xa
 1429 0989 04       		.byte	0x4
 1430 098a 14       		.byte	0x14
 1431 098b D5       		.byte	0xd5
 1432 098c A9090000 		.4byte	0x9a9
 1433 0990 08       		.uleb128 0x8
 1434 0991 40080000 		.4byte	.LASF149
 1435 0995 14       		.byte	0x14
 1436 0996 D6       		.byte	0xd6
 1437 0997 D4000000 		.4byte	0xd4
 1438 099b 00       		.byte	0
 1439 099c 08       		.uleb128 0x8
 1440 099d 30080000 		.4byte	.LASF150
 1441 09a1 14       		.byte	0x14
 1442 09a2 D7       		.byte	0xd7
 1443 09a3 D4000000 		.4byte	0xd4
 1444 09a7 02       		.byte	0x2
 1445 09a8 00       		.byte	0
 1446 09a9 0A       		.uleb128 0xa
 1447 09aa 04       		.byte	0x4
 1448 09ab 14       		.byte	0x14
 1449 09ac D9       		.byte	0xd9
 1450 09ad E2090000 		.4byte	0x9e2
 1451 09b1 08       		.uleb128 0x8
 1452 09b2 C2070000 		.4byte	.LASF151
 1453 09b6 14       		.byte	0x14
 1454 09b7 DA       		.byte	0xda
 1455 09b8 BF000000 		.4byte	0xbf
 1456 09bc 00       		.byte	0
 1457 09bd 08       		.uleb128 0x8
 1458 09be CB070000 		.4byte	.LASF152
 1459 09c2 14       		.byte	0x14
 1460 09c3 DB       		.byte	0xdb
 1461 09c4 BF000000 		.4byte	0xbf
 1462 09c8 01       		.byte	0x1
 1463 09c9 08       		.uleb128 0x8
 1464 09ca D4070000 		.4byte	.LASF153
 1465 09ce 14       		.byte	0x14
 1466 09cf DC       		.byte	0xdc
 1467 09d0 BF000000 		.4byte	0xbf
 1468 09d4 02       		.byte	0x2
 1469 09d5 08       		.uleb128 0x8
 1470 09d6 DD070000 		.4byte	.LASF154
 1471 09da 14       		.byte	0x14
 1472 09db DD       		.byte	0xdd
 1473 09dc BF000000 		.4byte	0xbf
 1474 09e0 03       		.byte	0x3
 1475 09e1 00       		.byte	0
 1476 09e2 14       		.uleb128 0x14
 1477 09e3 04       		.byte	0x4
 1478 09e4 14       		.byte	0x14
 1479 09e5 D3       		.byte	0xd3
 1480 09e6 000A0000 		.4byte	0xa00
 1481 09ea 15       		.uleb128 0x15
 1482 09eb F4050000 		.4byte	.LASF155
ARM GAS  /tmp/cca0HwEs.s 			page 27


 1483 09ef 14       		.byte	0x14
 1484 09f0 D4       		.byte	0xd4
 1485 09f1 F4000000 		.4byte	0xf4
 1486 09f5 1A       		.uleb128 0x1a
 1487 09f6 88090000 		.4byte	0x988
 1488 09fa 1A       		.uleb128 0x1a
 1489 09fb A9090000 		.4byte	0x9a9
 1490 09ff 00       		.byte	0
 1491 0a00 0A       		.uleb128 0xa
 1492 0a01 04       		.byte	0x4
 1493 0a02 14       		.byte	0x14
 1494 0a03 E2       		.byte	0xe2
 1495 0a04 210A0000 		.4byte	0xa21
 1496 0a08 08       		.uleb128 0x8
 1497 0a09 7E050000 		.4byte	.LASF156
 1498 0a0d 14       		.byte	0x14
 1499 0a0e E3       		.byte	0xe3
 1500 0a0f D4000000 		.4byte	0xd4
 1501 0a13 00       		.byte	0
 1502 0a14 08       		.uleb128 0x8
 1503 0a15 62050000 		.4byte	.LASF157
 1504 0a19 14       		.byte	0x14
 1505 0a1a E4       		.byte	0xe4
 1506 0a1b D4000000 		.4byte	0xd4
 1507 0a1f 02       		.byte	0x2
 1508 0a20 00       		.byte	0
 1509 0a21 0A       		.uleb128 0xa
 1510 0a22 04       		.byte	0x4
 1511 0a23 14       		.byte	0x14
 1512 0a24 E6       		.byte	0xe6
 1513 0a25 5A0A0000 		.4byte	0xa5a
 1514 0a29 08       		.uleb128 0x8
 1515 0a2a 11050000 		.4byte	.LASF158
 1516 0a2e 14       		.byte	0x14
 1517 0a2f E7       		.byte	0xe7
 1518 0a30 BF000000 		.4byte	0xbf
 1519 0a34 00       		.byte	0
 1520 0a35 08       		.uleb128 0x8
 1521 0a36 19050000 		.4byte	.LASF159
 1522 0a3a 14       		.byte	0x14
 1523 0a3b E8       		.byte	0xe8
 1524 0a3c BF000000 		.4byte	0xbf
 1525 0a40 01       		.byte	0x1
 1526 0a41 08       		.uleb128 0x8
 1527 0a42 21050000 		.4byte	.LASF160
 1528 0a46 14       		.byte	0x14
 1529 0a47 E9       		.byte	0xe9
 1530 0a48 BF000000 		.4byte	0xbf
 1531 0a4c 02       		.byte	0x2
 1532 0a4d 08       		.uleb128 0x8
 1533 0a4e 29050000 		.4byte	.LASF161
 1534 0a52 14       		.byte	0x14
 1535 0a53 EA       		.byte	0xea
 1536 0a54 BF000000 		.4byte	0xbf
 1537 0a58 03       		.byte	0x3
 1538 0a59 00       		.byte	0
 1539 0a5a 14       		.uleb128 0x14
ARM GAS  /tmp/cca0HwEs.s 			page 28


 1540 0a5b 04       		.byte	0x4
 1541 0a5c 14       		.byte	0x14
 1542 0a5d E0       		.byte	0xe0
 1543 0a5e 780A0000 		.4byte	0xa78
 1544 0a62 15       		.uleb128 0x15
 1545 0a63 180A0000 		.4byte	.LASF162
 1546 0a67 14       		.byte	0x14
 1547 0a68 E1       		.byte	0xe1
 1548 0a69 F4000000 		.4byte	0xf4
 1549 0a6d 1A       		.uleb128 0x1a
 1550 0a6e 000A0000 		.4byte	0xa00
 1551 0a72 1A       		.uleb128 0x1a
 1552 0a73 210A0000 		.4byte	0xa21
 1553 0a77 00       		.byte	0
 1554 0a78 0A       		.uleb128 0xa
 1555 0a79 04       		.byte	0x4
 1556 0a7a 14       		.byte	0x14
 1557 0a7b EF       		.byte	0xef
 1558 0a7c 990A0000 		.4byte	0xa99
 1559 0a80 08       		.uleb128 0x8
 1560 0a81 4A040000 		.4byte	.LASF163
 1561 0a85 14       		.byte	0x14
 1562 0a86 F0       		.byte	0xf0
 1563 0a87 D4000000 		.4byte	0xd4
 1564 0a8b 00       		.byte	0
 1565 0a8c 08       		.uleb128 0x8
 1566 0a8d 42040000 		.4byte	.LASF164
 1567 0a91 14       		.byte	0x14
 1568 0a92 F1       		.byte	0xf1
 1569 0a93 D4000000 		.4byte	0xd4
 1570 0a97 02       		.byte	0x2
 1571 0a98 00       		.byte	0
 1572 0a99 0A       		.uleb128 0xa
 1573 0a9a 04       		.byte	0x4
 1574 0a9b 14       		.byte	0x14
 1575 0a9c F3       		.byte	0xf3
 1576 0a9d D20A0000 		.4byte	0xad2
 1577 0aa1 08       		.uleb128 0x8
 1578 0aa2 15040000 		.4byte	.LASF165
 1579 0aa6 14       		.byte	0x14
 1580 0aa7 F4       		.byte	0xf4
 1581 0aa8 BF000000 		.4byte	0xbf
 1582 0aac 00       		.byte	0
 1583 0aad 08       		.uleb128 0x8
 1584 0aae 1D040000 		.4byte	.LASF166
 1585 0ab2 14       		.byte	0x14
 1586 0ab3 F5       		.byte	0xf5
 1587 0ab4 BF000000 		.4byte	0xbf
 1588 0ab8 01       		.byte	0x1
 1589 0ab9 08       		.uleb128 0x8
 1590 0aba 25040000 		.4byte	.LASF167
 1591 0abe 14       		.byte	0x14
 1592 0abf F6       		.byte	0xf6
 1593 0ac0 BF000000 		.4byte	0xbf
 1594 0ac4 02       		.byte	0x2
 1595 0ac5 08       		.uleb128 0x8
 1596 0ac6 9D0C0000 		.4byte	.LASF168
ARM GAS  /tmp/cca0HwEs.s 			page 29


 1597 0aca 14       		.byte	0x14
 1598 0acb F7       		.byte	0xf7
 1599 0acc BF000000 		.4byte	0xbf
 1600 0ad0 03       		.byte	0x3
 1601 0ad1 00       		.byte	0
 1602 0ad2 14       		.uleb128 0x14
 1603 0ad3 04       		.byte	0x4
 1604 0ad4 14       		.byte	0x14
 1605 0ad5 ED       		.byte	0xed
 1606 0ad6 F00A0000 		.4byte	0xaf0
 1607 0ada 15       		.uleb128 0x15
 1608 0adb F8060000 		.4byte	.LASF169
 1609 0adf 14       		.byte	0x14
 1610 0ae0 EE       		.byte	0xee
 1611 0ae1 F4000000 		.4byte	0xf4
 1612 0ae5 1A       		.uleb128 0x1a
 1613 0ae6 780A0000 		.4byte	0xa78
 1614 0aea 1A       		.uleb128 0x1a
 1615 0aeb 990A0000 		.4byte	0xa99
 1616 0aef 00       		.byte	0
 1617 0af0 0A       		.uleb128 0xa
 1618 0af1 04       		.byte	0x4
 1619 0af2 14       		.byte	0x14
 1620 0af3 FC       		.byte	0xfc
 1621 0af4 110B0000 		.4byte	0xb11
 1622 0af8 08       		.uleb128 0x8
 1623 0af9 74080000 		.4byte	.LASF170
 1624 0afd 14       		.byte	0x14
 1625 0afe FD       		.byte	0xfd
 1626 0aff D4000000 		.4byte	0xd4
 1627 0b03 00       		.byte	0
 1628 0b04 08       		.uleb128 0x8
 1629 0b05 6C080000 		.4byte	.LASF171
 1630 0b09 14       		.byte	0x14
 1631 0b0a FE       		.byte	0xfe
 1632 0b0b D4000000 		.4byte	0xd4
 1633 0b0f 02       		.byte	0x2
 1634 0b10 00       		.byte	0
 1635 0b11 1B       		.uleb128 0x1b
 1636 0b12 04       		.byte	0x4
 1637 0b13 14       		.byte	0x14
 1638 0b14 0001     		.2byte	0x100
 1639 0b16 4F0B0000 		.4byte	0xb4f
 1640 0b1a 0F       		.uleb128 0xf
 1641 0b1b 09080000 		.4byte	.LASF172
 1642 0b1f 14       		.byte	0x14
 1643 0b20 0101     		.2byte	0x101
 1644 0b22 BF000000 		.4byte	0xbf
 1645 0b26 00       		.byte	0
 1646 0b27 0F       		.uleb128 0xf
 1647 0b28 11080000 		.4byte	.LASF173
 1648 0b2c 14       		.byte	0x14
 1649 0b2d 0201     		.2byte	0x102
 1650 0b2f BF000000 		.4byte	0xbf
 1651 0b33 01       		.byte	0x1
 1652 0b34 0F       		.uleb128 0xf
 1653 0b35 19080000 		.4byte	.LASF174
ARM GAS  /tmp/cca0HwEs.s 			page 30


 1654 0b39 14       		.byte	0x14
 1655 0b3a 0301     		.2byte	0x103
 1656 0b3c BF000000 		.4byte	0xbf
 1657 0b40 02       		.byte	0x2
 1658 0b41 0F       		.uleb128 0xf
 1659 0b42 21080000 		.4byte	.LASF175
 1660 0b46 14       		.byte	0x14
 1661 0b47 0401     		.2byte	0x104
 1662 0b49 BF000000 		.4byte	0xbf
 1663 0b4d 03       		.byte	0x3
 1664 0b4e 00       		.byte	0
 1665 0b4f 14       		.uleb128 0x14
 1666 0b50 04       		.byte	0x4
 1667 0b51 14       		.byte	0x14
 1668 0b52 FA       		.byte	0xfa
 1669 0b53 6D0B0000 		.4byte	0xb6d
 1670 0b57 15       		.uleb128 0x15
 1671 0b58 69090000 		.4byte	.LASF176
 1672 0b5c 14       		.byte	0x14
 1673 0b5d FB       		.byte	0xfb
 1674 0b5e F4000000 		.4byte	0xf4
 1675 0b62 1A       		.uleb128 0x1a
 1676 0b63 F00A0000 		.4byte	0xaf0
 1677 0b67 1A       		.uleb128 0x1a
 1678 0b68 110B0000 		.4byte	0xb11
 1679 0b6c 00       		.byte	0
 1680 0b6d 0A       		.uleb128 0xa
 1681 0b6e 20       		.byte	0x20
 1682 0b6f 14       		.byte	0x14
 1683 0b70 C3       		.byte	0xc3
 1684 0b71 A00B0000 		.4byte	0xba0
 1685 0b75 1C       		.uleb128 0x1c
 1686 0b76 6A090000 		.4byte	0x96a
 1687 0b7a 00       		.byte	0
 1688 0b7b 08       		.uleb128 0x8
 1689 0b7c 19030000 		.4byte	.LASF177
 1690 0b80 14       		.byte	0x14
 1691 0b81 D2       		.byte	0xd2
 1692 0b82 A00B0000 		.4byte	0xba0
 1693 0b86 04       		.byte	0x4
 1694 0b87 1C       		.uleb128 0x1c
 1695 0b88 E2090000 		.4byte	0x9e2
 1696 0b8c 10       		.byte	0x10
 1697 0b8d 1C       		.uleb128 0x1c
 1698 0b8e 5A0A0000 		.4byte	0xa5a
 1699 0b92 14       		.byte	0x14
 1700 0b93 1C       		.uleb128 0x1c
 1701 0b94 D20A0000 		.4byte	0xad2
 1702 0b98 18       		.byte	0x18
 1703 0b99 1C       		.uleb128 0x1c
 1704 0b9a 4F0B0000 		.4byte	0xb4f
 1705 0b9e 1C       		.byte	0x1c
 1706 0b9f 00       		.byte	0
 1707 0ba0 17       		.uleb128 0x17
 1708 0ba1 E9000000 		.4byte	0xe9
 1709 0ba5 B00B0000 		.4byte	0xbb0
 1710 0ba9 18       		.uleb128 0x18
ARM GAS  /tmp/cca0HwEs.s 			page 31


 1711 0baa A8030000 		.4byte	0x3a8
 1712 0bae 02       		.byte	0x2
 1713 0baf 00       		.byte	0
 1714 0bb0 10       		.uleb128 0x10
 1715 0bb1 040C0000 		.4byte	.LASF178
 1716 0bb5 14       		.byte	0x14
 1717 0bb6 0701     		.2byte	0x107
 1718 0bb8 6D0B0000 		.4byte	0xb6d
 1719 0bbc 1B       		.uleb128 0x1b
 1720 0bbd 74       		.byte	0x74
 1721 0bbe 14       		.byte	0x14
 1722 0bbf 1C01     		.2byte	0x11c
 1723 0bc1 9F0C0000 		.4byte	0xc9f
 1724 0bc5 0E       		.uleb128 0xe
 1725 0bc6 495200   		.ascii	"IR\000"
 1726 0bc9 14       		.byte	0x14
 1727 0bca 1E01     		.2byte	0x11e
 1728 0bcc F4000000 		.4byte	0xf4
 1729 0bd0 00       		.byte	0
 1730 0bd1 0E       		.uleb128 0xe
 1731 0bd2 54435200 		.ascii	"TCR\000"
 1732 0bd6 14       		.byte	0x14
 1733 0bd7 1F01     		.2byte	0x11f
 1734 0bd9 F4000000 		.4byte	0xf4
 1735 0bdd 04       		.byte	0x4
 1736 0bde 0E       		.uleb128 0xe
 1737 0bdf 544300   		.ascii	"TC\000"
 1738 0be2 14       		.byte	0x14
 1739 0be3 2001     		.2byte	0x120
 1740 0be5 F4000000 		.4byte	0xf4
 1741 0be9 08       		.byte	0x8
 1742 0bea 0E       		.uleb128 0xe
 1743 0beb 505200   		.ascii	"PR\000"
 1744 0bee 14       		.byte	0x14
 1745 0bef 2101     		.2byte	0x121
 1746 0bf1 F4000000 		.4byte	0xf4
 1747 0bf5 0C       		.byte	0xc
 1748 0bf6 0E       		.uleb128 0xe
 1749 0bf7 504300   		.ascii	"PC\000"
 1750 0bfa 14       		.byte	0x14
 1751 0bfb 2201     		.2byte	0x122
 1752 0bfd F4000000 		.4byte	0xf4
 1753 0c01 10       		.byte	0x10
 1754 0c02 0E       		.uleb128 0xe
 1755 0c03 4D435200 		.ascii	"MCR\000"
 1756 0c07 14       		.byte	0x14
 1757 0c08 2301     		.2byte	0x123
 1758 0c0a F4000000 		.4byte	0xf4
 1759 0c0e 14       		.byte	0x14
 1760 0c0f 0E       		.uleb128 0xe
 1761 0c10 4D523000 		.ascii	"MR0\000"
 1762 0c14 14       		.byte	0x14
 1763 0c15 2401     		.2byte	0x124
 1764 0c17 F4000000 		.4byte	0xf4
 1765 0c1b 18       		.byte	0x18
 1766 0c1c 0E       		.uleb128 0xe
 1767 0c1d 4D523100 		.ascii	"MR1\000"
ARM GAS  /tmp/cca0HwEs.s 			page 32


 1768 0c21 14       		.byte	0x14
 1769 0c22 2501     		.2byte	0x125
 1770 0c24 F4000000 		.4byte	0xf4
 1771 0c28 1C       		.byte	0x1c
 1772 0c29 0E       		.uleb128 0xe
 1773 0c2a 4D523200 		.ascii	"MR2\000"
 1774 0c2e 14       		.byte	0x14
 1775 0c2f 2601     		.2byte	0x126
 1776 0c31 F4000000 		.4byte	0xf4
 1777 0c35 20       		.byte	0x20
 1778 0c36 0E       		.uleb128 0xe
 1779 0c37 4D523300 		.ascii	"MR3\000"
 1780 0c3b 14       		.byte	0x14
 1781 0c3c 2701     		.2byte	0x127
 1782 0c3e F4000000 		.4byte	0xf4
 1783 0c42 24       		.byte	0x24
 1784 0c43 0E       		.uleb128 0xe
 1785 0c44 43435200 		.ascii	"CCR\000"
 1786 0c48 14       		.byte	0x14
 1787 0c49 2801     		.2byte	0x128
 1788 0c4b F4000000 		.4byte	0xf4
 1789 0c4f 28       		.byte	0x28
 1790 0c50 0E       		.uleb128 0xe
 1791 0c51 43523000 		.ascii	"CR0\000"
 1792 0c55 14       		.byte	0x14
 1793 0c56 2901     		.2byte	0x129
 1794 0c58 F9000000 		.4byte	0xf9
 1795 0c5c 2C       		.byte	0x2c
 1796 0c5d 0E       		.uleb128 0xe
 1797 0c5e 43523100 		.ascii	"CR1\000"
 1798 0c62 14       		.byte	0x14
 1799 0c63 2A01     		.2byte	0x12a
 1800 0c65 F9000000 		.4byte	0xf9
 1801 0c69 30       		.byte	0x30
 1802 0c6a 0F       		.uleb128 0xf
 1803 0c6b 19030000 		.4byte	.LASF177
 1804 0c6f 14       		.byte	0x14
 1805 0c70 2B01     		.2byte	0x12b
 1806 0c72 D9080000 		.4byte	0x8d9
 1807 0c76 34       		.byte	0x34
 1808 0c77 0E       		.uleb128 0xe
 1809 0c78 454D5200 		.ascii	"EMR\000"
 1810 0c7c 14       		.byte	0x14
 1811 0c7d 2C01     		.2byte	0x12c
 1812 0c7f F4000000 		.4byte	0xf4
 1813 0c83 3C       		.byte	0x3c
 1814 0c84 0F       		.uleb128 0xf
 1815 0c85 23030000 		.4byte	.LASF179
 1816 0c89 14       		.byte	0x14
 1817 0c8a 2D01     		.2byte	0x12d
 1818 0c8c 00090000 		.4byte	0x900
 1819 0c90 40       		.byte	0x40
 1820 0c91 0F       		.uleb128 0xf
 1821 0c92 F1000000 		.4byte	.LASF180
 1822 0c96 14       		.byte	0x14
 1823 0c97 2E01     		.2byte	0x12e
 1824 0c99 F4000000 		.4byte	0xf4
ARM GAS  /tmp/cca0HwEs.s 			page 33


 1825 0c9d 70       		.byte	0x70
 1826 0c9e 00       		.byte	0
 1827 0c9f 10       		.uleb128 0x10
 1828 0ca0 59090000 		.4byte	.LASF181
 1829 0ca4 14       		.byte	0x14
 1830 0ca5 2F01     		.2byte	0x12f
 1831 0ca7 BC0B0000 		.4byte	0xbbc
 1832 0cab 1D       		.uleb128 0x1d
 1833 0cac 04       		.byte	0x4
 1834 0cad 14       		.byte	0x14
 1835 0cae 5201     		.2byte	0x152
 1836 0cb0 D90C0000 		.4byte	0xcd9
 1837 0cb4 1E       		.uleb128 0x1e
 1838 0cb5 52425200 		.ascii	"RBR\000"
 1839 0cb9 14       		.byte	0x14
 1840 0cba 5301     		.2byte	0x153
 1841 0cbc F9000000 		.4byte	0xf9
 1842 0cc0 1E       		.uleb128 0x1e
 1843 0cc1 54485200 		.ascii	"THR\000"
 1844 0cc5 14       		.byte	0x14
 1845 0cc6 5401     		.2byte	0x154
 1846 0cc8 F4000000 		.4byte	0xf4
 1847 0ccc 1E       		.uleb128 0x1e
 1848 0ccd 444C4C00 		.ascii	"DLL\000"
 1849 0cd1 14       		.byte	0x14
 1850 0cd2 5501     		.2byte	0x155
 1851 0cd4 F4000000 		.4byte	0xf4
 1852 0cd8 00       		.byte	0
 1853 0cd9 1D       		.uleb128 0x1d
 1854 0cda 04       		.byte	0x4
 1855 0cdb 14       		.byte	0x14
 1856 0cdc 5701     		.2byte	0x157
 1857 0cde FB0C0000 		.4byte	0xcfb
 1858 0ce2 1E       		.uleb128 0x1e
 1859 0ce3 444C4D00 		.ascii	"DLM\000"
 1860 0ce7 14       		.byte	0x14
 1861 0ce8 5801     		.2byte	0x158
 1862 0cea F4000000 		.4byte	0xf4
 1863 0cee 1E       		.uleb128 0x1e
 1864 0cef 49455200 		.ascii	"IER\000"
 1865 0cf3 14       		.byte	0x14
 1866 0cf4 5901     		.2byte	0x159
 1867 0cf6 F4000000 		.4byte	0xf4
 1868 0cfa 00       		.byte	0
 1869 0cfb 1D       		.uleb128 0x1d
 1870 0cfc 04       		.byte	0x4
 1871 0cfd 14       		.byte	0x14
 1872 0cfe 5B01     		.2byte	0x15b
 1873 0d00 1D0D0000 		.4byte	0xd1d
 1874 0d04 1E       		.uleb128 0x1e
 1875 0d05 49495200 		.ascii	"IIR\000"
 1876 0d09 14       		.byte	0x14
 1877 0d0a 5C01     		.2byte	0x15c
 1878 0d0c F9000000 		.4byte	0xf9
 1879 0d10 1E       		.uleb128 0x1e
 1880 0d11 46435200 		.ascii	"FCR\000"
 1881 0d15 14       		.byte	0x14
ARM GAS  /tmp/cca0HwEs.s 			page 34


 1882 0d16 5D01     		.2byte	0x15d
 1883 0d18 F4000000 		.4byte	0xf4
 1884 0d1c 00       		.byte	0
 1885 0d1d 1B       		.uleb128 0x1b
 1886 0d1e 34       		.byte	0x34
 1887 0d1f 14       		.byte	0x14
 1888 0d20 5001     		.2byte	0x150
 1889 0d22 BB0D0000 		.4byte	0xdbb
 1890 0d26 1C       		.uleb128 0x1c
 1891 0d27 AB0C0000 		.4byte	0xcab
 1892 0d2b 00       		.byte	0
 1893 0d2c 1C       		.uleb128 0x1c
 1894 0d2d D90C0000 		.4byte	0xcd9
 1895 0d31 04       		.byte	0x4
 1896 0d32 1C       		.uleb128 0x1c
 1897 0d33 FB0C0000 		.4byte	0xcfb
 1898 0d37 08       		.byte	0x8
 1899 0d38 0E       		.uleb128 0xe
 1900 0d39 4C435200 		.ascii	"LCR\000"
 1901 0d3d 14       		.byte	0x14
 1902 0d3e 5F01     		.2byte	0x15f
 1903 0d40 F4000000 		.4byte	0xf4
 1904 0d44 0C       		.byte	0xc
 1905 0d45 0F       		.uleb128 0xf
 1906 0d46 19030000 		.4byte	.LASF177
 1907 0d4a 14       		.byte	0x14
 1908 0d4b 6001     		.2byte	0x160
 1909 0d4d E9000000 		.4byte	0xe9
 1910 0d51 10       		.byte	0x10
 1911 0d52 0E       		.uleb128 0xe
 1912 0d53 4C535200 		.ascii	"LSR\000"
 1913 0d57 14       		.byte	0x14
 1914 0d58 6101     		.2byte	0x161
 1915 0d5a F9000000 		.4byte	0xf9
 1916 0d5e 14       		.byte	0x14
 1917 0d5f 0F       		.uleb128 0xf
 1918 0d60 23030000 		.4byte	.LASF179
 1919 0d64 14       		.byte	0x14
 1920 0d65 6201     		.2byte	0x162
 1921 0d67 E9000000 		.4byte	0xe9
 1922 0d6b 18       		.byte	0x18
 1923 0d6c 0E       		.uleb128 0xe
 1924 0d6d 53435200 		.ascii	"SCR\000"
 1925 0d71 14       		.byte	0x14
 1926 0d72 6301     		.2byte	0x163
 1927 0d74 F4000000 		.4byte	0xf4
 1928 0d78 1C       		.byte	0x1c
 1929 0d79 0E       		.uleb128 0xe
 1930 0d7a 41435200 		.ascii	"ACR\000"
 1931 0d7e 14       		.byte	0x14
 1932 0d7f 6401     		.2byte	0x164
 1933 0d81 F4000000 		.4byte	0xf4
 1934 0d85 20       		.byte	0x20
 1935 0d86 0E       		.uleb128 0xe
 1936 0d87 49435200 		.ascii	"ICR\000"
 1937 0d8b 14       		.byte	0x14
 1938 0d8c 6501     		.2byte	0x165
ARM GAS  /tmp/cca0HwEs.s 			page 35


 1939 0d8e F4000000 		.4byte	0xf4
 1940 0d92 24       		.byte	0x24
 1941 0d93 0E       		.uleb128 0xe
 1942 0d94 46445200 		.ascii	"FDR\000"
 1943 0d98 14       		.byte	0x14
 1944 0d99 6601     		.2byte	0x166
 1945 0d9b F4000000 		.4byte	0xf4
 1946 0d9f 28       		.byte	0x28
 1947 0da0 0F       		.uleb128 0xf
 1948 0da1 8F030000 		.4byte	.LASF182
 1949 0da5 14       		.byte	0x14
 1950 0da6 6701     		.2byte	0x167
 1951 0da8 E9000000 		.4byte	0xe9
 1952 0dac 2C       		.byte	0x2c
 1953 0dad 0E       		.uleb128 0xe
 1954 0dae 54455200 		.ascii	"TER\000"
 1955 0db2 14       		.byte	0x14
 1956 0db3 6801     		.2byte	0x168
 1957 0db5 F4000000 		.4byte	0xf4
 1958 0db9 30       		.byte	0x30
 1959 0dba 00       		.byte	0
 1960 0dbb 10       		.uleb128 0x10
 1961 0dbc 6A0A0000 		.4byte	.LASF183
 1962 0dc0 14       		.byte	0x14
 1963 0dc1 6901     		.2byte	0x169
 1964 0dc3 1D0D0000 		.4byte	0xd1d
 1965 0dc7 1B       		.uleb128 0x1b
 1966 0dc8 28       		.byte	0x28
 1967 0dc9 14       		.byte	0x14
 1968 0dca 9901     		.2byte	0x199
 1969 0dcc 510E0000 		.4byte	0xe51
 1970 0dd0 0E       		.uleb128 0xe
 1971 0dd1 43523000 		.ascii	"CR0\000"
 1972 0dd5 14       		.byte	0x14
 1973 0dd6 9B01     		.2byte	0x19b
 1974 0dd8 F4000000 		.4byte	0xf4
 1975 0ddc 00       		.byte	0
 1976 0ddd 0E       		.uleb128 0xe
 1977 0dde 43523100 		.ascii	"CR1\000"
 1978 0de2 14       		.byte	0x14
 1979 0de3 9C01     		.2byte	0x19c
 1980 0de5 F4000000 		.4byte	0xf4
 1981 0de9 04       		.byte	0x4
 1982 0dea 0E       		.uleb128 0xe
 1983 0deb 445200   		.ascii	"DR\000"
 1984 0dee 14       		.byte	0x14
 1985 0def 9D01     		.2byte	0x19d
 1986 0df1 F4000000 		.4byte	0xf4
 1987 0df5 08       		.byte	0x8
 1988 0df6 0E       		.uleb128 0xe
 1989 0df7 535200   		.ascii	"SR\000"
 1990 0dfa 14       		.byte	0x14
 1991 0dfb 9E01     		.2byte	0x19e
 1992 0dfd F9000000 		.4byte	0xf9
 1993 0e01 0C       		.byte	0xc
 1994 0e02 0F       		.uleb128 0xf
 1995 0e03 C70A0000 		.4byte	.LASF184
ARM GAS  /tmp/cca0HwEs.s 			page 36


 1996 0e07 14       		.byte	0x14
 1997 0e08 9F01     		.2byte	0x19f
 1998 0e0a F4000000 		.4byte	0xf4
 1999 0e0e 10       		.byte	0x10
 2000 0e0f 0F       		.uleb128 0xf
 2001 0e10 D6020000 		.4byte	.LASF185
 2002 0e14 14       		.byte	0x14
 2003 0e15 A001     		.2byte	0x1a0
 2004 0e17 F4000000 		.4byte	0xf4
 2005 0e1b 14       		.byte	0x14
 2006 0e1c 0E       		.uleb128 0xe
 2007 0e1d 52495300 		.ascii	"RIS\000"
 2008 0e21 14       		.byte	0x14
 2009 0e22 A101     		.2byte	0x1a1
 2010 0e24 F4000000 		.4byte	0xf4
 2011 0e28 18       		.byte	0x18
 2012 0e29 0E       		.uleb128 0xe
 2013 0e2a 4D495300 		.ascii	"MIS\000"
 2014 0e2e 14       		.byte	0x14
 2015 0e2f A201     		.2byte	0x1a2
 2016 0e31 F4000000 		.4byte	0xf4
 2017 0e35 1C       		.byte	0x1c
 2018 0e36 0E       		.uleb128 0xe
 2019 0e37 49435200 		.ascii	"ICR\000"
 2020 0e3b 14       		.byte	0x14
 2021 0e3c A301     		.2byte	0x1a3
 2022 0e3e F4000000 		.4byte	0xf4
 2023 0e42 20       		.byte	0x20
 2024 0e43 0F       		.uleb128 0xf
 2025 0e44 A5030000 		.4byte	.LASF186
 2026 0e48 14       		.byte	0x14
 2027 0e49 A401     		.2byte	0x1a4
 2028 0e4b F4000000 		.4byte	0xf4
 2029 0e4f 24       		.byte	0x24
 2030 0e50 00       		.byte	0
 2031 0e51 10       		.uleb128 0x10
 2032 0e52 8B020000 		.4byte	.LASF187
 2033 0e56 14       		.byte	0x14
 2034 0e57 A501     		.2byte	0x1a5
 2035 0e59 C70D0000 		.4byte	0xdc7
 2036 0e5d 1B       		.uleb128 0x1b
 2037 0e5e 38       		.byte	0x38
 2038 0e5f 14       		.byte	0x14
 2039 0e60 0E02     		.2byte	0x20e
 2040 0e62 C00E0000 		.4byte	0xec0
 2041 0e66 0E       		.uleb128 0xe
 2042 0e67 435200   		.ascii	"CR\000"
 2043 0e6a 14       		.byte	0x14
 2044 0e6b 1002     		.2byte	0x210
 2045 0e6d F4000000 		.4byte	0xf4
 2046 0e71 00       		.byte	0
 2047 0e72 0E       		.uleb128 0xe
 2048 0e73 47445200 		.ascii	"GDR\000"
 2049 0e77 14       		.byte	0x14
 2050 0e78 1102     		.2byte	0x211
 2051 0e7a F4000000 		.4byte	0xf4
 2052 0e7e 04       		.byte	0x4
ARM GAS  /tmp/cca0HwEs.s 			page 37


 2053 0e7f 0F       		.uleb128 0xf
 2054 0e80 19030000 		.4byte	.LASF177
 2055 0e84 14       		.byte	0x14
 2056 0e85 1202     		.2byte	0x212
 2057 0e87 E9000000 		.4byte	0xe9
 2058 0e8b 08       		.byte	0x8
 2059 0e8c 0F       		.uleb128 0xf
 2060 0e8d B80B0000 		.4byte	.LASF188
 2061 0e91 14       		.byte	0x14
 2062 0e92 1302     		.2byte	0x213
 2063 0e94 F4000000 		.4byte	0xf4
 2064 0e98 0C       		.byte	0xc
 2065 0e99 0E       		.uleb128 0xe
 2066 0e9a 445200   		.ascii	"DR\000"
 2067 0e9d 14       		.byte	0x14
 2068 0e9e 1402     		.2byte	0x214
 2069 0ea0 D50E0000 		.4byte	0xed5
 2070 0ea4 10       		.byte	0x10
 2071 0ea5 0F       		.uleb128 0xf
 2072 0ea6 48010000 		.4byte	.LASF189
 2073 0eaa 14       		.byte	0x14
 2074 0eab 1502     		.2byte	0x215
 2075 0ead F9000000 		.4byte	0xf9
 2076 0eb1 30       		.byte	0x30
 2077 0eb2 0F       		.uleb128 0xf
 2078 0eb3 E0060000 		.4byte	.LASF190
 2079 0eb7 14       		.byte	0x14
 2080 0eb8 1602     		.2byte	0x216
 2081 0eba F4000000 		.4byte	0xf4
 2082 0ebe 34       		.byte	0x34
 2083 0ebf 00       		.byte	0
 2084 0ec0 17       		.uleb128 0x17
 2085 0ec1 F9000000 		.4byte	0xf9
 2086 0ec5 D00E0000 		.4byte	0xed0
 2087 0ec9 18       		.uleb128 0x18
 2088 0eca A8030000 		.4byte	0x3a8
 2089 0ece 07       		.byte	0x7
 2090 0ecf 00       		.byte	0
 2091 0ed0 06       		.uleb128 0x6
 2092 0ed1 C00E0000 		.4byte	0xec0
 2093 0ed5 05       		.uleb128 0x5
 2094 0ed6 D00E0000 		.4byte	0xed0
 2095 0eda 10       		.uleb128 0x10
 2096 0edb 1D010000 		.4byte	.LASF191
 2097 0edf 14       		.byte	0x14
 2098 0ee0 1702     		.2byte	0x217
 2099 0ee2 5D0E0000 		.4byte	0xe5d
 2100 0ee6 1B       		.uleb128 0x1b
 2101 0ee7 60       		.byte	0x60
 2102 0ee8 14       		.byte	0x14
 2103 0ee9 8302     		.2byte	0x283
 2104 0eeb 27100000 		.4byte	0x1027
 2105 0eef 0E       		.uleb128 0xe
 2106 0ef0 4D4F4400 		.ascii	"MOD\000"
 2107 0ef4 14       		.byte	0x14
 2108 0ef5 8502     		.2byte	0x285
 2109 0ef7 F4000000 		.4byte	0xf4
ARM GAS  /tmp/cca0HwEs.s 			page 38


 2110 0efb 00       		.byte	0
 2111 0efc 0E       		.uleb128 0xe
 2112 0efd 434D5200 		.ascii	"CMR\000"
 2113 0f01 14       		.byte	0x14
 2114 0f02 8602     		.2byte	0x286
 2115 0f04 F4000000 		.4byte	0xf4
 2116 0f08 04       		.byte	0x4
 2117 0f09 0E       		.uleb128 0xe
 2118 0f0a 47535200 		.ascii	"GSR\000"
 2119 0f0e 14       		.byte	0x14
 2120 0f0f 8702     		.2byte	0x287
 2121 0f11 F4000000 		.4byte	0xf4
 2122 0f15 08       		.byte	0x8
 2123 0f16 0E       		.uleb128 0xe
 2124 0f17 49435200 		.ascii	"ICR\000"
 2125 0f1b 14       		.byte	0x14
 2126 0f1c 8802     		.2byte	0x288
 2127 0f1e F9000000 		.4byte	0xf9
 2128 0f22 0C       		.byte	0xc
 2129 0f23 0E       		.uleb128 0xe
 2130 0f24 49455200 		.ascii	"IER\000"
 2131 0f28 14       		.byte	0x14
 2132 0f29 8902     		.2byte	0x289
 2133 0f2b F4000000 		.4byte	0xf4
 2134 0f2f 10       		.byte	0x10
 2135 0f30 0E       		.uleb128 0xe
 2136 0f31 42545200 		.ascii	"BTR\000"
 2137 0f35 14       		.byte	0x14
 2138 0f36 8A02     		.2byte	0x28a
 2139 0f38 F4000000 		.4byte	0xf4
 2140 0f3c 14       		.byte	0x14
 2141 0f3d 0E       		.uleb128 0xe
 2142 0f3e 45574C00 		.ascii	"EWL\000"
 2143 0f42 14       		.byte	0x14
 2144 0f43 8B02     		.2byte	0x28b
 2145 0f45 F4000000 		.4byte	0xf4
 2146 0f49 18       		.byte	0x18
 2147 0f4a 0E       		.uleb128 0xe
 2148 0f4b 535200   		.ascii	"SR\000"
 2149 0f4e 14       		.byte	0x14
 2150 0f4f 8C02     		.2byte	0x28c
 2151 0f51 F9000000 		.4byte	0xf9
 2152 0f55 1C       		.byte	0x1c
 2153 0f56 0E       		.uleb128 0xe
 2154 0f57 52465300 		.ascii	"RFS\000"
 2155 0f5b 14       		.byte	0x14
 2156 0f5c 8D02     		.2byte	0x28d
 2157 0f5e F4000000 		.4byte	0xf4
 2158 0f62 20       		.byte	0x20
 2159 0f63 0E       		.uleb128 0xe
 2160 0f64 52494400 		.ascii	"RID\000"
 2161 0f68 14       		.byte	0x14
 2162 0f69 8E02     		.2byte	0x28e
 2163 0f6b F4000000 		.4byte	0xf4
 2164 0f6f 24       		.byte	0x24
 2165 0f70 0E       		.uleb128 0xe
 2166 0f71 52444100 		.ascii	"RDA\000"
ARM GAS  /tmp/cca0HwEs.s 			page 39


 2167 0f75 14       		.byte	0x14
 2168 0f76 8F02     		.2byte	0x28f
 2169 0f78 F4000000 		.4byte	0xf4
 2170 0f7c 28       		.byte	0x28
 2171 0f7d 0E       		.uleb128 0xe
 2172 0f7e 52444200 		.ascii	"RDB\000"
 2173 0f82 14       		.byte	0x14
 2174 0f83 9002     		.2byte	0x290
 2175 0f85 F4000000 		.4byte	0xf4
 2176 0f89 2C       		.byte	0x2c
 2177 0f8a 0F       		.uleb128 0xf
 2178 0f8b B30B0000 		.4byte	.LASF192
 2179 0f8f 14       		.byte	0x14
 2180 0f90 9102     		.2byte	0x291
 2181 0f92 F4000000 		.4byte	0xf4
 2182 0f96 30       		.byte	0x30
 2183 0f97 0F       		.uleb128 0xf
 2184 0f98 FC050000 		.4byte	.LASF193
 2185 0f9c 14       		.byte	0x14
 2186 0f9d 9202     		.2byte	0x292
 2187 0f9f F4000000 		.4byte	0xf4
 2188 0fa3 34       		.byte	0x34
 2189 0fa4 0F       		.uleb128 0xf
 2190 0fa5 8E040000 		.4byte	.LASF194
 2191 0fa9 14       		.byte	0x14
 2192 0faa 9302     		.2byte	0x293
 2193 0fac F4000000 		.4byte	0xf4
 2194 0fb0 38       		.byte	0x38
 2195 0fb1 0F       		.uleb128 0xf
 2196 0fb2 BF040000 		.4byte	.LASF195
 2197 0fb6 14       		.byte	0x14
 2198 0fb7 9402     		.2byte	0x294
 2199 0fb9 F4000000 		.4byte	0xf4
 2200 0fbd 3C       		.byte	0x3c
 2201 0fbe 0F       		.uleb128 0xf
 2202 0fbf 3A000000 		.4byte	.LASF196
 2203 0fc3 14       		.byte	0x14
 2204 0fc4 9502     		.2byte	0x295
 2205 0fc6 F4000000 		.4byte	0xf4
 2206 0fca 40       		.byte	0x40
 2207 0fcb 0F       		.uleb128 0xf
 2208 0fcc 01060000 		.4byte	.LASF197
 2209 0fd0 14       		.byte	0x14
 2210 0fd1 9602     		.2byte	0x296
 2211 0fd3 F4000000 		.4byte	0xf4
 2212 0fd7 44       		.byte	0x44
 2213 0fd8 0F       		.uleb128 0xf
 2214 0fd9 93040000 		.4byte	.LASF198
 2215 0fdd 14       		.byte	0x14
 2216 0fde 9702     		.2byte	0x297
 2217 0fe0 F4000000 		.4byte	0xf4
 2218 0fe4 48       		.byte	0x48
 2219 0fe5 0F       		.uleb128 0xf
 2220 0fe6 C4040000 		.4byte	.LASF199
 2221 0fea 14       		.byte	0x14
 2222 0feb 9802     		.2byte	0x298
 2223 0fed F4000000 		.4byte	0xf4
ARM GAS  /tmp/cca0HwEs.s 			page 40


 2224 0ff1 4C       		.byte	0x4c
 2225 0ff2 0F       		.uleb128 0xf
 2226 0ff3 3F000000 		.4byte	.LASF200
 2227 0ff7 14       		.byte	0x14
 2228 0ff8 9902     		.2byte	0x299
 2229 0ffa F4000000 		.4byte	0xf4
 2230 0ffe 50       		.byte	0x50
 2231 0fff 0F       		.uleb128 0xf
 2232 1000 06060000 		.4byte	.LASF201
 2233 1004 14       		.byte	0x14
 2234 1005 9A02     		.2byte	0x29a
 2235 1007 F4000000 		.4byte	0xf4
 2236 100b 54       		.byte	0x54
 2237 100c 0F       		.uleb128 0xf
 2238 100d 98040000 		.4byte	.LASF202
 2239 1011 14       		.byte	0x14
 2240 1012 9B02     		.2byte	0x29b
 2241 1014 F4000000 		.4byte	0xf4
 2242 1018 58       		.byte	0x58
 2243 1019 0F       		.uleb128 0xf
 2244 101a C9040000 		.4byte	.LASF203
 2245 101e 14       		.byte	0x14
 2246 101f 9C02     		.2byte	0x29c
 2247 1021 F4000000 		.4byte	0xf4
 2248 1025 5C       		.byte	0x5c
 2249 1026 00       		.byte	0
 2250 1027 10       		.uleb128 0x10
 2251 1028 66040000 		.4byte	.LASF204
 2252 102c 14       		.byte	0x14
 2253 102d 9D02     		.2byte	0x29d
 2254 102f E60E0000 		.4byte	0xee6
 2255 1033 1B       		.uleb128 0x1b
 2256 1034 14       		.byte	0x14
 2257 1035 14       		.byte	0x14
 2258 1036 B402     		.2byte	0x2b4
 2259 1038 7E100000 		.4byte	0x107e
 2260 103c 0F       		.uleb128 0xf
 2261 103d E4010000 		.4byte	.LASF205
 2262 1041 14       		.byte	0x14
 2263 1042 B602     		.2byte	0x2b6
 2264 1044 F4000000 		.4byte	0xf4
 2265 1048 00       		.byte	0
 2266 1049 0F       		.uleb128 0xf
 2267 104a AC010000 		.4byte	.LASF206
 2268 104e 14       		.byte	0x14
 2269 104f B702     		.2byte	0x2b7
 2270 1051 F4000000 		.4byte	0xf4
 2271 1055 04       		.byte	0x4
 2272 1056 0F       		.uleb128 0xf
 2273 1057 800A0000 		.4byte	.LASF207
 2274 105b 14       		.byte	0x14
 2275 105c B802     		.2byte	0x2b8
 2276 105e F4000000 		.4byte	0xf4
 2277 1062 08       		.byte	0x8
 2278 1063 0F       		.uleb128 0xf
 2279 1064 A0050000 		.4byte	.LASF208
 2280 1068 14       		.byte	0x14
ARM GAS  /tmp/cca0HwEs.s 			page 41


 2281 1069 B902     		.2byte	0x2b9
 2282 106b F4000000 		.4byte	0xf4
 2283 106f 0C       		.byte	0xc
 2284 1070 0F       		.uleb128 0xf
 2285 1071 860B0000 		.4byte	.LASF209
 2286 1075 14       		.byte	0x14
 2287 1076 BA02     		.2byte	0x2ba
 2288 1078 F4000000 		.4byte	0xf4
 2289 107c 10       		.byte	0x10
 2290 107d 00       		.byte	0
 2291 107e 10       		.uleb128 0x10
 2292 107f CA000000 		.4byte	.LASF210
 2293 1083 14       		.byte	0x14
 2294 1084 BB02     		.2byte	0x2bb
 2295 1086 33100000 		.4byte	0x1033
 2296 108a 10       		.uleb128 0x10
 2297 108b E00A0000 		.4byte	.LASF211
 2298 108f 15       		.byte	0x15
 2299 1090 8401     		.2byte	0x184
 2300 1092 E9000000 		.4byte	0xe9
 2301 1096 17       		.uleb128 0x17
 2302 1097 A1100000 		.4byte	0x10a1
 2303 109b A1100000 		.4byte	0x10a1
 2304 109f 1F       		.uleb128 0x1f
 2305 10a0 00       		.byte	0
 2306 10a1 0B       		.uleb128 0xb
 2307 10a2 04       		.byte	0x4
 2308 10a3 7E100000 		.4byte	0x107e
 2309 10a7 19       		.uleb128 0x19
 2310 10a8 C6050000 		.4byte	.LASF212
 2311 10ac 16       		.byte	0x16
 2312 10ad 9501     		.2byte	0x195
 2313 10af 96100000 		.4byte	0x1096
 2314 10b3 16       		.uleb128 0x16
 2315 10b4 52010000 		.4byte	0x152
 2316 10b8 CC100000 		.4byte	0x10cc
 2317 10bc 12       		.uleb128 0x12
 2318 10bd F3020000 		.4byte	0x2f3
 2319 10c1 12       		.uleb128 0x12
 2320 10c2 B4000000 		.4byte	0xb4
 2321 10c6 12       		.uleb128 0x12
 2322 10c7 73010000 		.4byte	0x173
 2323 10cb 00       		.byte	0
 2324 10cc 0B       		.uleb128 0xb
 2325 10cd 04       		.byte	0x4
 2326 10ce B3100000 		.4byte	0x10b3
 2327 10d2 16       		.uleb128 0x16
 2328 10d3 52010000 		.4byte	0x152
 2329 10d7 E6100000 		.4byte	0x10e6
 2330 10db 12       		.uleb128 0x12
 2331 10dc F3020000 		.4byte	0x2f3
 2332 10e0 12       		.uleb128 0x12
 2333 10e1 73010000 		.4byte	0x173
 2334 10e5 00       		.byte	0
 2335 10e6 0B       		.uleb128 0xb
 2336 10e7 04       		.byte	0x4
 2337 10e8 D2100000 		.4byte	0x10d2
ARM GAS  /tmp/cca0HwEs.s 			page 42


 2338 10ec 16       		.uleb128 0x16
 2339 10ed 2C000000 		.4byte	0x2c
 2340 10f1 0A110000 		.4byte	0x110a
 2341 10f5 12       		.uleb128 0x12
 2342 10f6 F3020000 		.4byte	0x2f3
 2343 10fa 12       		.uleb128 0x12
 2344 10fb 79080000 		.4byte	0x879
 2345 10ff 12       		.uleb128 0x12
 2346 1100 2C000000 		.4byte	0x2c
 2347 1104 12       		.uleb128 0x12
 2348 1105 73010000 		.4byte	0x173
 2349 1109 00       		.byte	0
 2350 110a 0B       		.uleb128 0xb
 2351 110b 04       		.byte	0x4
 2352 110c EC100000 		.4byte	0x10ec
 2353 1110 16       		.uleb128 0x16
 2354 1111 2C000000 		.4byte	0x2c
 2355 1115 2E110000 		.4byte	0x112e
 2356 1119 12       		.uleb128 0x12
 2357 111a F3020000 		.4byte	0x2f3
 2358 111e 12       		.uleb128 0x12
 2359 111f 44080000 		.4byte	0x844
 2360 1123 12       		.uleb128 0x12
 2361 1124 2C000000 		.4byte	0x2c
 2362 1128 12       		.uleb128 0x12
 2363 1129 73010000 		.4byte	0x173
 2364 112d 00       		.byte	0
 2365 112e 0B       		.uleb128 0xb
 2366 112f 04       		.byte	0x4
 2367 1130 10110000 		.4byte	0x1110
 2368 1134 0A       		.uleb128 0xa
 2369 1135 08       		.byte	0x8
 2370 1136 17       		.byte	0x17
 2371 1137 2E       		.byte	0x2e
 2372 1138 55110000 		.4byte	0x1155
 2373 113c 08       		.uleb128 0x8
 2374 113d C30C0000 		.4byte	.LASF213
 2375 1141 17       		.byte	0x17
 2376 1142 30       		.byte	0x30
 2377 1143 E9000000 		.4byte	0xe9
 2378 1147 00       		.byte	0
 2379 1148 09       		.uleb128 0x9
 2380 1149 64697200 		.ascii	"dir\000"
 2381 114d 17       		.byte	0x17
 2382 114e 32       		.byte	0x32
 2383 114f E9000000 		.4byte	0xe9
 2384 1153 04       		.byte	0x4
 2385 1154 00       		.byte	0
 2386 1155 03       		.uleb128 0x3
 2387 1156 450B0000 		.4byte	.LASF214
 2388 115a 17       		.byte	0x17
 2389 115b 33       		.byte	0x33
 2390 115c 34110000 		.4byte	0x1134
 2391 1160 0A       		.uleb128 0xa
 2392 1161 28       		.byte	0x28
 2393 1162 17       		.byte	0x17
 2394 1163 41       		.byte	0x41
ARM GAS  /tmp/cca0HwEs.s 			page 43


 2395 1164 A0110000 		.4byte	0x11a0
 2396 1168 09       		.uleb128 0x9
 2397 1169 503000   		.ascii	"P0\000"
 2398 116c 17       		.byte	0x17
 2399 116d 43       		.byte	0x43
 2400 116e 55110000 		.4byte	0x1155
 2401 1172 00       		.byte	0
 2402 1173 09       		.uleb128 0x9
 2403 1174 503100   		.ascii	"P1\000"
 2404 1177 17       		.byte	0x17
 2405 1178 45       		.byte	0x45
 2406 1179 55110000 		.4byte	0x1155
 2407 117d 08       		.byte	0x8
 2408 117e 09       		.uleb128 0x9
 2409 117f 503200   		.ascii	"P2\000"
 2410 1182 17       		.byte	0x17
 2411 1183 47       		.byte	0x47
 2412 1184 55110000 		.4byte	0x1155
 2413 1188 10       		.byte	0x10
 2414 1189 09       		.uleb128 0x9
 2415 118a 503300   		.ascii	"P3\000"
 2416 118d 17       		.byte	0x17
 2417 118e 49       		.byte	0x49
 2418 118f 55110000 		.4byte	0x1155
 2419 1193 18       		.byte	0x18
 2420 1194 09       		.uleb128 0x9
 2421 1195 503400   		.ascii	"P4\000"
 2422 1198 17       		.byte	0x17
 2423 1199 4B       		.byte	0x4b
 2424 119a 55110000 		.4byte	0x1155
 2425 119e 20       		.byte	0x20
 2426 119f 00       		.byte	0
 2427 11a0 03       		.uleb128 0x3
 2428 11a1 6E0B0000 		.4byte	.LASF215
 2429 11a5 17       		.byte	0x17
 2430 11a6 4C       		.byte	0x4c
 2431 11a7 60110000 		.4byte	0x1160
 2432 11ab 06       		.uleb128 0x6
 2433 11ac A0110000 		.4byte	0x11a0
 2434 11b0 03       		.uleb128 0x3
 2435 11b1 56020000 		.4byte	.LASF216
 2436 11b5 17       		.byte	0x17
 2437 11b6 66       		.byte	0x66
 2438 11b7 BB110000 		.4byte	0x11bb
 2439 11bb 0B       		.uleb128 0xb
 2440 11bc 04       		.byte	0x4
 2441 11bd B00B0000 		.4byte	0xbb0
 2442 11c1 19       		.uleb128 0x19
 2443 11c2 9B020000 		.4byte	.LASF217
 2444 11c6 17       		.byte	0x17
 2445 11c7 3301     		.2byte	0x133
 2446 11c9 AB110000 		.4byte	0x11ab
 2447 11cd 20       		.uleb128 0x20
 2448 11ce 01       		.byte	0x1
 2449 11cf 5E000000 		.4byte	0x5e
 2450 11d3 18       		.byte	0x18
 2451 11d4 4E       		.byte	0x4e
ARM GAS  /tmp/cca0HwEs.s 			page 44


 2452 11d5 FE110000 		.4byte	0x11fe
 2453 11d9 21       		.uleb128 0x21
 2454 11da 380C0000 		.4byte	.LASF218
 2455 11de 00       		.byte	0
 2456 11df 21       		.uleb128 0x21
 2457 11e0 BE0A0000 		.4byte	.LASF219
 2458 11e4 01       		.byte	0x1
 2459 11e5 21       		.uleb128 0x21
 2460 11e6 7F030000 		.4byte	.LASF220
 2461 11ea 02       		.byte	0x2
 2462 11eb 21       		.uleb128 0x21
 2463 11ec 93090000 		.4byte	.LASF221
 2464 11f0 03       		.byte	0x3
 2465 11f1 21       		.uleb128 0x21
 2466 11f2 2C060000 		.4byte	.LASF222
 2467 11f6 04       		.byte	0x4
 2468 11f7 21       		.uleb128 0x21
 2469 11f8 EE030000 		.4byte	.LASF223
 2470 11fc 05       		.byte	0x5
 2471 11fd 00       		.byte	0
 2472 11fe 03       		.uleb128 0x3
 2473 11ff 98000000 		.4byte	.LASF224
 2474 1203 18       		.byte	0x18
 2475 1204 55       		.byte	0x55
 2476 1205 CD110000 		.4byte	0x11cd
 2477 1209 03       		.uleb128 0x3
 2478 120a 99030000 		.4byte	.LASF225
 2479 120e 19       		.byte	0x19
 2480 120f A7       		.byte	0xa7
 2481 1210 E9000000 		.4byte	0xe9
 2482 1214 03       		.uleb128 0x3
 2483 1215 E6070000 		.4byte	.LASF226
 2484 1219 19       		.byte	0x19
 2485 121a AC       		.byte	0xac
 2486 121b C9000000 		.4byte	0xc9
 2487 121f 20       		.uleb128 0x20
 2488 1220 01       		.byte	0x1
 2489 1221 5E000000 		.4byte	0x5e
 2490 1225 19       		.byte	0x19
 2491 1226 B3       		.byte	0xb3
 2492 1227 32120000 		.4byte	0x1232
 2493 122b 21       		.uleb128 0x21
 2494 122c 39060000 		.4byte	.LASF227
 2495 1230 01       		.byte	0x1
 2496 1231 00       		.byte	0
 2497 1232 03       		.uleb128 0x3
 2498 1233 62030000 		.4byte	.LASF228
 2499 1237 19       		.byte	0x19
 2500 1238 B5       		.byte	0xb5
 2501 1239 1F120000 		.4byte	0x121f
 2502 123d 03       		.uleb128 0x3
 2503 123e 600A0000 		.4byte	.LASF229
 2504 1242 19       		.byte	0x19
 2505 1243 BA       		.byte	0xba
 2506 1244 48120000 		.4byte	0x1248
 2507 1248 0D       		.uleb128 0xd
 2508 1249 600A0000 		.4byte	.LASF229
ARM GAS  /tmp/cca0HwEs.s 			page 45


 2509 124d 34       		.byte	0x34
 2510 124e 19       		.byte	0x19
 2511 124f 0101     		.2byte	0x101
 2512 1251 D8120000 		.4byte	0x12d8
 2513 1255 0F       		.uleb128 0xf
 2514 1256 11010000 		.4byte	.LASF230
 2515 125a 19       		.byte	0x19
 2516 125b 0501     		.2byte	0x105
 2517 125d FE110000 		.4byte	0x11fe
 2518 1261 00       		.byte	0
 2519 1262 0F       		.uleb128 0xf
 2520 1263 0A010000 		.4byte	.LASF231
 2521 1267 19       		.byte	0x19
 2522 1268 0901     		.2byte	0x109
 2523 126a B1130000 		.4byte	0x13b1
 2524 126e 04       		.byte	0x4
 2525 126f 0F       		.uleb128 0xf
 2526 1270 80040000 		.4byte	.LASF232
 2527 1274 19       		.byte	0x19
 2528 1275 0D01     		.2byte	0x10d
 2529 1277 04130000 		.4byte	0x1304
 2530 127b 08       		.byte	0x8
 2531 127c 0F       		.uleb128 0xf
 2532 127d 18070000 		.4byte	.LASF233
 2533 1281 19       		.byte	0x19
 2534 1282 1101     		.2byte	0x111
 2535 1284 2C000000 		.4byte	0x2c
 2536 1288 0C       		.byte	0xc
 2537 1289 0F       		.uleb128 0xf
 2538 128a F90A0000 		.4byte	.LASF234
 2539 128e 19       		.byte	0x19
 2540 128f 1501     		.2byte	0x115
 2541 1291 B7130000 		.4byte	0x13b7
 2542 1295 10       		.byte	0x10
 2543 1296 0F       		.uleb128 0xf
 2544 1297 060B0000 		.4byte	.LASF235
 2545 129b 19       		.byte	0x19
 2546 129c 1A01     		.2byte	0x11a
 2547 129e B7020000 		.4byte	0x2b7
 2548 12a2 14       		.byte	0x14
 2549 12a3 0F       		.uleb128 0xf
 2550 12a4 1E070000 		.4byte	.LASF236
 2551 12a8 19       		.byte	0x19
 2552 12a9 2101     		.2byte	0x121
 2553 12ab BF050000 		.4byte	0x5bf
 2554 12af 18       		.byte	0x18
 2555 12b0 0E       		.uleb128 0xe
 2556 12b1 61646300 		.ascii	"adc\000"
 2557 12b5 19       		.byte	0x19
 2558 12b6 2D01     		.2byte	0x12d
 2559 12b8 BD130000 		.4byte	0x13bd
 2560 12bc 28       		.byte	0x28
 2561 12bd 0F       		.uleb128 0xf
 2562 12be 74010000 		.4byte	.LASF237
 2563 12c2 19       		.byte	0x19
 2564 12c3 3101     		.2byte	0x131
 2565 12c5 E9000000 		.4byte	0xe9
ARM GAS  /tmp/cca0HwEs.s 			page 46


 2566 12c9 2C       		.byte	0x2c
 2567 12ca 0E       		.uleb128 0xe
 2568 12cb 6E756D00 		.ascii	"num\000"
 2569 12cf 19       		.byte	0x19
 2570 12d0 3501     		.2byte	0x135
 2571 12d2 E9000000 		.4byte	0xe9
 2572 12d6 30       		.byte	0x30
 2573 12d7 00       		.byte	0
 2574 12d8 03       		.uleb128 0x3
 2575 12d9 60000000 		.4byte	.LASF238
 2576 12dd 19       		.byte	0x19
 2577 12de C4       		.byte	0xc4
 2578 12df E3120000 		.4byte	0x12e3
 2579 12e3 0B       		.uleb128 0xb
 2580 12e4 04       		.byte	0x4
 2581 12e5 E9120000 		.4byte	0x12e9
 2582 12e9 11       		.uleb128 0x11
 2583 12ea FE120000 		.4byte	0x12fe
 2584 12ee 12       		.uleb128 0x12
 2585 12ef FE120000 		.4byte	0x12fe
 2586 12f3 12       		.uleb128 0x12
 2587 12f4 04130000 		.4byte	0x1304
 2588 12f8 12       		.uleb128 0x12
 2589 12f9 2C000000 		.4byte	0x2c
 2590 12fd 00       		.byte	0
 2591 12fe 0B       		.uleb128 0xb
 2592 12ff 04       		.byte	0x4
 2593 1300 3D120000 		.4byte	0x123d
 2594 1304 0B       		.uleb128 0xb
 2595 1305 04       		.byte	0x4
 2596 1306 09120000 		.4byte	0x1209
 2597 130a 03       		.uleb128 0x3
 2598 130b 05070000 		.4byte	.LASF239
 2599 130f 19       		.byte	0x19
 2600 1310 CD       		.byte	0xcd
 2601 1311 15130000 		.4byte	0x1315
 2602 1315 0B       		.uleb128 0xb
 2603 1316 04       		.byte	0x4
 2604 1317 1B130000 		.4byte	0x131b
 2605 131b 11       		.uleb128 0x11
 2606 131c 2B130000 		.4byte	0x132b
 2607 1320 12       		.uleb128 0x12
 2608 1321 FE120000 		.4byte	0x12fe
 2609 1325 12       		.uleb128 0x12
 2610 1326 32120000 		.4byte	0x1232
 2611 132a 00       		.byte	0
 2612 132b 0A       		.uleb128 0xa
 2613 132c 14       		.byte	0x14
 2614 132d 19       		.byte	0x19
 2615 132e D7       		.byte	0xd7
 2616 132f 7C130000 		.4byte	0x137c
 2617 1333 08       		.uleb128 0x8
 2618 1334 39040000 		.4byte	.LASF240
 2619 1338 19       		.byte	0x19
 2620 1339 DB       		.byte	0xdb
 2621 133a 09010000 		.4byte	0x109
 2622 133e 00       		.byte	0
ARM GAS  /tmp/cca0HwEs.s 			page 47


 2623 133f 08       		.uleb128 0x8
 2624 1340 B1050000 		.4byte	.LASF241
 2625 1344 19       		.byte	0x19
 2626 1345 DF       		.byte	0xdf
 2627 1346 14120000 		.4byte	0x1214
 2628 134a 02       		.byte	0x2
 2629 134b 08       		.uleb128 0x8
 2630 134c 8C010000 		.4byte	.LASF242
 2631 1350 19       		.byte	0x19
 2632 1351 E3       		.byte	0xe3
 2633 1352 D8120000 		.4byte	0x12d8
 2634 1356 04       		.byte	0x4
 2635 1357 08       		.uleb128 0x8
 2636 1358 58010000 		.4byte	.LASF243
 2637 135c 19       		.byte	0x19
 2638 135d E7       		.byte	0xe7
 2639 135e 0A130000 		.4byte	0x130a
 2640 1362 08       		.byte	0x8
 2641 1363 09       		.uleb128 0x9
 2642 1364 63723000 		.ascii	"cr0\000"
 2643 1368 19       		.byte	0x19
 2644 1369 ED       		.byte	0xed
 2645 136a E9000000 		.4byte	0xe9
 2646 136e 0C       		.byte	0xc
 2647 136f 08       		.uleb128 0x8
 2648 1370 2D090000 		.4byte	.LASF244
 2649 1374 19       		.byte	0x19
 2650 1375 F3       		.byte	0xf3
 2651 1376 E9000000 		.4byte	0xe9
 2652 137a 10       		.byte	0x10
 2653 137b 00       		.byte	0
 2654 137c 03       		.uleb128 0x3
 2655 137d 19060000 		.4byte	.LASF245
 2656 1381 19       		.byte	0x19
 2657 1382 F4       		.byte	0xf4
 2658 1383 2B130000 		.4byte	0x132b
 2659 1387 06       		.uleb128 0x6
 2660 1388 7C130000 		.4byte	0x137c
 2661 138c 0A       		.uleb128 0xa
 2662 138d 04       		.byte	0x4
 2663 138e 19       		.byte	0x19
 2664 138f FA       		.byte	0xfa
 2665 1390 A1130000 		.4byte	0x13a1
 2666 1394 08       		.uleb128 0x8
 2667 1395 B80A0000 		.4byte	.LASF246
 2668 1399 19       		.byte	0x19
 2669 139a FB       		.byte	0xfb
 2670 139b E9000000 		.4byte	0xe9
 2671 139f 00       		.byte	0
 2672 13a0 00       		.byte	0
 2673 13a1 03       		.uleb128 0x3
 2674 13a2 EF0C0000 		.4byte	.LASF247
 2675 13a6 19       		.byte	0x19
 2676 13a7 FC       		.byte	0xfc
 2677 13a8 8C130000 		.4byte	0x138c
 2678 13ac 06       		.uleb128 0x6
 2679 13ad A1130000 		.4byte	0x13a1
ARM GAS  /tmp/cca0HwEs.s 			page 48


 2680 13b1 0B       		.uleb128 0xb
 2681 13b2 04       		.byte	0x4
 2682 13b3 AC130000 		.4byte	0x13ac
 2683 13b7 0B       		.uleb128 0xb
 2684 13b8 04       		.byte	0x4
 2685 13b9 87130000 		.4byte	0x1387
 2686 13bd 0B       		.uleb128 0xb
 2687 13be 04       		.byte	0x4
 2688 13bf DA0E0000 		.4byte	0xeda
 2689 13c3 19       		.uleb128 0x19
 2690 13c4 1B090000 		.4byte	.LASF248
 2691 13c8 19       		.byte	0x19
 2692 13c9 4801     		.2byte	0x148
 2693 13cb 3D120000 		.4byte	0x123d
 2694 13cf 20       		.uleb128 0x20
 2695 13d0 01       		.byte	0x1
 2696 13d1 5E000000 		.4byte	0x5e
 2697 13d5 1A       		.byte	0x1a
 2698 13d6 67       		.byte	0x67
 2699 13d7 FA130000 		.4byte	0x13fa
 2700 13db 21       		.uleb128 0x21
 2701 13dc 43070000 		.4byte	.LASF249
 2702 13e0 00       		.byte	0
 2703 13e1 21       		.uleb128 0x21
 2704 13e2 AB0C0000 		.4byte	.LASF250
 2705 13e6 01       		.byte	0x1
 2706 13e7 21       		.uleb128 0x21
 2707 13e8 B6060000 		.4byte	.LASF251
 2708 13ec 02       		.byte	0x2
 2709 13ed 21       		.uleb128 0x21
 2710 13ee 76040000 		.4byte	.LASF252
 2711 13f2 03       		.byte	0x3
 2712 13f3 21       		.uleb128 0x21
 2713 13f4 6A010000 		.4byte	.LASF253
 2714 13f8 04       		.byte	0x4
 2715 13f9 00       		.byte	0
 2716 13fa 03       		.uleb128 0x3
 2717 13fb E7040000 		.4byte	.LASF254
 2718 13ff 1A       		.byte	0x1a
 2719 1400 6D       		.byte	0x6d
 2720 1401 CF130000 		.4byte	0x13cf
 2721 1405 1B       		.uleb128 0x1b
 2722 1406 08       		.byte	0x8
 2723 1407 1B       		.byte	0x1b
 2724 1408 0802     		.2byte	0x208
 2725 140a 29140000 		.4byte	0x1429
 2726 140e 0E       		.uleb128 0xe
 2727 140f 6D6F6400 		.ascii	"mod\000"
 2728 1413 1B       		.byte	0x1b
 2729 1414 0E02     		.2byte	0x20e
 2730 1416 E9000000 		.4byte	0xe9
 2731 141a 00       		.byte	0
 2732 141b 0E       		.uleb128 0xe
 2733 141c 62747200 		.ascii	"btr\000"
 2734 1420 1B       		.byte	0x1b
 2735 1421 1402     		.2byte	0x214
 2736 1423 E9000000 		.4byte	0xe9
ARM GAS  /tmp/cca0HwEs.s 			page 49


 2737 1427 04       		.byte	0x4
 2738 1428 00       		.byte	0
 2739 1429 10       		.uleb128 0x10
 2740 142a 32010000 		.4byte	.LASF255
 2741 142e 1B       		.byte	0x1b
 2742 142f 1502     		.2byte	0x215
 2743 1431 05140000 		.4byte	0x1405
 2744 1435 06       		.uleb128 0x6
 2745 1436 29140000 		.4byte	0x1429
 2746 143a 1B       		.uleb128 0x1b
 2747 143b 38       		.byte	0x38
 2748 143c 1B       		.byte	0x1b
 2749 143d 1A02     		.2byte	0x21a
 2750 143f C6140000 		.4byte	0x14c6
 2751 1443 0F       		.uleb128 0xf
 2752 1444 11010000 		.4byte	.LASF230
 2753 1448 1B       		.byte	0x1b
 2754 1449 1E02     		.2byte	0x21e
 2755 144b FA130000 		.4byte	0x13fa
 2756 144f 00       		.byte	0
 2757 1450 0F       		.uleb128 0xf
 2758 1451 0A010000 		.4byte	.LASF231
 2759 1455 1B       		.byte	0x1b
 2760 1456 2202     		.2byte	0x222
 2761 1458 C6140000 		.4byte	0x14c6
 2762 145c 04       		.byte	0x4
 2763 145d 0F       		.uleb128 0xf
 2764 145e 17010000 		.4byte	.LASF256
 2765 1462 1B       		.byte	0x1b
 2766 1463 2602     		.2byte	0x226
 2767 1465 7D050000 		.4byte	0x57d
 2768 1469 08       		.byte	0x8
 2769 146a 0F       		.uleb128 0xf
 2770 146b E1040000 		.4byte	.LASF257
 2771 146f 1B       		.byte	0x1b
 2772 1470 2A02     		.2byte	0x22a
 2773 1472 7D050000 		.4byte	0x57d
 2774 1476 14       		.byte	0x14
 2775 1477 0F       		.uleb128 0xf
 2776 1478 0C030000 		.4byte	.LASF258
 2777 147c 1B       		.byte	0x1b
 2778 147d 3702     		.2byte	0x237
 2779 147f 31060000 		.4byte	0x631
 2780 1483 20       		.byte	0x20
 2781 1484 0F       		.uleb128 0xf
 2782 1485 EB0A0000 		.4byte	.LASF259
 2783 1489 1B       		.byte	0x1b
 2784 148a 3E02     		.2byte	0x23e
 2785 148c 31060000 		.4byte	0x631
 2786 1490 24       		.byte	0x24
 2787 1491 0F       		.uleb128 0xf
 2788 1492 33090000 		.4byte	.LASF260
 2789 1496 1B       		.byte	0x1b
 2790 1497 4402     		.2byte	0x244
 2791 1499 31060000 		.4byte	0x631
 2792 149d 28       		.byte	0x28
 2793 149e 0F       		.uleb128 0xf
ARM GAS  /tmp/cca0HwEs.s 			page 50


 2794 149f B7000000 		.4byte	.LASF261
 2795 14a3 1B       		.byte	0x1b
 2796 14a4 4902     		.2byte	0x249
 2797 14a6 31060000 		.4byte	0x631
 2798 14aa 2C       		.byte	0x2c
 2799 14ab 0F       		.uleb128 0xf
 2800 14ac E4000000 		.4byte	.LASF262
 2801 14b0 1B       		.byte	0x1b
 2802 14b1 4D02     		.2byte	0x24d
 2803 14b3 31060000 		.4byte	0x631
 2804 14b7 30       		.byte	0x30
 2805 14b8 0E       		.uleb128 0xe
 2806 14b9 63616E00 		.ascii	"can\000"
 2807 14bd 1B       		.byte	0x1b
 2808 14be 5302     		.2byte	0x253
 2809 14c0 CC140000 		.4byte	0x14cc
 2810 14c4 34       		.byte	0x34
 2811 14c5 00       		.byte	0
 2812 14c6 0B       		.uleb128 0xb
 2813 14c7 04       		.byte	0x4
 2814 14c8 35140000 		.4byte	0x1435
 2815 14cc 0B       		.uleb128 0xb
 2816 14cd 04       		.byte	0x4
 2817 14ce 27100000 		.4byte	0x1027
 2818 14d2 10       		.uleb128 0x10
 2819 14d3 BD010000 		.4byte	.LASF263
 2820 14d7 1B       		.byte	0x1b
 2821 14d8 5402     		.2byte	0x254
 2822 14da 3A140000 		.4byte	0x143a
 2823 14de 19       		.uleb128 0x19
 2824 14df 8D0A0000 		.4byte	.LASF264
 2825 14e3 1B       		.byte	0x1b
 2826 14e4 5F02     		.2byte	0x25f
 2827 14e6 D2140000 		.4byte	0x14d2
 2828 14ea 20       		.uleb128 0x20
 2829 14eb 01       		.byte	0x1
 2830 14ec 5E000000 		.4byte	0x5e
 2831 14f0 1C       		.byte	0x1c
 2832 14f1 35       		.byte	0x35
 2833 14f2 15150000 		.4byte	0x1515
 2834 14f6 21       		.uleb128 0x21
 2835 14f7 B6030000 		.4byte	.LASF265
 2836 14fb 00       		.byte	0
 2837 14fc 21       		.uleb128 0x21
 2838 14fd 1C0C0000 		.4byte	.LASF266
 2839 1501 01       		.byte	0x1
 2840 1502 21       		.uleb128 0x21
 2841 1503 360A0000 		.4byte	.LASF267
 2842 1507 02       		.byte	0x2
 2843 1508 21       		.uleb128 0x21
 2844 1509 400A0000 		.4byte	.LASF268
 2845 150d 03       		.byte	0x3
 2846 150e 21       		.uleb128 0x21
 2847 150f 58070000 		.4byte	.LASF269
 2848 1513 04       		.byte	0x4
 2849 1514 00       		.byte	0
 2850 1515 03       		.uleb128 0x3
ARM GAS  /tmp/cca0HwEs.s 			page 51


 2851 1516 FF000000 		.4byte	.LASF270
 2852 151a 1C       		.byte	0x1c
 2853 151b 3B       		.byte	0x3b
 2854 151c EA140000 		.4byte	0x14ea
 2855 1520 03       		.uleb128 0x3
 2856 1521 D6060000 		.4byte	.LASF271
 2857 1525 1C       		.byte	0x1c
 2858 1526 40       		.byte	0x40
 2859 1527 2B150000 		.4byte	0x152b
 2860 152b 07       		.uleb128 0x7
 2861 152c D6060000 		.4byte	.LASF271
 2862 1530 10       		.byte	0x10
 2863 1531 1D       		.byte	0x1d
 2864 1532 93       		.byte	0x93
 2865 1533 68150000 		.4byte	0x1568
 2866 1537 08       		.uleb128 0x8
 2867 1538 11010000 		.4byte	.LASF230
 2868 153c 1D       		.byte	0x1d
 2869 153d 97       		.byte	0x97
 2870 153e 15150000 		.4byte	0x1515
 2871 1542 00       		.byte	0
 2872 1543 08       		.uleb128 0x8
 2873 1544 0A010000 		.4byte	.LASF231
 2874 1548 1D       		.byte	0x1d
 2875 1549 9B       		.byte	0x9b
 2876 154a C6150000 		.4byte	0x15c6
 2877 154e 04       		.byte	0x4
 2878 154f 08       		.uleb128 0x8
 2879 1550 FF060000 		.4byte	.LASF272
 2880 1554 1D       		.byte	0x1d
 2881 1555 A0       		.byte	0xa0
 2882 1556 E9000000 		.4byte	0xe9
 2883 155a 08       		.byte	0x8
 2884 155b 09       		.uleb128 0x9
 2885 155c 746D7200 		.ascii	"tmr\000"
 2886 1560 1D       		.byte	0x1d
 2887 1561 A4       		.byte	0xa4
 2888 1562 CC150000 		.4byte	0x15cc
 2889 1566 0C       		.byte	0xc
 2890 1567 00       		.byte	0
 2891 1568 03       		.uleb128 0x3
 2892 1569 CF0C0000 		.4byte	.LASF273
 2893 156d 1C       		.byte	0x1c
 2894 156e 47       		.byte	0x47
 2895 156f 73150000 		.4byte	0x1573
 2896 1573 0B       		.uleb128 0xb
 2897 1574 04       		.byte	0x4
 2898 1575 79150000 		.4byte	0x1579
 2899 1579 11       		.uleb128 0x11
 2900 157a 84150000 		.4byte	0x1584
 2901 157e 12       		.uleb128 0x12
 2902 157f 84150000 		.4byte	0x1584
 2903 1583 00       		.byte	0
 2904 1584 0B       		.uleb128 0xb
 2905 1585 04       		.byte	0x4
 2906 1586 20150000 		.4byte	0x1520
 2907 158a 03       		.uleb128 0x3
ARM GAS  /tmp/cca0HwEs.s 			page 52


 2908 158b 96050000 		.4byte	.LASF274
 2909 158f 1D       		.byte	0x1d
 2910 1590 76       		.byte	0x76
 2911 1591 E9000000 		.4byte	0xe9
 2912 1595 0A       		.uleb128 0xa
 2913 1596 08       		.byte	0x8
 2914 1597 1D       		.byte	0x1d
 2915 1598 81       		.byte	0x81
 2916 1599 B6150000 		.4byte	0x15b6
 2917 159d 08       		.uleb128 0x8
 2918 159e 31070000 		.4byte	.LASF275
 2919 15a2 1D       		.byte	0x1d
 2920 15a3 87       		.byte	0x87
 2921 15a4 8A150000 		.4byte	0x158a
 2922 15a8 00       		.byte	0
 2923 15a9 08       		.uleb128 0x8
 2924 15aa 61010000 		.4byte	.LASF276
 2925 15ae 1D       		.byte	0x1d
 2926 15af 8C       		.byte	0x8c
 2927 15b0 68150000 		.4byte	0x1568
 2928 15b4 04       		.byte	0x4
 2929 15b5 00       		.byte	0
 2930 15b6 03       		.uleb128 0x3
 2931 15b7 C4020000 		.4byte	.LASF277
 2932 15bb 1D       		.byte	0x1d
 2933 15bc 8E       		.byte	0x8e
 2934 15bd 95150000 		.4byte	0x1595
 2935 15c1 06       		.uleb128 0x6
 2936 15c2 B6150000 		.4byte	0x15b6
 2937 15c6 0B       		.uleb128 0xb
 2938 15c7 04       		.byte	0x4
 2939 15c8 C1150000 		.4byte	0x15c1
 2940 15cc 0B       		.uleb128 0xb
 2941 15cd 04       		.byte	0x4
 2942 15ce 9F0C0000 		.4byte	0xc9f
 2943 15d2 13       		.uleb128 0x13
 2944 15d3 3E020000 		.4byte	.LASF278
 2945 15d7 1D       		.byte	0x1d
 2946 15d8 B0       		.byte	0xb0
 2947 15d9 20150000 		.4byte	0x1520
 2948 15dd 13       		.uleb128 0x13
 2949 15de 44020000 		.4byte	.LASF279
 2950 15e2 1D       		.byte	0x1d
 2951 15e3 B4       		.byte	0xb4
 2952 15e4 20150000 		.4byte	0x1520
 2953 15e8 13       		.uleb128 0x13
 2954 15e9 4A020000 		.4byte	.LASF280
 2955 15ed 1D       		.byte	0x1d
 2956 15ee B8       		.byte	0xb8
 2957 15ef 20150000 		.4byte	0x1520
 2958 15f3 13       		.uleb128 0x13
 2959 15f4 50020000 		.4byte	.LASF281
 2960 15f8 1D       		.byte	0x1d
 2961 15f9 BC       		.byte	0xbc
 2962 15fa 20150000 		.4byte	0x1520
 2963 15fe 20       		.uleb128 0x20
 2964 15ff 01       		.byte	0x1
ARM GAS  /tmp/cca0HwEs.s 			page 53


 2965 1600 5E000000 		.4byte	0x5e
 2966 1604 1E       		.byte	0x1e
 2967 1605 5D       		.byte	0x5d
 2968 1606 1D160000 		.4byte	0x161d
 2969 160a 21       		.uleb128 0x21
 2970 160b 75030000 		.4byte	.LASF282
 2971 160f 00       		.byte	0
 2972 1610 21       		.uleb128 0x21
 2973 1611 750C0000 		.4byte	.LASF283
 2974 1615 01       		.byte	0x1
 2975 1616 21       		.uleb128 0x21
 2976 1617 D70A0000 		.4byte	.LASF284
 2977 161b 02       		.byte	0x2
 2978 161c 00       		.byte	0
 2979 161d 03       		.uleb128 0x3
 2980 161e 81070000 		.4byte	.LASF285
 2981 1622 1E       		.byte	0x1e
 2982 1623 61       		.byte	0x61
 2983 1624 FE150000 		.4byte	0x15fe
 2984 1628 03       		.uleb128 0x3
 2985 1629 930A0000 		.4byte	.LASF286
 2986 162d 1E       		.byte	0x1e
 2987 162e 66       		.byte	0x66
 2988 162f 33160000 		.4byte	0x1633
 2989 1633 07       		.uleb128 0x7
 2990 1634 930A0000 		.4byte	.LASF286
 2991 1638 78       		.byte	0x78
 2992 1639 1E       		.byte	0x1e
 2993 163a 80       		.byte	0x80
 2994 163b 9E160000 		.4byte	0x169e
 2995 163f 09       		.uleb128 0x9
 2996 1640 766D7400 		.ascii	"vmt\000"
 2997 1644 1E       		.byte	0x1e
 2998 1645 82       		.byte	0x82
 2999 1646 26170000 		.4byte	0x1726
 3000 164a 00       		.byte	0
 3001 164b 08       		.uleb128 0x8
 3002 164c 6E070000 		.4byte	.LASF287
 3003 1650 1E       		.byte	0x1e
 3004 1651 83       		.byte	0x83
 3005 1652 31060000 		.4byte	0x631
 3006 1656 04       		.byte	0x4
 3007 1657 08       		.uleb128 0x8
 3008 1658 11010000 		.4byte	.LASF230
 3009 165c 1E       		.byte	0x1e
 3010 165d 83       		.byte	0x83
 3011 165e 1D160000 		.4byte	0x161d
 3012 1662 08       		.byte	0x8
 3013 1663 08       		.uleb128 0x8
 3014 1664 2D0B0000 		.4byte	.LASF288
 3015 1668 1E       		.byte	0x1e
 3016 1669 83       		.byte	0x83
 3017 166a 4A080000 		.4byte	0x84a
 3018 166e 0C       		.byte	0xc
 3019 166f 08       		.uleb128 0x8
 3020 1670 74020000 		.4byte	.LASF289
 3021 1674 1E       		.byte	0x1e
ARM GAS  /tmp/cca0HwEs.s 			page 54


 3022 1675 83       		.byte	0x83
 3023 1676 55080000 		.4byte	0x855
 3024 167a 30       		.byte	0x30
 3025 167b 09       		.uleb128 0x9
 3026 167c 696200   		.ascii	"ib\000"
 3027 167f 1E       		.byte	0x1e
 3028 1680 83       		.byte	0x83
 3029 1681 2C170000 		.4byte	0x172c
 3030 1685 54       		.byte	0x54
 3031 1686 09       		.uleb128 0x9
 3032 1687 6F6200   		.ascii	"ob\000"
 3033 168a 1E       		.byte	0x1e
 3034 168b 83       		.byte	0x83
 3035 168c 2C170000 		.4byte	0x172c
 3036 1690 64       		.byte	0x64
 3037 1691 08       		.uleb128 0x8
 3038 1692 280B0000 		.4byte	.LASF290
 3039 1696 1E       		.byte	0x1e
 3040 1697 83       		.byte	0x83
 3041 1698 3C170000 		.4byte	0x173c
 3042 169c 74       		.byte	0x74
 3043 169d 00       		.byte	0
 3044 169e 22       		.uleb128 0x22
 3045 169f 53443100 		.ascii	"SD1\000"
 3046 16a3 1F       		.byte	0x1f
 3047 16a4 EF       		.byte	0xef
 3048 16a5 28160000 		.4byte	0x1628
 3049 16a9 22       		.uleb128 0x22
 3050 16aa 53443300 		.ascii	"SD3\000"
 3051 16ae 1F       		.byte	0x1f
 3052 16af F7       		.byte	0xf7
 3053 16b0 28160000 		.4byte	0x1628
 3054 16b4 07       		.uleb128 0x7
 3055 16b5 E4050000 		.4byte	.LASF291
 3056 16b9 20       		.byte	0x20
 3057 16ba 1E       		.byte	0x1e
 3058 16bb 75       		.byte	0x75
 3059 16bc 21170000 		.4byte	0x1721
 3060 16c0 08       		.uleb128 0x8
 3061 16c1 DE000000 		.4byte	.LASF292
 3062 16c5 1E       		.byte	0x1e
 3063 16c6 76       		.byte	0x76
 3064 16c7 7F080000 		.4byte	0x87f
 3065 16cb 00       		.byte	0
 3066 16cc 08       		.uleb128 0x8
 3067 16cd 7C070000 		.4byte	.LASF293
 3068 16d1 1E       		.byte	0x1e
 3069 16d2 76       		.byte	0x76
 3070 16d3 9E080000 		.4byte	0x89e
 3071 16d7 04       		.byte	0x4
 3072 16d8 09       		.uleb128 0x9
 3073 16d9 70757400 		.ascii	"put\000"
 3074 16dd 1E       		.byte	0x1e
 3075 16de 76       		.byte	0x76
 3076 16df B8080000 		.4byte	0x8b8
 3077 16e3 08       		.byte	0x8
 3078 16e4 09       		.uleb128 0x9
ARM GAS  /tmp/cca0HwEs.s 			page 55


 3079 16e5 67657400 		.ascii	"get\000"
 3080 16e9 1E       		.byte	0x1e
 3081 16ea 76       		.byte	0x76
 3082 16eb 89060000 		.4byte	0x689
 3083 16ef 0C       		.byte	0xc
 3084 16f0 08       		.uleb128 0x8
 3085 16f1 2D010000 		.4byte	.LASF294
 3086 16f5 1E       		.byte	0x1e
 3087 16f6 76       		.byte	0x76
 3088 16f7 CC100000 		.4byte	0x10cc
 3089 16fb 10       		.byte	0x10
 3090 16fc 08       		.uleb128 0x8
 3091 16fd 05040000 		.4byte	.LASF295
 3092 1701 1E       		.byte	0x1e
 3093 1702 76       		.byte	0x76
 3094 1703 E6100000 		.4byte	0x10e6
 3095 1707 14       		.byte	0x14
 3096 1708 08       		.uleb128 0x8
 3097 1709 E4020000 		.4byte	.LASF296
 3098 170d 1E       		.byte	0x1e
 3099 170e 76       		.byte	0x76
 3100 170f 0A110000 		.4byte	0x110a
 3101 1713 18       		.byte	0x18
 3102 1714 08       		.uleb128 0x8
 3103 1715 D5010000 		.4byte	.LASF297
 3104 1719 1E       		.byte	0x1e
 3105 171a 76       		.byte	0x76
 3106 171b 2E110000 		.4byte	0x112e
 3107 171f 1C       		.byte	0x1c
 3108 1720 00       		.byte	0
 3109 1721 06       		.uleb128 0x6
 3110 1722 B4160000 		.4byte	0x16b4
 3111 1726 0B       		.uleb128 0xb
 3112 1727 04       		.byte	0x4
 3113 1728 21170000 		.4byte	0x1721
 3114 172c 17       		.uleb128 0x17
 3115 172d B4000000 		.4byte	0xb4
 3116 1731 3C170000 		.4byte	0x173c
 3117 1735 18       		.uleb128 0x18
 3118 1736 A8030000 		.4byte	0x3a8
 3119 173a 0F       		.byte	0xf
 3120 173b 00       		.byte	0
 3121 173c 0B       		.uleb128 0xb
 3122 173d 04       		.byte	0x4
 3123 173e BB0D0000 		.4byte	0xdbb
 3124 1742 20       		.uleb128 0x20
 3125 1743 01       		.byte	0x1
 3126 1744 5E000000 		.4byte	0x5e
 3127 1748 20       		.byte	0x20
 3128 1749 4E       		.byte	0x4e
 3129 174a 6D170000 		.4byte	0x176d
 3130 174e 21       		.uleb128 0x21
 3131 174f 10020000 		.4byte	.LASF298
 3132 1753 00       		.byte	0
 3133 1754 21       		.uleb128 0x21
 3134 1755 FE010000 		.4byte	.LASF299
 3135 1759 01       		.byte	0x1
ARM GAS  /tmp/cca0HwEs.s 			page 56


 3136 175a 21       		.uleb128 0x21
 3137 175b 9E060000 		.4byte	.LASF300
 3138 175f 02       		.byte	0x2
 3139 1760 21       		.uleb128 0x21
 3140 1761 B7070000 		.4byte	.LASF301
 3141 1765 03       		.byte	0x3
 3142 1766 21       		.uleb128 0x21
 3143 1767 F70B0000 		.4byte	.LASF302
 3144 176b 04       		.byte	0x4
 3145 176c 00       		.byte	0
 3146 176d 03       		.uleb128 0x3
 3147 176e 4D0C0000 		.4byte	.LASF303
 3148 1772 20       		.byte	0x20
 3149 1773 54       		.byte	0x54
 3150 1774 42170000 		.4byte	0x1742
 3151 1778 03       		.uleb128 0x3
 3152 1779 3B030000 		.4byte	.LASF304
 3153 177d 21       		.byte	0x21
 3154 177e D0       		.byte	0xd0
 3155 177f 83170000 		.4byte	0x1783
 3156 1783 07       		.uleb128 0x7
 3157 1784 3B030000 		.4byte	.LASF304
 3158 1788 30       		.byte	0x30
 3159 1789 21       		.byte	0x21
 3160 178a F8       		.byte	0xf8
 3161 178b 04180000 		.4byte	0x1804
 3162 178f 08       		.uleb128 0x8
 3163 1790 11010000 		.4byte	.LASF230
 3164 1794 21       		.byte	0x21
 3165 1795 FC       		.byte	0xfc
 3166 1796 6D170000 		.4byte	0x176d
 3167 179a 00       		.byte	0
 3168 179b 0F       		.uleb128 0xf
 3169 179c 0A010000 		.4byte	.LASF231
 3170 17a0 21       		.byte	0x21
 3171 17a1 0001     		.2byte	0x100
 3172 17a3 7B180000 		.4byte	0x187b
 3173 17a7 04       		.byte	0x4
 3174 17a8 0F       		.uleb128 0xf
 3175 17a9 060B0000 		.4byte	.LASF235
 3176 17ad 21       		.byte	0x21
 3177 17ae 0501     		.2byte	0x105
 3178 17b0 B7020000 		.4byte	0x2b7
 3179 17b4 08       		.byte	0x8
 3180 17b5 0F       		.uleb128 0xf
 3181 17b6 1E070000 		.4byte	.LASF236
 3182 17ba 21       		.byte	0x21
 3183 17bb 0C01     		.2byte	0x10c
 3184 17bd BF050000 		.4byte	0x5bf
 3185 17c1 0C       		.byte	0xc
 3186 17c2 0E       		.uleb128 0xe
 3187 17c3 73737000 		.ascii	"ssp\000"
 3188 17c7 21       		.byte	0x21
 3189 17c8 1801     		.2byte	0x118
 3190 17ca 81180000 		.4byte	0x1881
 3191 17ce 1C       		.byte	0x1c
 3192 17cf 0F       		.uleb128 0xf
ARM GAS  /tmp/cca0HwEs.s 			page 57


 3193 17d0 13060000 		.4byte	.LASF305
 3194 17d4 21       		.byte	0x21
 3195 17d5 1C01     		.2byte	0x11c
 3196 17d7 E9000000 		.4byte	0xe9
 3197 17db 20       		.byte	0x20
 3198 17dc 0F       		.uleb128 0xf
 3199 17dd B0030000 		.4byte	.LASF306
 3200 17e1 21       		.byte	0x21
 3201 17e2 2001     		.2byte	0x120
 3202 17e4 F3020000 		.4byte	0x2f3
 3203 17e8 24       		.byte	0x24
 3204 17e9 0F       		.uleb128 0xf
 3205 17ea F2040000 		.4byte	.LASF307
 3206 17ee 21       		.byte	0x21
 3207 17ef 2401     		.2byte	0x124
 3208 17f1 E9000000 		.4byte	0xe9
 3209 17f5 28       		.byte	0x28
 3210 17f6 0F       		.uleb128 0xf
 3211 17f7 A50C0000 		.4byte	.LASF308
 3212 17fb 21       		.byte	0x21
 3213 17fc 2801     		.2byte	0x128
 3214 17fe 87180000 		.4byte	0x1887
 3215 1802 2C       		.byte	0x2c
 3216 1803 00       		.byte	0
 3217 1804 03       		.uleb128 0x3
 3218 1805 4C030000 		.4byte	.LASF309
 3219 1809 21       		.byte	0x21
 3220 180a D8       		.byte	0xd8
 3221 180b 0F180000 		.4byte	0x180f
 3222 180f 0B       		.uleb128 0xb
 3223 1810 04       		.byte	0x4
 3224 1811 15180000 		.4byte	0x1815
 3225 1815 11       		.uleb128 0x11
 3226 1816 20180000 		.4byte	0x1820
 3227 181a 12       		.uleb128 0x12
 3228 181b 20180000 		.4byte	0x1820
 3229 181f 00       		.byte	0
 3230 1820 0B       		.uleb128 0xb
 3231 1821 04       		.byte	0x4
 3232 1822 78170000 		.4byte	0x1778
 3233 1826 0A       		.uleb128 0xa
 3234 1827 10       		.byte	0x10
 3235 1828 21       		.byte	0x21
 3236 1829 DD       		.byte	0xdd
 3237 182a 6B180000 		.4byte	0x186b
 3238 182e 08       		.uleb128 0x8
 3239 182f 8C010000 		.4byte	.LASF242
 3240 1833 21       		.byte	0x21
 3241 1834 E1       		.byte	0xe1
 3242 1835 04180000 		.4byte	0x1804
 3243 1839 00       		.byte	0
 3244 183a 08       		.uleb128 0x8
 3245 183b C3000000 		.4byte	.LASF310
 3246 183f 21       		.byte	0x21
 3247 1840 E6       		.byte	0xe6
 3248 1841 B0110000 		.4byte	0x11b0
 3249 1845 04       		.byte	0x4
ARM GAS  /tmp/cca0HwEs.s 			page 58


 3250 1846 08       		.uleb128 0x8
 3251 1847 970C0000 		.4byte	.LASF311
 3252 184b 21       		.byte	0x21
 3253 184c EA       		.byte	0xea
 3254 184d C9000000 		.4byte	0xc9
 3255 1851 08       		.byte	0x8
 3256 1852 09       		.uleb128 0x9
 3257 1853 63723000 		.ascii	"cr0\000"
 3258 1857 21       		.byte	0x21
 3259 1858 EE       		.byte	0xee
 3260 1859 C9000000 		.4byte	0xc9
 3261 185d 0A       		.byte	0xa
 3262 185e 08       		.uleb128 0x8
 3263 185f 49060000 		.4byte	.LASF312
 3264 1863 21       		.byte	0x21
 3265 1864 F2       		.byte	0xf2
 3266 1865 E9000000 		.4byte	0xe9
 3267 1869 0C       		.byte	0xc
 3268 186a 00       		.byte	0
 3269 186b 03       		.uleb128 0x3
 3270 186c AD070000 		.4byte	.LASF313
 3271 1870 21       		.byte	0x21
 3272 1871 F3       		.byte	0xf3
 3273 1872 26180000 		.4byte	0x1826
 3274 1876 06       		.uleb128 0x6
 3275 1877 6B180000 		.4byte	0x186b
 3276 187b 0B       		.uleb128 0xb
 3277 187c 04       		.byte	0x4
 3278 187d 76180000 		.4byte	0x1876
 3279 1881 0B       		.uleb128 0xb
 3280 1882 04       		.byte	0x4
 3281 1883 510E0000 		.4byte	0xe51
 3282 1887 0B       		.uleb128 0xb
 3283 1888 04       		.byte	0x4
 3284 1889 8D180000 		.4byte	0x188d
 3285 188d 23       		.uleb128 0x23
 3286 188e 19       		.uleb128 0x19
 3287 188f 3C010000 		.4byte	.LASF314
 3288 1893 21       		.byte	0x21
 3289 1894 3401     		.2byte	0x134
 3290 1896 78170000 		.4byte	0x1778
 3291 189a 19       		.uleb128 0x19
 3292 189b 42010000 		.4byte	.LASF315
 3293 189f 21       		.byte	0x21
 3294 18a0 3801     		.2byte	0x138
 3295 18a2 78170000 		.4byte	0x1778
 3296 18a6 24       		.uleb128 0x24
 3297 18a7 55080000 		.4byte	.LASF318
 3298 18ab 01       		.byte	0x1
 3299 18ac BD       		.byte	0xbd
 3300 18ad 00000000 		.4byte	.LFB65
 3301 18b1 28000000 		.4byte	.LFE65-.LFB65
 3302 18b5 01       		.uleb128 0x1
 3303 18b6 9C       		.byte	0x9c
 3304 18b7 12190000 		.4byte	0x1912
 3305 18bb 25       		.uleb128 0x25
 3306 18bc 950B0000 		.4byte	.LASF331
ARM GAS  /tmp/cca0HwEs.s 			page 59


 3307 18c0 01       		.byte	0x1
 3308 18c1 BD       		.byte	0xbd
 3309 18c2 8A100000 		.4byte	0x108a
 3310 18c6 00000000 		.4byte	.LLST1
 3311 18ca 26       		.uleb128 0x26
 3312 18cb 1E000000 		.4byte	.LASF316
 3313 18cf 01       		.byte	0x1
 3314 18d0 BE       		.byte	0xbe
 3315 18d1 8A100000 		.4byte	0x108a
 3316 18d5 01       		.uleb128 0x1
 3317 18d6 52       		.byte	0x52
 3318 18d7 26       		.uleb128 0x26
 3319 18d8 3B070000 		.4byte	.LASF317
 3320 18dc 01       		.byte	0x1
 3321 18dd BF       		.byte	0xbf
 3322 18de 8A100000 		.4byte	0x108a
 3323 18e2 01       		.uleb128 0x1
 3324 18e3 50       		.byte	0x50
 3325 18e4 27       		.uleb128 0x27
 3326 18e5 12190000 		.4byte	0x1912
 3327 18e9 02000000 		.4byte	.LBB4
 3328 18ed 00000000 		.4byte	.Ldebug_ranges0+0
 3329 18f1 01       		.byte	0x1
 3330 18f2 C0       		.byte	0xc0
 3331 18f3 28       		.uleb128 0x28
 3332 18f4 2D190000 		.4byte	0x192d
 3333 18f8 21000000 		.4byte	.LLST2
 3334 18fc 28       		.uleb128 0x28
 3335 18fd 22190000 		.4byte	0x1922
 3336 1901 3F000000 		.4byte	.LLST3
 3337 1905 29       		.uleb128 0x29
 3338 1906 00000000 		.4byte	.Ldebug_ranges0+0
 3339 190a 2A       		.uleb128 0x2a
 3340 190b C5190000 		.4byte	0x19c5
 3341 190f 00       		.byte	0
 3342 1910 00       		.byte	0
 3343 1911 00       		.byte	0
 3344 1912 2B       		.uleb128 0x2b
 3345 1913 CE040000 		.4byte	.LASF332
 3346 1917 01       		.byte	0x1
 3347 1918 AA       		.byte	0xaa
 3348 1919 09010000 		.4byte	0x109
 3349 191d 01       		.byte	0x1
 3350 191e 44190000 		.4byte	0x1944
 3351 1922 2C       		.uleb128 0x2c
 3352 1923 1E000000 		.4byte	.LASF316
 3353 1927 01       		.byte	0x1
 3354 1928 AA       		.byte	0xaa
 3355 1929 8A100000 		.4byte	0x108a
 3356 192d 2D       		.uleb128 0x2d
 3357 192e 656E6400 		.ascii	"end\000"
 3358 1932 01       		.byte	0x1
 3359 1933 AA       		.byte	0xaa
 3360 1934 8A100000 		.4byte	0x108a
 3361 1938 2E       		.uleb128 0x2e
 3362 1939 6E6F7700 		.ascii	"now\000"
 3363 193d 01       		.byte	0x1
ARM GAS  /tmp/cca0HwEs.s 			page 60


 3364 193e AB       		.byte	0xab
 3365 193f 8A100000 		.4byte	0x108a
 3366 1943 00       		.byte	0
 3367 1944 24       		.uleb128 0x24
 3368 1945 0B060000 		.4byte	.LASF319
 3369 1949 01       		.byte	0x1
 3370 194a 3D       		.byte	0x3d
 3371 194b 00000000 		.4byte	.LFB63
 3372 194f 2C000000 		.4byte	.LFE63-.LFB63
 3373 1953 01       		.uleb128 0x1
 3374 1954 9C       		.byte	0x9c
 3375 1955 A2190000 		.4byte	0x19a2
 3376 1959 2F       		.uleb128 0x2f
 3377 195a 06000000 		.4byte	.LVL0
 3378 195e CD190000 		.4byte	0x19cd
 3379 1962 2F       		.uleb128 0x2f
 3380 1963 0C000000 		.4byte	.LVL1
 3381 1967 D9190000 		.4byte	0x19d9
 3382 196b 2F       		.uleb128 0x2f
 3383 196c 10000000 		.4byte	.LVL2
 3384 1970 E5190000 		.4byte	0x19e5
 3385 1974 2F       		.uleb128 0x2f
 3386 1975 14000000 		.4byte	.LVL3
 3387 1979 F1190000 		.4byte	0x19f1
 3388 197d 2F       		.uleb128 0x2f
 3389 197e 18000000 		.4byte	.LVL4
 3390 1982 FC190000 		.4byte	0x19fc
 3391 1986 2F       		.uleb128 0x2f
 3392 1987 1C000000 		.4byte	.LVL5
 3393 198b 071A0000 		.4byte	0x1a07
 3394 198f 2F       		.uleb128 0x2f
 3395 1990 20000000 		.4byte	.LVL6
 3396 1994 131A0000 		.4byte	0x1a13
 3397 1998 30       		.uleb128 0x30
 3398 1999 28000000 		.4byte	.LVL7
 3399 199d 1F1A0000 		.4byte	0x1a1f
 3400 19a1 00       		.byte	0
 3401 19a2 31       		.uleb128 0x31
 3402 19a3 12190000 		.4byte	0x1912
 3403 19a7 00000000 		.4byte	.LFB64
 3404 19ab 28000000 		.4byte	.LFE64-.LFB64
 3405 19af 01       		.uleb128 0x1
 3406 19b0 9C       		.byte	0x9c
 3407 19b1 CD190000 		.4byte	0x19cd
 3408 19b5 28       		.uleb128 0x28
 3409 19b6 22190000 		.4byte	0x1922
 3410 19ba 5D000000 		.4byte	.LLST0
 3411 19be 32       		.uleb128 0x32
 3412 19bf 2D190000 		.4byte	0x192d
 3413 19c3 01       		.uleb128 0x1
 3414 19c4 51       		.byte	0x51
 3415 19c5 33       		.uleb128 0x33
 3416 19c6 38190000 		.4byte	0x1938
 3417 19ca 01       		.uleb128 0x1
 3418 19cb 53       		.byte	0x53
 3419 19cc 00       		.byte	0
 3420 19cd 34       		.uleb128 0x34
ARM GAS  /tmp/cca0HwEs.s 			page 61


 3421 19ce EB020000 		.4byte	.LASF320
 3422 19d2 EB020000 		.4byte	.LASF320
 3423 19d6 15       		.byte	0x15
 3424 19d7 AA01     		.2byte	0x1aa
 3425 19d9 34       		.uleb128 0x34
 3426 19da 00000000 		.4byte	.LASF321
 3427 19de 00000000 		.4byte	.LASF321
 3428 19e2 17       		.byte	0x17
 3429 19e3 3901     		.2byte	0x139
 3430 19e5 34       		.uleb128 0x34
 3431 19e6 A5040000 		.4byte	.LASF322
 3432 19ea A5040000 		.4byte	.LASF322
 3433 19ee 18       		.byte	0x18
 3434 19ef 1D01     		.2byte	0x11d
 3435 19f1 35       		.uleb128 0x35
 3436 19f2 CC0B0000 		.4byte	.LASF323
 3437 19f6 CC0B0000 		.4byte	.LASF323
 3438 19fa 1A       		.byte	0x1a
 3439 19fb 86       		.byte	0x86
 3440 19fc 35       		.uleb128 0x35
 3441 19fd 6E000000 		.4byte	.LASF324
 3442 1a01 6E000000 		.4byte	.LASF324
 3443 1a05 1C       		.byte	0x1c
 3444 1a06 67       		.byte	0x67
 3445 1a07 34       		.uleb128 0x34
 3446 1a08 84020000 		.4byte	.LASF325
 3447 1a0c 84020000 		.4byte	.LASF325
 3448 1a10 1E       		.byte	0x1e
 3449 1a11 2E01     		.2byte	0x12e
 3450 1a13 34       		.uleb128 0x34
 3451 1a14 5E040000 		.4byte	.LASF326
 3452 1a18 5E040000 		.4byte	.LASF326
 3453 1a1c 20       		.byte	0x20
 3454 1a1d 2701     		.2byte	0x127
 3455 1a1f 35       		.uleb128 0x35
 3456 1a20 3B0B0000 		.4byte	.LASF327
 3457 1a24 3B0B0000 		.4byte	.LASF327
 3458 1a28 22       		.byte	0x22
 3459 1a29 5B       		.byte	0x5b
 3460 1a2a 00       		.byte	0
 3461              		.section	.debug_abbrev,"",%progbits
 3462              	.Ldebug_abbrev0:
 3463 0000 01       		.uleb128 0x1
 3464 0001 11       		.uleb128 0x11
 3465 0002 01       		.byte	0x1
 3466 0003 25       		.uleb128 0x25
 3467 0004 0E       		.uleb128 0xe
 3468 0005 13       		.uleb128 0x13
 3469 0006 0B       		.uleb128 0xb
 3470 0007 03       		.uleb128 0x3
 3471 0008 0E       		.uleb128 0xe
 3472 0009 1B       		.uleb128 0x1b
 3473 000a 0E       		.uleb128 0xe
 3474 000b 55       		.uleb128 0x55
 3475 000c 17       		.uleb128 0x17
 3476 000d 11       		.uleb128 0x11
 3477 000e 01       		.uleb128 0x1
ARM GAS  /tmp/cca0HwEs.s 			page 62


 3478 000f 10       		.uleb128 0x10
 3479 0010 17       		.uleb128 0x17
 3480 0011 00       		.byte	0
 3481 0012 00       		.byte	0
 3482 0013 02       		.uleb128 0x2
 3483 0014 24       		.uleb128 0x24
 3484 0015 00       		.byte	0
 3485 0016 0B       		.uleb128 0xb
 3486 0017 0B       		.uleb128 0xb
 3487 0018 3E       		.uleb128 0x3e
 3488 0019 0B       		.uleb128 0xb
 3489 001a 03       		.uleb128 0x3
 3490 001b 08       		.uleb128 0x8
 3491 001c 00       		.byte	0
 3492 001d 00       		.byte	0
 3493 001e 03       		.uleb128 0x3
 3494 001f 16       		.uleb128 0x16
 3495 0020 00       		.byte	0
 3496 0021 03       		.uleb128 0x3
 3497 0022 0E       		.uleb128 0xe
 3498 0023 3A       		.uleb128 0x3a
 3499 0024 0B       		.uleb128 0xb
 3500 0025 3B       		.uleb128 0x3b
 3501 0026 0B       		.uleb128 0xb
 3502 0027 49       		.uleb128 0x49
 3503 0028 13       		.uleb128 0x13
 3504 0029 00       		.byte	0
 3505 002a 00       		.byte	0
 3506 002b 04       		.uleb128 0x4
 3507 002c 24       		.uleb128 0x24
 3508 002d 00       		.byte	0
 3509 002e 0B       		.uleb128 0xb
 3510 002f 0B       		.uleb128 0xb
 3511 0030 3E       		.uleb128 0x3e
 3512 0031 0B       		.uleb128 0xb
 3513 0032 03       		.uleb128 0x3
 3514 0033 0E       		.uleb128 0xe
 3515 0034 00       		.byte	0
 3516 0035 00       		.byte	0
 3517 0036 05       		.uleb128 0x5
 3518 0037 35       		.uleb128 0x35
 3519 0038 00       		.byte	0
 3520 0039 49       		.uleb128 0x49
 3521 003a 13       		.uleb128 0x13
 3522 003b 00       		.byte	0
 3523 003c 00       		.byte	0
 3524 003d 06       		.uleb128 0x6
 3525 003e 26       		.uleb128 0x26
 3526 003f 00       		.byte	0
 3527 0040 49       		.uleb128 0x49
 3528 0041 13       		.uleb128 0x13
 3529 0042 00       		.byte	0
 3530 0043 00       		.byte	0
 3531 0044 07       		.uleb128 0x7
 3532 0045 13       		.uleb128 0x13
 3533 0046 01       		.byte	0x1
 3534 0047 03       		.uleb128 0x3
ARM GAS  /tmp/cca0HwEs.s 			page 63


 3535 0048 0E       		.uleb128 0xe
 3536 0049 0B       		.uleb128 0xb
 3537 004a 0B       		.uleb128 0xb
 3538 004b 3A       		.uleb128 0x3a
 3539 004c 0B       		.uleb128 0xb
 3540 004d 3B       		.uleb128 0x3b
 3541 004e 0B       		.uleb128 0xb
 3542 004f 01       		.uleb128 0x1
 3543 0050 13       		.uleb128 0x13
 3544 0051 00       		.byte	0
 3545 0052 00       		.byte	0
 3546 0053 08       		.uleb128 0x8
 3547 0054 0D       		.uleb128 0xd
 3548 0055 00       		.byte	0
 3549 0056 03       		.uleb128 0x3
 3550 0057 0E       		.uleb128 0xe
 3551 0058 3A       		.uleb128 0x3a
 3552 0059 0B       		.uleb128 0xb
 3553 005a 3B       		.uleb128 0x3b
 3554 005b 0B       		.uleb128 0xb
 3555 005c 49       		.uleb128 0x49
 3556 005d 13       		.uleb128 0x13
 3557 005e 38       		.uleb128 0x38
 3558 005f 0B       		.uleb128 0xb
 3559 0060 00       		.byte	0
 3560 0061 00       		.byte	0
 3561 0062 09       		.uleb128 0x9
 3562 0063 0D       		.uleb128 0xd
 3563 0064 00       		.byte	0
 3564 0065 03       		.uleb128 0x3
 3565 0066 08       		.uleb128 0x8
 3566 0067 3A       		.uleb128 0x3a
 3567 0068 0B       		.uleb128 0xb
 3568 0069 3B       		.uleb128 0x3b
 3569 006a 0B       		.uleb128 0xb
 3570 006b 49       		.uleb128 0x49
 3571 006c 13       		.uleb128 0x13
 3572 006d 38       		.uleb128 0x38
 3573 006e 0B       		.uleb128 0xb
 3574 006f 00       		.byte	0
 3575 0070 00       		.byte	0
 3576 0071 0A       		.uleb128 0xa
 3577 0072 13       		.uleb128 0x13
 3578 0073 01       		.byte	0x1
 3579 0074 0B       		.uleb128 0xb
 3580 0075 0B       		.uleb128 0xb
 3581 0076 3A       		.uleb128 0x3a
 3582 0077 0B       		.uleb128 0xb
 3583 0078 3B       		.uleb128 0x3b
 3584 0079 0B       		.uleb128 0xb
 3585 007a 01       		.uleb128 0x1
 3586 007b 13       		.uleb128 0x13
 3587 007c 00       		.byte	0
 3588 007d 00       		.byte	0
 3589 007e 0B       		.uleb128 0xb
 3590 007f 0F       		.uleb128 0xf
 3591 0080 00       		.byte	0
ARM GAS  /tmp/cca0HwEs.s 			page 64


 3592 0081 0B       		.uleb128 0xb
 3593 0082 0B       		.uleb128 0xb
 3594 0083 49       		.uleb128 0x49
 3595 0084 13       		.uleb128 0x13
 3596 0085 00       		.byte	0
 3597 0086 00       		.byte	0
 3598 0087 0C       		.uleb128 0xc
 3599 0088 0F       		.uleb128 0xf
 3600 0089 00       		.byte	0
 3601 008a 0B       		.uleb128 0xb
 3602 008b 0B       		.uleb128 0xb
 3603 008c 00       		.byte	0
 3604 008d 00       		.byte	0
 3605 008e 0D       		.uleb128 0xd
 3606 008f 13       		.uleb128 0x13
 3607 0090 01       		.byte	0x1
 3608 0091 03       		.uleb128 0x3
 3609 0092 0E       		.uleb128 0xe
 3610 0093 0B       		.uleb128 0xb
 3611 0094 0B       		.uleb128 0xb
 3612 0095 3A       		.uleb128 0x3a
 3613 0096 0B       		.uleb128 0xb
 3614 0097 3B       		.uleb128 0x3b
 3615 0098 05       		.uleb128 0x5
 3616 0099 01       		.uleb128 0x1
 3617 009a 13       		.uleb128 0x13
 3618 009b 00       		.byte	0
 3619 009c 00       		.byte	0
 3620 009d 0E       		.uleb128 0xe
 3621 009e 0D       		.uleb128 0xd
 3622 009f 00       		.byte	0
 3623 00a0 03       		.uleb128 0x3
 3624 00a1 08       		.uleb128 0x8
 3625 00a2 3A       		.uleb128 0x3a
 3626 00a3 0B       		.uleb128 0xb
 3627 00a4 3B       		.uleb128 0x3b
 3628 00a5 05       		.uleb128 0x5
 3629 00a6 49       		.uleb128 0x49
 3630 00a7 13       		.uleb128 0x13
 3631 00a8 38       		.uleb128 0x38
 3632 00a9 0B       		.uleb128 0xb
 3633 00aa 00       		.byte	0
 3634 00ab 00       		.byte	0
 3635 00ac 0F       		.uleb128 0xf
 3636 00ad 0D       		.uleb128 0xd
 3637 00ae 00       		.byte	0
 3638 00af 03       		.uleb128 0x3
 3639 00b0 0E       		.uleb128 0xe
 3640 00b1 3A       		.uleb128 0x3a
 3641 00b2 0B       		.uleb128 0xb
 3642 00b3 3B       		.uleb128 0x3b
 3643 00b4 05       		.uleb128 0x5
 3644 00b5 49       		.uleb128 0x49
 3645 00b6 13       		.uleb128 0x13
 3646 00b7 38       		.uleb128 0x38
 3647 00b8 0B       		.uleb128 0xb
 3648 00b9 00       		.byte	0
ARM GAS  /tmp/cca0HwEs.s 			page 65


 3649 00ba 00       		.byte	0
 3650 00bb 10       		.uleb128 0x10
 3651 00bc 16       		.uleb128 0x16
 3652 00bd 00       		.byte	0
 3653 00be 03       		.uleb128 0x3
 3654 00bf 0E       		.uleb128 0xe
 3655 00c0 3A       		.uleb128 0x3a
 3656 00c1 0B       		.uleb128 0xb
 3657 00c2 3B       		.uleb128 0x3b
 3658 00c3 05       		.uleb128 0x5
 3659 00c4 49       		.uleb128 0x49
 3660 00c5 13       		.uleb128 0x13
 3661 00c6 00       		.byte	0
 3662 00c7 00       		.byte	0
 3663 00c8 11       		.uleb128 0x11
 3664 00c9 15       		.uleb128 0x15
 3665 00ca 01       		.byte	0x1
 3666 00cb 27       		.uleb128 0x27
 3667 00cc 19       		.uleb128 0x19
 3668 00cd 01       		.uleb128 0x1
 3669 00ce 13       		.uleb128 0x13
 3670 00cf 00       		.byte	0
 3671 00d0 00       		.byte	0
 3672 00d1 12       		.uleb128 0x12
 3673 00d2 05       		.uleb128 0x5
 3674 00d3 00       		.byte	0
 3675 00d4 49       		.uleb128 0x49
 3676 00d5 13       		.uleb128 0x13
 3677 00d6 00       		.byte	0
 3678 00d7 00       		.byte	0
 3679 00d8 13       		.uleb128 0x13
 3680 00d9 34       		.uleb128 0x34
 3681 00da 00       		.byte	0
 3682 00db 03       		.uleb128 0x3
 3683 00dc 0E       		.uleb128 0xe
 3684 00dd 3A       		.uleb128 0x3a
 3685 00de 0B       		.uleb128 0xb
 3686 00df 3B       		.uleb128 0x3b
 3687 00e0 0B       		.uleb128 0xb
 3688 00e1 49       		.uleb128 0x49
 3689 00e2 13       		.uleb128 0x13
 3690 00e3 3F       		.uleb128 0x3f
 3691 00e4 19       		.uleb128 0x19
 3692 00e5 3C       		.uleb128 0x3c
 3693 00e6 19       		.uleb128 0x19
 3694 00e7 00       		.byte	0
 3695 00e8 00       		.byte	0
 3696 00e9 14       		.uleb128 0x14
 3697 00ea 17       		.uleb128 0x17
 3698 00eb 01       		.byte	0x1
 3699 00ec 0B       		.uleb128 0xb
 3700 00ed 0B       		.uleb128 0xb
 3701 00ee 3A       		.uleb128 0x3a
 3702 00ef 0B       		.uleb128 0xb
 3703 00f0 3B       		.uleb128 0x3b
 3704 00f1 0B       		.uleb128 0xb
 3705 00f2 01       		.uleb128 0x1
ARM GAS  /tmp/cca0HwEs.s 			page 66


 3706 00f3 13       		.uleb128 0x13
 3707 00f4 00       		.byte	0
 3708 00f5 00       		.byte	0
 3709 00f6 15       		.uleb128 0x15
 3710 00f7 0D       		.uleb128 0xd
 3711 00f8 00       		.byte	0
 3712 00f9 03       		.uleb128 0x3
 3713 00fa 0E       		.uleb128 0xe
 3714 00fb 3A       		.uleb128 0x3a
 3715 00fc 0B       		.uleb128 0xb
 3716 00fd 3B       		.uleb128 0x3b
 3717 00fe 0B       		.uleb128 0xb
 3718 00ff 49       		.uleb128 0x49
 3719 0100 13       		.uleb128 0x13
 3720 0101 00       		.byte	0
 3721 0102 00       		.byte	0
 3722 0103 16       		.uleb128 0x16
 3723 0104 15       		.uleb128 0x15
 3724 0105 01       		.byte	0x1
 3725 0106 27       		.uleb128 0x27
 3726 0107 19       		.uleb128 0x19
 3727 0108 49       		.uleb128 0x49
 3728 0109 13       		.uleb128 0x13
 3729 010a 01       		.uleb128 0x1
 3730 010b 13       		.uleb128 0x13
 3731 010c 00       		.byte	0
 3732 010d 00       		.byte	0
 3733 010e 17       		.uleb128 0x17
 3734 010f 01       		.uleb128 0x1
 3735 0110 01       		.byte	0x1
 3736 0111 49       		.uleb128 0x49
 3737 0112 13       		.uleb128 0x13
 3738 0113 01       		.uleb128 0x1
 3739 0114 13       		.uleb128 0x13
 3740 0115 00       		.byte	0
 3741 0116 00       		.byte	0
 3742 0117 18       		.uleb128 0x18
 3743 0118 21       		.uleb128 0x21
 3744 0119 00       		.byte	0
 3745 011a 49       		.uleb128 0x49
 3746 011b 13       		.uleb128 0x13
 3747 011c 2F       		.uleb128 0x2f
 3748 011d 0B       		.uleb128 0xb
 3749 011e 00       		.byte	0
 3750 011f 00       		.byte	0
 3751 0120 19       		.uleb128 0x19
 3752 0121 34       		.uleb128 0x34
 3753 0122 00       		.byte	0
 3754 0123 03       		.uleb128 0x3
 3755 0124 0E       		.uleb128 0xe
 3756 0125 3A       		.uleb128 0x3a
 3757 0126 0B       		.uleb128 0xb
 3758 0127 3B       		.uleb128 0x3b
 3759 0128 05       		.uleb128 0x5
 3760 0129 49       		.uleb128 0x49
 3761 012a 13       		.uleb128 0x13
 3762 012b 3F       		.uleb128 0x3f
ARM GAS  /tmp/cca0HwEs.s 			page 67


 3763 012c 19       		.uleb128 0x19
 3764 012d 3C       		.uleb128 0x3c
 3765 012e 19       		.uleb128 0x19
 3766 012f 00       		.byte	0
 3767 0130 00       		.byte	0
 3768 0131 1A       		.uleb128 0x1a
 3769 0132 0D       		.uleb128 0xd
 3770 0133 00       		.byte	0
 3771 0134 49       		.uleb128 0x49
 3772 0135 13       		.uleb128 0x13
 3773 0136 00       		.byte	0
 3774 0137 00       		.byte	0
 3775 0138 1B       		.uleb128 0x1b
 3776 0139 13       		.uleb128 0x13
 3777 013a 01       		.byte	0x1
 3778 013b 0B       		.uleb128 0xb
 3779 013c 0B       		.uleb128 0xb
 3780 013d 3A       		.uleb128 0x3a
 3781 013e 0B       		.uleb128 0xb
 3782 013f 3B       		.uleb128 0x3b
 3783 0140 05       		.uleb128 0x5
 3784 0141 01       		.uleb128 0x1
 3785 0142 13       		.uleb128 0x13
 3786 0143 00       		.byte	0
 3787 0144 00       		.byte	0
 3788 0145 1C       		.uleb128 0x1c
 3789 0146 0D       		.uleb128 0xd
 3790 0147 00       		.byte	0
 3791 0148 49       		.uleb128 0x49
 3792 0149 13       		.uleb128 0x13
 3793 014a 38       		.uleb128 0x38
 3794 014b 0B       		.uleb128 0xb
 3795 014c 00       		.byte	0
 3796 014d 00       		.byte	0
 3797 014e 1D       		.uleb128 0x1d
 3798 014f 17       		.uleb128 0x17
 3799 0150 01       		.byte	0x1
 3800 0151 0B       		.uleb128 0xb
 3801 0152 0B       		.uleb128 0xb
 3802 0153 3A       		.uleb128 0x3a
 3803 0154 0B       		.uleb128 0xb
 3804 0155 3B       		.uleb128 0x3b
 3805 0156 05       		.uleb128 0x5
 3806 0157 01       		.uleb128 0x1
 3807 0158 13       		.uleb128 0x13
 3808 0159 00       		.byte	0
 3809 015a 00       		.byte	0
 3810 015b 1E       		.uleb128 0x1e
 3811 015c 0D       		.uleb128 0xd
 3812 015d 00       		.byte	0
 3813 015e 03       		.uleb128 0x3
 3814 015f 08       		.uleb128 0x8
 3815 0160 3A       		.uleb128 0x3a
 3816 0161 0B       		.uleb128 0xb
 3817 0162 3B       		.uleb128 0x3b
 3818 0163 05       		.uleb128 0x5
 3819 0164 49       		.uleb128 0x49
ARM GAS  /tmp/cca0HwEs.s 			page 68


 3820 0165 13       		.uleb128 0x13
 3821 0166 00       		.byte	0
 3822 0167 00       		.byte	0
 3823 0168 1F       		.uleb128 0x1f
 3824 0169 21       		.uleb128 0x21
 3825 016a 00       		.byte	0
 3826 016b 00       		.byte	0
 3827 016c 00       		.byte	0
 3828 016d 20       		.uleb128 0x20
 3829 016e 04       		.uleb128 0x4
 3830 016f 01       		.byte	0x1
 3831 0170 0B       		.uleb128 0xb
 3832 0171 0B       		.uleb128 0xb
 3833 0172 49       		.uleb128 0x49
 3834 0173 13       		.uleb128 0x13
 3835 0174 3A       		.uleb128 0x3a
 3836 0175 0B       		.uleb128 0xb
 3837 0176 3B       		.uleb128 0x3b
 3838 0177 0B       		.uleb128 0xb
 3839 0178 01       		.uleb128 0x1
 3840 0179 13       		.uleb128 0x13
 3841 017a 00       		.byte	0
 3842 017b 00       		.byte	0
 3843 017c 21       		.uleb128 0x21
 3844 017d 28       		.uleb128 0x28
 3845 017e 00       		.byte	0
 3846 017f 03       		.uleb128 0x3
 3847 0180 0E       		.uleb128 0xe
 3848 0181 1C       		.uleb128 0x1c
 3849 0182 0B       		.uleb128 0xb
 3850 0183 00       		.byte	0
 3851 0184 00       		.byte	0
 3852 0185 22       		.uleb128 0x22
 3853 0186 34       		.uleb128 0x34
 3854 0187 00       		.byte	0
 3855 0188 03       		.uleb128 0x3
 3856 0189 08       		.uleb128 0x8
 3857 018a 3A       		.uleb128 0x3a
 3858 018b 0B       		.uleb128 0xb
 3859 018c 3B       		.uleb128 0x3b
 3860 018d 0B       		.uleb128 0xb
 3861 018e 49       		.uleb128 0x49
 3862 018f 13       		.uleb128 0x13
 3863 0190 3F       		.uleb128 0x3f
 3864 0191 19       		.uleb128 0x19
 3865 0192 3C       		.uleb128 0x3c
 3866 0193 19       		.uleb128 0x19
 3867 0194 00       		.byte	0
 3868 0195 00       		.byte	0
 3869 0196 23       		.uleb128 0x23
 3870 0197 26       		.uleb128 0x26
 3871 0198 00       		.byte	0
 3872 0199 00       		.byte	0
 3873 019a 00       		.byte	0
 3874 019b 24       		.uleb128 0x24
 3875 019c 2E       		.uleb128 0x2e
 3876 019d 01       		.byte	0x1
ARM GAS  /tmp/cca0HwEs.s 			page 69


 3877 019e 3F       		.uleb128 0x3f
 3878 019f 19       		.uleb128 0x19
 3879 01a0 03       		.uleb128 0x3
 3880 01a1 0E       		.uleb128 0xe
 3881 01a2 3A       		.uleb128 0x3a
 3882 01a3 0B       		.uleb128 0xb
 3883 01a4 3B       		.uleb128 0x3b
 3884 01a5 0B       		.uleb128 0xb
 3885 01a6 27       		.uleb128 0x27
 3886 01a7 19       		.uleb128 0x19
 3887 01a8 11       		.uleb128 0x11
 3888 01a9 01       		.uleb128 0x1
 3889 01aa 12       		.uleb128 0x12
 3890 01ab 06       		.uleb128 0x6
 3891 01ac 40       		.uleb128 0x40
 3892 01ad 18       		.uleb128 0x18
 3893 01ae 9742     		.uleb128 0x2117
 3894 01b0 19       		.uleb128 0x19
 3895 01b1 01       		.uleb128 0x1
 3896 01b2 13       		.uleb128 0x13
 3897 01b3 00       		.byte	0
 3898 01b4 00       		.byte	0
 3899 01b5 25       		.uleb128 0x25
 3900 01b6 05       		.uleb128 0x5
 3901 01b7 00       		.byte	0
 3902 01b8 03       		.uleb128 0x3
 3903 01b9 0E       		.uleb128 0xe
 3904 01ba 3A       		.uleb128 0x3a
 3905 01bb 0B       		.uleb128 0xb
 3906 01bc 3B       		.uleb128 0x3b
 3907 01bd 0B       		.uleb128 0xb
 3908 01be 49       		.uleb128 0x49
 3909 01bf 13       		.uleb128 0x13
 3910 01c0 02       		.uleb128 0x2
 3911 01c1 17       		.uleb128 0x17
 3912 01c2 00       		.byte	0
 3913 01c3 00       		.byte	0
 3914 01c4 26       		.uleb128 0x26
 3915 01c5 34       		.uleb128 0x34
 3916 01c6 00       		.byte	0
 3917 01c7 03       		.uleb128 0x3
 3918 01c8 0E       		.uleb128 0xe
 3919 01c9 3A       		.uleb128 0x3a
 3920 01ca 0B       		.uleb128 0xb
 3921 01cb 3B       		.uleb128 0x3b
 3922 01cc 0B       		.uleb128 0xb
 3923 01cd 49       		.uleb128 0x49
 3924 01ce 13       		.uleb128 0x13
 3925 01cf 02       		.uleb128 0x2
 3926 01d0 18       		.uleb128 0x18
 3927 01d1 00       		.byte	0
 3928 01d2 00       		.byte	0
 3929 01d3 27       		.uleb128 0x27
 3930 01d4 1D       		.uleb128 0x1d
 3931 01d5 01       		.byte	0x1
 3932 01d6 31       		.uleb128 0x31
 3933 01d7 13       		.uleb128 0x13
ARM GAS  /tmp/cca0HwEs.s 			page 70


 3934 01d8 52       		.uleb128 0x52
 3935 01d9 01       		.uleb128 0x1
 3936 01da 55       		.uleb128 0x55
 3937 01db 17       		.uleb128 0x17
 3938 01dc 58       		.uleb128 0x58
 3939 01dd 0B       		.uleb128 0xb
 3940 01de 59       		.uleb128 0x59
 3941 01df 0B       		.uleb128 0xb
 3942 01e0 00       		.byte	0
 3943 01e1 00       		.byte	0
 3944 01e2 28       		.uleb128 0x28
 3945 01e3 05       		.uleb128 0x5
 3946 01e4 00       		.byte	0
 3947 01e5 31       		.uleb128 0x31
 3948 01e6 13       		.uleb128 0x13
 3949 01e7 02       		.uleb128 0x2
 3950 01e8 17       		.uleb128 0x17
 3951 01e9 00       		.byte	0
 3952 01ea 00       		.byte	0
 3953 01eb 29       		.uleb128 0x29
 3954 01ec 0B       		.uleb128 0xb
 3955 01ed 01       		.byte	0x1
 3956 01ee 55       		.uleb128 0x55
 3957 01ef 17       		.uleb128 0x17
 3958 01f0 00       		.byte	0
 3959 01f1 00       		.byte	0
 3960 01f2 2A       		.uleb128 0x2a
 3961 01f3 34       		.uleb128 0x34
 3962 01f4 00       		.byte	0
 3963 01f5 31       		.uleb128 0x31
 3964 01f6 13       		.uleb128 0x13
 3965 01f7 00       		.byte	0
 3966 01f8 00       		.byte	0
 3967 01f9 2B       		.uleb128 0x2b
 3968 01fa 2E       		.uleb128 0x2e
 3969 01fb 01       		.byte	0x1
 3970 01fc 3F       		.uleb128 0x3f
 3971 01fd 19       		.uleb128 0x19
 3972 01fe 03       		.uleb128 0x3
 3973 01ff 0E       		.uleb128 0xe
 3974 0200 3A       		.uleb128 0x3a
 3975 0201 0B       		.uleb128 0xb
 3976 0202 3B       		.uleb128 0x3b
 3977 0203 0B       		.uleb128 0xb
 3978 0204 27       		.uleb128 0x27
 3979 0205 19       		.uleb128 0x19
 3980 0206 49       		.uleb128 0x49
 3981 0207 13       		.uleb128 0x13
 3982 0208 20       		.uleb128 0x20
 3983 0209 0B       		.uleb128 0xb
 3984 020a 01       		.uleb128 0x1
 3985 020b 13       		.uleb128 0x13
 3986 020c 00       		.byte	0
 3987 020d 00       		.byte	0
 3988 020e 2C       		.uleb128 0x2c
 3989 020f 05       		.uleb128 0x5
 3990 0210 00       		.byte	0
ARM GAS  /tmp/cca0HwEs.s 			page 71


 3991 0211 03       		.uleb128 0x3
 3992 0212 0E       		.uleb128 0xe
 3993 0213 3A       		.uleb128 0x3a
 3994 0214 0B       		.uleb128 0xb
 3995 0215 3B       		.uleb128 0x3b
 3996 0216 0B       		.uleb128 0xb
 3997 0217 49       		.uleb128 0x49
 3998 0218 13       		.uleb128 0x13
 3999 0219 00       		.byte	0
 4000 021a 00       		.byte	0
 4001 021b 2D       		.uleb128 0x2d
 4002 021c 05       		.uleb128 0x5
 4003 021d 00       		.byte	0
 4004 021e 03       		.uleb128 0x3
 4005 021f 08       		.uleb128 0x8
 4006 0220 3A       		.uleb128 0x3a
 4007 0221 0B       		.uleb128 0xb
 4008 0222 3B       		.uleb128 0x3b
 4009 0223 0B       		.uleb128 0xb
 4010 0224 49       		.uleb128 0x49
 4011 0225 13       		.uleb128 0x13
 4012 0226 00       		.byte	0
 4013 0227 00       		.byte	0
 4014 0228 2E       		.uleb128 0x2e
 4015 0229 34       		.uleb128 0x34
 4016 022a 00       		.byte	0
 4017 022b 03       		.uleb128 0x3
 4018 022c 08       		.uleb128 0x8
 4019 022d 3A       		.uleb128 0x3a
 4020 022e 0B       		.uleb128 0xb
 4021 022f 3B       		.uleb128 0x3b
 4022 0230 0B       		.uleb128 0xb
 4023 0231 49       		.uleb128 0x49
 4024 0232 13       		.uleb128 0x13
 4025 0233 00       		.byte	0
 4026 0234 00       		.byte	0
 4027 0235 2F       		.uleb128 0x2f
 4028 0236 898201   		.uleb128 0x4109
 4029 0239 00       		.byte	0
 4030 023a 11       		.uleb128 0x11
 4031 023b 01       		.uleb128 0x1
 4032 023c 31       		.uleb128 0x31
 4033 023d 13       		.uleb128 0x13
 4034 023e 00       		.byte	0
 4035 023f 00       		.byte	0
 4036 0240 30       		.uleb128 0x30
 4037 0241 898201   		.uleb128 0x4109
 4038 0244 00       		.byte	0
 4039 0245 11       		.uleb128 0x11
 4040 0246 01       		.uleb128 0x1
 4041 0247 9542     		.uleb128 0x2115
 4042 0249 19       		.uleb128 0x19
 4043 024a 31       		.uleb128 0x31
 4044 024b 13       		.uleb128 0x13
 4045 024c 00       		.byte	0
 4046 024d 00       		.byte	0
 4047 024e 31       		.uleb128 0x31
ARM GAS  /tmp/cca0HwEs.s 			page 72


 4048 024f 2E       		.uleb128 0x2e
 4049 0250 01       		.byte	0x1
 4050 0251 31       		.uleb128 0x31
 4051 0252 13       		.uleb128 0x13
 4052 0253 11       		.uleb128 0x11
 4053 0254 01       		.uleb128 0x1
 4054 0255 12       		.uleb128 0x12
 4055 0256 06       		.uleb128 0x6
 4056 0257 40       		.uleb128 0x40
 4057 0258 18       		.uleb128 0x18
 4058 0259 9742     		.uleb128 0x2117
 4059 025b 19       		.uleb128 0x19
 4060 025c 01       		.uleb128 0x1
 4061 025d 13       		.uleb128 0x13
 4062 025e 00       		.byte	0
 4063 025f 00       		.byte	0
 4064 0260 32       		.uleb128 0x32
 4065 0261 05       		.uleb128 0x5
 4066 0262 00       		.byte	0
 4067 0263 31       		.uleb128 0x31
 4068 0264 13       		.uleb128 0x13
 4069 0265 02       		.uleb128 0x2
 4070 0266 18       		.uleb128 0x18
 4071 0267 00       		.byte	0
 4072 0268 00       		.byte	0
 4073 0269 33       		.uleb128 0x33
 4074 026a 34       		.uleb128 0x34
 4075 026b 00       		.byte	0
 4076 026c 31       		.uleb128 0x31
 4077 026d 13       		.uleb128 0x13
 4078 026e 02       		.uleb128 0x2
 4079 026f 18       		.uleb128 0x18
 4080 0270 00       		.byte	0
 4081 0271 00       		.byte	0
 4082 0272 34       		.uleb128 0x34
 4083 0273 2E       		.uleb128 0x2e
 4084 0274 00       		.byte	0
 4085 0275 3F       		.uleb128 0x3f
 4086 0276 19       		.uleb128 0x19
 4087 0277 3C       		.uleb128 0x3c
 4088 0278 19       		.uleb128 0x19
 4089 0279 6E       		.uleb128 0x6e
 4090 027a 0E       		.uleb128 0xe
 4091 027b 03       		.uleb128 0x3
 4092 027c 0E       		.uleb128 0xe
 4093 027d 3A       		.uleb128 0x3a
 4094 027e 0B       		.uleb128 0xb
 4095 027f 3B       		.uleb128 0x3b
 4096 0280 05       		.uleb128 0x5
 4097 0281 00       		.byte	0
 4098 0282 00       		.byte	0
 4099 0283 35       		.uleb128 0x35
 4100 0284 2E       		.uleb128 0x2e
 4101 0285 00       		.byte	0
 4102 0286 3F       		.uleb128 0x3f
 4103 0287 19       		.uleb128 0x19
 4104 0288 3C       		.uleb128 0x3c
ARM GAS  /tmp/cca0HwEs.s 			page 73


 4105 0289 19       		.uleb128 0x19
 4106 028a 6E       		.uleb128 0x6e
 4107 028b 0E       		.uleb128 0xe
 4108 028c 03       		.uleb128 0x3
 4109 028d 0E       		.uleb128 0xe
 4110 028e 3A       		.uleb128 0x3a
 4111 028f 0B       		.uleb128 0xb
 4112 0290 3B       		.uleb128 0x3b
 4113 0291 0B       		.uleb128 0xb
 4114 0292 00       		.byte	0
 4115 0293 00       		.byte	0
 4116 0294 00       		.byte	0
 4117              		.section	.debug_loc,"",%progbits
 4118              	.Ldebug_loc0:
 4119              	.LLST1:
 4120 0000 00000000 		.4byte	.LVL15
 4121 0004 08000000 		.4byte	.LVL17
 4122 0008 0100     		.2byte	0x1
 4123 000a 50       		.byte	0x50
 4124 000b 08000000 		.4byte	.LVL17
 4125 000f 28000000 		.4byte	.LFE65
 4126 0013 0400     		.2byte	0x4
 4127 0015 F3       		.byte	0xf3
 4128 0016 01       		.uleb128 0x1
 4129 0017 50       		.byte	0x50
 4130 0018 9F       		.byte	0x9f
 4131 0019 00000000 		.4byte	0
 4132 001d 00000000 		.4byte	0
 4133              	.LLST2:
 4134 0021 08000000 		.4byte	.LVL17
 4135 0025 14000000 		.4byte	.LVL19
 4136 0029 0100     		.2byte	0x1
 4137 002b 50       		.byte	0x50
 4138 002c 1E000000 		.4byte	.LVL20
 4139 0030 28000000 		.4byte	.LFE65
 4140 0034 0100     		.2byte	0x1
 4141 0036 50       		.byte	0x50
 4142 0037 00000000 		.4byte	0
 4143 003b 00000000 		.4byte	0
 4144              	.LLST3:
 4145 003f 08000000 		.4byte	.LVL17
 4146 0043 14000000 		.4byte	.LVL19
 4147 0047 0100     		.2byte	0x1
 4148 0049 52       		.byte	0x52
 4149 004a 1E000000 		.4byte	.LVL20
 4150 004e 28000000 		.4byte	.LFE65
 4151 0052 0100     		.2byte	0x1
 4152 0054 52       		.byte	0x52
 4153 0055 00000000 		.4byte	0
 4154 0059 00000000 		.4byte	0
 4155              	.LLST0:
 4156 005d 00000000 		.4byte	.LVL8
 4157 0061 12000000 		.4byte	.LVL10
 4158 0065 0100     		.2byte	0x1
 4159 0067 50       		.byte	0x50
 4160 0068 12000000 		.4byte	.LVL10
 4161 006c 16000000 		.4byte	.LVL11
ARM GAS  /tmp/cca0HwEs.s 			page 74


 4162 0070 0400     		.2byte	0x4
 4163 0072 F3       		.byte	0xf3
 4164 0073 01       		.uleb128 0x1
 4165 0074 50       		.byte	0x50
 4166 0075 9F       		.byte	0x9f
 4167 0076 16000000 		.4byte	.LVL11
 4168 007a 1C000000 		.4byte	.LVL12
 4169 007e 0100     		.2byte	0x1
 4170 0080 50       		.byte	0x50
 4171 0081 1C000000 		.4byte	.LVL12
 4172 0085 1E000000 		.4byte	.LVL13
 4173 0089 0400     		.2byte	0x4
 4174 008b F3       		.byte	0xf3
 4175 008c 01       		.uleb128 0x1
 4176 008d 50       		.byte	0x50
 4177 008e 9F       		.byte	0x9f
 4178 008f 1E000000 		.4byte	.LVL13
 4179 0093 20000000 		.4byte	.LVL14
 4180 0097 0100     		.2byte	0x1
 4181 0099 50       		.byte	0x50
 4182 009a 20000000 		.4byte	.LVL14
 4183 009e 28000000 		.4byte	.LFE64
 4184 00a2 0400     		.2byte	0x4
 4185 00a4 F3       		.byte	0xf3
 4186 00a5 01       		.uleb128 0x1
 4187 00a6 50       		.byte	0x50
 4188 00a7 9F       		.byte	0x9f
 4189 00a8 00000000 		.4byte	0
 4190 00ac 00000000 		.4byte	0
 4191              		.section	.debug_aranges,"",%progbits
 4192 0000 2C000000 		.4byte	0x2c
 4193 0004 0200     		.2byte	0x2
 4194 0006 00000000 		.4byte	.Ldebug_info0
 4195 000a 04       		.byte	0x4
 4196 000b 00       		.byte	0
 4197 000c 0000     		.2byte	0
 4198 000e 0000     		.2byte	0
 4199 0010 00000000 		.4byte	.LFB63
 4200 0014 2C000000 		.4byte	.LFE63-.LFB63
 4201 0018 00000000 		.4byte	.LFB64
 4202 001c 28000000 		.4byte	.LFE64-.LFB64
 4203 0020 00000000 		.4byte	.LFB65
 4204 0024 28000000 		.4byte	.LFE65-.LFB65
 4205 0028 00000000 		.4byte	0
 4206 002c 00000000 		.4byte	0
 4207              		.section	.debug_ranges,"",%progbits
 4208              	.Ldebug_ranges0:
 4209 0000 02000000 		.4byte	.LBB4
 4210 0004 04000000 		.4byte	.LBE4
 4211 0008 08000000 		.4byte	.LBB8
 4212 000c 18000000 		.4byte	.LBE8
 4213 0010 1E000000 		.4byte	.LBB9
 4214 0014 28000000 		.4byte	.LBE9
 4215 0018 00000000 		.4byte	0
 4216 001c 00000000 		.4byte	0
 4217 0020 00000000 		.4byte	.LFB63
 4218 0024 2C000000 		.4byte	.LFE63
ARM GAS  /tmp/cca0HwEs.s 			page 75


 4219 0028 00000000 		.4byte	.LFB64
 4220 002c 28000000 		.4byte	.LFE64
 4221 0030 00000000 		.4byte	.LFB65
 4222 0034 28000000 		.4byte	.LFE65
 4223 0038 00000000 		.4byte	0
 4224 003c 00000000 		.4byte	0
 4225              		.section	.debug_line,"",%progbits
 4226              	.Ldebug_line0:
 4227 0000 59030000 		.section	.debug_str,"MS",%progbits,1
 4227      0200DE02 
 4227      00000201 
 4227      FB0E0D00 
 4227      01010101 
 4228              	.LASF321:
 4229 0000 5F70616C 		.ascii	"_pal_lld_init\000"
 4229      5F6C6C64 
 4229      5F696E69 
 4229      7400
 4230              	.LASF4:
 4231 000e 73697A65 		.ascii	"size_t\000"
 4231      5F7400
 4232              	.LASF60:
 4233 0015 73697A65 		.ascii	"sizetype\000"
 4233      74797065 
 4233      00
 4234              	.LASF316:
 4235 001e 73746172 		.ascii	"start\000"
 4235      7400
 4236              	.LASF118:
 4237 0024 63665F6F 		.ascii	"cf_off_name\000"
 4237      66665F6E 
 4237      616D6500 
 4238              	.LASF31:
 4239 0030 73797374 		.ascii	"systime_t\000"
 4239      696D655F 
 4239      7400
 4240              	.LASF196:
 4241 003a 54464932 		.ascii	"TFI2\000"
 4241      00
 4242              	.LASF200:
 4243 003f 54464933 		.ascii	"TFI3\000"
 4243      00
 4244              	.LASF107:
 4245 0044 63685F69 		.ascii	"ch_identifier\000"
 4245      64656E74 
 4245      69666965 
 4245      7200
 4246              	.LASF37:
 4247 0052 705F6374 		.ascii	"p_ctx\000"
 4247      7800
 4248              	.LASF27:
 4249 0058 74707269 		.ascii	"tprio_t\000"
 4249      6F5F7400 
 4250              	.LASF238:
 4251 0060 61646363 		.ascii	"adccallback_t\000"
 4251      616C6C62 
 4251      61636B5F 
ARM GAS  /tmp/cca0HwEs.s 			page 76


 4251      7400
 4252              	.LASF324:
 4253 006e 67707449 		.ascii	"gptInit\000"
 4253      6E697400 
 4254              	.LASF126:
 4255 0076 63685F64 		.ascii	"ch_debug\000"
 4255      65627567 
 4255      00
 4256              	.LASF47:
 4257 007f 705F6D73 		.ascii	"p_msgqueue\000"
 4257      67717565 
 4257      756500
 4258              	.LASF81:
 4259 008a 725F6374 		.ascii	"r_ctx\000"
 4259      7800
 4260              	.LASF18:
 4261 0090 696E7433 		.ascii	"int32_t\000"
 4261      325F7400 
 4262              	.LASF224:
 4263 0098 61646373 		.ascii	"adcstate_t\000"
 4263      74617465 
 4263      5F7400
 4264              	.LASF115:
 4265 00a3 63665F6F 		.ascii	"cf_off_ctx\000"
 4265      66665F63 
 4265      747800
 4266              	.LASF70:
 4267 00ae 76746675 		.ascii	"vtfunc_t\000"
 4267      6E635F74 
 4267      00
 4268              	.LASF261:
 4269 00b7 736C6565 		.ascii	"sleep_event\000"
 4269      705F6576 
 4269      656E7400 
 4270              	.LASF310:
 4271 00c3 7373706F 		.ascii	"ssport\000"
 4271      727400
 4272              	.LASF210:
 4273 00ca 4C50435F 		.ascii	"LPC_GPDMACH_TypeDef\000"
 4273      4750444D 
 4273      4143485F 
 4273      54797065 
 4273      44656600 
 4274              	.LASF292:
 4275 00de 77726974 		.ascii	"write\000"
 4275      6500
 4276              	.LASF262:
 4277 00e4 77616B65 		.ascii	"wakeup_event\000"
 4277      75705F65 
 4277      76656E74 
 4277      00
 4278              	.LASF180:
 4279 00f1 43544352 		.ascii	"CTCR\000"
 4279      00
 4280              	.LASF99:
 4281 00f6 656C5F66 		.ascii	"el_flags\000"
 4281      6C616773 
ARM GAS  /tmp/cca0HwEs.s 			page 77


 4281      00
 4282              	.LASF270:
 4283 00ff 67707473 		.ascii	"gptstate_t\000"
 4283      74617465 
 4283      5F7400
 4284              	.LASF231:
 4285 010a 636F6E66 		.ascii	"config\000"
 4285      696700
 4286              	.LASF230:
 4287 0111 73746174 		.ascii	"state\000"
 4287      6500
 4288              	.LASF256:
 4289 0117 74787365 		.ascii	"txsem\000"
 4289      6D00
 4290              	.LASF191:
 4291 011d 4C50435F 		.ascii	"LPC_ADC_TypeDef\000"
 4291      4144435F 
 4291      54797065 
 4291      44656600 
 4292              	.LASF294:
 4293 012d 70757474 		.ascii	"putt\000"
 4293      00
 4294              	.LASF255:
 4295 0132 43414E43 		.ascii	"CANConfig\000"
 4295      6F6E6669 
 4295      6700
 4296              	.LASF314:
 4297 013c 53504944 		.ascii	"SPID1\000"
 4297      3100
 4298              	.LASF315:
 4299 0142 53504944 		.ascii	"SPID2\000"
 4299      3200
 4300              	.LASF189:
 4301 0148 53544154 		.ascii	"STAT\000"
 4301      00
 4302              	.LASF111:
 4303 014d 63685F70 		.ascii	"ch_ptrsize\000"
 4303      74727369 
 4303      7A6500
 4304              	.LASF243:
 4305 0158 6572726F 		.ascii	"error_cb\000"
 4305      725F6362 
 4305      00
 4306              	.LASF276:
 4307 0161 63616C6C 		.ascii	"callback\000"
 4307      6261636B 
 4307      00
 4308              	.LASF253:
 4309 016a 43414E5F 		.ascii	"CAN_SLEEP\000"
 4309      534C4545 
 4309      5000
 4310              	.LASF237:
 4311 0174 6E73616D 		.ascii	"nsamples\000"
 4311      706C6573 
 4311      00
 4312              	.LASF93:
 4313 017d 6D5F6F77 		.ascii	"m_owner\000"
ARM GAS  /tmp/cca0HwEs.s 			page 78


 4313      6E657200 
 4314              	.LASF76:
 4315 0185 76745F70 		.ascii	"vt_par\000"
 4315      617200
 4316              	.LASF242:
 4317 018c 656E645F 		.ascii	"end_cb\000"
 4317      636200
 4318              	.LASF103:
 4319 0193 65786974 		.ascii	"exitcode\000"
 4319      636F6465 
 4319      00
 4320              	.LASF5:
 4321 019c 5F5F7569 		.ascii	"__uint8_t\000"
 4321      6E74385F 
 4321      7400
 4322              	.LASF131:
 4323 01a6 715F746F 		.ascii	"q_top\000"
 4323      7000
 4324              	.LASF206:
 4325 01ac 43446573 		.ascii	"CDestAddr\000"
 4325      74416464 
 4325      7200
 4326              	.LASF105:
 4327 01b6 65776D61 		.ascii	"ewmask\000"
 4327      736B00
 4328              	.LASF263:
 4329 01bd 43414E44 		.ascii	"CANDriver\000"
 4329      72697665 
 4329      7200
 4330              	.LASF113:
 4331 01c7 63685F74 		.ascii	"ch_threadsize\000"
 4331      68726561 
 4331      6473697A 
 4331      6500
 4332              	.LASF297:
 4333 01d5 72656164 		.ascii	"readt\000"
 4333      7400
 4334              	.LASF130:
 4335 01db 715F6275 		.ascii	"q_buffer\000"
 4335      66666572 
 4335      00
 4336              	.LASF205:
 4337 01e4 43537263 		.ascii	"CSrcAddr\000"
 4337      41646472 
 4337      00
 4338              	.LASF134:
 4339 01ed 715F6E6F 		.ascii	"q_notify\000"
 4339      74696679 
 4339      00
 4340              	.LASF38:
 4341 01f6 705F6E65 		.ascii	"p_newer\000"
 4341      77657200 
 4342              	.LASF299:
 4343 01fe 5350495F 		.ascii	"SPI_STOP\000"
 4343      53544F50 
 4343      00
 4344              	.LASF11:
ARM GAS  /tmp/cca0HwEs.s 			page 79


 4345 0207 6C6F6E67 		.ascii	"long int\000"
 4345      20696E74 
 4345      00
 4346              	.LASF298:
 4347 0210 5350495F 		.ascii	"SPI_UNINIT\000"
 4347      554E494E 
 4347      495400
 4348              	.LASF34:
 4349 021b 705F6E65 		.ascii	"p_next\000"
 4349      787400
 4350              	.LASF133:
 4351 0222 715F7264 		.ascii	"q_rdptr\000"
 4351      70747200 
 4352              	.LASF120:
 4353 022a 63665F6F 		.ascii	"cf_off_state\000"
 4353      66665F73 
 4353      74617465 
 4353      00
 4354              	.LASF35:
 4355 0237 705F7072 		.ascii	"p_prev\000"
 4355      657600
 4356              	.LASF278:
 4357 023e 47505444 		.ascii	"GPTD1\000"
 4357      3100
 4358              	.LASF279:
 4359 0244 47505444 		.ascii	"GPTD2\000"
 4359      3200
 4360              	.LASF280:
 4361 024a 47505444 		.ascii	"GPTD3\000"
 4361      3300
 4362              	.LASF281:
 4363 0250 47505444 		.ascii	"GPTD4\000"
 4363      3400
 4364              	.LASF216:
 4365 0256 696F706F 		.ascii	"ioportid_t\000"
 4365      72746964 
 4365      5F7400
 4366              	.LASF24:
 4367 0261 74737461 		.ascii	"tstate_t\000"
 4367      74655F74 
 4367      00
 4368              	.LASF50:
 4369 026a 705F6D74 		.ascii	"p_mtxlist\000"
 4369      786C6973 
 4369      7400
 4370              	.LASF289:
 4371 0274 6F717565 		.ascii	"oqueue\000"
 4371      756500
 4372              	.LASF55:
 4373 027b 72656761 		.ascii	"regarm_t\000"
 4373      726D5F74 
 4373      00
 4374              	.LASF325:
 4375 0284 7364496E 		.ascii	"sdInit\000"
 4375      697400
 4376              	.LASF187:
 4377 028b 4C50435F 		.ascii	"LPC_SSP_TypeDef\000"
ARM GAS  /tmp/cca0HwEs.s 			page 80


 4377      5353505F 
 4377      54797065 
 4377      44656600 
 4378              	.LASF217:
 4379 029b 70616C5F 		.ascii	"pal_default_config\000"
 4379      64656661 
 4379      756C745F 
 4379      636F6E66 
 4379      696700
 4380              	.LASF3:
 4381 02ae 7369676E 		.ascii	"signed char\000"
 4381      65642063 
 4381      68617200 
 4382              	.LASF44:
 4383 02ba 705F7072 		.ascii	"p_preempt\000"
 4383      65656D70 
 4383      7400
 4384              	.LASF277:
 4385 02c4 47505443 		.ascii	"GPTConfig\000"
 4385      6F6E6669 
 4385      6700
 4386              	.LASF16:
 4387 02ce 75696E74 		.ascii	"uint8_t\000"
 4387      385F7400 
 4388              	.LASF185:
 4389 02d6 494D5343 		.ascii	"IMSC\000"
 4389      00
 4390              	.LASF65:
 4391 02db 534C4545 		.ascii	"SLEEPCNT\000"
 4391      50434E54 
 4391      00
 4392              	.LASF296:
 4393 02e4 77726974 		.ascii	"writet\000"
 4393      657400
 4394              	.LASF320:
 4395 02eb 68616C5F 		.ascii	"hal_lld_init\000"
 4395      6C6C645F 
 4395      696E6974 
 4395      00
 4396              	.LASF29:
 4397 02f8 6576656E 		.ascii	"eventmask_t\000"
 4397      746D6173 
 4397      6B5F7400 
 4398              	.LASF58:
 4399 0304 636F6E74 		.ascii	"context\000"
 4399      65787400 
 4400              	.LASF258:
 4401 030c 72786675 		.ascii	"rxfull_event\000"
 4401      6C6C5F65 
 4401      76656E74 
 4401      00
 4402              	.LASF177:
 4403 0319 52455345 		.ascii	"RESERVED0\000"
 4403      52564544 
 4403      3000
 4404              	.LASF179:
 4405 0323 52455345 		.ascii	"RESERVED1\000"
ARM GAS  /tmp/cca0HwEs.s 			page 81


 4405      52564544 
 4405      3100
 4406              	.LASF6:
 4407 032d 756E7369 		.ascii	"unsigned char\000"
 4407      676E6564 
 4407      20636861 
 4407      7200
 4408              	.LASF304:
 4409 033b 53504944 		.ascii	"SPIDriver\000"
 4409      72697665 
 4409      7200
 4410              	.LASF135:
 4411 0345 715F6C69 		.ascii	"q_link\000"
 4411      6E6B00
 4412              	.LASF309:
 4413 034c 73706963 		.ascii	"spicallback_t\000"
 4413      616C6C62 
 4413      61636B5F 
 4413      7400
 4414              	.LASF73:
 4415 035a 76745F70 		.ascii	"vt_prev\000"
 4415      72657600 
 4416              	.LASF228:
 4417 0362 61646365 		.ascii	"adcerror_t\000"
 4417      72726F72 
 4417      5F7400
 4418              	.LASF82:
 4419 036d 725F6E65 		.ascii	"r_newer\000"
 4419      77657200 
 4420              	.LASF282:
 4421 0375 53445F55 		.ascii	"SD_UNINIT\000"
 4421      4E494E49 
 4421      5400
 4422              	.LASF220:
 4423 037f 4144435F 		.ascii	"ADC_READY\000"
 4423      52454144 
 4423      5900
 4424              	.LASF22:
 4425 0389 5F426F6F 		.ascii	"_Bool\000"
 4425      6C00
 4426              	.LASF182:
 4427 038f 52455345 		.ascii	"RESERVED2\000"
 4427      52564544 
 4427      3200
 4428              	.LASF225:
 4429 0399 61646373 		.ascii	"adcsample_t\000"
 4429      616D706C 
 4429      655F7400 
 4430              	.LASF186:
 4431 03a5 444D4143 		.ascii	"DMACR\000"
 4431      5200
 4432              	.LASF106:
 4433 03ab 63686172 		.ascii	"char\000"
 4433      00
 4434              	.LASF306:
 4435 03b0 72787074 		.ascii	"rxptr\000"
 4435      7200
ARM GAS  /tmp/cca0HwEs.s 			page 82


 4436              	.LASF265:
 4437 03b6 4750545F 		.ascii	"GPT_UNINIT\000"
 4437      554E494E 
 4437      495400
 4438              	.LASF36:
 4439 03c1 705F7072 		.ascii	"p_prio\000"
 4439      696F00
 4440              	.LASF8:
 4441 03c8 5F5F7569 		.ascii	"__uint16_t\000"
 4441      6E743136 
 4441      5F7400
 4442              	.LASF127:
 4443 03d3 47656E65 		.ascii	"GenericQueue\000"
 4443      72696351 
 4443      75657565 
 4443      00
 4444              	.LASF104:
 4445 03e0 77746F62 		.ascii	"wtobjp\000"
 4445      6A7000
 4446              	.LASF63:
 4447 03e7 43504943 		.ascii	"CPICNT\000"
 4447      4E5400
 4448              	.LASF223:
 4449 03ee 4144435F 		.ascii	"ADC_ERROR\000"
 4449      4552524F 
 4449      5200
 4450              	.LASF116:
 4451 03f8 63665F6F 		.ascii	"cf_off_newer\000"
 4451      66665F6E 
 4451      65776572 
 4451      00
 4452              	.LASF295:
 4453 0405 67657474 		.ascii	"gett\000"
 4453      00
 4454              	.LASF56:
 4455 040a 73746B61 		.ascii	"stkalign_t\000"
 4455      6C69676E 
 4455      5F7400
 4456              	.LASF165:
 4457 0415 46494F53 		.ascii	"FIOSET0\000"
 4457      45543000 
 4458              	.LASF166:
 4459 041d 46494F53 		.ascii	"FIOSET1\000"
 4459      45543100 
 4460              	.LASF167:
 4461 0425 46494F53 		.ascii	"FIOSET2\000"
 4461      45543200 
 4462              	.LASF138:
 4463 042d 4F757470 		.ascii	"OutputQueue\000"
 4463      75745175 
 4463      65756500 
 4464              	.LASF240:
 4465 0439 63697263 		.ascii	"circular\000"
 4465      756C6172 
 4465      00
 4466              	.LASF164:
 4467 0442 46494F53 		.ascii	"FIOSETH\000"
ARM GAS  /tmp/cca0HwEs.s 			page 83


 4467      45544800 
 4468              	.LASF163:
 4469 044a 46494F53 		.ascii	"FIOSETL\000"
 4469      45544C00 
 4470              	.LASF114:
 4471 0452 63665F6F 		.ascii	"cf_off_prio\000"
 4471      66665F70 
 4471      72696F00 
 4472              	.LASF326:
 4473 045e 73706949 		.ascii	"spiInit\000"
 4473      6E697400 
 4474              	.LASF204:
 4475 0466 4C50435F 		.ascii	"LPC_CAN_TypeDef\000"
 4475      43414E5F 
 4475      54797065 
 4475      44656600 
 4476              	.LASF252:
 4477 0476 43414E5F 		.ascii	"CAN_READY\000"
 4477      52454144 
 4477      5900
 4478              	.LASF232:
 4479 0480 73616D70 		.ascii	"samples\000"
 4479      6C657300 
 4480              	.LASF32:
 4481 0488 636E745F 		.ascii	"cnt_t\000"
 4481      7400
 4482              	.LASF194:
 4483 048e 54444131 		.ascii	"TDA1\000"
 4483      00
 4484              	.LASF198:
 4485 0493 54444132 		.ascii	"TDA2\000"
 4485      00
 4486              	.LASF202:
 4487 0498 54444133 		.ascii	"TDA3\000"
 4487      00
 4488              	.LASF75:
 4489 049d 76745F66 		.ascii	"vt_func\000"
 4489      756E6300 
 4490              	.LASF322:
 4491 04a5 61646349 		.ascii	"adcInit\000"
 4491      6E697400 
 4492              	.LASF57:
 4493 04ad 696E7463 		.ascii	"intctx\000"
 4493      747800
 4494              	.LASF49:
 4495 04b4 705F6570 		.ascii	"p_epending\000"
 4495      656E6469 
 4495      6E6700
 4496              	.LASF195:
 4497 04bf 54444231 		.ascii	"TDB1\000"
 4497      00
 4498              	.LASF199:
 4499 04c4 54444232 		.ascii	"TDB2\000"
 4499      00
 4500              	.LASF203:
 4501 04c9 54444233 		.ascii	"TDB3\000"
 4501      00
ARM GAS  /tmp/cca0HwEs.s 			page 84


 4502              	.LASF332:
 4503 04ce 68616C49 		.ascii	"halIsCounterWithin\000"
 4503      73436F75 
 4503      6E746572 
 4503      57697468 
 4503      696E00
 4504              	.LASF257:
 4505 04e1 72787365 		.ascii	"rxsem\000"
 4505      6D00
 4506              	.LASF254:
 4507 04e7 63616E73 		.ascii	"canstate_t\000"
 4507      74617465 
 4507      5F7400
 4508              	.LASF307:
 4509 04f2 7478636E 		.ascii	"txcnt\000"
 4509      7400
 4510              	.LASF101:
 4511 04f8 65735F6E 		.ascii	"es_next\000"
 4511      65787400 
 4512              	.LASF129:
 4513 0500 715F636F 		.ascii	"q_counter\000"
 4513      756E7465 
 4513      7200
 4514              	.LASF66:
 4515 050a 4C535543 		.ascii	"LSUCNT\000"
 4515      4E5400
 4516              	.LASF158:
 4517 0511 46494F50 		.ascii	"FIOPIN0\000"
 4517      494E3000 
 4518              	.LASF159:
 4519 0519 46494F50 		.ascii	"FIOPIN1\000"
 4519      494E3100 
 4520              	.LASF160:
 4521 0521 46494F50 		.ascii	"FIOPIN2\000"
 4521      494E3200 
 4522              	.LASF161:
 4523 0529 46494F50 		.ascii	"FIOPIN3\000"
 4523      494E3300 
 4524              	.LASF100:
 4525 0531 4576656E 		.ascii	"EventSource\000"
 4525      74536F75 
 4525      72636500 
 4526              	.LASF14:
 4527 053d 5F5F7569 		.ascii	"__uint64_t\000"
 4527      6E743634 
 4527      5F7400
 4528              	.LASF13:
 4529 0548 6C6F6E67 		.ascii	"long unsigned int\000"
 4529      20756E73 
 4529      69676E65 
 4529      6420696E 
 4529      7400
 4530              	.LASF108:
 4531 055a 63685F7A 		.ascii	"ch_zero\000"
 4531      65726F00 
 4532              	.LASF157:
 4533 0562 46494F50 		.ascii	"FIOPINH\000"
ARM GAS  /tmp/cca0HwEs.s 			page 85


 4533      494E4800 
 4534              	.LASF329:
 4535 056a 2E2E2F6F 		.ascii	"../os/hal/src/hal.c\000"
 4535      732F6861 
 4535      6C2F7372 
 4535      632F6861 
 4535      6C2E6300 
 4536              	.LASF156:
 4537 057e 46494F50 		.ascii	"FIOPINL\000"
 4537      494E4C00 
 4538              	.LASF141:
 4539 0586 53797374 		.ascii	"SystemCoreClock\000"
 4539      656D436F 
 4539      7265436C 
 4539      6F636B00 
 4540              	.LASF274:
 4541 0596 67707466 		.ascii	"gptfreq_t\000"
 4541      7265715F 
 4541      7400
 4542              	.LASF208:
 4543 05a0 43436F6E 		.ascii	"CControl\000"
 4543      74726F6C 
 4543      00
 4544              	.LASF96:
 4545 05a9 656C5F6E 		.ascii	"el_next\000"
 4545      65787400 
 4546              	.LASF241:
 4547 05b1 6E756D5F 		.ascii	"num_channels\000"
 4547      6368616E 
 4547      6E656C73 
 4547      00
 4548              	.LASF132:
 4549 05be 715F7772 		.ascii	"q_wrptr\000"
 4549      70747200 
 4550              	.LASF212:
 4551 05c6 5F6C7063 		.ascii	"_lpc17xx_dma_channel_config_t\000"
 4551      31377878 
 4551      5F646D61 
 4551      5F636861 
 4551      6E6E656C 
 4552              	.LASF291:
 4553 05e4 53657269 		.ascii	"SerialDriverVMT\000"
 4553      616C4472 
 4553      69766572 
 4553      564D5400 
 4554              	.LASF155:
 4555 05f4 46494F4D 		.ascii	"FIOMASK\000"
 4555      41534B00 
 4556              	.LASF193:
 4557 05fc 54494431 		.ascii	"TID1\000"
 4557      00
 4558              	.LASF197:
 4559 0601 54494432 		.ascii	"TID2\000"
 4559      00
 4560              	.LASF201:
 4561 0606 54494433 		.ascii	"TID3\000"
 4561      00
ARM GAS  /tmp/cca0HwEs.s 			page 86


 4562              	.LASF319:
 4563 060b 68616C49 		.ascii	"halInit\000"
 4563      6E697400 
 4564              	.LASF305:
 4565 0613 7278636E 		.ascii	"rxcnt\000"
 4565      7400
 4566              	.LASF245:
 4567 0619 41444343 		.ascii	"ADCConversionGroup\000"
 4567      6F6E7665 
 4567      7273696F 
 4567      6E47726F 
 4567      757000
 4568              	.LASF222:
 4569 062c 4144435F 		.ascii	"ADC_COMPLETE\000"
 4569      434F4D50 
 4569      4C455445 
 4569      00
 4570              	.LASF227:
 4571 0639 4144435F 		.ascii	"ADC_ERR_OVERRUN\000"
 4571      4552525F 
 4571      4F564552 
 4571      52554E00 
 4572              	.LASF312:
 4573 0649 63707372 		.ascii	"cpsr\000"
 4573      00
 4574              	.LASF144:
 4575 064e 46494F44 		.ascii	"FIODIR0\000"
 4575      49523000 
 4576              	.LASF145:
 4577 0656 46494F44 		.ascii	"FIODIR1\000"
 4577      49523100 
 4578              	.LASF146:
 4579 065e 46494F44 		.ascii	"FIODIR2\000"
 4579      49523200 
 4580              	.LASF147:
 4581 0666 46494F44 		.ascii	"FIODIR3\000"
 4581      49523300 
 4582              	.LASF123:
 4583 066e 63665F6F 		.ascii	"cf_off_preempt\000"
 4583      66665F70 
 4583      7265656D 
 4583      707400
 4584              	.LASF143:
 4585 067d 46494F44 		.ascii	"FIODIRH\000"
 4585      49524800 
 4586              	.LASF142:
 4587 0685 46494F44 		.ascii	"FIODIRL\000"
 4587      49524C00 
 4588              	.LASF12:
 4589 068d 5F5F7569 		.ascii	"__uint32_t\000"
 4589      6E743332 
 4589      5F7400
 4590              	.LASF91:
 4591 0698 4D757465 		.ascii	"Mutex\000"
 4591      7800
 4592              	.LASF300:
 4593 069e 5350495F 		.ascii	"SPI_READY\000"
ARM GAS  /tmp/cca0HwEs.s 			page 87


 4593      52454144 
 4593      5900
 4594              	.LASF1:
 4595 06a8 6C6F6E67 		.ascii	"long long int\000"
 4595      206C6F6E 
 4595      6720696E 
 4595      7400
 4596              	.LASF251:
 4597 06b6 43414E5F 		.ascii	"CAN_STARTING\000"
 4597      53544152 
 4597      54494E47 
 4597      00
 4598              	.LASF110:
 4599 06c3 63685F76 		.ascii	"ch_version\000"
 4599      65727369 
 4599      6F6E00
 4600              	.LASF92:
 4601 06ce 6D5F7175 		.ascii	"m_queue\000"
 4601      65756500 
 4602              	.LASF271:
 4603 06d6 47505444 		.ascii	"GPTDriver\000"
 4603      72697665 
 4603      7200
 4604              	.LASF190:
 4605 06e0 41445452 		.ascii	"ADTRM\000"
 4605      4D00
 4606              	.LASF88:
 4607 06e6 53656D61 		.ascii	"Semaphore\000"
 4607      70686F72 
 4607      6500
 4608              	.LASF72:
 4609 06f0 76745F6E 		.ascii	"vt_next\000"
 4609      65787400 
 4610              	.LASF169:
 4611 06f8 46494F53 		.ascii	"FIOSET\000"
 4611      455400
 4612              	.LASF272:
 4613 06ff 636C6F63 		.ascii	"clock\000"
 4613      6B00
 4614              	.LASF239:
 4615 0705 61646365 		.ascii	"adcerrorcallback_t\000"
 4615      72726F72 
 4615      63616C6C 
 4615      6261636B 
 4615      5F7400
 4616              	.LASF233:
 4617 0718 64657074 		.ascii	"depth\000"
 4617      6800
 4618              	.LASF236:
 4619 071e 6D757465 		.ascii	"mutex\000"
 4619      7800
 4620              	.LASF140:
 4621 0724 49544D5F 		.ascii	"ITM_RxBuffer\000"
 4621      52784275 
 4621      66666572 
 4621      00
 4622              	.LASF275:
ARM GAS  /tmp/cca0HwEs.s 			page 88


 4623 0731 66726571 		.ascii	"frequency\000"
 4623      75656E63 
 4623      7900
 4624              	.LASF317:
 4625 073b 74696D65 		.ascii	"timeout\000"
 4625      6F757400 
 4626              	.LASF249:
 4627 0743 43414E5F 		.ascii	"CAN_UNINIT\000"
 4627      554E494E 
 4627      495400
 4628              	.LASF136:
 4629 074e 716E6F74 		.ascii	"qnotify_t\000"
 4629      6966795F 
 4629      7400
 4630              	.LASF269:
 4631 0758 4750545F 		.ascii	"GPT_ONESHOT\000"
 4631      4F4E4553 
 4631      484F5400 
 4632              	.LASF46:
 4633 0764 705F7761 		.ascii	"p_waiting\000"
 4633      6974696E 
 4633      6700
 4634              	.LASF287:
 4635 076e 6576656E 		.ascii	"event\000"
 4635      7400
 4636              	.LASF42:
 4637 0774 705F666C 		.ascii	"p_flags\000"
 4637      61677300 
 4638              	.LASF293:
 4639 077c 72656164 		.ascii	"read\000"
 4639      00
 4640              	.LASF285:
 4641 0781 73647374 		.ascii	"sdstate_t\000"
 4641      6174655F 
 4641      7400
 4642              	.LASF0:
 4643 078b 756E7369 		.ascii	"unsigned int\000"
 4643      676E6564 
 4643      20696E74 
 4643      00
 4644              	.LASF61:
 4645 0798 4354524C 		.ascii	"CTRL\000"
 4645      00
 4646              	.LASF119:
 4647 079d 63665F6F 		.ascii	"cf_off_stklimit\000"
 4647      66665F73 
 4647      746B6C69 
 4647      6D697400 
 4648              	.LASF313:
 4649 07ad 53504943 		.ascii	"SPIConfig\000"
 4649      6F6E6669 
 4649      6700
 4650              	.LASF301:
 4651 07b7 5350495F 		.ascii	"SPI_ACTIVE\000"
 4651      41435449 
 4651      564500
 4652              	.LASF151:
ARM GAS  /tmp/cca0HwEs.s 			page 89


 4653 07c2 46494F4D 		.ascii	"FIOMASK0\000"
 4653      41534B30 
 4653      00
 4654              	.LASF152:
 4655 07cb 46494F4D 		.ascii	"FIOMASK1\000"
 4655      41534B31 
 4655      00
 4656              	.LASF153:
 4657 07d4 46494F4D 		.ascii	"FIOMASK2\000"
 4657      41534B32 
 4657      00
 4658              	.LASF154:
 4659 07dd 46494F4D 		.ascii	"FIOMASK3\000"
 4659      41534B33 
 4659      00
 4660              	.LASF226:
 4661 07e6 6164635F 		.ascii	"adc_channels_num_t\000"
 4661      6368616E 
 4661      6E656C73 
 4661      5F6E756D 
 4661      5F7400
 4662              	.LASF52:
 4663 07f9 705F6D70 		.ascii	"p_mpool\000"
 4663      6F6F6C00 
 4664              	.LASF69:
 4665 0801 434D785F 		.ascii	"CMx_DWT\000"
 4665      44575400 
 4666              	.LASF172:
 4667 0809 46494F43 		.ascii	"FIOCLR0\000"
 4667      4C523000 
 4668              	.LASF173:
 4669 0811 46494F43 		.ascii	"FIOCLR1\000"
 4669      4C523100 
 4670              	.LASF174:
 4671 0819 46494F43 		.ascii	"FIOCLR2\000"
 4671      4C523200 
 4672              	.LASF175:
 4673 0821 46494F43 		.ascii	"FIOCLR3\000"
 4673      4C523300 
 4674              	.LASF43:
 4675 0829 705F7265 		.ascii	"p_refs\000"
 4675      667300
 4676              	.LASF150:
 4677 0830 46494F4D 		.ascii	"FIOMASKH\000"
 4677      41534B48 
 4677      00
 4678              	.LASF64:
 4679 0839 45584343 		.ascii	"EXCCNT\000"
 4679      4E5400
 4680              	.LASF149:
 4681 0840 46494F4D 		.ascii	"FIOMASKL\000"
 4681      41534B4C 
 4681      00
 4682              	.LASF112:
 4683 0849 63685F74 		.ascii	"ch_timesize\000"
 4683      696D6573 
 4683      697A6500 
ARM GAS  /tmp/cca0HwEs.s 			page 90


 4684              	.LASF318:
 4685 0855 68616C50 		.ascii	"halPolledDelay\000"
 4685      6F6C6C65 
 4685      6444656C 
 4685      617900
 4686              	.LASF59:
 4687 0864 494F5245 		.ascii	"IOREG32\000"
 4687      47333200 
 4688              	.LASF171:
 4689 086c 46494F43 		.ascii	"FIOCLRH\000"
 4689      4C524800 
 4690              	.LASF170:
 4691 0874 46494F43 		.ascii	"FIOCLRL\000"
 4691      4C524C00 
 4692              	.LASF328:
 4693 087c 474E5520 		.ascii	"GNU C11 6.3.1 20170620 -mcpu=cortex-m3 -mno-thumb-i"
 4693      43313120 
 4693      362E332E 
 4693      31203230 
 4693      31373036 
 4694 08af 6E746572 		.ascii	"nterwork -mthumb -ggdb -O2 -fomit-frame-pointer -ff"
 4694      776F726B 
 4694      202D6D74 
 4694      68756D62 
 4694      202D6767 
 4695 08e2 756E6374 		.ascii	"unction-sections -fdata-sections -fno-common\000"
 4695      696F6E2D 
 4695      73656374 
 4695      696F6E73 
 4695      202D6664 
 4696              	.LASF54:
 4697 090f 54687265 		.ascii	"ThreadsList\000"
 4697      6164734C 
 4697      69737400 
 4698              	.LASF248:
 4699 091b 41444344 		.ascii	"ADCD1\000"
 4699      3100
 4700              	.LASF30:
 4701 0921 666C6167 		.ascii	"flagsmask_t\000"
 4701      736D6173 
 4701      6B5F7400 
 4702              	.LASF244:
 4703 092d 696E7465 		.ascii	"inten\000"
 4703      6E00
 4704              	.LASF260:
 4705 0933 6572726F 		.ascii	"error_event\000"
 4705      725F6576 
 4705      656E7400 
 4706              	.LASF45:
 4707 093f 705F7469 		.ascii	"p_time\000"
 4707      6D6500
 4708              	.LASF148:
 4709 0946 46494F44 		.ascii	"FIODIR\000"
 4709      495200
 4710              	.LASF122:
 4711 094d 63665F6F 		.ascii	"cf_off_refs\000"
 4711      66665F72 
ARM GAS  /tmp/cca0HwEs.s 			page 91


 4711      65667300 
 4712              	.LASF181:
 4713 0959 4C50435F 		.ascii	"LPC_TIM_TypeDef\000"
 4713      54494D5F 
 4713      54797065 
 4713      44656600 
 4714              	.LASF176:
 4715 0969 46494F43 		.ascii	"FIOCLR\000"
 4715      4C5200
 4716              	.LASF2:
 4717 0970 6C6F6E67 		.ascii	"long double\000"
 4717      20646F75 
 4717      626C6500 
 4718              	.LASF51:
 4719 097c 705F7265 		.ascii	"p_realprio\000"
 4719      616C7072 
 4719      696F00
 4720              	.LASF124:
 4721 0987 63665F6F 		.ascii	"cf_off_time\000"
 4721      66665F74 
 4721      696D6500 
 4722              	.LASF221:
 4723 0993 4144435F 		.ascii	"ADC_ACTIVE\000"
 4723      41435449 
 4723      564500
 4724              	.LASF330:
 4725 099e 2F686F6D 		.ascii	"/home/ekobayu/Arok-Gandring-Lokajaya/LPC/ChibiOS-RT"
 4725      652F656B 
 4725      6F626179 
 4725      752F4172 
 4725      6F6B2D47 
 4726 09d1 2D4C5043 		.ascii	"-LPC/Chibi_LPC1766\000"
 4726      2F436869 
 4726      62695F4C 
 4726      50433137 
 4726      363600
 4727              	.LASF90:
 4728 09e4 735F636E 		.ascii	"s_cnt\000"
 4728      7400
 4729              	.LASF15:
 4730 09ea 6C6F6E67 		.ascii	"long long unsigned int\000"
 4730      206C6F6E 
 4730      6720756E 
 4730      7369676E 
 4730      65642069 
 4731              	.LASF39:
 4732 0a01 705F6F6C 		.ascii	"p_older\000"
 4732      64657200 
 4733              	.LASF17:
 4734 0a09 75696E74 		.ascii	"uint16_t\000"
 4734      31365F74 
 4734      00
 4735              	.LASF28:
 4736 0a12 6D73675F 		.ascii	"msg_t\000"
 4736      7400
 4737              	.LASF162:
 4738 0a18 46494F50 		.ascii	"FIOPIN\000"
ARM GAS  /tmp/cca0HwEs.s 			page 92


 4738      494E00
 4739              	.LASF121:
 4740 0a1f 63665F6F 		.ascii	"cf_off_flags\000"
 4740      66665F66 
 4740      6C616773 
 4740      00
 4741              	.LASF26:
 4742 0a2c 74736C69 		.ascii	"tslices_t\000"
 4742      6365735F 
 4742      7400
 4743              	.LASF267:
 4744 0a36 4750545F 		.ascii	"GPT_READY\000"
 4744      52454144 
 4744      5900
 4745              	.LASF268:
 4746 0a40 4750545F 		.ascii	"GPT_CONTINUOUS\000"
 4746      434F4E54 
 4746      494E554F 
 4746      555300
 4747              	.LASF84:
 4748 0a4f 725F6375 		.ascii	"r_current\000"
 4748      7272656E 
 4748      7400
 4749              	.LASF78:
 4750 0a59 56544C69 		.ascii	"VTList\000"
 4750      737400
 4751              	.LASF229:
 4752 0a60 41444344 		.ascii	"ADCDriver\000"
 4752      72697665 
 4752      7200
 4753              	.LASF183:
 4754 0a6a 4C50435F 		.ascii	"LPC_UART_TypeDef\000"
 4754      55415254 
 4754      5F547970 
 4754      65446566 
 4754      00
 4755              	.LASF68:
 4756 0a7b 50435352 		.ascii	"PCSR\000"
 4756      00
 4757              	.LASF207:
 4758 0a80 434C4C49 		.ascii	"CLLI\000"
 4758      00
 4759              	.LASF79:
 4760 0a85 725F7175 		.ascii	"r_queue\000"
 4760      65756500 
 4761              	.LASF264:
 4762 0a8d 43414E44 		.ascii	"CAND1\000"
 4762      3100
 4763              	.LASF286:
 4764 0a93 53657269 		.ascii	"SerialDriver\000"
 4764      616C4472 
 4764      69766572 
 4764      00
 4765              	.LASF128:
 4766 0aa0 715F7761 		.ascii	"q_waiting\000"
 4766      6974696E 
 4766      6700
ARM GAS  /tmp/cca0HwEs.s 			page 93


 4767              	.LASF87:
 4768 0aaa 726C6973 		.ascii	"rlist\000"
 4768      7400
 4769              	.LASF23:
 4770 0ab0 746D6F64 		.ascii	"tmode_t\000"
 4770      655F7400 
 4771              	.LASF246:
 4772 0ab8 64756D6D 		.ascii	"dummy\000"
 4772      7900
 4773              	.LASF219:
 4774 0abe 4144435F 		.ascii	"ADC_STOP\000"
 4774      53544F50 
 4774      00
 4775              	.LASF184:
 4776 0ac7 43505352 		.ascii	"CPSR\000"
 4776      00
 4777              	.LASF77:
 4778 0acc 76745F73 		.ascii	"vt_systime\000"
 4778      79737469 
 4778      6D6500
 4779              	.LASF284:
 4780 0ad7 53445F52 		.ascii	"SD_READY\000"
 4780      45414459 
 4780      00
 4781              	.LASF211:
 4782 0ae0 68616C72 		.ascii	"halrtcnt_t\000"
 4782      74636E74 
 4782      5F7400
 4783              	.LASF259:
 4784 0aeb 7478656D 		.ascii	"txempty_event\000"
 4784      7074795F 
 4784      6576656E 
 4784      7400
 4785              	.LASF234:
 4786 0af9 67727070 		.ascii	"grpp\000"
 4786      00
 4787              	.LASF83:
 4788 0afe 725F6F6C 		.ascii	"r_older\000"
 4788      64657200 
 4789              	.LASF235:
 4790 0b06 74687265 		.ascii	"thread\000"
 4790      616400
 4791              	.LASF89:
 4792 0b0d 735F7175 		.ascii	"s_queue\000"
 4792      65756500 
 4793              	.LASF7:
 4794 0b15 73686F72 		.ascii	"short int\000"
 4794      7420696E 
 4794      7400
 4795              	.LASF20:
 4796 0b1f 75696E74 		.ascii	"uint64_t\000"
 4796      36345F74 
 4796      00
 4797              	.LASF290:
 4798 0b28 75617274 		.ascii	"uart\000"
 4798      00
 4799              	.LASF288:
ARM GAS  /tmp/cca0HwEs.s 			page 94


 4800 0b2d 69717565 		.ascii	"iqueue\000"
 4800      756500
 4801              	.LASF80:
 4802 0b34 725F7072 		.ascii	"r_prio\000"
 4802      696F00
 4803              	.LASF327:
 4804 0b3b 626F6172 		.ascii	"boardInit\000"
 4804      64496E69 
 4804      7400
 4805              	.LASF214:
 4806 0b45 6C706331 		.ascii	"lpc17xx_gpio_setup_t\000"
 4806      3778785F 
 4806      6770696F 
 4806      5F736574 
 4806      75705F74 
 4807              	.LASF21:
 4808 0b5a 626F6F6C 		.ascii	"bool_t\000"
 4808      5F7400
 4809              	.LASF117:
 4810 0b61 63665F6F 		.ascii	"cf_off_older\000"
 4810      66665F6F 
 4810      6C646572 
 4810      00
 4811              	.LASF215:
 4812 0b6e 50414C43 		.ascii	"PALConfig\000"
 4812      6F6E6669 
 4812      6700
 4813              	.LASF33:
 4814 0b78 54687265 		.ascii	"Thread\000"
 4814      616400
 4815              	.LASF86:
 4816 0b7f 76746C69 		.ascii	"vtlist\000"
 4816      737400
 4817              	.LASF209:
 4818 0b86 43436F6E 		.ascii	"CConfig\000"
 4818      66696700 
 4819              	.LASF62:
 4820 0b8e 43594343 		.ascii	"CYCCNT\000"
 4820      4E5400
 4821              	.LASF331:
 4822 0b95 7469636B 		.ascii	"ticks\000"
 4822      7300
 4823              	.LASF25:
 4824 0b9b 74726566 		.ascii	"trefs_t\000"
 4824      735F7400 
 4825              	.LASF139:
 4826 0ba3 5F69646C 		.ascii	"_idle_thread_wa\000"
 4826      655F7468 
 4826      72656164 
 4826      5F776100 
 4827              	.LASF192:
 4828 0bb3 54464931 		.ascii	"TFI1\000"
 4828      00
 4829              	.LASF188:
 4830 0bb8 494E5445 		.ascii	"INTEN\000"
 4830      4E00
 4831              	.LASF95:
ARM GAS  /tmp/cca0HwEs.s 			page 95


 4832 0bbe 4576656E 		.ascii	"EventListener\000"
 4832      744C6973 
 4832      74656E65 
 4832      7200
 4833              	.LASF323:
 4834 0bcc 63616E49 		.ascii	"canInit\000"
 4834      6E697400 
 4835              	.LASF19:
 4836 0bd4 75696E74 		.ascii	"uint32_t\000"
 4836      33325F74 
 4836      00
 4837              	.LASF71:
 4838 0bdd 56697274 		.ascii	"VirtualTimer\000"
 4838      75616C54 
 4838      696D6572 
 4838      00
 4839              	.LASF53:
 4840 0bea 54687265 		.ascii	"ThreadsQueue\000"
 4840      61647351 
 4840      75657565 
 4840      00
 4841              	.LASF302:
 4842 0bf7 5350495F 		.ascii	"SPI_COMPLETE\000"
 4842      434F4D50 
 4842      4C455445 
 4842      00
 4843              	.LASF178:
 4844 0c04 4C50435F 		.ascii	"LPC_GPIO_TypeDef\000"
 4844      4750494F 
 4844      5F547970 
 4844      65446566 
 4844      00
 4845              	.LASF102:
 4846 0c15 7264796D 		.ascii	"rdymsg\000"
 4846      736700
 4847              	.LASF266:
 4848 0c1c 4750545F 		.ascii	"GPT_STOP\000"
 4848      53544F50 
 4848      00
 4849              	.LASF9:
 4850 0c25 73686F72 		.ascii	"short unsigned int\000"
 4850      7420756E 
 4850      7369676E 
 4850      65642069 
 4850      6E7400
 4851              	.LASF218:
 4852 0c38 4144435F 		.ascii	"ADC_UNINIT\000"
 4852      554E494E 
 4852      495400
 4853              	.LASF125:
 4854 0c43 63686465 		.ascii	"chdebug_t\000"
 4854      6275675F 
 4854      7400
 4855              	.LASF303:
 4856 0c4d 73706973 		.ascii	"spistate_t\000"
 4856      74617465 
 4856      5F7400
ARM GAS  /tmp/cca0HwEs.s 			page 96


 4857              	.LASF137:
 4858 0c58 496E7075 		.ascii	"InputQueue\000"
 4858      74517565 
 4858      756500
 4859              	.LASF109:
 4860 0c63 63685F73 		.ascii	"ch_size\000"
 4860      697A6500 
 4861              	.LASF10:
 4862 0c6b 5F5F696E 		.ascii	"__int32_t\000"
 4862      7433325F 
 4862      7400
 4863              	.LASF283:
 4864 0c75 53445F53 		.ascii	"SD_STOP\000"
 4864      544F5000 
 4865              	.LASF67:
 4866 0c7d 464F4C44 		.ascii	"FOLDCNT\000"
 4866      434E5400 
 4867              	.LASF98:
 4868 0c85 656C5F6D 		.ascii	"el_mask\000"
 4868      61736B00 
 4869              	.LASF85:
 4870 0c8d 52656164 		.ascii	"ReadyList\000"
 4870      794C6973 
 4870      7400
 4871              	.LASF311:
 4872 0c97 73737061 		.ascii	"sspad\000"
 4872      6400
 4873              	.LASF168:
 4874 0c9d 46494F53 		.ascii	"FIOSET3\000"
 4874      45543300 
 4875              	.LASF308:
 4876 0ca5 74787074 		.ascii	"txptr\000"
 4876      7200
 4877              	.LASF250:
 4878 0cab 43414E5F 		.ascii	"CAN_STOP\000"
 4878      53544F50 
 4878      00
 4879              	.LASF40:
 4880 0cb4 705F6E61 		.ascii	"p_name\000"
 4880      6D6500
 4881              	.LASF74:
 4882 0cbb 76745F74 		.ascii	"vt_time\000"
 4882      696D6500 
 4883              	.LASF213:
 4884 0cc3 64617461 		.ascii	"data\000"
 4884      00
 4885              	.LASF94:
 4886 0cc8 6D5F6E65 		.ascii	"m_next\000"
 4886      787400
 4887              	.LASF273:
 4888 0ccf 67707463 		.ascii	"gptcallback_t\000"
 4888      616C6C62 
 4888      61636B5F 
 4888      7400
 4889              	.LASF48:
 4890 0cdd 705F6D73 		.ascii	"p_msg\000"
 4890      6700
ARM GAS  /tmp/cca0HwEs.s 			page 97


 4891              	.LASF97:
 4892 0ce3 656C5F6C 		.ascii	"el_listener\000"
 4892      69737465 
 4892      6E657200 
 4893              	.LASF247:
 4894 0cef 41444343 		.ascii	"ADCConfig\000"
 4894      6F6E6669 
 4894      6700
 4895              	.LASF41:
 4896 0cf9 705F7374 		.ascii	"p_state\000"
 4896      61746500 
 4897              		.ident	"GCC: (15:6.3.1+svn253039-1build1) 6.3.1 20170620"
ARM GAS  /tmp/cca0HwEs.s 			page 98


DEFINED SYMBOLS
                            *ABS*:0000000000000000 hal.c
     /tmp/cca0HwEs.s:16     .text.halInit:0000000000000000 $t
     /tmp/cca0HwEs.s:24     .text.halInit:0000000000000000 halInit
     /tmp/cca0HwEs.s:68     .text.halInit:0000000000000028 $d
     /tmp/cca0HwEs.s:73     .text.halIsCounterWithin:0000000000000000 $t
     /tmp/cca0HwEs.s:81     .text.halIsCounterWithin:0000000000000000 halIsCounterWithin
     /tmp/cca0HwEs.s:126    .text.halIsCounterWithin:0000000000000024 $d
     /tmp/cca0HwEs.s:131    .text.halPolledDelay:0000000000000000 $t
     /tmp/cca0HwEs.s:139    .text.halPolledDelay:0000000000000000 halPolledDelay
     /tmp/cca0HwEs.s:197    .text.halPolledDelay:0000000000000024 $d
                     .debug_frame:0000000000000010 $d

UNDEFINED SYMBOLS
hal_lld_init
_pal_lld_init
adcInit
canInit
gptInit
sdInit
spiInit
boardInit
pal_default_config
