ARM GAS  /tmp/cca0HwEs.s 			page 1


   1              		.cpu cortex-m3
   2              		.eabi_attribute 20, 1
   3              		.eabi_attribute 21, 1
   4              		.eabi_attribute 23, 3
   5              		.eabi_attribute 24, 1
   6              		.eabi_attribute 25, 1
   7              		.eabi_attribute 26, 1
   8              		.eabi_attribute 30, 2
   9              		.eabi_attribute 34, 1
  10              		.eabi_attribute 18, 4
  11              		.file	"hal.c"
  12              		.text
  13              	.Ltext0:
  14              		.cfi_sections	.debug_frame
  15              		.section	.text.halInit,"ax",%progbits
  16              		.align	1
  17              		.p2align 2,,3
  18              		.global	halInit
  19              		.syntax unified
  20              		.thumb
  21              		.thumb_func
  22              		.fpu softvfp
  23              		.type	halInit, %function
  24              	halInit:
  25              	.LFB63:
  26              		.file 1 "../os/hal/src/hal.c"
  27              		.loc 1 61 0
  28              		.cfi_startproc
  29              		@ args = 0, pretend = 0, frame = 0
  30              		@ frame_needed = 0, uses_anonymous_args = 0
  31 0000 08B5     		push	{r3, lr}
  32              		.cfi_def_cfa_offset 8
  33              		.cfi_offset 3, -8
  34              		.cfi_offset 14, -4
  35              		.loc 1 63 0
  36 0002 FFF7FEFF 		bl	hal_lld_init
  37              	.LVL0:
  38              		.loc 1 69 0
  39 0006 0848     		ldr	r0, .L3
  40 0008 FFF7FEFF 		bl	_pal_lld_init
  41              	.LVL1:
  42              		.loc 1 72 0
  43 000c FFF7FEFF 		bl	adcInit
  44              	.LVL2:
  45              		.loc 1 75 0
  46 0010 FFF7FEFF 		bl	canInit
  47              	.LVL3:
  48              		.loc 1 84 0
  49 0014 FFF7FEFF 		bl	gptInit
  50              	.LVL4:
  51              		.loc 1 99 0
  52 0018 FFF7FEFF 		bl	sdInit
  53              	.LVL5:
  54              		.loc 1 105 0
  55 001c FFF7FEFF 		bl	spiInit
  56              	.LVL6:
  57              		.loc 1 124 0
ARM GAS  /tmp/cca0HwEs.s 			page 2


  58 0020 BDE80840 		pop	{r3, lr}
  59              		.cfi_restore 14
  60              		.cfi_restore 3
  61              		.cfi_def_cfa_offset 0
  62              		.loc 1 123 0
  63 0024 FFF7FEBF 		b	boardInit
  64              	.LVL7:
  65              	.L4:
  66              		.align	2
  67              	.L3:
  68 0028 00000000 		.word	pal_default_config
  69              		.cfi_endproc
  70              	.LFE63:
  71              		.size	halInit, .-halInit
  72              		.section	.text.halIsCounterWithin,"ax",%progbits
  73              		.align	1
  74              		.p2align 2,,3
  75              		.global	halIsCounterWithin
  76              		.syntax unified
  77              		.thumb
  78              		.thumb_func
  79              		.fpu softvfp
  80              		.type	halIsCounterWithin, %function
  81              	halIsCounterWithin:
  82              	.LFB64:
  83              		.loc 1 170 0
  84              		.cfi_startproc
  85              		@ args = 0, pretend = 0, frame = 0
  86              		@ frame_needed = 0, uses_anonymous_args = 0
  87              		@ link register save eliminated.
  88              	.LVL8:
  89              		.loc 1 171 0
  90 0000 084B     		ldr	r3, .L15
  91              		.loc 1 173 0
  92 0002 8142     		cmp	r1, r0
  93              		.loc 1 171 0
  94 0004 5B68     		ldr	r3, [r3, #4]
  95              	.LVL9:
  96              		.loc 1 173 0
  97 0006 06D9     		bls	.L6
  98              		.loc 1 173 0 is_stmt 0 discriminator 1
  99 0008 8342     		cmp	r3, r0
 100 000a 08D3     		bcc	.L14
 101              	.L12:
 102              		.loc 1 174 0 is_stmt 1 discriminator 2
 103 000c 8B42     		cmp	r3, r1
 104 000e 2CBF     		ite	cs
 105 0010 0020     		movcs	r0, #0
 106              	.LVL10:
 107 0012 0120     		movcc	r0, #1
 108 0014 7047     		bx	lr
 109              	.LVL11:
 110              	.L6:
 111              		.loc 1 174 0 is_stmt 0
 112 0016 8342     		cmp	r3, r0
 113 0018 F8D3     		bcc	.L12
 114 001a 0120     		movs	r0, #1
ARM GAS  /tmp/cca0HwEs.s 			page 3


 115              	.LVL12:
 116              		.loc 1 175 0 is_stmt 1
 117 001c 7047     		bx	lr
 118              	.LVL13:
 119              	.L14:
 120 001e 0020     		movs	r0, #0
 121              	.LVL14:
 122 0020 7047     		bx	lr
 123              	.L16:
 124 0022 00BF     		.align	2
 125              	.L15:
 126 0024 001000E0 		.word	-536866816
 127              		.cfi_endproc
 128              	.LFE64:
 129              		.size	halIsCounterWithin, .-halIsCounterWithin
 130              		.section	.text.halPolledDelay,"ax",%progbits
 131              		.align	1
 132              		.p2align 2,,3
 133              		.global	halPolledDelay
 134              		.syntax unified
 135              		.thumb
 136              		.thumb_func
 137              		.fpu softvfp
 138              		.type	halPolledDelay, %function
 139              	halPolledDelay:
 140              	.LFB65:
 141              		.loc 1 189 0
 142              		.cfi_startproc
 143              		@ args = 0, pretend = 0, frame = 0
 144              		@ frame_needed = 0, uses_anonymous_args = 0
 145              		@ link register save eliminated.
 146              	.LVL15:
 147              		.loc 1 190 0
 148 0000 084B     		ldr	r3, .L23
 149              	.LBB4:
 150              	.LBB5:
 151              		.loc 1 171 0
 152 0002 1946     		mov	r1, r3
 153              	.LBE5:
 154              	.LBE4:
 155              		.loc 1 190 0
 156 0004 5A68     		ldr	r2, [r3, #4]
 157              	.LVL16:
 158              		.loc 1 191 0
 159 0006 1044     		add	r0, r0, r2
 160              	.LVL17:
 161              	.L21:
 162              	.LBB8:
 163              	.LBB6:
 164              		.loc 1 173 0 discriminator 1
 165 0008 8242     		cmp	r2, r0
 166              		.loc 1 171 0 discriminator 1
 167 000a 4B68     		ldr	r3, [r1, #4]
 168              	.LVL18:
 169              		.loc 1 173 0 discriminator 1
 170 000c 02D2     		bcs	.L18
 171              		.loc 1 173 0 is_stmt 0
ARM GAS  /tmp/cca0HwEs.s 			page 4


 172 000e 9A42     		cmp	r2, r3
 173 0010 05D9     		bls	.L22
 174 0012 7047     		bx	lr
 175              	.L18:
 176              	.LVL19:
 177              		.loc 1 174 0 is_stmt 1
 178 0014 9A42     		cmp	r2, r3
 179 0016 F7D9     		bls	.L21
 180              	.LBE6:
 181              	.LBE8:
 182              		.loc 1 192 0
 183 0018 9842     		cmp	r0, r3
 184 001a F5D8     		bhi	.L21
 185 001c 7047     		bx	lr
 186              	.LVL20:
 187              	.L22:
 188              	.LBB9:
 189              	.LBB7:
 190              		.loc 1 173 0
 191 001e 9842     		cmp	r0, r3
 192 0020 F2D8     		bhi	.L21
 193 0022 7047     		bx	lr
 194              	.L24:
 195              		.align	2
 196              	.L23:
 197 0024 001000E0 		.word	-536866816
 198              	.LBE7:
 199              	.LBE9:
 200              		.cfi_endproc
 201              	.LFE65:
 202              		.size	halPolledDelay, .-halPolledDelay
 203              		.text
 204              	.Letext0:
 205              		.file 2 "/usr/lib/gcc/arm-none-eabi/6.3.1/include/stddef.h"
 206              		.file 3 "/usr/include/newlib/machine/_default_types.h"
 207              		.file 4 "/usr/include/newlib/sys/_stdint.h"
 208              		.file 5 "../os/ports/GCC/ARMCMx/chtypes.h"
 209              		.file 6 "../os/kernel/include/chlists.h"
 210              		.file 7 "../os/kernel/include/chthreads.h"
 211              		.file 8 "../os/ports/GCC/ARMCMx/chcore_v7m.h"
 212              		.file 9 "../os/ports/common/ARMCMx/nvic.h"
 213              		.file 10 "../os/kernel/include/chvt.h"
 214              		.file 11 "../os/kernel/include/chschd.h"
 215              		.file 12 "../os/kernel/include/chsem.h"
 216              		.file 13 "../os/kernel/include/chmtx.h"
 217              		.file 14 "../os/kernel/include/chevents.h"
 218              		.file 15 "../os/kernel/include/chregistry.h"
 219              		.file 16 "../os/kernel/include/chqueues.h"
 220              		.file 17 "../os/kernel/include/ch.h"
 221              		.file 18 "../os/ports/common/ARMCMx/CMSIS/include/core_cm3.h"
 222              		.file 19 "../os/hal/platforms/LPC17xx/system_LPC17xx.h"
 223              		.file 20 "../os/hal/platforms/LPC17xx/LPC17xx.h"
 224              		.file 21 "../os/hal/platforms/LPC17xx/hal_lld.h"
 225              		.file 22 "../os/hal/platforms/LPC17xx/lpc17xx_dma.h"
 226              		.file 23 "../os/hal/platforms/LPC17xx/pal_lld.h"
 227              		.file 24 "../os/hal/include/adc.h"
 228              		.file 25 "../os/hal/platforms/LPC17xx/adc_lld.h"
ARM GAS  /tmp/cca0HwEs.s 			page 5


 229              		.file 26 "../os/hal/include/can.h"
 230              		.file 27 "../os/hal/platforms/LPC17xx/can_lld.h"
 231              		.file 28 "../os/hal/include/gpt.h"
 232              		.file 29 "../os/hal/platforms/LPC17xx/gpt_lld.h"
 233              		.file 30 "../os/hal/include/serial.h"
 234              		.file 31 "../os/hal/platforms/LPC17xx/serial_lld.h"
 235              		.file 32 "../os/hal/include/spi.h"
 236              		.file 33 "../os/hal/platforms/LPC17xx/spi_lld.h"
 237              		.file 34 "../boards/LPC1766/board.h"