ARM GAS  /tmp/ccCyOv1V.s 			page 1


   1              		.cpu cortex-m3
   2              		.eabi_attribute 20, 1
   3              		.eabi_attribute 21, 1
   4              		.eabi_attribute 23, 3
   5              		.eabi_attribute 24, 1
   6              		.eabi_attribute 25, 1
   7              		.eabi_attribute 26, 1
   8              		.eabi_attribute 30, 2
   9              		.eabi_attribute 34, 1
  10              		.eabi_attribute 18, 4
  11              		.file	"hal_lld.c"
  12              		.text
  13              	.Ltext0:
  14              		.cfi_sections	.debug_frame
  15              		.section	.text.hal_lld_init,"ax",%progbits
  16              		.align	1
  17              		.p2align 2,,3
  18              		.global	hal_lld_init
  19              		.syntax unified
  20              		.thumb
  21              		.thumb_func
  22              		.fpu softvfp
  23              		.type	hal_lld_init, %function
  24              	hal_lld_init:
  25              	.LFB63:
  26              		.file 1 "../os/hal/platforms/LPC17xx/hal_lld.c"
  27              		.loc 1 58 0
  28              		.cfi_startproc
  29              		@ args = 0, pretend = 0, frame = 0
  30              		@ frame_needed = 0, uses_anonymous_args = 0
  31 0000 10B5     		push	{r4, lr}
  32              		.cfi_def_cfa_offset 8
  33              		.cfi_offset 4, -8
  34              		.cfi_offset 14, -4
  35              		.loc 1 61 0
  36 0002 0421     		movs	r1, #4
  37 0004 0B20     		movs	r0, #11
  38 0006 FFF7FEFF 		bl	nvicSetSystemHandlerPriority
  39              	.LVL0:
  40              		.loc 1 64 0
  41 000a 0722     		movs	r2, #7
  42              		.loc 1 63 0
  43 000c 0020     		movs	r0, #0
  44              		.loc 1 62 0
  45 000e 084B     		ldr	r3, .L3
  46 0010 084C     		ldr	r4, .L3+4
  47              		.loc 1 69 0
  48 0012 0949     		ldr	r1, .L3+8
  49              		.loc 1 62 0
  50 0014 5C60     		str	r4, [r3, #4]
  51              		.loc 1 63 0
  52 0016 9860     		str	r0, [r3, #8]
  53              		.loc 1 64 0
  54 0018 1A60     		str	r2, [r3]
  55              		.loc 1 69 0
  56 001a CB68     		ldr	r3, [r1, #12]
  57              		.loc 1 70 0
ARM GAS  /tmp/ccCyOv1V.s 			page 2


  58 001c 074A     		ldr	r2, .L3+12
  59              		.loc 1 69 0
  60 001e 43F08073 		orr	r3, r3, #16777216
  61 0022 CB60     		str	r3, [r1, #12]
  62              		.loc 1 70 0
  63 0024 1368     		ldr	r3, [r2]
  64 0026 43F00103 		orr	r3, r3, #1
  65 002a 1360     		str	r3, [r2]
  66 002c 10BD     		pop	{r4, pc}
  67              	.L4:
  68 002e 00BF     		.align	2
  69              	.L3:
  70 0030 10E000E0 		.word	-536813552
  71 0034 69810100 		.word	98665
  72 0038 F0ED00E0 		.word	-536810000
  73 003c 001000E0 		.word	-536866816
  74              		.cfi_endproc
  75              	.LFE63:
  76              		.size	hal_lld_init, .-hal_lld_init
  77              		.section	.text.LPC17xx_clock_init,"ax",%progbits
  78              		.align	1
  79              		.p2align 2,,3
  80              		.global	LPC17xx_clock_init
  81              		.syntax unified
  82              		.thumb
  83              		.thumb_func
  84              		.fpu softvfp
  85              		.type	LPC17xx_clock_init, %function
  86              	LPC17xx_clock_init:
  87              	.LFB64:
  88              		.loc 1 84 0
  89              		.cfi_startproc
  90              		@ args = 0, pretend = 0, frame = 0
  91              		@ frame_needed = 0, uses_anonymous_args = 0
  92              		.loc 1 87 0
  93 0000 1F4B     		ldr	r3, .L14
  94              		.loc 1 84 0
  95 0002 F0B5     		push	{r4, r5, r6, r7, lr}
  96              		.cfi_def_cfa_offset 20
  97              		.cfi_offset 4, -20
  98              		.cfi_offset 5, -16
  99              		.cfi_offset 6, -12
 100              		.cfi_offset 7, -8
 101              		.cfi_offset 14, -4
 102              		.loc 1 111 0
 103 0004 5520     		movs	r0, #85
 104              		.loc 1 110 0
 105 0006 AA24     		movs	r4, #170
 106              		.loc 1 102 0
 107 0008 4FF0020E 		mov	lr, #2
 108              		.loc 1 104 0
 109 000c 0027     		movs	r7, #0
 110              		.loc 1 109 0
 111 000e 2426     		movs	r6, #36
 112              		.loc 1 113 0
 113 0010 0125     		movs	r5, #1
 114              		.loc 1 116 0
ARM GAS  /tmp/ccCyOv1V.s 			page 3


 115 0012 1A46     		mov	r2, r3
 116              		.loc 1 87 0
 117 0014 1968     		ldr	r1, [r3]
 118              		.loc 1 99 0
 119 0016 DFF870C0 		ldr	ip, .L14+8
 120              		.loc 1 87 0
 121 001a 21F47041 		bic	r1, r1, #61440
 122 001e 41F48041 		orr	r1, r1, #16384
 123 0022 1960     		str	r1, [r3]
 124              		.loc 1 100 0
 125 0024 1749     		ldr	r1, .L14+4
 126              		.loc 1 99 0
 127 0026 C3F8A8C1 		str	ip, [r3, #424]
 128              		.loc 1 100 0
 129 002a C3F8AC11 		str	r1, [r3, #428]
 130              		.loc 1 102 0
 131 002e C3F804E1 		str	lr, [r3, #260]
 132              		.loc 1 104 0
 133 0032 C3F80C71 		str	r7, [r3, #268]
 134              		.loc 1 109 0
 135 0036 C3F88460 		str	r6, [r3, #132]
 136              		.loc 1 110 0
 137 003a C3F88C40 		str	r4, [r3, #140]
 138              		.loc 1 111 0
 139 003e C3F88C00 		str	r0, [r3, #140]
 140              		.loc 1 113 0
 141 0042 C3F88050 		str	r5, [r3, #128]
 142              		.loc 1 114 0
 143 0046 C3F88C40 		str	r4, [r3, #140]
 144              		.loc 1 115 0
 145 004a C3F88C00 		str	r0, [r3, #140]
 146              	.L6:
 147              		.loc 1 116 0 discriminator 1
 148 004e D2F88830 		ldr	r3, [r2, #136]
 149 0052 5B01     		lsls	r3, r3, #5
 150 0054 FBD5     		bpl	.L6
 151              		.loc 1 119 0
 152 0056 0324     		movs	r4, #3
 153              		.loc 1 120 0
 154 0058 AA20     		movs	r0, #170
 155              		.loc 1 121 0
 156 005a 5523     		movs	r3, #85
 157              		.loc 1 122 0
 158 005c 0849     		ldr	r1, .L14
 159              		.loc 1 119 0
 160 005e C2F88040 		str	r4, [r2, #128]
 161              		.loc 1 120 0
 162 0062 C2F88C00 		str	r0, [r2, #140]
 163              		.loc 1 121 0
 164 0066 C2F88C30 		str	r3, [r2, #140]
 165              	.L7:
 166              		.loc 1 122 0 discriminator 1
 167 006a D1F88830 		ldr	r3, [r1, #136]
 168 006e 13F0407F 		tst	r3, #50331648
 169 0072 FAD0     		beq	.L7
 170              		.loc 1 151 0
 171 0074 4FF40243 		mov	r3, #33280
ARM GAS  /tmp/ccCyOv1V.s 			page 4


 172 0078 C1F8C430 		str	r3, [r1, #196]
 173 007c F0BD     		pop	{r4, r5, r6, r7, pc}
 174              	.L15:
 175 007e 00BF     		.align	2
 176              	.L14:
 177 0080 00C00F40 		.word	1074774016
 178 0084 55545554 		.word	1414878293
 179 0088 55515155 		.word	1431392597
 180              		.cfi_endproc
 181              	.LFE64:
 182              		.size	LPC17xx_clock_init, .-LPC17xx_clock_init
 183              		.text
 184              	.Letext0:
 185              		.file 2 "/usr/lib/gcc/arm-none-eabi/6.3.1/include/stddef.h"
 186              		.file 3 "/usr/include/newlib/machine/_default_types.h"
 187              		.file 4 "/usr/include/newlib/sys/_stdint.h"
 188              		.file 5 "../os/ports/GCC/ARMCMx/chtypes.h"
 189              		.file 6 "../os/kernel/include/chlists.h"
 190              		.file 7 "../os/kernel/include/chthreads.h"
 191              		.file 8 "../os/ports/GCC/ARMCMx/chcore_v7m.h"
 192              		.file 9 "../os/ports/common/ARMCMx/nvic.h"
 193              		.file 10 "../os/kernel/include/chvt.h"
 194              		.file 11 "../os/kernel/include/chschd.h"
 195              		.file 12 "../os/kernel/include/chsem.h"
 196              		.file 13 "../os/kernel/include/chmtx.h"
 197              		.file 14 "../os/kernel/include/chevents.h"
 198              		.file 15 "../os/kernel/include/chregistry.h"
 199              		.file 16 "../os/kernel/include/chqueues.h"
 200              		.file 17 "../os/kernel/include/ch.h"
 201              		.file 18 "../os/ports/common/ARMCMx/CMSIS/include/core_cm3.h"
 202              		.file 19 "../os/hal/platforms/LPC17xx/system_LPC17xx.h"
 203              		.file 20 "../os/hal/platforms/LPC17xx/LPC17xx.h"
 204              		.file 21 "../os/hal/platforms/LPC17xx/lpc17xx_dma.h"
 205              		.file 22 "../os/hal/platforms/LPC17xx/pal_lld.h"
 206              		.file 23 "../os/hal/include/adc.h"
 207              		.file 24 "../os/hal/platforms/LPC17xx/adc_lld.h"
 208              		.file 25 "../os/hal/include/can.h"
 209              		.file 26 "../os/hal/platforms/LPC17xx/can_lld.h"
 210              		.file 27 "../os/hal/include/gpt.h"
 211              		.file 28 "../os/hal/platforms/LPC17xx/gpt_lld.h"
 212              		.file 29 "../os/hal/include/serial.h"
 213              		.file 30 "../os/hal/platforms/LPC17xx/serial_lld.h"
 214              		.file 31 "../os/hal/include/spi.h"
 215              		.file 32 "../os/hal/platforms/LPC17xx/spi_lld.h"