ARM GAS  /tmp/ccCyOv1V.s 			page 1


   1              		.cpu cortex-m3
   2              		.eabi_attribute 20, 1
   3              		.eabi_attribute 21, 1
   4              		.eabi_attribute 23, 3
   5              		.eabi_attribute 24, 1
   6              		.eabi_attribute 25, 1
   7              		.eabi_attribute 26, 1
   8              		.eabi_attribute 30, 2
   9              		.eabi_attribute 34, 1
  10              		.eabi_attribute 18, 4
  11              		.file	"hal_lld.c"
  12              		.text
  13              	.Ltext0:
  14              		.cfi_sections	.debug_frame
  15              		.section	.text.hal_lld_init,"ax",%progbits
  16              		.align	1
  17              		.p2align 2,,3
  18              		.global	hal_lld_init
  19              		.syntax unified
  20              		.thumb
  21              		.thumb_func
  22              		.fpu softvfp
  23              		.type	hal_lld_init, %function
  24              	hal_lld_init:
  25              	.LFB63:
  26              		.file 1 "../os/hal/platforms/LPC17xx/hal_lld.c"
  27              		.loc 1 58 0
  28              		.cfi_startproc
  29              		@ args = 0, pretend = 0, frame = 0
  30              		@ frame_needed = 0, uses_anonymous_args = 0
  31 0000 10B5     		push	{r4, lr}
  32              		.cfi_def_cfa_offset 8
  33              		.cfi_offset 4, -8
  34              		.cfi_offset 14, -4
  35              		.loc 1 61 0
  36 0002 0421     		movs	r1, #4
  37 0004 0B20     		movs	r0, #11
  38 0006 FFF7FEFF 		bl	nvicSetSystemHandlerPriority
  39              	.LVL0:
  40              		.loc 1 64 0
  41 000a 0722     		movs	r2, #7
  42              		.loc 1 63 0
  43 000c 0020     		movs	r0, #0
  44              		.loc 1 62 0
  45 000e 084B     		ldr	r3, .L3
  46 0010 084C     		ldr	r4, .L3+4
  47              		.loc 1 69 0
  48 0012 0949     		ldr	r1, .L3+8
  49              		.loc 1 62 0
  50 0014 5C60     		str	r4, [r3, #4]
  51              		.loc 1 63 0
  52 0016 9860     		str	r0, [r3, #8]
  53              		.loc 1 64 0
  54 0018 1A60     		str	r2, [r3]
  55              		.loc 1 69 0
  56 001a CB68     		ldr	r3, [r1, #12]
  57              		.loc 1 70 0
ARM GAS  /tmp/ccCyOv1V.s 			page 2


  58 001c 074A     		ldr	r2, .L3+12
  59              		.loc 1 69 0
  60 001e 43F08073 		orr	r3, r3, #16777216
  61 0022 CB60     		str	r3, [r1, #12]
  62              		.loc 1 70 0
  63 0024 1368     		ldr	r3, [r2]
  64 0026 43F00103 		orr	r3, r3, #1
  65 002a 1360     		str	r3, [r2]
  66 002c 10BD     		pop	{r4, pc}
  67              	.L4:
  68 002e 00BF     		.align	2
  69              	.L3:
  70 0030 10E000E0 		.word	-536813552
  71 0034 69810100 		.word	98665
  72 0038 F0ED00E0 		.word	-536810000
  73 003c 001000E0 		.word	-536866816
  74              		.cfi_endproc
  75              	.LFE63:
  76              		.size	hal_lld_init, .-hal_lld_init
  77              		.section	.text.LPC17xx_clock_init,"ax",%progbits
  78              		.align	1
  79              		.p2align 2,,3
  80              		.global	LPC17xx_clock_init
  81              		.syntax unified
  82              		.thumb
  83              		.thumb_func
  84              		.fpu softvfp
  85              		.type	LPC17xx_clock_init, %function
  86              	LPC17xx_clock_init:
  87              	.LFB64:
  88              		.loc 1 84 0
  89              		.cfi_startproc
  90              		@ args = 0, pretend = 0, frame = 0
  91              		@ frame_needed = 0, uses_anonymous_args = 0
  92              		.loc 1 87 0
  93 0000 1F4B     		ldr	r3, .L14
  94              		.loc 1 84 0
  95 0002 F0B5     		push	{r4, r5, r6, r7, lr}
  96              		.cfi_def_cfa_offset 20
  97              		.cfi_offset 4, -20
  98              		.cfi_offset 5, -16
  99              		.cfi_offset 6, -12
 100              		.cfi_offset 7, -8
 101              		.cfi_offset 14, -4
 102              		.loc 1 111 0
 103 0004 5520     		movs	r0, #85
 104              		.loc 1 110 0
 105 0006 AA24     		movs	r4, #170
 106              		.loc 1 102 0
 107 0008 4FF0020E 		mov	lr, #2
 108              		.loc 1 104 0
 109 000c 0027     		movs	r7, #0
 110              		.loc 1 109 0
 111 000e 2426     		movs	r6, #36
 112              		.loc 1 113 0
 113 0010 0125     		movs	r5, #1
 114              		.loc 1 116 0
ARM GAS  /tmp/ccCyOv1V.s 			page 3


 115 0012 1A46     		mov	r2, r3
 116              		.loc 1 87 0
 117 0014 1968     		ldr	r1, [r3]
 118              		.loc 1 99 0
 119 0016 DFF870C0 		ldr	ip, .L14+8
 120              		.loc 1 87 0
 121 001a 21F47041 		bic	r1, r1, #61440
 122 001e 41F48041 		orr	r1, r1, #16384
 123 0022 1960     		str	r1, [r3]
 124              		.loc 1 100 0
 125 0024 1749     		ldr	r1, .L14+4
 126              		.loc 1 99 0
 127 0026 C3F8A8C1 		str	ip, [r3, #424]
 128              		.loc 1 100 0
 129 002a C3F8AC11 		str	r1, [r3, #428]
 130              		.loc 1 102 0
 131 002e C3F804E1 		str	lr, [r3, #260]
 132              		.loc 1 104 0
 133 0032 C3F80C71 		str	r7, [r3, #268]
 134              		.loc 1 109 0
 135 0036 C3F88460 		str	r6, [r3, #132]
 136              		.loc 1 110 0
 137 003a C3F88C40 		str	r4, [r3, #140]
 138              		.loc 1 111 0
 139 003e C3F88C00 		str	r0, [r3, #140]
 140              		.loc 1 113 0
 141 0042 C3F88050 		str	r5, [r3, #128]
 142              		.loc 1 114 0
 143 0046 C3F88C40 		str	r4, [r3, #140]
 144              		.loc 1 115 0
 145 004a C3F88C00 		str	r0, [r3, #140]
 146              	.L6:
 147              		.loc 1 116 0 discriminator 1
 148 004e D2F88830 		ldr	r3, [r2, #136]
 149 0052 5B01     		lsls	r3, r3, #5
 150 0054 FBD5     		bpl	.L6
 151              		.loc 1 119 0
 152 0056 0324     		movs	r4, #3
 153              		.loc 1 120 0
 154 0058 AA20     		movs	r0, #170
 155              		.loc 1 121 0
 156 005a 5523     		movs	r3, #85
 157              		.loc 1 122 0
 158 005c 0849     		ldr	r1, .L14
 159              		.loc 1 119 0
 160 005e C2F88040 		str	r4, [r2, #128]
 161              		.loc 1 120 0
 162 0062 C2F88C00 		str	r0, [r2, #140]
 163              		.loc 1 121 0
 164 0066 C2F88C30 		str	r3, [r2, #140]
 165              	.L7:
 166              		.loc 1 122 0 discriminator 1
 167 006a D1F88830 		ldr	r3, [r1, #136]
 168 006e 13F0407F 		tst	r3, #50331648
 169 0072 FAD0     		beq	.L7
 170              		.loc 1 151 0
 171 0074 4FF40243 		mov	r3, #33280
ARM GAS  /tmp/ccCyOv1V.s 			page 4


 172 0078 C1F8C430 		str	r3, [r1, #196]
 173 007c F0BD     		pop	{r4, r5, r6, r7, pc}
 174              	.L15:
 175 007e 00BF     		.align	2
 176              	.L14:
 177 0080 00C00F40 		.word	1074774016
 178 0084 55545554 		.word	1414878293
 179 0088 55515155 		.word	1431392597
 180              		.cfi_endproc
 181              	.LFE64:
 182              		.size	LPC17xx_clock_init, .-LPC17xx_clock_init
 183              		.text
 184              	.Letext0:
 185              		.file 2 "/usr/lib/gcc/arm-none-eabi/6.3.1/include/stddef.h"
 186              		.file 3 "/usr/include/newlib/machine/_default_types.h"
 187              		.file 4 "/usr/include/newlib/sys/_stdint.h"
 188              		.file 5 "../os/ports/GCC/ARMCMx/chtypes.h"
 189              		.file 6 "../os/kernel/include/chlists.h"
 190              		.file 7 "../os/kernel/include/chthreads.h"
 191              		.file 8 "../os/ports/GCC/ARMCMx/chcore_v7m.h"
 192              		.file 9 "../os/ports/common/ARMCMx/nvic.h"
 193              		.file 10 "../os/kernel/include/chvt.h"
 194              		.file 11 "../os/kernel/include/chschd.h"
 195              		.file 12 "../os/kernel/include/chsem.h"
 196              		.file 13 "../os/kernel/include/chmtx.h"
 197              		.file 14 "../os/kernel/include/chevents.h"
 198              		.file 15 "../os/kernel/include/chregistry.h"
 199              		.file 16 "../os/kernel/include/chqueues.h"
 200              		.file 17 "../os/kernel/include/ch.h"
 201              		.file 18 "../os/ports/common/ARMCMx/CMSIS/include/core_cm3.h"
 202              		.file 19 "../os/hal/platforms/LPC17xx/system_LPC17xx.h"
 203              		.file 20 "../os/hal/platforms/LPC17xx/LPC17xx.h"
 204              		.file 21 "../os/hal/platforms/LPC17xx/lpc17xx_dma.h"
 205              		.file 22 "../os/hal/platforms/LPC17xx/pal_lld.h"
 206              		.file 23 "../os/hal/include/adc.h"
 207              		.file 24 "../os/hal/platforms/LPC17xx/adc_lld.h"
 208              		.file 25 "../os/hal/include/can.h"
 209              		.file 26 "../os/hal/platforms/LPC17xx/can_lld.h"
 210              		.file 27 "../os/hal/include/gpt.h"
 211              		.file 28 "../os/hal/platforms/LPC17xx/gpt_lld.h"
 212              		.file 29 "../os/hal/include/serial.h"
 213              		.file 30 "../os/hal/platforms/LPC17xx/serial_lld.h"
 214              		.file 31 "../os/hal/include/spi.h"
 215              		.file 32 "../os/hal/platforms/LPC17xx/spi_lld.h"
 216              		.section	.debug_info,"",%progbits
 217              	.Ldebug_info0:
 218 0000 A61B0000 		.4byte	0x1ba6
 219 0004 0400     		.2byte	0x4
 220 0006 00000000 		.4byte	.Ldebug_abbrev0
 221 000a 04       		.byte	0x4
 222 000b 01       		.uleb128 0x1
 223 000c F7080000 		.4byte	.LASF356
 224 0010 0C       		.byte	0xc
 225 0011 080A0000 		.4byte	.LASF357
 226 0015 740A0000 		.4byte	.LASF358
 227 0019 00000000 		.4byte	.Ldebug_ranges0+0
 228 001d 00000000 		.4byte	0
ARM GAS  /tmp/ccCyOv1V.s 			page 5


 229 0021 00000000 		.4byte	.Ldebug_line0
 230 0025 02       		.uleb128 0x2
 231 0026 04       		.byte	0x4
 232 0027 05       		.byte	0x5
 233 0028 696E7400 		.ascii	"int\000"
 234 002c 03       		.uleb128 0x3
 235 002d 00000000 		.4byte	.LASF4
 236 0031 02       		.byte	0x2
 237 0032 D8       		.byte	0xd8
 238 0033 37000000 		.4byte	0x37
 239 0037 04       		.uleb128 0x4
 240 0038 04       		.byte	0x4
 241 0039 07       		.byte	0x7
 242 003a 15080000 		.4byte	.LASF0
 243 003e 04       		.uleb128 0x4
 244 003f 08       		.byte	0x8
 245 0040 05       		.byte	0x5
 246 0041 2B070000 		.4byte	.LASF1
 247 0045 04       		.uleb128 0x4
 248 0046 08       		.byte	0x8
 249 0047 04       		.byte	0x4
 250 0048 400A0000 		.4byte	.LASF2
 251 004c 04       		.uleb128 0x4
 252 004d 01       		.byte	0x1
 253 004e 06       		.byte	0x6
 254 004f CE020000 		.4byte	.LASF3
 255 0053 03       		.uleb128 0x3
 256 0054 B3010000 		.4byte	.LASF5
 257 0058 03       		.byte	0x3
 258 0059 1D       		.byte	0x1d
 259 005a 5E000000 		.4byte	0x5e
 260 005e 04       		.uleb128 0x4
 261 005f 01       		.byte	0x1
 262 0060 08       		.byte	0x8
 263 0061 4D030000 		.4byte	.LASF6
 264 0065 04       		.uleb128 0x4
 265 0066 02       		.byte	0x2
 266 0067 05       		.byte	0x5
 267 0068 0F0C0000 		.4byte	.LASF7
 268 006c 03       		.uleb128 0x3
 269 006d 1A040000 		.4byte	.LASF8
 270 0071 03       		.byte	0x3
 271 0072 2B       		.byte	0x2b
 272 0073 77000000 		.4byte	0x77
 273 0077 04       		.uleb128 0x4
 274 0078 02       		.byte	0x2
 275 0079 07       		.byte	0x7
 276 007a 2E0D0000 		.4byte	.LASF9
 277 007e 03       		.uleb128 0x3
 278 007f 890D0000 		.4byte	.LASF10
 279 0083 03       		.byte	0x3
 280 0084 3F       		.byte	0x3f
 281 0085 89000000 		.4byte	0x89
 282 0089 04       		.uleb128 0x4
 283 008a 04       		.byte	0x4
 284 008b 05       		.byte	0x5
 285 008c 1E020000 		.4byte	.LASF11
ARM GAS  /tmp/ccCyOv1V.s 			page 6


 286 0090 03       		.uleb128 0x3
 287 0091 10070000 		.4byte	.LASF12
 288 0095 03       		.byte	0x3
 289 0096 41       		.byte	0x41
 290 0097 9B000000 		.4byte	0x9b
 291 009b 04       		.uleb128 0x4
 292 009c 04       		.byte	0x4
 293 009d 07       		.byte	0x7
 294 009e A1050000 		.4byte	.LASF13
 295 00a2 03       		.uleb128 0x3
 296 00a3 96050000 		.4byte	.LASF14
 297 00a7 03       		.byte	0x3
 298 00a8 5B       		.byte	0x5b
 299 00a9 AD000000 		.4byte	0xad
 300 00ad 04       		.uleb128 0x4
 301 00ae 08       		.byte	0x8
 302 00af 07       		.byte	0x7
 303 00b0 C60A0000 		.4byte	.LASF15
 304 00b4 03       		.uleb128 0x3
 305 00b5 EE020000 		.4byte	.LASF16
 306 00b9 04       		.byte	0x4
 307 00ba 18       		.byte	0x18
 308 00bb 53000000 		.4byte	0x53
 309 00bf 05       		.uleb128 0x5
 310 00c0 B4000000 		.4byte	0xb4
 311 00c4 06       		.uleb128 0x6
 312 00c5 B4000000 		.4byte	0xb4
 313 00c9 03       		.uleb128 0x3
 314 00ca E50A0000 		.4byte	.LASF17
 315 00ce 04       		.byte	0x4
 316 00cf 24       		.byte	0x24
 317 00d0 6C000000 		.4byte	0x6c
 318 00d4 05       		.uleb128 0x5
 319 00d5 C9000000 		.4byte	0xc9
 320 00d9 03       		.uleb128 0x3
 321 00da 8C000000 		.4byte	.LASF18
 322 00de 04       		.byte	0x4
 323 00df 2C       		.byte	0x2c
 324 00e0 7E000000 		.4byte	0x7e
 325 00e4 05       		.uleb128 0x5
 326 00e5 D9000000 		.4byte	0xd9
 327 00e9 03       		.uleb128 0x3
 328 00ea DD0C0000 		.4byte	.LASF19
 329 00ee 04       		.byte	0x4
 330 00ef 30       		.byte	0x30
 331 00f0 90000000 		.4byte	0x90
 332 00f4 05       		.uleb128 0x5
 333 00f5 E9000000 		.4byte	0xe9
 334 00f9 06       		.uleb128 0x6
 335 00fa F4000000 		.4byte	0xf4
 336 00fe 03       		.uleb128 0x3
 337 00ff 190C0000 		.4byte	.LASF20
 338 0103 04       		.byte	0x4
 339 0104 3C       		.byte	0x3c
 340 0105 A2000000 		.4byte	0xa2
 341 0109 03       		.uleb128 0x3
 342 010a 4A0C0000 		.4byte	.LASF21
ARM GAS  /tmp/ccCyOv1V.s 			page 7


 343 010e 05       		.byte	0x5
 344 010f 24       		.byte	0x24
 345 0110 14010000 		.4byte	0x114
 346 0114 04       		.uleb128 0x4
 347 0115 01       		.byte	0x1
 348 0116 02       		.byte	0x2
 349 0117 D4030000 		.4byte	.LASF22
 350 011b 03       		.uleb128 0x3
 351 011c AD0B0000 		.4byte	.LASF23
 352 0120 05       		.byte	0x5
 353 0121 25       		.byte	0x25
 354 0122 B4000000 		.4byte	0xb4
 355 0126 03       		.uleb128 0x3
 356 0127 7E020000 		.4byte	.LASF24
 357 012b 05       		.byte	0x5
 358 012c 26       		.byte	0x26
 359 012d B4000000 		.4byte	0xb4
 360 0131 03       		.uleb128 0x3
 361 0132 920C0000 		.4byte	.LASF25
 362 0136 05       		.byte	0x5
 363 0137 27       		.byte	0x27
 364 0138 B4000000 		.4byte	0xb4
 365 013c 03       		.uleb128 0x3
 366 013d 110B0000 		.4byte	.LASF26
 367 0141 05       		.byte	0x5
 368 0142 28       		.byte	0x28
 369 0143 B4000000 		.4byte	0xb4
 370 0147 03       		.uleb128 0x3
 371 0148 53000000 		.4byte	.LASF27
 372 014c 05       		.byte	0x5
 373 014d 29       		.byte	0x29
 374 014e E9000000 		.4byte	0xe9
 375 0152 03       		.uleb128 0x3
 376 0153 EE0A0000 		.4byte	.LASF28
 377 0157 05       		.byte	0x5
 378 0158 2A       		.byte	0x2a
 379 0159 D9000000 		.4byte	0xd9
 380 015d 03       		.uleb128 0x3
 381 015e 18030000 		.4byte	.LASF29
 382 0162 05       		.byte	0x5
 383 0163 2C       		.byte	0x2c
 384 0164 E9000000 		.4byte	0xe9
 385 0168 03       		.uleb128 0x3
 386 0169 A1090000 		.4byte	.LASF30
 387 016d 05       		.byte	0x5
 388 016e 2D       		.byte	0x2d
 389 016f E9000000 		.4byte	0xe9
 390 0173 03       		.uleb128 0x3
 391 0174 1C000000 		.4byte	.LASF31
 392 0178 05       		.byte	0x5
 393 0179 2E       		.byte	0x2e
 394 017a E9000000 		.4byte	0xe9
 395 017e 05       		.uleb128 0x5
 396 017f 73010000 		.4byte	0x173
 397 0183 03       		.uleb128 0x3
 398 0184 DB040000 		.4byte	.LASF32
 399 0188 05       		.byte	0x5
ARM GAS  /tmp/ccCyOv1V.s 			page 8


 400 0189 2F       		.byte	0x2f
 401 018a D9000000 		.4byte	0xd9
 402 018e 03       		.uleb128 0x3
 403 018f 680C0000 		.4byte	.LASF33
 404 0193 06       		.byte	0x6
 405 0194 23       		.byte	0x23
 406 0195 99010000 		.4byte	0x199
 407 0199 07       		.uleb128 0x7
 408 019a 680C0000 		.4byte	.LASF33
 409 019e 48       		.byte	0x48
 410 019f 07       		.byte	0x7
 411 01a0 57       		.byte	0x57
 412 01a1 96020000 		.4byte	0x296
 413 01a5 08       		.uleb128 0x8
 414 01a6 32020000 		.4byte	.LASF34
 415 01aa 07       		.byte	0x7
 416 01ab 58       		.byte	0x58
 417 01ac B7020000 		.4byte	0x2b7
 418 01b0 00       		.byte	0
 419 01b1 08       		.uleb128 0x8
 420 01b2 4E020000 		.4byte	.LASF35
 421 01b6 07       		.byte	0x7
 422 01b7 5A       		.byte	0x5a
 423 01b8 B7020000 		.4byte	0x2b7
 424 01bc 04       		.byte	0x4
 425 01bd 08       		.uleb128 0x8
 426 01be 13040000 		.4byte	.LASF36
 427 01c2 07       		.byte	0x7
 428 01c3 5C       		.byte	0x5c
 429 01c4 47010000 		.4byte	0x147
 430 01c8 08       		.byte	0x8
 431 01c9 08       		.uleb128 0x8
 432 01ca 4D000000 		.4byte	.LASF37
 433 01ce 07       		.byte	0x7
 434 01cf 5D       		.byte	0x5d
 435 01d0 7C030000 		.4byte	0x37c
 436 01d4 0C       		.byte	0xc
 437 01d5 08       		.uleb128 0x8
 438 01d6 0D020000 		.4byte	.LASF38
 439 01da 07       		.byte	0x7
 440 01db 5F       		.byte	0x5f
 441 01dc B7020000 		.4byte	0x2b7
 442 01e0 10       		.byte	0x10
 443 01e1 08       		.uleb128 0x8
 444 01e2 DD0A0000 		.4byte	.LASF39
 445 01e6 07       		.byte	0x7
 446 01e7 60       		.byte	0x60
 447 01e8 B7020000 		.4byte	0x2b7
 448 01ec 14       		.byte	0x14
 449 01ed 08       		.uleb128 0x8
 450 01ee D20D0000 		.4byte	.LASF40
 451 01f2 07       		.byte	0x7
 452 01f3 67       		.byte	0x67
 453 01f4 B5060000 		.4byte	0x6b5
 454 01f8 18       		.byte	0x18
 455 01f9 08       		.uleb128 0x8
 456 01fa 170E0000 		.4byte	.LASF41
ARM GAS  /tmp/ccCyOv1V.s 			page 9


 457 01fe 07       		.byte	0x7
 458 01ff 72       		.byte	0x72
 459 0200 26010000 		.4byte	0x126
 460 0204 1C       		.byte	0x1c
 461 0205 08       		.uleb128 0x8
 462 0206 F5070000 		.4byte	.LASF42
 463 020a 07       		.byte	0x7
 464 020b 76       		.byte	0x76
 465 020c 1B010000 		.4byte	0x11b
 466 0210 1D       		.byte	0x1d
 467 0211 08       		.uleb128 0x8
 468 0212 B3080000 		.4byte	.LASF43
 469 0216 07       		.byte	0x7
 470 0217 7B       		.byte	0x7b
 471 0218 31010000 		.4byte	0x131
 472 021c 1E       		.byte	0x1e
 473 021d 08       		.uleb128 0x8
 474 021e DA020000 		.4byte	.LASF44
 475 0222 07       		.byte	0x7
 476 0223 81       		.byte	0x81
 477 0224 3C010000 		.4byte	0x13c
 478 0228 1F       		.byte	0x1f
 479 0229 08       		.uleb128 0x8
 480 022a D1090000 		.4byte	.LASF45
 481 022e 07       		.byte	0x7
 482 022f 88       		.byte	0x88
 483 0230 7E010000 		.4byte	0x17e
 484 0234 20       		.byte	0x20
 485 0235 09       		.uleb128 0x9
 486 0236 705F7500 		.ascii	"p_u\000"
 487 023a 07       		.byte	0x7
 488 023b AD       		.byte	0xad
 489 023c 80060000 		.4byte	0x680
 490 0240 24       		.byte	0x24
 491 0241 08       		.uleb128 0x8
 492 0242 E5070000 		.4byte	.LASF46
 493 0246 07       		.byte	0x7
 494 0247 B2       		.byte	0xb2
 495 0248 DD020000 		.4byte	0x2dd
 496 024c 28       		.byte	0x28
 497 024d 08       		.uleb128 0x8
 498 024e 7B000000 		.4byte	.LASF47
 499 0252 07       		.byte	0x7
 500 0253 B8       		.byte	0xb8
 501 0254 BD020000 		.4byte	0x2bd
 502 0258 2C       		.byte	0x2c
 503 0259 08       		.uleb128 0x8
 504 025a FB0D0000 		.4byte	.LASF48
 505 025e 07       		.byte	0x7
 506 025f BC       		.byte	0xbc
 507 0260 52010000 		.4byte	0x152
 508 0264 34       		.byte	0x34
 509 0265 08       		.uleb128 0x8
 510 0266 FF040000 		.4byte	.LASF49
 511 026a 07       		.byte	0x7
 512 026b C2       		.byte	0xc2
 513 026c 5D010000 		.4byte	0x15d
ARM GAS  /tmp/ccCyOv1V.s 			page 10


 514 0270 38       		.byte	0x38
 515 0271 08       		.uleb128 0x8
 516 0272 91020000 		.4byte	.LASF50
 517 0276 07       		.byte	0x7
 518 0277 C9       		.byte	0xc9
 519 0278 C7060000 		.4byte	0x6c7
 520 027c 3C       		.byte	0x3c
 521 027d 08       		.uleb128 0x8
 522 027e 4C0A0000 		.4byte	.LASF51
 523 0282 07       		.byte	0x7
 524 0283 CD       		.byte	0xcd
 525 0284 47010000 		.4byte	0x147
 526 0288 40       		.byte	0x40
 527 0289 08       		.uleb128 0x8
 528 028a 83080000 		.4byte	.LASF52
 529 028e 07       		.byte	0x7
 530 028f D3       		.byte	0xd3
 531 0290 F3020000 		.4byte	0x2f3
 532 0294 44       		.byte	0x44
 533 0295 00       		.byte	0
 534 0296 0A       		.uleb128 0xa
 535 0297 08       		.byte	0x8
 536 0298 06       		.byte	0x6
 537 0299 5A       		.byte	0x5a
 538 029a B7020000 		.4byte	0x2b7
 539 029e 08       		.uleb128 0x8
 540 029f 32020000 		.4byte	.LASF34
 541 02a3 06       		.byte	0x6
 542 02a4 5B       		.byte	0x5b
 543 02a5 B7020000 		.4byte	0x2b7
 544 02a9 00       		.byte	0
 545 02aa 08       		.uleb128 0x8
 546 02ab 4E020000 		.4byte	.LASF35
 547 02af 06       		.byte	0x6
 548 02b0 5D       		.byte	0x5d
 549 02b1 B7020000 		.4byte	0x2b7
 550 02b5 04       		.byte	0x4
 551 02b6 00       		.byte	0
 552 02b7 0B       		.uleb128 0xb
 553 02b8 04       		.byte	0x4
 554 02b9 8E010000 		.4byte	0x18e
 555 02bd 03       		.uleb128 0x3
 556 02be F30C0000 		.4byte	.LASF53
 557 02c2 06       		.byte	0x6
 558 02c3 5F       		.byte	0x5f
 559 02c4 96020000 		.4byte	0x296
 560 02c8 0A       		.uleb128 0xa
 561 02c9 04       		.byte	0x4
 562 02ca 06       		.byte	0x6
 563 02cb 64       		.byte	0x64
 564 02cc DD020000 		.4byte	0x2dd
 565 02d0 08       		.uleb128 0x8
 566 02d1 32020000 		.4byte	.LASF34
 567 02d5 06       		.byte	0x6
 568 02d6 66       		.byte	0x66
 569 02d7 B7020000 		.4byte	0x2b7
 570 02db 00       		.byte	0
ARM GAS  /tmp/ccCyOv1V.s 			page 11


 571 02dc 00       		.byte	0
 572 02dd 03       		.uleb128 0x3
 573 02de 8A090000 		.4byte	.LASF54
 574 02e2 06       		.byte	0x6
 575 02e3 69       		.byte	0x69
 576 02e4 C8020000 		.4byte	0x2c8
 577 02e8 03       		.uleb128 0x3
 578 02e9 A2020000 		.4byte	.LASF55
 579 02ed 08       		.byte	0x8
 580 02ee DE       		.byte	0xde
 581 02ef F3020000 		.4byte	0x2f3
 582 02f3 0C       		.uleb128 0xc
 583 02f4 04       		.byte	0x4
 584 02f5 03       		.uleb128 0x3
 585 02f6 65040000 		.4byte	.LASF56
 586 02fa 08       		.byte	0x8
 587 02fb E4       		.byte	0xe4
 588 02fc FE000000 		.4byte	0xfe
 589 0300 0D       		.uleb128 0xd
 590 0301 F8040000 		.4byte	.LASF57
 591 0305 24       		.byte	0x24
 592 0306 08       		.byte	0x8
 593 0307 0501     		.2byte	0x105
 594 0309 7C030000 		.4byte	0x37c
 595 030d 0E       		.uleb128 0xe
 596 030e 723400   		.ascii	"r4\000"
 597 0311 08       		.byte	0x8
 598 0312 1801     		.2byte	0x118
 599 0314 E8020000 		.4byte	0x2e8
 600 0318 00       		.byte	0
 601 0319 0E       		.uleb128 0xe
 602 031a 723500   		.ascii	"r5\000"
 603 031d 08       		.byte	0x8
 604 031e 1901     		.2byte	0x119
 605 0320 E8020000 		.4byte	0x2e8
 606 0324 04       		.byte	0x4
 607 0325 0E       		.uleb128 0xe
 608 0326 723600   		.ascii	"r6\000"
 609 0329 08       		.byte	0x8
 610 032a 1A01     		.2byte	0x11a
 611 032c E8020000 		.4byte	0x2e8
 612 0330 08       		.byte	0x8
 613 0331 0E       		.uleb128 0xe
 614 0332 723700   		.ascii	"r7\000"
 615 0335 08       		.byte	0x8
 616 0336 1B01     		.2byte	0x11b
 617 0338 E8020000 		.4byte	0x2e8
 618 033c 0C       		.byte	0xc
 619 033d 0E       		.uleb128 0xe
 620 033e 723800   		.ascii	"r8\000"
 621 0341 08       		.byte	0x8
 622 0342 1C01     		.2byte	0x11c
 623 0344 E8020000 		.4byte	0x2e8
 624 0348 10       		.byte	0x10
 625 0349 0E       		.uleb128 0xe
 626 034a 723900   		.ascii	"r9\000"
 627 034d 08       		.byte	0x8
ARM GAS  /tmp/ccCyOv1V.s 			page 12


 628 034e 1D01     		.2byte	0x11d
 629 0350 E8020000 		.4byte	0x2e8
 630 0354 14       		.byte	0x14
 631 0355 0E       		.uleb128 0xe
 632 0356 72313000 		.ascii	"r10\000"
 633 035a 08       		.byte	0x8
 634 035b 1E01     		.2byte	0x11e
 635 035d E8020000 		.4byte	0x2e8
 636 0361 18       		.byte	0x18
 637 0362 0E       		.uleb128 0xe
 638 0363 72313100 		.ascii	"r11\000"
 639 0367 08       		.byte	0x8
 640 0368 1F01     		.2byte	0x11f
 641 036a E8020000 		.4byte	0x2e8
 642 036e 1C       		.byte	0x1c
 643 036f 0E       		.uleb128 0xe
 644 0370 6C7200   		.ascii	"lr\000"
 645 0373 08       		.byte	0x8
 646 0374 2001     		.2byte	0x120
 647 0376 E8020000 		.4byte	0x2e8
 648 037a 20       		.byte	0x20
 649 037b 00       		.byte	0
 650 037c 0D       		.uleb128 0xd
 651 037d 24030000 		.4byte	.LASF58
 652 0381 04       		.byte	0x4
 653 0382 08       		.byte	0x8
 654 0383 2A01     		.2byte	0x12a
 655 0385 97030000 		.4byte	0x397
 656 0389 0E       		.uleb128 0xe
 657 038a 72313300 		.ascii	"r13\000"
 658 038e 08       		.byte	0x8
 659 038f 2B01     		.2byte	0x12b
 660 0391 97030000 		.4byte	0x397
 661 0395 00       		.byte	0
 662 0396 00       		.byte	0
 663 0397 0B       		.uleb128 0xb
 664 0398 04       		.byte	0x4
 665 0399 00030000 		.4byte	0x300
 666 039d 03       		.uleb128 0x3
 667 039e DF080000 		.4byte	.LASF59
 668 03a2 09       		.byte	0x9
 669 03a3 33       		.byte	0x33
 670 03a4 F4000000 		.4byte	0xf4
 671 03a8 04       		.uleb128 0x4
 672 03a9 04       		.byte	0x4
 673 03aa 07       		.byte	0x7
 674 03ab 07000000 		.4byte	.LASF60
 675 03af 0A       		.uleb128 0xa
 676 03b0 10       		.byte	0x10
 677 03b1 09       		.byte	0x9
 678 03b2 EA       		.byte	0xea
 679 03b3 E8030000 		.4byte	0x3e8
 680 03b7 08       		.uleb128 0x8
 681 03b8 6E0A0000 		.4byte	.LASF61
 682 03bc 09       		.byte	0x9
 683 03bd EB       		.byte	0xeb
 684 03be 9D030000 		.4byte	0x39d
ARM GAS  /tmp/ccCyOv1V.s 			page 13


 685 03c2 00       		.byte	0
 686 03c3 08       		.uleb128 0x8
 687 03c4 78020000 		.4byte	.LASF62
 688 03c8 09       		.byte	0x9
 689 03c9 EC       		.byte	0xec
 690 03ca 9D030000 		.4byte	0x39d
 691 03ce 04       		.byte	0x4
 692 03cf 08       		.uleb128 0x8
 693 03d0 BA0A0000 		.4byte	.LASF63
 694 03d4 09       		.byte	0x9
 695 03d5 ED       		.byte	0xed
 696 03d6 9D030000 		.4byte	0x39d
 697 03da 08       		.byte	0x8
 698 03db 08       		.uleb128 0x8
 699 03dc 3A0A0000 		.4byte	.LASF64
 700 03e0 09       		.byte	0x9
 701 03e1 EE       		.byte	0xee
 702 03e2 9D030000 		.4byte	0x39d
 703 03e6 0C       		.byte	0xc
 704 03e7 00       		.byte	0
 705 03e8 03       		.uleb128 0x3
 706 03e9 4C0D0000 		.4byte	.LASF65
 707 03ed 09       		.byte	0x9
 708 03ee EF       		.byte	0xef
 709 03ef AF030000 		.4byte	0x3af
 710 03f3 0A       		.uleb128 0xa
 711 03f4 20       		.byte	0x20
 712 03f5 09       		.byte	0x9
 713 03f6 FF       		.byte	0xff
 714 03f7 64040000 		.4byte	0x464
 715 03fb 0F       		.uleb128 0xf
 716 03fc 22080000 		.4byte	.LASF66
 717 0400 09       		.byte	0x9
 718 0401 0001     		.2byte	0x100
 719 0403 9D030000 		.4byte	0x39d
 720 0407 00       		.byte	0
 721 0408 0F       		.uleb128 0xf
 722 0409 8B0C0000 		.4byte	.LASF67
 723 040d 09       		.byte	0x9
 724 040e 0101     		.2byte	0x101
 725 0410 9D030000 		.4byte	0x39d
 726 0414 04       		.byte	0x4
 727 0415 0F       		.uleb128 0xf
 728 0416 42040000 		.4byte	.LASF68
 729 041a 09       		.byte	0x9
 730 041b 0201     		.2byte	0x102
 731 041d 9D030000 		.4byte	0x39d
 732 0421 08       		.byte	0x8
 733 0422 0F       		.uleb128 0xf
 734 0423 C3080000 		.4byte	.LASF69
 735 0427 09       		.byte	0x9
 736 0428 0301     		.2byte	0x103
 737 042a 9D030000 		.4byte	0x39d
 738 042e 0C       		.byte	0xc
 739 042f 0F       		.uleb128 0xf
 740 0430 FB020000 		.4byte	.LASF70
 741 0434 09       		.byte	0x9
ARM GAS  /tmp/ccCyOv1V.s 			page 14


 742 0435 0401     		.2byte	0x104
 743 0437 9D030000 		.4byte	0x39d
 744 043b 10       		.byte	0x10
 745 043c 0F       		.uleb128 0xf
 746 043d 63050000 		.4byte	.LASF71
 747 0441 09       		.byte	0x9
 748 0442 0501     		.2byte	0x105
 749 0444 9D030000 		.4byte	0x39d
 750 0448 14       		.byte	0x14
 751 0449 0F       		.uleb128 0xf
 752 044a 9B0D0000 		.4byte	.LASF72
 753 044e 09       		.byte	0x9
 754 044f 0601     		.2byte	0x106
 755 0451 9D030000 		.4byte	0x39d
 756 0455 18       		.byte	0x18
 757 0456 0F       		.uleb128 0xf
 758 0457 600B0000 		.4byte	.LASF73
 759 045b 09       		.byte	0x9
 760 045c 0701     		.2byte	0x107
 761 045e 9D030000 		.4byte	0x39d
 762 0462 1C       		.byte	0x1c
 763 0463 00       		.byte	0
 764 0464 10       		.uleb128 0x10
 765 0465 8B080000 		.4byte	.LASF74
 766 0469 09       		.byte	0x9
 767 046a 0801     		.2byte	0x108
 768 046c F3030000 		.4byte	0x3f3
 769 0470 03       		.uleb128 0x3
 770 0471 B2000000 		.4byte	.LASF75
 771 0475 0A       		.byte	0xa
 772 0476 51       		.byte	0x51
 773 0477 7B040000 		.4byte	0x47b
 774 047b 0B       		.uleb128 0xb
 775 047c 04       		.byte	0x4
 776 047d 81040000 		.4byte	0x481
 777 0481 11       		.uleb128 0x11
 778 0482 8C040000 		.4byte	0x48c
 779 0486 12       		.uleb128 0x12
 780 0487 F3020000 		.4byte	0x2f3
 781 048b 00       		.byte	0
 782 048c 03       		.uleb128 0x3
 783 048d E60C0000 		.4byte	.LASF76
 784 0491 0A       		.byte	0xa
 785 0492 56       		.byte	0x56
 786 0493 97040000 		.4byte	0x497
 787 0497 07       		.uleb128 0x7
 788 0498 E60C0000 		.4byte	.LASF76
 789 049c 14       		.byte	0x14
 790 049d 0A       		.byte	0xa
 791 049e 5D       		.byte	0x5d
 792 049f E0040000 		.4byte	0x4e0
 793 04a3 08       		.uleb128 0x8
 794 04a4 73070000 		.4byte	.LASF77
 795 04a8 0A       		.byte	0xa
 796 04a9 5E       		.byte	0x5e
 797 04aa E0040000 		.4byte	0x4e0
 798 04ae 00       		.byte	0
ARM GAS  /tmp/ccCyOv1V.s 			page 15


 799 04af 08       		.uleb128 0x8
 800 04b0 94030000 		.4byte	.LASF78
 801 04b4 0A       		.byte	0xa
 802 04b5 60       		.byte	0x60
 803 04b6 E0040000 		.4byte	0x4e0
 804 04ba 04       		.byte	0x4
 805 04bb 08       		.uleb128 0x8
 806 04bc D90D0000 		.4byte	.LASF79
 807 04c0 0A       		.byte	0xa
 808 04c1 62       		.byte	0x62
 809 04c2 73010000 		.4byte	0x173
 810 04c6 08       		.byte	0x8
 811 04c7 08       		.uleb128 0x8
 812 04c8 F0040000 		.4byte	.LASF80
 813 04cc 0A       		.byte	0xa
 814 04cd 63       		.byte	0x63
 815 04ce 70040000 		.4byte	0x470
 816 04d2 0C       		.byte	0xc
 817 04d3 08       		.uleb128 0x8
 818 04d4 9C010000 		.4byte	.LASF81
 819 04d8 0A       		.byte	0xa
 820 04d9 65       		.byte	0x65
 821 04da F3020000 		.4byte	0x2f3
 822 04de 10       		.byte	0x10
 823 04df 00       		.byte	0
 824 04e0 0B       		.uleb128 0xb
 825 04e1 04       		.byte	0x4
 826 04e2 8C040000 		.4byte	0x48c
 827 04e6 0A       		.uleb128 0xa
 828 04e7 10       		.byte	0x10
 829 04e8 0A       		.byte	0xa
 830 04e9 6F       		.byte	0x6f
 831 04ea 1F050000 		.4byte	0x51f
 832 04ee 08       		.uleb128 0x8
 833 04ef 73070000 		.4byte	.LASF77
 834 04f3 0A       		.byte	0xa
 835 04f4 70       		.byte	0x70
 836 04f5 E0040000 		.4byte	0x4e0
 837 04f9 00       		.byte	0
 838 04fa 08       		.uleb128 0x8
 839 04fb 94030000 		.4byte	.LASF78
 840 04ff 0A       		.byte	0xa
 841 0500 72       		.byte	0x72
 842 0501 E0040000 		.4byte	0x4e0
 843 0505 04       		.byte	0x4
 844 0506 08       		.uleb128 0x8
 845 0507 D90D0000 		.4byte	.LASF79
 846 050b 0A       		.byte	0xa
 847 050c 74       		.byte	0x74
 848 050d 73010000 		.4byte	0x173
 849 0511 08       		.byte	0x8
 850 0512 08       		.uleb128 0x8
 851 0513 C90B0000 		.4byte	.LASF82
 852 0517 0A       		.byte	0xa
 853 0518 75       		.byte	0x75
 854 0519 7E010000 		.4byte	0x17e
 855 051d 0C       		.byte	0xc
ARM GAS  /tmp/ccCyOv1V.s 			page 16


 856 051e 00       		.byte	0
 857 051f 03       		.uleb128 0x3
 858 0520 3E0B0000 		.4byte	.LASF83
 859 0524 0A       		.byte	0xa
 860 0525 76       		.byte	0x76
 861 0526 E6040000 		.4byte	0x4e6
 862 052a 13       		.uleb128 0x13
 863 052b 7C0C0000 		.4byte	.LASF91
 864 052f 0A       		.byte	0xa
 865 0530 EE       		.byte	0xee
 866 0531 1F050000 		.4byte	0x51f
 867 0535 0A       		.uleb128 0xa
 868 0536 1C       		.byte	0x1c
 869 0537 0B       		.byte	0xb
 870 0538 57       		.byte	0x57
 871 0539 86050000 		.4byte	0x586
 872 053d 08       		.uleb128 0x8
 873 053e 720B0000 		.4byte	.LASF84
 874 0542 0B       		.byte	0xb
 875 0543 58       		.byte	0x58
 876 0544 BD020000 		.4byte	0x2bd
 877 0548 00       		.byte	0
 878 0549 08       		.uleb128 0x8
 879 054a 2E0C0000 		.4byte	.LASF85
 880 054e 0B       		.byte	0xb
 881 054f 59       		.byte	0x59
 882 0550 47010000 		.4byte	0x147
 883 0554 08       		.byte	0x8
 884 0555 08       		.uleb128 0x8
 885 0556 86000000 		.4byte	.LASF86
 886 055a 0B       		.byte	0xb
 887 055b 5B       		.byte	0x5b
 888 055c 7C030000 		.4byte	0x37c
 889 0560 0C       		.byte	0xc
 890 0561 08       		.uleb128 0x8
 891 0562 B8030000 		.4byte	.LASF87
 892 0566 0B       		.byte	0xb
 893 0567 5E       		.byte	0x5e
 894 0568 B7020000 		.4byte	0x2b7
 895 056c 10       		.byte	0x10
 896 056d 08       		.uleb128 0x8
 897 056e F00B0000 		.4byte	.LASF88
 898 0572 0B       		.byte	0xb
 899 0573 5F       		.byte	0x5f
 900 0574 B7020000 		.4byte	0x2b7
 901 0578 14       		.byte	0x14
 902 0579 08       		.uleb128 0x8
 903 057a 340B0000 		.4byte	.LASF89
 904 057e 0B       		.byte	0xb
 905 057f 62       		.byte	0x62
 906 0580 B7020000 		.4byte	0x2b7
 907 0584 18       		.byte	0x18
 908 0585 00       		.byte	0
 909 0586 03       		.uleb128 0x3
 910 0587 AB0D0000 		.4byte	.LASF90
 911 058b 0B       		.byte	0xb
 912 058c 64       		.byte	0x64
ARM GAS  /tmp/ccCyOv1V.s 			page 17


 913 058d 35050000 		.4byte	0x535
 914 0591 13       		.uleb128 0x13
 915 0592 A70B0000 		.4byte	.LASF92
 916 0596 0B       		.byte	0xb
 917 0597 68       		.byte	0x68
 918 0598 86050000 		.4byte	0x586
 919 059c 07       		.uleb128 0x7
 920 059d 69070000 		.4byte	.LASF93
 921 05a1 0C       		.byte	0xc
 922 05a2 0C       		.byte	0xc
 923 05a3 25       		.byte	0x25
 924 05a4 C1050000 		.4byte	0x5c1
 925 05a8 08       		.uleb128 0x8
 926 05a9 FF0B0000 		.4byte	.LASF94
 927 05ad 0C       		.byte	0xc
 928 05ae 26       		.byte	0x26
 929 05af BD020000 		.4byte	0x2bd
 930 05b3 00       		.byte	0
 931 05b4 08       		.uleb128 0x8
 932 05b5 C00A0000 		.4byte	.LASF95
 933 05b9 0C       		.byte	0xc
 934 05ba 28       		.byte	0x28
 935 05bb 83010000 		.4byte	0x183
 936 05bf 08       		.byte	0x8
 937 05c0 00       		.byte	0
 938 05c1 03       		.uleb128 0x3
 939 05c2 69070000 		.4byte	.LASF93
 940 05c6 0C       		.byte	0xc
 941 05c7 29       		.byte	0x29
 942 05c8 9C050000 		.4byte	0x59c
 943 05cc 07       		.uleb128 0x7
 944 05cd 1B070000 		.4byte	.LASF96
 945 05d1 10       		.byte	0x10
 946 05d2 0D       		.byte	0xd
 947 05d3 25       		.byte	0x25
 948 05d4 FD050000 		.4byte	0x5fd
 949 05d8 08       		.uleb128 0x8
 950 05d9 51070000 		.4byte	.LASF97
 951 05dd 0D       		.byte	0xd
 952 05de 26       		.byte	0x26
 953 05df BD020000 		.4byte	0x2bd
 954 05e3 00       		.byte	0
 955 05e4 08       		.uleb128 0x8
 956 05e5 94010000 		.4byte	.LASF98
 957 05e9 0D       		.byte	0xd
 958 05ea 28       		.byte	0x28
 959 05eb B7020000 		.4byte	0x2b7
 960 05ef 08       		.byte	0x8
 961 05f0 08       		.uleb128 0x8
 962 05f1 E60D0000 		.4byte	.LASF99
 963 05f5 0D       		.byte	0xd
 964 05f6 2A       		.byte	0x2a
 965 05f7 FD050000 		.4byte	0x5fd
 966 05fb 0C       		.byte	0xc
 967 05fc 00       		.byte	0
 968 05fd 0B       		.uleb128 0xb
 969 05fe 04       		.byte	0x4
ARM GAS  /tmp/ccCyOv1V.s 			page 18


 970 05ff CC050000 		.4byte	0x5cc
 971 0603 03       		.uleb128 0x3
 972 0604 1B070000 		.4byte	.LASF96
 973 0608 0D       		.byte	0xd
 974 0609 2C       		.byte	0x2c
 975 060a CC050000 		.4byte	0x5cc
 976 060e 03       		.uleb128 0x3
 977 060f B50C0000 		.4byte	.LASF100
 978 0613 0E       		.byte	0xe
 979 0614 25       		.byte	0x25
 980 0615 19060000 		.4byte	0x619
 981 0619 07       		.uleb128 0x7
 982 061a B50C0000 		.4byte	.LASF100
 983 061e 10       		.byte	0x10
 984 061f 0E       		.byte	0xe
 985 0620 2A       		.byte	0x2a
 986 0621 56060000 		.4byte	0x656
 987 0625 08       		.uleb128 0x8
 988 0626 2A060000 		.4byte	.LASF101
 989 062a 0E       		.byte	0xe
 990 062b 2B       		.byte	0x2b
 991 062c 56060000 		.4byte	0x656
 992 0630 00       		.byte	0
 993 0631 08       		.uleb128 0x8
 994 0632 010E0000 		.4byte	.LASF102
 995 0636 0E       		.byte	0xe
 996 0637 2E       		.byte	0x2e
 997 0638 B7020000 		.4byte	0x2b7
 998 063c 04       		.byte	0x4
 999 063d 08       		.uleb128 0x8
 1000 063e A30D0000 		.4byte	.LASF103
 1001 0642 0E       		.byte	0xe
 1002 0643 30       		.byte	0x30
 1003 0644 5D010000 		.4byte	0x15d
 1004 0648 08       		.byte	0x8
 1005 0649 08       		.uleb128 0x8
 1006 064a 04010000 		.4byte	.LASF104
 1007 064e 0E       		.byte	0xe
 1008 064f 33       		.byte	0x33
 1009 0650 68010000 		.4byte	0x168
 1010 0654 0C       		.byte	0xc
 1011 0655 00       		.byte	0
 1012 0656 0B       		.uleb128 0xb
 1013 0657 04       		.byte	0x4
 1014 0658 0E060000 		.4byte	0x60e
 1015 065c 07       		.uleb128 0x7
 1016 065d 8A050000 		.4byte	.LASF105
 1017 0661 04       		.byte	0x4
 1018 0662 0E       		.byte	0xe
 1019 0663 3A       		.byte	0x3a
 1020 0664 75060000 		.4byte	0x675
 1021 0668 08       		.uleb128 0x8
 1022 0669 51050000 		.4byte	.LASF106
 1023 066d 0E       		.byte	0xe
 1024 066e 3B       		.byte	0x3b
 1025 066f 56060000 		.4byte	0x656
 1026 0673 00       		.byte	0
ARM GAS  /tmp/ccCyOv1V.s 			page 19


 1027 0674 00       		.byte	0
 1028 0675 03       		.uleb128 0x3
 1029 0676 8A050000 		.4byte	.LASF105
 1030 067a 0E       		.byte	0xe
 1031 067b 3E       		.byte	0x3e
 1032 067c 5C060000 		.4byte	0x65c
 1033 0680 14       		.uleb128 0x14
 1034 0681 04       		.byte	0x4
 1035 0682 07       		.byte	0x7
 1036 0683 8F       		.byte	0x8f
 1037 0684 B5060000 		.4byte	0x6b5
 1038 0688 15       		.uleb128 0x15
 1039 0689 1E0D0000 		.4byte	.LASF107
 1040 068d 07       		.byte	0x7
 1041 068e 96       		.byte	0x96
 1042 068f 52010000 		.4byte	0x152
 1043 0693 15       		.uleb128 0x15
 1044 0694 AA010000 		.4byte	.LASF108
 1045 0698 07       		.byte	0x7
 1046 0699 9D       		.byte	0x9d
 1047 069a 52010000 		.4byte	0x152
 1048 069e 15       		.uleb128 0x15
 1049 069f 3B040000 		.4byte	.LASF109
 1050 06a3 07       		.byte	0x7
 1051 06a4 A4       		.byte	0xa4
 1052 06a5 F3020000 		.4byte	0x2f3
 1053 06a9 15       		.uleb128 0x15
 1054 06aa CD010000 		.4byte	.LASF110
 1055 06ae 07       		.byte	0x7
 1056 06af AB       		.byte	0xab
 1057 06b0 5D010000 		.4byte	0x15d
 1058 06b4 00       		.byte	0
 1059 06b5 0B       		.uleb128 0xb
 1060 06b6 04       		.byte	0x4
 1061 06b7 C2060000 		.4byte	0x6c2
 1062 06bb 04       		.uleb128 0x4
 1063 06bc 01       		.byte	0x1
 1064 06bd 08       		.byte	0x8
 1065 06be FD030000 		.4byte	.LASF111
 1066 06c2 06       		.uleb128 0x6
 1067 06c3 BB060000 		.4byte	0x6bb
 1068 06c7 0B       		.uleb128 0xb
 1069 06c8 04       		.byte	0x4
 1070 06c9 03060000 		.4byte	0x603
 1071 06cd 0B       		.uleb128 0xb
 1072 06ce 04       		.byte	0x4
 1073 06cf D3060000 		.4byte	0x6d3
 1074 06d3 16       		.uleb128 0x16
 1075 06d4 52010000 		.4byte	0x152
 1076 06d8 E2060000 		.4byte	0x6e2
 1077 06dc 12       		.uleb128 0x12
 1078 06dd F3020000 		.4byte	0x2f3
 1079 06e1 00       		.byte	0
 1080 06e2 0A       		.uleb128 0xa
 1081 06e3 16       		.byte	0x16
 1082 06e4 0F       		.byte	0xf
 1083 06e5 25       		.byte	0x25
ARM GAS  /tmp/ccCyOv1V.s 			page 20


 1084 06e6 C3070000 		.4byte	0x7c3
 1085 06ea 08       		.uleb128 0x8
 1086 06eb 30000000 		.4byte	.LASF112
 1087 06ef 0F       		.byte	0xf
 1088 06f0 26       		.byte	0x26
 1089 06f1 C3070000 		.4byte	0x7c3
 1090 06f5 00       		.byte	0
 1091 06f6 08       		.uleb128 0x8
 1092 06f7 B3050000 		.4byte	.LASF113
 1093 06fb 0F       		.byte	0xf
 1094 06fc 27       		.byte	0x27
 1095 06fd B4000000 		.4byte	0xb4
 1096 0701 04       		.byte	0x4
 1097 0702 08       		.uleb128 0x8
 1098 0703 740D0000 		.4byte	.LASF114
 1099 0707 0F       		.byte	0xf
 1100 0708 28       		.byte	0x28
 1101 0709 B4000000 		.4byte	0xb4
 1102 070d 05       		.byte	0x5
 1103 070e 08       		.uleb128 0x8
 1104 070f 46070000 		.4byte	.LASF115
 1105 0713 0F       		.byte	0xf
 1106 0714 29       		.byte	0x29
 1107 0715 C9000000 		.4byte	0xc9
 1108 0719 06       		.byte	0x6
 1109 071a 08       		.uleb128 0x8
 1110 071b 5B010000 		.4byte	.LASF116
 1111 071f 0F       		.byte	0xf
 1112 0720 2A       		.byte	0x2a
 1113 0721 B4000000 		.4byte	0xb4
 1114 0725 08       		.byte	0x8
 1115 0726 08       		.uleb128 0x8
 1116 0727 D3080000 		.4byte	.LASF117
 1117 072b 0F       		.byte	0xf
 1118 072c 2B       		.byte	0x2b
 1119 072d B4000000 		.4byte	0xb4
 1120 0731 09       		.byte	0x9
 1121 0732 08       		.uleb128 0x8
 1122 0733 DE010000 		.4byte	.LASF118
 1123 0737 0F       		.byte	0xf
 1124 0738 2C       		.byte	0x2c
 1125 0739 B4000000 		.4byte	0xb4
 1126 073d 0A       		.byte	0xa
 1127 073e 08       		.uleb128 0x8
 1128 073f AD040000 		.4byte	.LASF119
 1129 0743 0F       		.byte	0xf
 1130 0744 2D       		.byte	0x2d
 1131 0745 B4000000 		.4byte	0xb4
 1132 0749 0B       		.byte	0xb
 1133 074a 08       		.uleb128 0x8
 1134 074b 9F000000 		.4byte	.LASF120
 1135 074f 0F       		.byte	0xf
 1136 0750 2E       		.byte	0x2e
 1137 0751 B4000000 		.4byte	0xb4
 1138 0755 0C       		.byte	0xc
 1139 0756 08       		.uleb128 0x8
 1140 0757 53040000 		.4byte	.LASF121
ARM GAS  /tmp/ccCyOv1V.s 			page 21


 1141 075b 0F       		.byte	0xf
 1142 075c 2F       		.byte	0x2f
 1143 075d B4000000 		.4byte	0xb4
 1144 0761 0D       		.byte	0xd
 1145 0762 08       		.uleb128 0x8
 1146 0763 510C0000 		.4byte	.LASF122
 1147 0767 0F       		.byte	0xf
 1148 0768 30       		.byte	0x30
 1149 0769 B4000000 		.4byte	0xb4
 1150 076d 0E       		.byte	0xe
 1151 076e 08       		.uleb128 0x8
 1152 076f 10000000 		.4byte	.LASF123
 1153 0773 0F       		.byte	0xf
 1154 0774 31       		.byte	0x31
 1155 0775 B4000000 		.4byte	0xb4
 1156 0779 0F       		.byte	0xf
 1157 077a 08       		.uleb128 0x8
 1158 077b 27080000 		.4byte	.LASF124
 1159 077f 0F       		.byte	0xf
 1160 0780 32       		.byte	0x32
 1161 0781 B4000000 		.4byte	0xb4
 1162 0785 10       		.byte	0x10
 1163 0786 08       		.uleb128 0x8
 1164 0787 41020000 		.4byte	.LASF125
 1165 078b 0F       		.byte	0xf
 1166 078c 34       		.byte	0x34
 1167 078d B4000000 		.4byte	0xb4
 1168 0791 11       		.byte	0x11
 1169 0792 08       		.uleb128 0x8
 1170 0793 FB0A0000 		.4byte	.LASF126
 1171 0797 0F       		.byte	0xf
 1172 0798 35       		.byte	0x35
 1173 0799 B4000000 		.4byte	0xb4
 1174 079d 12       		.byte	0x12
 1175 079e 08       		.uleb128 0x8
 1176 079f DF090000 		.4byte	.LASF127
 1177 07a3 0F       		.byte	0xf
 1178 07a4 36       		.byte	0x36
 1179 07a5 B4000000 		.4byte	0xb4
 1180 07a9 13       		.byte	0x13
 1181 07aa 08       		.uleb128 0x8
 1182 07ab F1060000 		.4byte	.LASF128
 1183 07af 0F       		.byte	0xf
 1184 07b0 37       		.byte	0x37
 1185 07b1 B4000000 		.4byte	0xb4
 1186 07b5 14       		.byte	0x14
 1187 07b6 08       		.uleb128 0x8
 1188 07b7 570A0000 		.4byte	.LASF129
 1189 07bb 0F       		.byte	0xf
 1190 07bc 39       		.byte	0x39
 1191 07bd B4000000 		.4byte	0xb4
 1192 07c1 15       		.byte	0x15
 1193 07c2 00       		.byte	0
 1194 07c3 17       		.uleb128 0x17
 1195 07c4 BB060000 		.4byte	0x6bb
 1196 07c8 D3070000 		.4byte	0x7d3
 1197 07cc 18       		.uleb128 0x18
ARM GAS  /tmp/ccCyOv1V.s 			page 22


 1198 07cd A8030000 		.4byte	0x3a8
 1199 07d1 03       		.byte	0x3
 1200 07d2 00       		.byte	0
 1201 07d3 03       		.uleb128 0x3
 1202 07d4 540D0000 		.4byte	.LASF130
 1203 07d8 0F       		.byte	0xf
 1204 07d9 3A       		.byte	0x3a
 1205 07da E2060000 		.4byte	0x6e2
 1206 07de 06       		.uleb128 0x6
 1207 07df D3070000 		.4byte	0x7d3
 1208 07e3 13       		.uleb128 0x13
 1209 07e4 69000000 		.4byte	.LASF131
 1210 07e8 0F       		.byte	0xf
 1211 07e9 77       		.byte	0x77
 1212 07ea DE070000 		.4byte	0x7de
 1213 07ee 03       		.uleb128 0x3
 1214 07ef 25040000 		.4byte	.LASF132
 1215 07f3 10       		.byte	0x10
 1216 07f4 30       		.byte	0x30
 1217 07f5 F9070000 		.4byte	0x7f9
 1218 07f9 07       		.uleb128 0x7
 1219 07fa 25040000 		.4byte	.LASF132
 1220 07fe 24       		.byte	0x24
 1221 07ff 10       		.byte	0x10
 1222 0800 3E       		.byte	0x3e
 1223 0801 66080000 		.4byte	0x866
 1224 0805 08       		.uleb128 0x8
 1225 0806 9D0B0000 		.4byte	.LASF133
 1226 080a 10       		.byte	0x10
 1227 080b 3F       		.byte	0x3f
 1228 080c BD020000 		.4byte	0x2bd
 1229 0810 00       		.byte	0
 1230 0811 08       		.uleb128 0x8
 1231 0812 59050000 		.4byte	.LASF134
 1232 0816 10       		.byte	0x10
 1233 0817 40       		.byte	0x40
 1234 0818 2C000000 		.4byte	0x2c
 1235 081c 08       		.byte	0x8
 1236 081d 08       		.uleb128 0x8
 1237 081e F2010000 		.4byte	.LASF135
 1238 0822 10       		.byte	0x10
 1239 0823 41       		.byte	0x41
 1240 0824 88080000 		.4byte	0x888
 1241 0828 0C       		.byte	0xc
 1242 0829 08       		.uleb128 0x8
 1243 082a BD010000 		.4byte	.LASF136
 1244 082e 10       		.byte	0x10
 1245 082f 42       		.byte	0x42
 1246 0830 88080000 		.4byte	0x888
 1247 0834 10       		.byte	0x10
 1248 0835 08       		.uleb128 0x8
 1249 0836 3F060000 		.4byte	.LASF137
 1250 083a 10       		.byte	0x10
 1251 083b 44       		.byte	0x44
 1252 083c 88080000 		.4byte	0x888
 1253 0840 14       		.byte	0x14
 1254 0841 08       		.uleb128 0x8
ARM GAS  /tmp/ccCyOv1V.s 			page 23


 1255 0842 39020000 		.4byte	.LASF138
 1256 0846 10       		.byte	0x10
 1257 0847 45       		.byte	0x45
 1258 0848 88080000 		.4byte	0x888
 1259 084c 18       		.byte	0x18
 1260 084d 08       		.uleb128 0x8
 1261 084e 04020000 		.4byte	.LASF139
 1262 0852 10       		.byte	0x10
 1263 0853 46       		.byte	0x46
 1264 0854 66080000 		.4byte	0x866
 1265 0858 1C       		.byte	0x1c
 1266 0859 08       		.uleb128 0x8
 1267 085a 6F030000 		.4byte	.LASF140
 1268 085e 10       		.byte	0x10
 1269 085f 47       		.byte	0x47
 1270 0860 F3020000 		.4byte	0x2f3
 1271 0864 20       		.byte	0x20
 1272 0865 00       		.byte	0
 1273 0866 03       		.uleb128 0x3
 1274 0867 CF070000 		.4byte	.LASF141
 1275 086b 10       		.byte	0x10
 1276 086c 33       		.byte	0x33
 1277 086d 71080000 		.4byte	0x871
 1278 0871 0B       		.uleb128 0xb
 1279 0872 04       		.byte	0x4
 1280 0873 77080000 		.4byte	0x877
 1281 0877 11       		.uleb128 0x11
 1282 0878 82080000 		.4byte	0x882
 1283 087c 12       		.uleb128 0x12
 1284 087d 82080000 		.4byte	0x882
 1285 0881 00       		.byte	0
 1286 0882 0B       		.uleb128 0xb
 1287 0883 04       		.byte	0x4
 1288 0884 EE070000 		.4byte	0x7ee
 1289 0888 0B       		.uleb128 0xb
 1290 0889 04       		.byte	0x4
 1291 088a B4000000 		.4byte	0xb4
 1292 088e 03       		.uleb128 0x3
 1293 088f 690D0000 		.4byte	.LASF142
 1294 0893 10       		.byte	0x10
 1295 0894 7B       		.byte	0x7b
 1296 0895 EE070000 		.4byte	0x7ee
 1297 0899 03       		.uleb128 0x3
 1298 089a 88040000 		.4byte	.LASF143
 1299 089e 10       		.byte	0x10
 1300 089f EE       		.byte	0xee
 1301 08a0 EE070000 		.4byte	0x7ee
 1302 08a4 16       		.uleb128 0x16
 1303 08a5 2C000000 		.4byte	0x2c
 1304 08a9 BD080000 		.4byte	0x8bd
 1305 08ad 12       		.uleb128 0x12
 1306 08ae F3020000 		.4byte	0x2f3
 1307 08b2 12       		.uleb128 0x12
 1308 08b3 BD080000 		.4byte	0x8bd
 1309 08b7 12       		.uleb128 0x12
 1310 08b8 2C000000 		.4byte	0x2c
 1311 08bc 00       		.byte	0
ARM GAS  /tmp/ccCyOv1V.s 			page 24


 1312 08bd 0B       		.uleb128 0xb
 1313 08be 04       		.byte	0x4
 1314 08bf C4000000 		.4byte	0xc4
 1315 08c3 0B       		.uleb128 0xb
 1316 08c4 04       		.byte	0x4
 1317 08c5 A4080000 		.4byte	0x8a4
 1318 08c9 16       		.uleb128 0x16
 1319 08ca 2C000000 		.4byte	0x2c
 1320 08ce E2080000 		.4byte	0x8e2
 1321 08d2 12       		.uleb128 0x12
 1322 08d3 F3020000 		.4byte	0x2f3
 1323 08d7 12       		.uleb128 0x12
 1324 08d8 88080000 		.4byte	0x888
 1325 08dc 12       		.uleb128 0x12
 1326 08dd 2C000000 		.4byte	0x2c
 1327 08e1 00       		.byte	0
 1328 08e2 0B       		.uleb128 0xb
 1329 08e3 04       		.byte	0x4
 1330 08e4 C9080000 		.4byte	0x8c9
 1331 08e8 16       		.uleb128 0x16
 1332 08e9 52010000 		.4byte	0x152
 1333 08ed FC080000 		.4byte	0x8fc
 1334 08f1 12       		.uleb128 0x12
 1335 08f2 F3020000 		.4byte	0x2f3
 1336 08f6 12       		.uleb128 0x12
 1337 08f7 B4000000 		.4byte	0xb4
 1338 08fb 00       		.byte	0
 1339 08fc 0B       		.uleb128 0xb
 1340 08fd 04       		.byte	0x4
 1341 08fe E8080000 		.4byte	0x8e8
 1342 0902 17       		.uleb128 0x17
 1343 0903 F5020000 		.4byte	0x2f5
 1344 0907 12090000 		.4byte	0x912
 1345 090b 18       		.uleb128 0x18
 1346 090c A8030000 		.4byte	0x3a8
 1347 0910 17       		.byte	0x17
 1348 0911 00       		.byte	0
 1349 0912 13       		.uleb128 0x13
 1350 0913 9A0C0000 		.4byte	.LASF144
 1351 0917 11       		.byte	0x11
 1352 0918 82       		.byte	0x82
 1353 0919 02090000 		.4byte	0x902
 1354 091d 17       		.uleb128 0x17
 1355 091e E9000000 		.4byte	0xe9
 1356 0922 2D090000 		.4byte	0x92d
 1357 0926 18       		.uleb128 0x18
 1358 0927 A8030000 		.4byte	0x3a8
 1359 092b 00       		.byte	0
 1360 092c 00       		.byte	0
 1361 092d 19       		.uleb128 0x19
 1362 092e 10       		.byte	0x10
 1363 092f 12       		.byte	0x12
 1364 0930 3F02     		.2byte	0x23f
 1365 0932 6B090000 		.4byte	0x96b
 1366 0936 0F       		.uleb128 0xf
 1367 0937 22080000 		.4byte	.LASF66
 1368 093b 12       		.byte	0x12
ARM GAS  /tmp/ccCyOv1V.s 			page 25


 1369 093c 4102     		.2byte	0x241
 1370 093e F4000000 		.4byte	0xf4
 1371 0942 00       		.byte	0
 1372 0943 0F       		.uleb128 0xf
 1373 0944 AF070000 		.4byte	.LASF145
 1374 0948 12       		.byte	0x12
 1375 0949 4202     		.2byte	0x242
 1376 094b F4000000 		.4byte	0xf4
 1377 094f 04       		.byte	0x4
 1378 0950 0E       		.uleb128 0xe
 1379 0951 56414C00 		.ascii	"VAL\000"
 1380 0955 12       		.byte	0x12
 1381 0956 4302     		.2byte	0x243
 1382 0958 F4000000 		.4byte	0xf4
 1383 095c 08       		.byte	0x8
 1384 095d 0F       		.uleb128 0xf
 1385 095e 8D0B0000 		.4byte	.LASF146
 1386 0962 12       		.byte	0x12
 1387 0963 4402     		.2byte	0x244
 1388 0965 F9000000 		.4byte	0xf9
 1389 0969 0C       		.byte	0xc
 1390 096a 00       		.byte	0
 1391 096b 10       		.uleb128 0x10
 1392 096c FB090000 		.4byte	.LASF147
 1393 0970 12       		.byte	0x12
 1394 0971 4502     		.2byte	0x245
 1395 0973 2D090000 		.4byte	0x92d
 1396 0977 17       		.uleb128 0x17
 1397 0978 E9000000 		.4byte	0xe9
 1398 097c 87090000 		.4byte	0x987
 1399 0980 18       		.uleb128 0x18
 1400 0981 A8030000 		.4byte	0x3a8
 1401 0985 0E       		.byte	0xe
 1402 0986 00       		.byte	0
 1403 0987 17       		.uleb128 0x17
 1404 0988 E9000000 		.4byte	0xe9
 1405 098c 97090000 		.4byte	0x997
 1406 0990 18       		.uleb128 0x18
 1407 0991 A8030000 		.4byte	0x3a8
 1408 0995 01       		.byte	0x1
 1409 0996 00       		.byte	0
 1410 0997 1A       		.uleb128 0x1a
 1411 0998 6F0C0000 		.4byte	.LASF148
 1412 099c 12       		.byte	0x12
 1413 099d 0706     		.2byte	0x607
 1414 099f E4000000 		.4byte	0xe4
 1415 09a3 13       		.uleb128 0x13
 1416 09a4 DE050000 		.4byte	.LASF149
 1417 09a8 13       		.byte	0x13
 1418 09a9 23       		.byte	0x23
 1419 09aa E9000000 		.4byte	0xe9
 1420 09ae 1B       		.uleb128 0x1b
 1421 09af CC01     		.2byte	0x1cc
 1422 09b1 14       		.byte	0x14
 1423 09b2 76       		.byte	0x76
 1424 09b3 7D0B0000 		.4byte	0xb7d
 1425 09b7 08       		.uleb128 0x8
ARM GAS  /tmp/ccCyOv1V.s 			page 26


 1426 09b8 72000000 		.4byte	.LASF150
 1427 09bc 14       		.byte	0x14
 1428 09bd 78       		.byte	0x78
 1429 09be F4000000 		.4byte	0xf4
 1430 09c2 00       		.byte	0
 1431 09c3 08       		.uleb128 0x8
 1432 09c4 39030000 		.4byte	.LASF151
 1433 09c8 14       		.byte	0x14
 1434 09c9 79       		.byte	0x79
 1435 09ca 7D0B0000 		.4byte	0xb7d
 1436 09ce 04       		.byte	0x4
 1437 09cf 08       		.uleb128 0x8
 1438 09d0 A7070000 		.4byte	.LASF152
 1439 09d4 14       		.byte	0x14
 1440 09d5 7A       		.byte	0x7a
 1441 09d6 F4000000 		.4byte	0xf4
 1442 09da 80       		.byte	0x80
 1443 09db 08       		.uleb128 0x8
 1444 09dc 9C030000 		.4byte	.LASF153
 1445 09e0 14       		.byte	0x14
 1446 09e1 7B       		.byte	0x7b
 1447 09e2 F4000000 		.4byte	0xf4
 1448 09e6 84       		.byte	0x84
 1449 09e7 08       		.uleb128 0x8
 1450 09e8 080B0000 		.4byte	.LASF154
 1451 09ec 14       		.byte	0x14
 1452 09ed 7C       		.byte	0x7c
 1453 09ee F9000000 		.4byte	0xf9
 1454 09f2 88       		.byte	0x88
 1455 09f3 08       		.uleb128 0x8
 1456 09f4 AF030000 		.4byte	.LASF155
 1457 09f8 14       		.byte	0x14
 1458 09f9 7D       		.byte	0x7d
 1459 09fa F4000000 		.4byte	0xf4
 1460 09fe 8C       		.byte	0x8c
 1461 09ff 08       		.uleb128 0x8
 1462 0a00 43030000 		.4byte	.LASF156
 1463 0a04 14       		.byte	0x14
 1464 0a05 7E       		.byte	0x7e
 1465 0a06 8D0B0000 		.4byte	0xb8d
 1466 0a0a 90       		.byte	0x90
 1467 0a0b 08       		.uleb128 0x8
 1468 0a0c AA000000 		.4byte	.LASF157
 1469 0a10 14       		.byte	0x14
 1470 0a11 7F       		.byte	0x7f
 1471 0a12 F4000000 		.4byte	0xf4
 1472 0a16 A0       		.byte	0xa0
 1473 0a17 08       		.uleb128 0x8
 1474 0a18 650B0000 		.4byte	.LASF158
 1475 0a1c 14       		.byte	0x14
 1476 0a1d 80       		.byte	0x80
 1477 0a1e F4000000 		.4byte	0xf4
 1478 0a22 A4       		.byte	0xa4
 1479 0a23 08       		.uleb128 0x8
 1480 0a24 0C080000 		.4byte	.LASF159
 1481 0a28 14       		.byte	0x14
 1482 0a29 81       		.byte	0x81
ARM GAS  /tmp/ccCyOv1V.s 			page 27


 1483 0a2a F9000000 		.4byte	0xf9
 1484 0a2e A8       		.byte	0xa8
 1485 0a2f 08       		.uleb128 0x8
 1486 0a30 66010000 		.4byte	.LASF160
 1487 0a34 14       		.byte	0x14
 1488 0a35 82       		.byte	0x82
 1489 0a36 F4000000 		.4byte	0xf4
 1490 0a3a AC       		.byte	0xac
 1491 0a3b 08       		.uleb128 0x8
 1492 0a3c E3030000 		.4byte	.LASF161
 1493 0a40 14       		.byte	0x14
 1494 0a41 83       		.byte	0x83
 1495 0a42 8D0B0000 		.4byte	0xb8d
 1496 0a46 B0       		.byte	0xb0
 1497 0a47 08       		.uleb128 0x8
 1498 0a48 96090000 		.4byte	.LASF162
 1499 0a4c 14       		.byte	0x14
 1500 0a4d 84       		.byte	0x84
 1501 0a4e F4000000 		.4byte	0xf4
 1502 0a52 C0       		.byte	0xc0
 1503 0a53 08       		.uleb128 0x8
 1504 0a54 B4070000 		.4byte	.LASF163
 1505 0a58 14       		.byte	0x14
 1506 0a59 85       		.byte	0x85
 1507 0a5a F4000000 		.4byte	0xf4
 1508 0a5e C4       		.byte	0xc4
 1509 0a5f 08       		.uleb128 0x8
 1510 0a60 5B030000 		.4byte	.LASF164
 1511 0a64 14       		.byte	0x14
 1512 0a65 86       		.byte	0x86
 1513 0a66 77090000 		.4byte	0x977
 1514 0a6a C8       		.byte	0xc8
 1515 0a6b 1C       		.uleb128 0x1c
 1516 0a6c 26050000 		.4byte	.LASF165
 1517 0a70 14       		.byte	0x14
 1518 0a71 87       		.byte	0x87
 1519 0a72 F4000000 		.4byte	0xf4
 1520 0a76 0401     		.2byte	0x104
 1521 0a78 1C       		.uleb128 0x1c
 1522 0a79 930B0000 		.4byte	.LASF166
 1523 0a7d 14       		.byte	0x14
 1524 0a7e 88       		.byte	0x88
 1525 0a7f F4000000 		.4byte	0xf4
 1526 0a83 0801     		.2byte	0x108
 1527 0a85 1C       		.uleb128 0x1c
 1528 0a86 C7060000 		.4byte	.LASF167
 1529 0a8a 14       		.byte	0x14
 1530 0a8b 89       		.byte	0x89
 1531 0a8c F4000000 		.4byte	0xf4
 1532 0a90 0C01     		.2byte	0x10c
 1533 0a92 1C       		.uleb128 0x1c
 1534 0a93 1E060000 		.4byte	.LASF168
 1535 0a97 14       		.byte	0x14
 1536 0a98 8A       		.byte	0x8a
 1537 0a99 F4000000 		.4byte	0xf4
 1538 0a9d 1001     		.2byte	0x110
 1539 0a9f 1C       		.uleb128 0x1c
ARM GAS  /tmp/ccCyOv1V.s 			page 28


 1540 0aa0 7C0D0000 		.4byte	.LASF169
 1541 0aa4 14       		.byte	0x14
 1542 0aa5 8B       		.byte	0x8b
 1543 0aa6 F4000000 		.4byte	0xf4
 1544 0aaa 1401     		.2byte	0x114
 1545 0aac 1C       		.uleb128 0x1c
 1546 0aad 65030000 		.4byte	.LASF170
 1547 0ab1 14       		.byte	0x14
 1548 0ab2 8C       		.byte	0x8c
 1549 0ab3 9D0B0000 		.4byte	0xb9d
 1550 0ab7 1801     		.2byte	0x118
 1551 0ab9 1C       		.uleb128 0x1c
 1552 0aba 0A050000 		.4byte	.LASF171
 1553 0abe 14       		.byte	0x14
 1554 0abf 8D       		.byte	0x8d
 1555 0ac0 F4000000 		.4byte	0xf4
 1556 0ac4 4001     		.2byte	0x140
 1557 0ac6 1C       		.uleb128 0x1c
 1558 0ac7 ED030000 		.4byte	.LASF172
 1559 0acb 14       		.byte	0x14
 1560 0acc 8E       		.byte	0x8e
 1561 0acd 1D090000 		.4byte	0x91d
 1562 0ad1 4401     		.2byte	0x144
 1563 0ad3 1C       		.uleb128 0x1c
 1564 0ad4 070C0000 		.4byte	.LASF173
 1565 0ad8 14       		.byte	0x14
 1566 0ad9 8F       		.byte	0x8f
 1567 0ada F4000000 		.4byte	0xf4
 1568 0ade 4801     		.2byte	0x148
 1569 0ae0 1C       		.uleb128 0x1c
 1570 0ae1 32040000 		.4byte	.LASF174
 1571 0ae5 14       		.byte	0x14
 1572 0ae6 90       		.byte	0x90
 1573 0ae7 F4000000 		.4byte	0xf4
 1574 0aeb 4C01     		.2byte	0x14c
 1575 0aed 1C       		.uleb128 0x1c
 1576 0aee 76030000 		.4byte	.LASF175
 1577 0af2 14       		.byte	0x14
 1578 0af3 91       		.byte	0x91
 1579 0af4 AD0B0000 		.4byte	0xbad
 1580 0af8 5001     		.2byte	0x150
 1581 0afa 1C       		.uleb128 0x1c
 1582 0afb 2E0A0000 		.4byte	.LASF176
 1583 0aff 14       		.byte	0x14
 1584 0b00 92       		.byte	0x92
 1585 0b01 F4000000 		.4byte	0xf4
 1586 0b05 8001     		.2byte	0x180
 1587 0b07 1C       		.uleb128 0x1c
 1588 0b08 80030000 		.4byte	.LASF177
 1589 0b0c 14       		.byte	0x14
 1590 0b0d 93       		.byte	0x93
 1591 0b0e BD0B0000 		.4byte	0xbbd
 1592 0b12 8401     		.2byte	0x184
 1593 0b14 1D       		.uleb128 0x1d
 1594 0b15 53435300 		.ascii	"SCS\000"
 1595 0b19 14       		.byte	0x14
 1596 0b1a 94       		.byte	0x94
ARM GAS  /tmp/ccCyOv1V.s 			page 29


 1597 0b1b F4000000 		.4byte	0xf4
 1598 0b1f A001     		.2byte	0x1a0
 1599 0b21 1C       		.uleb128 0x1c
 1600 0b22 AD090000 		.4byte	.LASF178
 1601 0b26 14       		.byte	0x14
 1602 0b27 95       		.byte	0x95
 1603 0b28 F4000000 		.4byte	0xf4
 1604 0b2c A401     		.2byte	0x1a4
 1605 0b2e 1C       		.uleb128 0x1c
 1606 0b2f 39050000 		.4byte	.LASF179
 1607 0b33 14       		.byte	0x14
 1608 0b34 96       		.byte	0x96
 1609 0b35 F4000000 		.4byte	0xf4
 1610 0b39 A801     		.2byte	0x1a8
 1611 0b3b 1C       		.uleb128 0x1c
 1612 0b3c 42050000 		.4byte	.LASF180
 1613 0b40 14       		.byte	0x14
 1614 0b41 97       		.byte	0x97
 1615 0b42 F4000000 		.4byte	0xf4
 1616 0b46 AC01     		.2byte	0x1ac
 1617 0b48 1C       		.uleb128 0x1c
 1618 0b49 8A030000 		.4byte	.LASF181
 1619 0b4d 14       		.byte	0x14
 1620 0b4e 98       		.byte	0x98
 1621 0b4f 8D0B0000 		.4byte	0xb8d
 1622 0b53 B001     		.2byte	0x1b0
 1623 0b55 1C       		.uleb128 0x1c
 1624 0b56 DA030000 		.4byte	.LASF182
 1625 0b5a 14       		.byte	0x14
 1626 0b5b 99       		.byte	0x99
 1627 0b5c F4000000 		.4byte	0xf4
 1628 0b60 C001     		.2byte	0x1c0
 1629 0b62 1C       		.uleb128 0x1c
 1630 0b63 C7000000 		.4byte	.LASF183
 1631 0b67 14       		.byte	0x14
 1632 0b68 9A       		.byte	0x9a
 1633 0b69 F4000000 		.4byte	0xf4
 1634 0b6d C401     		.2byte	0x1c4
 1635 0b6f 1C       		.uleb128 0x1c
 1636 0b70 BB090000 		.4byte	.LASF184
 1637 0b74 14       		.byte	0x14
 1638 0b75 9B       		.byte	0x9b
 1639 0b76 F4000000 		.4byte	0xf4
 1640 0b7a C801     		.2byte	0x1c8
 1641 0b7c 00       		.byte	0
 1642 0b7d 17       		.uleb128 0x17
 1643 0b7e E9000000 		.4byte	0xe9
 1644 0b82 8D0B0000 		.4byte	0xb8d
 1645 0b86 18       		.uleb128 0x18
 1646 0b87 A8030000 		.4byte	0x3a8
 1647 0b8b 1E       		.byte	0x1e
 1648 0b8c 00       		.byte	0
 1649 0b8d 17       		.uleb128 0x17
 1650 0b8e E9000000 		.4byte	0xe9
 1651 0b92 9D0B0000 		.4byte	0xb9d
 1652 0b96 18       		.uleb128 0x18
 1653 0b97 A8030000 		.4byte	0x3a8
ARM GAS  /tmp/ccCyOv1V.s 			page 30


 1654 0b9b 03       		.byte	0x3
 1655 0b9c 00       		.byte	0
 1656 0b9d 17       		.uleb128 0x17
 1657 0b9e E9000000 		.4byte	0xe9
 1658 0ba2 AD0B0000 		.4byte	0xbad
 1659 0ba6 18       		.uleb128 0x18
 1660 0ba7 A8030000 		.4byte	0x3a8
 1661 0bab 09       		.byte	0x9
 1662 0bac 00       		.byte	0
 1663 0bad 17       		.uleb128 0x17
 1664 0bae E9000000 		.4byte	0xe9
 1665 0bb2 BD0B0000 		.4byte	0xbbd
 1666 0bb6 18       		.uleb128 0x18
 1667 0bb7 A8030000 		.4byte	0x3a8
 1668 0bbb 0B       		.byte	0xb
 1669 0bbc 00       		.byte	0
 1670 0bbd 17       		.uleb128 0x17
 1671 0bbe E9000000 		.4byte	0xe9
 1672 0bc2 CD0B0000 		.4byte	0xbcd
 1673 0bc6 18       		.uleb128 0x18
 1674 0bc7 A8030000 		.4byte	0x3a8
 1675 0bcb 06       		.byte	0x6
 1676 0bcc 00       		.byte	0
 1677 0bcd 03       		.uleb128 0x3
 1678 0bce 3E000000 		.4byte	.LASF185
 1679 0bd2 14       		.byte	0x14
 1680 0bd3 9D       		.byte	0x9d
 1681 0bd4 AE090000 		.4byte	0x9ae
 1682 0bd8 0A       		.uleb128 0xa
 1683 0bd9 04       		.byte	0x4
 1684 0bda 14       		.byte	0x14
 1685 0bdb C7       		.byte	0xc7
 1686 0bdc F90B0000 		.4byte	0xbf9
 1687 0be0 08       		.uleb128 0x8
 1688 0be1 08070000 		.4byte	.LASF186
 1689 0be5 14       		.byte	0x14
 1690 0be6 C8       		.byte	0xc8
 1691 0be7 D4000000 		.4byte	0xd4
 1692 0beb 00       		.byte	0
 1693 0bec 08       		.uleb128 0x8
 1694 0bed 00070000 		.4byte	.LASF187
 1695 0bf1 14       		.byte	0x14
 1696 0bf2 C9       		.byte	0xc9
 1697 0bf3 D4000000 		.4byte	0xd4
 1698 0bf7 02       		.byte	0x2
 1699 0bf8 00       		.byte	0
 1700 0bf9 0A       		.uleb128 0xa
 1701 0bfa 04       		.byte	0x4
 1702 0bfb 14       		.byte	0x14
 1703 0bfc CB       		.byte	0xcb
 1704 0bfd 320C0000 		.4byte	0xc32
 1705 0c01 08       		.uleb128 0x8
 1706 0c02 D1060000 		.4byte	.LASF188
 1707 0c06 14       		.byte	0x14
 1708 0c07 CC       		.byte	0xcc
 1709 0c08 BF000000 		.4byte	0xbf
 1710 0c0c 00       		.byte	0
ARM GAS  /tmp/ccCyOv1V.s 			page 31


 1711 0c0d 08       		.uleb128 0x8
 1712 0c0e D9060000 		.4byte	.LASF189
 1713 0c12 14       		.byte	0x14
 1714 0c13 CD       		.byte	0xcd
 1715 0c14 BF000000 		.4byte	0xbf
 1716 0c18 01       		.byte	0x1
 1717 0c19 08       		.uleb128 0x8
 1718 0c1a E1060000 		.4byte	.LASF190
 1719 0c1e 14       		.byte	0x14
 1720 0c1f CE       		.byte	0xce
 1721 0c20 BF000000 		.4byte	0xbf
 1722 0c24 02       		.byte	0x2
 1723 0c25 08       		.uleb128 0x8
 1724 0c26 E9060000 		.4byte	.LASF191
 1725 0c2a 14       		.byte	0x14
 1726 0c2b CF       		.byte	0xcf
 1727 0c2c BF000000 		.4byte	0xbf
 1728 0c30 03       		.byte	0x3
 1729 0c31 00       		.byte	0
 1730 0c32 14       		.uleb128 0x14
 1731 0c33 04       		.byte	0x4
 1732 0c34 14       		.byte	0x14
 1733 0c35 C5       		.byte	0xc5
 1734 0c36 500C0000 		.4byte	0xc50
 1735 0c3a 15       		.uleb128 0x15
 1736 0c3b D8090000 		.4byte	.LASF192
 1737 0c3f 14       		.byte	0x14
 1738 0c40 C6       		.byte	0xc6
 1739 0c41 F4000000 		.4byte	0xf4
 1740 0c45 1E       		.uleb128 0x1e
 1741 0c46 D80B0000 		.4byte	0xbd8
 1742 0c4a 1E       		.uleb128 0x1e
 1743 0c4b F90B0000 		.4byte	0xbf9
 1744 0c4f 00       		.byte	0
 1745 0c50 0A       		.uleb128 0xa
 1746 0c51 04       		.byte	0x4
 1747 0c52 14       		.byte	0x14
 1748 0c53 D5       		.byte	0xd5
 1749 0c54 710C0000 		.4byte	0xc71
 1750 0c58 08       		.uleb128 0x8
 1751 0c59 CA080000 		.4byte	.LASF193
 1752 0c5d 14       		.byte	0x14
 1753 0c5e D6       		.byte	0xd6
 1754 0c5f D4000000 		.4byte	0xd4
 1755 0c63 00       		.byte	0
 1756 0c64 08       		.uleb128 0x8
 1757 0c65 BA080000 		.4byte	.LASF194
 1758 0c69 14       		.byte	0x14
 1759 0c6a D7       		.byte	0xd7
 1760 0c6b D4000000 		.4byte	0xd4
 1761 0c6f 02       		.byte	0x2
 1762 0c70 00       		.byte	0
 1763 0c71 0A       		.uleb128 0xa
 1764 0c72 04       		.byte	0x4
 1765 0c73 14       		.byte	0x14
 1766 0c74 D9       		.byte	0xd9
 1767 0c75 AA0C0000 		.4byte	0xcaa
ARM GAS  /tmp/ccCyOv1V.s 			page 32


 1768 0c79 08       		.uleb128 0x8
 1769 0c7a 4C080000 		.4byte	.LASF195
 1770 0c7e 14       		.byte	0x14
 1771 0c7f DA       		.byte	0xda
 1772 0c80 BF000000 		.4byte	0xbf
 1773 0c84 00       		.byte	0
 1774 0c85 08       		.uleb128 0x8
 1775 0c86 55080000 		.4byte	.LASF196
 1776 0c8a 14       		.byte	0x14
 1777 0c8b DB       		.byte	0xdb
 1778 0c8c BF000000 		.4byte	0xbf
 1779 0c90 01       		.byte	0x1
 1780 0c91 08       		.uleb128 0x8
 1781 0c92 5E080000 		.4byte	.LASF197
 1782 0c96 14       		.byte	0x14
 1783 0c97 DC       		.byte	0xdc
 1784 0c98 BF000000 		.4byte	0xbf
 1785 0c9c 02       		.byte	0x2
 1786 0c9d 08       		.uleb128 0x8
 1787 0c9e 67080000 		.4byte	.LASF198
 1788 0ca2 14       		.byte	0x14
 1789 0ca3 DD       		.byte	0xdd
 1790 0ca4 BF000000 		.4byte	0xbf
 1791 0ca8 03       		.byte	0x3
 1792 0ca9 00       		.byte	0
 1793 0caa 14       		.uleb128 0x14
 1794 0cab 04       		.byte	0x4
 1795 0cac 14       		.byte	0x14
 1796 0cad D3       		.byte	0xd3
 1797 0cae C80C0000 		.4byte	0xcc8
 1798 0cb2 15       		.uleb128 0x15
 1799 0cb3 75060000 		.4byte	.LASF199
 1800 0cb7 14       		.byte	0x14
 1801 0cb8 D4       		.byte	0xd4
 1802 0cb9 F4000000 		.4byte	0xf4
 1803 0cbd 1E       		.uleb128 0x1e
 1804 0cbe 500C0000 		.4byte	0xc50
 1805 0cc2 1E       		.uleb128 0x1e
 1806 0cc3 710C0000 		.4byte	0xc71
 1807 0cc7 00       		.byte	0
 1808 0cc8 0A       		.uleb128 0xa
 1809 0cc9 04       		.byte	0x4
 1810 0cca 14       		.byte	0x14
 1811 0ccb E2       		.byte	0xe2
 1812 0ccc E90C0000 		.4byte	0xce9
 1813 0cd0 08       		.uleb128 0x8
 1814 0cd1 C3050000 		.4byte	.LASF200
 1815 0cd5 14       		.byte	0x14
 1816 0cd6 E3       		.byte	0xe3
 1817 0cd7 D4000000 		.4byte	0xd4
 1818 0cdb 00       		.byte	0
 1819 0cdc 08       		.uleb128 0x8
 1820 0cdd BB050000 		.4byte	.LASF201
 1821 0ce1 14       		.byte	0x14
 1822 0ce2 E4       		.byte	0xe4
 1823 0ce3 D4000000 		.4byte	0xd4
 1824 0ce7 02       		.byte	0x2
ARM GAS  /tmp/ccCyOv1V.s 			page 33


 1825 0ce8 00       		.byte	0
 1826 0ce9 0A       		.uleb128 0xa
 1827 0cea 04       		.byte	0x4
 1828 0ceb 14       		.byte	0x14
 1829 0cec E6       		.byte	0xe6
 1830 0ced 220D0000 		.4byte	0xd22
 1831 0cf1 08       		.uleb128 0x8
 1832 0cf2 6A050000 		.4byte	.LASF202
 1833 0cf6 14       		.byte	0x14
 1834 0cf7 E7       		.byte	0xe7
 1835 0cf8 BF000000 		.4byte	0xbf
 1836 0cfc 00       		.byte	0
 1837 0cfd 08       		.uleb128 0x8
 1838 0cfe 72050000 		.4byte	.LASF203
 1839 0d02 14       		.byte	0x14
 1840 0d03 E8       		.byte	0xe8
 1841 0d04 BF000000 		.4byte	0xbf
 1842 0d08 01       		.byte	0x1
 1843 0d09 08       		.uleb128 0x8
 1844 0d0a 7A050000 		.4byte	.LASF204
 1845 0d0e 14       		.byte	0x14
 1846 0d0f E9       		.byte	0xe9
 1847 0d10 BF000000 		.4byte	0xbf
 1848 0d14 02       		.byte	0x2
 1849 0d15 08       		.uleb128 0x8
 1850 0d16 82050000 		.4byte	.LASF205
 1851 0d1a 14       		.byte	0x14
 1852 0d1b EA       		.byte	0xea
 1853 0d1c BF000000 		.4byte	0xbf
 1854 0d20 03       		.byte	0x3
 1855 0d21 00       		.byte	0
 1856 0d22 14       		.uleb128 0x14
 1857 0d23 04       		.byte	0x4
 1858 0d24 14       		.byte	0x14
 1859 0d25 E0       		.byte	0xe0
 1860 0d26 400D0000 		.4byte	0xd40
 1861 0d2a 15       		.uleb128 0x15
 1862 0d2b F40A0000 		.4byte	.LASF206
 1863 0d2f 14       		.byte	0x14
 1864 0d30 E1       		.byte	0xe1
 1865 0d31 F4000000 		.4byte	0xf4
 1866 0d35 1E       		.uleb128 0x1e
 1867 0d36 C80C0000 		.4byte	0xcc8
 1868 0d3a 1E       		.uleb128 0x1e
 1869 0d3b E90C0000 		.4byte	0xce9
 1870 0d3f 00       		.byte	0
 1871 0d40 0A       		.uleb128 0xa
 1872 0d41 04       		.byte	0x4
 1873 0d42 14       		.byte	0x14
 1874 0d43 EF       		.byte	0xef
 1875 0d44 610D0000 		.4byte	0xd61
 1876 0d48 08       		.uleb128 0x8
 1877 0d49 A5040000 		.4byte	.LASF207
 1878 0d4d 14       		.byte	0x14
 1879 0d4e F0       		.byte	0xf0
 1880 0d4f D4000000 		.4byte	0xd4
 1881 0d53 00       		.byte	0
ARM GAS  /tmp/ccCyOv1V.s 			page 34


 1882 0d54 08       		.uleb128 0x8
 1883 0d55 9D040000 		.4byte	.LASF208
 1884 0d59 14       		.byte	0x14
 1885 0d5a F1       		.byte	0xf1
 1886 0d5b D4000000 		.4byte	0xd4
 1887 0d5f 02       		.byte	0x2
 1888 0d60 00       		.byte	0
 1889 0d61 0A       		.uleb128 0xa
 1890 0d62 04       		.byte	0x4
 1891 0d63 14       		.byte	0x14
 1892 0d64 F3       		.byte	0xf3
 1893 0d65 9A0D0000 		.4byte	0xd9a
 1894 0d69 08       		.uleb128 0x8
 1895 0d6a 70040000 		.4byte	.LASF209
 1896 0d6e 14       		.byte	0x14
 1897 0d6f F4       		.byte	0xf4
 1898 0d70 BF000000 		.4byte	0xbf
 1899 0d74 00       		.byte	0
 1900 0d75 08       		.uleb128 0x8
 1901 0d76 78040000 		.4byte	.LASF210
 1902 0d7a 14       		.byte	0x14
 1903 0d7b F5       		.byte	0xf5
 1904 0d7c BF000000 		.4byte	0xbf
 1905 0d80 01       		.byte	0x1
 1906 0d81 08       		.uleb128 0x8
 1907 0d82 80040000 		.4byte	.LASF211
 1908 0d86 14       		.byte	0x14
 1909 0d87 F6       		.byte	0xf6
 1910 0d88 BF000000 		.4byte	0xbf
 1911 0d8c 02       		.byte	0x2
 1912 0d8d 08       		.uleb128 0x8
 1913 0d8e BB0D0000 		.4byte	.LASF212
 1914 0d92 14       		.byte	0x14
 1915 0d93 F7       		.byte	0xf7
 1916 0d94 BF000000 		.4byte	0xbf
 1917 0d98 03       		.byte	0x3
 1918 0d99 00       		.byte	0
 1919 0d9a 14       		.uleb128 0x14
 1920 0d9b 04       		.byte	0x4
 1921 0d9c 14       		.byte	0x14
 1922 0d9d ED       		.byte	0xed
 1923 0d9e B80D0000 		.4byte	0xdb8
 1924 0da2 15       		.uleb128 0x15
 1925 0da3 7B070000 		.4byte	.LASF213
 1926 0da7 14       		.byte	0x14
 1927 0da8 EE       		.byte	0xee
 1928 0da9 F4000000 		.4byte	0xf4
 1929 0dad 1E       		.uleb128 0x1e
 1930 0dae 400D0000 		.4byte	0xd40
 1931 0db2 1E       		.uleb128 0x1e
 1932 0db3 610D0000 		.4byte	0xd61
 1933 0db7 00       		.byte	0
 1934 0db8 0A       		.uleb128 0xa
 1935 0db9 04       		.byte	0x4
 1936 0dba 14       		.byte	0x14
 1937 0dbb FC       		.byte	0xfc
 1938 0dbc D90D0000 		.4byte	0xdd9
ARM GAS  /tmp/ccCyOv1V.s 			page 35


 1939 0dc0 08       		.uleb128 0x8
 1940 0dc1 EF080000 		.4byte	.LASF214
 1941 0dc5 14       		.byte	0x14
 1942 0dc6 FD       		.byte	0xfd
 1943 0dc7 D4000000 		.4byte	0xd4
 1944 0dcb 00       		.byte	0
 1945 0dcc 08       		.uleb128 0x8
 1946 0dcd E7080000 		.4byte	.LASF215
 1947 0dd1 14       		.byte	0x14
 1948 0dd2 FE       		.byte	0xfe
 1949 0dd3 D4000000 		.4byte	0xd4
 1950 0dd7 02       		.byte	0x2
 1951 0dd8 00       		.byte	0
 1952 0dd9 19       		.uleb128 0x19
 1953 0dda 04       		.byte	0x4
 1954 0ddb 14       		.byte	0x14
 1955 0ddc 0001     		.2byte	0x100
 1956 0dde 170E0000 		.4byte	0xe17
 1957 0de2 0F       		.uleb128 0xf
 1958 0de3 93080000 		.4byte	.LASF216
 1959 0de7 14       		.byte	0x14
 1960 0de8 0101     		.2byte	0x101
 1961 0dea BF000000 		.4byte	0xbf
 1962 0dee 00       		.byte	0
 1963 0def 0F       		.uleb128 0xf
 1964 0df0 9B080000 		.4byte	.LASF217
 1965 0df4 14       		.byte	0x14
 1966 0df5 0201     		.2byte	0x102
 1967 0df7 BF000000 		.4byte	0xbf
 1968 0dfb 01       		.byte	0x1
 1969 0dfc 0F       		.uleb128 0xf
 1970 0dfd A3080000 		.4byte	.LASF218
 1971 0e01 14       		.byte	0x14
 1972 0e02 0301     		.2byte	0x103
 1973 0e04 BF000000 		.4byte	0xbf
 1974 0e08 02       		.byte	0x2
 1975 0e09 0F       		.uleb128 0xf
 1976 0e0a AB080000 		.4byte	.LASF219
 1977 0e0e 14       		.byte	0x14
 1978 0e0f 0401     		.2byte	0x104
 1979 0e11 BF000000 		.4byte	0xbf
 1980 0e15 03       		.byte	0x3
 1981 0e16 00       		.byte	0
 1982 0e17 14       		.uleb128 0x14
 1983 0e18 04       		.byte	0x4
 1984 0e19 14       		.byte	0x14
 1985 0e1a FA       		.byte	0xfa
 1986 0e1b 350E0000 		.4byte	0xe35
 1987 0e1f 15       		.uleb128 0x15
 1988 0e20 330A0000 		.4byte	.LASF220
 1989 0e24 14       		.byte	0x14
 1990 0e25 FB       		.byte	0xfb
 1991 0e26 F4000000 		.4byte	0xf4
 1992 0e2a 1E       		.uleb128 0x1e
 1993 0e2b B80D0000 		.4byte	0xdb8
 1994 0e2f 1E       		.uleb128 0x1e
 1995 0e30 D90D0000 		.4byte	0xdd9
ARM GAS  /tmp/ccCyOv1V.s 			page 36


 1996 0e34 00       		.byte	0
 1997 0e35 0A       		.uleb128 0xa
 1998 0e36 20       		.byte	0x20
 1999 0e37 14       		.byte	0x14
 2000 0e38 C3       		.byte	0xc3
 2001 0e39 680E0000 		.4byte	0xe68
 2002 0e3d 1F       		.uleb128 0x1f
 2003 0e3e 320C0000 		.4byte	0xc32
 2004 0e42 00       		.byte	0
 2005 0e43 08       		.uleb128 0x8
 2006 0e44 39030000 		.4byte	.LASF151
 2007 0e48 14       		.byte	0x14
 2008 0e49 D2       		.byte	0xd2
 2009 0e4a 680E0000 		.4byte	0xe68
 2010 0e4e 04       		.byte	0x4
 2011 0e4f 1F       		.uleb128 0x1f
 2012 0e50 AA0C0000 		.4byte	0xcaa
 2013 0e54 10       		.byte	0x10
 2014 0e55 1F       		.uleb128 0x1f
 2015 0e56 220D0000 		.4byte	0xd22
 2016 0e5a 14       		.byte	0x14
 2017 0e5b 1F       		.uleb128 0x1f
 2018 0e5c 9A0D0000 		.4byte	0xd9a
 2019 0e60 18       		.byte	0x18
 2020 0e61 1F       		.uleb128 0x1f
 2021 0e62 170E0000 		.4byte	0xe17
 2022 0e66 1C       		.byte	0x1c
 2023 0e67 00       		.byte	0
 2024 0e68 17       		.uleb128 0x17
 2025 0e69 E9000000 		.4byte	0xe9
 2026 0e6d 780E0000 		.4byte	0xe78
 2027 0e71 18       		.uleb128 0x18
 2028 0e72 A8030000 		.4byte	0x3a8
 2029 0e76 02       		.byte	0x2
 2030 0e77 00       		.byte	0
 2031 0e78 10       		.uleb128 0x10
 2032 0e79 0D0D0000 		.4byte	.LASF221
 2033 0e7d 14       		.byte	0x14
 2034 0e7e 0701     		.2byte	0x107
 2035 0e80 350E0000 		.4byte	0xe35
 2036 0e84 19       		.uleb128 0x19
 2037 0e85 74       		.byte	0x74
 2038 0e86 14       		.byte	0x14
 2039 0e87 1C01     		.2byte	0x11c
 2040 0e89 670F0000 		.4byte	0xf67
 2041 0e8d 0E       		.uleb128 0xe
 2042 0e8e 495200   		.ascii	"IR\000"
 2043 0e91 14       		.byte	0x14
 2044 0e92 1E01     		.2byte	0x11e
 2045 0e94 F4000000 		.4byte	0xf4
 2046 0e98 00       		.byte	0
 2047 0e99 0E       		.uleb128 0xe
 2048 0e9a 54435200 		.ascii	"TCR\000"
 2049 0e9e 14       		.byte	0x14
 2050 0e9f 1F01     		.2byte	0x11f
 2051 0ea1 F4000000 		.4byte	0xf4
 2052 0ea5 04       		.byte	0x4
ARM GAS  /tmp/ccCyOv1V.s 			page 37


 2053 0ea6 0E       		.uleb128 0xe
 2054 0ea7 544300   		.ascii	"TC\000"
 2055 0eaa 14       		.byte	0x14
 2056 0eab 2001     		.2byte	0x120
 2057 0ead F4000000 		.4byte	0xf4
 2058 0eb1 08       		.byte	0x8
 2059 0eb2 0E       		.uleb128 0xe
 2060 0eb3 505200   		.ascii	"PR\000"
 2061 0eb6 14       		.byte	0x14
 2062 0eb7 2101     		.2byte	0x121
 2063 0eb9 F4000000 		.4byte	0xf4
 2064 0ebd 0C       		.byte	0xc
 2065 0ebe 0E       		.uleb128 0xe
 2066 0ebf 504300   		.ascii	"PC\000"
 2067 0ec2 14       		.byte	0x14
 2068 0ec3 2201     		.2byte	0x122
 2069 0ec5 F4000000 		.4byte	0xf4
 2070 0ec9 10       		.byte	0x10
 2071 0eca 0E       		.uleb128 0xe
 2072 0ecb 4D435200 		.ascii	"MCR\000"
 2073 0ecf 14       		.byte	0x14
 2074 0ed0 2301     		.2byte	0x123
 2075 0ed2 F4000000 		.4byte	0xf4
 2076 0ed6 14       		.byte	0x14
 2077 0ed7 0E       		.uleb128 0xe
 2078 0ed8 4D523000 		.ascii	"MR0\000"
 2079 0edc 14       		.byte	0x14
 2080 0edd 2401     		.2byte	0x124
 2081 0edf F4000000 		.4byte	0xf4
 2082 0ee3 18       		.byte	0x18
 2083 0ee4 0E       		.uleb128 0xe
 2084 0ee5 4D523100 		.ascii	"MR1\000"
 2085 0ee9 14       		.byte	0x14
 2086 0eea 2501     		.2byte	0x125
 2087 0eec F4000000 		.4byte	0xf4
 2088 0ef0 1C       		.byte	0x1c
 2089 0ef1 0E       		.uleb128 0xe
 2090 0ef2 4D523200 		.ascii	"MR2\000"
 2091 0ef6 14       		.byte	0x14
 2092 0ef7 2601     		.2byte	0x126
 2093 0ef9 F4000000 		.4byte	0xf4
 2094 0efd 20       		.byte	0x20
 2095 0efe 0E       		.uleb128 0xe
 2096 0eff 4D523300 		.ascii	"MR3\000"
 2097 0f03 14       		.byte	0x14
 2098 0f04 2701     		.2byte	0x127
 2099 0f06 F4000000 		.4byte	0xf4
 2100 0f0a 24       		.byte	0x24
 2101 0f0b 0E       		.uleb128 0xe
 2102 0f0c 43435200 		.ascii	"CCR\000"
 2103 0f10 14       		.byte	0x14
 2104 0f11 2801     		.2byte	0x128
 2105 0f13 F4000000 		.4byte	0xf4
 2106 0f17 28       		.byte	0x28
 2107 0f18 0E       		.uleb128 0xe
 2108 0f19 43523000 		.ascii	"CR0\000"
 2109 0f1d 14       		.byte	0x14
ARM GAS  /tmp/ccCyOv1V.s 			page 38


 2110 0f1e 2901     		.2byte	0x129
 2111 0f20 F9000000 		.4byte	0xf9
 2112 0f24 2C       		.byte	0x2c
 2113 0f25 0E       		.uleb128 0xe
 2114 0f26 43523100 		.ascii	"CR1\000"
 2115 0f2a 14       		.byte	0x14
 2116 0f2b 2A01     		.2byte	0x12a
 2117 0f2d F9000000 		.4byte	0xf9
 2118 0f31 30       		.byte	0x30
 2119 0f32 0F       		.uleb128 0xf
 2120 0f33 39030000 		.4byte	.LASF151
 2121 0f37 14       		.byte	0x14
 2122 0f38 2B01     		.2byte	0x12b
 2123 0f3a 87090000 		.4byte	0x987
 2124 0f3e 34       		.byte	0x34
 2125 0f3f 0E       		.uleb128 0xe
 2126 0f40 454D5200 		.ascii	"EMR\000"
 2127 0f44 14       		.byte	0x14
 2128 0f45 2C01     		.2byte	0x12c
 2129 0f47 F4000000 		.4byte	0xf4
 2130 0f4b 3C       		.byte	0x3c
 2131 0f4c 0F       		.uleb128 0xf
 2132 0f4d 43030000 		.4byte	.LASF156
 2133 0f51 14       		.byte	0x14
 2134 0f52 2D01     		.2byte	0x12d
 2135 0f54 AD0B0000 		.4byte	0xbad
 2136 0f58 40       		.byte	0x40
 2137 0f59 0F       		.uleb128 0xf
 2138 0f5a FF000000 		.4byte	.LASF222
 2139 0f5e 14       		.byte	0x14
 2140 0f5f 2E01     		.2byte	0x12e
 2141 0f61 F4000000 		.4byte	0xf4
 2142 0f65 70       		.byte	0x70
 2143 0f66 00       		.byte	0
 2144 0f67 10       		.uleb128 0x10
 2145 0f68 EB090000 		.4byte	.LASF223
 2146 0f6c 14       		.byte	0x14
 2147 0f6d 2F01     		.2byte	0x12f
 2148 0f6f 840E0000 		.4byte	0xe84
 2149 0f73 20       		.uleb128 0x20
 2150 0f74 04       		.byte	0x4
 2151 0f75 14       		.byte	0x14
 2152 0f76 5201     		.2byte	0x152
 2153 0f78 A10F0000 		.4byte	0xfa1
 2154 0f7c 21       		.uleb128 0x21
 2155 0f7d 52425200 		.ascii	"RBR\000"
 2156 0f81 14       		.byte	0x14
 2157 0f82 5301     		.2byte	0x153
 2158 0f84 F9000000 		.4byte	0xf9
 2159 0f88 21       		.uleb128 0x21
 2160 0f89 54485200 		.ascii	"THR\000"
 2161 0f8d 14       		.byte	0x14
 2162 0f8e 5401     		.2byte	0x154
 2163 0f90 F4000000 		.4byte	0xf4
 2164 0f94 21       		.uleb128 0x21
 2165 0f95 444C4C00 		.ascii	"DLL\000"
 2166 0f99 14       		.byte	0x14
ARM GAS  /tmp/ccCyOv1V.s 			page 39


 2167 0f9a 5501     		.2byte	0x155
 2168 0f9c F4000000 		.4byte	0xf4
 2169 0fa0 00       		.byte	0
 2170 0fa1 20       		.uleb128 0x20
 2171 0fa2 04       		.byte	0x4
 2172 0fa3 14       		.byte	0x14
 2173 0fa4 5701     		.2byte	0x157
 2174 0fa6 C30F0000 		.4byte	0xfc3
 2175 0faa 21       		.uleb128 0x21
 2176 0fab 444C4D00 		.ascii	"DLM\000"
 2177 0faf 14       		.byte	0x14
 2178 0fb0 5801     		.2byte	0x158
 2179 0fb2 F4000000 		.4byte	0xf4
 2180 0fb6 21       		.uleb128 0x21
 2181 0fb7 49455200 		.ascii	"IER\000"
 2182 0fbb 14       		.byte	0x14
 2183 0fbc 5901     		.2byte	0x159
 2184 0fbe F4000000 		.4byte	0xf4
 2185 0fc2 00       		.byte	0
 2186 0fc3 20       		.uleb128 0x20
 2187 0fc4 04       		.byte	0x4
 2188 0fc5 14       		.byte	0x14
 2189 0fc6 5B01     		.2byte	0x15b
 2190 0fc8 E50F0000 		.4byte	0xfe5
 2191 0fcc 21       		.uleb128 0x21
 2192 0fcd 49495200 		.ascii	"IIR\000"
 2193 0fd1 14       		.byte	0x14
 2194 0fd2 5C01     		.2byte	0x15c
 2195 0fd4 F9000000 		.4byte	0xf9
 2196 0fd8 21       		.uleb128 0x21
 2197 0fd9 46435200 		.ascii	"FCR\000"
 2198 0fdd 14       		.byte	0x14
 2199 0fde 5D01     		.2byte	0x15d
 2200 0fe0 F4000000 		.4byte	0xf4
 2201 0fe4 00       		.byte	0
 2202 0fe5 19       		.uleb128 0x19
 2203 0fe6 34       		.byte	0x34
 2204 0fe7 14       		.byte	0x14
 2205 0fe8 5001     		.2byte	0x150
 2206 0fea 83100000 		.4byte	0x1083
 2207 0fee 1F       		.uleb128 0x1f
 2208 0fef 730F0000 		.4byte	0xf73
 2209 0ff3 00       		.byte	0
 2210 0ff4 1F       		.uleb128 0x1f
 2211 0ff5 A10F0000 		.4byte	0xfa1
 2212 0ff9 04       		.byte	0x4
 2213 0ffa 1F       		.uleb128 0x1f
 2214 0ffb C30F0000 		.4byte	0xfc3
 2215 0fff 08       		.byte	0x8
 2216 1000 0E       		.uleb128 0xe
 2217 1001 4C435200 		.ascii	"LCR\000"
 2218 1005 14       		.byte	0x14
 2219 1006 5F01     		.2byte	0x15f
 2220 1008 F4000000 		.4byte	0xf4
 2221 100c 0C       		.byte	0xc
 2222 100d 0F       		.uleb128 0xf
 2223 100e 39030000 		.4byte	.LASF151
ARM GAS  /tmp/ccCyOv1V.s 			page 40


 2224 1012 14       		.byte	0x14
 2225 1013 6001     		.2byte	0x160
 2226 1015 E9000000 		.4byte	0xe9
 2227 1019 10       		.byte	0x10
 2228 101a 0E       		.uleb128 0xe
 2229 101b 4C535200 		.ascii	"LSR\000"
 2230 101f 14       		.byte	0x14
 2231 1020 6101     		.2byte	0x161
 2232 1022 F9000000 		.4byte	0xf9
 2233 1026 14       		.byte	0x14
 2234 1027 0F       		.uleb128 0xf
 2235 1028 43030000 		.4byte	.LASF156
 2236 102c 14       		.byte	0x14
 2237 102d 6201     		.2byte	0x162
 2238 102f E9000000 		.4byte	0xe9
 2239 1033 18       		.byte	0x18
 2240 1034 0E       		.uleb128 0xe
 2241 1035 53435200 		.ascii	"SCR\000"
 2242 1039 14       		.byte	0x14
 2243 103a 6301     		.2byte	0x163
 2244 103c F4000000 		.4byte	0xf4
 2245 1040 1C       		.byte	0x1c
 2246 1041 0E       		.uleb128 0xe
 2247 1042 41435200 		.ascii	"ACR\000"
 2248 1046 14       		.byte	0x14
 2249 1047 6401     		.2byte	0x164
 2250 1049 F4000000 		.4byte	0xf4
 2251 104d 20       		.byte	0x20
 2252 104e 0E       		.uleb128 0xe
 2253 104f 49435200 		.ascii	"ICR\000"
 2254 1053 14       		.byte	0x14
 2255 1054 6501     		.2byte	0x165
 2256 1056 F4000000 		.4byte	0xf4
 2257 105a 24       		.byte	0x24
 2258 105b 0E       		.uleb128 0xe
 2259 105c 46445200 		.ascii	"FDR\000"
 2260 1060 14       		.byte	0x14
 2261 1061 6601     		.2byte	0x166
 2262 1063 F4000000 		.4byte	0xf4
 2263 1067 28       		.byte	0x28
 2264 1068 0F       		.uleb128 0xf
 2265 1069 E3030000 		.4byte	.LASF161
 2266 106d 14       		.byte	0x14
 2267 106e 6701     		.2byte	0x167
 2268 1070 E9000000 		.4byte	0xe9
 2269 1074 2C       		.byte	0x2c
 2270 1075 0E       		.uleb128 0xe
 2271 1076 54455200 		.ascii	"TER\000"
 2272 107a 14       		.byte	0x14
 2273 107b 6801     		.2byte	0x168
 2274 107d F4000000 		.4byte	0xf4
 2275 1081 30       		.byte	0x30
 2276 1082 00       		.byte	0
 2277 1083 10       		.uleb128 0x10
 2278 1084 4F0B0000 		.4byte	.LASF224
 2279 1088 14       		.byte	0x14
 2280 1089 6901     		.2byte	0x169
ARM GAS  /tmp/ccCyOv1V.s 			page 41


 2281 108b E50F0000 		.4byte	0xfe5
 2282 108f 19       		.uleb128 0x19
 2283 1090 28       		.byte	0x28
 2284 1091 14       		.byte	0x14
 2285 1092 9901     		.2byte	0x199
 2286 1094 19110000 		.4byte	0x1119
 2287 1098 0E       		.uleb128 0xe
 2288 1099 43523000 		.ascii	"CR0\000"
 2289 109d 14       		.byte	0x14
 2290 109e 9B01     		.2byte	0x19b
 2291 10a0 F4000000 		.4byte	0xf4
 2292 10a4 00       		.byte	0
 2293 10a5 0E       		.uleb128 0xe
 2294 10a6 43523100 		.ascii	"CR1\000"
 2295 10aa 14       		.byte	0x14
 2296 10ab 9C01     		.2byte	0x19c
 2297 10ad F4000000 		.4byte	0xf4
 2298 10b1 04       		.byte	0x4
 2299 10b2 0E       		.uleb128 0xe
 2300 10b3 445200   		.ascii	"DR\000"
 2301 10b6 14       		.byte	0x14
 2302 10b7 9D01     		.2byte	0x19d
 2303 10b9 F4000000 		.4byte	0xf4
 2304 10bd 08       		.byte	0x8
 2305 10be 0E       		.uleb128 0xe
 2306 10bf 535200   		.ascii	"SR\000"
 2307 10c2 14       		.byte	0x14
 2308 10c3 9E01     		.2byte	0x19e
 2309 10c5 F9000000 		.4byte	0xf9
 2310 10c9 0C       		.byte	0xc
 2311 10ca 0F       		.uleb128 0xf
 2312 10cb C40B0000 		.4byte	.LASF225
 2313 10cf 14       		.byte	0x14
 2314 10d0 9F01     		.2byte	0x19f
 2315 10d2 F4000000 		.4byte	0xf4
 2316 10d6 10       		.byte	0x10
 2317 10d7 0F       		.uleb128 0xf
 2318 10d8 F6020000 		.4byte	.LASF226
 2319 10dc 14       		.byte	0x14
 2320 10dd A001     		.2byte	0x1a0
 2321 10df F4000000 		.4byte	0xf4
 2322 10e3 14       		.byte	0x14
 2323 10e4 0E       		.uleb128 0xe
 2324 10e5 52495300 		.ascii	"RIS\000"
 2325 10e9 14       		.byte	0x14
 2326 10ea A101     		.2byte	0x1a1
 2327 10ec F4000000 		.4byte	0xf4
 2328 10f0 18       		.byte	0x18
 2329 10f1 0E       		.uleb128 0xe
 2330 10f2 4D495300 		.ascii	"MIS\000"
 2331 10f6 14       		.byte	0x14
 2332 10f7 A201     		.2byte	0x1a2
 2333 10f9 F4000000 		.4byte	0xf4
 2334 10fd 1C       		.byte	0x1c
 2335 10fe 0E       		.uleb128 0xe
 2336 10ff 49435200 		.ascii	"ICR\000"
 2337 1103 14       		.byte	0x14
ARM GAS  /tmp/ccCyOv1V.s 			page 42


 2338 1104 A301     		.2byte	0x1a3
 2339 1106 F4000000 		.4byte	0xf4
 2340 110a 20       		.byte	0x20
 2341 110b 0F       		.uleb128 0xf
 2342 110c F7030000 		.4byte	.LASF227
 2343 1110 14       		.byte	0x14
 2344 1111 A401     		.2byte	0x1a4
 2345 1113 F4000000 		.4byte	0xf4
 2346 1117 24       		.byte	0x24
 2347 1118 00       		.byte	0
 2348 1119 10       		.uleb128 0x10
 2349 111a AB020000 		.4byte	.LASF228
 2350 111e 14       		.byte	0x14
 2351 111f A501     		.2byte	0x1a5
 2352 1121 8F100000 		.4byte	0x108f
 2353 1125 19       		.uleb128 0x19
 2354 1126 38       		.byte	0x38
 2355 1127 14       		.byte	0x14
 2356 1128 0E02     		.2byte	0x20e
 2357 112a 88110000 		.4byte	0x1188
 2358 112e 0E       		.uleb128 0xe
 2359 112f 435200   		.ascii	"CR\000"
 2360 1132 14       		.byte	0x14
 2361 1133 1002     		.2byte	0x210
 2362 1135 F4000000 		.4byte	0xf4
 2363 1139 00       		.byte	0
 2364 113a 0E       		.uleb128 0xe
 2365 113b 47445200 		.ascii	"GDR\000"
 2366 113f 14       		.byte	0x14
 2367 1140 1102     		.2byte	0x211
 2368 1142 F4000000 		.4byte	0xf4
 2369 1146 04       		.byte	0x4
 2370 1147 0F       		.uleb128 0xf
 2371 1148 39030000 		.4byte	.LASF151
 2372 114c 14       		.byte	0x14
 2373 114d 1202     		.2byte	0x212
 2374 114f E9000000 		.4byte	0xe9
 2375 1153 08       		.byte	0x8
 2376 1154 0F       		.uleb128 0xf
 2377 1155 AF0C0000 		.4byte	.LASF229
 2378 1159 14       		.byte	0x14
 2379 115a 1302     		.2byte	0x213
 2380 115c F4000000 		.4byte	0xf4
 2381 1160 0C       		.byte	0xc
 2382 1161 0E       		.uleb128 0xe
 2383 1162 445200   		.ascii	"DR\000"
 2384 1165 14       		.byte	0x14
 2385 1166 1402     		.2byte	0x214
 2386 1168 9D110000 		.4byte	0x119d
 2387 116c 10       		.byte	0x10
 2388 116d 0F       		.uleb128 0xf
 2389 116e 56010000 		.4byte	.LASF230
 2390 1172 14       		.byte	0x14
 2391 1173 1502     		.2byte	0x215
 2392 1175 F9000000 		.4byte	0xf9
 2393 1179 30       		.byte	0x30
 2394 117a 0F       		.uleb128 0xf
ARM GAS  /tmp/ccCyOv1V.s 			page 43


 2395 117b 63070000 		.4byte	.LASF231
 2396 117f 14       		.byte	0x14
 2397 1180 1602     		.2byte	0x216
 2398 1182 F4000000 		.4byte	0xf4
 2399 1186 34       		.byte	0x34
 2400 1187 00       		.byte	0
 2401 1188 17       		.uleb128 0x17
 2402 1189 F9000000 		.4byte	0xf9
 2403 118d 98110000 		.4byte	0x1198
 2404 1191 18       		.uleb128 0x18
 2405 1192 A8030000 		.4byte	0x3a8
 2406 1196 07       		.byte	0x7
 2407 1197 00       		.byte	0
 2408 1198 06       		.uleb128 0x6
 2409 1199 88110000 		.4byte	0x1188
 2410 119d 05       		.uleb128 0x5
 2411 119e 98110000 		.4byte	0x1198
 2412 11a2 10       		.uleb128 0x10
 2413 11a3 2B010000 		.4byte	.LASF232
 2414 11a7 14       		.byte	0x14
 2415 11a8 1702     		.2byte	0x217
 2416 11aa 25110000 		.4byte	0x1125
 2417 11ae 19       		.uleb128 0x19
 2418 11af 60       		.byte	0x60
 2419 11b0 14       		.byte	0x14
 2420 11b1 8302     		.2byte	0x283
 2421 11b3 EF120000 		.4byte	0x12ef
 2422 11b7 0E       		.uleb128 0xe
 2423 11b8 4D4F4400 		.ascii	"MOD\000"
 2424 11bc 14       		.byte	0x14
 2425 11bd 8502     		.2byte	0x285
 2426 11bf F4000000 		.4byte	0xf4
 2427 11c3 00       		.byte	0
 2428 11c4 0E       		.uleb128 0xe
 2429 11c5 434D5200 		.ascii	"CMR\000"
 2430 11c9 14       		.byte	0x14
 2431 11ca 8602     		.2byte	0x286
 2432 11cc F4000000 		.4byte	0xf4
 2433 11d0 04       		.byte	0x4
 2434 11d1 0E       		.uleb128 0xe
 2435 11d2 47535200 		.ascii	"GSR\000"
 2436 11d6 14       		.byte	0x14
 2437 11d7 8702     		.2byte	0x287
 2438 11d9 F4000000 		.4byte	0xf4
 2439 11dd 08       		.byte	0x8
 2440 11de 0E       		.uleb128 0xe
 2441 11df 49435200 		.ascii	"ICR\000"
 2442 11e3 14       		.byte	0x14
 2443 11e4 8802     		.2byte	0x288
 2444 11e6 F9000000 		.4byte	0xf9
 2445 11ea 0C       		.byte	0xc
 2446 11eb 0E       		.uleb128 0xe
 2447 11ec 49455200 		.ascii	"IER\000"
 2448 11f0 14       		.byte	0x14
 2449 11f1 8902     		.2byte	0x289
 2450 11f3 F4000000 		.4byte	0xf4
 2451 11f7 10       		.byte	0x10
ARM GAS  /tmp/ccCyOv1V.s 			page 44


 2452 11f8 0E       		.uleb128 0xe
 2453 11f9 42545200 		.ascii	"BTR\000"
 2454 11fd 14       		.byte	0x14
 2455 11fe 8A02     		.2byte	0x28a
 2456 1200 F4000000 		.4byte	0xf4
 2457 1204 14       		.byte	0x14
 2458 1205 0E       		.uleb128 0xe
 2459 1206 45574C00 		.ascii	"EWL\000"
 2460 120a 14       		.byte	0x14
 2461 120b 8B02     		.2byte	0x28b
 2462 120d F4000000 		.4byte	0xf4
 2463 1211 18       		.byte	0x18
 2464 1212 0E       		.uleb128 0xe
 2465 1213 535200   		.ascii	"SR\000"
 2466 1216 14       		.byte	0x14
 2467 1217 8C02     		.2byte	0x28c
 2468 1219 F9000000 		.4byte	0xf9
 2469 121d 1C       		.byte	0x1c
 2470 121e 0E       		.uleb128 0xe
 2471 121f 52465300 		.ascii	"RFS\000"
 2472 1223 14       		.byte	0x14
 2473 1224 8D02     		.2byte	0x28d
 2474 1226 F4000000 		.4byte	0xf4
 2475 122a 20       		.byte	0x20
 2476 122b 0E       		.uleb128 0xe
 2477 122c 52494400 		.ascii	"RID\000"
 2478 1230 14       		.byte	0x14
 2479 1231 8E02     		.2byte	0x28e
 2480 1233 F4000000 		.4byte	0xf4
 2481 1237 24       		.byte	0x24
 2482 1238 0E       		.uleb128 0xe
 2483 1239 52444100 		.ascii	"RDA\000"
 2484 123d 14       		.byte	0x14
 2485 123e 8F02     		.2byte	0x28f
 2486 1240 F4000000 		.4byte	0xf4
 2487 1244 28       		.byte	0x28
 2488 1245 0E       		.uleb128 0xe
 2489 1246 52444200 		.ascii	"RDB\000"
 2490 124a 14       		.byte	0x14
 2491 124b 9002     		.2byte	0x290
 2492 124d F4000000 		.4byte	0xf4
 2493 1251 2C       		.byte	0x2c
 2494 1252 0F       		.uleb128 0xf
 2495 1253 AA0C0000 		.4byte	.LASF233
 2496 1257 14       		.byte	0x14
 2497 1258 9102     		.2byte	0x291
 2498 125a F4000000 		.4byte	0xf4
 2499 125e 30       		.byte	0x30
 2500 125f 0F       		.uleb128 0xf
 2501 1260 7D060000 		.4byte	.LASF234
 2502 1264 14       		.byte	0x14
 2503 1265 9202     		.2byte	0x292
 2504 1267 F4000000 		.4byte	0xf4
 2505 126b 34       		.byte	0x34
 2506 126c 0F       		.uleb128 0xf
 2507 126d E1040000 		.4byte	.LASF235
 2508 1271 14       		.byte	0x14
ARM GAS  /tmp/ccCyOv1V.s 			page 45


 2509 1272 9302     		.2byte	0x293
 2510 1274 F4000000 		.4byte	0xf4
 2511 1278 38       		.byte	0x38
 2512 1279 0F       		.uleb128 0xf
 2513 127a 11050000 		.4byte	.LASF236
 2514 127e 14       		.byte	0x14
 2515 127f 9402     		.2byte	0x294
 2516 1281 F4000000 		.4byte	0xf4
 2517 1285 3C       		.byte	0x3c
 2518 1286 0F       		.uleb128 0xf
 2519 1287 26000000 		.4byte	.LASF237
 2520 128b 14       		.byte	0x14
 2521 128c 9502     		.2byte	0x295
 2522 128e F4000000 		.4byte	0xf4
 2523 1292 40       		.byte	0x40
 2524 1293 0F       		.uleb128 0xf
 2525 1294 82060000 		.4byte	.LASF238
 2526 1298 14       		.byte	0x14
 2527 1299 9602     		.2byte	0x296
 2528 129b F4000000 		.4byte	0xf4
 2529 129f 44       		.byte	0x44
 2530 12a0 0F       		.uleb128 0xf
 2531 12a1 E6040000 		.4byte	.LASF239
 2532 12a5 14       		.byte	0x14
 2533 12a6 9702     		.2byte	0x297
 2534 12a8 F4000000 		.4byte	0xf4
 2535 12ac 48       		.byte	0x48
 2536 12ad 0F       		.uleb128 0xf
 2537 12ae 16050000 		.4byte	.LASF240
 2538 12b2 14       		.byte	0x14
 2539 12b3 9802     		.2byte	0x298
 2540 12b5 F4000000 		.4byte	0xf4
 2541 12b9 4C       		.byte	0x4c
 2542 12ba 0F       		.uleb128 0xf
 2543 12bb 2B000000 		.4byte	.LASF241
 2544 12bf 14       		.byte	0x14
 2545 12c0 9902     		.2byte	0x299
 2546 12c2 F4000000 		.4byte	0xf4
 2547 12c6 50       		.byte	0x50
 2548 12c7 0F       		.uleb128 0xf
 2549 12c8 87060000 		.4byte	.LASF242
 2550 12cc 14       		.byte	0x14
 2551 12cd 9A02     		.2byte	0x29a
 2552 12cf F4000000 		.4byte	0xf4
 2553 12d3 54       		.byte	0x54
 2554 12d4 0F       		.uleb128 0xf
 2555 12d5 EB040000 		.4byte	.LASF243
 2556 12d9 14       		.byte	0x14
 2557 12da 9B02     		.2byte	0x29b
 2558 12dc F4000000 		.4byte	0xf4
 2559 12e0 58       		.byte	0x58
 2560 12e1 0F       		.uleb128 0xf
 2561 12e2 1B050000 		.4byte	.LASF244
 2562 12e6 14       		.byte	0x14
 2563 12e7 9C02     		.2byte	0x29c
 2564 12e9 F4000000 		.4byte	0xf4
 2565 12ed 5C       		.byte	0x5c
ARM GAS  /tmp/ccCyOv1V.s 			page 46


 2566 12ee 00       		.byte	0
 2567 12ef 10       		.uleb128 0x10
 2568 12f0 B9040000 		.4byte	.LASF245
 2569 12f4 14       		.byte	0x14
 2570 12f5 9D02     		.2byte	0x29d
 2571 12f7 AE110000 		.4byte	0x11ae
 2572 12fb 19       		.uleb128 0x19
 2573 12fc 14       		.byte	0x14
 2574 12fd 14       		.byte	0x14
 2575 12fe B402     		.2byte	0x2b4
 2576 1300 46130000 		.4byte	0x1346
 2577 1304 0F       		.uleb128 0xf
 2578 1305 FB010000 		.4byte	.LASF246
 2579 1309 14       		.byte	0x14
 2580 130a B602     		.2byte	0x2b6
 2581 130c F4000000 		.4byte	0xf4
 2582 1310 00       		.byte	0
 2583 1311 0F       		.uleb128 0xf
 2584 1312 C3010000 		.4byte	.LASF247
 2585 1316 14       		.byte	0x14
 2586 1317 B702     		.2byte	0x2b7
 2587 1319 F4000000 		.4byte	0xf4
 2588 131d 04       		.byte	0x4
 2589 131e 0F       		.uleb128 0xf
 2590 131f 6D0B0000 		.4byte	.LASF248
 2591 1323 14       		.byte	0x14
 2592 1324 B802     		.2byte	0x2b8
 2593 1326 F4000000 		.4byte	0xf4
 2594 132a 08       		.byte	0x8
 2595 132b 0F       		.uleb128 0xf
 2596 132c 15060000 		.4byte	.LASF249
 2597 1330 14       		.byte	0x14
 2598 1331 B902     		.2byte	0x2b9
 2599 1333 F4000000 		.4byte	0xf4
 2600 1337 0C       		.byte	0xc
 2601 1338 0F       		.uleb128 0xf
 2602 1339 830C0000 		.4byte	.LASF250
 2603 133d 14       		.byte	0x14
 2604 133e BA02     		.2byte	0x2ba
 2605 1340 F4000000 		.4byte	0xf4
 2606 1344 10       		.byte	0x10
 2607 1345 00       		.byte	0
 2608 1346 10       		.uleb128 0x10
 2609 1347 D8000000 		.4byte	.LASF251
 2610 134b 14       		.byte	0x14
 2611 134c BB02     		.2byte	0x2bb
 2612 134e FB120000 		.4byte	0x12fb
 2613 1352 17       		.uleb128 0x17
 2614 1353 5D130000 		.4byte	0x135d
 2615 1357 5D130000 		.4byte	0x135d
 2616 135b 22       		.uleb128 0x22
 2617 135c 00       		.byte	0
 2618 135d 0B       		.uleb128 0xb
 2619 135e 04       		.byte	0x4
 2620 135f 46130000 		.4byte	0x1346
 2621 1363 1A       		.uleb128 0x1a
 2622 1364 47060000 		.4byte	.LASF252
ARM GAS  /tmp/ccCyOv1V.s 			page 47


 2623 1368 15       		.byte	0x15
 2624 1369 9501     		.2byte	0x195
 2625 136b 52130000 		.4byte	0x1352
 2626 136f 16       		.uleb128 0x16
 2627 1370 52010000 		.4byte	0x152
 2628 1374 88130000 		.4byte	0x1388
 2629 1378 12       		.uleb128 0x12
 2630 1379 F3020000 		.4byte	0x2f3
 2631 137d 12       		.uleb128 0x12
 2632 137e B4000000 		.4byte	0xb4
 2633 1382 12       		.uleb128 0x12
 2634 1383 73010000 		.4byte	0x173
 2635 1387 00       		.byte	0
 2636 1388 0B       		.uleb128 0xb
 2637 1389 04       		.byte	0x4
 2638 138a 6F130000 		.4byte	0x136f
 2639 138e 16       		.uleb128 0x16
 2640 138f 52010000 		.4byte	0x152
 2641 1393 A2130000 		.4byte	0x13a2
 2642 1397 12       		.uleb128 0x12
 2643 1398 F3020000 		.4byte	0x2f3
 2644 139c 12       		.uleb128 0x12
 2645 139d 73010000 		.4byte	0x173
 2646 13a1 00       		.byte	0
 2647 13a2 0B       		.uleb128 0xb
 2648 13a3 04       		.byte	0x4
 2649 13a4 8E130000 		.4byte	0x138e
 2650 13a8 16       		.uleb128 0x16
 2651 13a9 2C000000 		.4byte	0x2c
 2652 13ad C6130000 		.4byte	0x13c6
 2653 13b1 12       		.uleb128 0x12
 2654 13b2 F3020000 		.4byte	0x2f3
 2655 13b6 12       		.uleb128 0x12
 2656 13b7 BD080000 		.4byte	0x8bd
 2657 13bb 12       		.uleb128 0x12
 2658 13bc 2C000000 		.4byte	0x2c
 2659 13c0 12       		.uleb128 0x12
 2660 13c1 73010000 		.4byte	0x173
 2661 13c5 00       		.byte	0
 2662 13c6 0B       		.uleb128 0xb
 2663 13c7 04       		.byte	0x4
 2664 13c8 A8130000 		.4byte	0x13a8
 2665 13cc 16       		.uleb128 0x16
 2666 13cd 2C000000 		.4byte	0x2c
 2667 13d1 EA130000 		.4byte	0x13ea
 2668 13d5 12       		.uleb128 0x12
 2669 13d6 F3020000 		.4byte	0x2f3
 2670 13da 12       		.uleb128 0x12
 2671 13db 88080000 		.4byte	0x888
 2672 13df 12       		.uleb128 0x12
 2673 13e0 2C000000 		.4byte	0x2c
 2674 13e4 12       		.uleb128 0x12
 2675 13e5 73010000 		.4byte	0x173
 2676 13e9 00       		.byte	0
 2677 13ea 0B       		.uleb128 0xb
 2678 13eb 04       		.byte	0x4
 2679 13ec CC130000 		.4byte	0x13cc
ARM GAS  /tmp/ccCyOv1V.s 			page 48


 2680 13f0 0A       		.uleb128 0xa
 2681 13f1 08       		.byte	0x8
 2682 13f2 16       		.byte	0x16
 2683 13f3 2E       		.byte	0x2e
 2684 13f4 11140000 		.4byte	0x1411
 2685 13f8 08       		.uleb128 0x8
 2686 13f9 E10D0000 		.4byte	.LASF253
 2687 13fd 16       		.byte	0x16
 2688 13fe 30       		.byte	0x30
 2689 13ff E9000000 		.4byte	0xe9
 2690 1403 00       		.byte	0
 2691 1404 09       		.uleb128 0x9
 2692 1405 64697200 		.ascii	"dir\000"
 2693 1409 16       		.byte	0x16
 2694 140a 32       		.byte	0x32
 2695 140b E9000000 		.4byte	0xe9
 2696 140f 04       		.byte	0x4
 2697 1410 00       		.byte	0
 2698 1411 03       		.uleb128 0x3
 2699 1412 350C0000 		.4byte	.LASF254
 2700 1416 16       		.byte	0x16
 2701 1417 33       		.byte	0x33
 2702 1418 F0130000 		.4byte	0x13f0
 2703 141c 0A       		.uleb128 0xa
 2704 141d 28       		.byte	0x28
 2705 141e 16       		.byte	0x16
 2706 141f 41       		.byte	0x41
 2707 1420 5C140000 		.4byte	0x145c
 2708 1424 09       		.uleb128 0x9
 2709 1425 503000   		.ascii	"P0\000"
 2710 1428 16       		.byte	0x16
 2711 1429 43       		.byte	0x43
 2712 142a 11140000 		.4byte	0x1411
 2713 142e 00       		.byte	0
 2714 142f 09       		.uleb128 0x9
 2715 1430 503100   		.ascii	"P1\000"
 2716 1433 16       		.byte	0x16
 2717 1434 45       		.byte	0x45
 2718 1435 11140000 		.4byte	0x1411
 2719 1439 08       		.byte	0x8
 2720 143a 09       		.uleb128 0x9
 2721 143b 503200   		.ascii	"P2\000"
 2722 143e 16       		.byte	0x16
 2723 143f 47       		.byte	0x47
 2724 1440 11140000 		.4byte	0x1411
 2725 1444 10       		.byte	0x10
 2726 1445 09       		.uleb128 0x9
 2727 1446 503300   		.ascii	"P3\000"
 2728 1449 16       		.byte	0x16
 2729 144a 49       		.byte	0x49
 2730 144b 11140000 		.4byte	0x1411
 2731 144f 18       		.byte	0x18
 2732 1450 09       		.uleb128 0x9
 2733 1451 503400   		.ascii	"P4\000"
 2734 1454 16       		.byte	0x16
 2735 1455 4B       		.byte	0x4b
 2736 1456 11140000 		.4byte	0x1411
ARM GAS  /tmp/ccCyOv1V.s 			page 49


 2737 145a 20       		.byte	0x20
 2738 145b 00       		.byte	0
 2739 145c 03       		.uleb128 0x3
 2740 145d 5E0C0000 		.4byte	.LASF255
 2741 1461 16       		.byte	0x16
 2742 1462 4C       		.byte	0x4c
 2743 1463 1C140000 		.4byte	0x141c
 2744 1467 06       		.uleb128 0x6
 2745 1468 5C140000 		.4byte	0x145c
 2746 146c 03       		.uleb128 0x3
 2747 146d 6D020000 		.4byte	.LASF256
 2748 1471 16       		.byte	0x16
 2749 1472 66       		.byte	0x66
 2750 1473 77140000 		.4byte	0x1477
 2751 1477 0B       		.uleb128 0xb
 2752 1478 04       		.byte	0x4
 2753 1479 780E0000 		.4byte	0xe78
 2754 147d 1A       		.uleb128 0x1a
 2755 147e BB020000 		.4byte	.LASF257
 2756 1482 16       		.byte	0x16
 2757 1483 3301     		.2byte	0x133
 2758 1485 67140000 		.4byte	0x1467
 2759 1489 23       		.uleb128 0x23
 2760 148a 01       		.byte	0x1
 2761 148b 5E000000 		.4byte	0x5e
 2762 148f 17       		.byte	0x17
 2763 1490 4E       		.byte	0x4e
 2764 1491 BA140000 		.4byte	0x14ba
 2765 1495 24       		.uleb128 0x24
 2766 1496 410D0000 		.4byte	.LASF258
 2767 149a 00       		.byte	0
 2768 149b 24       		.uleb128 0x24
 2769 149c BB0B0000 		.4byte	.LASF259
 2770 14a0 01       		.byte	0x1
 2771 14a1 24       		.uleb128 0x24
 2772 14a2 CA030000 		.4byte	.LASF260
 2773 14a6 02       		.byte	0x2
 2774 14a7 24       		.uleb128 0x24
 2775 14a8 630A0000 		.4byte	.LASF261
 2776 14ac 03       		.byte	0x3
 2777 14ad 24       		.uleb128 0x24
 2778 14ae A5060000 		.4byte	.LASF262
 2779 14b2 04       		.byte	0x4
 2780 14b3 24       		.uleb128 0x24
 2781 14b4 49040000 		.4byte	.LASF263
 2782 14b8 05       		.byte	0x5
 2783 14b9 00       		.byte	0
 2784 14ba 03       		.uleb128 0x3
 2785 14bb 94000000 		.4byte	.LASF264
 2786 14bf 17       		.byte	0x17
 2787 14c0 55       		.byte	0x55
 2788 14c1 89140000 		.4byte	0x1489
 2789 14c5 03       		.uleb128 0x3
 2790 14c6 C30C0000 		.4byte	.LASF265
 2791 14ca 18       		.byte	0x18
 2792 14cb A7       		.byte	0xa7
 2793 14cc E9000000 		.4byte	0xe9
ARM GAS  /tmp/ccCyOv1V.s 			page 50


 2794 14d0 03       		.uleb128 0x3
 2795 14d1 70080000 		.4byte	.LASF266
 2796 14d5 18       		.byte	0x18
 2797 14d6 AC       		.byte	0xac
 2798 14d7 C9000000 		.4byte	0xc9
 2799 14db 23       		.uleb128 0x23
 2800 14dc 01       		.byte	0x1
 2801 14dd 5E000000 		.4byte	0x5e
 2802 14e1 18       		.byte	0x18
 2803 14e2 B3       		.byte	0xb3
 2804 14e3 EE140000 		.4byte	0x14ee
 2805 14e7 24       		.uleb128 0x24
 2806 14e8 B2060000 		.4byte	.LASF267
 2807 14ec 01       		.byte	0x1
 2808 14ed 00       		.byte	0
 2809 14ee 03       		.uleb128 0x3
 2810 14ef A4030000 		.4byte	.LASF268
 2811 14f3 18       		.byte	0x18
 2812 14f4 B5       		.byte	0xb5
 2813 14f5 DB140000 		.4byte	0x14db
 2814 14f9 03       		.uleb128 0x3
 2815 14fa 450B0000 		.4byte	.LASF269
 2816 14fe 18       		.byte	0x18
 2817 14ff BA       		.byte	0xba
 2818 1500 04150000 		.4byte	0x1504
 2819 1504 0D       		.uleb128 0xd
 2820 1505 450B0000 		.4byte	.LASF269
 2821 1509 34       		.byte	0x34
 2822 150a 18       		.byte	0x18
 2823 150b 0101     		.2byte	0x101
 2824 150d 94150000 		.4byte	0x1594
 2825 1511 0F       		.uleb128 0xf
 2826 1512 1F010000 		.4byte	.LASF270
 2827 1516 18       		.byte	0x18
 2828 1517 0501     		.2byte	0x105
 2829 1519 BA140000 		.4byte	0x14ba
 2830 151d 00       		.byte	0
 2831 151e 0F       		.uleb128 0xf
 2832 151f 18010000 		.4byte	.LASF271
 2833 1523 18       		.byte	0x18
 2834 1524 0901     		.2byte	0x109
 2835 1526 6D160000 		.4byte	0x166d
 2836 152a 04       		.byte	0x4
 2837 152b 0F       		.uleb128 0xf
 2838 152c D3040000 		.4byte	.LASF272
 2839 1530 18       		.byte	0x18
 2840 1531 0D01     		.2byte	0x10d
 2841 1533 C0150000 		.4byte	0x15c0
 2842 1537 08       		.byte	0x8
 2843 1538 0F       		.uleb128 0xf
 2844 1539 9B070000 		.4byte	.LASF273
 2845 153d 18       		.byte	0x18
 2846 153e 1101     		.2byte	0x111
 2847 1540 2C000000 		.4byte	0x2c
 2848 1544 0C       		.byte	0xc
 2849 1545 0F       		.uleb128 0xf
 2850 1546 EB0B0000 		.4byte	.LASF274
ARM GAS  /tmp/ccCyOv1V.s 			page 51


 2851 154a 18       		.byte	0x18
 2852 154b 1501     		.2byte	0x115
 2853 154d 73160000 		.4byte	0x1673
 2854 1551 10       		.byte	0x10
 2855 1552 0F       		.uleb128 0xf
 2856 1553 F80B0000 		.4byte	.LASF275
 2857 1557 18       		.byte	0x18
 2858 1558 1A01     		.2byte	0x11a
 2859 155a B7020000 		.4byte	0x2b7
 2860 155e 14       		.byte	0x14
 2861 155f 0F       		.uleb128 0xf
 2862 1560 A1070000 		.4byte	.LASF276
 2863 1564 18       		.byte	0x18
 2864 1565 2101     		.2byte	0x121
 2865 1567 03060000 		.4byte	0x603
 2866 156b 18       		.byte	0x18
 2867 156c 0E       		.uleb128 0xe
 2868 156d 61646300 		.ascii	"adc\000"
 2869 1571 18       		.byte	0x18
 2870 1572 2D01     		.2byte	0x12d
 2871 1574 79160000 		.4byte	0x1679
 2872 1578 28       		.byte	0x28
 2873 1579 0F       		.uleb128 0xf
 2874 157a 8B010000 		.4byte	.LASF277
 2875 157e 18       		.byte	0x18
 2876 157f 3101     		.2byte	0x131
 2877 1581 E9000000 		.4byte	0xe9
 2878 1585 2C       		.byte	0x2c
 2879 1586 0E       		.uleb128 0xe
 2880 1587 6E756D00 		.ascii	"num\000"
 2881 158b 18       		.byte	0x18
 2882 158c 3501     		.2byte	0x135
 2883 158e E9000000 		.4byte	0xe9
 2884 1592 30       		.byte	0x30
 2885 1593 00       		.byte	0
 2886 1594 03       		.uleb128 0x3
 2887 1595 5B000000 		.4byte	.LASF278
 2888 1599 18       		.byte	0x18
 2889 159a C4       		.byte	0xc4
 2890 159b 9F150000 		.4byte	0x159f
 2891 159f 0B       		.uleb128 0xb
 2892 15a0 04       		.byte	0x4
 2893 15a1 A5150000 		.4byte	0x15a5
 2894 15a5 11       		.uleb128 0x11
 2895 15a6 BA150000 		.4byte	0x15ba
 2896 15aa 12       		.uleb128 0x12
 2897 15ab BA150000 		.4byte	0x15ba
 2898 15af 12       		.uleb128 0x12
 2899 15b0 C0150000 		.4byte	0x15c0
 2900 15b4 12       		.uleb128 0x12
 2901 15b5 2C000000 		.4byte	0x2c
 2902 15b9 00       		.byte	0
 2903 15ba 0B       		.uleb128 0xb
 2904 15bb 04       		.byte	0x4
 2905 15bc F9140000 		.4byte	0x14f9
 2906 15c0 0B       		.uleb128 0xb
 2907 15c1 04       		.byte	0x4
ARM GAS  /tmp/ccCyOv1V.s 			page 52


 2908 15c2 C5140000 		.4byte	0x14c5
 2909 15c6 03       		.uleb128 0x3
 2910 15c7 88070000 		.4byte	.LASF279
 2911 15cb 18       		.byte	0x18
 2912 15cc CD       		.byte	0xcd
 2913 15cd D1150000 		.4byte	0x15d1
 2914 15d1 0B       		.uleb128 0xb
 2915 15d2 04       		.byte	0x4
 2916 15d3 D7150000 		.4byte	0x15d7
 2917 15d7 11       		.uleb128 0x11
 2918 15d8 E7150000 		.4byte	0x15e7
 2919 15dc 12       		.uleb128 0x12
 2920 15dd BA150000 		.4byte	0x15ba
 2921 15e1 12       		.uleb128 0x12
 2922 15e2 EE140000 		.4byte	0x14ee
 2923 15e6 00       		.byte	0
 2924 15e7 0A       		.uleb128 0xa
 2925 15e8 14       		.byte	0x14
 2926 15e9 18       		.byte	0x18
 2927 15ea D7       		.byte	0xd7
 2928 15eb 38160000 		.4byte	0x1638
 2929 15ef 08       		.uleb128 0x8
 2930 15f0 94040000 		.4byte	.LASF280
 2931 15f4 18       		.byte	0x18
 2932 15f5 DB       		.byte	0xdb
 2933 15f6 09010000 		.4byte	0x109
 2934 15fa 00       		.byte	0
 2935 15fb 08       		.uleb128 0x8
 2936 15fc 32060000 		.4byte	.LASF281
 2937 1600 18       		.byte	0x18
 2938 1601 DF       		.byte	0xdf
 2939 1602 D0140000 		.4byte	0x14d0
 2940 1606 02       		.byte	0x2
 2941 1607 08       		.uleb128 0x8
 2942 1608 A3010000 		.4byte	.LASF282
 2943 160c 18       		.byte	0x18
 2944 160d E3       		.byte	0xe3
 2945 160e 94150000 		.4byte	0x1594
 2946 1612 04       		.byte	0x4
 2947 1613 08       		.uleb128 0x8
 2948 1614 6F010000 		.4byte	.LASF283
 2949 1618 18       		.byte	0x18
 2950 1619 E7       		.byte	0xe7
 2951 161a C6150000 		.4byte	0x15c6
 2952 161e 08       		.byte	0x8
 2953 161f 09       		.uleb128 0x9
 2954 1620 63723000 		.ascii	"cr0\000"
 2955 1624 18       		.byte	0x18
 2956 1625 ED       		.byte	0xed
 2957 1626 E9000000 		.4byte	0xe9
 2958 162a 0C       		.byte	0xc
 2959 162b 08       		.uleb128 0x8
 2960 162c B5090000 		.4byte	.LASF284
 2961 1630 18       		.byte	0x18
 2962 1631 F3       		.byte	0xf3
 2963 1632 E9000000 		.4byte	0xe9
 2964 1636 10       		.byte	0x10
ARM GAS  /tmp/ccCyOv1V.s 			page 53


 2965 1637 00       		.byte	0
 2966 1638 03       		.uleb128 0x3
 2967 1639 92060000 		.4byte	.LASF285
 2968 163d 18       		.byte	0x18
 2969 163e F4       		.byte	0xf4
 2970 163f E7150000 		.4byte	0x15e7
 2971 1643 06       		.uleb128 0x6
 2972 1644 38160000 		.4byte	0x1638
 2973 1648 0A       		.uleb128 0xa
 2974 1649 04       		.byte	0x4
 2975 164a 18       		.byte	0x18
 2976 164b FA       		.byte	0xfa
 2977 164c 5D160000 		.4byte	0x165d
 2978 1650 08       		.uleb128 0x8
 2979 1651 B50B0000 		.4byte	.LASF286
 2980 1655 18       		.byte	0x18
 2981 1656 FB       		.byte	0xfb
 2982 1657 E9000000 		.4byte	0xe9
 2983 165b 00       		.byte	0
 2984 165c 00       		.byte	0
 2985 165d 03       		.uleb128 0x3
 2986 165e 0D0E0000 		.4byte	.LASF287
 2987 1662 18       		.byte	0x18
 2988 1663 FC       		.byte	0xfc
 2989 1664 48160000 		.4byte	0x1648
 2990 1668 06       		.uleb128 0x6
 2991 1669 5D160000 		.4byte	0x165d
 2992 166d 0B       		.uleb128 0xb
 2993 166e 04       		.byte	0x4
 2994 166f 68160000 		.4byte	0x1668
 2995 1673 0B       		.uleb128 0xb
 2996 1674 04       		.byte	0x4
 2997 1675 43160000 		.4byte	0x1643
 2998 1679 0B       		.uleb128 0xb
 2999 167a 04       		.byte	0x4
 3000 167b A2110000 		.4byte	0x11a2
 3001 167f 1A       		.uleb128 0x1a
 3002 1680 9B090000 		.4byte	.LASF288
 3003 1684 18       		.byte	0x18
 3004 1685 4801     		.2byte	0x148
 3005 1687 F9140000 		.4byte	0x14f9
 3006 168b 23       		.uleb128 0x23
 3007 168c 01       		.byte	0x1
 3008 168d 5E000000 		.4byte	0x5e
 3009 1691 19       		.byte	0x19
 3010 1692 67       		.byte	0x67
 3011 1693 B6160000 		.4byte	0x16b6
 3012 1697 24       		.uleb128 0x24
 3013 1698 C4070000 		.4byte	.LASF289
 3014 169c 00       		.byte	0
 3015 169d 24       		.uleb128 0x24
 3016 169e C90D0000 		.4byte	.LASF290
 3017 16a2 01       		.byte	0x1
 3018 16a3 24       		.uleb128 0x24
 3019 16a4 39070000 		.4byte	.LASF291
 3020 16a8 02       		.byte	0x2
 3021 16a9 24       		.uleb128 0x24
ARM GAS  /tmp/ccCyOv1V.s 			page 54


 3022 16aa C9040000 		.4byte	.LASF292
 3023 16ae 03       		.byte	0x3
 3024 16af 24       		.uleb128 0x24
 3025 16b0 81010000 		.4byte	.LASF293
 3026 16b4 04       		.byte	0x4
 3027 16b5 00       		.byte	0
 3028 16b6 03       		.uleb128 0x3
 3029 16b7 2E050000 		.4byte	.LASF294
 3030 16bb 19       		.byte	0x19
 3031 16bc 6D       		.byte	0x6d
 3032 16bd 8B160000 		.4byte	0x168b
 3033 16c1 19       		.uleb128 0x19
 3034 16c2 08       		.byte	0x8
 3035 16c3 1A       		.byte	0x1a
 3036 16c4 0802     		.2byte	0x208
 3037 16c6 E5160000 		.4byte	0x16e5
 3038 16ca 0E       		.uleb128 0xe
 3039 16cb 6D6F6400 		.ascii	"mod\000"
 3040 16cf 1A       		.byte	0x1a
 3041 16d0 0E02     		.2byte	0x20e
 3042 16d2 E9000000 		.4byte	0xe9
 3043 16d6 00       		.byte	0
 3044 16d7 0E       		.uleb128 0xe
 3045 16d8 62747200 		.ascii	"btr\000"
 3046 16dc 1A       		.byte	0x1a
 3047 16dd 1402     		.2byte	0x214
 3048 16df E9000000 		.4byte	0xe9
 3049 16e3 04       		.byte	0x4
 3050 16e4 00       		.byte	0
 3051 16e5 10       		.uleb128 0x10
 3052 16e6 40010000 		.4byte	.LASF295
 3053 16ea 1A       		.byte	0x1a
 3054 16eb 1502     		.2byte	0x215
 3055 16ed C1160000 		.4byte	0x16c1
 3056 16f1 06       		.uleb128 0x6
 3057 16f2 E5160000 		.4byte	0x16e5
 3058 16f6 19       		.uleb128 0x19
 3059 16f7 38       		.byte	0x38
 3060 16f8 1A       		.byte	0x1a
 3061 16f9 1A02     		.2byte	0x21a
 3062 16fb 82170000 		.4byte	0x1782
 3063 16ff 0F       		.uleb128 0xf
 3064 1700 1F010000 		.4byte	.LASF270
 3065 1704 1A       		.byte	0x1a
 3066 1705 1E02     		.2byte	0x21e
 3067 1707 B6160000 		.4byte	0x16b6
 3068 170b 00       		.byte	0
 3069 170c 0F       		.uleb128 0xf
 3070 170d 18010000 		.4byte	.LASF271
 3071 1711 1A       		.byte	0x1a
 3072 1712 2202     		.2byte	0x222
 3073 1714 82170000 		.4byte	0x1782
 3074 1718 04       		.byte	0x4
 3075 1719 0F       		.uleb128 0xf
 3076 171a 25010000 		.4byte	.LASF296
 3077 171e 1A       		.byte	0x1a
 3078 171f 2602     		.2byte	0x226
ARM GAS  /tmp/ccCyOv1V.s 			page 55


 3079 1721 C1050000 		.4byte	0x5c1
 3080 1725 08       		.byte	0x8
 3081 1726 0F       		.uleb128 0xf
 3082 1727 20050000 		.4byte	.LASF297
 3083 172b 1A       		.byte	0x1a
 3084 172c 2A02     		.2byte	0x22a
 3085 172e C1050000 		.4byte	0x5c1
 3086 1732 14       		.byte	0x14
 3087 1733 0F       		.uleb128 0xf
 3088 1734 2C030000 		.4byte	.LASF298
 3089 1738 1A       		.byte	0x1a
 3090 1739 3702     		.2byte	0x237
 3091 173b 75060000 		.4byte	0x675
 3092 173f 20       		.byte	0x20
 3093 1740 0F       		.uleb128 0xf
 3094 1741 DD0B0000 		.4byte	.LASF299
 3095 1745 1A       		.byte	0x1a
 3096 1746 3E02     		.2byte	0x23e
 3097 1748 75060000 		.4byte	0x675
 3098 174c 24       		.byte	0x24
 3099 174d 0F       		.uleb128 0xf
 3100 174e C5090000 		.4byte	.LASF300
 3101 1752 1A       		.byte	0x1a
 3102 1753 4402     		.2byte	0x244
 3103 1755 75060000 		.4byte	0x675
 3104 1759 28       		.byte	0x28
 3105 175a 0F       		.uleb128 0xf
 3106 175b BB000000 		.4byte	.LASF301
 3107 175f 1A       		.byte	0x1a
 3108 1760 4902     		.2byte	0x249
 3109 1762 75060000 		.4byte	0x675
 3110 1766 2C       		.byte	0x2c
 3111 1767 0F       		.uleb128 0xf
 3112 1768 F2000000 		.4byte	.LASF302
 3113 176c 1A       		.byte	0x1a
 3114 176d 4D02     		.2byte	0x24d
 3115 176f 75060000 		.4byte	0x675
 3116 1773 30       		.byte	0x30
 3117 1774 0E       		.uleb128 0xe
 3118 1775 63616E00 		.ascii	"can\000"
 3119 1779 1A       		.byte	0x1a
 3120 177a 5302     		.2byte	0x253
 3121 177c 88170000 		.4byte	0x1788
 3122 1780 34       		.byte	0x34
 3123 1781 00       		.byte	0
 3124 1782 0B       		.uleb128 0xb
 3125 1783 04       		.byte	0x4
 3126 1784 F1160000 		.4byte	0x16f1
 3127 1788 0B       		.uleb128 0xb
 3128 1789 04       		.byte	0x4
 3129 178a EF120000 		.4byte	0x12ef
 3130 178e 10       		.uleb128 0x10
 3131 178f D4010000 		.4byte	.LASF303
 3132 1793 1A       		.byte	0x1a
 3133 1794 5402     		.2byte	0x254
 3134 1796 F6160000 		.4byte	0x16f6
 3135 179a 1A       		.uleb128 0x1a
ARM GAS  /tmp/ccCyOv1V.s 			page 56


 3136 179b 7A0B0000 		.4byte	.LASF304
 3137 179f 1A       		.byte	0x1a
 3138 17a0 5F02     		.2byte	0x25f
 3139 17a2 8E170000 		.4byte	0x178e
 3140 17a6 23       		.uleb128 0x23
 3141 17a7 01       		.byte	0x1
 3142 17a8 5E000000 		.4byte	0x5e
 3143 17ac 1B       		.byte	0x1b
 3144 17ad 35       		.byte	0x35
 3145 17ae D1170000 		.4byte	0x17d1
 3146 17b2 24       		.uleb128 0x24
 3147 17b3 08040000 		.4byte	.LASF305
 3148 17b7 00       		.byte	0
 3149 17b8 24       		.uleb128 0x24
 3150 17b9 250D0000 		.4byte	.LASF306
 3151 17bd 01       		.byte	0x1
 3152 17be 24       		.uleb128 0x24
 3153 17bf 1B0B0000 		.4byte	.LASF307
 3154 17c3 02       		.byte	0x2
 3155 17c4 24       		.uleb128 0x24
 3156 17c5 250B0000 		.4byte	.LASF308
 3157 17c9 03       		.byte	0x3
 3158 17ca 24       		.uleb128 0x24
 3159 17cb D9070000 		.4byte	.LASF309
 3160 17cf 04       		.byte	0x4
 3161 17d0 00       		.byte	0
 3162 17d1 03       		.uleb128 0x3
 3163 17d2 0D010000 		.4byte	.LASF310
 3164 17d6 1B       		.byte	0x1b
 3165 17d7 3B       		.byte	0x3b
 3166 17d8 A6170000 		.4byte	0x17a6
 3167 17dc 03       		.uleb128 0x3
 3168 17dd 59070000 		.4byte	.LASF311
 3169 17e1 1B       		.byte	0x1b
 3170 17e2 40       		.byte	0x40
 3171 17e3 E7170000 		.4byte	0x17e7
 3172 17e7 07       		.uleb128 0x7
 3173 17e8 59070000 		.4byte	.LASF311
 3174 17ec 10       		.byte	0x10
 3175 17ed 1C       		.byte	0x1c
 3176 17ee 93       		.byte	0x93
 3177 17ef 24180000 		.4byte	0x1824
 3178 17f3 08       		.uleb128 0x8
 3179 17f4 1F010000 		.4byte	.LASF270
 3180 17f8 1C       		.byte	0x1c
 3181 17f9 97       		.byte	0x97
 3182 17fa D1170000 		.4byte	0x17d1
 3183 17fe 00       		.byte	0
 3184 17ff 08       		.uleb128 0x8
 3185 1800 18010000 		.4byte	.LASF271
 3186 1804 1C       		.byte	0x1c
 3187 1805 9B       		.byte	0x9b
 3188 1806 82180000 		.4byte	0x1882
 3189 180a 04       		.byte	0x4
 3190 180b 08       		.uleb128 0x8
 3191 180c 82070000 		.4byte	.LASF312
 3192 1810 1C       		.byte	0x1c
ARM GAS  /tmp/ccCyOv1V.s 			page 57


 3193 1811 A0       		.byte	0xa0
 3194 1812 E9000000 		.4byte	0xe9
 3195 1816 08       		.byte	0x8
 3196 1817 09       		.uleb128 0x9
 3197 1818 746D7200 		.ascii	"tmr\000"
 3198 181c 1C       		.byte	0x1c
 3199 181d A4       		.byte	0xa4
 3200 181e 88180000 		.4byte	0x1888
 3201 1822 0C       		.byte	0xc
 3202 1823 00       		.byte	0
 3203 1824 03       		.uleb128 0x3
 3204 1825 ED0D0000 		.4byte	.LASF313
 3205 1829 1B       		.byte	0x1b
 3206 182a 47       		.byte	0x47
 3207 182b 2F180000 		.4byte	0x182f
 3208 182f 0B       		.uleb128 0xb
 3209 1830 04       		.byte	0x4
 3210 1831 35180000 		.4byte	0x1835
 3211 1835 11       		.uleb128 0x11
 3212 1836 40180000 		.4byte	0x1840
 3213 183a 12       		.uleb128 0x12
 3214 183b 40180000 		.4byte	0x1840
 3215 183f 00       		.byte	0
 3216 1840 0B       		.uleb128 0xb
 3217 1841 04       		.byte	0x4
 3218 1842 DC170000 		.4byte	0x17dc
 3219 1846 03       		.uleb128 0x3
 3220 1847 EE050000 		.4byte	.LASF314
 3221 184b 1C       		.byte	0x1c
 3222 184c 76       		.byte	0x76
 3223 184d E9000000 		.4byte	0xe9
 3224 1851 0A       		.uleb128 0xa
 3225 1852 08       		.byte	0x8
 3226 1853 1C       		.byte	0x1c
 3227 1854 81       		.byte	0x81
 3228 1855 72180000 		.4byte	0x1872
 3229 1859 08       		.uleb128 0x8
 3230 185a BA070000 		.4byte	.LASF315
 3231 185e 1C       		.byte	0x1c
 3232 185f 87       		.byte	0x87
 3233 1860 46180000 		.4byte	0x1846
 3234 1864 00       		.byte	0
 3235 1865 08       		.uleb128 0x8
 3236 1866 78010000 		.4byte	.LASF316
 3237 186a 1C       		.byte	0x1c
 3238 186b 8C       		.byte	0x8c
 3239 186c 24180000 		.4byte	0x1824
 3240 1870 04       		.byte	0x4
 3241 1871 00       		.byte	0
 3242 1872 03       		.uleb128 0x3
 3243 1873 E4020000 		.4byte	.LASF317
 3244 1877 1C       		.byte	0x1c
 3245 1878 8E       		.byte	0x8e
 3246 1879 51180000 		.4byte	0x1851
 3247 187d 06       		.uleb128 0x6
 3248 187e 72180000 		.4byte	0x1872
 3249 1882 0B       		.uleb128 0xb
ARM GAS  /tmp/ccCyOv1V.s 			page 58


 3250 1883 04       		.byte	0x4
 3251 1884 7D180000 		.4byte	0x187d
 3252 1888 0B       		.uleb128 0xb
 3253 1889 04       		.byte	0x4
 3254 188a 670F0000 		.4byte	0xf67
 3255 188e 13       		.uleb128 0x13
 3256 188f 55020000 		.4byte	.LASF318
 3257 1893 1C       		.byte	0x1c
 3258 1894 B0       		.byte	0xb0
 3259 1895 DC170000 		.4byte	0x17dc
 3260 1899 13       		.uleb128 0x13
 3261 189a 5B020000 		.4byte	.LASF319
 3262 189e 1C       		.byte	0x1c
 3263 189f B4       		.byte	0xb4
 3264 18a0 DC170000 		.4byte	0x17dc
 3265 18a4 13       		.uleb128 0x13
 3266 18a5 61020000 		.4byte	.LASF320
 3267 18a9 1C       		.byte	0x1c
 3268 18aa B8       		.byte	0xb8
 3269 18ab DC170000 		.4byte	0x17dc
 3270 18af 13       		.uleb128 0x13
 3271 18b0 67020000 		.4byte	.LASF321
 3272 18b4 1C       		.byte	0x1c
 3273 18b5 BC       		.byte	0xbc
 3274 18b6 DC170000 		.4byte	0x17dc
 3275 18ba 23       		.uleb128 0x23
 3276 18bb 01       		.byte	0x1
 3277 18bc 5E000000 		.4byte	0x5e
 3278 18c0 1D       		.byte	0x1d
 3279 18c1 5D       		.byte	0x5d
 3280 18c2 D9180000 		.4byte	0x18d9
 3281 18c6 24       		.uleb128 0x24
 3282 18c7 C0030000 		.4byte	.LASF322
 3283 18cb 00       		.byte	0
 3284 18cc 24       		.uleb128 0x24
 3285 18cd 930D0000 		.4byte	.LASF323
 3286 18d1 01       		.byte	0x1
 3287 18d2 24       		.uleb128 0x24
 3288 18d3 D40B0000 		.4byte	.LASF324
 3289 18d7 02       		.byte	0x2
 3290 18d8 00       		.byte	0
 3291 18d9 03       		.uleb128 0x3
 3292 18da 02080000 		.4byte	.LASF325
 3293 18de 1D       		.byte	0x1d
 3294 18df 61       		.byte	0x61
 3295 18e0 BA180000 		.4byte	0x18ba
 3296 18e4 03       		.uleb128 0x3
 3297 18e5 800B0000 		.4byte	.LASF326
 3298 18e9 1D       		.byte	0x1d
 3299 18ea 66       		.byte	0x66
 3300 18eb EF180000 		.4byte	0x18ef
 3301 18ef 07       		.uleb128 0x7
 3302 18f0 800B0000 		.4byte	.LASF326
 3303 18f4 78       		.byte	0x78
 3304 18f5 1D       		.byte	0x1d
 3305 18f6 80       		.byte	0x80
 3306 18f7 5A190000 		.4byte	0x195a
ARM GAS  /tmp/ccCyOv1V.s 			page 59


 3307 18fb 09       		.uleb128 0x9
 3308 18fc 766D7400 		.ascii	"vmt\000"
 3309 1900 1D       		.byte	0x1d
 3310 1901 82       		.byte	0x82
 3311 1902 E2190000 		.4byte	0x19e2
 3312 1906 00       		.byte	0
 3313 1907 08       		.uleb128 0x8
 3314 1908 EF070000 		.4byte	.LASF327
 3315 190c 1D       		.byte	0x1d
 3316 190d 83       		.byte	0x83
 3317 190e 75060000 		.4byte	0x675
 3318 1912 04       		.byte	0x4
 3319 1913 08       		.uleb128 0x8
 3320 1914 1F010000 		.4byte	.LASF270
 3321 1918 1D       		.byte	0x1d
 3322 1919 83       		.byte	0x83
 3323 191a D9180000 		.4byte	0x18d9
 3324 191e 08       		.byte	0x8
 3325 191f 08       		.uleb128 0x8
 3326 1920 270C0000 		.4byte	.LASF328
 3327 1924 1D       		.byte	0x1d
 3328 1925 83       		.byte	0x83
 3329 1926 8E080000 		.4byte	0x88e
 3330 192a 0C       		.byte	0xc
 3331 192b 08       		.uleb128 0x8
 3332 192c 9B020000 		.4byte	.LASF329
 3333 1930 1D       		.byte	0x1d
 3334 1931 83       		.byte	0x83
 3335 1932 99080000 		.4byte	0x899
 3336 1936 30       		.byte	0x30
 3337 1937 09       		.uleb128 0x9
 3338 1938 696200   		.ascii	"ib\000"
 3339 193b 1D       		.byte	0x1d
 3340 193c 83       		.byte	0x83
 3341 193d E8190000 		.4byte	0x19e8
 3342 1941 54       		.byte	0x54
 3343 1942 09       		.uleb128 0x9
 3344 1943 6F6200   		.ascii	"ob\000"
 3345 1946 1D       		.byte	0x1d
 3346 1947 83       		.byte	0x83
 3347 1948 E8190000 		.4byte	0x19e8
 3348 194c 64       		.byte	0x64
 3349 194d 08       		.uleb128 0x8
 3350 194e 220C0000 		.4byte	.LASF330
 3351 1952 1D       		.byte	0x1d
 3352 1953 83       		.byte	0x83
 3353 1954 F8190000 		.4byte	0x19f8
 3354 1958 74       		.byte	0x74
 3355 1959 00       		.byte	0
 3356 195a 25       		.uleb128 0x25
 3357 195b 53443100 		.ascii	"SD1\000"
 3358 195f 1E       		.byte	0x1e
 3359 1960 EF       		.byte	0xef
 3360 1961 E4180000 		.4byte	0x18e4
 3361 1965 25       		.uleb128 0x25
 3362 1966 53443300 		.ascii	"SD3\000"
 3363 196a 1E       		.byte	0x1e
ARM GAS  /tmp/ccCyOv1V.s 			page 60


 3364 196b F7       		.byte	0xf7
 3365 196c E4180000 		.4byte	0x18e4
 3366 1970 07       		.uleb128 0x7
 3367 1971 65060000 		.4byte	.LASF331
 3368 1975 20       		.byte	0x20
 3369 1976 1D       		.byte	0x1d
 3370 1977 75       		.byte	0x75
 3371 1978 DD190000 		.4byte	0x19dd
 3372 197c 08       		.uleb128 0x8
 3373 197d EC000000 		.4byte	.LASF332
 3374 1981 1D       		.byte	0x1d
 3375 1982 76       		.byte	0x76
 3376 1983 C3080000 		.4byte	0x8c3
 3377 1987 00       		.byte	0
 3378 1988 08       		.uleb128 0x8
 3379 1989 FD070000 		.4byte	.LASF333
 3380 198d 1D       		.byte	0x1d
 3381 198e 76       		.byte	0x76
 3382 198f E2080000 		.4byte	0x8e2
 3383 1993 04       		.byte	0x4
 3384 1994 09       		.uleb128 0x9
 3385 1995 70757400 		.ascii	"put\000"
 3386 1999 1D       		.byte	0x1d
 3387 199a 76       		.byte	0x76
 3388 199b FC080000 		.4byte	0x8fc
 3389 199f 08       		.byte	0x8
 3390 19a0 09       		.uleb128 0x9
 3391 19a1 67657400 		.ascii	"get\000"
 3392 19a5 1D       		.byte	0x1d
 3393 19a6 76       		.byte	0x76
 3394 19a7 CD060000 		.4byte	0x6cd
 3395 19ab 0C       		.byte	0xc
 3396 19ac 08       		.uleb128 0x8
 3397 19ad 3B010000 		.4byte	.LASF334
 3398 19b1 1D       		.byte	0x1d
 3399 19b2 76       		.byte	0x76
 3400 19b3 88130000 		.4byte	0x1388
 3401 19b7 10       		.byte	0x10
 3402 19b8 08       		.uleb128 0x8
 3403 19b9 60040000 		.4byte	.LASF335
 3404 19bd 1D       		.byte	0x1d
 3405 19be 76       		.byte	0x76
 3406 19bf A2130000 		.4byte	0x13a2
 3407 19c3 14       		.byte	0x14
 3408 19c4 08       		.uleb128 0x8
 3409 19c5 04030000 		.4byte	.LASF336
 3410 19c9 1D       		.byte	0x1d
 3411 19ca 76       		.byte	0x76
 3412 19cb C6130000 		.4byte	0x13c6
 3413 19cf 18       		.byte	0x18
 3414 19d0 08       		.uleb128 0x8
 3415 19d1 EC010000 		.4byte	.LASF337
 3416 19d5 1D       		.byte	0x1d
 3417 19d6 76       		.byte	0x76
 3418 19d7 EA130000 		.4byte	0x13ea
 3419 19db 1C       		.byte	0x1c
 3420 19dc 00       		.byte	0
ARM GAS  /tmp/ccCyOv1V.s 			page 61


 3421 19dd 06       		.uleb128 0x6
 3422 19de 70190000 		.4byte	0x1970
 3423 19e2 0B       		.uleb128 0xb
 3424 19e3 04       		.byte	0x4
 3425 19e4 DD190000 		.4byte	0x19dd
 3426 19e8 17       		.uleb128 0x17
 3427 19e9 B4000000 		.4byte	0xb4
 3428 19ed F8190000 		.4byte	0x19f8
 3429 19f1 18       		.uleb128 0x18
 3430 19f2 A8030000 		.4byte	0x3a8
 3431 19f6 0F       		.byte	0xf
 3432 19f7 00       		.byte	0
 3433 19f8 0B       		.uleb128 0xb
 3434 19f9 04       		.byte	0x4
 3435 19fa 83100000 		.4byte	0x1083
 3436 19fe 23       		.uleb128 0x23
 3437 19ff 01       		.byte	0x1
 3438 1a00 5E000000 		.4byte	0x5e
 3439 1a04 1F       		.byte	0x1f
 3440 1a05 4E       		.byte	0x4e
 3441 1a06 291A0000 		.4byte	0x1a29
 3442 1a0a 24       		.uleb128 0x24
 3443 1a0b 27020000 		.4byte	.LASF338
 3444 1a0f 00       		.byte	0
 3445 1a10 24       		.uleb128 0x24
 3446 1a11 15020000 		.4byte	.LASF339
 3447 1a15 01       		.byte	0x1
 3448 1a16 24       		.uleb128 0x24
 3449 1a17 21070000 		.4byte	.LASF340
 3450 1a1b 02       		.byte	0x2
 3451 1a1c 24       		.uleb128 0x24
 3452 1a1d 41080000 		.4byte	.LASF341
 3453 1a21 03       		.byte	0x3
 3454 1a22 24       		.uleb128 0x24
 3455 1a23 000D0000 		.4byte	.LASF342
 3456 1a27 04       		.byte	0x4
 3457 1a28 00       		.byte	0
 3458 1a29 03       		.uleb128 0x3
 3459 1a2a 5E0D0000 		.4byte	.LASF343
 3460 1a2e 1F       		.byte	0x1f
 3461 1a2f 54       		.byte	0x54
 3462 1a30 FE190000 		.4byte	0x19fe
 3463 1a34 03       		.uleb128 0x3
 3464 1a35 87020000 		.4byte	.LASF344
 3465 1a39 20       		.byte	0x20
 3466 1a3a D0       		.byte	0xd0
 3467 1a3b 3F1A0000 		.4byte	0x1a3f
 3468 1a3f 07       		.uleb128 0x7
 3469 1a40 87020000 		.4byte	.LASF344
 3470 1a44 30       		.byte	0x30
 3471 1a45 20       		.byte	0x20
 3472 1a46 F8       		.byte	0xf8
 3473 1a47 C01A0000 		.4byte	0x1ac0
 3474 1a4b 08       		.uleb128 0x8
 3475 1a4c 1F010000 		.4byte	.LASF270
 3476 1a50 20       		.byte	0x20
 3477 1a51 FC       		.byte	0xfc
ARM GAS  /tmp/ccCyOv1V.s 			page 62


 3478 1a52 291A0000 		.4byte	0x1a29
 3479 1a56 00       		.byte	0
 3480 1a57 0F       		.uleb128 0xf
 3481 1a58 18010000 		.4byte	.LASF271
 3482 1a5c 20       		.byte	0x20
 3483 1a5d 0001     		.2byte	0x100
 3484 1a5f 371B0000 		.4byte	0x1b37
 3485 1a63 04       		.byte	0x4
 3486 1a64 0F       		.uleb128 0xf
 3487 1a65 F80B0000 		.4byte	.LASF275
 3488 1a69 20       		.byte	0x20
 3489 1a6a 0501     		.2byte	0x105
 3490 1a6c B7020000 		.4byte	0x2b7
 3491 1a70 08       		.byte	0x8
 3492 1a71 0F       		.uleb128 0xf
 3493 1a72 A1070000 		.4byte	.LASF276
 3494 1a76 20       		.byte	0x20
 3495 1a77 0C01     		.2byte	0x10c
 3496 1a79 03060000 		.4byte	0x603
 3497 1a7d 0C       		.byte	0xc
 3498 1a7e 0E       		.uleb128 0xe
 3499 1a7f 73737000 		.ascii	"ssp\000"
 3500 1a83 20       		.byte	0x20
 3501 1a84 1801     		.2byte	0x118
 3502 1a86 3D1B0000 		.4byte	0x1b3d
 3503 1a8a 1C       		.byte	0x1c
 3504 1a8b 0F       		.uleb128 0xf
 3505 1a8c 8C060000 		.4byte	.LASF345
 3506 1a90 20       		.byte	0x20
 3507 1a91 1C01     		.2byte	0x11c
 3508 1a93 E9000000 		.4byte	0xe9
 3509 1a97 20       		.byte	0x20
 3510 1a98 0F       		.uleb128 0xf
 3511 1a99 02040000 		.4byte	.LASF346
 3512 1a9d 20       		.byte	0x20
 3513 1a9e 2001     		.2byte	0x120
 3514 1aa0 F3020000 		.4byte	0x2f3
 3515 1aa4 24       		.byte	0x24
 3516 1aa5 0F       		.uleb128 0xf
 3517 1aa6 4B050000 		.4byte	.LASF347
 3518 1aaa 20       		.byte	0x20
 3519 1aab 2401     		.2byte	0x124
 3520 1aad E9000000 		.4byte	0xe9
 3521 1ab1 28       		.byte	0x28
 3522 1ab2 0F       		.uleb128 0xf
 3523 1ab3 C30D0000 		.4byte	.LASF348
 3524 1ab7 20       		.byte	0x20
 3525 1ab8 2801     		.2byte	0x128
 3526 1aba 431B0000 		.4byte	0x1b43
 3527 1abe 2C       		.byte	0x2c
 3528 1abf 00       		.byte	0
 3529 1ac0 03       		.uleb128 0x3
 3530 1ac1 CF0C0000 		.4byte	.LASF349
 3531 1ac5 20       		.byte	0x20
 3532 1ac6 D8       		.byte	0xd8
 3533 1ac7 CB1A0000 		.4byte	0x1acb
 3534 1acb 0B       		.uleb128 0xb
ARM GAS  /tmp/ccCyOv1V.s 			page 63


 3535 1acc 04       		.byte	0x4
 3536 1acd D11A0000 		.4byte	0x1ad1
 3537 1ad1 11       		.uleb128 0x11
 3538 1ad2 DC1A0000 		.4byte	0x1adc
 3539 1ad6 12       		.uleb128 0x12
 3540 1ad7 DC1A0000 		.4byte	0x1adc
 3541 1adb 00       		.byte	0
 3542 1adc 0B       		.uleb128 0xb
 3543 1add 04       		.byte	0x4
 3544 1ade 341A0000 		.4byte	0x1a34
 3545 1ae2 0A       		.uleb128 0xa
 3546 1ae3 10       		.byte	0x10
 3547 1ae4 20       		.byte	0x20
 3548 1ae5 DD       		.byte	0xdd
 3549 1ae6 271B0000 		.4byte	0x1b27
 3550 1aea 08       		.uleb128 0x8
 3551 1aeb A3010000 		.4byte	.LASF282
 3552 1aef 20       		.byte	0x20
 3553 1af0 E1       		.byte	0xe1
 3554 1af1 C01A0000 		.4byte	0x1ac0
 3555 1af5 00       		.byte	0
 3556 1af6 08       		.uleb128 0x8
 3557 1af7 D1000000 		.4byte	.LASF350
 3558 1afb 20       		.byte	0x20
 3559 1afc E6       		.byte	0xe6
 3560 1afd 6C140000 		.4byte	0x146c
 3561 1b01 04       		.byte	0x4
 3562 1b02 08       		.uleb128 0x8
 3563 1b03 B50D0000 		.4byte	.LASF351
 3564 1b07 20       		.byte	0x20
 3565 1b08 EA       		.byte	0xea
 3566 1b09 C9000000 		.4byte	0xc9
 3567 1b0d 08       		.byte	0x8
 3568 1b0e 09       		.uleb128 0x9
 3569 1b0f 63723000 		.ascii	"cr0\000"
 3570 1b13 20       		.byte	0x20
 3571 1b14 EE       		.byte	0xee
 3572 1b15 C9000000 		.4byte	0xc9
 3573 1b19 0A       		.byte	0xa
 3574 1b1a 08       		.uleb128 0x8
 3575 1b1b C2060000 		.4byte	.LASF352
 3576 1b1f 20       		.byte	0x20
 3577 1b20 F2       		.byte	0xf2
 3578 1b21 E9000000 		.4byte	0xe9
 3579 1b25 0C       		.byte	0xc
 3580 1b26 00       		.byte	0
 3581 1b27 03       		.uleb128 0x3
 3582 1b28 37080000 		.4byte	.LASF353
 3583 1b2c 20       		.byte	0x20
 3584 1b2d F3       		.byte	0xf3
 3585 1b2e E21A0000 		.4byte	0x1ae2
 3586 1b32 06       		.uleb128 0x6
 3587 1b33 271B0000 		.4byte	0x1b27
 3588 1b37 0B       		.uleb128 0xb
 3589 1b38 04       		.byte	0x4
 3590 1b39 321B0000 		.4byte	0x1b32
 3591 1b3d 0B       		.uleb128 0xb
ARM GAS  /tmp/ccCyOv1V.s 			page 64


 3592 1b3e 04       		.byte	0x4
 3593 1b3f 19110000 		.4byte	0x1119
 3594 1b43 0B       		.uleb128 0xb
 3595 1b44 04       		.byte	0x4
 3596 1b45 491B0000 		.4byte	0x1b49
 3597 1b49 26       		.uleb128 0x26
 3598 1b4a 1A       		.uleb128 0x1a
 3599 1b4b 4A010000 		.4byte	.LASF354
 3600 1b4f 20       		.byte	0x20
 3601 1b50 3401     		.2byte	0x134
 3602 1b52 341A0000 		.4byte	0x1a34
 3603 1b56 1A       		.uleb128 0x1a
 3604 1b57 50010000 		.4byte	.LASF355
 3605 1b5b 20       		.byte	0x20
 3606 1b5c 3801     		.2byte	0x138
 3607 1b5e 341A0000 		.4byte	0x1a34
 3608 1b62 27       		.uleb128 0x27
 3609 1b63 CB050000 		.4byte	.LASF359
 3610 1b67 01       		.byte	0x1
 3611 1b68 54       		.byte	0x54
 3612 1b69 00000000 		.4byte	.LFB64
 3613 1b6d 8C000000 		.4byte	.LFE64-.LFB64
 3614 1b71 01       		.uleb128 0x1
 3615 1b72 9C       		.byte	0x9c
 3616 1b73 28       		.uleb128 0x28
 3617 1b74 0B030000 		.4byte	.LASF360
 3618 1b78 01       		.byte	0x1
 3619 1b79 3A       		.byte	0x3a
 3620 1b7a 00000000 		.4byte	.LFB63
 3621 1b7e 40000000 		.4byte	.LFE63-.LFB63
 3622 1b82 01       		.uleb128 0x1
 3623 1b83 9C       		.byte	0x9c
 3624 1b84 9D1B0000 		.4byte	0x1b9d
 3625 1b88 29       		.uleb128 0x29
 3626 1b89 0A000000 		.4byte	.LVL0
 3627 1b8d 9D1B0000 		.4byte	0x1b9d
 3628 1b91 2A       		.uleb128 0x2a
 3629 1b92 01       		.uleb128 0x1
 3630 1b93 50       		.byte	0x50
 3631 1b94 01       		.uleb128 0x1
 3632 1b95 3B       		.byte	0x3b
 3633 1b96 2A       		.uleb128 0x2a
 3634 1b97 01       		.uleb128 0x1
 3635 1b98 51       		.byte	0x51
 3636 1b99 01       		.uleb128 0x1
 3637 1b9a 34       		.byte	0x34
 3638 1b9b 00       		.byte	0
 3639 1b9c 00       		.byte	0
 3640 1b9d 2B       		.uleb128 0x2b
 3641 1b9e F8050000 		.4byte	.LASF361
 3642 1ba2 F8050000 		.4byte	.LASF361
 3643 1ba6 09       		.byte	0x9
 3644 1ba7 1E01     		.2byte	0x11e
 3645 1ba9 00       		.byte	0
 3646              		.section	.debug_abbrev,"",%progbits
 3647              	.Ldebug_abbrev0:
 3648 0000 01       		.uleb128 0x1
ARM GAS  /tmp/ccCyOv1V.s 			page 65


 3649 0001 11       		.uleb128 0x11
 3650 0002 01       		.byte	0x1
 3651 0003 25       		.uleb128 0x25
 3652 0004 0E       		.uleb128 0xe
 3653 0005 13       		.uleb128 0x13
 3654 0006 0B       		.uleb128 0xb
 3655 0007 03       		.uleb128 0x3
 3656 0008 0E       		.uleb128 0xe
 3657 0009 1B       		.uleb128 0x1b
 3658 000a 0E       		.uleb128 0xe
 3659 000b 55       		.uleb128 0x55
 3660 000c 17       		.uleb128 0x17
 3661 000d 11       		.uleb128 0x11
 3662 000e 01       		.uleb128 0x1
 3663 000f 10       		.uleb128 0x10
 3664 0010 17       		.uleb128 0x17
 3665 0011 00       		.byte	0
 3666 0012 00       		.byte	0
 3667 0013 02       		.uleb128 0x2
 3668 0014 24       		.uleb128 0x24
 3669 0015 00       		.byte	0
 3670 0016 0B       		.uleb128 0xb
 3671 0017 0B       		.uleb128 0xb
 3672 0018 3E       		.uleb128 0x3e
 3673 0019 0B       		.uleb128 0xb
 3674 001a 03       		.uleb128 0x3
 3675 001b 08       		.uleb128 0x8
 3676 001c 00       		.byte	0
 3677 001d 00       		.byte	0
 3678 001e 03       		.uleb128 0x3
 3679 001f 16       		.uleb128 0x16
 3680 0020 00       		.byte	0
 3681 0021 03       		.uleb128 0x3
 3682 0022 0E       		.uleb128 0xe
 3683 0023 3A       		.uleb128 0x3a
 3684 0024 0B       		.uleb128 0xb
 3685 0025 3B       		.uleb128 0x3b
 3686 0026 0B       		.uleb128 0xb
 3687 0027 49       		.uleb128 0x49
 3688 0028 13       		.uleb128 0x13
 3689 0029 00       		.byte	0
 3690 002a 00       		.byte	0
 3691 002b 04       		.uleb128 0x4
 3692 002c 24       		.uleb128 0x24
 3693 002d 00       		.byte	0
 3694 002e 0B       		.uleb128 0xb
 3695 002f 0B       		.uleb128 0xb
 3696 0030 3E       		.uleb128 0x3e
 3697 0031 0B       		.uleb128 0xb
 3698 0032 03       		.uleb128 0x3
 3699 0033 0E       		.uleb128 0xe
 3700 0034 00       		.byte	0
 3701 0035 00       		.byte	0
 3702 0036 05       		.uleb128 0x5
 3703 0037 35       		.uleb128 0x35
 3704 0038 00       		.byte	0
 3705 0039 49       		.uleb128 0x49
ARM GAS  /tmp/ccCyOv1V.s 			page 66


 3706 003a 13       		.uleb128 0x13
 3707 003b 00       		.byte	0
 3708 003c 00       		.byte	0
 3709 003d 06       		.uleb128 0x6
 3710 003e 26       		.uleb128 0x26
 3711 003f 00       		.byte	0
 3712 0040 49       		.uleb128 0x49
 3713 0041 13       		.uleb128 0x13
 3714 0042 00       		.byte	0
 3715 0043 00       		.byte	0
 3716 0044 07       		.uleb128 0x7
 3717 0045 13       		.uleb128 0x13
 3718 0046 01       		.byte	0x1
 3719 0047 03       		.uleb128 0x3
 3720 0048 0E       		.uleb128 0xe
 3721 0049 0B       		.uleb128 0xb
 3722 004a 0B       		.uleb128 0xb
 3723 004b 3A       		.uleb128 0x3a
 3724 004c 0B       		.uleb128 0xb
 3725 004d 3B       		.uleb128 0x3b
 3726 004e 0B       		.uleb128 0xb
 3727 004f 01       		.uleb128 0x1
 3728 0050 13       		.uleb128 0x13
 3729 0051 00       		.byte	0
 3730 0052 00       		.byte	0
 3731 0053 08       		.uleb128 0x8
 3732 0054 0D       		.uleb128 0xd
 3733 0055 00       		.byte	0
 3734 0056 03       		.uleb128 0x3
 3735 0057 0E       		.uleb128 0xe
 3736 0058 3A       		.uleb128 0x3a
 3737 0059 0B       		.uleb128 0xb
 3738 005a 3B       		.uleb128 0x3b
 3739 005b 0B       		.uleb128 0xb
 3740 005c 49       		.uleb128 0x49
 3741 005d 13       		.uleb128 0x13
 3742 005e 38       		.uleb128 0x38
 3743 005f 0B       		.uleb128 0xb
 3744 0060 00       		.byte	0
 3745 0061 00       		.byte	0
 3746 0062 09       		.uleb128 0x9
 3747 0063 0D       		.uleb128 0xd
 3748 0064 00       		.byte	0
 3749 0065 03       		.uleb128 0x3
 3750 0066 08       		.uleb128 0x8
 3751 0067 3A       		.uleb128 0x3a
 3752 0068 0B       		.uleb128 0xb
 3753 0069 3B       		.uleb128 0x3b
 3754 006a 0B       		.uleb128 0xb
 3755 006b 49       		.uleb128 0x49
 3756 006c 13       		.uleb128 0x13
 3757 006d 38       		.uleb128 0x38
 3758 006e 0B       		.uleb128 0xb
 3759 006f 00       		.byte	0
 3760 0070 00       		.byte	0
 3761 0071 0A       		.uleb128 0xa
 3762 0072 13       		.uleb128 0x13
ARM GAS  /tmp/ccCyOv1V.s 			page 67


 3763 0073 01       		.byte	0x1
 3764 0074 0B       		.uleb128 0xb
 3765 0075 0B       		.uleb128 0xb
 3766 0076 3A       		.uleb128 0x3a
 3767 0077 0B       		.uleb128 0xb
 3768 0078 3B       		.uleb128 0x3b
 3769 0079 0B       		.uleb128 0xb
 3770 007a 01       		.uleb128 0x1
 3771 007b 13       		.uleb128 0x13
 3772 007c 00       		.byte	0
 3773 007d 00       		.byte	0
 3774 007e 0B       		.uleb128 0xb
 3775 007f 0F       		.uleb128 0xf
 3776 0080 00       		.byte	0
 3777 0081 0B       		.uleb128 0xb
 3778 0082 0B       		.uleb128 0xb
 3779 0083 49       		.uleb128 0x49
 3780 0084 13       		.uleb128 0x13
 3781 0085 00       		.byte	0
 3782 0086 00       		.byte	0
 3783 0087 0C       		.uleb128 0xc
 3784 0088 0F       		.uleb128 0xf
 3785 0089 00       		.byte	0
 3786 008a 0B       		.uleb128 0xb
 3787 008b 0B       		.uleb128 0xb
 3788 008c 00       		.byte	0
 3789 008d 00       		.byte	0
 3790 008e 0D       		.uleb128 0xd
 3791 008f 13       		.uleb128 0x13
 3792 0090 01       		.byte	0x1
 3793 0091 03       		.uleb128 0x3
 3794 0092 0E       		.uleb128 0xe
 3795 0093 0B       		.uleb128 0xb
 3796 0094 0B       		.uleb128 0xb
 3797 0095 3A       		.uleb128 0x3a
 3798 0096 0B       		.uleb128 0xb
 3799 0097 3B       		.uleb128 0x3b
 3800 0098 05       		.uleb128 0x5
 3801 0099 01       		.uleb128 0x1
 3802 009a 13       		.uleb128 0x13
 3803 009b 00       		.byte	0
 3804 009c 00       		.byte	0
 3805 009d 0E       		.uleb128 0xe
 3806 009e 0D       		.uleb128 0xd
 3807 009f 00       		.byte	0
 3808 00a0 03       		.uleb128 0x3
 3809 00a1 08       		.uleb128 0x8
 3810 00a2 3A       		.uleb128 0x3a
 3811 00a3 0B       		.uleb128 0xb
 3812 00a4 3B       		.uleb128 0x3b
 3813 00a5 05       		.uleb128 0x5
 3814 00a6 49       		.uleb128 0x49
 3815 00a7 13       		.uleb128 0x13
 3816 00a8 38       		.uleb128 0x38
 3817 00a9 0B       		.uleb128 0xb
 3818 00aa 00       		.byte	0
 3819 00ab 00       		.byte	0
ARM GAS  /tmp/ccCyOv1V.s 			page 68


 3820 00ac 0F       		.uleb128 0xf
 3821 00ad 0D       		.uleb128 0xd
 3822 00ae 00       		.byte	0
 3823 00af 03       		.uleb128 0x3
 3824 00b0 0E       		.uleb128 0xe
 3825 00b1 3A       		.uleb128 0x3a
 3826 00b2 0B       		.uleb128 0xb
 3827 00b3 3B       		.uleb128 0x3b
 3828 00b4 05       		.uleb128 0x5
 3829 00b5 49       		.uleb128 0x49
 3830 00b6 13       		.uleb128 0x13
 3831 00b7 38       		.uleb128 0x38
 3832 00b8 0B       		.uleb128 0xb
 3833 00b9 00       		.byte	0
 3834 00ba 00       		.byte	0
 3835 00bb 10       		.uleb128 0x10
 3836 00bc 16       		.uleb128 0x16
 3837 00bd 00       		.byte	0
 3838 00be 03       		.uleb128 0x3
 3839 00bf 0E       		.uleb128 0xe
 3840 00c0 3A       		.uleb128 0x3a
 3841 00c1 0B       		.uleb128 0xb
 3842 00c2 3B       		.uleb128 0x3b
 3843 00c3 05       		.uleb128 0x5
 3844 00c4 49       		.uleb128 0x49
 3845 00c5 13       		.uleb128 0x13
 3846 00c6 00       		.byte	0
 3847 00c7 00       		.byte	0
 3848 00c8 11       		.uleb128 0x11
 3849 00c9 15       		.uleb128 0x15
 3850 00ca 01       		.byte	0x1
 3851 00cb 27       		.uleb128 0x27
 3852 00cc 19       		.uleb128 0x19
 3853 00cd 01       		.uleb128 0x1
 3854 00ce 13       		.uleb128 0x13
 3855 00cf 00       		.byte	0
 3856 00d0 00       		.byte	0
 3857 00d1 12       		.uleb128 0x12
 3858 00d2 05       		.uleb128 0x5
 3859 00d3 00       		.byte	0
 3860 00d4 49       		.uleb128 0x49
 3861 00d5 13       		.uleb128 0x13
 3862 00d6 00       		.byte	0
 3863 00d7 00       		.byte	0
 3864 00d8 13       		.uleb128 0x13
 3865 00d9 34       		.uleb128 0x34
 3866 00da 00       		.byte	0
 3867 00db 03       		.uleb128 0x3
 3868 00dc 0E       		.uleb128 0xe
 3869 00dd 3A       		.uleb128 0x3a
 3870 00de 0B       		.uleb128 0xb
 3871 00df 3B       		.uleb128 0x3b
 3872 00e0 0B       		.uleb128 0xb
 3873 00e1 49       		.uleb128 0x49
 3874 00e2 13       		.uleb128 0x13
 3875 00e3 3F       		.uleb128 0x3f
 3876 00e4 19       		.uleb128 0x19
ARM GAS  /tmp/ccCyOv1V.s 			page 69


 3877 00e5 3C       		.uleb128 0x3c
 3878 00e6 19       		.uleb128 0x19
 3879 00e7 00       		.byte	0
 3880 00e8 00       		.byte	0
 3881 00e9 14       		.uleb128 0x14
 3882 00ea 17       		.uleb128 0x17
 3883 00eb 01       		.byte	0x1
 3884 00ec 0B       		.uleb128 0xb
 3885 00ed 0B       		.uleb128 0xb
 3886 00ee 3A       		.uleb128 0x3a
 3887 00ef 0B       		.uleb128 0xb
 3888 00f0 3B       		.uleb128 0x3b
 3889 00f1 0B       		.uleb128 0xb
 3890 00f2 01       		.uleb128 0x1
 3891 00f3 13       		.uleb128 0x13
 3892 00f4 00       		.byte	0
 3893 00f5 00       		.byte	0
 3894 00f6 15       		.uleb128 0x15
 3895 00f7 0D       		.uleb128 0xd
 3896 00f8 00       		.byte	0
 3897 00f9 03       		.uleb128 0x3
 3898 00fa 0E       		.uleb128 0xe
 3899 00fb 3A       		.uleb128 0x3a
 3900 00fc 0B       		.uleb128 0xb
 3901 00fd 3B       		.uleb128 0x3b
 3902 00fe 0B       		.uleb128 0xb
 3903 00ff 49       		.uleb128 0x49
 3904 0100 13       		.uleb128 0x13
 3905 0101 00       		.byte	0
 3906 0102 00       		.byte	0
 3907 0103 16       		.uleb128 0x16
 3908 0104 15       		.uleb128 0x15
 3909 0105 01       		.byte	0x1
 3910 0106 27       		.uleb128 0x27
 3911 0107 19       		.uleb128 0x19
 3912 0108 49       		.uleb128 0x49
 3913 0109 13       		.uleb128 0x13
 3914 010a 01       		.uleb128 0x1
 3915 010b 13       		.uleb128 0x13
 3916 010c 00       		.byte	0
 3917 010d 00       		.byte	0
 3918 010e 17       		.uleb128 0x17
 3919 010f 01       		.uleb128 0x1
 3920 0110 01       		.byte	0x1
 3921 0111 49       		.uleb128 0x49
 3922 0112 13       		.uleb128 0x13
 3923 0113 01       		.uleb128 0x1
 3924 0114 13       		.uleb128 0x13
 3925 0115 00       		.byte	0
 3926 0116 00       		.byte	0
 3927 0117 18       		.uleb128 0x18
 3928 0118 21       		.uleb128 0x21
 3929 0119 00       		.byte	0
 3930 011a 49       		.uleb128 0x49
 3931 011b 13       		.uleb128 0x13
 3932 011c 2F       		.uleb128 0x2f
 3933 011d 0B       		.uleb128 0xb
ARM GAS  /tmp/ccCyOv1V.s 			page 70


 3934 011e 00       		.byte	0
 3935 011f 00       		.byte	0
 3936 0120 19       		.uleb128 0x19
 3937 0121 13       		.uleb128 0x13
 3938 0122 01       		.byte	0x1
 3939 0123 0B       		.uleb128 0xb
 3940 0124 0B       		.uleb128 0xb
 3941 0125 3A       		.uleb128 0x3a
 3942 0126 0B       		.uleb128 0xb
 3943 0127 3B       		.uleb128 0x3b
 3944 0128 05       		.uleb128 0x5
 3945 0129 01       		.uleb128 0x1
 3946 012a 13       		.uleb128 0x13
 3947 012b 00       		.byte	0
 3948 012c 00       		.byte	0
 3949 012d 1A       		.uleb128 0x1a
 3950 012e 34       		.uleb128 0x34
 3951 012f 00       		.byte	0
 3952 0130 03       		.uleb128 0x3
 3953 0131 0E       		.uleb128 0xe
 3954 0132 3A       		.uleb128 0x3a
 3955 0133 0B       		.uleb128 0xb
 3956 0134 3B       		.uleb128 0x3b
 3957 0135 05       		.uleb128 0x5
 3958 0136 49       		.uleb128 0x49
 3959 0137 13       		.uleb128 0x13
 3960 0138 3F       		.uleb128 0x3f
 3961 0139 19       		.uleb128 0x19
 3962 013a 3C       		.uleb128 0x3c
 3963 013b 19       		.uleb128 0x19
 3964 013c 00       		.byte	0
 3965 013d 00       		.byte	0
 3966 013e 1B       		.uleb128 0x1b
 3967 013f 13       		.uleb128 0x13
 3968 0140 01       		.byte	0x1
 3969 0141 0B       		.uleb128 0xb
 3970 0142 05       		.uleb128 0x5
 3971 0143 3A       		.uleb128 0x3a
 3972 0144 0B       		.uleb128 0xb
 3973 0145 3B       		.uleb128 0x3b
 3974 0146 0B       		.uleb128 0xb
 3975 0147 01       		.uleb128 0x1
 3976 0148 13       		.uleb128 0x13
 3977 0149 00       		.byte	0
 3978 014a 00       		.byte	0
 3979 014b 1C       		.uleb128 0x1c
 3980 014c 0D       		.uleb128 0xd
 3981 014d 00       		.byte	0
 3982 014e 03       		.uleb128 0x3
 3983 014f 0E       		.uleb128 0xe
 3984 0150 3A       		.uleb128 0x3a
 3985 0151 0B       		.uleb128 0xb
 3986 0152 3B       		.uleb128 0x3b
 3987 0153 0B       		.uleb128 0xb
 3988 0154 49       		.uleb128 0x49
 3989 0155 13       		.uleb128 0x13
 3990 0156 38       		.uleb128 0x38
ARM GAS  /tmp/ccCyOv1V.s 			page 71


 3991 0157 05       		.uleb128 0x5
 3992 0158 00       		.byte	0
 3993 0159 00       		.byte	0
 3994 015a 1D       		.uleb128 0x1d
 3995 015b 0D       		.uleb128 0xd
 3996 015c 00       		.byte	0
 3997 015d 03       		.uleb128 0x3
 3998 015e 08       		.uleb128 0x8
 3999 015f 3A       		.uleb128 0x3a
 4000 0160 0B       		.uleb128 0xb
 4001 0161 3B       		.uleb128 0x3b
 4002 0162 0B       		.uleb128 0xb
 4003 0163 49       		.uleb128 0x49
 4004 0164 13       		.uleb128 0x13
 4005 0165 38       		.uleb128 0x38
 4006 0166 05       		.uleb128 0x5
 4007 0167 00       		.byte	0
 4008 0168 00       		.byte	0
 4009 0169 1E       		.uleb128 0x1e
 4010 016a 0D       		.uleb128 0xd
 4011 016b 00       		.byte	0
 4012 016c 49       		.uleb128 0x49
 4013 016d 13       		.uleb128 0x13
 4014 016e 00       		.byte	0
 4015 016f 00       		.byte	0
 4016 0170 1F       		.uleb128 0x1f
 4017 0171 0D       		.uleb128 0xd
 4018 0172 00       		.byte	0
 4019 0173 49       		.uleb128 0x49
 4020 0174 13       		.uleb128 0x13
 4021 0175 38       		.uleb128 0x38
 4022 0176 0B       		.uleb128 0xb
 4023 0177 00       		.byte	0
 4024 0178 00       		.byte	0
 4025 0179 20       		.uleb128 0x20
 4026 017a 17       		.uleb128 0x17
 4027 017b 01       		.byte	0x1
 4028 017c 0B       		.uleb128 0xb
 4029 017d 0B       		.uleb128 0xb
 4030 017e 3A       		.uleb128 0x3a
 4031 017f 0B       		.uleb128 0xb
 4032 0180 3B       		.uleb128 0x3b
 4033 0181 05       		.uleb128 0x5
 4034 0182 01       		.uleb128 0x1
 4035 0183 13       		.uleb128 0x13
 4036 0184 00       		.byte	0
 4037 0185 00       		.byte	0
 4038 0186 21       		.uleb128 0x21
 4039 0187 0D       		.uleb128 0xd
 4040 0188 00       		.byte	0
 4041 0189 03       		.uleb128 0x3
 4042 018a 08       		.uleb128 0x8
 4043 018b 3A       		.uleb128 0x3a
 4044 018c 0B       		.uleb128 0xb
 4045 018d 3B       		.uleb128 0x3b
 4046 018e 05       		.uleb128 0x5
 4047 018f 49       		.uleb128 0x49
ARM GAS  /tmp/ccCyOv1V.s 			page 72


 4048 0190 13       		.uleb128 0x13
 4049 0191 00       		.byte	0
 4050 0192 00       		.byte	0
 4051 0193 22       		.uleb128 0x22
 4052 0194 21       		.uleb128 0x21
 4053 0195 00       		.byte	0
 4054 0196 00       		.byte	0
 4055 0197 00       		.byte	0
 4056 0198 23       		.uleb128 0x23
 4057 0199 04       		.uleb128 0x4
 4058 019a 01       		.byte	0x1
 4059 019b 0B       		.uleb128 0xb
 4060 019c 0B       		.uleb128 0xb
 4061 019d 49       		.uleb128 0x49
 4062 019e 13       		.uleb128 0x13
 4063 019f 3A       		.uleb128 0x3a
 4064 01a0 0B       		.uleb128 0xb
 4065 01a1 3B       		.uleb128 0x3b
 4066 01a2 0B       		.uleb128 0xb
 4067 01a3 01       		.uleb128 0x1
 4068 01a4 13       		.uleb128 0x13
 4069 01a5 00       		.byte	0
 4070 01a6 00       		.byte	0
 4071 01a7 24       		.uleb128 0x24
 4072 01a8 28       		.uleb128 0x28
 4073 01a9 00       		.byte	0
 4074 01aa 03       		.uleb128 0x3
 4075 01ab 0E       		.uleb128 0xe
 4076 01ac 1C       		.uleb128 0x1c
 4077 01ad 0B       		.uleb128 0xb
 4078 01ae 00       		.byte	0
 4079 01af 00       		.byte	0
 4080 01b0 25       		.uleb128 0x25
 4081 01b1 34       		.uleb128 0x34
 4082 01b2 00       		.byte	0
 4083 01b3 03       		.uleb128 0x3
 4084 01b4 08       		.uleb128 0x8
 4085 01b5 3A       		.uleb128 0x3a
 4086 01b6 0B       		.uleb128 0xb
 4087 01b7 3B       		.uleb128 0x3b
 4088 01b8 0B       		.uleb128 0xb
 4089 01b9 49       		.uleb128 0x49
 4090 01ba 13       		.uleb128 0x13
 4091 01bb 3F       		.uleb128 0x3f
 4092 01bc 19       		.uleb128 0x19
 4093 01bd 3C       		.uleb128 0x3c
 4094 01be 19       		.uleb128 0x19
 4095 01bf 00       		.byte	0
 4096 01c0 00       		.byte	0
 4097 01c1 26       		.uleb128 0x26
 4098 01c2 26       		.uleb128 0x26
 4099 01c3 00       		.byte	0
 4100 01c4 00       		.byte	0
 4101 01c5 00       		.byte	0
 4102 01c6 27       		.uleb128 0x27
 4103 01c7 2E       		.uleb128 0x2e
 4104 01c8 00       		.byte	0
ARM GAS  /tmp/ccCyOv1V.s 			page 73


 4105 01c9 3F       		.uleb128 0x3f
 4106 01ca 19       		.uleb128 0x19
 4107 01cb 03       		.uleb128 0x3
 4108 01cc 0E       		.uleb128 0xe
 4109 01cd 3A       		.uleb128 0x3a
 4110 01ce 0B       		.uleb128 0xb
 4111 01cf 3B       		.uleb128 0x3b
 4112 01d0 0B       		.uleb128 0xb
 4113 01d1 27       		.uleb128 0x27
 4114 01d2 19       		.uleb128 0x19
 4115 01d3 11       		.uleb128 0x11
 4116 01d4 01       		.uleb128 0x1
 4117 01d5 12       		.uleb128 0x12
 4118 01d6 06       		.uleb128 0x6
 4119 01d7 40       		.uleb128 0x40
 4120 01d8 18       		.uleb128 0x18
 4121 01d9 9742     		.uleb128 0x2117
 4122 01db 19       		.uleb128 0x19
 4123 01dc 00       		.byte	0
 4124 01dd 00       		.byte	0
 4125 01de 28       		.uleb128 0x28
 4126 01df 2E       		.uleb128 0x2e
 4127 01e0 01       		.byte	0x1
 4128 01e1 3F       		.uleb128 0x3f
 4129 01e2 19       		.uleb128 0x19
 4130 01e3 03       		.uleb128 0x3
 4131 01e4 0E       		.uleb128 0xe
 4132 01e5 3A       		.uleb128 0x3a
 4133 01e6 0B       		.uleb128 0xb
 4134 01e7 3B       		.uleb128 0x3b
 4135 01e8 0B       		.uleb128 0xb
 4136 01e9 27       		.uleb128 0x27
 4137 01ea 19       		.uleb128 0x19
 4138 01eb 11       		.uleb128 0x11
 4139 01ec 01       		.uleb128 0x1
 4140 01ed 12       		.uleb128 0x12
 4141 01ee 06       		.uleb128 0x6
 4142 01ef 40       		.uleb128 0x40
 4143 01f0 18       		.uleb128 0x18
 4144 01f1 9742     		.uleb128 0x2117
 4145 01f3 19       		.uleb128 0x19
 4146 01f4 01       		.uleb128 0x1
 4147 01f5 13       		.uleb128 0x13
 4148 01f6 00       		.byte	0
 4149 01f7 00       		.byte	0
 4150 01f8 29       		.uleb128 0x29
 4151 01f9 898201   		.uleb128 0x4109
 4152 01fc 01       		.byte	0x1
 4153 01fd 11       		.uleb128 0x11
 4154 01fe 01       		.uleb128 0x1
 4155 01ff 31       		.uleb128 0x31
 4156 0200 13       		.uleb128 0x13
 4157 0201 00       		.byte	0
 4158 0202 00       		.byte	0
 4159 0203 2A       		.uleb128 0x2a
 4160 0204 8A8201   		.uleb128 0x410a
 4161 0207 00       		.byte	0
ARM GAS  /tmp/ccCyOv1V.s 			page 74


 4162 0208 02       		.uleb128 0x2
 4163 0209 18       		.uleb128 0x18
 4164 020a 9142     		.uleb128 0x2111
 4165 020c 18       		.uleb128 0x18
 4166 020d 00       		.byte	0
 4167 020e 00       		.byte	0
 4168 020f 2B       		.uleb128 0x2b
 4169 0210 2E       		.uleb128 0x2e
 4170 0211 00       		.byte	0
 4171 0212 3F       		.uleb128 0x3f
 4172 0213 19       		.uleb128 0x19
 4173 0214 3C       		.uleb128 0x3c
 4174 0215 19       		.uleb128 0x19
 4175 0216 6E       		.uleb128 0x6e
 4176 0217 0E       		.uleb128 0xe
 4177 0218 03       		.uleb128 0x3
 4178 0219 0E       		.uleb128 0xe
 4179 021a 3A       		.uleb128 0x3a
 4180 021b 0B       		.uleb128 0xb
 4181 021c 3B       		.uleb128 0x3b
 4182 021d 05       		.uleb128 0x5
 4183 021e 00       		.byte	0
 4184 021f 00       		.byte	0
 4185 0220 00       		.byte	0
 4186              		.section	.debug_aranges,"",%progbits
 4187 0000 24000000 		.4byte	0x24
 4188 0004 0200     		.2byte	0x2
 4189 0006 00000000 		.4byte	.Ldebug_info0
 4190 000a 04       		.byte	0x4
 4191 000b 00       		.byte	0
 4192 000c 0000     		.2byte	0
 4193 000e 0000     		.2byte	0
 4194 0010 00000000 		.4byte	.LFB63
 4195 0014 40000000 		.4byte	.LFE63-.LFB63
 4196 0018 00000000 		.4byte	.LFB64
 4197 001c 8C000000 		.4byte	.LFE64-.LFB64
 4198 0020 00000000 		.4byte	0
 4199 0024 00000000 		.4byte	0
 4200              		.section	.debug_ranges,"",%progbits
 4201              	.Ldebug_ranges0:
 4202 0000 00000000 		.4byte	.LFB63
 4203 0004 40000000 		.4byte	.LFE63
 4204 0008 00000000 		.4byte	.LFB64
 4205 000c 8C000000 		.4byte	.LFE64
 4206 0010 00000000 		.4byte	0
 4207 0014 00000000 		.4byte	0
 4208              		.section	.debug_line,"",%progbits
 4209              	.Ldebug_line0:
 4210 0000 14030000 		.section	.debug_str,"MS",%progbits,1
 4210      0200AA02 
 4210      00000201 
 4210      FB0E0D00 
 4210      01010101 
 4211              	.LASF4:
 4212 0000 73697A65 		.ascii	"size_t\000"
 4212      5F7400
 4213              	.LASF60:
ARM GAS  /tmp/ccCyOv1V.s 			page 75


 4214 0007 73697A65 		.ascii	"sizetype\000"
 4214      74797065 
 4214      00
 4215              	.LASF123:
 4216 0010 63665F6F 		.ascii	"cf_off_name\000"
 4216      66665F6E 
 4216      616D6500 
 4217              	.LASF31:
 4218 001c 73797374 		.ascii	"systime_t\000"
 4218      696D655F 
 4218      7400
 4219              	.LASF237:
 4220 0026 54464932 		.ascii	"TFI2\000"
 4220      00
 4221              	.LASF241:
 4222 002b 54464933 		.ascii	"TFI3\000"
 4222      00
 4223              	.LASF112:
 4224 0030 63685F69 		.ascii	"ch_identifier\000"
 4224      64656E74 
 4224      69666965 
 4224      7200
 4225              	.LASF185:
 4226 003e 4C50435F 		.ascii	"LPC_SC_TypeDef\000"
 4226      53435F54 
 4226      79706544 
 4226      656600
 4227              	.LASF37:
 4228 004d 705F6374 		.ascii	"p_ctx\000"
 4228      7800
 4229              	.LASF27:
 4230 0053 74707269 		.ascii	"tprio_t\000"
 4230      6F5F7400 
 4231              	.LASF278:
 4232 005b 61646363 		.ascii	"adccallback_t\000"
 4232      616C6C62 
 4232      61636B5F 
 4232      7400
 4233              	.LASF131:
 4234 0069 63685F64 		.ascii	"ch_debug\000"
 4234      65627567 
 4234      00
 4235              	.LASF150:
 4236 0072 464C4153 		.ascii	"FLASHCFG\000"
 4236      48434647 
 4236      00
 4237              	.LASF47:
 4238 007b 705F6D73 		.ascii	"p_msgqueue\000"
 4238      67717565 
 4238      756500
 4239              	.LASF86:
 4240 0086 725F6374 		.ascii	"r_ctx\000"
 4240      7800
 4241              	.LASF18:
 4242 008c 696E7433 		.ascii	"int32_t\000"
 4242      325F7400 
 4243              	.LASF264:
ARM GAS  /tmp/ccCyOv1V.s 			page 76


 4244 0094 61646373 		.ascii	"adcstate_t\000"
 4244      74617465 
 4244      5F7400
 4245              	.LASF120:
 4246 009f 63665F6F 		.ascii	"cf_off_ctx\000"
 4246      66665F63 
 4246      747800
 4247              	.LASF157:
 4248 00aa 504C4C31 		.ascii	"PLL1CON\000"
 4248      434F4E00 
 4249              	.LASF75:
 4250 00b2 76746675 		.ascii	"vtfunc_t\000"
 4250      6E635F74 
 4250      00
 4251              	.LASF301:
 4252 00bb 736C6565 		.ascii	"sleep_event\000"
 4252      705F6576 
 4252      656E7400 
 4253              	.LASF183:
 4254 00c7 444D4152 		.ascii	"DMAREQSEL\000"
 4254      45515345 
 4254      4C00
 4255              	.LASF350:
 4256 00d1 7373706F 		.ascii	"ssport\000"
 4256      727400
 4257              	.LASF251:
 4258 00d8 4C50435F 		.ascii	"LPC_GPDMACH_TypeDef\000"
 4258      4750444D 
 4258      4143485F 
 4258      54797065 
 4258      44656600 
 4259              	.LASF332:
 4260 00ec 77726974 		.ascii	"write\000"
 4260      6500
 4261              	.LASF302:
 4262 00f2 77616B65 		.ascii	"wakeup_event\000"
 4262      75705F65 
 4262      76656E74 
 4262      00
 4263              	.LASF222:
 4264 00ff 43544352 		.ascii	"CTCR\000"
 4264      00
 4265              	.LASF104:
 4266 0104 656C5F66 		.ascii	"el_flags\000"
 4266      6C616773 
 4266      00
 4267              	.LASF310:
 4268 010d 67707473 		.ascii	"gptstate_t\000"
 4268      74617465 
 4268      5F7400
 4269              	.LASF271:
 4270 0118 636F6E66 		.ascii	"config\000"
 4270      696700
 4271              	.LASF270:
 4272 011f 73746174 		.ascii	"state\000"
 4272      6500
 4273              	.LASF296:
ARM GAS  /tmp/ccCyOv1V.s 			page 77


 4274 0125 74787365 		.ascii	"txsem\000"
 4274      6D00
 4275              	.LASF232:
 4276 012b 4C50435F 		.ascii	"LPC_ADC_TypeDef\000"
 4276      4144435F 
 4276      54797065 
 4276      44656600 
 4277              	.LASF334:
 4278 013b 70757474 		.ascii	"putt\000"
 4278      00
 4279              	.LASF295:
 4280 0140 43414E43 		.ascii	"CANConfig\000"
 4280      6F6E6669 
 4280      6700
 4281              	.LASF354:
 4282 014a 53504944 		.ascii	"SPID1\000"
 4282      3100
 4283              	.LASF355:
 4284 0150 53504944 		.ascii	"SPID2\000"
 4284      3200
 4285              	.LASF230:
 4286 0156 53544154 		.ascii	"STAT\000"
 4286      00
 4287              	.LASF116:
 4288 015b 63685F70 		.ascii	"ch_ptrsize\000"
 4288      74727369 
 4288      7A6500
 4289              	.LASF160:
 4290 0166 504C4C31 		.ascii	"PLL1FEED\000"
 4290      46454544 
 4290      00
 4291              	.LASF283:
 4292 016f 6572726F 		.ascii	"error_cb\000"
 4292      725F6362 
 4292      00
 4293              	.LASF316:
 4294 0178 63616C6C 		.ascii	"callback\000"
 4294      6261636B 
 4294      00
 4295              	.LASF293:
 4296 0181 43414E5F 		.ascii	"CAN_SLEEP\000"
 4296      534C4545 
 4296      5000
 4297              	.LASF277:
 4298 018b 6E73616D 		.ascii	"nsamples\000"
 4298      706C6573 
 4298      00
 4299              	.LASF98:
 4300 0194 6D5F6F77 		.ascii	"m_owner\000"
 4300      6E657200 
 4301              	.LASF81:
 4302 019c 76745F70 		.ascii	"vt_par\000"
 4302      617200
 4303              	.LASF282:
 4304 01a3 656E645F 		.ascii	"end_cb\000"
 4304      636200
 4305              	.LASF108:
ARM GAS  /tmp/ccCyOv1V.s 			page 78


 4306 01aa 65786974 		.ascii	"exitcode\000"
 4306      636F6465 
 4306      00
 4307              	.LASF5:
 4308 01b3 5F5F7569 		.ascii	"__uint8_t\000"
 4308      6E74385F 
 4308      7400
 4309              	.LASF136:
 4310 01bd 715F746F 		.ascii	"q_top\000"
 4310      7000
 4311              	.LASF247:
 4312 01c3 43446573 		.ascii	"CDestAddr\000"
 4312      74416464 
 4312      7200
 4313              	.LASF110:
 4314 01cd 65776D61 		.ascii	"ewmask\000"
 4314      736B00
 4315              	.LASF303:
 4316 01d4 43414E44 		.ascii	"CANDriver\000"
 4316      72697665 
 4316      7200
 4317              	.LASF118:
 4318 01de 63685F74 		.ascii	"ch_threadsize\000"
 4318      68726561 
 4318      6473697A 
 4318      6500
 4319              	.LASF337:
 4320 01ec 72656164 		.ascii	"readt\000"
 4320      7400
 4321              	.LASF135:
 4322 01f2 715F6275 		.ascii	"q_buffer\000"
 4322      66666572 
 4322      00
 4323              	.LASF246:
 4324 01fb 43537263 		.ascii	"CSrcAddr\000"
 4324      41646472 
 4324      00
 4325              	.LASF139:
 4326 0204 715F6E6F 		.ascii	"q_notify\000"
 4326      74696679 
 4326      00
 4327              	.LASF38:
 4328 020d 705F6E65 		.ascii	"p_newer\000"
 4328      77657200 
 4329              	.LASF339:
 4330 0215 5350495F 		.ascii	"SPI_STOP\000"
 4330      53544F50 
 4330      00
 4331              	.LASF11:
 4332 021e 6C6F6E67 		.ascii	"long int\000"
 4332      20696E74 
 4332      00
 4333              	.LASF338:
 4334 0227 5350495F 		.ascii	"SPI_UNINIT\000"
 4334      554E494E 
 4334      495400
 4335              	.LASF34:
ARM GAS  /tmp/ccCyOv1V.s 			page 79


 4336 0232 705F6E65 		.ascii	"p_next\000"
 4336      787400
 4337              	.LASF138:
 4338 0239 715F7264 		.ascii	"q_rdptr\000"
 4338      70747200 
 4339              	.LASF125:
 4340 0241 63665F6F 		.ascii	"cf_off_state\000"
 4340      66665F73 
 4340      74617465 
 4340      00
 4341              	.LASF35:
 4342 024e 705F7072 		.ascii	"p_prev\000"
 4342      657600
 4343              	.LASF318:
 4344 0255 47505444 		.ascii	"GPTD1\000"
 4344      3100
 4345              	.LASF319:
 4346 025b 47505444 		.ascii	"GPTD2\000"
 4346      3200
 4347              	.LASF320:
 4348 0261 47505444 		.ascii	"GPTD3\000"
 4348      3300
 4349              	.LASF321:
 4350 0267 47505444 		.ascii	"GPTD4\000"
 4350      3400
 4351              	.LASF256:
 4352 026d 696F706F 		.ascii	"ioportid_t\000"
 4352      72746964 
 4352      5F7400
 4353              	.LASF62:
 4354 0278 44435253 		.ascii	"DCRSR\000"
 4354      5200
 4355              	.LASF24:
 4356 027e 74737461 		.ascii	"tstate_t\000"
 4356      74655F74 
 4356      00
 4357              	.LASF344:
 4358 0287 53504944 		.ascii	"SPIDriver\000"
 4358      72697665 
 4358      7200
 4359              	.LASF50:
 4360 0291 705F6D74 		.ascii	"p_mtxlist\000"
 4360      786C6973 
 4360      7400
 4361              	.LASF329:
 4362 029b 6F717565 		.ascii	"oqueue\000"
 4362      756500
 4363              	.LASF55:
 4364 02a2 72656761 		.ascii	"regarm_t\000"
 4364      726D5F74 
 4364      00
 4365              	.LASF228:
 4366 02ab 4C50435F 		.ascii	"LPC_SSP_TypeDef\000"
 4366      5353505F 
 4366      54797065 
 4366      44656600 
 4367              	.LASF257:
ARM GAS  /tmp/ccCyOv1V.s 			page 80


 4368 02bb 70616C5F 		.ascii	"pal_default_config\000"
 4368      64656661 
 4368      756C745F 
 4368      636F6E66 
 4368      696700
 4369              	.LASF3:
 4370 02ce 7369676E 		.ascii	"signed char\000"
 4370      65642063 
 4370      68617200 
 4371              	.LASF44:
 4372 02da 705F7072 		.ascii	"p_preempt\000"
 4372      65656D70 
 4372      7400
 4373              	.LASF317:
 4374 02e4 47505443 		.ascii	"GPTConfig\000"
 4374      6F6E6669 
 4374      6700
 4375              	.LASF16:
 4376 02ee 75696E74 		.ascii	"uint8_t\000"
 4376      385F7400 
 4377              	.LASF226:
 4378 02f6 494D5343 		.ascii	"IMSC\000"
 4378      00
 4379              	.LASF70:
 4380 02fb 534C4545 		.ascii	"SLEEPCNT\000"
 4380      50434E54 
 4380      00
 4381              	.LASF336:
 4382 0304 77726974 		.ascii	"writet\000"
 4382      657400
 4383              	.LASF360:
 4384 030b 68616C5F 		.ascii	"hal_lld_init\000"
 4384      6C6C645F 
 4384      696E6974 
 4384      00
 4385              	.LASF29:
 4386 0318 6576656E 		.ascii	"eventmask_t\000"
 4386      746D6173 
 4386      6B5F7400 
 4387              	.LASF58:
 4388 0324 636F6E74 		.ascii	"context\000"
 4388      65787400 
 4389              	.LASF298:
 4390 032c 72786675 		.ascii	"rxfull_event\000"
 4390      6C6C5F65 
 4390      76656E74 
 4390      00
 4391              	.LASF151:
 4392 0339 52455345 		.ascii	"RESERVED0\000"
 4392      52564544 
 4392      3000
 4393              	.LASF156:
 4394 0343 52455345 		.ascii	"RESERVED1\000"
 4394      52564544 
 4394      3100
 4395              	.LASF6:
 4396 034d 756E7369 		.ascii	"unsigned char\000"
ARM GAS  /tmp/ccCyOv1V.s 			page 81


 4396      676E6564 
 4396      20636861 
 4396      7200
 4397              	.LASF164:
 4398 035b 52455345 		.ascii	"RESERVED3\000"
 4398      52564544 
 4398      3300
 4399              	.LASF170:
 4400 0365 52455345 		.ascii	"RESERVED4\000"
 4400      52564544 
 4400      3400
 4401              	.LASF140:
 4402 036f 715F6C69 		.ascii	"q_link\000"
 4402      6E6B00
 4403              	.LASF175:
 4404 0376 52455345 		.ascii	"RESERVED6\000"
 4404      52564544 
 4404      3600
 4405              	.LASF177:
 4406 0380 52455345 		.ascii	"RESERVED7\000"
 4406      52564544 
 4406      3700
 4407              	.LASF181:
 4408 038a 52455345 		.ascii	"RESERVED8\000"
 4408      52564544 
 4408      3800
 4409              	.LASF78:
 4410 0394 76745F70 		.ascii	"vt_prev\000"
 4410      72657600 
 4411              	.LASF153:
 4412 039c 504C4C30 		.ascii	"PLL0CFG\000"
 4412      43464700 
 4413              	.LASF268:
 4414 03a4 61646365 		.ascii	"adcerror_t\000"
 4414      72726F72 
 4414      5F7400
 4415              	.LASF155:
 4416 03af 504C4C30 		.ascii	"PLL0FEED\000"
 4416      46454544 
 4416      00
 4417              	.LASF87:
 4418 03b8 725F6E65 		.ascii	"r_newer\000"
 4418      77657200 
 4419              	.LASF322:
 4420 03c0 53445F55 		.ascii	"SD_UNINIT\000"
 4420      4E494E49 
 4420      5400
 4421              	.LASF260:
 4422 03ca 4144435F 		.ascii	"ADC_READY\000"
 4422      52454144 
 4422      5900
 4423              	.LASF22:
 4424 03d4 5F426F6F 		.ascii	"_Bool\000"
 4424      6C00
 4425              	.LASF182:
 4426 03da 55534249 		.ascii	"USBIntSt\000"
 4426      6E745374 
ARM GAS  /tmp/ccCyOv1V.s 			page 82


 4426      00
 4427              	.LASF161:
 4428 03e3 52455345 		.ascii	"RESERVED2\000"
 4428      52564544 
 4428      3200
 4429              	.LASF172:
 4430 03ed 52455345 		.ascii	"RESERVED5\000"
 4430      52564544 
 4430      3500
 4431              	.LASF227:
 4432 03f7 444D4143 		.ascii	"DMACR\000"
 4432      5200
 4433              	.LASF111:
 4434 03fd 63686172 		.ascii	"char\000"
 4434      00
 4435              	.LASF346:
 4436 0402 72787074 		.ascii	"rxptr\000"
 4436      7200
 4437              	.LASF305:
 4438 0408 4750545F 		.ascii	"GPT_UNINIT\000"
 4438      554E494E 
 4438      495400
 4439              	.LASF36:
 4440 0413 705F7072 		.ascii	"p_prio\000"
 4440      696F00
 4441              	.LASF8:
 4442 041a 5F5F7569 		.ascii	"__uint16_t\000"
 4442      6E743136 
 4442      5F7400
 4443              	.LASF132:
 4444 0425 47656E65 		.ascii	"GenericQueue\000"
 4444      72696351 
 4444      75657565 
 4444      00
 4445              	.LASF174:
 4446 0432 45585450 		.ascii	"EXTPOLAR\000"
 4446      4F4C4152 
 4446      00
 4447              	.LASF109:
 4448 043b 77746F62 		.ascii	"wtobjp\000"
 4448      6A7000
 4449              	.LASF68:
 4450 0442 43504943 		.ascii	"CPICNT\000"
 4450      4E5400
 4451              	.LASF263:
 4452 0449 4144435F 		.ascii	"ADC_ERROR\000"
 4452      4552524F 
 4452      5200
 4453              	.LASF121:
 4454 0453 63665F6F 		.ascii	"cf_off_newer\000"
 4454      66665F6E 
 4454      65776572 
 4454      00
 4455              	.LASF335:
 4456 0460 67657474 		.ascii	"gett\000"
 4456      00
 4457              	.LASF56:
ARM GAS  /tmp/ccCyOv1V.s 			page 83


 4458 0465 73746B61 		.ascii	"stkalign_t\000"
 4458      6C69676E 
 4458      5F7400
 4459              	.LASF209:
 4460 0470 46494F53 		.ascii	"FIOSET0\000"
 4460      45543000 
 4461              	.LASF210:
 4462 0478 46494F53 		.ascii	"FIOSET1\000"
 4462      45543100 
 4463              	.LASF211:
 4464 0480 46494F53 		.ascii	"FIOSET2\000"
 4464      45543200 
 4465              	.LASF143:
 4466 0488 4F757470 		.ascii	"OutputQueue\000"
 4466      75745175 
 4466      65756500 
 4467              	.LASF280:
 4468 0494 63697263 		.ascii	"circular\000"
 4468      756C6172 
 4468      00
 4469              	.LASF208:
 4470 049d 46494F53 		.ascii	"FIOSETH\000"
 4470      45544800 
 4471              	.LASF207:
 4472 04a5 46494F53 		.ascii	"FIOSETL\000"
 4472      45544C00 
 4473              	.LASF119:
 4474 04ad 63665F6F 		.ascii	"cf_off_prio\000"
 4474      66665F70 
 4474      72696F00 
 4475              	.LASF245:
 4476 04b9 4C50435F 		.ascii	"LPC_CAN_TypeDef\000"
 4476      43414E5F 
 4476      54797065 
 4476      44656600 
 4477              	.LASF292:
 4478 04c9 43414E5F 		.ascii	"CAN_READY\000"
 4478      52454144 
 4478      5900
 4479              	.LASF272:
 4480 04d3 73616D70 		.ascii	"samples\000"
 4480      6C657300 
 4481              	.LASF32:
 4482 04db 636E745F 		.ascii	"cnt_t\000"
 4482      7400
 4483              	.LASF235:
 4484 04e1 54444131 		.ascii	"TDA1\000"
 4484      00
 4485              	.LASF239:
 4486 04e6 54444132 		.ascii	"TDA2\000"
 4486      00
 4487              	.LASF243:
 4488 04eb 54444133 		.ascii	"TDA3\000"
 4488      00
 4489              	.LASF80:
 4490 04f0 76745F66 		.ascii	"vt_func\000"
 4490      756E6300 
ARM GAS  /tmp/ccCyOv1V.s 			page 84


 4491              	.LASF57:
 4492 04f8 696E7463 		.ascii	"intctx\000"
 4492      747800
 4493              	.LASF49:
 4494 04ff 705F6570 		.ascii	"p_epending\000"
 4494      656E6469 
 4494      6E6700
 4495              	.LASF171:
 4496 050a 45585449 		.ascii	"EXTINT\000"
 4496      4E5400
 4497              	.LASF236:
 4498 0511 54444231 		.ascii	"TDB1\000"
 4498      00
 4499              	.LASF240:
 4500 0516 54444232 		.ascii	"TDB2\000"
 4500      00
 4501              	.LASF244:
 4502 051b 54444233 		.ascii	"TDB3\000"
 4502      00
 4503              	.LASF297:
 4504 0520 72787365 		.ascii	"rxsem\000"
 4504      6D00
 4505              	.LASF165:
 4506 0526 43434C4B 		.ascii	"CCLKCFG\000"
 4506      43464700 
 4507              	.LASF294:
 4508 052e 63616E73 		.ascii	"canstate_t\000"
 4508      74617465 
 4508      5F7400
 4509              	.LASF179:
 4510 0539 50434C4B 		.ascii	"PCLKSEL0\000"
 4510      53454C30 
 4510      00
 4511              	.LASF180:
 4512 0542 50434C4B 		.ascii	"PCLKSEL1\000"
 4512      53454C31 
 4512      00
 4513              	.LASF347:
 4514 054b 7478636E 		.ascii	"txcnt\000"
 4514      7400
 4515              	.LASF106:
 4516 0551 65735F6E 		.ascii	"es_next\000"
 4516      65787400 
 4517              	.LASF134:
 4518 0559 715F636F 		.ascii	"q_counter\000"
 4518      756E7465 
 4518      7200
 4519              	.LASF71:
 4520 0563 4C535543 		.ascii	"LSUCNT\000"
 4520      4E5400
 4521              	.LASF202:
 4522 056a 46494F50 		.ascii	"FIOPIN0\000"
 4522      494E3000 
 4523              	.LASF203:
 4524 0572 46494F50 		.ascii	"FIOPIN1\000"
 4524      494E3100 
 4525              	.LASF204:
ARM GAS  /tmp/ccCyOv1V.s 			page 85


 4526 057a 46494F50 		.ascii	"FIOPIN2\000"
 4526      494E3200 
 4527              	.LASF205:
 4528 0582 46494F50 		.ascii	"FIOPIN3\000"
 4528      494E3300 
 4529              	.LASF105:
 4530 058a 4576656E 		.ascii	"EventSource\000"
 4530      74536F75 
 4530      72636500 
 4531              	.LASF14:
 4532 0596 5F5F7569 		.ascii	"__uint64_t\000"
 4532      6E743634 
 4532      5F7400
 4533              	.LASF13:
 4534 05a1 6C6F6E67 		.ascii	"long unsigned int\000"
 4534      20756E73 
 4534      69676E65 
 4534      6420696E 
 4534      7400
 4535              	.LASF113:
 4536 05b3 63685F7A 		.ascii	"ch_zero\000"
 4536      65726F00 
 4537              	.LASF201:
 4538 05bb 46494F50 		.ascii	"FIOPINH\000"
 4538      494E4800 
 4539              	.LASF200:
 4540 05c3 46494F50 		.ascii	"FIOPINL\000"
 4540      494E4C00 
 4541              	.LASF359:
 4542 05cb 4C504331 		.ascii	"LPC17xx_clock_init\000"
 4542      3778785F 
 4542      636C6F63 
 4542      6B5F696E 
 4542      697400
 4543              	.LASF149:
 4544 05de 53797374 		.ascii	"SystemCoreClock\000"
 4544      656D436F 
 4544      7265436C 
 4544      6F636B00 
 4545              	.LASF314:
 4546 05ee 67707466 		.ascii	"gptfreq_t\000"
 4546      7265715F 
 4546      7400
 4547              	.LASF361:
 4548 05f8 6E766963 		.ascii	"nvicSetSystemHandlerPriority\000"
 4548      53657453 
 4548      79737465 
 4548      6D48616E 
 4548      646C6572 
 4549              	.LASF249:
 4550 0615 43436F6E 		.ascii	"CControl\000"
 4550      74726F6C 
 4550      00
 4551              	.LASF168:
 4552 061e 43414E53 		.ascii	"CANSLEEPCLR\000"
 4552      4C454550 
 4552      434C5200 
ARM GAS  /tmp/ccCyOv1V.s 			page 86


 4553              	.LASF101:
 4554 062a 656C5F6E 		.ascii	"el_next\000"
 4554      65787400 
 4555              	.LASF281:
 4556 0632 6E756D5F 		.ascii	"num_channels\000"
 4556      6368616E 
 4556      6E656C73 
 4556      00
 4557              	.LASF137:
 4558 063f 715F7772 		.ascii	"q_wrptr\000"
 4558      70747200 
 4559              	.LASF252:
 4560 0647 5F6C7063 		.ascii	"_lpc17xx_dma_channel_config_t\000"
 4560      31377878 
 4560      5F646D61 
 4560      5F636861 
 4560      6E6E656C 
 4561              	.LASF331:
 4562 0665 53657269 		.ascii	"SerialDriverVMT\000"
 4562      616C4472 
 4562      69766572 
 4562      564D5400 
 4563              	.LASF199:
 4564 0675 46494F4D 		.ascii	"FIOMASK\000"
 4564      41534B00 
 4565              	.LASF234:
 4566 067d 54494431 		.ascii	"TID1\000"
 4566      00
 4567              	.LASF238:
 4568 0682 54494432 		.ascii	"TID2\000"
 4568      00
 4569              	.LASF242:
 4570 0687 54494433 		.ascii	"TID3\000"
 4570      00
 4571              	.LASF345:
 4572 068c 7278636E 		.ascii	"rxcnt\000"
 4572      7400
 4573              	.LASF285:
 4574 0692 41444343 		.ascii	"ADCConversionGroup\000"
 4574      6F6E7665 
 4574      7273696F 
 4574      6E47726F 
 4574      757000
 4575              	.LASF262:
 4576 06a5 4144435F 		.ascii	"ADC_COMPLETE\000"
 4576      434F4D50 
 4576      4C455445 
 4576      00
 4577              	.LASF267:
 4578 06b2 4144435F 		.ascii	"ADC_ERR_OVERRUN\000"
 4578      4552525F 
 4578      4F564552 
 4578      52554E00 
 4579              	.LASF352:
 4580 06c2 63707372 		.ascii	"cpsr\000"
 4580      00
 4581              	.LASF167:
ARM GAS  /tmp/ccCyOv1V.s 			page 87


 4582 06c7 434C4B53 		.ascii	"CLKSRCSEL\000"
 4582      52435345 
 4582      4C00
 4583              	.LASF188:
 4584 06d1 46494F44 		.ascii	"FIODIR0\000"
 4584      49523000 
 4585              	.LASF189:
 4586 06d9 46494F44 		.ascii	"FIODIR1\000"
 4586      49523100 
 4587              	.LASF190:
 4588 06e1 46494F44 		.ascii	"FIODIR2\000"
 4588      49523200 
 4589              	.LASF191:
 4590 06e9 46494F44 		.ascii	"FIODIR3\000"
 4590      49523300 
 4591              	.LASF128:
 4592 06f1 63665F6F 		.ascii	"cf_off_preempt\000"
 4592      66665F70 
 4592      7265656D 
 4592      707400
 4593              	.LASF187:
 4594 0700 46494F44 		.ascii	"FIODIRH\000"
 4594      49524800 
 4595              	.LASF186:
 4596 0708 46494F44 		.ascii	"FIODIRL\000"
 4596      49524C00 
 4597              	.LASF12:
 4598 0710 5F5F7569 		.ascii	"__uint32_t\000"
 4598      6E743332 
 4598      5F7400
 4599              	.LASF96:
 4600 071b 4D757465 		.ascii	"Mutex\000"
 4600      7800
 4601              	.LASF340:
 4602 0721 5350495F 		.ascii	"SPI_READY\000"
 4602      52454144 
 4602      5900
 4603              	.LASF1:
 4604 072b 6C6F6E67 		.ascii	"long long int\000"
 4604      206C6F6E 
 4604      6720696E 
 4604      7400
 4605              	.LASF291:
 4606 0739 43414E5F 		.ascii	"CAN_STARTING\000"
 4606      53544152 
 4606      54494E47 
 4606      00
 4607              	.LASF115:
 4608 0746 63685F76 		.ascii	"ch_version\000"
 4608      65727369 
 4608      6F6E00
 4609              	.LASF97:
 4610 0751 6D5F7175 		.ascii	"m_queue\000"
 4610      65756500 
 4611              	.LASF311:
 4612 0759 47505444 		.ascii	"GPTDriver\000"
 4612      72697665 
ARM GAS  /tmp/ccCyOv1V.s 			page 88


 4612      7200
 4613              	.LASF231:
 4614 0763 41445452 		.ascii	"ADTRM\000"
 4614      4D00
 4615              	.LASF93:
 4616 0769 53656D61 		.ascii	"Semaphore\000"
 4616      70686F72 
 4616      6500
 4617              	.LASF77:
 4618 0773 76745F6E 		.ascii	"vt_next\000"
 4618      65787400 
 4619              	.LASF213:
 4620 077b 46494F53 		.ascii	"FIOSET\000"
 4620      455400
 4621              	.LASF312:
 4622 0782 636C6F63 		.ascii	"clock\000"
 4622      6B00
 4623              	.LASF279:
 4624 0788 61646365 		.ascii	"adcerrorcallback_t\000"
 4624      72726F72 
 4624      63616C6C 
 4624      6261636B 
 4624      5F7400
 4625              	.LASF273:
 4626 079b 64657074 		.ascii	"depth\000"
 4626      6800
 4627              	.LASF276:
 4628 07a1 6D757465 		.ascii	"mutex\000"
 4628      7800
 4629              	.LASF152:
 4630 07a7 504C4C30 		.ascii	"PLL0CON\000"
 4630      434F4E00 
 4631              	.LASF145:
 4632 07af 4C4F4144 		.ascii	"LOAD\000"
 4632      00
 4633              	.LASF163:
 4634 07b4 50434F4E 		.ascii	"PCONP\000"
 4634      5000
 4635              	.LASF315:
 4636 07ba 66726571 		.ascii	"frequency\000"
 4636      75656E63 
 4636      7900
 4637              	.LASF289:
 4638 07c4 43414E5F 		.ascii	"CAN_UNINIT\000"
 4638      554E494E 
 4638      495400
 4639              	.LASF141:
 4640 07cf 716E6F74 		.ascii	"qnotify_t\000"
 4640      6966795F 
 4640      7400
 4641              	.LASF309:
 4642 07d9 4750545F 		.ascii	"GPT_ONESHOT\000"
 4642      4F4E4553 
 4642      484F5400 
 4643              	.LASF46:
 4644 07e5 705F7761 		.ascii	"p_waiting\000"
 4644      6974696E 
ARM GAS  /tmp/ccCyOv1V.s 			page 89


 4644      6700
 4645              	.LASF327:
 4646 07ef 6576656E 		.ascii	"event\000"
 4646      7400
 4647              	.LASF42:
 4648 07f5 705F666C 		.ascii	"p_flags\000"
 4648      61677300 
 4649              	.LASF333:
 4650 07fd 72656164 		.ascii	"read\000"
 4650      00
 4651              	.LASF325:
 4652 0802 73647374 		.ascii	"sdstate_t\000"
 4652      6174655F 
 4652      7400
 4653              	.LASF159:
 4654 080c 504C4C31 		.ascii	"PLL1STAT\000"
 4654      53544154 
 4654      00
 4655              	.LASF0:
 4656 0815 756E7369 		.ascii	"unsigned int\000"
 4656      676E6564 
 4656      20696E74 
 4656      00
 4657              	.LASF66:
 4658 0822 4354524C 		.ascii	"CTRL\000"
 4658      00
 4659              	.LASF124:
 4660 0827 63665F6F 		.ascii	"cf_off_stklimit\000"
 4660      66665F73 
 4660      746B6C69 
 4660      6D697400 
 4661              	.LASF353:
 4662 0837 53504943 		.ascii	"SPIConfig\000"
 4662      6F6E6669 
 4662      6700
 4663              	.LASF341:
 4664 0841 5350495F 		.ascii	"SPI_ACTIVE\000"
 4664      41435449 
 4664      564500
 4665              	.LASF195:
 4666 084c 46494F4D 		.ascii	"FIOMASK0\000"
 4666      41534B30 
 4666      00
 4667              	.LASF196:
 4668 0855 46494F4D 		.ascii	"FIOMASK1\000"
 4668      41534B31 
 4668      00
 4669              	.LASF197:
 4670 085e 46494F4D 		.ascii	"FIOMASK2\000"
 4670      41534B32 
 4670      00
 4671              	.LASF198:
 4672 0867 46494F4D 		.ascii	"FIOMASK3\000"
 4672      41534B33 
 4672      00
 4673              	.LASF266:
 4674 0870 6164635F 		.ascii	"adc_channels_num_t\000"
ARM GAS  /tmp/ccCyOv1V.s 			page 90


 4674      6368616E 
 4674      6E656C73 
 4674      5F6E756D 
 4674      5F7400
 4675              	.LASF52:
 4676 0883 705F6D70 		.ascii	"p_mpool\000"
 4676      6F6F6C00 
 4677              	.LASF74:
 4678 088b 434D785F 		.ascii	"CMx_DWT\000"
 4678      44575400 
 4679              	.LASF216:
 4680 0893 46494F43 		.ascii	"FIOCLR0\000"
 4680      4C523000 
 4681              	.LASF217:
 4682 089b 46494F43 		.ascii	"FIOCLR1\000"
 4682      4C523100 
 4683              	.LASF218:
 4684 08a3 46494F43 		.ascii	"FIOCLR2\000"
 4684      4C523200 
 4685              	.LASF219:
 4686 08ab 46494F43 		.ascii	"FIOCLR3\000"
 4686      4C523300 
 4687              	.LASF43:
 4688 08b3 705F7265 		.ascii	"p_refs\000"
 4688      667300
 4689              	.LASF194:
 4690 08ba 46494F4D 		.ascii	"FIOMASKH\000"
 4690      41534B48 
 4690      00
 4691              	.LASF69:
 4692 08c3 45584343 		.ascii	"EXCCNT\000"
 4692      4E5400
 4693              	.LASF193:
 4694 08ca 46494F4D 		.ascii	"FIOMASKL\000"
 4694      41534B4C 
 4694      00
 4695              	.LASF117:
 4696 08d3 63685F74 		.ascii	"ch_timesize\000"
 4696      696D6573 
 4696      697A6500 
 4697              	.LASF59:
 4698 08df 494F5245 		.ascii	"IOREG32\000"
 4698      47333200 
 4699              	.LASF215:
 4700 08e7 46494F43 		.ascii	"FIOCLRH\000"
 4700      4C524800 
 4701              	.LASF214:
 4702 08ef 46494F43 		.ascii	"FIOCLRL\000"
 4702      4C524C00 
 4703              	.LASF356:
 4704 08f7 474E5520 		.ascii	"GNU C11 6.3.1 20170620 -mcpu=cortex-m3 -mno-thumb-i"
 4704      43313120 
 4704      362E332E 
 4704      31203230 
 4704      31373036 
 4705 092a 6E746572 		.ascii	"nterwork -mthumb -ggdb -O2 -fomit-frame-pointer -ff"
 4705      776F726B 
ARM GAS  /tmp/ccCyOv1V.s 			page 91


 4705      202D6D74 
 4705      68756D62 
 4705      202D6767 
 4706 095d 756E6374 		.ascii	"unction-sections -fdata-sections -fno-common\000"
 4706      696F6E2D 
 4706      73656374 
 4706      696F6E73 
 4706      202D6664 
 4707              	.LASF54:
 4708 098a 54687265 		.ascii	"ThreadsList\000"
 4708      6164734C 
 4708      69737400 
 4709              	.LASF162:
 4710 0996 50434F4E 		.ascii	"PCON\000"
 4710      00
 4711              	.LASF288:
 4712 099b 41444344 		.ascii	"ADCD1\000"
 4712      3100
 4713              	.LASF30:
 4714 09a1 666C6167 		.ascii	"flagsmask_t\000"
 4714      736D6173 
 4714      6B5F7400 
 4715              	.LASF178:
 4716 09ad 49524354 		.ascii	"IRCTRIM\000"
 4716      52494D00 
 4717              	.LASF284:
 4718 09b5 696E7465 		.ascii	"inten\000"
 4718      6E00
 4719              	.LASF184:
 4720 09bb 434C4B4F 		.ascii	"CLKOUTCFG\000"
 4720      55544346 
 4720      4700
 4721              	.LASF300:
 4722 09c5 6572726F 		.ascii	"error_event\000"
 4722      725F6576 
 4722      656E7400 
 4723              	.LASF45:
 4724 09d1 705F7469 		.ascii	"p_time\000"
 4724      6D6500
 4725              	.LASF192:
 4726 09d8 46494F44 		.ascii	"FIODIR\000"
 4726      495200
 4727              	.LASF127:
 4728 09df 63665F6F 		.ascii	"cf_off_refs\000"
 4728      66665F72 
 4728      65667300 
 4729              	.LASF223:
 4730 09eb 4C50435F 		.ascii	"LPC_TIM_TypeDef\000"
 4730      54494D5F 
 4730      54797065 
 4730      44656600 
 4731              	.LASF147:
 4732 09fb 53797354 		.ascii	"SysTick_Type\000"
 4732      69636B5F 
 4732      54797065 
 4732      00
 4733              	.LASF357:
ARM GAS  /tmp/ccCyOv1V.s 			page 92


 4734 0a08 2E2E2F6F 		.ascii	"../os/hal/platforms/LPC17xx/hal_lld.c\000"
 4734      732F6861 
 4734      6C2F706C 
 4734      6174666F 
 4734      726D732F 
 4735              	.LASF176:
 4736 0a2e 52534944 		.ascii	"RSID\000"
 4736      00
 4737              	.LASF220:
 4738 0a33 46494F43 		.ascii	"FIOCLR\000"
 4738      4C5200
 4739              	.LASF64:
 4740 0a3a 44454D43 		.ascii	"DEMCR\000"
 4740      5200
 4741              	.LASF2:
 4742 0a40 6C6F6E67 		.ascii	"long double\000"
 4742      20646F75 
 4742      626C6500 
 4743              	.LASF51:
 4744 0a4c 705F7265 		.ascii	"p_realprio\000"
 4744      616C7072 
 4744      696F00
 4745              	.LASF129:
 4746 0a57 63665F6F 		.ascii	"cf_off_time\000"
 4746      66665F74 
 4746      696D6500 
 4747              	.LASF261:
 4748 0a63 4144435F 		.ascii	"ADC_ACTIVE\000"
 4748      41435449 
 4748      564500
 4749              	.LASF61:
 4750 0a6e 44484353 		.ascii	"DHCSR\000"
 4750      5200
 4751              	.LASF358:
 4752 0a74 2F686F6D 		.ascii	"/home/ekobayu/Arok-Gandring-Lokajaya/LPC/ChibiOS-RT"
 4752      652F656B 
 4752      6F626179 
 4752      752F4172 
 4752      6F6B2D47 
 4753 0aa7 2D4C5043 		.ascii	"-LPC/Chibi_LPC1766\000"
 4753      2F436869 
 4753      62695F4C 
 4753      50433137 
 4753      363600
 4754              	.LASF63:
 4755 0aba 44435244 		.ascii	"DCRDR\000"
 4755      5200
 4756              	.LASF95:
 4757 0ac0 735F636E 		.ascii	"s_cnt\000"
 4757      7400
 4758              	.LASF15:
 4759 0ac6 6C6F6E67 		.ascii	"long long unsigned int\000"
 4759      206C6F6E 
 4759      6720756E 
 4759      7369676E 
 4759      65642069 
 4760              	.LASF39:
ARM GAS  /tmp/ccCyOv1V.s 			page 93


 4761 0add 705F6F6C 		.ascii	"p_older\000"
 4761      64657200 
 4762              	.LASF17:
 4763 0ae5 75696E74 		.ascii	"uint16_t\000"
 4763      31365F74 
 4763      00
 4764              	.LASF28:
 4765 0aee 6D73675F 		.ascii	"msg_t\000"
 4765      7400
 4766              	.LASF206:
 4767 0af4 46494F50 		.ascii	"FIOPIN\000"
 4767      494E00
 4768              	.LASF126:
 4769 0afb 63665F6F 		.ascii	"cf_off_flags\000"
 4769      66665F66 
 4769      6C616773 
 4769      00
 4770              	.LASF154:
 4771 0b08 504C4C30 		.ascii	"PLL0STAT\000"
 4771      53544154 
 4771      00
 4772              	.LASF26:
 4773 0b11 74736C69 		.ascii	"tslices_t\000"
 4773      6365735F 
 4773      7400
 4774              	.LASF307:
 4775 0b1b 4750545F 		.ascii	"GPT_READY\000"
 4775      52454144 
 4775      5900
 4776              	.LASF308:
 4777 0b25 4750545F 		.ascii	"GPT_CONTINUOUS\000"
 4777      434F4E54 
 4777      494E554F 
 4777      555300
 4778              	.LASF89:
 4779 0b34 725F6375 		.ascii	"r_current\000"
 4779      7272656E 
 4779      7400
 4780              	.LASF83:
 4781 0b3e 56544C69 		.ascii	"VTList\000"
 4781      737400
 4782              	.LASF269:
 4783 0b45 41444344 		.ascii	"ADCDriver\000"
 4783      72697665 
 4783      7200
 4784              	.LASF224:
 4785 0b4f 4C50435F 		.ascii	"LPC_UART_TypeDef\000"
 4785      55415254 
 4785      5F547970 
 4785      65446566 
 4785      00
 4786              	.LASF73:
 4787 0b60 50435352 		.ascii	"PCSR\000"
 4787      00
 4788              	.LASF158:
 4789 0b65 504C4C31 		.ascii	"PLL1CFG\000"
 4789      43464700 
ARM GAS  /tmp/ccCyOv1V.s 			page 94


 4790              	.LASF248:
 4791 0b6d 434C4C49 		.ascii	"CLLI\000"
 4791      00
 4792              	.LASF84:
 4793 0b72 725F7175 		.ascii	"r_queue\000"
 4793      65756500 
 4794              	.LASF304:
 4795 0b7a 43414E44 		.ascii	"CAND1\000"
 4795      3100
 4796              	.LASF326:
 4797 0b80 53657269 		.ascii	"SerialDriver\000"
 4797      616C4472 
 4797      69766572 
 4797      00
 4798              	.LASF146:
 4799 0b8d 43414C49 		.ascii	"CALIB\000"
 4799      4200
 4800              	.LASF166:
 4801 0b93 55534243 		.ascii	"USBCLKCFG\000"
 4801      4C4B4346 
 4801      4700
 4802              	.LASF133:
 4803 0b9d 715F7761 		.ascii	"q_waiting\000"
 4803      6974696E 
 4803      6700
 4804              	.LASF92:
 4805 0ba7 726C6973 		.ascii	"rlist\000"
 4805      7400
 4806              	.LASF23:
 4807 0bad 746D6F64 		.ascii	"tmode_t\000"
 4807      655F7400 
 4808              	.LASF286:
 4809 0bb5 64756D6D 		.ascii	"dummy\000"
 4809      7900
 4810              	.LASF259:
 4811 0bbb 4144435F 		.ascii	"ADC_STOP\000"
 4811      53544F50 
 4811      00
 4812              	.LASF225:
 4813 0bc4 43505352 		.ascii	"CPSR\000"
 4813      00
 4814              	.LASF82:
 4815 0bc9 76745F73 		.ascii	"vt_systime\000"
 4815      79737469 
 4815      6D6500
 4816              	.LASF324:
 4817 0bd4 53445F52 		.ascii	"SD_READY\000"
 4817      45414459 
 4817      00
 4818              	.LASF299:
 4819 0bdd 7478656D 		.ascii	"txempty_event\000"
 4819      7074795F 
 4819      6576656E 
 4819      7400
 4820              	.LASF274:
 4821 0beb 67727070 		.ascii	"grpp\000"
 4821      00
ARM GAS  /tmp/ccCyOv1V.s 			page 95


 4822              	.LASF88:
 4823 0bf0 725F6F6C 		.ascii	"r_older\000"
 4823      64657200 
 4824              	.LASF275:
 4825 0bf8 74687265 		.ascii	"thread\000"
 4825      616400
 4826              	.LASF94:
 4827 0bff 735F7175 		.ascii	"s_queue\000"
 4827      65756500 
 4828              	.LASF173:
 4829 0c07 4558544D 		.ascii	"EXTMODE\000"
 4829      4F444500 
 4830              	.LASF7:
 4831 0c0f 73686F72 		.ascii	"short int\000"
 4831      7420696E 
 4831      7400
 4832              	.LASF20:
 4833 0c19 75696E74 		.ascii	"uint64_t\000"
 4833      36345F74 
 4833      00
 4834              	.LASF330:
 4835 0c22 75617274 		.ascii	"uart\000"
 4835      00
 4836              	.LASF328:
 4837 0c27 69717565 		.ascii	"iqueue\000"
 4837      756500
 4838              	.LASF85:
 4839 0c2e 725F7072 		.ascii	"r_prio\000"
 4839      696F00
 4840              	.LASF254:
 4841 0c35 6C706331 		.ascii	"lpc17xx_gpio_setup_t\000"
 4841      3778785F 
 4841      6770696F 
 4841      5F736574 
 4841      75705F74 
 4842              	.LASF21:
 4843 0c4a 626F6F6C 		.ascii	"bool_t\000"
 4843      5F7400
 4844              	.LASF122:
 4845 0c51 63665F6F 		.ascii	"cf_off_older\000"
 4845      66665F6F 
 4845      6C646572 
 4845      00
 4846              	.LASF255:
 4847 0c5e 50414C43 		.ascii	"PALConfig\000"
 4847      6F6E6669 
 4847      6700
 4848              	.LASF33:
 4849 0c68 54687265 		.ascii	"Thread\000"
 4849      616400
 4850              	.LASF148:
 4851 0c6f 49544D5F 		.ascii	"ITM_RxBuffer\000"
 4851      52784275 
 4851      66666572 
 4851      00
 4852              	.LASF91:
 4853 0c7c 76746C69 		.ascii	"vtlist\000"
ARM GAS  /tmp/ccCyOv1V.s 			page 96


 4853      737400
 4854              	.LASF250:
 4855 0c83 43436F6E 		.ascii	"CConfig\000"
 4855      66696700 
 4856              	.LASF67:
 4857 0c8b 43594343 		.ascii	"CYCCNT\000"
 4857      4E5400
 4858              	.LASF25:
 4859 0c92 74726566 		.ascii	"trefs_t\000"
 4859      735F7400 
 4860              	.LASF144:
 4861 0c9a 5F69646C 		.ascii	"_idle_thread_wa\000"
 4861      655F7468 
 4861      72656164 
 4861      5F776100 
 4862              	.LASF233:
 4863 0caa 54464931 		.ascii	"TFI1\000"
 4863      00
 4864              	.LASF229:
 4865 0caf 494E5445 		.ascii	"INTEN\000"
 4865      4E00
 4866              	.LASF100:
 4867 0cb5 4576656E 		.ascii	"EventListener\000"
 4867      744C6973 
 4867      74656E65 
 4867      7200
 4868              	.LASF265:
 4869 0cc3 61646373 		.ascii	"adcsample_t\000"
 4869      616D706C 
 4869      655F7400 
 4870              	.LASF349:
 4871 0ccf 73706963 		.ascii	"spicallback_t\000"
 4871      616C6C62 
 4871      61636B5F 
 4871      7400
 4872              	.LASF19:
 4873 0cdd 75696E74 		.ascii	"uint32_t\000"
 4873      33325F74 
 4873      00
 4874              	.LASF76:
 4875 0ce6 56697274 		.ascii	"VirtualTimer\000"
 4875      75616C54 
 4875      696D6572 
 4875      00
 4876              	.LASF53:
 4877 0cf3 54687265 		.ascii	"ThreadsQueue\000"
 4877      61647351 
 4877      75657565 
 4877      00
 4878              	.LASF342:
 4879 0d00 5350495F 		.ascii	"SPI_COMPLETE\000"
 4879      434F4D50 
 4879      4C455445 
 4879      00
 4880              	.LASF221:
 4881 0d0d 4C50435F 		.ascii	"LPC_GPIO_TypeDef\000"
 4881      4750494F 
ARM GAS  /tmp/ccCyOv1V.s 			page 97


 4881      5F547970 
 4881      65446566 
 4881      00
 4882              	.LASF107:
 4883 0d1e 7264796D 		.ascii	"rdymsg\000"
 4883      736700
 4884              	.LASF306:
 4885 0d25 4750545F 		.ascii	"GPT_STOP\000"
 4885      53544F50 
 4885      00
 4886              	.LASF9:
 4887 0d2e 73686F72 		.ascii	"short unsigned int\000"
 4887      7420756E 
 4887      7369676E 
 4887      65642069 
 4887      6E7400
 4888              	.LASF258:
 4889 0d41 4144435F 		.ascii	"ADC_UNINIT\000"
 4889      554E494E 
 4889      495400
 4890              	.LASF65:
 4891 0d4c 434D785F 		.ascii	"CMx_SCS\000"
 4891      53435300 
 4892              	.LASF130:
 4893 0d54 63686465 		.ascii	"chdebug_t\000"
 4893      6275675F 
 4893      7400
 4894              	.LASF343:
 4895 0d5e 73706973 		.ascii	"spistate_t\000"
 4895      74617465 
 4895      5F7400
 4896              	.LASF142:
 4897 0d69 496E7075 		.ascii	"InputQueue\000"
 4897      74517565 
 4897      756500
 4898              	.LASF114:
 4899 0d74 63685F73 		.ascii	"ch_size\000"
 4899      697A6500 
 4900              	.LASF169:
 4901 0d7c 43414E57 		.ascii	"CANWAKEFLAGS\000"
 4901      414B4546 
 4901      4C414753 
 4901      00
 4902              	.LASF10:
 4903 0d89 5F5F696E 		.ascii	"__int32_t\000"
 4903      7433325F 
 4903      7400
 4904              	.LASF323:
 4905 0d93 53445F53 		.ascii	"SD_STOP\000"
 4905      544F5000 
 4906              	.LASF72:
 4907 0d9b 464F4C44 		.ascii	"FOLDCNT\000"
 4907      434E5400 
 4908              	.LASF103:
 4909 0da3 656C5F6D 		.ascii	"el_mask\000"
 4909      61736B00 
 4910              	.LASF90:
ARM GAS  /tmp/ccCyOv1V.s 			page 98


 4911 0dab 52656164 		.ascii	"ReadyList\000"
 4911      794C6973 
 4911      7400
 4912              	.LASF351:
 4913 0db5 73737061 		.ascii	"sspad\000"
 4913      6400
 4914              	.LASF212:
 4915 0dbb 46494F53 		.ascii	"FIOSET3\000"
 4915      45543300 
 4916              	.LASF348:
 4917 0dc3 74787074 		.ascii	"txptr\000"
 4917      7200
 4918              	.LASF290:
 4919 0dc9 43414E5F 		.ascii	"CAN_STOP\000"
 4919      53544F50 
 4919      00
 4920              	.LASF40:
 4921 0dd2 705F6E61 		.ascii	"p_name\000"
 4921      6D6500
 4922              	.LASF79:
 4923 0dd9 76745F74 		.ascii	"vt_time\000"
 4923      696D6500 
 4924              	.LASF253:
 4925 0de1 64617461 		.ascii	"data\000"
 4925      00
 4926              	.LASF99:
 4927 0de6 6D5F6E65 		.ascii	"m_next\000"
 4927      787400
 4928              	.LASF313:
 4929 0ded 67707463 		.ascii	"gptcallback_t\000"
 4929      616C6C62 
 4929      61636B5F 
 4929      7400
 4930              	.LASF48:
 4931 0dfb 705F6D73 		.ascii	"p_msg\000"
 4931      6700
 4932              	.LASF102:
 4933 0e01 656C5F6C 		.ascii	"el_listener\000"
 4933      69737465 
 4933      6E657200 
 4934              	.LASF287:
 4935 0e0d 41444343 		.ascii	"ADCConfig\000"
 4935      6F6E6669 
 4935      6700
 4936              	.LASF41:
 4937 0e17 705F7374 		.ascii	"p_state\000"
 4937      61746500 
 4938              		.ident	"GCC: (15:6.3.1+svn253039-1build1) 6.3.1 20170620"
ARM GAS  /tmp/ccCyOv1V.s 			page 99


DEFINED SYMBOLS
                            *ABS*:0000000000000000 hal_lld.c
     /tmp/ccCyOv1V.s:16     .text.hal_lld_init:0000000000000000 $t
     /tmp/ccCyOv1V.s:24     .text.hal_lld_init:0000000000000000 hal_lld_init
     /tmp/ccCyOv1V.s:70     .text.hal_lld_init:0000000000000030 $d
     /tmp/ccCyOv1V.s:78     .text.LPC17xx_clock_init:0000000000000000 $t
     /tmp/ccCyOv1V.s:86     .text.LPC17xx_clock_init:0000000000000000 LPC17xx_clock_init
     /tmp/ccCyOv1V.s:177    .text.LPC17xx_clock_init:0000000000000080 $d
                     .debug_frame:0000000000000010 $d

UNDEFINED SYMBOLS
nvicSetSystemHandlerPriority
