ARM GAS  /tmp/cc5bbLhf.s 			page 1


   1              		.cpu cortex-m3
   2              		.eabi_attribute 20, 1
   3              		.eabi_attribute 21, 1
   4              		.eabi_attribute 23, 3
   5              		.eabi_attribute 24, 1
   6              		.eabi_attribute 25, 1
   7              		.eabi_attribute 26, 1
   8              		.eabi_attribute 30, 2
   9              		.eabi_attribute 34, 1
  10              		.eabi_attribute 18, 4
  11              		.file	"main.c"
  12              		.text
  13              	.Ltext0:
  14              		.cfi_sections	.debug_frame
  15              		.section	.text.thd_test_inj_GPIO,"ax",%progbits
  16              		.align	1
  17              		.p2align 2,,3
  18              		.syntax unified
  19              		.thumb
  20              		.thumb_func
  21              		.fpu softvfp
  22              		.type	thd_test_inj_GPIO, %function
  23              	thd_test_inj_GPIO:
  24              	.LFB67:
  25              		.file 1 "main.c"
  26              		.loc 1 155 0
  27              		.cfi_startproc
  28              		@ Volatile: function does not return.
  29              		@ args = 0, pretend = 0, frame = 0
  30              		@ frame_needed = 0, uses_anonymous_args = 0
  31              	.LVL0:
  32              		.loc 1 167 0
  33 0000 1849     		ldr	r1, .L5
  34              		.loc 1 155 0
  35 0002 08B5     		push	{r3, lr}
  36              		.cfi_def_cfa_offset 8
  37              		.cfi_offset 3, -8
  38              		.cfi_offset 14, -4
  39              		.loc 1 172 0
  40 0004 0C46     		mov	r4, r1
  41              		.loc 1 161 0
  42 0006 184B     		ldr	r3, .L5+4
  43              		.loc 1 158 0
  44 0008 184A     		ldr	r2, .L5+8
  45 000a 194D     		ldr	r5, .L5+12
  46 000c 9069     		ldr	r0, [r2, #24]
  47              	.LVL1:
  48              		.loc 1 161 0
  49 000e 1A68     		ldr	r2, [r3]
  50              		.loc 1 158 0
  51 0010 8561     		str	r5, [r0, #24]
  52              		.loc 1 161 0
  53 0012 1A60     		str	r2, [r3]
  54              		.loc 1 162 0
  55 0014 186C     		ldr	r0, [r3, #64]
  56              		.loc 1 163 0
  57 0016 174A     		ldr	r2, .L5+16
ARM GAS  /tmp/cc5bbLhf.s 			page 2


  58              		.loc 1 162 0
  59 0018 40F44000 		orr	r0, r0, #12582912
  60 001c 1864     		str	r0, [r3, #64]
  61              		.loc 1 163 0
  62 001e 5078     		ldrb	r0, [r2, #1]	@ zero_extendqisi2
  63 0020 40F00800 		orr	r0, r0, #8
  64 0024 5070     		strb	r0, [r2, #1]
  65              		.loc 1 165 0
  66 0026 D868     		ldr	r0, [r3, #12]
  67 0028 D860     		str	r0, [r3, #12]
  68              		.loc 1 166 0
  69 002a D86C     		ldr	r0, [r3, #76]
  70 002c 40F44060 		orr	r0, r0, #3072
  71 0030 D864     		str	r0, [r3, #76]
  72              		.loc 1 167 0
  73 0032 8B78     		ldrb	r3, [r1, #2]	@ zero_extendqisi2
  74 0034 43F02003 		orr	r3, r3, #32
  75 0038 8B70     		strb	r3, [r1, #2]
  76              		.loc 1 169 0
  77 003a 537E     		ldrb	r3, [r2, #25]	@ zero_extendqisi2
  78 003c 43F00803 		orr	r3, r3, #8
  79 0040 5376     		strb	r3, [r2, #25]
  80              	.L2:
  81              		.loc 1 172 0 discriminator 1
  82 0042 A37E     		ldrb	r3, [r4, #26]	@ zero_extendqisi2
  83              		.loc 1 173 0 discriminator 1
  84 0044 40F6B830 		movw	r0, #3000
  85              		.loc 1 172 0 discriminator 1
  86 0048 43F02003 		orr	r3, r3, #32
  87 004c A376     		strb	r3, [r4, #26]
  88              		.loc 1 173 0 discriminator 1
  89 004e FFF7FEFF 		bl	chThdSleep
  90              	.LVL2:
  91              		.loc 1 175 0 discriminator 1
  92 0052 A37F     		ldrb	r3, [r4, #30]	@ zero_extendqisi2
  93              		.loc 1 176 0 discriminator 1
  94 0054 40F6B830 		movw	r0, #3000
  95              		.loc 1 175 0 discriminator 1
  96 0058 43F02003 		orr	r3, r3, #32
  97 005c A377     		strb	r3, [r4, #30]
  98              		.loc 1 176 0 discriminator 1
  99 005e FFF7FEFF 		bl	chThdSleep
 100              	.LVL3:
 101 0062 EEE7     		b	.L2
 102              	.L6:
 103              		.align	2
 104              	.L5:
 105 0064 20C00920 		.word	537509920
 106 0068 00C00240 		.word	1073922048
 107 006c 00000000 		.word	rlist
 108 0070 00000000 		.word	.LC0
 109 0074 00C00920 		.word	537509888
 110              		.cfi_endproc
 111              	.LFE67:
 112              		.size	thd_test_inj_GPIO, .-thd_test_inj_GPIO
 113              		.section	.text.thd_led_debug,"ax",%progbits
 114              		.align	1
ARM GAS  /tmp/cc5bbLhf.s 			page 3


 115              		.p2align 2,,3
 116              		.syntax unified
 117              		.thumb
 118              		.thumb_func
 119              		.fpu softvfp
 120              		.type	thd_led_debug, %function
 121              	thd_led_debug:
 122              	.LFB66:
 123              		.loc 1 140 0
 124              		.cfi_startproc
 125              		@ Volatile: function does not return.
 126              		@ args = 0, pretend = 0, frame = 0
 127              		@ frame_needed = 0, uses_anonymous_args = 0
 128              	.LVL4:
 129              		.loc 1 145 0
 130 0000 104B     		ldr	r3, .L10
 131              		.loc 1 148 0
 132 0002 4FF47A75 		mov	r5, #1000
 133              		.loc 1 147 0
 134 0006 1E46     		mov	r6, r3
 135              		.loc 1 140 0
 136 0008 80B5     		push	{r7, lr}
 137              		.cfi_def_cfa_offset 8
 138              		.cfi_offset 7, -8
 139              		.cfi_offset 14, -4
 140              		.loc 1 144 0
 141 000a 0F4A     		ldr	r2, .L10+4
 142              		.loc 1 143 0
 143 000c 0F49     		ldr	r1, .L10+8
 144 000e 104C     		ldr	r4, .L10+12
 145 0010 8869     		ldr	r0, [r1, #24]
 146              	.LVL5:
 147              		.loc 1 144 0
 148 0012 1169     		ldr	r1, [r2, #16]
 149              		.loc 1 143 0
 150 0014 8461     		str	r4, [r0, #24]
 151              		.loc 1 144 0
 152 0016 1161     		str	r1, [r2, #16]
 153              		.loc 1 145 0
 154 0018 1A78     		ldrb	r2, [r3]	@ zero_extendqisi2
 155 001a 0E4F     		ldr	r7, .L10+16
 156 001c 42F00102 		orr	r2, r2, #1
 157              		.loc 1 148 0
 158 0020 0D4C     		ldr	r4, .L10+20
 159              		.loc 1 145 0
 160 0022 1A70     		strb	r2, [r3]
 161              	.L8:
 162              		.loc 1 147 0 discriminator 1
 163 0024 7369     		ldr	r3, [r6, #20]
 164 0026 83F00103 		eor	r3, r3, #1
 165 002a 7361     		str	r3, [r6, #20]
 166              		.loc 1 148 0 discriminator 1
 167 002c 3B68     		ldr	r3, [r7]
 168 002e 05FB03F0 		mul	r0, r5, r3
 169 0032 0138     		subs	r0, r0, #1
 170 0034 A4FB0030 		umull	r3, r0, r4, r0
 171 0038 8009     		lsrs	r0, r0, #6
ARM GAS  /tmp/cc5bbLhf.s 			page 4


 172 003a 0130     		adds	r0, r0, #1
 173 003c FFF7FEFF 		bl	chThdSleep
 174              	.LVL6:
 175 0040 F0E7     		b	.L8
 176              	.L11:
 177 0042 00BF     		.align	2
 178              	.L10:
 179 0044 40C00920 		.word	537509952
 180 0048 00C00240 		.word	1073922048
 181 004c 00000000 		.word	rlist
 182 0050 00000000 		.word	.LC1
 183 0054 00000000 		.word	.LANCHOR0
 184 0058 D34D6210 		.word	274877907
 185              		.cfi_endproc
 186              	.LFE66:
 187              		.size	thd_led_debug, .-thd_led_debug
 188              		.section	.text.thd_can_tx,"ax",%progbits
 189              		.align	1
 190              		.p2align 2,,3
 191              		.syntax unified
 192              		.thumb
 193              		.thumb_func
 194              		.fpu softvfp
 195              		.type	thd_can_tx, %function
 196              	thd_can_tx:
 197              	.LFB69:
 198              		.loc 1 302 0
 199              		.cfi_startproc
 200              		@ args = 0, pretend = 0, frame = 32
 201              		@ frame_needed = 0, uses_anonymous_args = 0
 202              	.LVL7:
 203              		.loc 1 311 0
 204 0000 0820     		movs	r0, #8
 205              	.LVL8:
 206              		.loc 1 309 0
 207 0002 2021     		movs	r1, #32
 208              		.loc 1 302 0
 209 0004 F0B5     		push	{r4, r5, r6, r7, lr}
 210              		.cfi_def_cfa_offset 20
 211              		.cfi_offset 4, -20
 212              		.cfi_offset 5, -16
 213              		.cfi_offset 6, -12
 214              		.cfi_offset 7, -8
 215              		.cfi_offset 14, -4
 216              		.loc 1 313 0
 217 0006 0024     		movs	r4, #0
 218              		.loc 1 312 0
 219 0008 0127     		movs	r7, #1
 220              		.loc 1 302 0
 221 000a 89B0     		sub	sp, sp, #36
 222              		.cfi_def_cfa_offset 56
 223              		.loc 1 308 0
 224 000c 9DF80020 		ldrb	r2, [sp]	@ zero_extendqisi2
 225              		.loc 1 315 0
 226 0010 9DF81030 		ldrb	r3, [sp, #16]	@ zero_extendqisi2
 227              		.loc 1 307 0
 228 0014 2A4D     		ldr	r5, .L19
ARM GAS  /tmp/cc5bbLhf.s 			page 5


 229              		.loc 1 311 0
 230 0016 02F0CF02 		and	r2, r2, #207
 231              		.loc 1 318 0
 232 001a 03F0CF03 		and	r3, r3, #207
 233              		.loc 1 307 0
 234 001e D5F818E0 		ldr	lr, [r5, #24]
 235              		.loc 1 309 0
 236 0022 BDF80460 		ldrh	r6, [sp, #4]
 237              		.loc 1 316 0
 238 0026 BDF81450 		ldrh	r5, [sp, #20]
 239              		.loc 1 311 0
 240 002a 60F30302 		bfi	r2, r0, #0, #4
 241              		.loc 1 318 0
 242 002e 60F30303 		bfi	r3, r0, #0, #4
 243              		.loc 1 307 0
 244 0032 2448     		ldr	r0, .L19+4
 245              		.loc 1 316 0
 246 0034 61F30A05 		bfi	r5, r1, #0, #11
 247              		.loc 1 309 0
 248 0038 61F30A06 		bfi	r6, r1, #0, #11
 249              		.loc 1 307 0
 250 003c CEF81800 		str	r0, [lr, #24]
 251              		.loc 1 336 0
 252 0040 2149     		ldr	r1, .L19+8
 253 0042 2248     		ldr	r0, .L19+12
 254              		.loc 1 316 0
 255 0044 ADF81450 		strh	r5, [sp, #20]	@ movhi
 256              		.loc 1 311 0
 257 0048 8DF80020 		strb	r2, [sp]
 258              		.loc 1 318 0
 259 004c 8DF81030 		strb	r3, [sp, #16]
 260              		.loc 1 309 0
 261 0050 ADF80460 		strh	r6, [sp, #4]	@ movhi
 262              		.loc 1 312 0
 263 0054 0297     		str	r7, [sp, #8]
 264              		.loc 1 313 0
 265 0056 0394     		str	r4, [sp, #12]
 266              		.loc 1 319 0
 267 0058 0694     		str	r4, [sp, #24]
 268              		.loc 1 320 0
 269 005a 0794     		str	r4, [sp, #28]
 270              	.LVL9:
 271              		.loc 1 336 0
 272 005c FFF7FEFF 		bl	chprintf
 273              	.LVL10:
 274              		.loc 1 340 0
 275 0060 1B4D     		ldr	r5, .L19+16
 276              	.LVL11:
 277              	.L13:
 278              		.loc 1 339 0
 279 0062 4FF47A60 		mov	r0, #4000
 280 0066 FFF7FEFF 		bl	chThdSleep
 281              	.LVL12:
 282              		.loc 1 340 0
 283 006a 6A46     		mov	r2, sp
 284 006c 0021     		movs	r1, #0
 285 006e 6423     		movs	r3, #100
ARM GAS  /tmp/cc5bbLhf.s 			page 6


 286 0070 2846     		mov	r0, r5
 287 0072 FFF7FEFF 		bl	canTransmit
 288              	.LVL13:
 289              		.loc 1 344 0
 290 0076 1749     		ldr	r1, .L19+20
 291              		.loc 1 341 0
 292 0078 2246     		mov	r2, r4
 293              		.loc 1 340 0
 294 007a B0B9     		cbnz	r0, .L14
 295              		.loc 1 341 0
 296 007c 1649     		ldr	r1, .L19+24
 297 007e 1348     		ldr	r0, .L19+12
 298              		.loc 1 342 0
 299 0080 0134     		adds	r4, r4, #1
 300              	.LVL14:
 301              		.loc 1 341 0
 302 0082 FFF7FEFF 		bl	chprintf
 303              	.LVL15:
 304              	.L15:
 305              		.loc 1 346 0
 306 0086 4FF47A60 		mov	r0, #4000
 307 008a FFF7FEFF 		bl	chThdSleep
 308              	.LVL16:
 309              		.loc 1 347 0
 310 008e 0021     		movs	r1, #0
 311 0090 6423     		movs	r3, #100
 312 0092 04AA     		add	r2, sp, #16
 313 0094 2846     		mov	r0, r5
 314 0096 FFF7FEFF 		bl	canTransmit
 315              	.LVL17:
 316              		.loc 1 348 0
 317 009a 1049     		ldr	r1, .L19+28
 318              		.loc 1 347 0
 319 009c 48B9     		cbnz	r0, .L16
 320              		.loc 1 348 0
 321 009e 2246     		mov	r2, r4
 322 00a0 0A48     		ldr	r0, .L19+12
 323              		.loc 1 349 0
 324 00a2 0134     		adds	r4, r4, #1
 325              	.LVL18:
 326              		.loc 1 348 0
 327 00a4 FFF7FEFF 		bl	chprintf
 328              	.LVL19:
 329 00a8 DBE7     		b	.L13
 330              	.LVL20:
 331              	.L14:
 332              		.loc 1 344 0
 333 00aa 0848     		ldr	r0, .L19+12
 334 00ac FFF7FEFF 		bl	chprintf
 335              	.LVL21:
 336 00b0 E9E7     		b	.L15
 337              	.L16:
 338              		.loc 1 351 0
 339 00b2 0B49     		ldr	r1, .L19+32
 340 00b4 0548     		ldr	r0, .L19+12
 341 00b6 2246     		mov	r2, r4
 342 00b8 FFF7FEFF 		bl	chprintf
ARM GAS  /tmp/cc5bbLhf.s 			page 7


 343              	.LVL22:
 344 00bc D1E7     		b	.L13
 345              	.L20:
 346 00be 00BF     		.align	2
 347              	.L19:
 348 00c0 00000000 		.word	rlist
 349 00c4 00000000 		.word	.LC2
 350 00c8 10000000 		.word	.LC3
 351 00cc 00000000 		.word	SD3
 352 00d0 00000000 		.word	CAND1
 353 00d4 4C000000 		.word	.LC5
 354 00d8 2C000000 		.word	.LC4
 355 00dc 6C000000 		.word	.LC6
 356 00e0 8C000000 		.word	.LC7
 357              		.cfi_endproc
 358              	.LFE69:
 359              		.size	thd_can_tx, .-thd_can_tx
 360              		.section	.text.init_ADC,"ax",%progbits
 361              		.align	1
 362              		.p2align 2,,3
 363              		.global	init_ADC
 364              		.syntax unified
 365              		.thumb
 366              		.thumb_func
 367              		.fpu softvfp
 368              		.type	init_ADC, %function
 369              	init_ADC:
 370              	.LFB63:
 371              		.loc 1 44 0
 372              		.cfi_startproc
 373              		@ args = 0, pretend = 0, frame = 0
 374              		@ frame_needed = 0, uses_anonymous_args = 0
 375              		@ link register save eliminated.
 376              		.loc 1 46 0
 377 0000 1448     		ldr	r0, .L22
 378              		.loc 1 48 0
 379 0002 154B     		ldr	r3, .L22+4
 380              		.loc 1 46 0
 381 0004 D0F8C410 		ldr	r1, [r0, #196]
 382              		.loc 1 65 0
 383 0008 144A     		ldr	r2, .L22+8
 384              		.loc 1 46 0
 385 000a 41F48051 		orr	r1, r1, #4096
 386 000e C0F8C410 		str	r1, [r0, #196]
 387              		.loc 1 48 0
 388 0012 1968     		ldr	r1, [r3]
 389 0014 41F40011 		orr	r1, r1, #2097152
 390 0018 1960     		str	r1, [r3]
 391              		.loc 1 61 0
 392 001a 1968     		ldr	r1, [r3]
 393 001c 41F48071 		orr	r1, r1, #256
 394 0020 1960     		str	r1, [r3]
 395              		.loc 1 63 0
 396 0022 1968     		ldr	r1, [r3]
 397 0024 41F01001 		orr	r1, r1, #16
 398 0028 1960     		str	r1, [r3]
 399              		.loc 1 65 0
ARM GAS  /tmp/cc5bbLhf.s 			page 8


 400 002a D168     		ldr	r1, [r2, #12]
 401 002c 41F04051 		orr	r1, r1, #805306368
 402 0030 D160     		str	r1, [r2, #12]
 403              		.loc 1 72 0
 404 0032 D968     		ldr	r1, [r3, #12]
 405 0034 21F48071 		bic	r1, r1, #256
 406 0038 D960     		str	r1, [r3, #12]
 407              		.loc 1 73 0
 408 003a 1968     		ldr	r1, [r3]
 409 003c 41F48031 		orr	r1, r1, #65536
 410 0040 1960     		str	r1, [r3]
 411              		.loc 1 76 0
 412 0042 1968     		ldr	r1, [r3]
 413 0044 41F00401 		orr	r1, r1, #4
 414 0048 1960     		str	r1, [r3]
 415              		.loc 1 77 0
 416 004a 5368     		ldr	r3, [r2, #4]
 417 004c 43F48023 		orr	r3, r3, #262144
 418 0050 5360     		str	r3, [r2, #4]
 419 0052 7047     		bx	lr
 420              	.L23:
 421              		.align	2
 422              	.L22:
 423 0054 00C00F40 		.word	1074774016
 424 0058 00400340 		.word	1073954816
 425 005c 00C00240 		.word	1073922048
 426              		.cfi_endproc
 427              	.LFE63:
 428              		.size	init_ADC, .-init_ADC
 429              		.section	.text.capture_value,"ax",%progbits
 430              		.align	1
 431              		.p2align 2,,3
 432              		.global	capture_value
 433              		.syntax unified
 434              		.thumb
 435              		.thumb_func
 436              		.fpu softvfp
 437              		.type	capture_value, %function
 438              	capture_value:
 439              	.LFB64:
 440              		.loc 1 84 0
 441              		.cfi_startproc
 442              		@ args = 0, pretend = 0, frame = 0
 443              		@ frame_needed = 0, uses_anonymous_args = 0
 444              		@ link register save eliminated.
 445              	.LVL23:
 446 0000 0123     		movs	r3, #1
 447              		.loc 1 89 0
 448 0002 064A     		ldr	r2, .L27
 449 0004 03FA00F0 		lsl	r0, r3, r0
 450              	.LVL24:
 451              	.L25:
 452              		.loc 1 89 0 is_stmt 0 discriminator 1
 453 0008 136B     		ldr	r3, [r2, #48]
 454 000a 30EA0303 		bics	r3, r0, r3
 455 000e FBD1     		bne	.L25
 456              		.loc 1 93 0 is_stmt 1
ARM GAS  /tmp/cc5bbLhf.s 			page 9


 457 0010 0431     		adds	r1, r1, #4
 458              	.LVL25:
 459 0012 52F82100 		ldr	r0, [r2, r1, lsl #2]
 460              	.LVL26:
 461              		.loc 1 97 0
 462 0016 C0F30B10 		ubfx	r0, r0, #4, #12
 463              	.LVL27:
 464 001a 7047     		bx	lr
 465              	.L28:
 466              		.align	2
 467              	.L27:
 468 001c 00400340 		.word	1073954816
 469              		.cfi_endproc
 470              	.LFE64:
 471              		.size	capture_value, .-capture_value
 472              		.global	__aeabi_i2d
 473              		.global	__aeabi_dmul
 474              		.global	__aeabi_d2uiz
 475              		.section	.text.ReadThermocouple,"ax",%progbits
 476              		.align	1
 477              		.p2align 2,,3
 478              		.global	ReadThermocouple
 479              		.syntax unified
 480              		.thumb
 481              		.thumb_func
 482              		.fpu softvfp
 483              		.type	ReadThermocouple, %function
 484              	ReadThermocouple:
 485              	.LFB72:
 486              		.loc 1 631 0
 487              		.cfi_startproc
 488              		@ args = 0, pretend = 0, frame = 24
 489              		@ frame_needed = 0, uses_anonymous_args = 0
 490 0000 70B5     		push	{r4, r5, r6, lr}
 491              		.cfi_def_cfa_offset 16
 492              		.cfi_offset 4, -16
 493              		.cfi_offset 5, -12
 494              		.cfi_offset 6, -8
 495              		.cfi_offset 14, -4
 496              		.loc 1 632 0
 497 0002 0026     		movs	r6, #0
 498              		.loc 1 633 0
 499 0004 174C     		ldr	r4, .L31
 500              		.loc 1 631 0
 501 0006 86B0     		sub	sp, sp, #24
 502              		.cfi_def_cfa_offset 40
 503              		.loc 1 631 0
 504 0008 8DE80F00 		stm	sp, {r0, r1, r2, r3}
 505              		.loc 1 633 0
 506 000c 2046     		mov	r0, r4
 507              		.loc 1 632 0
 508 000e 8DF81460 		strb	r6, [sp, #20]
 509 0012 8DF81560 		strb	r6, [sp, #21]
 510              		.loc 1 633 0
 511 0016 FFF7FEFF 		bl	spiAcquireBus
 512              	.LVL28:
 513              		.loc 1 634 0
ARM GAS  /tmp/cc5bbLhf.s 			page 10


 514 001a 6946     		mov	r1, sp
 515 001c 2046     		mov	r0, r4
 516 001e FFF7FEFF 		bl	spiStart
 517              	.LVL29:
 518              		.loc 1 635 0
 519 0022 2046     		mov	r0, r4
 520 0024 FFF7FEFF 		bl	spiSelect
 521              	.LVL30:
 522              		.loc 1 636 0
 523 0028 05AA     		add	r2, sp, #20
 524 002a 0221     		movs	r1, #2
 525 002c 2046     		mov	r0, r4
 526 002e FFF7FEFF 		bl	spiReceive
 527              	.LVL31:
 528              		.loc 1 637 0
 529 0032 2046     		mov	r0, r4
 530 0034 FFF7FEFF 		bl	spiUnselect
 531              	.LVL32:
 532              		.loc 1 638 0
 533 0038 2046     		mov	r0, r4
 534 003a FFF7FEFF 		bl	spiReleaseBus
 535              	.LVL33:
 536              		.loc 1 639 0
 537 003e 9DF81430 		ldrb	r3, [sp, #20]	@ zero_extendqisi2
 538 0042 9DF81500 		ldrb	r0, [sp, #21]	@ zero_extendqisi2
 539              		.loc 1 640 0
 540 0046 40EA0320 		orr	r0, r0, r3, lsl #8
 541 004a C008     		lsrs	r0, r0, #3
 542 004c FFF7FEFF 		bl	__aeabi_i2d
 543              	.LVL34:
 544 0050 0022     		movs	r2, #0
 545 0052 054B     		ldr	r3, .L31+4
 546 0054 FFF7FEFF 		bl	__aeabi_dmul
 547              	.LVL35:
 548 0058 FFF7FEFF 		bl	__aeabi_d2uiz
 549              	.LVL36:
 550              		.loc 1 642 0
 551 005c 80B2     		uxth	r0, r0
 552 005e 06B0     		add	sp, sp, #24
 553              		.cfi_def_cfa_offset 16
 554              		@ sp needed
 555 0060 70BD     		pop	{r4, r5, r6, pc}
 556              	.L32:
 557 0062 00BF     		.align	2
 558              	.L31:
 559 0064 00000000 		.word	SPID2
 560 0068 0000D03F 		.word	1070596096
 561              		.cfi_endproc
 562              	.LFE72:
 563              		.size	ReadThermocouple, .-ReadThermocouple
 564              		.section	.text.startup.main,"ax",%progbits
 565              		.align	1
 566              		.p2align 2,,3
 567              		.global	main
 568              		.syntax unified
 569              		.thumb
 570              		.thumb_func
ARM GAS  /tmp/cc5bbLhf.s 			page 11


 571              		.fpu softvfp
 572              		.type	main, %function
 573              	main:
 574              	.LFB74:
 575              		.loc 1 682 0
 576              		.cfi_startproc
 577              		@ args = 0, pretend = 0, frame = 0
 578              		@ frame_needed = 0, uses_anonymous_args = 0
 579 0000 10B5     		push	{r4, lr}
 580              		.cfi_def_cfa_offset 8
 581              		.cfi_offset 4, -8
 582              		.cfi_offset 14, -4
 583              		.loc 1 715 0
 584 0002 0024     		movs	r4, #0
 585              		.loc 1 682 0
 586 0004 82B0     		sub	sp, sp, #8
 587              		.cfi_def_cfa_offset 16
 588              		.loc 1 691 0
 589 0006 FFF7FEFF 		bl	halInit
 590              	.LVL37:
 591              		.loc 1 692 0
 592 000a FFF7FEFF 		bl	chSysInit
 593              	.LVL38:
 594              		.loc 1 693 0
 595 000e 4FF47A70 		mov	r0, #1000
 596 0012 FFF7FEFF 		bl	chThdSleep
 597              	.LVL39:
 598              		.loc 1 698 0
 599 0016 1649     		ldr	r1, .L36
 600 0018 1648     		ldr	r0, .L36+4
 601 001a FFF7FEFF 		bl	sdStart
 602              	.LVL40:
 603              		.loc 1 699 0
 604 001e 1649     		ldr	r1, .L36+8
 605 0020 1448     		ldr	r0, .L36+4
 606 0022 FFF7FEFF 		bl	chprintf
 607              	.LVL41:
 608              		.loc 1 700 0
 609 0026 4FF4FA70 		mov	r0, #500
 610 002a FFF7FEFF 		bl	chThdSleep
 611              	.LVL42:
 612              		.loc 1 705 0
 613 002e 1349     		ldr	r1, .L36+12
 614 0030 1348     		ldr	r0, .L36+16
 615 0032 FFF7FEFF 		bl	canStart
 616              	.LVL43:
 617              		.loc 1 715 0
 618 0036 134B     		ldr	r3, .L36+20
 619 0038 4122     		movs	r2, #65
 620 003a 4FF49871 		mov	r1, #304
 621 003e 0094     		str	r4, [sp]
 622 0040 1148     		ldr	r0, .L36+24
 623 0042 FFF7FEFF 		bl	chThdCreateStatic
 624              	.LVL44:
 625              		.loc 1 720 0
 626 0046 114B     		ldr	r3, .L36+28
 627 0048 4722     		movs	r2, #71
ARM GAS  /tmp/cc5bbLhf.s 			page 12


 628 004a 4FF4D871 		mov	r1, #432
 629 004e 0094     		str	r4, [sp]
 630 0050 0F48     		ldr	r0, .L36+32
 631 0052 FFF7FEFF 		bl	chThdCreateStatic
 632              	.LVL45:
 633              		.loc 1 721 0
 634 0056 0094     		str	r4, [sp]
 635 0058 0E4B     		ldr	r3, .L36+36
 636 005a 4522     		movs	r2, #69
 637 005c 4FF4D871 		mov	r1, #432
 638 0060 0D48     		ldr	r0, .L36+40
 639 0062 FFF7FEFF 		bl	chThdCreateStatic
 640              	.LVL46:
 641              	.L34:
 642              		.loc 1 733 0 discriminator 1
 643 0066 41F28830 		movw	r0, #5000
 644 006a FFF7FEFF 		bl	chThdSleep
 645              	.LVL47:
 646 006e FAE7     		b	.L34
 647              	.L37:
 648              		.align	2
 649              	.L36:
 650 0070 00000000 		.word	.LANCHOR1
 651 0074 00000000 		.word	SD3
 652 0078 00000000 		.word	.LC8
 653 007c 00000000 		.word	.LANCHOR2
 654 0080 00000000 		.word	CAND1
 655 0084 00000000 		.word	thd_led_debug
 656 0088 00000000 		.word	.LANCHOR3
 657 008c 00000000 		.word	thd_can_tx
 658 0090 00000000 		.word	.LANCHOR4
 659 0094 00000000 		.word	thd_test_inj_GPIO
 660 0098 00000000 		.word	.LANCHOR5
 661              		.cfi_endproc
 662              	.LFE74:
 663              		.size	main, .-main
 664              		.global	ls_spicfg_cs1
 665              		.global	blinkrate
 666              		.global	Vtps
 667              		.section	.bss.Vtps,"aw",%nobits
 668              		.align	2
 669              		.type	Vtps, %object
 670              		.size	Vtps, 4
 671              	Vtps:
 672 0000 00000000 		.space	4
 673              		.section	.bss.can_tx_wa,"aw",%nobits
 674              		.align	3
 675              		.set	.LANCHOR4,. + 0
 676              		.type	can_tx_wa, %object
 677              		.size	can_tx_wa, 432
 678              	can_tx_wa:
 679 0000 00000000 		.space	432
 679      00000000 
 679      00000000 
 679      00000000 
 679      00000000 
 680              		.section	.bss.waThread1,"aw",%nobits
ARM GAS  /tmp/cc5bbLhf.s 			page 13


 681              		.align	3
 682              		.set	.LANCHOR3,. + 0
 683              		.type	waThread1, %object
 684              		.size	waThread1, 304
 685              	waThread1:
 686 0000 00000000 		.space	304
 686      00000000 
 686      00000000 
 686      00000000 
 686      00000000 
 687              		.section	.bss.waThread4,"aw",%nobits
 688              		.align	3
 689              		.set	.LANCHOR5,. + 0
 690              		.type	waThread4, %object
 691              		.size	waThread4, 432
 692              	waThread4:
 693 0000 00000000 		.space	432
 693      00000000 
 693      00000000 
 693      00000000 
 693      00000000 
 694              		.section	.data.blinkrate,"aw",%progbits
 695              		.align	2
 696              		.set	.LANCHOR0,. + 0
 697              		.type	blinkrate, %object
 698              		.size	blinkrate, 4
 699              	blinkrate:
 700 0000 F4010000 		.word	500
 701              		.section	.rodata.cancfg,"a",%progbits
 702              		.align	2
 703              		.set	.LANCHOR2,. + 0
 704              		.type	cancfg, %object
 705              		.size	cancfg, 8
 706              	cancfg:
 707 0000 00000000 		.word	0
 708 0004 1B001300 		.word	1245211
 709              		.section	.rodata.ls_spicfg_cs1,"a",%progbits
 710              		.align	2
 711              		.type	ls_spicfg_cs1, %object
 712              		.size	ls_spicfg_cs1, 16
 713              	ls_spicfg_cs1:
 714 0000 00000000 		.word	0
 715 0004 40C00920 		.word	537509952
 716 0008 0100     		.short	1
 717 000a 0708     		.short	2055
 718 000c 00000000 		.word	0
 719              		.section	.rodata.main.str1.4,"aMS",%progbits,1
 720              		.align	2
 721              	.LC8:
 722 0000 44656275 		.ascii	"Debug Via Serial Using UART2 \015\012\000"
 722      67205669 
 722      61205365 
 722      7269616C 
 722      20557369 
 723              		.section	.rodata.thd_can_tx.str1.4,"aMS",%progbits,1
 724              		.align	2
 725              	.LC2:
ARM GAS  /tmp/cc5bbLhf.s 			page 14


 726 0000 43414E5F 		.ascii	"CAN_Send_Msg\000"
 726      53656E64 
 726      5F4D7367 
 726      00
 727 000d 000000   		.space	3
 728              	.LC3:
 729 0010 54687265 		.ascii	"Thread - CAN Transmitter\015\012\000"
 729      6164202D 
 729      2043414E 
 729      20547261 
 729      6E736D69 
 730 002b 00       		.space	1
 731              	.LC4:
 732 002c 53756363 		.ascii	"Success Sent CAN msg 1 : %d\015\012\000"
 732      65737320 
 732      53656E74 
 732      2043414E 
 732      206D7367 
 733 004a 0000     		.space	2
 734              	.LC5:
 735 004c 4661696C 		.ascii	"Failed Sent CAN msg 1 : %d\015\012\000"
 735      65642053 
 735      656E7420 
 735      43414E20 
 735      6D736720 
 736 0069 000000   		.space	3
 737              	.LC6:
 738 006c 53756363 		.ascii	"Success Sent CAN msg 2 : %d\015\012\000"
 738      65737320 
 738      53656E74 
 738      2043414E 
 738      206D7367 
 739 008a 0000     		.space	2
 740              	.LC7:
 741 008c 4661696C 		.ascii	"Failed Sent CAN msg 2 : %d\015\012\000"
 741      65642053 
 741      656E7420 
 741      43414E20 
 741      6D736720 
 742              		.section	.rodata.thd_led_debug.str1.4,"aMS",%progbits,1
 743              		.align	2
 744              	.LC1:
 745 0000 426C696E 		.ascii	"Blink_debug\000"
 745      6B5F6465 
 745      62756700 
 746              		.section	.rodata.thd_test_inj_GPIO.str1.4,"aMS",%progbits,1
 747              		.align	2
 748              	.LC0:
 749 0000 54455354 		.ascii	"TEST_INJ_GPIO\000"
 749      5F494E4A 
 749      5F475049 
 749      4F00
 750              		.section	.rodata.uart2_cfg,"a",%progbits
 751              		.align	2
 752              		.set	.LANCHOR1,. + 0
 753              		.type	uart2_cfg, %object
 754              		.size	uart2_cfg, 12
ARM GAS  /tmp/cc5bbLhf.s 			page 15


 755              	uart2_cfg:
 756 0000 00C20100 		.word	115200
 757 0004 03000000 		.word	3
 758 0008 00000000 		.word	0
 759              		.text
 760              	.Letext0:
 761              		.file 2 "/usr/lib/gcc/arm-none-eabi/6.3.1/include/stddef.h"
 762              		.file 3 "/usr/include/newlib/machine/_default_types.h"
 763              		.file 4 "/usr/include/newlib/sys/_stdint.h"
 764              		.file 5 "../os/ports/GCC/ARMCMx/chtypes.h"
 765              		.file 6 "../os/kernel/include/chlists.h"
 766              		.file 7 "../os/kernel/include/chthreads.h"
 767              		.file 8 "../os/ports/GCC/ARMCMx/chcore_v7m.h"
 768              		.file 9 "../os/kernel/include/chvt.h"
 769              		.file 10 "../os/kernel/include/chschd.h"
 770              		.file 11 "../os/kernel/include/chsem.h"
 771              		.file 12 "../os/kernel/include/chmtx.h"
 772              		.file 13 "../os/kernel/include/chevents.h"
 773              		.file 14 "../os/kernel/include/chregistry.h"
 774              		.file 15 "../os/kernel/include/chqueues.h"
 775              		.file 16 "../os/kernel/include/chstreams.h"
 776              		.file 17 "../os/kernel/include/ch.h"
 777              		.file 18 "../os/ports/common/ARMCMx/CMSIS/include/core_cm3.h"
 778              		.file 19 "../os/hal/platforms/LPC17xx/system_LPC17xx.h"
 779              		.file 20 "../os/hal/platforms/LPC17xx/LPC17xx.h"
 780              		.file 21 "../os/hal/platforms/LPC17xx/lpc17xx_dma.h"
 781              		.file 22 "../os/hal/platforms/LPC17xx/pal_lld.h"
 782              		.file 23 "../os/hal/include/adc.h"
 783              		.file 24 "../os/hal/platforms/LPC17xx/adc_lld.h"
 784              		.file 25 "../os/hal/include/can.h"
 785              		.file 26 "../os/hal/platforms/LPC17xx/can_lld.h"
 786              		.file 27 "../os/hal/include/gpt.h"
 787              		.file 28 "../os/hal/platforms/LPC17xx/gpt_lld.h"
 788              		.file 29 "../os/hal/include/serial.h"
 789              		.file 30 "../os/hal/platforms/LPC17xx/serial_lld.h"
 790              		.file 31 "../os/hal/include/spi.h"
 791              		.file 32 "../os/hal/platforms/LPC17xx/spi_lld.h"
 792              		.file 33 "/usr/include/newlib/sys/lock.h"
 793              		.file 34 "/usr/include/newlib/sys/_types.h"
 794              		.file 35 "/usr/include/newlib/sys/reent.h"
 795              		.file 36 "/usr/include/newlib/stdlib.h"
 796              		.file 37 "../os/hal/include/hal.h"
 797              		.file 38 "../os/kernel/include/chsys.h"
 798              		.file 39 "../os/various/chprintf.h"