ARM GAS  /tmp/ccxox4Ym.s 			page 1


   1              		.cpu cortex-m3
   2              		.eabi_attribute 20, 1
   3              		.eabi_attribute 21, 1
   4              		.eabi_attribute 23, 3
   5              		.eabi_attribute 24, 1
   6              		.eabi_attribute 25, 1
   7              		.eabi_attribute 26, 1
   8              		.eabi_attribute 30, 2
   9              		.eabi_attribute 34, 1
  10              		.eabi_attribute 18, 4
  11              		.file	"memstreams.c"
  12              		.text
  13              	.Ltext0:
  14              		.cfi_sections	.debug_frame
  15              		.section	.text.put,"ax",%progbits
  16              		.align	1
  17              		.p2align 2,,3
  18              		.syntax unified
  19              		.thumb
  20              		.thumb_func
  21              		.fpu softvfp
  22              		.type	put, %function
  23              	put:
  24              	.LFB9:
  25              		.file 1 "../os/various/memstreams.c"
  26              		.loc 1 66 0
  27              		.cfi_startproc
  28              		@ args = 0, pretend = 0, frame = 0
  29              		@ frame_needed = 0, uses_anonymous_args = 0
  30              		@ link register save eliminated.
  31              	.LVL0:
  32              		.loc 1 69 0
  33 0000 C268     		ldr	r2, [r0, #12]
  34              		.loc 1 66 0
  35 0002 0346     		mov	r3, r0
  36              	.LVL1:
  37              		.loc 1 69 0
  38 0004 8068     		ldr	r0, [r0, #8]
  39              	.LVL2:
  40 0006 9042     		cmp	r0, r2
  41 0008 08D0     		beq	.L3
  42              		.loc 1 66 0
  43 000a 10B4     		push	{r4}
  44              		.cfi_def_cfa_offset 4
  45              		.cfi_offset 4, -4
  46              		.loc 1 71 0
  47 000c 5C68     		ldr	r4, [r3, #4]
  48              		.loc 1 73 0
  49 000e 0020     		movs	r0, #0
  50              		.loc 1 71 0
  51 0010 A154     		strb	r1, [r4, r2]
  52              		.loc 1 72 0
  53 0012 DA68     		ldr	r2, [r3, #12]
  54              		.loc 1 74 0
  55 0014 10BC     		pop	{r4}
  56              		.cfi_restore 4
  57              		.cfi_def_cfa_offset 0
ARM GAS  /tmp/ccxox4Ym.s 			page 2


  58              		.loc 1 72 0
  59 0016 0132     		adds	r2, r2, #1
  60 0018 DA60     		str	r2, [r3, #12]
  61              		.loc 1 74 0
  62 001a 7047     		bx	lr
  63              	.L3:
  64              		.loc 1 70 0
  65 001c 6FF00100 		mvn	r0, #1
  66 0020 7047     		bx	lr
  67              		.cfi_endproc
  68              	.LFE9:
  69              		.size	put, .-put
  70 0022 00BF     		.section	.text.get,"ax",%progbits
  71              		.align	1
  72              		.p2align 2,,3
  73              		.syntax unified
  74              		.thumb
  75              		.thumb_func
  76              		.fpu softvfp
  77              		.type	get, %function
  78              	get:
  79              	.LFB10:
  80              		.loc 1 76 0
  81              		.cfi_startproc
  82              		@ args = 0, pretend = 0, frame = 0
  83              		@ frame_needed = 0, uses_anonymous_args = 0
  84              		@ link register save eliminated.
  85              	.LVL3:
  86              		.loc 1 80 0
  87 0000 0369     		ldr	r3, [r0, #16]
  88 0002 C268     		ldr	r2, [r0, #12]
  89 0004 9A42     		cmp	r2, r3
  90 0006 05D0     		beq	.L11
  91              		.loc 1 82 0
  92 0008 4168     		ldr	r1, [r0, #4]
  93              		.loc 1 83 0
  94 000a 5A1C     		adds	r2, r3, #1
  95              		.loc 1 82 0
  96 000c CB5C     		ldrb	r3, [r1, r3]	@ zero_extendqisi2
  97              	.LVL4:
  98              		.loc 1 83 0
  99 000e 0261     		str	r2, [r0, #16]
 100              		.loc 1 84 0
 101 0010 1846     		mov	r0, r3
 102              	.LVL5:
 103 0012 7047     		bx	lr
 104              	.LVL6:
 105              	.L11:
 106              		.loc 1 81 0
 107 0014 6FF00100 		mvn	r0, #1
 108              	.LVL7:
 109              		.loc 1 85 0
 110 0018 7047     		bx	lr
 111              		.cfi_endproc
 112              	.LFE10:
 113              		.size	get, .-get
 114 001a 00BF     		.section	.text.reads,"ax",%progbits
ARM GAS  /tmp/ccxox4Ym.s 			page 3


 115              		.align	1
 116              		.p2align 2,,3
 117              		.syntax unified
 118              		.thumb
 119              		.thumb_func
 120              		.fpu softvfp
 121              		.type	reads, %function
 122              	reads:
 123              	.LFB8:
 124              		.loc 1 56 0
 125              		.cfi_startproc
 126              		@ args = 0, pretend = 0, frame = 0
 127              		@ frame_needed = 0, uses_anonymous_args = 0
 128              	.LVL8:
 129 0000 38B5     		push	{r3, r4, r5, lr}
 130              		.cfi_def_cfa_offset 16
 131              		.cfi_offset 3, -16
 132              		.cfi_offset 4, -12
 133              		.cfi_offset 5, -8
 134              		.cfi_offset 14, -4
 135              		.loc 1 59 0
 136 0002 0369     		ldr	r3, [r0, #16]
 137 0004 C468     		ldr	r4, [r0, #12]
 138              		.loc 1 56 0
 139 0006 0546     		mov	r5, r0
 140              	.LVL9:
 141              		.loc 1 59 0
 142 0008 E41A     		subs	r4, r4, r3
 143 000a 9442     		cmp	r4, r2
 144 000c 28BF     		it	cs
 145 000e 1446     		movcs	r4, r2
 146              	.LVL10:
 147              		.loc 1 61 0
 148 0010 4268     		ldr	r2, [r0, #4]
 149 0012 0846     		mov	r0, r1
 150              	.LVL11:
 151 0014 D118     		adds	r1, r2, r3
 152              	.LVL12:
 153 0016 2246     		mov	r2, r4
 154 0018 FFF7FEFF 		bl	memcpy
 155              	.LVL13:
 156              		.loc 1 62 0
 157 001c 2B69     		ldr	r3, [r5, #16]
 158              		.loc 1 64 0
 159 001e 2046     		mov	r0, r4
 160              		.loc 1 62 0
 161 0020 1C44     		add	r4, r4, r3
 162              	.LVL14:
 163 0022 2C61     		str	r4, [r5, #16]
 164              		.loc 1 64 0
 165 0024 38BD     		pop	{r3, r4, r5, pc}
 166              		.cfi_endproc
 167              	.LFE8:
 168              		.size	reads, .-reads
 169 0026 00BF     		.section	.text.writes,"ax",%progbits
 170              		.align	1
 171              		.p2align 2,,3
ARM GAS  /tmp/ccxox4Ym.s 			page 4


 172              		.syntax unified
 173              		.thumb
 174              		.thumb_func
 175              		.fpu softvfp
 176              		.type	writes, %function
 177              	writes:
 178              	.LFB7:
 179              		.loc 1 46 0
 180              		.cfi_startproc
 181              		@ args = 0, pretend = 0, frame = 0
 182              		@ frame_needed = 0, uses_anonymous_args = 0
 183              	.LVL15:
 184 0000 38B5     		push	{r3, r4, r5, lr}
 185              		.cfi_def_cfa_offset 16
 186              		.cfi_offset 3, -16
 187              		.cfi_offset 4, -12
 188              		.cfi_offset 5, -8
 189              		.cfi_offset 14, -4
 190              		.loc 1 49 0
 191 0002 C368     		ldr	r3, [r0, #12]
 192 0004 8468     		ldr	r4, [r0, #8]
 193              		.loc 1 46 0
 194 0006 0546     		mov	r5, r0
 195              	.LVL16:
 196              		.loc 1 49 0
 197 0008 E41A     		subs	r4, r4, r3
 198 000a 9442     		cmp	r4, r2
 199 000c 28BF     		it	cs
 200 000e 1446     		movcs	r4, r2
 201              	.LVL17:
 202              		.loc 1 51 0
 203 0010 4068     		ldr	r0, [r0, #4]
 204              	.LVL18:
 205 0012 2246     		mov	r2, r4
 206 0014 1844     		add	r0, r0, r3
 207 0016 FFF7FEFF 		bl	memcpy
 208              	.LVL19:
 209              		.loc 1 52 0
 210 001a EB68     		ldr	r3, [r5, #12]
 211              		.loc 1 54 0
 212 001c 2046     		mov	r0, r4
 213              		.loc 1 52 0
 214 001e 1C44     		add	r4, r4, r3
 215              	.LVL20:
 216 0020 EC60     		str	r4, [r5, #12]
 217              		.loc 1 54 0
 218 0022 38BD     		pop	{r3, r4, r5, pc}
 219              		.cfi_endproc
 220              	.LFE7:
 221              		.size	writes, .-writes
 222              		.section	.text.msObjectInit,"ax",%progbits
 223              		.align	1
 224              		.p2align 2,,3
 225              		.global	msObjectInit
 226              		.syntax unified
 227              		.thumb
 228              		.thumb_func
ARM GAS  /tmp/ccxox4Ym.s 			page 5


 229              		.fpu softvfp
 230              		.type	msObjectInit, %function
 231              	msObjectInit:
 232              	.LFB11:
 233              		.loc 1 104 0
 234              		.cfi_startproc
 235              		@ args = 0, pretend = 0, frame = 0
 236              		@ frame_needed = 0, uses_anonymous_args = 0
 237              		@ link register save eliminated.
 238              	.LVL21:
 239 0000 30B4     		push	{r4, r5}
 240              		.cfi_def_cfa_offset 8
 241              		.cfi_offset 4, -8
 242              		.cfi_offset 5, -4
 243              		.loc 1 110 0
 244 0002 0024     		movs	r4, #0
 245              		.loc 1 106 0
 246 0004 034D     		ldr	r5, .L18
 247              		.loc 1 110 0
 248 0006 0461     		str	r4, [r0, #16]
 249              		.loc 1 106 0
 250 0008 0560     		str	r5, [r0]
 251              		.loc 1 107 0
 252 000a 4160     		str	r1, [r0, #4]
 253              		.loc 1 108 0
 254 000c 8260     		str	r2, [r0, #8]
 255              		.loc 1 109 0
 256 000e C360     		str	r3, [r0, #12]
 257              		.loc 1 111 0
 258 0010 30BC     		pop	{r4, r5}
 259              		.cfi_restore 5
 260              		.cfi_restore 4
 261              		.cfi_def_cfa_offset 0
 262 0012 7047     		bx	lr
 263              	.L19:
 264              		.align	2
 265              	.L18:
 266 0014 00000000 		.word	.LANCHOR0
 267              		.cfi_endproc
 268              	.LFE11:
 269              		.size	msObjectInit, .-msObjectInit
 270              		.section	.rodata.vmt,"a",%progbits
 271              		.align	2
 272              		.set	.LANCHOR0,. + 0
 273              		.type	vmt, %object
 274              		.size	vmt, 16
 275              	vmt:
 276 0000 00000000 		.word	writes
 277 0004 00000000 		.word	reads
 278 0008 00000000 		.word	put
 279 000c 00000000 		.word	get
 280              		.text
 281              	.Letext0:
 282              		.file 2 "/usr/lib/gcc/arm-none-eabi/6.3.1/include/stddef.h"
 283              		.file 3 "/usr/include/newlib/machine/_default_types.h"
 284              		.file 4 "/usr/include/newlib/sys/lock.h"
 285              		.file 5 "/usr/include/newlib/sys/_types.h"
ARM GAS  /tmp/ccxox4Ym.s 			page 6


 286              		.file 6 "/usr/include/newlib/sys/reent.h"
 287              		.file 7 "/usr/include/newlib/sys/_stdint.h"
 288              		.file 8 "../os/ports/GCC/ARMCMx/chtypes.h"
 289              		.file 9 "../os/kernel/include/chlists.h"
 290              		.file 10 "../os/kernel/include/chthreads.h"
 291              		.file 11 "../os/ports/GCC/ARMCMx/chcore_v7m.h"
 292              		.file 12 "../os/kernel/include/chvt.h"
 293              		.file 13 "../os/kernel/include/chschd.h"
 294              		.file 14 "../os/kernel/include/chmtx.h"
 295              		.file 15 "../os/kernel/include/chregistry.h"
 296              		.file 16 "../os/kernel/include/ch.h"
 297              		.file 17 "../os/various/memstreams.h"