ARM GAS  /tmp/ccxox4Ym.s 			page 1


   1              		.cpu cortex-m3
   2              		.eabi_attribute 20, 1
   3              		.eabi_attribute 21, 1
   4              		.eabi_attribute 23, 3
   5              		.eabi_attribute 24, 1
   6              		.eabi_attribute 25, 1
   7              		.eabi_attribute 26, 1
   8              		.eabi_attribute 30, 2
   9              		.eabi_attribute 34, 1
  10              		.eabi_attribute 18, 4
  11              		.file	"memstreams.c"
  12              		.text
  13              	.Ltext0:
  14              		.cfi_sections	.debug_frame
  15              		.section	.text.put,"ax",%progbits
  16              		.align	1
  17              		.p2align 2,,3
  18              		.syntax unified
  19              		.thumb
  20              		.thumb_func
  21              		.fpu softvfp
  22              		.type	put, %function
  23              	put:
  24              	.LFB9:
  25              		.file 1 "../os/various/memstreams.c"
  26              		.loc 1 66 0
  27              		.cfi_startproc
  28              		@ args = 0, pretend = 0, frame = 0
  29              		@ frame_needed = 0, uses_anonymous_args = 0
  30              		@ link register save eliminated.
  31              	.LVL0:
  32              		.loc 1 69 0
  33 0000 C268     		ldr	r2, [r0, #12]
  34              		.loc 1 66 0
  35 0002 0346     		mov	r3, r0
  36              	.LVL1:
  37              		.loc 1 69 0
  38 0004 8068     		ldr	r0, [r0, #8]
  39              	.LVL2:
  40 0006 9042     		cmp	r0, r2
  41 0008 08D0     		beq	.L3
  42              		.loc 1 66 0
  43 000a 10B4     		push	{r4}
  44              		.cfi_def_cfa_offset 4
  45              		.cfi_offset 4, -4
  46              		.loc 1 71 0
  47 000c 5C68     		ldr	r4, [r3, #4]
  48              		.loc 1 73 0
  49 000e 0020     		movs	r0, #0
  50              		.loc 1 71 0
  51 0010 A154     		strb	r1, [r4, r2]
  52              		.loc 1 72 0
  53 0012 DA68     		ldr	r2, [r3, #12]
  54              		.loc 1 74 0
  55 0014 10BC     		pop	{r4}
  56              		.cfi_restore 4
  57              		.cfi_def_cfa_offset 0
ARM GAS  /tmp/ccxox4Ym.s 			page 2


  58              		.loc 1 72 0
  59 0016 0132     		adds	r2, r2, #1
  60 0018 DA60     		str	r2, [r3, #12]
  61              		.loc 1 74 0
  62 001a 7047     		bx	lr
  63              	.L3:
  64              		.loc 1 70 0
  65 001c 6FF00100 		mvn	r0, #1
  66 0020 7047     		bx	lr
  67              		.cfi_endproc
  68              	.LFE9:
  69              		.size	put, .-put
  70 0022 00BF     		.section	.text.get,"ax",%progbits
  71              		.align	1
  72              		.p2align 2,,3
  73              		.syntax unified
  74              		.thumb
  75              		.thumb_func
  76              		.fpu softvfp
  77              		.type	get, %function
  78              	get:
  79              	.LFB10:
  80              		.loc 1 76 0
  81              		.cfi_startproc
  82              		@ args = 0, pretend = 0, frame = 0
  83              		@ frame_needed = 0, uses_anonymous_args = 0
  84              		@ link register save eliminated.
  85              	.LVL3:
  86              		.loc 1 80 0
  87 0000 0369     		ldr	r3, [r0, #16]
  88 0002 C268     		ldr	r2, [r0, #12]
  89 0004 9A42     		cmp	r2, r3
  90 0006 05D0     		beq	.L11
  91              		.loc 1 82 0
  92 0008 4168     		ldr	r1, [r0, #4]
  93              		.loc 1 83 0
  94 000a 5A1C     		adds	r2, r3, #1
  95              		.loc 1 82 0
  96 000c CB5C     		ldrb	r3, [r1, r3]	@ zero_extendqisi2
  97              	.LVL4:
  98              		.loc 1 83 0
  99 000e 0261     		str	r2, [r0, #16]
 100              		.loc 1 84 0
 101 0010 1846     		mov	r0, r3
 102              	.LVL5:
 103 0012 7047     		bx	lr
 104              	.LVL6:
 105              	.L11:
 106              		.loc 1 81 0
 107 0014 6FF00100 		mvn	r0, #1
 108              	.LVL7:
 109              		.loc 1 85 0
 110 0018 7047     		bx	lr
 111              		.cfi_endproc
 112              	.LFE10:
 113              		.size	get, .-get
 114 001a 00BF     		.section	.text.reads,"ax",%progbits
ARM GAS  /tmp/ccxox4Ym.s 			page 3


 115              		.align	1
 116              		.p2align 2,,3
 117              		.syntax unified
 118              		.thumb
 119              		.thumb_func
 120              		.fpu softvfp
 121              		.type	reads, %function
 122              	reads:
 123              	.LFB8:
 124              		.loc 1 56 0
 125              		.cfi_startproc
 126              		@ args = 0, pretend = 0, frame = 0
 127              		@ frame_needed = 0, uses_anonymous_args = 0
 128              	.LVL8:
 129 0000 38B5     		push	{r3, r4, r5, lr}
 130              		.cfi_def_cfa_offset 16
 131              		.cfi_offset 3, -16
 132              		.cfi_offset 4, -12
 133              		.cfi_offset 5, -8
 134              		.cfi_offset 14, -4
 135              		.loc 1 59 0
 136 0002 0369     		ldr	r3, [r0, #16]
 137 0004 C468     		ldr	r4, [r0, #12]
 138              		.loc 1 56 0
 139 0006 0546     		mov	r5, r0
 140              	.LVL9:
 141              		.loc 1 59 0
 142 0008 E41A     		subs	r4, r4, r3
 143 000a 9442     		cmp	r4, r2
 144 000c 28BF     		it	cs
 145 000e 1446     		movcs	r4, r2
 146              	.LVL10:
 147              		.loc 1 61 0
 148 0010 4268     		ldr	r2, [r0, #4]
 149 0012 0846     		mov	r0, r1
 150              	.LVL11:
 151 0014 D118     		adds	r1, r2, r3
 152              	.LVL12:
 153 0016 2246     		mov	r2, r4
 154 0018 FFF7FEFF 		bl	memcpy
 155              	.LVL13:
 156              		.loc 1 62 0
 157 001c 2B69     		ldr	r3, [r5, #16]
 158              		.loc 1 64 0
 159 001e 2046     		mov	r0, r4
 160              		.loc 1 62 0
 161 0020 1C44     		add	r4, r4, r3
 162              	.LVL14:
 163 0022 2C61     		str	r4, [r5, #16]
 164              		.loc 1 64 0
 165 0024 38BD     		pop	{r3, r4, r5, pc}
 166              		.cfi_endproc
 167              	.LFE8:
 168              		.size	reads, .-reads
 169 0026 00BF     		.section	.text.writes,"ax",%progbits
 170              		.align	1
 171              		.p2align 2,,3
ARM GAS  /tmp/ccxox4Ym.s 			page 4


 172              		.syntax unified
 173              		.thumb
 174              		.thumb_func
 175              		.fpu softvfp
 176              		.type	writes, %function
 177              	writes:
 178              	.LFB7:
 179              		.loc 1 46 0
 180              		.cfi_startproc
 181              		@ args = 0, pretend = 0, frame = 0
 182              		@ frame_needed = 0, uses_anonymous_args = 0
 183              	.LVL15:
 184 0000 38B5     		push	{r3, r4, r5, lr}
 185              		.cfi_def_cfa_offset 16
 186              		.cfi_offset 3, -16
 187              		.cfi_offset 4, -12
 188              		.cfi_offset 5, -8
 189              		.cfi_offset 14, -4
 190              		.loc 1 49 0
 191 0002 C368     		ldr	r3, [r0, #12]
 192 0004 8468     		ldr	r4, [r0, #8]
 193              		.loc 1 46 0
 194 0006 0546     		mov	r5, r0
 195              	.LVL16:
 196              		.loc 1 49 0
 197 0008 E41A     		subs	r4, r4, r3
 198 000a 9442     		cmp	r4, r2
 199 000c 28BF     		it	cs
 200 000e 1446     		movcs	r4, r2
 201              	.LVL17:
 202              		.loc 1 51 0
 203 0010 4068     		ldr	r0, [r0, #4]
 204              	.LVL18:
 205 0012 2246     		mov	r2, r4
 206 0014 1844     		add	r0, r0, r3
 207 0016 FFF7FEFF 		bl	memcpy
 208              	.LVL19:
 209              		.loc 1 52 0
 210 001a EB68     		ldr	r3, [r5, #12]
 211              		.loc 1 54 0
 212 001c 2046     		mov	r0, r4
 213              		.loc 1 52 0
 214 001e 1C44     		add	r4, r4, r3
 215              	.LVL20:
 216 0020 EC60     		str	r4, [r5, #12]
 217              		.loc 1 54 0
 218 0022 38BD     		pop	{r3, r4, r5, pc}
 219              		.cfi_endproc
 220              	.LFE7:
 221              		.size	writes, .-writes
 222              		.section	.text.msObjectInit,"ax",%progbits
 223              		.align	1
 224              		.p2align 2,,3
 225              		.global	msObjectInit
 226              		.syntax unified
 227              		.thumb
 228              		.thumb_func
ARM GAS  /tmp/ccxox4Ym.s 			page 5


 229              		.fpu softvfp
 230              		.type	msObjectInit, %function
 231              	msObjectInit:
 232              	.LFB11:
 233              		.loc 1 104 0
 234              		.cfi_startproc
 235              		@ args = 0, pretend = 0, frame = 0
 236              		@ frame_needed = 0, uses_anonymous_args = 0
 237              		@ link register save eliminated.
 238              	.LVL21:
 239 0000 30B4     		push	{r4, r5}
 240              		.cfi_def_cfa_offset 8
 241              		.cfi_offset 4, -8
 242              		.cfi_offset 5, -4
 243              		.loc 1 110 0
 244 0002 0024     		movs	r4, #0
 245              		.loc 1 106 0
 246 0004 034D     		ldr	r5, .L18
 247              		.loc 1 110 0
 248 0006 0461     		str	r4, [r0, #16]
 249              		.loc 1 106 0
 250 0008 0560     		str	r5, [r0]
 251              		.loc 1 107 0
 252 000a 4160     		str	r1, [r0, #4]
 253              		.loc 1 108 0
 254 000c 8260     		str	r2, [r0, #8]
 255              		.loc 1 109 0
 256 000e C360     		str	r3, [r0, #12]
 257              		.loc 1 111 0
 258 0010 30BC     		pop	{r4, r5}
 259              		.cfi_restore 5
 260              		.cfi_restore 4
 261              		.cfi_def_cfa_offset 0
 262 0012 7047     		bx	lr
 263              	.L19:
 264              		.align	2
 265              	.L18:
 266 0014 00000000 		.word	.LANCHOR0
 267              		.cfi_endproc
 268              	.LFE11:
 269              		.size	msObjectInit, .-msObjectInit
 270              		.section	.rodata.vmt,"a",%progbits
 271              		.align	2
 272              		.set	.LANCHOR0,. + 0
 273              		.type	vmt, %object
 274              		.size	vmt, 16
 275              	vmt:
 276 0000 00000000 		.word	writes
 277 0004 00000000 		.word	reads
 278 0008 00000000 		.word	put
 279 000c 00000000 		.word	get
 280              		.text
 281              	.Letext0:
 282              		.file 2 "/usr/lib/gcc/arm-none-eabi/6.3.1/include/stddef.h"
 283              		.file 3 "/usr/include/newlib/machine/_default_types.h"
 284              		.file 4 "/usr/include/newlib/sys/lock.h"
 285              		.file 5 "/usr/include/newlib/sys/_types.h"
ARM GAS  /tmp/ccxox4Ym.s 			page 6


 286              		.file 6 "/usr/include/newlib/sys/reent.h"
 287              		.file 7 "/usr/include/newlib/sys/_stdint.h"
 288              		.file 8 "../os/ports/GCC/ARMCMx/chtypes.h"
 289              		.file 9 "../os/kernel/include/chlists.h"
 290              		.file 10 "../os/kernel/include/chthreads.h"
 291              		.file 11 "../os/ports/GCC/ARMCMx/chcore_v7m.h"
 292              		.file 12 "../os/kernel/include/chvt.h"
 293              		.file 13 "../os/kernel/include/chschd.h"
 294              		.file 14 "../os/kernel/include/chmtx.h"
 295              		.file 15 "../os/kernel/include/chregistry.h"
 296              		.file 16 "../os/kernel/include/ch.h"
 297              		.file 17 "../os/various/memstreams.h"
 298              		.section	.debug_info,"",%progbits
 299              	.Ldebug_info0:
 300 0000 14110000 		.4byte	0x1114
 301 0004 0400     		.2byte	0x4
 302 0006 00000000 		.4byte	.Ldebug_abbrev0
 303 000a 04       		.byte	0x4
 304 000b 01       		.uleb128 0x1
 305 000c F8040000 		.4byte	.LASF222
 306 0010 0C       		.byte	0xc
 307 0011 DD060000 		.4byte	.LASF223
 308 0015 C6080000 		.4byte	.LASF224
 309 0019 00000000 		.4byte	.Ldebug_ranges0+0
 310 001d 00000000 		.4byte	0
 311 0021 00000000 		.4byte	.Ldebug_line0
 312 0025 02       		.uleb128 0x2
 313 0026 04       		.byte	0x4
 314 0027 05       		.byte	0x5
 315 0028 696E7400 		.ascii	"int\000"
 316 002c 03       		.uleb128 0x3
 317 002d 6D020000 		.4byte	.LASF4
 318 0031 02       		.byte	0x2
 319 0032 D8       		.byte	0xd8
 320 0033 37000000 		.4byte	0x37
 321 0037 04       		.uleb128 0x4
 322 0038 04       		.byte	0x4
 323 0039 07       		.byte	0x7
 324 003a 98000000 		.4byte	.LASF0
 325 003e 04       		.uleb128 0x4
 326 003f 08       		.byte	0x8
 327 0040 05       		.byte	0x5
 328 0041 DD030000 		.4byte	.LASF1
 329 0045 04       		.uleb128 0x4
 330 0046 08       		.byte	0x8
 331 0047 04       		.byte	0x4
 332 0048 D5040000 		.4byte	.LASF2
 333 004c 04       		.uleb128 0x4
 334 004d 01       		.byte	0x1
 335 004e 06       		.byte	0x6
 336 004f 09080000 		.4byte	.LASF3
 337 0053 03       		.uleb128 0x3
 338 0054 86060000 		.4byte	.LASF5
 339 0058 03       		.byte	0x3
 340 0059 1D       		.byte	0x1d
 341 005a 5E000000 		.4byte	0x5e
 342 005e 04       		.uleb128 0x4
ARM GAS  /tmp/ccxox4Ym.s 			page 7


 343 005f 01       		.byte	0x1
 344 0060 08       		.byte	0x8
 345 0061 73070000 		.4byte	.LASF6
 346 0065 04       		.uleb128 0x4
 347 0066 02       		.byte	0x2
 348 0067 05       		.byte	0x5
 349 0068 B2050000 		.4byte	.LASF7
 350 006c 03       		.uleb128 0x3
 351 006d 33020000 		.4byte	.LASF8
 352 0071 03       		.byte	0x3
 353 0072 2B       		.byte	0x2b
 354 0073 77000000 		.4byte	0x77
 355 0077 04       		.uleb128 0x4
 356 0078 02       		.byte	0x2
 357 0079 07       		.byte	0x7
 358 007a 29080000 		.4byte	.LASF9
 359 007e 03       		.uleb128 0x3
 360 007f B5000000 		.4byte	.LASF10
 361 0083 03       		.byte	0x3
 362 0084 3F       		.byte	0x3f
 363 0085 89000000 		.4byte	0x89
 364 0089 04       		.uleb128 0x4
 365 008a 04       		.byte	0x4
 366 008b 05       		.byte	0x5
 367 008c D9050000 		.4byte	.LASF11
 368 0090 03       		.uleb128 0x3
 369 0091 81070000 		.4byte	.LASF12
 370 0095 03       		.byte	0x3
 371 0096 41       		.byte	0x41
 372 0097 9B000000 		.4byte	0x9b
 373 009b 04       		.uleb128 0x4
 374 009c 04       		.byte	0x4
 375 009d 07       		.byte	0x7
 376 009e 16070000 		.4byte	.LASF13
 377 00a2 03       		.uleb128 0x3
 378 00a3 C4020000 		.4byte	.LASF14
 379 00a7 03       		.byte	0x3
 380 00a8 5B       		.byte	0x5b
 381 00a9 AD000000 		.4byte	0xad
 382 00ad 04       		.uleb128 0x4
 383 00ae 08       		.byte	0x8
 384 00af 07       		.byte	0x7
 385 00b0 02020000 		.4byte	.LASF15
 386 00b4 03       		.uleb128 0x3
 387 00b5 F0000000 		.4byte	.LASF16
 388 00b9 04       		.byte	0x4
 389 00ba 07       		.byte	0x7
 390 00bb 25000000 		.4byte	0x25
 391 00bf 03       		.uleb128 0x3
 392 00c0 7C080000 		.4byte	.LASF17
 393 00c4 05       		.byte	0x5
 394 00c5 2C       		.byte	0x2c
 395 00c6 89000000 		.4byte	0x89
 396 00ca 03       		.uleb128 0x3
 397 00cb 47010000 		.4byte	.LASF18
 398 00cf 05       		.byte	0x5
 399 00d0 72       		.byte	0x72
ARM GAS  /tmp/ccxox4Ym.s 			page 8


 400 00d1 89000000 		.4byte	0x89
 401 00d5 05       		.uleb128 0x5
 402 00d6 3C070000 		.4byte	.LASF19
 403 00da 02       		.byte	0x2
 404 00db 6501     		.2byte	0x165
 405 00dd 37000000 		.4byte	0x37
 406 00e1 06       		.uleb128 0x6
 407 00e2 04       		.byte	0x4
 408 00e3 05       		.byte	0x5
 409 00e4 A6       		.byte	0xa6
 410 00e5 00010000 		.4byte	0x100
 411 00e9 07       		.uleb128 0x7
 412 00ea 88030000 		.4byte	.LASF20
 413 00ee 05       		.byte	0x5
 414 00ef A8       		.byte	0xa8
 415 00f0 D5000000 		.4byte	0xd5
 416 00f4 07       		.uleb128 0x7
 417 00f5 1A060000 		.4byte	.LASF21
 418 00f9 05       		.byte	0x5
 419 00fa A9       		.byte	0xa9
 420 00fb 00010000 		.4byte	0x100
 421 00ff 00       		.byte	0
 422 0100 08       		.uleb128 0x8
 423 0101 5E000000 		.4byte	0x5e
 424 0105 10010000 		.4byte	0x110
 425 0109 09       		.uleb128 0x9
 426 010a 10010000 		.4byte	0x110
 427 010e 03       		.byte	0x3
 428 010f 00       		.byte	0
 429 0110 04       		.uleb128 0x4
 430 0111 04       		.byte	0x4
 431 0112 07       		.byte	0x7
 432 0113 05070000 		.4byte	.LASF22
 433 0117 0A       		.uleb128 0xa
 434 0118 08       		.byte	0x8
 435 0119 05       		.byte	0x5
 436 011a A3       		.byte	0xa3
 437 011b 38010000 		.4byte	0x138
 438 011f 0B       		.uleb128 0xb
 439 0120 B5010000 		.4byte	.LASF23
 440 0124 05       		.byte	0x5
 441 0125 A5       		.byte	0xa5
 442 0126 25000000 		.4byte	0x25
 443 012a 00       		.byte	0
 444 012b 0B       		.uleb128 0xb
 445 012c D5020000 		.4byte	.LASF24
 446 0130 05       		.byte	0x5
 447 0131 AA       		.byte	0xaa
 448 0132 E1000000 		.4byte	0xe1
 449 0136 04       		.byte	0x4
 450 0137 00       		.byte	0
 451 0138 03       		.uleb128 0x3
 452 0139 73040000 		.4byte	.LASF25
 453 013d 05       		.byte	0x5
 454 013e AB       		.byte	0xab
 455 013f 17010000 		.4byte	0x117
 456 0143 03       		.uleb128 0x3
ARM GAS  /tmp/ccxox4Ym.s 			page 9


 457 0144 6F030000 		.4byte	.LASF26
 458 0148 05       		.byte	0x5
 459 0149 AF       		.byte	0xaf
 460 014a B4000000 		.4byte	0xb4
 461 014e 0C       		.uleb128 0xc
 462 014f 04       		.byte	0x4
 463 0150 0D       		.uleb128 0xd
 464 0151 04       		.byte	0x4
 465 0152 56010000 		.4byte	0x156
 466 0156 04       		.uleb128 0x4
 467 0157 01       		.byte	0x1
 468 0158 08       		.byte	0x8
 469 0159 1F030000 		.4byte	.LASF27
 470 015d 0E       		.uleb128 0xe
 471 015e 56010000 		.4byte	0x156
 472 0162 03       		.uleb128 0x3
 473 0163 0F040000 		.4byte	.LASF28
 474 0167 06       		.byte	0x6
 475 0168 16       		.byte	0x16
 476 0169 9B000000 		.4byte	0x9b
 477 016d 0F       		.uleb128 0xf
 478 016e 5C010000 		.4byte	.LASF33
 479 0172 18       		.byte	0x18
 480 0173 06       		.byte	0x6
 481 0174 2D       		.byte	0x2d
 482 0175 C0010000 		.4byte	0x1c0
 483 0179 0B       		.uleb128 0xb
 484 017a AD020000 		.4byte	.LASF29
 485 017e 06       		.byte	0x6
 486 017f 2F       		.byte	0x2f
 487 0180 C0010000 		.4byte	0x1c0
 488 0184 00       		.byte	0
 489 0185 10       		.uleb128 0x10
 490 0186 5F6B00   		.ascii	"_k\000"
 491 0189 06       		.byte	0x6
 492 018a 30       		.byte	0x30
 493 018b 25000000 		.4byte	0x25
 494 018f 04       		.byte	0x4
 495 0190 0B       		.uleb128 0xb
 496 0191 9D060000 		.4byte	.LASF30
 497 0195 06       		.byte	0x6
 498 0196 30       		.byte	0x30
 499 0197 25000000 		.4byte	0x25
 500 019b 08       		.byte	0x8
 501 019c 0B       		.uleb128 0xb
 502 019d E7050000 		.4byte	.LASF31
 503 01a1 06       		.byte	0x6
 504 01a2 30       		.byte	0x30
 505 01a3 25000000 		.4byte	0x25
 506 01a7 0C       		.byte	0xc
 507 01a8 0B       		.uleb128 0xb
 508 01a9 2E020000 		.4byte	.LASF32
 509 01ad 06       		.byte	0x6
 510 01ae 30       		.byte	0x30
 511 01af 25000000 		.4byte	0x25
 512 01b3 10       		.byte	0x10
 513 01b4 10       		.uleb128 0x10
ARM GAS  /tmp/ccxox4Ym.s 			page 10


 514 01b5 5F7800   		.ascii	"_x\000"
 515 01b8 06       		.byte	0x6
 516 01b9 31       		.byte	0x31
 517 01ba C6010000 		.4byte	0x1c6
 518 01be 14       		.byte	0x14
 519 01bf 00       		.byte	0
 520 01c0 0D       		.uleb128 0xd
 521 01c1 04       		.byte	0x4
 522 01c2 6D010000 		.4byte	0x16d
 523 01c6 08       		.uleb128 0x8
 524 01c7 62010000 		.4byte	0x162
 525 01cb D6010000 		.4byte	0x1d6
 526 01cf 09       		.uleb128 0x9
 527 01d0 10010000 		.4byte	0x110
 528 01d4 00       		.byte	0
 529 01d5 00       		.byte	0
 530 01d6 0F       		.uleb128 0xf
 531 01d7 D8060000 		.4byte	.LASF34
 532 01db 24       		.byte	0x24
 533 01dc 06       		.byte	0x6
 534 01dd 35       		.byte	0x35
 535 01de 4F020000 		.4byte	0x24f
 536 01e2 0B       		.uleb128 0xb
 537 01e3 90020000 		.4byte	.LASF35
 538 01e7 06       		.byte	0x6
 539 01e8 37       		.byte	0x37
 540 01e9 25000000 		.4byte	0x25
 541 01ed 00       		.byte	0
 542 01ee 0B       		.uleb128 0xb
 543 01ef BD010000 		.4byte	.LASF36
 544 01f3 06       		.byte	0x6
 545 01f4 38       		.byte	0x38
 546 01f5 25000000 		.4byte	0x25
 547 01f9 04       		.byte	0x4
 548 01fa 0B       		.uleb128 0xb
 549 01fb 87010000 		.4byte	.LASF37
 550 01ff 06       		.byte	0x6
 551 0200 39       		.byte	0x39
 552 0201 25000000 		.4byte	0x25
 553 0205 08       		.byte	0x8
 554 0206 0B       		.uleb128 0xb
 555 0207 24030000 		.4byte	.LASF38
 556 020b 06       		.byte	0x6
 557 020c 3A       		.byte	0x3a
 558 020d 25000000 		.4byte	0x25
 559 0211 0C       		.byte	0xc
 560 0212 0B       		.uleb128 0xb
 561 0213 CC040000 		.4byte	.LASF39
 562 0217 06       		.byte	0x6
 563 0218 3B       		.byte	0x3b
 564 0219 25000000 		.4byte	0x25
 565 021d 10       		.byte	0x10
 566 021e 0B       		.uleb128 0xb
 567 021f 3A060000 		.4byte	.LASF40
 568 0223 06       		.byte	0x6
 569 0224 3C       		.byte	0x3c
 570 0225 25000000 		.4byte	0x25
ARM GAS  /tmp/ccxox4Ym.s 			page 11


 571 0229 14       		.byte	0x14
 572 022a 0B       		.uleb128 0xb
 573 022b 64010000 		.4byte	.LASF41
 574 022f 06       		.byte	0x6
 575 0230 3D       		.byte	0x3d
 576 0231 25000000 		.4byte	0x25
 577 0235 18       		.byte	0x18
 578 0236 0B       		.uleb128 0xb
 579 0237 99020000 		.4byte	.LASF42
 580 023b 06       		.byte	0x6
 581 023c 3E       		.byte	0x3e
 582 023d 25000000 		.4byte	0x25
 583 0241 1C       		.byte	0x1c
 584 0242 0B       		.uleb128 0xb
 585 0243 8A040000 		.4byte	.LASF43
 586 0247 06       		.byte	0x6
 587 0248 3F       		.byte	0x3f
 588 0249 25000000 		.4byte	0x25
 589 024d 20       		.byte	0x20
 590 024e 00       		.byte	0
 591 024f 11       		.uleb128 0x11
 592 0250 36000000 		.4byte	.LASF44
 593 0254 0801     		.2byte	0x108
 594 0256 06       		.byte	0x6
 595 0257 48       		.byte	0x48
 596 0258 8F020000 		.4byte	0x28f
 597 025c 0B       		.uleb128 0xb
 598 025d 01080000 		.4byte	.LASF45
 599 0261 06       		.byte	0x6
 600 0262 49       		.byte	0x49
 601 0263 8F020000 		.4byte	0x28f
 602 0267 00       		.byte	0
 603 0268 0B       		.uleb128 0xb
 604 0269 4B070000 		.4byte	.LASF46
 605 026d 06       		.byte	0x6
 606 026e 4A       		.byte	0x4a
 607 026f 8F020000 		.4byte	0x28f
 608 0273 80       		.byte	0x80
 609 0274 12       		.uleb128 0x12
 610 0275 5D080000 		.4byte	.LASF47
 611 0279 06       		.byte	0x6
 612 027a 4C       		.byte	0x4c
 613 027b 62010000 		.4byte	0x162
 614 027f 0001     		.2byte	0x100
 615 0281 12       		.uleb128 0x12
 616 0282 9E080000 		.4byte	.LASF48
 617 0286 06       		.byte	0x6
 618 0287 4F       		.byte	0x4f
 619 0288 62010000 		.4byte	0x162
 620 028c 0401     		.2byte	0x104
 621 028e 00       		.byte	0
 622 028f 08       		.uleb128 0x8
 623 0290 4E010000 		.4byte	0x14e
 624 0294 9F020000 		.4byte	0x29f
 625 0298 09       		.uleb128 0x9
 626 0299 10010000 		.4byte	0x110
 627 029d 1F       		.byte	0x1f
ARM GAS  /tmp/ccxox4Ym.s 			page 12


 628 029e 00       		.byte	0
 629 029f 11       		.uleb128 0x11
 630 02a0 8B050000 		.4byte	.LASF49
 631 02a4 9001     		.2byte	0x190
 632 02a6 06       		.byte	0x6
 633 02a7 5B       		.byte	0x5b
 634 02a8 DD020000 		.4byte	0x2dd
 635 02ac 0B       		.uleb128 0xb
 636 02ad AD020000 		.4byte	.LASF29
 637 02b1 06       		.byte	0x6
 638 02b2 5C       		.byte	0x5c
 639 02b3 DD020000 		.4byte	0x2dd
 640 02b7 00       		.byte	0
 641 02b8 0B       		.uleb128 0xb
 642 02b9 A8020000 		.4byte	.LASF50
 643 02bd 06       		.byte	0x6
 644 02be 5D       		.byte	0x5d
 645 02bf 25000000 		.4byte	0x25
 646 02c3 04       		.byte	0x4
 647 02c4 0B       		.uleb128 0xb
 648 02c5 4F010000 		.4byte	.LASF51
 649 02c9 06       		.byte	0x6
 650 02ca 5F       		.byte	0x5f
 651 02cb E3020000 		.4byte	0x2e3
 652 02cf 08       		.byte	0x8
 653 02d0 0B       		.uleb128 0xb
 654 02d1 36000000 		.4byte	.LASF44
 655 02d5 06       		.byte	0x6
 656 02d6 60       		.byte	0x60
 657 02d7 4F020000 		.4byte	0x24f
 658 02db 88       		.byte	0x88
 659 02dc 00       		.byte	0
 660 02dd 0D       		.uleb128 0xd
 661 02de 04       		.byte	0x4
 662 02df 9F020000 		.4byte	0x29f
 663 02e3 08       		.uleb128 0x8
 664 02e4 F3020000 		.4byte	0x2f3
 665 02e8 F3020000 		.4byte	0x2f3
 666 02ec 09       		.uleb128 0x9
 667 02ed 10010000 		.4byte	0x110
 668 02f1 1F       		.byte	0x1f
 669 02f2 00       		.byte	0
 670 02f3 0D       		.uleb128 0xd
 671 02f4 04       		.byte	0x4
 672 02f5 F9020000 		.4byte	0x2f9
 673 02f9 13       		.uleb128 0x13
 674 02fa 0F       		.uleb128 0xf
 675 02fb B9070000 		.4byte	.LASF52
 676 02ff 08       		.byte	0x8
 677 0300 06       		.byte	0x6
 678 0301 73       		.byte	0x73
 679 0302 1F030000 		.4byte	0x31f
 680 0306 0B       		.uleb128 0xb
 681 0307 F1030000 		.4byte	.LASF53
 682 030b 06       		.byte	0x6
 683 030c 74       		.byte	0x74
 684 030d 1F030000 		.4byte	0x31f
ARM GAS  /tmp/ccxox4Ym.s 			page 13


 685 0311 00       		.byte	0
 686 0312 0B       		.uleb128 0xb
 687 0313 6E080000 		.4byte	.LASF54
 688 0317 06       		.byte	0x6
 689 0318 75       		.byte	0x75
 690 0319 25000000 		.4byte	0x25
 691 031d 04       		.byte	0x4
 692 031e 00       		.byte	0
 693 031f 0D       		.uleb128 0xd
 694 0320 04       		.byte	0x4
 695 0321 5E000000 		.4byte	0x5e
 696 0325 0F       		.uleb128 0xf
 697 0326 26020000 		.4byte	.LASF55
 698 032a 68       		.byte	0x68
 699 032b 06       		.byte	0x6
 700 032c B3       		.byte	0xb3
 701 032d 4F040000 		.4byte	0x44f
 702 0331 10       		.uleb128 0x10
 703 0332 5F7000   		.ascii	"_p\000"
 704 0335 06       		.byte	0x6
 705 0336 B4       		.byte	0xb4
 706 0337 1F030000 		.4byte	0x31f
 707 033b 00       		.byte	0
 708 033c 10       		.uleb128 0x10
 709 033d 5F7200   		.ascii	"_r\000"
 710 0340 06       		.byte	0x6
 711 0341 B5       		.byte	0xb5
 712 0342 25000000 		.4byte	0x25
 713 0346 04       		.byte	0x4
 714 0347 10       		.uleb128 0x10
 715 0348 5F7700   		.ascii	"_w\000"
 716 034b 06       		.byte	0x6
 717 034c B6       		.byte	0xb6
 718 034d 25000000 		.4byte	0x25
 719 0351 08       		.byte	0x8
 720 0352 0B       		.uleb128 0xb
 721 0353 AE000000 		.4byte	.LASF56
 722 0357 06       		.byte	0x6
 723 0358 B7       		.byte	0xb7
 724 0359 65000000 		.4byte	0x65
 725 035d 0C       		.byte	0xc
 726 035e 0B       		.uleb128 0xb
 727 035f 2E040000 		.4byte	.LASF57
 728 0363 06       		.byte	0x6
 729 0364 B8       		.byte	0xb8
 730 0365 65000000 		.4byte	0x65
 731 0369 0E       		.byte	0xe
 732 036a 10       		.uleb128 0x10
 733 036b 5F626600 		.ascii	"_bf\000"
 734 036f 06       		.byte	0x6
 735 0370 B9       		.byte	0xb9
 736 0371 FA020000 		.4byte	0x2fa
 737 0375 10       		.byte	0x10
 738 0376 0B       		.uleb128 0xb
 739 0377 A5000000 		.4byte	.LASF58
 740 037b 06       		.byte	0x6
 741 037c BA       		.byte	0xba
ARM GAS  /tmp/ccxox4Ym.s 			page 14


 742 037d 25000000 		.4byte	0x25
 743 0381 18       		.byte	0x18
 744 0382 0B       		.uleb128 0xb
 745 0383 54010000 		.4byte	.LASF59
 746 0387 06       		.byte	0x6
 747 0388 C1       		.byte	0xc1
 748 0389 4E010000 		.4byte	0x14e
 749 038d 1C       		.byte	0x1c
 750 038e 0B       		.uleb128 0xb
 751 038f 02010000 		.4byte	.LASF60
 752 0393 06       		.byte	0x6
 753 0394 C3       		.byte	0xc3
 754 0395 AA050000 		.4byte	0x5aa
 755 0399 20       		.byte	0x20
 756 039a 0B       		.uleb128 0xb
 757 039b F1040000 		.4byte	.LASF61
 758 039f 06       		.byte	0x6
 759 03a0 C5       		.byte	0xc5
 760 03a1 D4050000 		.4byte	0x5d4
 761 03a5 24       		.byte	0x24
 762 03a6 0B       		.uleb128 0xb
 763 03a7 C0080000 		.4byte	.LASF62
 764 03ab 06       		.byte	0x6
 765 03ac C8       		.byte	0xc8
 766 03ad F8050000 		.4byte	0x5f8
 767 03b1 28       		.byte	0x28
 768 03b2 0B       		.uleb128 0xb
 769 03b3 9C030000 		.4byte	.LASF63
 770 03b7 06       		.byte	0x6
 771 03b8 C9       		.byte	0xc9
 772 03b9 12060000 		.4byte	0x612
 773 03bd 2C       		.byte	0x2c
 774 03be 10       		.uleb128 0x10
 775 03bf 5F756200 		.ascii	"_ub\000"
 776 03c3 06       		.byte	0x6
 777 03c4 CC       		.byte	0xcc
 778 03c5 FA020000 		.4byte	0x2fa
 779 03c9 30       		.byte	0x30
 780 03ca 10       		.uleb128 0x10
 781 03cb 5F757000 		.ascii	"_up\000"
 782 03cf 06       		.byte	0x6
 783 03d0 CD       		.byte	0xcd
 784 03d1 1F030000 		.4byte	0x31f
 785 03d5 38       		.byte	0x38
 786 03d6 10       		.uleb128 0x10
 787 03d7 5F757200 		.ascii	"_ur\000"
 788 03db 06       		.byte	0x6
 789 03dc CE       		.byte	0xce
 790 03dd 25000000 		.4byte	0x25
 791 03e1 3C       		.byte	0x3c
 792 03e2 0B       		.uleb128 0xb
 793 03e3 1D090000 		.4byte	.LASF64
 794 03e7 06       		.byte	0x6
 795 03e8 D1       		.byte	0xd1
 796 03e9 18060000 		.4byte	0x618
 797 03ed 40       		.byte	0x40
 798 03ee 0B       		.uleb128 0xb
ARM GAS  /tmp/ccxox4Ym.s 			page 15


 799 03ef 83080000 		.4byte	.LASF65
 800 03f3 06       		.byte	0x6
 801 03f4 D2       		.byte	0xd2
 802 03f5 28060000 		.4byte	0x628
 803 03f9 43       		.byte	0x43
 804 03fa 10       		.uleb128 0x10
 805 03fb 5F6C6200 		.ascii	"_lb\000"
 806 03ff 06       		.byte	0x6
 807 0400 D5       		.byte	0xd5
 808 0401 FA020000 		.4byte	0x2fa
 809 0405 44       		.byte	0x44
 810 0406 0B       		.uleb128 0xb
 811 0407 CF060000 		.4byte	.LASF66
 812 040b 06       		.byte	0x6
 813 040c D8       		.byte	0xd8
 814 040d 25000000 		.4byte	0x25
 815 0411 4C       		.byte	0x4c
 816 0412 0B       		.uleb128 0xb
 817 0413 45020000 		.4byte	.LASF67
 818 0417 06       		.byte	0x6
 819 0418 D9       		.byte	0xd9
 820 0419 BF000000 		.4byte	0xbf
 821 041d 50       		.byte	0x50
 822 041e 0B       		.uleb128 0xb
 823 041f 14060000 		.4byte	.LASF68
 824 0423 06       		.byte	0x6
 825 0424 DC       		.byte	0xdc
 826 0425 6D040000 		.4byte	0x46d
 827 0429 54       		.byte	0x54
 828 042a 0B       		.uleb128 0xb
 829 042b F8060000 		.4byte	.LASF69
 830 042f 06       		.byte	0x6
 831 0430 E0       		.byte	0xe0
 832 0431 43010000 		.4byte	0x143
 833 0435 58       		.byte	0x58
 834 0436 0B       		.uleb128 0xb
 835 0437 93050000 		.4byte	.LASF70
 836 043b 06       		.byte	0x6
 837 043c E2       		.byte	0xe2
 838 043d 38010000 		.4byte	0x138
 839 0441 5C       		.byte	0x5c
 840 0442 0B       		.uleb128 0xb
 841 0443 96080000 		.4byte	.LASF71
 842 0447 06       		.byte	0x6
 843 0448 E3       		.byte	0xe3
 844 0449 25000000 		.4byte	0x25
 845 044d 64       		.byte	0x64
 846 044e 00       		.byte	0
 847 044f 14       		.uleb128 0x14
 848 0450 25000000 		.4byte	0x25
 849 0454 6D040000 		.4byte	0x46d
 850 0458 15       		.uleb128 0x15
 851 0459 6D040000 		.4byte	0x46d
 852 045d 15       		.uleb128 0x15
 853 045e 4E010000 		.4byte	0x14e
 854 0462 15       		.uleb128 0x15
 855 0463 50010000 		.4byte	0x150
ARM GAS  /tmp/ccxox4Ym.s 			page 16


 856 0467 15       		.uleb128 0x15
 857 0468 25000000 		.4byte	0x25
 858 046c 00       		.byte	0
 859 046d 0D       		.uleb128 0xd
 860 046e 04       		.byte	0x4
 861 046f 78040000 		.4byte	0x478
 862 0473 0E       		.uleb128 0xe
 863 0474 6D040000 		.4byte	0x46d
 864 0478 16       		.uleb128 0x16
 865 0479 22080000 		.4byte	.LASF72
 866 047d 2804     		.2byte	0x428
 867 047f 06       		.byte	0x6
 868 0480 3802     		.2byte	0x238
 869 0482 AA050000 		.4byte	0x5aa
 870 0486 17       		.uleb128 0x17
 871 0487 CF000000 		.4byte	.LASF73
 872 048b 06       		.byte	0x6
 873 048c 3A02     		.2byte	0x23a
 874 048e 25000000 		.4byte	0x25
 875 0492 00       		.byte	0
 876 0493 17       		.uleb128 0x17
 877 0494 C7030000 		.4byte	.LASF74
 878 0498 06       		.byte	0x6
 879 0499 3F02     		.2byte	0x23f
 880 049b 7F060000 		.4byte	0x67f
 881 049f 04       		.byte	0x4
 882 04a0 17       		.uleb128 0x17
 883 04a1 3F010000 		.4byte	.LASF75
 884 04a5 06       		.byte	0x6
 885 04a6 3F02     		.2byte	0x23f
 886 04a8 7F060000 		.4byte	0x67f
 887 04ac 08       		.byte	0x8
 888 04ad 17       		.uleb128 0x17
 889 04ae 0C090000 		.4byte	.LASF76
 890 04b2 06       		.byte	0x6
 891 04b3 3F02     		.2byte	0x23f
 892 04b5 7F060000 		.4byte	0x67f
 893 04b9 0C       		.byte	0xc
 894 04ba 17       		.uleb128 0x17
 895 04bb A3020000 		.4byte	.LASF77
 896 04bf 06       		.byte	0x6
 897 04c0 4102     		.2byte	0x241
 898 04c2 25000000 		.4byte	0x25
 899 04c6 10       		.byte	0x10
 900 04c7 17       		.uleb128 0x17
 901 04c8 55020000 		.4byte	.LASF78
 902 04cc 06       		.byte	0x6
 903 04cd 4202     		.2byte	0x242
 904 04cf 61080000 		.4byte	0x861
 905 04d3 14       		.byte	0x14
 906 04d4 17       		.uleb128 0x17
 907 04d5 AF060000 		.4byte	.LASF79
 908 04d9 06       		.byte	0x6
 909 04da 4402     		.2byte	0x244
 910 04dc 25000000 		.4byte	0x25
 911 04e0 30       		.byte	0x30
 912 04e1 17       		.uleb128 0x17
ARM GAS  /tmp/ccxox4Ym.s 			page 17


 913 04e2 FD050000 		.4byte	.LASF80
 914 04e6 06       		.byte	0x6
 915 04e7 4502     		.2byte	0x245
 916 04e9 CE050000 		.4byte	0x5ce
 917 04ed 34       		.byte	0x34
 918 04ee 17       		.uleb128 0x17
 919 04ef B5030000 		.4byte	.LASF81
 920 04f3 06       		.byte	0x6
 921 04f4 4702     		.2byte	0x247
 922 04f6 25000000 		.4byte	0x25
 923 04fa 38       		.byte	0x38
 924 04fb 17       		.uleb128 0x17
 925 04fc 55040000 		.4byte	.LASF82
 926 0500 06       		.byte	0x6
 927 0501 4902     		.2byte	0x249
 928 0503 7C080000 		.4byte	0x87c
 929 0507 3C       		.byte	0x3c
 930 0508 17       		.uleb128 0x17
 931 0509 6E010000 		.4byte	.LASF83
 932 050d 06       		.byte	0x6
 933 050e 4C02     		.2byte	0x24c
 934 0510 C0010000 		.4byte	0x1c0
 935 0514 40       		.byte	0x40
 936 0515 17       		.uleb128 0x17
 937 0516 F8010000 		.4byte	.LASF84
 938 051a 06       		.byte	0x6
 939 051b 4D02     		.2byte	0x24d
 940 051d 25000000 		.4byte	0x25
 941 0521 44       		.byte	0x44
 942 0522 17       		.uleb128 0x17
 943 0523 E8020000 		.4byte	.LASF85
 944 0527 06       		.byte	0x6
 945 0528 4E02     		.2byte	0x24e
 946 052a C0010000 		.4byte	0x1c0
 947 052e 48       		.byte	0x48
 948 052f 17       		.uleb128 0x17
 949 0530 FF030000 		.4byte	.LASF86
 950 0534 06       		.byte	0x6
 951 0535 4F02     		.2byte	0x24f
 952 0537 82080000 		.4byte	0x882
 953 053b 4C       		.byte	0x4c
 954 053c 17       		.uleb128 0x17
 955 053d 95060000 		.4byte	.LASF87
 956 0541 06       		.byte	0x6
 957 0542 5202     		.2byte	0x252
 958 0544 25000000 		.4byte	0x25
 959 0548 50       		.byte	0x50
 960 0549 17       		.uleb128 0x17
 961 054a 5E070000 		.4byte	.LASF88
 962 054e 06       		.byte	0x6
 963 054f 5302     		.2byte	0x253
 964 0551 50010000 		.4byte	0x150
 965 0555 54       		.byte	0x54
 966 0556 17       		.uleb128 0x17
 967 0557 90060000 		.4byte	.LASF89
 968 055b 06       		.byte	0x6
 969 055c 7602     		.2byte	0x276
ARM GAS  /tmp/ccxox4Ym.s 			page 18


 970 055e 3F080000 		.4byte	0x83f
 971 0562 58       		.byte	0x58
 972 0563 18       		.uleb128 0x18
 973 0564 8B050000 		.4byte	.LASF49
 974 0568 06       		.byte	0x6
 975 0569 7A02     		.2byte	0x27a
 976 056b DD020000 		.4byte	0x2dd
 977 056f 4801     		.2byte	0x148
 978 0571 18       		.uleb128 0x18
 979 0572 47030000 		.4byte	.LASF90
 980 0576 06       		.byte	0x6
 981 0577 7B02     		.2byte	0x27b
 982 0579 9F020000 		.4byte	0x29f
 983 057d 4C01     		.2byte	0x14c
 984 057f 18       		.uleb128 0x18
 985 0580 2E030000 		.4byte	.LASF91
 986 0584 06       		.byte	0x6
 987 0585 7F02     		.2byte	0x27f
 988 0587 93080000 		.4byte	0x893
 989 058b DC02     		.2byte	0x2dc
 990 058d 18       		.uleb128 0x18
 991 058e D7070000 		.4byte	.LASF92
 992 0592 06       		.byte	0x6
 993 0593 8402     		.2byte	0x284
 994 0595 44060000 		.4byte	0x644
 995 0599 E002     		.2byte	0x2e0
 996 059b 18       		.uleb128 0x18
 997 059c E2050000 		.4byte	.LASF93
 998 05a0 06       		.byte	0x6
 999 05a1 8502     		.2byte	0x285
 1000 05a3 9F080000 		.4byte	0x89f
 1001 05a7 EC02     		.2byte	0x2ec
 1002 05a9 00       		.byte	0
 1003 05aa 0D       		.uleb128 0xd
 1004 05ab 04       		.byte	0x4
 1005 05ac 4F040000 		.4byte	0x44f
 1006 05b0 14       		.uleb128 0x14
 1007 05b1 25000000 		.4byte	0x25
 1008 05b5 CE050000 		.4byte	0x5ce
 1009 05b9 15       		.uleb128 0x15
 1010 05ba 6D040000 		.4byte	0x46d
 1011 05be 15       		.uleb128 0x15
 1012 05bf 4E010000 		.4byte	0x14e
 1013 05c3 15       		.uleb128 0x15
 1014 05c4 CE050000 		.4byte	0x5ce
 1015 05c8 15       		.uleb128 0x15
 1016 05c9 25000000 		.4byte	0x25
 1017 05cd 00       		.byte	0
 1018 05ce 0D       		.uleb128 0xd
 1019 05cf 04       		.byte	0x4
 1020 05d0 5D010000 		.4byte	0x15d
 1021 05d4 0D       		.uleb128 0xd
 1022 05d5 04       		.byte	0x4
 1023 05d6 B0050000 		.4byte	0x5b0
 1024 05da 14       		.uleb128 0x14
 1025 05db CA000000 		.4byte	0xca
 1026 05df F8050000 		.4byte	0x5f8
ARM GAS  /tmp/ccxox4Ym.s 			page 19


 1027 05e3 15       		.uleb128 0x15
 1028 05e4 6D040000 		.4byte	0x46d
 1029 05e8 15       		.uleb128 0x15
 1030 05e9 4E010000 		.4byte	0x14e
 1031 05ed 15       		.uleb128 0x15
 1032 05ee CA000000 		.4byte	0xca
 1033 05f2 15       		.uleb128 0x15
 1034 05f3 25000000 		.4byte	0x25
 1035 05f7 00       		.byte	0
 1036 05f8 0D       		.uleb128 0xd
 1037 05f9 04       		.byte	0x4
 1038 05fa DA050000 		.4byte	0x5da
 1039 05fe 14       		.uleb128 0x14
 1040 05ff 25000000 		.4byte	0x25
 1041 0603 12060000 		.4byte	0x612
 1042 0607 15       		.uleb128 0x15
 1043 0608 6D040000 		.4byte	0x46d
 1044 060c 15       		.uleb128 0x15
 1045 060d 4E010000 		.4byte	0x14e
 1046 0611 00       		.byte	0
 1047 0612 0D       		.uleb128 0xd
 1048 0613 04       		.byte	0x4
 1049 0614 FE050000 		.4byte	0x5fe
 1050 0618 08       		.uleb128 0x8
 1051 0619 5E000000 		.4byte	0x5e
 1052 061d 28060000 		.4byte	0x628
 1053 0621 09       		.uleb128 0x9
 1054 0622 10010000 		.4byte	0x110
 1055 0626 02       		.byte	0x2
 1056 0627 00       		.byte	0
 1057 0628 08       		.uleb128 0x8
 1058 0629 5E000000 		.4byte	0x5e
 1059 062d 38060000 		.4byte	0x638
 1060 0631 09       		.uleb128 0x9
 1061 0632 10010000 		.4byte	0x110
 1062 0636 00       		.byte	0
 1063 0637 00       		.byte	0
 1064 0638 05       		.uleb128 0x5
 1065 0639 3E020000 		.4byte	.LASF94
 1066 063d 06       		.byte	0x6
 1067 063e 1D01     		.2byte	0x11d
 1068 0640 25030000 		.4byte	0x325
 1069 0644 19       		.uleb128 0x19
 1070 0645 C8070000 		.4byte	.LASF95
 1071 0649 0C       		.byte	0xc
 1072 064a 06       		.byte	0x6
 1073 064b 2101     		.2byte	0x121
 1074 064d 79060000 		.4byte	0x679
 1075 0651 17       		.uleb128 0x17
 1076 0652 AD020000 		.4byte	.LASF29
 1077 0656 06       		.byte	0x6
 1078 0657 2301     		.2byte	0x123
 1079 0659 79060000 		.4byte	0x679
 1080 065d 00       		.byte	0
 1081 065e 17       		.uleb128 0x17
 1082 065f 35070000 		.4byte	.LASF96
 1083 0663 06       		.byte	0x6
ARM GAS  /tmp/ccxox4Ym.s 			page 20


 1084 0664 2401     		.2byte	0x124
 1085 0666 25000000 		.4byte	0x25
 1086 066a 04       		.byte	0x4
 1087 066b 17       		.uleb128 0x17
 1088 066c 8E030000 		.4byte	.LASF97
 1089 0670 06       		.byte	0x6
 1090 0671 2501     		.2byte	0x125
 1091 0673 7F060000 		.4byte	0x67f
 1092 0677 08       		.byte	0x8
 1093 0678 00       		.byte	0
 1094 0679 0D       		.uleb128 0xd
 1095 067a 04       		.byte	0x4
 1096 067b 44060000 		.4byte	0x644
 1097 067f 0D       		.uleb128 0xd
 1098 0680 04       		.byte	0x4
 1099 0681 38060000 		.4byte	0x638
 1100 0685 19       		.uleb128 0x19
 1101 0686 F0010000 		.4byte	.LASF98
 1102 068a 0E       		.byte	0xe
 1103 068b 06       		.byte	0x6
 1104 068c 3D01     		.2byte	0x13d
 1105 068e BA060000 		.4byte	0x6ba
 1106 0692 17       		.uleb128 0x17
 1107 0693 A6080000 		.4byte	.LASF99
 1108 0697 06       		.byte	0x6
 1109 0698 3E01     		.2byte	0x13e
 1110 069a BA060000 		.4byte	0x6ba
 1111 069e 00       		.byte	0
 1112 069f 17       		.uleb128 0x17
 1113 06a0 09040000 		.4byte	.LASF100
 1114 06a4 06       		.byte	0x6
 1115 06a5 3F01     		.2byte	0x13f
 1116 06a7 BA060000 		.4byte	0x6ba
 1117 06ab 06       		.byte	0x6
 1118 06ac 17       		.uleb128 0x17
 1119 06ad AA070000 		.4byte	.LASF101
 1120 06b1 06       		.byte	0x6
 1121 06b2 4001     		.2byte	0x140
 1122 06b4 77000000 		.4byte	0x77
 1123 06b8 0C       		.byte	0xc
 1124 06b9 00       		.byte	0
 1125 06ba 08       		.uleb128 0x8
 1126 06bb 77000000 		.4byte	0x77
 1127 06bf CA060000 		.4byte	0x6ca
 1128 06c3 09       		.uleb128 0x9
 1129 06c4 10010000 		.4byte	0x110
 1130 06c8 02       		.byte	0x2
 1131 06c9 00       		.byte	0
 1132 06ca 1A       		.uleb128 0x1a
 1133 06cb D0       		.byte	0xd0
 1134 06cc 06       		.byte	0x6
 1135 06cd 5702     		.2byte	0x257
 1136 06cf CB070000 		.4byte	0x7cb
 1137 06d3 17       		.uleb128 0x17
 1138 06d4 89080000 		.4byte	.LASF102
 1139 06d8 06       		.byte	0x6
 1140 06d9 5902     		.2byte	0x259
ARM GAS  /tmp/ccxox4Ym.s 			page 21


 1141 06db 37000000 		.4byte	0x37
 1142 06df 00       		.byte	0
 1143 06e0 17       		.uleb128 0x17
 1144 06e1 DF070000 		.4byte	.LASF103
 1145 06e5 06       		.byte	0x6
 1146 06e6 5A02     		.2byte	0x25a
 1147 06e8 50010000 		.4byte	0x150
 1148 06ec 04       		.byte	0x4
 1149 06ed 17       		.uleb128 0x17
 1150 06ee 19020000 		.4byte	.LASF104
 1151 06f2 06       		.byte	0x6
 1152 06f3 5B02     		.2byte	0x25b
 1153 06f5 CB070000 		.4byte	0x7cb
 1154 06f9 08       		.byte	0x8
 1155 06fa 17       		.uleb128 0x17
 1156 06fb 63060000 		.4byte	.LASF105
 1157 06ff 06       		.byte	0x6
 1158 0700 5C02     		.2byte	0x25c
 1159 0702 D6010000 		.4byte	0x1d6
 1160 0706 24       		.byte	0x24
 1161 0707 17       		.uleb128 0x17
 1162 0708 CE030000 		.4byte	.LASF106
 1163 070c 06       		.byte	0x6
 1164 070d 5D02     		.2byte	0x25d
 1165 070f 25000000 		.4byte	0x25
 1166 0713 48       		.byte	0x48
 1167 0714 17       		.uleb128 0x17
 1168 0715 AC080000 		.4byte	.LASF107
 1169 0719 06       		.byte	0x6
 1170 071a 5E02     		.2byte	0x25e
 1171 071c AD000000 		.4byte	0xad
 1172 0720 50       		.byte	0x50
 1173 0721 17       		.uleb128 0x17
 1174 0722 5C000000 		.4byte	.LASF108
 1175 0726 06       		.byte	0x6
 1176 0727 5F02     		.2byte	0x25f
 1177 0729 85060000 		.4byte	0x685
 1178 072d 58       		.byte	0x58
 1179 072e 17       		.uleb128 0x17
 1180 072f 05030000 		.4byte	.LASF109
 1181 0733 06       		.byte	0x6
 1182 0734 6002     		.2byte	0x260
 1183 0736 38010000 		.4byte	0x138
 1184 073a 68       		.byte	0x68
 1185 073b 17       		.uleb128 0x17
 1186 073c EC070000 		.4byte	.LASF110
 1187 0740 06       		.byte	0x6
 1188 0741 6102     		.2byte	0x261
 1189 0743 38010000 		.4byte	0x138
 1190 0747 70       		.byte	0x70
 1191 0748 17       		.uleb128 0x17
 1192 0749 44000000 		.4byte	.LASF111
 1193 074d 06       		.byte	0x6
 1194 074e 6202     		.2byte	0x262
 1195 0750 38010000 		.4byte	0x138
 1196 0754 78       		.byte	0x78
 1197 0755 17       		.uleb128 0x17
ARM GAS  /tmp/ccxox4Ym.s 			page 22


 1198 0756 A5060000 		.4byte	.LASF112
 1199 075a 06       		.byte	0x6
 1200 075b 6302     		.2byte	0x263
 1201 075d DB070000 		.4byte	0x7db
 1202 0761 80       		.byte	0x80
 1203 0762 17       		.uleb128 0x17
 1204 0763 8C000000 		.4byte	.LASF113
 1205 0767 06       		.byte	0x6
 1206 0768 6402     		.2byte	0x264
 1207 076a EB070000 		.4byte	0x7eb
 1208 076e 88       		.byte	0x88
 1209 076f 17       		.uleb128 0x17
 1210 0770 9D070000 		.4byte	.LASF114
 1211 0774 06       		.byte	0x6
 1212 0775 6502     		.2byte	0x265
 1213 0777 25000000 		.4byte	0x25
 1214 077b A0       		.byte	0xa0
 1215 077c 17       		.uleb128 0x17
 1216 077d 0F010000 		.4byte	.LASF115
 1217 0781 06       		.byte	0x6
 1218 0782 6602     		.2byte	0x266
 1219 0784 38010000 		.4byte	0x138
 1220 0788 A4       		.byte	0xa4
 1221 0789 17       		.uleb128 0x17
 1222 078a 38030000 		.4byte	.LASF116
 1223 078e 06       		.byte	0x6
 1224 078f 6702     		.2byte	0x267
 1225 0791 38010000 		.4byte	0x138
 1226 0795 AC       		.byte	0xac
 1227 0796 17       		.uleb128 0x17
 1228 0797 B3020000 		.4byte	.LASF117
 1229 079b 06       		.byte	0x6
 1230 079c 6802     		.2byte	0x268
 1231 079e 38010000 		.4byte	0x138
 1232 07a2 B4       		.byte	0xb4
 1233 07a3 17       		.uleb128 0x17
 1234 07a4 1F040000 		.4byte	.LASF118
 1235 07a8 06       		.byte	0x6
 1236 07a9 6902     		.2byte	0x269
 1237 07ab 38010000 		.4byte	0x138
 1238 07af BC       		.byte	0xbc
 1239 07b0 17       		.uleb128 0x17
 1240 07b1 F4020000 		.4byte	.LASF119
 1241 07b5 06       		.byte	0x6
 1242 07b6 6A02     		.2byte	0x26a
 1243 07b8 38010000 		.4byte	0x138
 1244 07bc C4       		.byte	0xc4
 1245 07bd 17       		.uleb128 0x17
 1246 07be A7040000 		.4byte	.LASF120
 1247 07c2 06       		.byte	0x6
 1248 07c3 6B02     		.2byte	0x26b
 1249 07c5 25000000 		.4byte	0x25
 1250 07c9 CC       		.byte	0xcc
 1251 07ca 00       		.byte	0
 1252 07cb 08       		.uleb128 0x8
 1253 07cc 56010000 		.4byte	0x156
 1254 07d0 DB070000 		.4byte	0x7db
ARM GAS  /tmp/ccxox4Ym.s 			page 23


 1255 07d4 09       		.uleb128 0x9
 1256 07d5 10010000 		.4byte	0x110
 1257 07d9 19       		.byte	0x19
 1258 07da 00       		.byte	0
 1259 07db 08       		.uleb128 0x8
 1260 07dc 56010000 		.4byte	0x156
 1261 07e0 EB070000 		.4byte	0x7eb
 1262 07e4 09       		.uleb128 0x9
 1263 07e5 10010000 		.4byte	0x110
 1264 07e9 07       		.byte	0x7
 1265 07ea 00       		.byte	0
 1266 07eb 08       		.uleb128 0x8
 1267 07ec 56010000 		.4byte	0x156
 1268 07f0 FB070000 		.4byte	0x7fb
 1269 07f4 09       		.uleb128 0x9
 1270 07f5 10010000 		.4byte	0x110
 1271 07f9 17       		.byte	0x17
 1272 07fa 00       		.byte	0
 1273 07fb 1A       		.uleb128 0x1a
 1274 07fc F0       		.byte	0xf0
 1275 07fd 06       		.byte	0x6
 1276 07fe 7002     		.2byte	0x270
 1277 0800 1F080000 		.4byte	0x81f
 1278 0804 17       		.uleb128 0x17
 1279 0805 DA010000 		.4byte	.LASF121
 1280 0809 06       		.byte	0x6
 1281 080a 7302     		.2byte	0x273
 1282 080c 1F080000 		.4byte	0x81f
 1283 0810 00       		.byte	0
 1284 0811 17       		.uleb128 0x17
 1285 0812 14090000 		.4byte	.LASF122
 1286 0816 06       		.byte	0x6
 1287 0817 7402     		.2byte	0x274
 1288 0819 2F080000 		.4byte	0x82f
 1289 081d 78       		.byte	0x78
 1290 081e 00       		.byte	0
 1291 081f 08       		.uleb128 0x8
 1292 0820 1F030000 		.4byte	0x31f
 1293 0824 2F080000 		.4byte	0x82f
 1294 0828 09       		.uleb128 0x9
 1295 0829 10010000 		.4byte	0x110
 1296 082d 1D       		.byte	0x1d
 1297 082e 00       		.byte	0
 1298 082f 08       		.uleb128 0x8
 1299 0830 37000000 		.4byte	0x37
 1300 0834 3F080000 		.4byte	0x83f
 1301 0838 09       		.uleb128 0x9
 1302 0839 10010000 		.4byte	0x110
 1303 083d 1D       		.byte	0x1d
 1304 083e 00       		.byte	0
 1305 083f 1B       		.uleb128 0x1b
 1306 0840 F0       		.byte	0xf0
 1307 0841 06       		.byte	0x6
 1308 0842 5502     		.2byte	0x255
 1309 0844 61080000 		.4byte	0x861
 1310 0848 1C       		.uleb128 0x1c
 1311 0849 22080000 		.4byte	.LASF72
ARM GAS  /tmp/ccxox4Ym.s 			page 24


 1312 084d 06       		.byte	0x6
 1313 084e 6C02     		.2byte	0x26c
 1314 0850 CA060000 		.4byte	0x6ca
 1315 0854 1C       		.uleb128 0x1c
 1316 0855 7E060000 		.4byte	.LASF123
 1317 0859 06       		.byte	0x6
 1318 085a 7502     		.2byte	0x275
 1319 085c FB070000 		.4byte	0x7fb
 1320 0860 00       		.byte	0
 1321 0861 08       		.uleb128 0x8
 1322 0862 56010000 		.4byte	0x156
 1323 0866 71080000 		.4byte	0x871
 1324 086a 09       		.uleb128 0x9
 1325 086b 10010000 		.4byte	0x110
 1326 086f 18       		.byte	0x18
 1327 0870 00       		.byte	0
 1328 0871 1D       		.uleb128 0x1d
 1329 0872 7C080000 		.4byte	0x87c
 1330 0876 15       		.uleb128 0x15
 1331 0877 6D040000 		.4byte	0x46d
 1332 087b 00       		.byte	0
 1333 087c 0D       		.uleb128 0xd
 1334 087d 04       		.byte	0x4
 1335 087e 71080000 		.4byte	0x871
 1336 0882 0D       		.uleb128 0xd
 1337 0883 04       		.byte	0x4
 1338 0884 C0010000 		.4byte	0x1c0
 1339 0888 1D       		.uleb128 0x1d
 1340 0889 93080000 		.4byte	0x893
 1341 088d 15       		.uleb128 0x15
 1342 088e 25000000 		.4byte	0x25
 1343 0892 00       		.byte	0
 1344 0893 0D       		.uleb128 0xd
 1345 0894 04       		.byte	0x4
 1346 0895 99080000 		.4byte	0x899
 1347 0899 0D       		.uleb128 0xd
 1348 089a 04       		.byte	0x4
 1349 089b 88080000 		.4byte	0x888
 1350 089f 08       		.uleb128 0x8
 1351 08a0 38060000 		.4byte	0x638
 1352 08a4 AF080000 		.4byte	0x8af
 1353 08a8 09       		.uleb128 0x9
 1354 08a9 10010000 		.4byte	0x110
 1355 08ad 02       		.byte	0x2
 1356 08ae 00       		.byte	0
 1357 08af 1E       		.uleb128 0x1e
 1358 08b0 C6010000 		.4byte	.LASF124
 1359 08b4 06       		.byte	0x6
 1360 08b5 FD02     		.2byte	0x2fd
 1361 08b7 6D040000 		.4byte	0x46d
 1362 08bb 1E       		.uleb128 0x1e
 1363 08bc 21060000 		.4byte	.LASF125
 1364 08c0 06       		.byte	0x6
 1365 08c1 FE02     		.2byte	0x2fe
 1366 08c3 73040000 		.4byte	0x473
 1367 08c7 03       		.uleb128 0x3
 1368 08c8 94030000 		.4byte	.LASF126
ARM GAS  /tmp/ccxox4Ym.s 			page 25


 1369 08cc 07       		.byte	0x7
 1370 08cd 18       		.byte	0x18
 1371 08ce 53000000 		.4byte	0x53
 1372 08d2 0E       		.uleb128 0xe
 1373 08d3 C7080000 		.4byte	0x8c7
 1374 08d7 03       		.uleb128 0x3
 1375 08d8 E1040000 		.4byte	.LASF127
 1376 08dc 07       		.byte	0x7
 1377 08dd 24       		.byte	0x24
 1378 08de 6C000000 		.4byte	0x6c
 1379 08e2 03       		.uleb128 0x3
 1380 08e3 43070000 		.4byte	.LASF128
 1381 08e7 07       		.byte	0x7
 1382 08e8 2C       		.byte	0x2c
 1383 08e9 7E000000 		.4byte	0x7e
 1384 08ed 03       		.uleb128 0x3
 1385 08ee 7E010000 		.4byte	.LASF129
 1386 08f2 07       		.byte	0x7
 1387 08f3 30       		.byte	0x30
 1388 08f4 90000000 		.4byte	0x90
 1389 08f8 03       		.uleb128 0x3
 1390 08f9 CE070000 		.4byte	.LASF130
 1391 08fd 07       		.byte	0x7
 1392 08fe 3C       		.byte	0x3c
 1393 08ff A2000000 		.4byte	0xa2
 1394 0903 04       		.uleb128 0x4
 1395 0904 01       		.byte	0x1
 1396 0905 02       		.byte	0x2
 1397 0906 B0040000 		.4byte	.LASF131
 1398 090a 03       		.uleb128 0x3
 1399 090b BC040000 		.4byte	.LASF132
 1400 090f 08       		.byte	0x8
 1401 0910 25       		.byte	0x25
 1402 0911 C7080000 		.4byte	0x8c7
 1403 0915 03       		.uleb128 0x3
 1404 0916 5F030000 		.4byte	.LASF133
 1405 091a 08       		.byte	0x8
 1406 091b 26       		.byte	0x26
 1407 091c C7080000 		.4byte	0x8c7
 1408 0920 03       		.uleb128 0x3
 1409 0921 0E070000 		.4byte	.LASF134
 1410 0925 08       		.byte	0x8
 1411 0926 27       		.byte	0x27
 1412 0927 C7080000 		.4byte	0x8c7
 1413 092b 03       		.uleb128 0x3
 1414 092c 95040000 		.4byte	.LASF135
 1415 0930 08       		.byte	0x8
 1416 0931 28       		.byte	0x28
 1417 0932 C7080000 		.4byte	0x8c7
 1418 0936 03       		.uleb128 0x3
 1419 0937 D2010000 		.4byte	.LASF136
 1420 093b 08       		.byte	0x8
 1421 093c 29       		.byte	0x29
 1422 093d ED080000 		.4byte	0x8ed
 1423 0941 03       		.uleb128 0x3
 1424 0942 4F040000 		.4byte	.LASF137
 1425 0946 08       		.byte	0x8
ARM GAS  /tmp/ccxox4Ym.s 			page 26


 1426 0947 2A       		.byte	0x2a
 1427 0948 E2080000 		.4byte	0x8e2
 1428 094c 03       		.uleb128 0x3
 1429 094d 9D010000 		.4byte	.LASF138
 1430 0951 08       		.byte	0x8
 1431 0952 2C       		.byte	0x2c
 1432 0953 ED080000 		.4byte	0x8ed
 1433 0957 03       		.uleb128 0x3
 1434 0958 52000000 		.4byte	.LASF139
 1435 095c 08       		.byte	0x8
 1436 095d 2E       		.byte	0x2e
 1437 095e ED080000 		.4byte	0x8ed
 1438 0962 1F       		.uleb128 0x1f
 1439 0963 57090000 		.4byte	0x957
 1440 0967 03       		.uleb128 0x3
 1441 0968 58030000 		.4byte	.LASF140
 1442 096c 09       		.byte	0x9
 1443 096d 23       		.byte	0x23
 1444 096e 72090000 		.4byte	0x972
 1445 0972 0F       		.uleb128 0xf
 1446 0973 58030000 		.4byte	.LASF140
 1447 0977 48       		.byte	0x48
 1448 0978 0A       		.byte	0xa
 1449 0979 57       		.byte	0x57
 1450 097a 6F0A0000 		.4byte	0xa6f
 1451 097e 0B       		.uleb128 0xb
 1452 097f 0D060000 		.4byte	.LASF141
 1453 0983 0A       		.byte	0xa
 1454 0984 58       		.byte	0x58
 1455 0985 900A0000 		.4byte	0xa90
 1456 0989 00       		.byte	0
 1457 098a 0B       		.uleb128 0xb
 1458 098b FE060000 		.4byte	.LASF142
 1459 098f 0A       		.byte	0xa
 1460 0990 5A       		.byte	0x5a
 1461 0991 900A0000 		.4byte	0xa90
 1462 0995 04       		.byte	0x4
 1463 0996 0B       		.uleb128 0xb
 1464 0997 2F000000 		.4byte	.LASF143
 1465 099b 0A       		.byte	0xa
 1466 099c 5C       		.byte	0x5c
 1467 099d 36090000 		.4byte	0x936
 1468 09a1 08       		.byte	0x8
 1469 09a2 0B       		.uleb128 0xb
 1470 09a3 34060000 		.4byte	.LASF144
 1471 09a7 0A       		.byte	0xa
 1472 09a8 5D       		.byte	0x5d
 1473 09a9 530B0000 		.4byte	0xb53
 1474 09ad 0C       		.byte	0xc
 1475 09ae 0B       		.uleb128 0xb
 1476 09af 4D020000 		.4byte	.LASF145
 1477 09b3 0A       		.byte	0xa
 1478 09b4 5F       		.byte	0x5f
 1479 09b5 900A0000 		.4byte	0xa90
 1480 09b9 10       		.byte	0x10
 1481 09ba 0B       		.uleb128 0xb
 1482 09bb 78030000 		.4byte	.LASF146
ARM GAS  /tmp/ccxox4Ym.s 			page 27


 1483 09bf 0A       		.byte	0xa
 1484 09c0 60       		.byte	0x60
 1485 09c1 900A0000 		.4byte	0xa90
 1486 09c5 14       		.byte	0x14
 1487 09c6 0B       		.uleb128 0xb
 1488 09c7 ED020000 		.4byte	.LASF147
 1489 09cb 0A       		.byte	0xa
 1490 09cc 67       		.byte	0x67
 1491 09cd CE050000 		.4byte	0x5ce
 1492 09d1 18       		.byte	0x18
 1493 09d2 0B       		.uleb128 0xb
 1494 09d3 80030000 		.4byte	.LASF148
 1495 09d7 0A       		.byte	0xa
 1496 09d8 72       		.byte	0x72
 1497 09d9 15090000 		.4byte	0x915
 1498 09dd 1C       		.byte	0x1c
 1499 09de 0B       		.uleb128 0xb
 1500 09df 41040000 		.4byte	.LASF149
 1501 09e3 0A       		.byte	0xa
 1502 09e4 76       		.byte	0x76
 1503 09e5 0A090000 		.4byte	0x90a
 1504 09e9 1D       		.byte	0x1d
 1505 09ea 0B       		.uleb128 0xb
 1506 09eb 8C070000 		.4byte	.LASF150
 1507 09ef 0A       		.byte	0xa
 1508 09f0 7B       		.byte	0x7b
 1509 09f1 20090000 		.4byte	0x920
 1510 09f5 1E       		.byte	0x1e
 1511 09f6 0B       		.uleb128 0xb
 1512 09f7 AF070000 		.4byte	.LASF151
 1513 09fb 0A       		.byte	0xa
 1514 09fc 81       		.byte	0x81
 1515 09fd 2B090000 		.4byte	0x92b
 1516 0a01 1F       		.byte	0x1f
 1517 0a02 0B       		.uleb128 0xb
 1518 0a03 1F000000 		.4byte	.LASF152
 1519 0a07 0A       		.byte	0xa
 1520 0a08 88       		.byte	0x88
 1521 0a09 62090000 		.4byte	0x962
 1522 0a0d 20       		.byte	0x20
 1523 0a0e 10       		.uleb128 0x10
 1524 0a0f 705F7500 		.ascii	"p_u\000"
 1525 0a13 0A       		.byte	0xa
 1526 0a14 AD       		.byte	0xad
 1527 0a15 E20C0000 		.4byte	0xce2
 1528 0a19 24       		.byte	0x24
 1529 0a1a 0B       		.uleb128 0xb
 1530 0a1b 15000000 		.4byte	.LASF153
 1531 0a1f 0A       		.byte	0xa
 1532 0a20 B2       		.byte	0xb2
 1533 0a21 B60A0000 		.4byte	0xab6
 1534 0a25 28       		.byte	0x28
 1535 0a26 0B       		.uleb128 0xb
 1536 0a27 81000000 		.4byte	.LASF154
 1537 0a2b 0A       		.byte	0xa
 1538 0a2c B8       		.byte	0xb8
 1539 0a2d 960A0000 		.4byte	0xa96
ARM GAS  /tmp/ccxox4Ym.s 			page 28


 1540 0a31 2C       		.byte	0x2c
 1541 0a32 0B       		.uleb128 0xb
 1542 0a33 B6040000 		.4byte	.LASF155
 1543 0a37 0A       		.byte	0xa
 1544 0a38 BC       		.byte	0xbc
 1545 0a39 41090000 		.4byte	0x941
 1546 0a3d 34       		.byte	0x34
 1547 0a3e 0B       		.uleb128 0xb
 1548 0a3f C6050000 		.4byte	.LASF156
 1549 0a43 0A       		.byte	0xa
 1550 0a44 C2       		.byte	0xc2
 1551 0a45 4C090000 		.4byte	0x94c
 1552 0a49 38       		.byte	0x38
 1553 0a4a 0B       		.uleb128 0xb
 1554 0a4b AB030000 		.4byte	.LASF157
 1555 0a4f 0A       		.byte	0xa
 1556 0a50 C9       		.byte	0xc9
 1557 0a51 170D0000 		.4byte	0xd17
 1558 0a55 3C       		.byte	0x3c
 1559 0a56 0B       		.uleb128 0xb
 1560 0a57 9C050000 		.4byte	.LASF158
 1561 0a5b 0A       		.byte	0xa
 1562 0a5c CD       		.byte	0xcd
 1563 0a5d 36090000 		.4byte	0x936
 1564 0a61 40       		.byte	0x40
 1565 0a62 0B       		.uleb128 0xb
 1566 0a63 A3030000 		.4byte	.LASF159
 1567 0a67 0A       		.byte	0xa
 1568 0a68 D3       		.byte	0xd3
 1569 0a69 4E010000 		.4byte	0x14e
 1570 0a6d 44       		.byte	0x44
 1571 0a6e 00       		.byte	0
 1572 0a6f 0A       		.uleb128 0xa
 1573 0a70 08       		.byte	0x8
 1574 0a71 09       		.byte	0x9
 1575 0a72 5A       		.byte	0x5a
 1576 0a73 900A0000 		.4byte	0xa90
 1577 0a77 0B       		.uleb128 0xb
 1578 0a78 0D060000 		.4byte	.LASF141
 1579 0a7c 09       		.byte	0x9
 1580 0a7d 5B       		.byte	0x5b
 1581 0a7e 900A0000 		.4byte	0xa90
 1582 0a82 00       		.byte	0
 1583 0a83 0B       		.uleb128 0xb
 1584 0a84 FE060000 		.4byte	.LASF142
 1585 0a88 09       		.byte	0x9
 1586 0a89 5D       		.byte	0x5d
 1587 0a8a 900A0000 		.4byte	0xa90
 1588 0a8e 04       		.byte	0x4
 1589 0a8f 00       		.byte	0
 1590 0a90 0D       		.uleb128 0xd
 1591 0a91 04       		.byte	0x4
 1592 0a92 67090000 		.4byte	0x967
 1593 0a96 03       		.uleb128 0x3
 1594 0a97 12030000 		.4byte	.LASF160
 1595 0a9b 09       		.byte	0x9
 1596 0a9c 5F       		.byte	0x5f
ARM GAS  /tmp/ccxox4Ym.s 			page 29


 1597 0a9d 6F0A0000 		.4byte	0xa6f
 1598 0aa1 0A       		.uleb128 0xa
 1599 0aa2 04       		.byte	0x4
 1600 0aa3 09       		.byte	0x9
 1601 0aa4 64       		.byte	0x64
 1602 0aa5 B60A0000 		.4byte	0xab6
 1603 0aa9 0B       		.uleb128 0xb
 1604 0aaa 0D060000 		.4byte	.LASF141
 1605 0aae 09       		.byte	0x9
 1606 0aaf 66       		.byte	0x66
 1607 0ab0 900A0000 		.4byte	0xa90
 1608 0ab4 00       		.byte	0
 1609 0ab5 00       		.byte	0
 1610 0ab6 03       		.uleb128 0x3
 1611 0ab7 09000000 		.4byte	.LASF161
 1612 0abb 09       		.byte	0x9
 1613 0abc 69       		.byte	0x69
 1614 0abd A10A0000 		.4byte	0xaa1
 1615 0ac1 03       		.uleb128 0x3
 1616 0ac2 26000000 		.4byte	.LASF162
 1617 0ac6 0B       		.byte	0xb
 1618 0ac7 DE       		.byte	0xde
 1619 0ac8 4E010000 		.4byte	0x14e
 1620 0acc 03       		.uleb128 0x3
 1621 0acd 42080000 		.4byte	.LASF163
 1622 0ad1 0B       		.byte	0xb
 1623 0ad2 E4       		.byte	0xe4
 1624 0ad3 F8080000 		.4byte	0x8f8
 1625 0ad7 19       		.uleb128 0x19
 1626 0ad8 EA040000 		.4byte	.LASF164
 1627 0adc 24       		.byte	0x24
 1628 0add 0B       		.byte	0xb
 1629 0ade 0501     		.2byte	0x105
 1630 0ae0 530B0000 		.4byte	0xb53
 1631 0ae4 20       		.uleb128 0x20
 1632 0ae5 723400   		.ascii	"r4\000"
 1633 0ae8 0B       		.byte	0xb
 1634 0ae9 1801     		.2byte	0x118
 1635 0aeb C10A0000 		.4byte	0xac1
 1636 0aef 00       		.byte	0
 1637 0af0 20       		.uleb128 0x20
 1638 0af1 723500   		.ascii	"r5\000"
 1639 0af4 0B       		.byte	0xb
 1640 0af5 1901     		.2byte	0x119
 1641 0af7 C10A0000 		.4byte	0xac1
 1642 0afb 04       		.byte	0x4
 1643 0afc 20       		.uleb128 0x20
 1644 0afd 723600   		.ascii	"r6\000"
 1645 0b00 0B       		.byte	0xb
 1646 0b01 1A01     		.2byte	0x11a
 1647 0b03 C10A0000 		.4byte	0xac1
 1648 0b07 08       		.byte	0x8
 1649 0b08 20       		.uleb128 0x20
 1650 0b09 723700   		.ascii	"r7\000"
 1651 0b0c 0B       		.byte	0xb
 1652 0b0d 1B01     		.2byte	0x11b
 1653 0b0f C10A0000 		.4byte	0xac1
ARM GAS  /tmp/ccxox4Ym.s 			page 30


 1654 0b13 0C       		.byte	0xc
 1655 0b14 20       		.uleb128 0x20
 1656 0b15 723800   		.ascii	"r8\000"
 1657 0b18 0B       		.byte	0xb
 1658 0b19 1C01     		.2byte	0x11c
 1659 0b1b C10A0000 		.4byte	0xac1
 1660 0b1f 10       		.byte	0x10
 1661 0b20 20       		.uleb128 0x20
 1662 0b21 723900   		.ascii	"r9\000"
 1663 0b24 0B       		.byte	0xb
 1664 0b25 1D01     		.2byte	0x11d
 1665 0b27 C10A0000 		.4byte	0xac1
 1666 0b2b 14       		.byte	0x14
 1667 0b2c 20       		.uleb128 0x20
 1668 0b2d 72313000 		.ascii	"r10\000"
 1669 0b31 0B       		.byte	0xb
 1670 0b32 1E01     		.2byte	0x11e
 1671 0b34 C10A0000 		.4byte	0xac1
 1672 0b38 18       		.byte	0x18
 1673 0b39 20       		.uleb128 0x20
 1674 0b3a 72313100 		.ascii	"r11\000"
 1675 0b3e 0B       		.byte	0xb
 1676 0b3f 1F01     		.2byte	0x11f
 1677 0b41 C10A0000 		.4byte	0xac1
 1678 0b45 1C       		.byte	0x1c
 1679 0b46 20       		.uleb128 0x20
 1680 0b47 6C7200   		.ascii	"lr\000"
 1681 0b4a 0B       		.byte	0xb
 1682 0b4b 2001     		.2byte	0x120
 1683 0b4d C10A0000 		.4byte	0xac1
 1684 0b51 20       		.byte	0x20
 1685 0b52 00       		.byte	0
 1686 0b53 19       		.uleb128 0x19
 1687 0b54 17040000 		.4byte	.LASF165
 1688 0b58 04       		.byte	0x4
 1689 0b59 0B       		.byte	0xb
 1690 0b5a 2A01     		.2byte	0x12a
 1691 0b5c 6E0B0000 		.4byte	0xb6e
 1692 0b60 20       		.uleb128 0x20
 1693 0b61 72313300 		.ascii	"r13\000"
 1694 0b65 0B       		.byte	0xb
 1695 0b66 2B01     		.2byte	0x12b
 1696 0b68 6E0B0000 		.4byte	0xb6e
 1697 0b6c 00       		.byte	0
 1698 0b6d 00       		.byte	0
 1699 0b6e 0D       		.uleb128 0xd
 1700 0b6f 04       		.byte	0x4
 1701 0b70 D70A0000 		.4byte	0xad7
 1702 0b74 03       		.uleb128 0x3
 1703 0b75 00000000 		.4byte	.LASF166
 1704 0b79 0C       		.byte	0xc
 1705 0b7a 51       		.byte	0x51
 1706 0b7b 7F0B0000 		.4byte	0xb7f
 1707 0b7f 0D       		.uleb128 0xd
 1708 0b80 04       		.byte	0x4
 1709 0b81 850B0000 		.4byte	0xb85
 1710 0b85 1D       		.uleb128 0x1d
ARM GAS  /tmp/ccxox4Ym.s 			page 31


 1711 0b86 900B0000 		.4byte	0xb90
 1712 0b8a 15       		.uleb128 0x15
 1713 0b8b 4E010000 		.4byte	0x14e
 1714 0b8f 00       		.byte	0
 1715 0b90 03       		.uleb128 0x3
 1716 0b91 56060000 		.4byte	.LASF167
 1717 0b95 0C       		.byte	0xc
 1718 0b96 56       		.byte	0x56
 1719 0b97 9B0B0000 		.4byte	0xb9b
 1720 0b9b 0F       		.uleb128 0xf
 1721 0b9c 56060000 		.4byte	.LASF167
 1722 0ba0 14       		.byte	0x14
 1723 0ba1 0C       		.byte	0xc
 1724 0ba2 5D       		.byte	0x5d
 1725 0ba3 E40B0000 		.4byte	0xbe4
 1726 0ba7 0B       		.uleb128 0xb
 1727 0ba8 C0070000 		.4byte	.LASF168
 1728 0bac 0C       		.byte	0xc
 1729 0bad 5E       		.byte	0x5e
 1730 0bae E40B0000 		.4byte	0xbe4
 1731 0bb2 00       		.byte	0
 1732 0bb3 0B       		.uleb128 0xb
 1733 0bb4 74080000 		.4byte	.LASF169
 1734 0bb8 0C       		.byte	0xc
 1735 0bb9 60       		.byte	0x60
 1736 0bba E40B0000 		.4byte	0xbe4
 1737 0bbe 04       		.byte	0x4
 1738 0bbf 0B       		.uleb128 0xb
 1739 0bc0 76010000 		.4byte	.LASF170
 1740 0bc4 0C       		.byte	0xc
 1741 0bc5 62       		.byte	0x62
 1742 0bc6 57090000 		.4byte	0x957
 1743 0bca 08       		.byte	0x8
 1744 0bcb 0B       		.uleb128 0xb
 1745 0bcc 66080000 		.4byte	.LASF171
 1746 0bd0 0C       		.byte	0xc
 1747 0bd1 63       		.byte	0x63
 1748 0bd2 740B0000 		.4byte	0xb74
 1749 0bd6 0C       		.byte	0xc
 1750 0bd7 0B       		.uleb128 0xb
 1751 0bd8 57070000 		.4byte	.LASF172
 1752 0bdc 0C       		.byte	0xc
 1753 0bdd 65       		.byte	0x65
 1754 0bde 4E010000 		.4byte	0x14e
 1755 0be2 10       		.byte	0x10
 1756 0be3 00       		.byte	0
 1757 0be4 0D       		.uleb128 0xd
 1758 0be5 04       		.byte	0x4
 1759 0be6 900B0000 		.4byte	0xb90
 1760 0bea 0A       		.uleb128 0xa
 1761 0beb 10       		.byte	0x10
 1762 0bec 0C       		.byte	0xc
 1763 0bed 6F       		.byte	0x6f
 1764 0bee 230C0000 		.4byte	0xc23
 1765 0bf2 0B       		.uleb128 0xb
 1766 0bf3 C0070000 		.4byte	.LASF168
 1767 0bf7 0C       		.byte	0xc
ARM GAS  /tmp/ccxox4Ym.s 			page 32


 1768 0bf8 70       		.byte	0x70
 1769 0bf9 E40B0000 		.4byte	0xbe4
 1770 0bfd 00       		.byte	0
 1771 0bfe 0B       		.uleb128 0xb
 1772 0bff 74080000 		.4byte	.LASF169
 1773 0c03 0C       		.byte	0xc
 1774 0c04 72       		.byte	0x72
 1775 0c05 E40B0000 		.4byte	0xbe4
 1776 0c09 04       		.byte	0x4
 1777 0c0a 0B       		.uleb128 0xb
 1778 0c0b 76010000 		.4byte	.LASF170
 1779 0c0f 0C       		.byte	0xc
 1780 0c10 74       		.byte	0x74
 1781 0c11 57090000 		.4byte	0x957
 1782 0c15 08       		.byte	0x8
 1783 0c16 0B       		.uleb128 0xb
 1784 0c17 76000000 		.4byte	.LASF173
 1785 0c1b 0C       		.byte	0xc
 1786 0c1c 75       		.byte	0x75
 1787 0c1d 62090000 		.4byte	0x962
 1788 0c21 0C       		.byte	0xc
 1789 0c22 00       		.byte	0
 1790 0c23 03       		.uleb128 0x3
 1791 0c24 68030000 		.4byte	.LASF174
 1792 0c28 0C       		.byte	0xc
 1793 0c29 76       		.byte	0x76
 1794 0c2a EA0B0000 		.4byte	0xbea
 1795 0c2e 21       		.uleb128 0x21
 1796 0c2f E9000000 		.4byte	.LASF175
 1797 0c33 0C       		.byte	0xc
 1798 0c34 EE       		.byte	0xee
 1799 0c35 230C0000 		.4byte	0xc23
 1800 0c39 0A       		.uleb128 0xa
 1801 0c3a 1C       		.byte	0x1c
 1802 0c3b 0D       		.byte	0xd
 1803 0c3c 57       		.byte	0x57
 1804 0c3d 8A0C0000 		.4byte	0xc8a
 1805 0c41 0B       		.uleb128 0xb
 1806 0c42 F7030000 		.4byte	.LASF176
 1807 0c46 0D       		.byte	0xd
 1808 0c47 58       		.byte	0x58
 1809 0c48 960A0000 		.4byte	0xa96
 1810 0c4c 00       		.byte	0
 1811 0c4d 0B       		.uleb128 0xb
 1812 0c4e A9010000 		.4byte	.LASF177
 1813 0c52 0D       		.byte	0xd
 1814 0c53 59       		.byte	0x59
 1815 0c54 36090000 		.4byte	0x936
 1816 0c58 08       		.byte	0x8
 1817 0c59 0B       		.uleb128 0xb
 1818 0c5a 3C080000 		.4byte	.LASF178
 1819 0c5e 0D       		.byte	0xd
 1820 0c5f 5B       		.byte	0x5b
 1821 0c60 530B0000 		.4byte	0xb53
 1822 0c64 0C       		.byte	0xc
 1823 0c65 0B       		.uleb128 0xb
 1824 0c66 50030000 		.4byte	.LASF179
ARM GAS  /tmp/ccxox4Ym.s 			page 33


 1825 0c6a 0D       		.byte	0xd
 1826 0c6b 5E       		.byte	0x5e
 1827 0c6c 900A0000 		.4byte	0xa90
 1828 0c70 10       		.byte	0x10
 1829 0c71 0B       		.uleb128 0xb
 1830 0c72 9F040000 		.4byte	.LASF180
 1831 0c76 0D       		.byte	0xd
 1832 0c77 5F       		.byte	0x5f
 1833 0c78 900A0000 		.4byte	0xa90
 1834 0c7c 14       		.byte	0x14
 1835 0c7d 0B       		.uleb128 0xb
 1836 0c7e BC050000 		.4byte	.LASF181
 1837 0c82 0D       		.byte	0xd
 1838 0c83 62       		.byte	0x62
 1839 0c84 900A0000 		.4byte	0xa90
 1840 0c88 18       		.byte	0x18
 1841 0c89 00       		.byte	0
 1842 0c8a 03       		.uleb128 0x3
 1843 0c8b 93070000 		.4byte	.LASF182
 1844 0c8f 0D       		.byte	0xd
 1845 0c90 64       		.byte	0x64
 1846 0c91 390C0000 		.4byte	0xc39
 1847 0c95 21       		.uleb128 0x21
 1848 0c96 44060000 		.4byte	.LASF183
 1849 0c9a 0D       		.byte	0xd
 1850 0c9b 68       		.byte	0x68
 1851 0c9c 8A0C0000 		.4byte	0xc8a
 1852 0ca0 0F       		.uleb128 0xf
 1853 0ca1 CF020000 		.4byte	.LASF184
 1854 0ca5 10       		.byte	0x10
 1855 0ca6 0E       		.byte	0xe
 1856 0ca7 25       		.byte	0x25
 1857 0ca8 D10C0000 		.4byte	0xcd1
 1858 0cac 0B       		.uleb128 0xb
 1859 0cad D1050000 		.4byte	.LASF185
 1860 0cb1 0E       		.byte	0xe
 1861 0cb2 26       		.byte	0x26
 1862 0cb3 960A0000 		.4byte	0xa96
 1863 0cb7 00       		.byte	0
 1864 0cb8 0B       		.uleb128 0xb
 1865 0cb9 6E000000 		.4byte	.LASF186
 1866 0cbd 0E       		.byte	0xe
 1867 0cbe 28       		.byte	0x28
 1868 0cbf 900A0000 		.4byte	0xa90
 1869 0cc3 08       		.byte	0x8
 1870 0cc4 0B       		.uleb128 0xb
 1871 0cc5 FA070000 		.4byte	.LASF187
 1872 0cc9 0E       		.byte	0xe
 1873 0cca 2A       		.byte	0x2a
 1874 0ccb D10C0000 		.4byte	0xcd1
 1875 0ccf 0C       		.byte	0xc
 1876 0cd0 00       		.byte	0
 1877 0cd1 0D       		.uleb128 0xd
 1878 0cd2 04       		.byte	0x4
 1879 0cd3 A00C0000 		.4byte	0xca0
 1880 0cd7 03       		.uleb128 0x3
 1881 0cd8 CF020000 		.4byte	.LASF184
ARM GAS  /tmp/ccxox4Ym.s 			page 34


 1882 0cdc 0E       		.byte	0xe
 1883 0cdd 2C       		.byte	0x2c
 1884 0cde A00C0000 		.4byte	0xca0
 1885 0ce2 06       		.uleb128 0x6
 1886 0ce3 04       		.byte	0x4
 1887 0ce4 0A       		.byte	0xa
 1888 0ce5 8F       		.byte	0x8f
 1889 0ce6 170D0000 		.4byte	0xd17
 1890 0cea 07       		.uleb128 0x7
 1891 0ceb 74020000 		.4byte	.LASF188
 1892 0cef 0A       		.byte	0xa
 1893 0cf0 96       		.byte	0x96
 1894 0cf1 41090000 		.4byte	0x941
 1895 0cf5 07       		.uleb128 0x7
 1896 0cf6 B7080000 		.4byte	.LASF189
 1897 0cfa 0A       		.byte	0xa
 1898 0cfb 9D       		.byte	0x9d
 1899 0cfc 41090000 		.4byte	0x941
 1900 0d00 07       		.uleb128 0x7
 1901 0d01 E2000000 		.4byte	.LASF190
 1902 0d05 0A       		.byte	0xa
 1903 0d06 A4       		.byte	0xa4
 1904 0d07 4E010000 		.4byte	0x14e
 1905 0d0b 07       		.uleb128 0x7
 1906 0d0c 08010000 		.4byte	.LASF191
 1907 0d10 0A       		.byte	0xa
 1908 0d11 AB       		.byte	0xab
 1909 0d12 4C090000 		.4byte	0x94c
 1910 0d16 00       		.byte	0
 1911 0d17 0D       		.uleb128 0xd
 1912 0d18 04       		.byte	0x4
 1913 0d19 D70C0000 		.4byte	0xcd7
 1914 0d1d 0D       		.uleb128 0xd
 1915 0d1e 04       		.byte	0x4
 1916 0d1f 230D0000 		.4byte	0xd23
 1917 0d23 14       		.uleb128 0x14
 1918 0d24 41090000 		.4byte	0x941
 1919 0d28 320D0000 		.4byte	0xd32
 1920 0d2c 15       		.uleb128 0x15
 1921 0d2d 4E010000 		.4byte	0x14e
 1922 0d31 00       		.byte	0
 1923 0d32 0A       		.uleb128 0xa
 1924 0d33 16       		.byte	0x16
 1925 0d34 0F       		.byte	0xf
 1926 0d35 25       		.byte	0x25
 1927 0d36 130E0000 		.4byte	0xe13
 1928 0d3a 0B       		.uleb128 0xb
 1929 0d3b C1060000 		.4byte	.LASF192
 1930 0d3f 0F       		.byte	0xf
 1931 0d40 26       		.byte	0x26
 1932 0d41 130E0000 		.4byte	0xe13
 1933 0d45 00       		.byte	0
 1934 0d46 0B       		.uleb128 0xb
 1935 0d47 6B040000 		.4byte	.LASF193
 1936 0d4b 0F       		.byte	0xf
 1937 0d4c 27       		.byte	0x27
 1938 0d4d C7080000 		.4byte	0x8c7
ARM GAS  /tmp/ccxox4Ym.s 			page 35


 1939 0d51 04       		.byte	0x4
 1940 0d52 0B       		.uleb128 0xb
 1941 0d53 C4040000 		.4byte	.LASF194
 1942 0d57 0F       		.byte	0xf
 1943 0d58 28       		.byte	0x28
 1944 0d59 C7080000 		.4byte	0x8c7
 1945 0d5d 05       		.byte	0x5
 1946 0d5e 0B       		.uleb128 0xb
 1947 0d5f A7050000 		.4byte	.LASF195
 1948 0d63 0F       		.byte	0xf
 1949 0d64 29       		.byte	0x29
 1950 0d65 D7080000 		.4byte	0x8d7
 1951 0d69 06       		.byte	0x6
 1952 0d6a 0B       		.uleb128 0xb
 1953 0d6b 34010000 		.4byte	.LASF196
 1954 0d6f 0F       		.byte	0xf
 1955 0d70 2A       		.byte	0x2a
 1956 0d71 C7080000 		.4byte	0x8c7
 1957 0d75 08       		.byte	0x8
 1958 0d76 0B       		.uleb128 0xb
 1959 0d77 91010000 		.4byte	.LASF197
 1960 0d7b 0F       		.byte	0xf
 1961 0d7c 2B       		.byte	0x2b
 1962 0d7d C7080000 		.4byte	0x8c7
 1963 0d81 09       		.byte	0x9
 1964 0d82 0B       		.uleb128 0xb
 1965 0d83 7B020000 		.4byte	.LASF198
 1966 0d87 0F       		.byte	0xf
 1967 0d88 2C       		.byte	0x2c
 1968 0d89 C7080000 		.4byte	0x8c7
 1969 0d8d 0A       		.byte	0xa
 1970 0d8e 0B       		.uleb128 0xb
 1971 0d8f 72060000 		.4byte	.LASF199
 1972 0d93 0F       		.byte	0xf
 1973 0d94 2D       		.byte	0x2d
 1974 0d95 C7080000 		.4byte	0x8c7
 1975 0d99 0B       		.byte	0xb
 1976 0d9a 0B       		.uleb128 0xb
 1977 0d9b DD020000 		.4byte	.LASF200
 1978 0d9f 0F       		.byte	0xf
 1979 0da0 2E       		.byte	0x2e
 1980 0da1 C7080000 		.4byte	0x8c7
 1981 0da5 0C       		.byte	0xc
 1982 0da6 0B       		.uleb128 0xb
 1983 0da7 15080000 		.4byte	.LASF201
 1984 0dab 0F       		.byte	0xf
 1985 0dac 2F       		.byte	0x2f
 1986 0dad C7080000 		.4byte	0x8c7
 1987 0db1 0D       		.byte	0xd
 1988 0db2 0B       		.uleb128 0xb
 1989 0db3 61000000 		.4byte	.LASF202
 1990 0db7 0F       		.byte	0xf
 1991 0db8 30       		.byte	0x30
 1992 0db9 C7080000 		.4byte	0x8c7
 1993 0dbd 0E       		.byte	0xe
 1994 0dbe 0B       		.uleb128 0xb
 1995 0dbf D6000000 		.4byte	.LASF203
ARM GAS  /tmp/ccxox4Ym.s 			page 36


 1996 0dc3 0F       		.byte	0xf
 1997 0dc4 31       		.byte	0x31
 1998 0dc5 C7080000 		.4byte	0x8c7
 1999 0dc9 0F       		.byte	0xf
 2000 0dca 0B       		.uleb128 0xb
 2001 0dcb ED050000 		.4byte	.LASF204
 2002 0dcf 0F       		.byte	0xf
 2003 0dd0 32       		.byte	0x32
 2004 0dd1 C7080000 		.4byte	0x8c7
 2005 0dd5 10       		.byte	0x10
 2006 0dd6 0B       		.uleb128 0xb
 2007 0dd7 28070000 		.4byte	.LASF205
 2008 0ddb 0F       		.byte	0xf
 2009 0ddc 34       		.byte	0x34
 2010 0ddd C7080000 		.4byte	0x8c7
 2011 0de1 11       		.byte	0x11
 2012 0de2 0B       		.uleb128 0xb
 2013 0de3 1D010000 		.4byte	.LASF206
 2014 0de7 0F       		.byte	0xf
 2015 0de8 35       		.byte	0x35
 2016 0de9 C7080000 		.4byte	0x8c7
 2017 0ded 12       		.byte	0x12
 2018 0dee 0B       		.uleb128 0xb
 2019 0def 5F040000 		.4byte	.LASF207
 2020 0df3 0F       		.byte	0xf
 2021 0df4 36       		.byte	0x36
 2022 0df5 C7080000 		.4byte	0x8c7
 2023 0df9 13       		.byte	0x13
 2024 0dfa 0B       		.uleb128 0xb
 2025 0dfb E1010000 		.4byte	.LASF208
 2026 0dff 0F       		.byte	0xf
 2027 0e00 37       		.byte	0x37
 2028 0e01 C7080000 		.4byte	0x8c7
 2029 0e05 14       		.byte	0x14
 2030 0e06 0B       		.uleb128 0xb
 2031 0e07 4A060000 		.4byte	.LASF209
 2032 0e0b 0F       		.byte	0xf
 2033 0e0c 39       		.byte	0x39
 2034 0e0d C7080000 		.4byte	0x8c7
 2035 0e11 15       		.byte	0x15
 2036 0e12 00       		.byte	0
 2037 0e13 08       		.uleb128 0x8
 2038 0e14 56010000 		.4byte	0x156
 2039 0e18 230E0000 		.4byte	0xe23
 2040 0e1c 09       		.uleb128 0x9
 2041 0e1d 10010000 		.4byte	0x110
 2042 0e21 03       		.byte	0x3
 2043 0e22 00       		.byte	0
 2044 0e23 03       		.uleb128 0x3
 2045 0e24 2A010000 		.4byte	.LASF210
 2046 0e28 0F       		.byte	0xf
 2047 0e29 3A       		.byte	0x3a
 2048 0e2a 320D0000 		.4byte	0xd32
 2049 0e2e 0E       		.uleb128 0xe
 2050 0e2f 230E0000 		.4byte	0xe23
 2051 0e33 21       		.uleb128 0x21
 2052 0e34 54080000 		.4byte	.LASF211
ARM GAS  /tmp/ccxox4Ym.s 			page 37


 2053 0e38 0F       		.byte	0xf
 2054 0e39 77       		.byte	0x77
 2055 0e3a 2E0E0000 		.4byte	0xe2e
 2056 0e3e 0D       		.uleb128 0xd
 2057 0e3f 04       		.byte	0x4
 2058 0e40 C7080000 		.4byte	0x8c7
 2059 0e44 14       		.uleb128 0x14
 2060 0e45 2C000000 		.4byte	0x2c
 2061 0e49 5D0E0000 		.4byte	0xe5d
 2062 0e4d 15       		.uleb128 0x15
 2063 0e4e 4E010000 		.4byte	0x14e
 2064 0e52 15       		.uleb128 0x15
 2065 0e53 5D0E0000 		.4byte	0xe5d
 2066 0e57 15       		.uleb128 0x15
 2067 0e58 2C000000 		.4byte	0x2c
 2068 0e5c 00       		.byte	0
 2069 0e5d 0D       		.uleb128 0xd
 2070 0e5e 04       		.byte	0x4
 2071 0e5f D2080000 		.4byte	0x8d2
 2072 0e63 0D       		.uleb128 0xd
 2073 0e64 04       		.byte	0x4
 2074 0e65 440E0000 		.4byte	0xe44
 2075 0e69 14       		.uleb128 0x14
 2076 0e6a 2C000000 		.4byte	0x2c
 2077 0e6e 820E0000 		.4byte	0xe82
 2078 0e72 15       		.uleb128 0x15
 2079 0e73 4E010000 		.4byte	0x14e
 2080 0e77 15       		.uleb128 0x15
 2081 0e78 3E0E0000 		.4byte	0xe3e
 2082 0e7c 15       		.uleb128 0x15
 2083 0e7d 2C000000 		.4byte	0x2c
 2084 0e81 00       		.byte	0
 2085 0e82 0D       		.uleb128 0xd
 2086 0e83 04       		.byte	0x4
 2087 0e84 690E0000 		.4byte	0xe69
 2088 0e88 14       		.uleb128 0x14
 2089 0e89 41090000 		.4byte	0x941
 2090 0e8d 9C0E0000 		.4byte	0xe9c
 2091 0e91 15       		.uleb128 0x15
 2092 0e92 4E010000 		.4byte	0x14e
 2093 0e96 15       		.uleb128 0x15
 2094 0e97 C7080000 		.4byte	0x8c7
 2095 0e9b 00       		.byte	0
 2096 0e9c 0D       		.uleb128 0xd
 2097 0e9d 04       		.byte	0x4
 2098 0e9e 880E0000 		.4byte	0xe88
 2099 0ea2 08       		.uleb128 0x8
 2100 0ea3 CC0A0000 		.4byte	0xacc
 2101 0ea7 B20E0000 		.4byte	0xeb2
 2102 0eab 09       		.uleb128 0x9
 2103 0eac 10010000 		.4byte	0x110
 2104 0eb0 17       		.byte	0x17
 2105 0eb1 00       		.byte	0
 2106 0eb2 21       		.uleb128 0x21
 2107 0eb3 BF000000 		.4byte	.LASF212
 2108 0eb7 10       		.byte	0x10
 2109 0eb8 82       		.byte	0x82
ARM GAS  /tmp/ccxox4Ym.s 			page 38


 2110 0eb9 A20E0000 		.4byte	0xea2
 2111 0ebd 0F       		.uleb128 0xf
 2112 0ebe 34040000 		.4byte	.LASF213
 2113 0ec2 10       		.byte	0x10
 2114 0ec3 11       		.byte	0x11
 2115 0ec4 3D       		.byte	0x3d
 2116 0ec5 FA0E0000 		.4byte	0xefa
 2117 0ec9 0B       		.uleb128 0xb
 2118 0eca EB030000 		.4byte	.LASF214
 2119 0ece 11       		.byte	0x11
 2120 0ecf 3E       		.byte	0x3e
 2121 0ed0 630E0000 		.4byte	0xe63
 2122 0ed4 00       		.byte	0
 2123 0ed5 0B       		.uleb128 0xb
 2124 0ed6 B0010000 		.4byte	.LASF215
 2125 0eda 11       		.byte	0x11
 2126 0edb 3E       		.byte	0x3e
 2127 0edc 820E0000 		.4byte	0xe82
 2128 0ee0 04       		.byte	0x4
 2129 0ee1 10       		.uleb128 0x10
 2130 0ee2 70757400 		.ascii	"put\000"
 2131 0ee6 11       		.byte	0x11
 2132 0ee7 3E       		.byte	0x3e
 2133 0ee8 9C0E0000 		.4byte	0xe9c
 2134 0eec 08       		.byte	0x8
 2135 0eed 10       		.uleb128 0x10
 2136 0eee 67657400 		.ascii	"get\000"
 2137 0ef2 11       		.byte	0x11
 2138 0ef3 3E       		.byte	0x3e
 2139 0ef4 1D0D0000 		.4byte	0xd1d
 2140 0ef8 0C       		.byte	0xc
 2141 0ef9 00       		.byte	0
 2142 0efa 0E       		.uleb128 0xe
 2143 0efb BD0E0000 		.4byte	0xebd
 2144 0eff 0A       		.uleb128 0xa
 2145 0f00 14       		.byte	0x14
 2146 0f01 11       		.byte	0x11
 2147 0f02 46       		.byte	0x46
 2148 0f03 440F0000 		.4byte	0xf44
 2149 0f07 10       		.uleb128 0x10
 2150 0f08 766D7400 		.ascii	"vmt\000"
 2151 0f0c 11       		.byte	0x11
 2152 0f0d 48       		.byte	0x48
 2153 0f0e 440F0000 		.4byte	0xf44
 2154 0f12 00       		.byte	0
 2155 0f13 0B       		.uleb128 0xb
 2156 0f14 7E040000 		.4byte	.LASF216
 2157 0f18 11       		.byte	0x11
 2158 0f19 49       		.byte	0x49
 2159 0f1a 3E0E0000 		.4byte	0xe3e
 2160 0f1e 04       		.byte	0x4
 2161 0f1f 0B       		.uleb128 0xb
 2162 0f20 85040000 		.4byte	.LASF217
 2163 0f24 11       		.byte	0x11
 2164 0f25 49       		.byte	0x49
 2165 0f26 2C000000 		.4byte	0x2c
 2166 0f2a 08       		.byte	0x8
ARM GAS  /tmp/ccxox4Ym.s 			page 39


 2167 0f2b 10       		.uleb128 0x10
 2168 0f2c 656F7300 		.ascii	"eos\000"
 2169 0f30 11       		.byte	0x11
 2170 0f31 49       		.byte	0x49
 2171 0f32 2C000000 		.4byte	0x2c
 2172 0f36 0C       		.byte	0xc
 2173 0f37 0B       		.uleb128 0xb
 2174 0f38 89020000 		.4byte	.LASF218
 2175 0f3c 11       		.byte	0x11
 2176 0f3d 49       		.byte	0x49
 2177 0f3e 2C000000 		.4byte	0x2c
 2178 0f42 10       		.byte	0x10
 2179 0f43 00       		.byte	0
 2180 0f44 0D       		.uleb128 0xd
 2181 0f45 04       		.byte	0x4
 2182 0f46 FA0E0000 		.4byte	0xefa
 2183 0f4a 03       		.uleb128 0x3
 2184 0f4b 66070000 		.4byte	.LASF219
 2185 0f4f 11       		.byte	0x11
 2186 0f50 4A       		.byte	0x4a
 2187 0f51 FF0E0000 		.4byte	0xeff
 2188 0f55 22       		.uleb128 0x22
 2189 0f56 766D7400 		.ascii	"vmt\000"
 2190 0f5a 01       		.byte	0x1
 2191 0f5b 57       		.byte	0x57
 2192 0f5c FA0E0000 		.4byte	0xefa
 2193 0f60 05       		.uleb128 0x5
 2194 0f61 03       		.byte	0x3
 2195 0f62 00000000 		.4byte	vmt
 2196 0f66 23       		.uleb128 0x23
 2197 0f67 60020000 		.4byte	.LASF225
 2198 0f6b 01       		.byte	0x1
 2199 0f6c 67       		.byte	0x67
 2200 0f6d 00000000 		.4byte	.LFB11
 2201 0f71 18000000 		.4byte	.LFE11-.LFB11
 2202 0f75 01       		.uleb128 0x1
 2203 0f76 9C       		.byte	0x9c
 2204 0f77 B00F0000 		.4byte	0xfb0
 2205 0f7b 24       		.uleb128 0x24
 2206 0f7c 6D737000 		.ascii	"msp\000"
 2207 0f80 01       		.byte	0x1
 2208 0f81 67       		.byte	0x67
 2209 0f82 B00F0000 		.4byte	0xfb0
 2210 0f86 01       		.uleb128 0x1
 2211 0f87 50       		.byte	0x50
 2212 0f88 25       		.uleb128 0x25
 2213 0f89 7E040000 		.4byte	.LASF216
 2214 0f8d 01       		.byte	0x1
 2215 0f8e 67       		.byte	0x67
 2216 0f8f 3E0E0000 		.4byte	0xe3e
 2217 0f93 01       		.uleb128 0x1
 2218 0f94 51       		.byte	0x51
 2219 0f95 25       		.uleb128 0x25
 2220 0f96 85040000 		.4byte	.LASF217
 2221 0f9a 01       		.byte	0x1
 2222 0f9b 68       		.byte	0x68
 2223 0f9c 2C000000 		.4byte	0x2c
ARM GAS  /tmp/ccxox4Ym.s 			page 40


 2224 0fa0 01       		.uleb128 0x1
 2225 0fa1 52       		.byte	0x52
 2226 0fa2 24       		.uleb128 0x24
 2227 0fa3 656F7300 		.ascii	"eos\000"
 2228 0fa7 01       		.byte	0x1
 2229 0fa8 68       		.byte	0x68
 2230 0fa9 2C000000 		.4byte	0x2c
 2231 0fad 01       		.uleb128 0x1
 2232 0fae 53       		.byte	0x53
 2233 0faf 00       		.byte	0
 2234 0fb0 0D       		.uleb128 0xd
 2235 0fb1 04       		.byte	0x4
 2236 0fb2 4A0F0000 		.4byte	0xf4a
 2237 0fb6 26       		.uleb128 0x26
 2238 0fb7 67657400 		.ascii	"get\000"
 2239 0fbb 01       		.byte	0x1
 2240 0fbc 4C       		.byte	0x4c
 2241 0fbd 41090000 		.4byte	0x941
 2242 0fc1 00000000 		.4byte	.LFB10
 2243 0fc5 1A000000 		.4byte	.LFE10-.LFB10
 2244 0fc9 01       		.uleb128 0x1
 2245 0fca 9C       		.byte	0x9c
 2246 0fcb FA0F0000 		.4byte	0xffa
 2247 0fcf 27       		.uleb128 0x27
 2248 0fd0 697000   		.ascii	"ip\000"
 2249 0fd3 01       		.byte	0x1
 2250 0fd4 4C       		.byte	0x4c
 2251 0fd5 4E010000 		.4byte	0x14e
 2252 0fd9 00000000 		.4byte	.LLST2
 2253 0fdd 28       		.uleb128 0x28
 2254 0fde 6200     		.ascii	"b\000"
 2255 0fe0 01       		.byte	0x1
 2256 0fe1 4D       		.byte	0x4d
 2257 0fe2 C7080000 		.4byte	0x8c7
 2258 0fe6 3A000000 		.4byte	.LLST3
 2259 0fea 28       		.uleb128 0x28
 2260 0feb 6D737000 		.ascii	"msp\000"
 2261 0fef 01       		.byte	0x1
 2262 0ff0 4E       		.byte	0x4e
 2263 0ff1 B00F0000 		.4byte	0xfb0
 2264 0ff5 4D000000 		.4byte	.LLST4
 2265 0ff9 00       		.byte	0
 2266 0ffa 26       		.uleb128 0x26
 2267 0ffb 70757400 		.ascii	"put\000"
 2268 0fff 01       		.byte	0x1
 2269 1000 42       		.byte	0x42
 2270 1001 41090000 		.4byte	0x941
 2271 1005 00000000 		.4byte	.LFB9
 2272 1009 22000000 		.4byte	.LFE9-.LFB9
 2273 100d 01       		.uleb128 0x1
 2274 100e 9C       		.byte	0x9c
 2275 100f 3C100000 		.4byte	0x103c
 2276 1013 27       		.uleb128 0x27
 2277 1014 697000   		.ascii	"ip\000"
 2278 1017 01       		.byte	0x1
 2279 1018 42       		.byte	0x42
 2280 1019 4E010000 		.4byte	0x14e
ARM GAS  /tmp/ccxox4Ym.s 			page 41


 2281 101d 87000000 		.4byte	.LLST0
 2282 1021 24       		.uleb128 0x24
 2283 1022 6200     		.ascii	"b\000"
 2284 1024 01       		.byte	0x1
 2285 1025 42       		.byte	0x42
 2286 1026 C7080000 		.4byte	0x8c7
 2287 102a 01       		.uleb128 0x1
 2288 102b 51       		.byte	0x51
 2289 102c 28       		.uleb128 0x28
 2290 102d 6D737000 		.ascii	"msp\000"
 2291 1031 01       		.byte	0x1
 2292 1032 43       		.byte	0x43
 2293 1033 B00F0000 		.4byte	0xfb0
 2294 1037 A5000000 		.4byte	.LLST1
 2295 103b 00       		.byte	0
 2296 103c 29       		.uleb128 0x29
 2297 103d 49040000 		.4byte	.LASF220
 2298 1041 01       		.byte	0x1
 2299 1042 38       		.byte	0x38
 2300 1043 2C000000 		.4byte	0x2c
 2301 1047 00000000 		.4byte	.LFB8
 2302 104b 26000000 		.4byte	.LFE8-.LFB8
 2303 104f 01       		.uleb128 0x1
 2304 1050 9C       		.byte	0x9c
 2305 1051 A5100000 		.4byte	0x10a5
 2306 1055 27       		.uleb128 0x27
 2307 1056 697000   		.ascii	"ip\000"
 2308 1059 01       		.byte	0x1
 2309 105a 38       		.byte	0x38
 2310 105b 4E010000 		.4byte	0x14e
 2311 105f C3000000 		.4byte	.LLST5
 2312 1063 27       		.uleb128 0x27
 2313 1064 627000   		.ascii	"bp\000"
 2314 1067 01       		.byte	0x1
 2315 1068 38       		.byte	0x38
 2316 1069 3E0E0000 		.4byte	0xe3e
 2317 106d E1000000 		.4byte	.LLST6
 2318 1071 27       		.uleb128 0x27
 2319 1072 6E00     		.ascii	"n\000"
 2320 1074 01       		.byte	0x1
 2321 1075 38       		.byte	0x38
 2322 1076 2C000000 		.4byte	0x2c
 2323 107a 0D010000 		.4byte	.LLST7
 2324 107e 28       		.uleb128 0x28
 2325 107f 6D737000 		.ascii	"msp\000"
 2326 1083 01       		.byte	0x1
 2327 1084 39       		.byte	0x39
 2328 1085 B00F0000 		.4byte	0xfb0
 2329 1089 36010000 		.4byte	.LLST8
 2330 108d 2A       		.uleb128 0x2a
 2331 108e 1C000000 		.4byte	.LVL13
 2332 1092 0E110000 		.4byte	0x110e
 2333 1096 2B       		.uleb128 0x2b
 2334 1097 01       		.uleb128 0x1
 2335 1098 50       		.byte	0x50
 2336 1099 03       		.uleb128 0x3
 2337 109a F3       		.byte	0xf3
ARM GAS  /tmp/ccxox4Ym.s 			page 42


 2338 109b 01       		.uleb128 0x1
 2339 109c 51       		.byte	0x51
 2340 109d 2B       		.uleb128 0x2b
 2341 109e 01       		.uleb128 0x1
 2342 109f 52       		.byte	0x52
 2343 10a0 02       		.uleb128 0x2
 2344 10a1 74       		.byte	0x74
 2345 10a2 00       		.sleb128 0
 2346 10a3 00       		.byte	0
 2347 10a4 00       		.byte	0
 2348 10a5 29       		.uleb128 0x29
 2349 10a6 C0030000 		.4byte	.LASF221
 2350 10aa 01       		.byte	0x1
 2351 10ab 2E       		.byte	0x2e
 2352 10ac 2C000000 		.4byte	0x2c
 2353 10b0 00000000 		.4byte	.LFB7
 2354 10b4 24000000 		.4byte	.LFE7-.LFB7
 2355 10b8 01       		.uleb128 0x1
 2356 10b9 9C       		.byte	0x9c
 2357 10ba 0E110000 		.4byte	0x110e
 2358 10be 27       		.uleb128 0x27
 2359 10bf 697000   		.ascii	"ip\000"
 2360 10c2 01       		.byte	0x1
 2361 10c3 2E       		.byte	0x2e
 2362 10c4 4E010000 		.4byte	0x14e
 2363 10c8 54010000 		.4byte	.LLST9
 2364 10cc 27       		.uleb128 0x27
 2365 10cd 627000   		.ascii	"bp\000"
 2366 10d0 01       		.byte	0x1
 2367 10d1 2E       		.byte	0x2e
 2368 10d2 5D0E0000 		.4byte	0xe5d
 2369 10d6 72010000 		.4byte	.LLST10
 2370 10da 27       		.uleb128 0x27
 2371 10db 6E00     		.ascii	"n\000"
 2372 10dd 01       		.byte	0x1
 2373 10de 2E       		.byte	0x2e
 2374 10df 2C000000 		.4byte	0x2c
 2375 10e3 93010000 		.4byte	.LLST11
 2376 10e7 28       		.uleb128 0x28
 2377 10e8 6D737000 		.ascii	"msp\000"
 2378 10ec 01       		.byte	0x1
 2379 10ed 2F       		.byte	0x2f
 2380 10ee B00F0000 		.4byte	0xfb0
 2381 10f2 BC010000 		.4byte	.LLST12
 2382 10f6 2A       		.uleb128 0x2a
 2383 10f7 1A000000 		.4byte	.LVL19
 2384 10fb 0E110000 		.4byte	0x110e
 2385 10ff 2B       		.uleb128 0x2b
 2386 1100 01       		.uleb128 0x1
 2387 1101 51       		.byte	0x51
 2388 1102 03       		.uleb128 0x3
 2389 1103 F3       		.byte	0xf3
 2390 1104 01       		.uleb128 0x1
 2391 1105 51       		.byte	0x51
 2392 1106 2B       		.uleb128 0x2b
 2393 1107 01       		.uleb128 0x1
 2394 1108 52       		.byte	0x52
ARM GAS  /tmp/ccxox4Ym.s 			page 43


 2395 1109 02       		.uleb128 0x2
 2396 110a 74       		.byte	0x74
 2397 110b 00       		.sleb128 0
 2398 110c 00       		.byte	0
 2399 110d 00       		.byte	0
 2400 110e 2C       		.uleb128 0x2c
 2401 110f 4D080000 		.4byte	.LASF226
 2402 1113 4D080000 		.4byte	.LASF226
 2403 1117 00       		.byte	0
 2404              		.section	.debug_abbrev,"",%progbits
 2405              	.Ldebug_abbrev0:
 2406 0000 01       		.uleb128 0x1
 2407 0001 11       		.uleb128 0x11
 2408 0002 01       		.byte	0x1
 2409 0003 25       		.uleb128 0x25
 2410 0004 0E       		.uleb128 0xe
 2411 0005 13       		.uleb128 0x13
 2412 0006 0B       		.uleb128 0xb
 2413 0007 03       		.uleb128 0x3
 2414 0008 0E       		.uleb128 0xe
 2415 0009 1B       		.uleb128 0x1b
 2416 000a 0E       		.uleb128 0xe
 2417 000b 55       		.uleb128 0x55
 2418 000c 17       		.uleb128 0x17
 2419 000d 11       		.uleb128 0x11
 2420 000e 01       		.uleb128 0x1
 2421 000f 10       		.uleb128 0x10
 2422 0010 17       		.uleb128 0x17
 2423 0011 00       		.byte	0
 2424 0012 00       		.byte	0
 2425 0013 02       		.uleb128 0x2
 2426 0014 24       		.uleb128 0x24
 2427 0015 00       		.byte	0
 2428 0016 0B       		.uleb128 0xb
 2429 0017 0B       		.uleb128 0xb
 2430 0018 3E       		.uleb128 0x3e
 2431 0019 0B       		.uleb128 0xb
 2432 001a 03       		.uleb128 0x3
 2433 001b 08       		.uleb128 0x8
 2434 001c 00       		.byte	0
 2435 001d 00       		.byte	0
 2436 001e 03       		.uleb128 0x3
 2437 001f 16       		.uleb128 0x16
 2438 0020 00       		.byte	0
 2439 0021 03       		.uleb128 0x3
 2440 0022 0E       		.uleb128 0xe
 2441 0023 3A       		.uleb128 0x3a
 2442 0024 0B       		.uleb128 0xb
 2443 0025 3B       		.uleb128 0x3b
 2444 0026 0B       		.uleb128 0xb
 2445 0027 49       		.uleb128 0x49
 2446 0028 13       		.uleb128 0x13
 2447 0029 00       		.byte	0
 2448 002a 00       		.byte	0
 2449 002b 04       		.uleb128 0x4
 2450 002c 24       		.uleb128 0x24
 2451 002d 00       		.byte	0
ARM GAS  /tmp/ccxox4Ym.s 			page 44


 2452 002e 0B       		.uleb128 0xb
 2453 002f 0B       		.uleb128 0xb
 2454 0030 3E       		.uleb128 0x3e
 2455 0031 0B       		.uleb128 0xb
 2456 0032 03       		.uleb128 0x3
 2457 0033 0E       		.uleb128 0xe
 2458 0034 00       		.byte	0
 2459 0035 00       		.byte	0
 2460 0036 05       		.uleb128 0x5
 2461 0037 16       		.uleb128 0x16
 2462 0038 00       		.byte	0
 2463 0039 03       		.uleb128 0x3
 2464 003a 0E       		.uleb128 0xe
 2465 003b 3A       		.uleb128 0x3a
 2466 003c 0B       		.uleb128 0xb
 2467 003d 3B       		.uleb128 0x3b
 2468 003e 05       		.uleb128 0x5
 2469 003f 49       		.uleb128 0x49
 2470 0040 13       		.uleb128 0x13
 2471 0041 00       		.byte	0
 2472 0042 00       		.byte	0
 2473 0043 06       		.uleb128 0x6
 2474 0044 17       		.uleb128 0x17
 2475 0045 01       		.byte	0x1
 2476 0046 0B       		.uleb128 0xb
 2477 0047 0B       		.uleb128 0xb
 2478 0048 3A       		.uleb128 0x3a
 2479 0049 0B       		.uleb128 0xb
 2480 004a 3B       		.uleb128 0x3b
 2481 004b 0B       		.uleb128 0xb
 2482 004c 01       		.uleb128 0x1
 2483 004d 13       		.uleb128 0x13
 2484 004e 00       		.byte	0
 2485 004f 00       		.byte	0
 2486 0050 07       		.uleb128 0x7
 2487 0051 0D       		.uleb128 0xd
 2488 0052 00       		.byte	0
 2489 0053 03       		.uleb128 0x3
 2490 0054 0E       		.uleb128 0xe
 2491 0055 3A       		.uleb128 0x3a
 2492 0056 0B       		.uleb128 0xb
 2493 0057 3B       		.uleb128 0x3b
 2494 0058 0B       		.uleb128 0xb
 2495 0059 49       		.uleb128 0x49
 2496 005a 13       		.uleb128 0x13
 2497 005b 00       		.byte	0
 2498 005c 00       		.byte	0
 2499 005d 08       		.uleb128 0x8
 2500 005e 01       		.uleb128 0x1
 2501 005f 01       		.byte	0x1
 2502 0060 49       		.uleb128 0x49
 2503 0061 13       		.uleb128 0x13
 2504 0062 01       		.uleb128 0x1
 2505 0063 13       		.uleb128 0x13
 2506 0064 00       		.byte	0
 2507 0065 00       		.byte	0
 2508 0066 09       		.uleb128 0x9
ARM GAS  /tmp/ccxox4Ym.s 			page 45


 2509 0067 21       		.uleb128 0x21
 2510 0068 00       		.byte	0
 2511 0069 49       		.uleb128 0x49
 2512 006a 13       		.uleb128 0x13
 2513 006b 2F       		.uleb128 0x2f
 2514 006c 0B       		.uleb128 0xb
 2515 006d 00       		.byte	0
 2516 006e 00       		.byte	0
 2517 006f 0A       		.uleb128 0xa
 2518 0070 13       		.uleb128 0x13
 2519 0071 01       		.byte	0x1
 2520 0072 0B       		.uleb128 0xb
 2521 0073 0B       		.uleb128 0xb
 2522 0074 3A       		.uleb128 0x3a
 2523 0075 0B       		.uleb128 0xb
 2524 0076 3B       		.uleb128 0x3b
 2525 0077 0B       		.uleb128 0xb
 2526 0078 01       		.uleb128 0x1
 2527 0079 13       		.uleb128 0x13
 2528 007a 00       		.byte	0
 2529 007b 00       		.byte	0
 2530 007c 0B       		.uleb128 0xb
 2531 007d 0D       		.uleb128 0xd
 2532 007e 00       		.byte	0
 2533 007f 03       		.uleb128 0x3
 2534 0080 0E       		.uleb128 0xe
 2535 0081 3A       		.uleb128 0x3a
 2536 0082 0B       		.uleb128 0xb
 2537 0083 3B       		.uleb128 0x3b
 2538 0084 0B       		.uleb128 0xb
 2539 0085 49       		.uleb128 0x49
 2540 0086 13       		.uleb128 0x13
 2541 0087 38       		.uleb128 0x38
 2542 0088 0B       		.uleb128 0xb
 2543 0089 00       		.byte	0
 2544 008a 00       		.byte	0
 2545 008b 0C       		.uleb128 0xc
 2546 008c 0F       		.uleb128 0xf
 2547 008d 00       		.byte	0
 2548 008e 0B       		.uleb128 0xb
 2549 008f 0B       		.uleb128 0xb
 2550 0090 00       		.byte	0
 2551 0091 00       		.byte	0
 2552 0092 0D       		.uleb128 0xd
 2553 0093 0F       		.uleb128 0xf
 2554 0094 00       		.byte	0
 2555 0095 0B       		.uleb128 0xb
 2556 0096 0B       		.uleb128 0xb
 2557 0097 49       		.uleb128 0x49
 2558 0098 13       		.uleb128 0x13
 2559 0099 00       		.byte	0
 2560 009a 00       		.byte	0
 2561 009b 0E       		.uleb128 0xe
 2562 009c 26       		.uleb128 0x26
 2563 009d 00       		.byte	0
 2564 009e 49       		.uleb128 0x49
 2565 009f 13       		.uleb128 0x13
ARM GAS  /tmp/ccxox4Ym.s 			page 46


 2566 00a0 00       		.byte	0
 2567 00a1 00       		.byte	0
 2568 00a2 0F       		.uleb128 0xf
 2569 00a3 13       		.uleb128 0x13
 2570 00a4 01       		.byte	0x1
 2571 00a5 03       		.uleb128 0x3
 2572 00a6 0E       		.uleb128 0xe
 2573 00a7 0B       		.uleb128 0xb
 2574 00a8 0B       		.uleb128 0xb
 2575 00a9 3A       		.uleb128 0x3a
 2576 00aa 0B       		.uleb128 0xb
 2577 00ab 3B       		.uleb128 0x3b
 2578 00ac 0B       		.uleb128 0xb
 2579 00ad 01       		.uleb128 0x1
 2580 00ae 13       		.uleb128 0x13
 2581 00af 00       		.byte	0
 2582 00b0 00       		.byte	0
 2583 00b1 10       		.uleb128 0x10
 2584 00b2 0D       		.uleb128 0xd
 2585 00b3 00       		.byte	0
 2586 00b4 03       		.uleb128 0x3
 2587 00b5 08       		.uleb128 0x8
 2588 00b6 3A       		.uleb128 0x3a
 2589 00b7 0B       		.uleb128 0xb
 2590 00b8 3B       		.uleb128 0x3b
 2591 00b9 0B       		.uleb128 0xb
 2592 00ba 49       		.uleb128 0x49
 2593 00bb 13       		.uleb128 0x13
 2594 00bc 38       		.uleb128 0x38
 2595 00bd 0B       		.uleb128 0xb
 2596 00be 00       		.byte	0
 2597 00bf 00       		.byte	0
 2598 00c0 11       		.uleb128 0x11
 2599 00c1 13       		.uleb128 0x13
 2600 00c2 01       		.byte	0x1
 2601 00c3 03       		.uleb128 0x3
 2602 00c4 0E       		.uleb128 0xe
 2603 00c5 0B       		.uleb128 0xb
 2604 00c6 05       		.uleb128 0x5
 2605 00c7 3A       		.uleb128 0x3a
 2606 00c8 0B       		.uleb128 0xb
 2607 00c9 3B       		.uleb128 0x3b
 2608 00ca 0B       		.uleb128 0xb
 2609 00cb 01       		.uleb128 0x1
 2610 00cc 13       		.uleb128 0x13
 2611 00cd 00       		.byte	0
 2612 00ce 00       		.byte	0
 2613 00cf 12       		.uleb128 0x12
 2614 00d0 0D       		.uleb128 0xd
 2615 00d1 00       		.byte	0
 2616 00d2 03       		.uleb128 0x3
 2617 00d3 0E       		.uleb128 0xe
 2618 00d4 3A       		.uleb128 0x3a
 2619 00d5 0B       		.uleb128 0xb
 2620 00d6 3B       		.uleb128 0x3b
 2621 00d7 0B       		.uleb128 0xb
 2622 00d8 49       		.uleb128 0x49
ARM GAS  /tmp/ccxox4Ym.s 			page 47


 2623 00d9 13       		.uleb128 0x13
 2624 00da 38       		.uleb128 0x38
 2625 00db 05       		.uleb128 0x5
 2626 00dc 00       		.byte	0
 2627 00dd 00       		.byte	0
 2628 00de 13       		.uleb128 0x13
 2629 00df 15       		.uleb128 0x15
 2630 00e0 00       		.byte	0
 2631 00e1 27       		.uleb128 0x27
 2632 00e2 19       		.uleb128 0x19
 2633 00e3 00       		.byte	0
 2634 00e4 00       		.byte	0
 2635 00e5 14       		.uleb128 0x14
 2636 00e6 15       		.uleb128 0x15
 2637 00e7 01       		.byte	0x1
 2638 00e8 27       		.uleb128 0x27
 2639 00e9 19       		.uleb128 0x19
 2640 00ea 49       		.uleb128 0x49
 2641 00eb 13       		.uleb128 0x13
 2642 00ec 01       		.uleb128 0x1
 2643 00ed 13       		.uleb128 0x13
 2644 00ee 00       		.byte	0
 2645 00ef 00       		.byte	0
 2646 00f0 15       		.uleb128 0x15
 2647 00f1 05       		.uleb128 0x5
 2648 00f2 00       		.byte	0
 2649 00f3 49       		.uleb128 0x49
 2650 00f4 13       		.uleb128 0x13
 2651 00f5 00       		.byte	0
 2652 00f6 00       		.byte	0
 2653 00f7 16       		.uleb128 0x16
 2654 00f8 13       		.uleb128 0x13
 2655 00f9 01       		.byte	0x1
 2656 00fa 03       		.uleb128 0x3
 2657 00fb 0E       		.uleb128 0xe
 2658 00fc 0B       		.uleb128 0xb
 2659 00fd 05       		.uleb128 0x5
 2660 00fe 3A       		.uleb128 0x3a
 2661 00ff 0B       		.uleb128 0xb
 2662 0100 3B       		.uleb128 0x3b
 2663 0101 05       		.uleb128 0x5
 2664 0102 01       		.uleb128 0x1
 2665 0103 13       		.uleb128 0x13
 2666 0104 00       		.byte	0
 2667 0105 00       		.byte	0
 2668 0106 17       		.uleb128 0x17
 2669 0107 0D       		.uleb128 0xd
 2670 0108 00       		.byte	0
 2671 0109 03       		.uleb128 0x3
 2672 010a 0E       		.uleb128 0xe
 2673 010b 3A       		.uleb128 0x3a
 2674 010c 0B       		.uleb128 0xb
 2675 010d 3B       		.uleb128 0x3b
 2676 010e 05       		.uleb128 0x5
 2677 010f 49       		.uleb128 0x49
 2678 0110 13       		.uleb128 0x13
 2679 0111 38       		.uleb128 0x38
ARM GAS  /tmp/ccxox4Ym.s 			page 48


 2680 0112 0B       		.uleb128 0xb
 2681 0113 00       		.byte	0
 2682 0114 00       		.byte	0
 2683 0115 18       		.uleb128 0x18
 2684 0116 0D       		.uleb128 0xd
 2685 0117 00       		.byte	0
 2686 0118 03       		.uleb128 0x3
 2687 0119 0E       		.uleb128 0xe
 2688 011a 3A       		.uleb128 0x3a
 2689 011b 0B       		.uleb128 0xb
 2690 011c 3B       		.uleb128 0x3b
 2691 011d 05       		.uleb128 0x5
 2692 011e 49       		.uleb128 0x49
 2693 011f 13       		.uleb128 0x13
 2694 0120 38       		.uleb128 0x38
 2695 0121 05       		.uleb128 0x5
 2696 0122 00       		.byte	0
 2697 0123 00       		.byte	0
 2698 0124 19       		.uleb128 0x19
 2699 0125 13       		.uleb128 0x13
 2700 0126 01       		.byte	0x1
 2701 0127 03       		.uleb128 0x3
 2702 0128 0E       		.uleb128 0xe
 2703 0129 0B       		.uleb128 0xb
 2704 012a 0B       		.uleb128 0xb
 2705 012b 3A       		.uleb128 0x3a
 2706 012c 0B       		.uleb128 0xb
 2707 012d 3B       		.uleb128 0x3b
 2708 012e 05       		.uleb128 0x5
 2709 012f 01       		.uleb128 0x1
 2710 0130 13       		.uleb128 0x13
 2711 0131 00       		.byte	0
 2712 0132 00       		.byte	0
 2713 0133 1A       		.uleb128 0x1a
 2714 0134 13       		.uleb128 0x13
 2715 0135 01       		.byte	0x1
 2716 0136 0B       		.uleb128 0xb
 2717 0137 0B       		.uleb128 0xb
 2718 0138 3A       		.uleb128 0x3a
 2719 0139 0B       		.uleb128 0xb
 2720 013a 3B       		.uleb128 0x3b
 2721 013b 05       		.uleb128 0x5
 2722 013c 01       		.uleb128 0x1
 2723 013d 13       		.uleb128 0x13
 2724 013e 00       		.byte	0
 2725 013f 00       		.byte	0
 2726 0140 1B       		.uleb128 0x1b
 2727 0141 17       		.uleb128 0x17
 2728 0142 01       		.byte	0x1
 2729 0143 0B       		.uleb128 0xb
 2730 0144 0B       		.uleb128 0xb
 2731 0145 3A       		.uleb128 0x3a
 2732 0146 0B       		.uleb128 0xb
 2733 0147 3B       		.uleb128 0x3b
 2734 0148 05       		.uleb128 0x5
 2735 0149 01       		.uleb128 0x1
 2736 014a 13       		.uleb128 0x13
ARM GAS  /tmp/ccxox4Ym.s 			page 49


 2737 014b 00       		.byte	0
 2738 014c 00       		.byte	0
 2739 014d 1C       		.uleb128 0x1c
 2740 014e 0D       		.uleb128 0xd
 2741 014f 00       		.byte	0
 2742 0150 03       		.uleb128 0x3
 2743 0151 0E       		.uleb128 0xe
 2744 0152 3A       		.uleb128 0x3a
 2745 0153 0B       		.uleb128 0xb
 2746 0154 3B       		.uleb128 0x3b
 2747 0155 05       		.uleb128 0x5
 2748 0156 49       		.uleb128 0x49
 2749 0157 13       		.uleb128 0x13
 2750 0158 00       		.byte	0
 2751 0159 00       		.byte	0
 2752 015a 1D       		.uleb128 0x1d
 2753 015b 15       		.uleb128 0x15
 2754 015c 01       		.byte	0x1
 2755 015d 27       		.uleb128 0x27
 2756 015e 19       		.uleb128 0x19
 2757 015f 01       		.uleb128 0x1
 2758 0160 13       		.uleb128 0x13
 2759 0161 00       		.byte	0
 2760 0162 00       		.byte	0
 2761 0163 1E       		.uleb128 0x1e
 2762 0164 34       		.uleb128 0x34
 2763 0165 00       		.byte	0
 2764 0166 03       		.uleb128 0x3
 2765 0167 0E       		.uleb128 0xe
 2766 0168 3A       		.uleb128 0x3a
 2767 0169 0B       		.uleb128 0xb
 2768 016a 3B       		.uleb128 0x3b
 2769 016b 05       		.uleb128 0x5
 2770 016c 49       		.uleb128 0x49
 2771 016d 13       		.uleb128 0x13
 2772 016e 3F       		.uleb128 0x3f
 2773 016f 19       		.uleb128 0x19
 2774 0170 3C       		.uleb128 0x3c
 2775 0171 19       		.uleb128 0x19
 2776 0172 00       		.byte	0
 2777 0173 00       		.byte	0
 2778 0174 1F       		.uleb128 0x1f
 2779 0175 35       		.uleb128 0x35
 2780 0176 00       		.byte	0
 2781 0177 49       		.uleb128 0x49
 2782 0178 13       		.uleb128 0x13
 2783 0179 00       		.byte	0
 2784 017a 00       		.byte	0
 2785 017b 20       		.uleb128 0x20
 2786 017c 0D       		.uleb128 0xd
 2787 017d 00       		.byte	0
 2788 017e 03       		.uleb128 0x3
 2789 017f 08       		.uleb128 0x8
 2790 0180 3A       		.uleb128 0x3a
 2791 0181 0B       		.uleb128 0xb
 2792 0182 3B       		.uleb128 0x3b
 2793 0183 05       		.uleb128 0x5
ARM GAS  /tmp/ccxox4Ym.s 			page 50


 2794 0184 49       		.uleb128 0x49
 2795 0185 13       		.uleb128 0x13
 2796 0186 38       		.uleb128 0x38
 2797 0187 0B       		.uleb128 0xb
 2798 0188 00       		.byte	0
 2799 0189 00       		.byte	0
 2800 018a 21       		.uleb128 0x21
 2801 018b 34       		.uleb128 0x34
 2802 018c 00       		.byte	0
 2803 018d 03       		.uleb128 0x3
 2804 018e 0E       		.uleb128 0xe
 2805 018f 3A       		.uleb128 0x3a
 2806 0190 0B       		.uleb128 0xb
 2807 0191 3B       		.uleb128 0x3b
 2808 0192 0B       		.uleb128 0xb
 2809 0193 49       		.uleb128 0x49
 2810 0194 13       		.uleb128 0x13
 2811 0195 3F       		.uleb128 0x3f
 2812 0196 19       		.uleb128 0x19
 2813 0197 3C       		.uleb128 0x3c
 2814 0198 19       		.uleb128 0x19
 2815 0199 00       		.byte	0
 2816 019a 00       		.byte	0
 2817 019b 22       		.uleb128 0x22
 2818 019c 34       		.uleb128 0x34
 2819 019d 00       		.byte	0
 2820 019e 03       		.uleb128 0x3
 2821 019f 08       		.uleb128 0x8
 2822 01a0 3A       		.uleb128 0x3a
 2823 01a1 0B       		.uleb128 0xb
 2824 01a2 3B       		.uleb128 0x3b
 2825 01a3 0B       		.uleb128 0xb
 2826 01a4 49       		.uleb128 0x49
 2827 01a5 13       		.uleb128 0x13
 2828 01a6 02       		.uleb128 0x2
 2829 01a7 18       		.uleb128 0x18
 2830 01a8 00       		.byte	0
 2831 01a9 00       		.byte	0
 2832 01aa 23       		.uleb128 0x23
 2833 01ab 2E       		.uleb128 0x2e
 2834 01ac 01       		.byte	0x1
 2835 01ad 3F       		.uleb128 0x3f
 2836 01ae 19       		.uleb128 0x19
 2837 01af 03       		.uleb128 0x3
 2838 01b0 0E       		.uleb128 0xe
 2839 01b1 3A       		.uleb128 0x3a
 2840 01b2 0B       		.uleb128 0xb
 2841 01b3 3B       		.uleb128 0x3b
 2842 01b4 0B       		.uleb128 0xb
 2843 01b5 27       		.uleb128 0x27
 2844 01b6 19       		.uleb128 0x19
 2845 01b7 11       		.uleb128 0x11
 2846 01b8 01       		.uleb128 0x1
 2847 01b9 12       		.uleb128 0x12
 2848 01ba 06       		.uleb128 0x6
 2849 01bb 40       		.uleb128 0x40
 2850 01bc 18       		.uleb128 0x18
ARM GAS  /tmp/ccxox4Ym.s 			page 51


 2851 01bd 9742     		.uleb128 0x2117
 2852 01bf 19       		.uleb128 0x19
 2853 01c0 01       		.uleb128 0x1
 2854 01c1 13       		.uleb128 0x13
 2855 01c2 00       		.byte	0
 2856 01c3 00       		.byte	0
 2857 01c4 24       		.uleb128 0x24
 2858 01c5 05       		.uleb128 0x5
 2859 01c6 00       		.byte	0
 2860 01c7 03       		.uleb128 0x3
 2861 01c8 08       		.uleb128 0x8
 2862 01c9 3A       		.uleb128 0x3a
 2863 01ca 0B       		.uleb128 0xb
 2864 01cb 3B       		.uleb128 0x3b
 2865 01cc 0B       		.uleb128 0xb
 2866 01cd 49       		.uleb128 0x49
 2867 01ce 13       		.uleb128 0x13
 2868 01cf 02       		.uleb128 0x2
 2869 01d0 18       		.uleb128 0x18
 2870 01d1 00       		.byte	0
 2871 01d2 00       		.byte	0
 2872 01d3 25       		.uleb128 0x25
 2873 01d4 05       		.uleb128 0x5
 2874 01d5 00       		.byte	0
 2875 01d6 03       		.uleb128 0x3
 2876 01d7 0E       		.uleb128 0xe
 2877 01d8 3A       		.uleb128 0x3a
 2878 01d9 0B       		.uleb128 0xb
 2879 01da 3B       		.uleb128 0x3b
 2880 01db 0B       		.uleb128 0xb
 2881 01dc 49       		.uleb128 0x49
 2882 01dd 13       		.uleb128 0x13
 2883 01de 02       		.uleb128 0x2
 2884 01df 18       		.uleb128 0x18
 2885 01e0 00       		.byte	0
 2886 01e1 00       		.byte	0
 2887 01e2 26       		.uleb128 0x26
 2888 01e3 2E       		.uleb128 0x2e
 2889 01e4 01       		.byte	0x1
 2890 01e5 03       		.uleb128 0x3
 2891 01e6 08       		.uleb128 0x8
 2892 01e7 3A       		.uleb128 0x3a
 2893 01e8 0B       		.uleb128 0xb
 2894 01e9 3B       		.uleb128 0x3b
 2895 01ea 0B       		.uleb128 0xb
 2896 01eb 27       		.uleb128 0x27
 2897 01ec 19       		.uleb128 0x19
 2898 01ed 49       		.uleb128 0x49
 2899 01ee 13       		.uleb128 0x13
 2900 01ef 11       		.uleb128 0x11
 2901 01f0 01       		.uleb128 0x1
 2902 01f1 12       		.uleb128 0x12
 2903 01f2 06       		.uleb128 0x6
 2904 01f3 40       		.uleb128 0x40
 2905 01f4 18       		.uleb128 0x18
 2906 01f5 9742     		.uleb128 0x2117
 2907 01f7 19       		.uleb128 0x19
ARM GAS  /tmp/ccxox4Ym.s 			page 52


 2908 01f8 01       		.uleb128 0x1
 2909 01f9 13       		.uleb128 0x13
 2910 01fa 00       		.byte	0
 2911 01fb 00       		.byte	0
 2912 01fc 27       		.uleb128 0x27
 2913 01fd 05       		.uleb128 0x5
 2914 01fe 00       		.byte	0
 2915 01ff 03       		.uleb128 0x3
 2916 0200 08       		.uleb128 0x8
 2917 0201 3A       		.uleb128 0x3a
 2918 0202 0B       		.uleb128 0xb
 2919 0203 3B       		.uleb128 0x3b
 2920 0204 0B       		.uleb128 0xb
 2921 0205 49       		.uleb128 0x49
 2922 0206 13       		.uleb128 0x13
 2923 0207 02       		.uleb128 0x2
 2924 0208 17       		.uleb128 0x17
 2925 0209 00       		.byte	0
 2926 020a 00       		.byte	0
 2927 020b 28       		.uleb128 0x28
 2928 020c 34       		.uleb128 0x34
 2929 020d 00       		.byte	0
 2930 020e 03       		.uleb128 0x3
 2931 020f 08       		.uleb128 0x8
 2932 0210 3A       		.uleb128 0x3a
 2933 0211 0B       		.uleb128 0xb
 2934 0212 3B       		.uleb128 0x3b
 2935 0213 0B       		.uleb128 0xb
 2936 0214 49       		.uleb128 0x49
 2937 0215 13       		.uleb128 0x13
 2938 0216 02       		.uleb128 0x2
 2939 0217 17       		.uleb128 0x17
 2940 0218 00       		.byte	0
 2941 0219 00       		.byte	0
 2942 021a 29       		.uleb128 0x29
 2943 021b 2E       		.uleb128 0x2e
 2944 021c 01       		.byte	0x1
 2945 021d 03       		.uleb128 0x3
 2946 021e 0E       		.uleb128 0xe
 2947 021f 3A       		.uleb128 0x3a
 2948 0220 0B       		.uleb128 0xb
 2949 0221 3B       		.uleb128 0x3b
 2950 0222 0B       		.uleb128 0xb
 2951 0223 27       		.uleb128 0x27
 2952 0224 19       		.uleb128 0x19
 2953 0225 49       		.uleb128 0x49
 2954 0226 13       		.uleb128 0x13
 2955 0227 11       		.uleb128 0x11
 2956 0228 01       		.uleb128 0x1
 2957 0229 12       		.uleb128 0x12
 2958 022a 06       		.uleb128 0x6
 2959 022b 40       		.uleb128 0x40
 2960 022c 18       		.uleb128 0x18
 2961 022d 9742     		.uleb128 0x2117
 2962 022f 19       		.uleb128 0x19
 2963 0230 01       		.uleb128 0x1
 2964 0231 13       		.uleb128 0x13
ARM GAS  /tmp/ccxox4Ym.s 			page 53


 2965 0232 00       		.byte	0
 2966 0233 00       		.byte	0
 2967 0234 2A       		.uleb128 0x2a
 2968 0235 898201   		.uleb128 0x4109
 2969 0238 01       		.byte	0x1
 2970 0239 11       		.uleb128 0x11
 2971 023a 01       		.uleb128 0x1
 2972 023b 31       		.uleb128 0x31
 2973 023c 13       		.uleb128 0x13
 2974 023d 00       		.byte	0
 2975 023e 00       		.byte	0
 2976 023f 2B       		.uleb128 0x2b
 2977 0240 8A8201   		.uleb128 0x410a
 2978 0243 00       		.byte	0
 2979 0244 02       		.uleb128 0x2
 2980 0245 18       		.uleb128 0x18
 2981 0246 9142     		.uleb128 0x2111
 2982 0248 18       		.uleb128 0x18
 2983 0249 00       		.byte	0
 2984 024a 00       		.byte	0
 2985 024b 2C       		.uleb128 0x2c
 2986 024c 2E       		.uleb128 0x2e
 2987 024d 00       		.byte	0
 2988 024e 3F       		.uleb128 0x3f
 2989 024f 19       		.uleb128 0x19
 2990 0250 3C       		.uleb128 0x3c
 2991 0251 19       		.uleb128 0x19
 2992 0252 6E       		.uleb128 0x6e
 2993 0253 0E       		.uleb128 0xe
 2994 0254 03       		.uleb128 0x3
 2995 0255 0E       		.uleb128 0xe
 2996 0256 00       		.byte	0
 2997 0257 00       		.byte	0
 2998 0258 00       		.byte	0
 2999              		.section	.debug_loc,"",%progbits
 3000              	.Ldebug_loc0:
 3001              	.LLST2:
 3002 0000 00000000 		.4byte	.LVL3
 3003 0004 12000000 		.4byte	.LVL5
 3004 0008 0100     		.2byte	0x1
 3005 000a 50       		.byte	0x50
 3006 000b 12000000 		.4byte	.LVL5
 3007 000f 14000000 		.4byte	.LVL6
 3008 0013 0400     		.2byte	0x4
 3009 0015 F3       		.byte	0xf3
 3010 0016 01       		.uleb128 0x1
 3011 0017 50       		.byte	0x50
 3012 0018 9F       		.byte	0x9f
 3013 0019 14000000 		.4byte	.LVL6
 3014 001d 18000000 		.4byte	.LVL7
 3015 0021 0100     		.2byte	0x1
 3016 0023 50       		.byte	0x50
 3017 0024 18000000 		.4byte	.LVL7
 3018 0028 1A000000 		.4byte	.LFE10
 3019 002c 0400     		.2byte	0x4
 3020 002e F3       		.byte	0xf3
 3021 002f 01       		.uleb128 0x1
ARM GAS  /tmp/ccxox4Ym.s 			page 54


 3022 0030 50       		.byte	0x50
 3023 0031 9F       		.byte	0x9f
 3024 0032 00000000 		.4byte	0
 3025 0036 00000000 		.4byte	0
 3026              	.LLST3:
 3027 003a 0E000000 		.4byte	.LVL4
 3028 003e 14000000 		.4byte	.LVL6
 3029 0042 0100     		.2byte	0x1
 3030 0044 53       		.byte	0x53
 3031 0045 00000000 		.4byte	0
 3032 0049 00000000 		.4byte	0
 3033              	.LLST4:
 3034 004d 00000000 		.4byte	.LVL3
 3035 0051 12000000 		.4byte	.LVL5
 3036 0055 0100     		.2byte	0x1
 3037 0057 50       		.byte	0x50
 3038 0058 12000000 		.4byte	.LVL5
 3039 005c 14000000 		.4byte	.LVL6
 3040 0060 0400     		.2byte	0x4
 3041 0062 F3       		.byte	0xf3
 3042 0063 01       		.uleb128 0x1
 3043 0064 50       		.byte	0x50
 3044 0065 9F       		.byte	0x9f
 3045 0066 14000000 		.4byte	.LVL6
 3046 006a 18000000 		.4byte	.LVL7
 3047 006e 0100     		.2byte	0x1
 3048 0070 50       		.byte	0x50
 3049 0071 18000000 		.4byte	.LVL7
 3050 0075 1A000000 		.4byte	.LFE10
 3051 0079 0400     		.2byte	0x4
 3052 007b F3       		.byte	0xf3
 3053 007c 01       		.uleb128 0x1
 3054 007d 50       		.byte	0x50
 3055 007e 9F       		.byte	0x9f
 3056 007f 00000000 		.4byte	0
 3057 0083 00000000 		.4byte	0
 3058              	.LLST0:
 3059 0087 00000000 		.4byte	.LVL0
 3060 008b 06000000 		.4byte	.LVL2
 3061 008f 0100     		.2byte	0x1
 3062 0091 50       		.byte	0x50
 3063 0092 06000000 		.4byte	.LVL2
 3064 0096 22000000 		.4byte	.LFE9
 3065 009a 0100     		.2byte	0x1
 3066 009c 53       		.byte	0x53
 3067 009d 00000000 		.4byte	0
 3068 00a1 00000000 		.4byte	0
 3069              	.LLST1:
 3070 00a5 04000000 		.4byte	.LVL1
 3071 00a9 06000000 		.4byte	.LVL2
 3072 00ad 0100     		.2byte	0x1
 3073 00af 50       		.byte	0x50
 3074 00b0 06000000 		.4byte	.LVL2
 3075 00b4 22000000 		.4byte	.LFE9
 3076 00b8 0100     		.2byte	0x1
 3077 00ba 53       		.byte	0x53
 3078 00bb 00000000 		.4byte	0
ARM GAS  /tmp/ccxox4Ym.s 			page 55


 3079 00bf 00000000 		.4byte	0
 3080              	.LLST5:
 3081 00c3 00000000 		.4byte	.LVL8
 3082 00c7 14000000 		.4byte	.LVL11
 3083 00cb 0100     		.2byte	0x1
 3084 00cd 50       		.byte	0x50
 3085 00ce 14000000 		.4byte	.LVL11
 3086 00d2 26000000 		.4byte	.LFE8
 3087 00d6 0100     		.2byte	0x1
 3088 00d8 55       		.byte	0x55
 3089 00d9 00000000 		.4byte	0
 3090 00dd 00000000 		.4byte	0
 3091              	.LLST6:
 3092 00e1 00000000 		.4byte	.LVL8
 3093 00e5 16000000 		.4byte	.LVL12
 3094 00e9 0100     		.2byte	0x1
 3095 00eb 51       		.byte	0x51
 3096 00ec 16000000 		.4byte	.LVL12
 3097 00f0 1B000000 		.4byte	.LVL13-1
 3098 00f4 0100     		.2byte	0x1
 3099 00f6 50       		.byte	0x50
 3100 00f7 1B000000 		.4byte	.LVL13-1
 3101 00fb 26000000 		.4byte	.LFE8
 3102 00ff 0400     		.2byte	0x4
 3103 0101 F3       		.byte	0xf3
 3104 0102 01       		.uleb128 0x1
 3105 0103 51       		.byte	0x51
 3106 0104 9F       		.byte	0x9f
 3107 0105 00000000 		.4byte	0
 3108 0109 00000000 		.4byte	0
 3109              	.LLST7:
 3110 010d 00000000 		.4byte	.LVL8
 3111 0111 10000000 		.4byte	.LVL10
 3112 0115 0100     		.2byte	0x1
 3113 0117 52       		.byte	0x52
 3114 0118 10000000 		.4byte	.LVL10
 3115 011c 22000000 		.4byte	.LVL14
 3116 0120 0100     		.2byte	0x1
 3117 0122 54       		.byte	0x54
 3118 0123 22000000 		.4byte	.LVL14
 3119 0127 26000000 		.4byte	.LFE8
 3120 012b 0100     		.2byte	0x1
 3121 012d 50       		.byte	0x50
 3122 012e 00000000 		.4byte	0
 3123 0132 00000000 		.4byte	0
 3124              	.LLST8:
 3125 0136 08000000 		.4byte	.LVL9
 3126 013a 14000000 		.4byte	.LVL11
 3127 013e 0100     		.2byte	0x1
 3128 0140 50       		.byte	0x50
 3129 0141 14000000 		.4byte	.LVL11
 3130 0145 26000000 		.4byte	.LFE8
 3131 0149 0100     		.2byte	0x1
 3132 014b 55       		.byte	0x55
 3133 014c 00000000 		.4byte	0
 3134 0150 00000000 		.4byte	0
 3135              	.LLST9:
ARM GAS  /tmp/ccxox4Ym.s 			page 56


 3136 0154 00000000 		.4byte	.LVL15
 3137 0158 12000000 		.4byte	.LVL18
 3138 015c 0100     		.2byte	0x1
 3139 015e 50       		.byte	0x50
 3140 015f 12000000 		.4byte	.LVL18
 3141 0163 24000000 		.4byte	.LFE7
 3142 0167 0100     		.2byte	0x1
 3143 0169 55       		.byte	0x55
 3144 016a 00000000 		.4byte	0
 3145 016e 00000000 		.4byte	0
 3146              	.LLST10:
 3147 0172 00000000 		.4byte	.LVL15
 3148 0176 19000000 		.4byte	.LVL19-1
 3149 017a 0100     		.2byte	0x1
 3150 017c 51       		.byte	0x51
 3151 017d 19000000 		.4byte	.LVL19-1
 3152 0181 24000000 		.4byte	.LFE7
 3153 0185 0400     		.2byte	0x4
 3154 0187 F3       		.byte	0xf3
 3155 0188 01       		.uleb128 0x1
 3156 0189 51       		.byte	0x51
 3157 018a 9F       		.byte	0x9f
 3158 018b 00000000 		.4byte	0
 3159 018f 00000000 		.4byte	0
 3160              	.LLST11:
 3161 0193 00000000 		.4byte	.LVL15
 3162 0197 10000000 		.4byte	.LVL17
 3163 019b 0100     		.2byte	0x1
 3164 019d 52       		.byte	0x52
 3165 019e 10000000 		.4byte	.LVL17
 3166 01a2 20000000 		.4byte	.LVL20
 3167 01a6 0100     		.2byte	0x1
 3168 01a8 54       		.byte	0x54
 3169 01a9 20000000 		.4byte	.LVL20
 3170 01ad 24000000 		.4byte	.LFE7
 3171 01b1 0100     		.2byte	0x1
 3172 01b3 50       		.byte	0x50
 3173 01b4 00000000 		.4byte	0
 3174 01b8 00000000 		.4byte	0
 3175              	.LLST12:
 3176 01bc 08000000 		.4byte	.LVL16
 3177 01c0 12000000 		.4byte	.LVL18
 3178 01c4 0100     		.2byte	0x1
 3179 01c6 50       		.byte	0x50
 3180 01c7 12000000 		.4byte	.LVL18
 3181 01cb 24000000 		.4byte	.LFE7
 3182 01cf 0100     		.2byte	0x1
 3183 01d1 55       		.byte	0x55
 3184 01d2 00000000 		.4byte	0
 3185 01d6 00000000 		.4byte	0
 3186              		.section	.debug_aranges,"",%progbits
 3187 0000 3C000000 		.4byte	0x3c
 3188 0004 0200     		.2byte	0x2
 3189 0006 00000000 		.4byte	.Ldebug_info0
 3190 000a 04       		.byte	0x4
 3191 000b 00       		.byte	0
 3192 000c 0000     		.2byte	0
ARM GAS  /tmp/ccxox4Ym.s 			page 57


 3193 000e 0000     		.2byte	0
 3194 0010 00000000 		.4byte	.LFB9
 3195 0014 22000000 		.4byte	.LFE9-.LFB9
 3196 0018 00000000 		.4byte	.LFB10
 3197 001c 1A000000 		.4byte	.LFE10-.LFB10
 3198 0020 00000000 		.4byte	.LFB8
 3199 0024 26000000 		.4byte	.LFE8-.LFB8
 3200 0028 00000000 		.4byte	.LFB7
 3201 002c 24000000 		.4byte	.LFE7-.LFB7
 3202 0030 00000000 		.4byte	.LFB11
 3203 0034 18000000 		.4byte	.LFE11-.LFB11
 3204 0038 00000000 		.4byte	0
 3205 003c 00000000 		.4byte	0
 3206              		.section	.debug_ranges,"",%progbits
 3207              	.Ldebug_ranges0:
 3208 0000 00000000 		.4byte	.LFB9
 3209 0004 22000000 		.4byte	.LFE9
 3210 0008 00000000 		.4byte	.LFB10
 3211 000c 1A000000 		.4byte	.LFE10
 3212 0010 00000000 		.4byte	.LFB8
 3213 0014 26000000 		.4byte	.LFE8
 3214 0018 00000000 		.4byte	.LFB7
 3215 001c 24000000 		.4byte	.LFE7
 3216 0020 00000000 		.4byte	.LFB11
 3217 0024 18000000 		.4byte	.LFE11
 3218 0028 00000000 		.4byte	0
 3219 002c 00000000 		.4byte	0
 3220              		.section	.debug_line,"",%progbits
 3221              	.Ldebug_line0:
 3222 0000 0A020000 		.section	.debug_str,"MS",%progbits,1
 3222      02008A01 
 3222      00000201 
 3222      FB0E0D00 
 3222      01010101 
 3223              	.LASF166:
 3224 0000 76746675 		.ascii	"vtfunc_t\000"
 3224      6E635F74 
 3224      00
 3225              	.LASF161:
 3226 0009 54687265 		.ascii	"ThreadsList\000"
 3226      6164734C 
 3226      69737400 
 3227              	.LASF153:
 3228 0015 705F7761 		.ascii	"p_waiting\000"
 3228      6974696E 
 3228      6700
 3229              	.LASF152:
 3230 001f 705F7469 		.ascii	"p_time\000"
 3230      6D6500
 3231              	.LASF162:
 3232 0026 72656761 		.ascii	"regarm_t\000"
 3232      726D5F74 
 3232      00
 3233              	.LASF143:
 3234 002f 705F7072 		.ascii	"p_prio\000"
 3234      696F00
 3235              	.LASF44:
ARM GAS  /tmp/ccxox4Ym.s 			page 58


 3236 0036 5F6F6E5F 		.ascii	"_on_exit_args\000"
 3236      65786974 
 3236      5F617267 
 3236      7300
 3237              	.LASF111:
 3238 0044 5F776374 		.ascii	"_wctomb_state\000"
 3238      6F6D625F 
 3238      73746174 
 3238      6500
 3239              	.LASF139:
 3240 0052 73797374 		.ascii	"systime_t\000"
 3240      696D655F 
 3240      7400
 3241              	.LASF108:
 3242 005c 5F723438 		.ascii	"_r48\000"
 3242      00
 3243              	.LASF202:
 3244 0061 63665F6F 		.ascii	"cf_off_older\000"
 3244      66665F6F 
 3244      6C646572 
 3244      00
 3245              	.LASF186:
 3246 006e 6D5F6F77 		.ascii	"m_owner\000"
 3246      6E657200 
 3247              	.LASF173:
 3248 0076 76745F73 		.ascii	"vt_systime\000"
 3248      79737469 
 3248      6D6500
 3249              	.LASF154:
 3250 0081 705F6D73 		.ascii	"p_msgqueue\000"
 3250      67717565 
 3250      756500
 3251              	.LASF113:
 3252 008c 5F736967 		.ascii	"_signal_buf\000"
 3252      6E616C5F 
 3252      62756600 
 3253              	.LASF0:
 3254 0098 756E7369 		.ascii	"unsigned int\000"
 3254      676E6564 
 3254      20696E74 
 3254      00
 3255              	.LASF58:
 3256 00a5 5F6C6266 		.ascii	"_lbfsize\000"
 3256      73697A65 
 3256      00
 3257              	.LASF56:
 3258 00ae 5F666C61 		.ascii	"_flags\000"
 3258      677300
 3259              	.LASF10:
 3260 00b5 5F5F696E 		.ascii	"__int32_t\000"
 3260      7433325F 
 3260      7400
 3261              	.LASF212:
 3262 00bf 5F69646C 		.ascii	"_idle_thread_wa\000"
 3262      655F7468 
 3262      72656164 
 3262      5F776100 
ARM GAS  /tmp/ccxox4Ym.s 			page 59


 3263              	.LASF73:
 3264 00cf 5F657272 		.ascii	"_errno\000"
 3264      6E6F00
 3265              	.LASF203:
 3266 00d6 63665F6F 		.ascii	"cf_off_name\000"
 3266      66665F6E 
 3266      616D6500 
 3267              	.LASF190:
 3268 00e2 77746F62 		.ascii	"wtobjp\000"
 3268      6A7000
 3269              	.LASF175:
 3270 00e9 76746C69 		.ascii	"vtlist\000"
 3270      737400
 3271              	.LASF16:
 3272 00f0 5F4C4F43 		.ascii	"_LOCK_RECURSIVE_T\000"
 3272      4B5F5245 
 3272      43555253 
 3272      4956455F 
 3272      5400
 3273              	.LASF60:
 3274 0102 5F726561 		.ascii	"_read\000"
 3274      6400
 3275              	.LASF191:
 3276 0108 65776D61 		.ascii	"ewmask\000"
 3276      736B00
 3277              	.LASF115:
 3278 010f 5F6D6272 		.ascii	"_mbrlen_state\000"
 3278      6C656E5F 
 3278      73746174 
 3278      6500
 3279              	.LASF206:
 3280 011d 63665F6F 		.ascii	"cf_off_flags\000"
 3280      66665F66 
 3280      6C616773 
 3280      00
 3281              	.LASF210:
 3282 012a 63686465 		.ascii	"chdebug_t\000"
 3282      6275675F 
 3282      7400
 3283              	.LASF196:
 3284 0134 63685F70 		.ascii	"ch_ptrsize\000"
 3284      74727369 
 3284      7A6500
 3285              	.LASF75:
 3286 013f 5F737464 		.ascii	"_stdout\000"
 3286      6F757400 
 3287              	.LASF18:
 3288 0147 5F66706F 		.ascii	"_fpos_t\000"
 3288      735F7400 
 3289              	.LASF51:
 3290 014f 5F666E73 		.ascii	"_fns\000"
 3290      00
 3291              	.LASF59:
 3292 0154 5F636F6F 		.ascii	"_cookie\000"
 3292      6B696500 
 3293              	.LASF33:
 3294 015c 5F426967 		.ascii	"_Bigint\000"
ARM GAS  /tmp/ccxox4Ym.s 			page 60


 3294      696E7400 
 3295              	.LASF41:
 3296 0164 5F5F746D 		.ascii	"__tm_wday\000"
 3296      5F776461 
 3296      7900
 3297              	.LASF83:
 3298 016e 5F726573 		.ascii	"_result\000"
 3298      756C7400 
 3299              	.LASF170:
 3300 0176 76745F74 		.ascii	"vt_time\000"
 3300      696D6500 
 3301              	.LASF129:
 3302 017e 75696E74 		.ascii	"uint32_t\000"
 3302      33325F74 
 3302      00
 3303              	.LASF37:
 3304 0187 5F5F746D 		.ascii	"__tm_hour\000"
 3304      5F686F75 
 3304      7200
 3305              	.LASF197:
 3306 0191 63685F74 		.ascii	"ch_timesize\000"
 3306      696D6573 
 3306      697A6500 
 3307              	.LASF138:
 3308 019d 6576656E 		.ascii	"eventmask_t\000"
 3308      746D6173 
 3308      6B5F7400 
 3309              	.LASF177:
 3310 01a9 725F7072 		.ascii	"r_prio\000"
 3310      696F00
 3311              	.LASF215:
 3312 01b0 72656164 		.ascii	"read\000"
 3312      00
 3313              	.LASF23:
 3314 01b5 5F5F636F 		.ascii	"__count\000"
 3314      756E7400 
 3315              	.LASF36:
 3316 01bd 5F5F746D 		.ascii	"__tm_min\000"
 3316      5F6D696E 
 3316      00
 3317              	.LASF124:
 3318 01c6 5F696D70 		.ascii	"_impure_ptr\000"
 3318      7572655F 
 3318      70747200 
 3319              	.LASF136:
 3320 01d2 74707269 		.ascii	"tprio_t\000"
 3320      6F5F7400 
 3321              	.LASF121:
 3322 01da 5F6E6578 		.ascii	"_nextf\000"
 3322      746600
 3323              	.LASF208:
 3324 01e1 63665F6F 		.ascii	"cf_off_preempt\000"
 3324      66665F70 
 3324      7265656D 
 3324      707400
 3325              	.LASF98:
 3326 01f0 5F72616E 		.ascii	"_rand48\000"
ARM GAS  /tmp/ccxox4Ym.s 			page 61


 3326      64343800 
 3327              	.LASF84:
 3328 01f8 5F726573 		.ascii	"_result_k\000"
 3328      756C745F 
 3328      6B00
 3329              	.LASF15:
 3330 0202 6C6F6E67 		.ascii	"long long unsigned int\000"
 3330      206C6F6E 
 3330      6720756E 
 3330      7369676E 
 3330      65642069 
 3331              	.LASF104:
 3332 0219 5F617363 		.ascii	"_asctime_buf\000"
 3332      74696D65 
 3332      5F627566 
 3332      00
 3333              	.LASF55:
 3334 0226 5F5F7346 		.ascii	"__sFILE\000"
 3334      494C4500 
 3335              	.LASF32:
 3336 022e 5F776473 		.ascii	"_wds\000"
 3336      00
 3337              	.LASF8:
 3338 0233 5F5F7569 		.ascii	"__uint16_t\000"
 3338      6E743136 
 3338      5F7400
 3339              	.LASF94:
 3340 023e 5F5F4649 		.ascii	"__FILE\000"
 3340      4C4500
 3341              	.LASF67:
 3342 0245 5F6F6666 		.ascii	"_offset\000"
 3342      73657400 
 3343              	.LASF145:
 3344 024d 705F6E65 		.ascii	"p_newer\000"
 3344      77657200 
 3345              	.LASF78:
 3346 0255 5F656D65 		.ascii	"_emergency\000"
 3346      7267656E 
 3346      637900
 3347              	.LASF225:
 3348 0260 6D734F62 		.ascii	"msObjectInit\000"
 3348      6A656374 
 3348      496E6974 
 3348      00
 3349              	.LASF4:
 3350 026d 73697A65 		.ascii	"size_t\000"
 3350      5F7400
 3351              	.LASF188:
 3352 0274 7264796D 		.ascii	"rdymsg\000"
 3352      736700
 3353              	.LASF198:
 3354 027b 63685F74 		.ascii	"ch_threadsize\000"
 3354      68726561 
 3354      6473697A 
 3354      6500
 3355              	.LASF218:
 3356 0289 6F666673 		.ascii	"offset\000"
ARM GAS  /tmp/ccxox4Ym.s 			page 62


 3356      657400
 3357              	.LASF35:
 3358 0290 5F5F746D 		.ascii	"__tm_sec\000"
 3358      5F736563 
 3358      00
 3359              	.LASF42:
 3360 0299 5F5F746D 		.ascii	"__tm_yday\000"
 3360      5F796461 
 3360      7900
 3361              	.LASF77:
 3362 02a3 5F696E63 		.ascii	"_inc\000"
 3362      00
 3363              	.LASF50:
 3364 02a8 5F696E64 		.ascii	"_ind\000"
 3364      00
 3365              	.LASF29:
 3366 02ad 5F6E6578 		.ascii	"_next\000"
 3366      7400
 3367              	.LASF117:
 3368 02b3 5F6D6273 		.ascii	"_mbsrtowcs_state\000"
 3368      72746F77 
 3368      63735F73 
 3368      74617465 
 3368      00
 3369              	.LASF14:
 3370 02c4 5F5F7569 		.ascii	"__uint64_t\000"
 3370      6E743634 
 3370      5F7400
 3371              	.LASF184:
 3372 02cf 4D757465 		.ascii	"Mutex\000"
 3372      7800
 3373              	.LASF24:
 3374 02d5 5F5F7661 		.ascii	"__value\000"
 3374      6C756500 
 3375              	.LASF200:
 3376 02dd 63665F6F 		.ascii	"cf_off_ctx\000"
 3376      66665F63 
 3376      747800
 3377              	.LASF85:
 3378 02e8 5F703573 		.ascii	"_p5s\000"
 3378      00
 3379              	.LASF147:
 3380 02ed 705F6E61 		.ascii	"p_name\000"
 3380      6D6500
 3381              	.LASF119:
 3382 02f4 5F776373 		.ascii	"_wcsrtombs_state\000"
 3382      72746F6D 
 3382      62735F73 
 3382      74617465 
 3382      00
 3383              	.LASF109:
 3384 0305 5F6D626C 		.ascii	"_mblen_state\000"
 3384      656E5F73 
 3384      74617465 
 3384      00
 3385              	.LASF160:
 3386 0312 54687265 		.ascii	"ThreadsQueue\000"
ARM GAS  /tmp/ccxox4Ym.s 			page 63


 3386      61647351 
 3386      75657565 
 3386      00
 3387              	.LASF27:
 3388 031f 63686172 		.ascii	"char\000"
 3388      00
 3389              	.LASF38:
 3390 0324 5F5F746D 		.ascii	"__tm_mday\000"
 3390      5F6D6461 
 3390      7900
 3391              	.LASF91:
 3392 032e 5F736967 		.ascii	"_sig_func\000"
 3392      5F66756E 
 3392      6300
 3393              	.LASF116:
 3394 0338 5F6D6272 		.ascii	"_mbrtowc_state\000"
 3394      746F7763 
 3394      5F737461 
 3394      746500
 3395              	.LASF90:
 3396 0347 5F617465 		.ascii	"_atexit0\000"
 3396      78697430 
 3396      00
 3397              	.LASF179:
 3398 0350 725F6E65 		.ascii	"r_newer\000"
 3398      77657200 
 3399              	.LASF140:
 3400 0358 54687265 		.ascii	"Thread\000"
 3400      616400
 3401              	.LASF133:
 3402 035f 74737461 		.ascii	"tstate_t\000"
 3402      74655F74 
 3402      00
 3403              	.LASF174:
 3404 0368 56544C69 		.ascii	"VTList\000"
 3404      737400
 3405              	.LASF26:
 3406 036f 5F666C6F 		.ascii	"_flock_t\000"
 3406      636B5F74 
 3406      00
 3407              	.LASF146:
 3408 0378 705F6F6C 		.ascii	"p_older\000"
 3408      64657200 
 3409              	.LASF148:
 3410 0380 705F7374 		.ascii	"p_state\000"
 3410      61746500 
 3411              	.LASF20:
 3412 0388 5F5F7763 		.ascii	"__wch\000"
 3412      6800
 3413              	.LASF97:
 3414 038e 5F696F62 		.ascii	"_iobs\000"
 3414      7300
 3415              	.LASF126:
 3416 0394 75696E74 		.ascii	"uint8_t\000"
 3416      385F7400 
 3417              	.LASF63:
 3418 039c 5F636C6F 		.ascii	"_close\000"
ARM GAS  /tmp/ccxox4Ym.s 			page 64


 3418      736500
 3419              	.LASF159:
 3420 03a3 705F6D70 		.ascii	"p_mpool\000"
 3420      6F6F6C00 
 3421              	.LASF157:
 3422 03ab 705F6D74 		.ascii	"p_mtxlist\000"
 3422      786C6973 
 3422      7400
 3423              	.LASF81:
 3424 03b5 5F5F7364 		.ascii	"__sdidinit\000"
 3424      6964696E 
 3424      697400
 3425              	.LASF221:
 3426 03c0 77726974 		.ascii	"writes\000"
 3426      657300
 3427              	.LASF74:
 3428 03c7 5F737464 		.ascii	"_stdin\000"
 3428      696E00
 3429              	.LASF106:
 3430 03ce 5F67616D 		.ascii	"_gamma_signgam\000"
 3430      6D615F73 
 3430      69676E67 
 3430      616D00
 3431              	.LASF1:
 3432 03dd 6C6F6E67 		.ascii	"long long int\000"
 3432      206C6F6E 
 3432      6720696E 
 3432      7400
 3433              	.LASF214:
 3434 03eb 77726974 		.ascii	"write\000"
 3434      6500
 3435              	.LASF53:
 3436 03f1 5F626173 		.ascii	"_base\000"
 3436      6500
 3437              	.LASF176:
 3438 03f7 725F7175 		.ascii	"r_queue\000"
 3438      65756500 
 3439              	.LASF86:
 3440 03ff 5F667265 		.ascii	"_freelist\000"
 3440      656C6973 
 3440      7400
 3441              	.LASF100:
 3442 0409 5F6D756C 		.ascii	"_mult\000"
 3442      7400
 3443              	.LASF28:
 3444 040f 5F5F554C 		.ascii	"__ULong\000"
 3444      6F6E6700 
 3445              	.LASF165:
 3446 0417 636F6E74 		.ascii	"context\000"
 3446      65787400 
 3447              	.LASF118:
 3448 041f 5F776372 		.ascii	"_wcrtomb_state\000"
 3448      746F6D62 
 3448      5F737461 
 3448      746500
 3449              	.LASF57:
 3450 042e 5F66696C 		.ascii	"_file\000"
ARM GAS  /tmp/ccxox4Ym.s 			page 65


 3450      6500
 3451              	.LASF213:
 3452 0434 4D656D53 		.ascii	"MemStreamVMT\000"
 3452      74726561 
 3452      6D564D54 
 3452      00
 3453              	.LASF149:
 3454 0441 705F666C 		.ascii	"p_flags\000"
 3454      61677300 
 3455              	.LASF220:
 3456 0449 72656164 		.ascii	"reads\000"
 3456      7300
 3457              	.LASF137:
 3458 044f 6D73675F 		.ascii	"msg_t\000"
 3458      7400
 3459              	.LASF82:
 3460 0455 5F5F636C 		.ascii	"__cleanup\000"
 3460      65616E75 
 3460      7000
 3461              	.LASF207:
 3462 045f 63665F6F 		.ascii	"cf_off_refs\000"
 3462      66665F72 
 3462      65667300 
 3463              	.LASF193:
 3464 046b 63685F7A 		.ascii	"ch_zero\000"
 3464      65726F00 
 3465              	.LASF25:
 3466 0473 5F6D6273 		.ascii	"_mbstate_t\000"
 3466      74617465 
 3466      5F7400
 3467              	.LASF216:
 3468 047e 62756666 		.ascii	"buffer\000"
 3468      657200
 3469              	.LASF217:
 3470 0485 73697A65 		.ascii	"size\000"
 3470      00
 3471              	.LASF43:
 3472 048a 5F5F746D 		.ascii	"__tm_isdst\000"
 3472      5F697364 
 3472      737400
 3473              	.LASF135:
 3474 0495 74736C69 		.ascii	"tslices_t\000"
 3474      6365735F 
 3474      7400
 3475              	.LASF180:
 3476 049f 725F6F6C 		.ascii	"r_older\000"
 3476      64657200 
 3477              	.LASF120:
 3478 04a7 5F685F65 		.ascii	"_h_errno\000"
 3478      72726E6F 
 3478      00
 3479              	.LASF131:
 3480 04b0 5F426F6F 		.ascii	"_Bool\000"
 3480      6C00
 3481              	.LASF155:
 3482 04b6 705F6D73 		.ascii	"p_msg\000"
 3482      6700
ARM GAS  /tmp/ccxox4Ym.s 			page 66


 3483              	.LASF132:
 3484 04bc 746D6F64 		.ascii	"tmode_t\000"
 3484      655F7400 
 3485              	.LASF194:
 3486 04c4 63685F73 		.ascii	"ch_size\000"
 3486      697A6500 
 3487              	.LASF39:
 3488 04cc 5F5F746D 		.ascii	"__tm_mon\000"
 3488      5F6D6F6E 
 3488      00
 3489              	.LASF2:
 3490 04d5 6C6F6E67 		.ascii	"long double\000"
 3490      20646F75 
 3490      626C6500 
 3491              	.LASF127:
 3492 04e1 75696E74 		.ascii	"uint16_t\000"
 3492      31365F74 
 3492      00
 3493              	.LASF164:
 3494 04ea 696E7463 		.ascii	"intctx\000"
 3494      747800
 3495              	.LASF61:
 3496 04f1 5F777269 		.ascii	"_write\000"
 3496      746500
 3497              	.LASF222:
 3498 04f8 474E5520 		.ascii	"GNU C11 6.3.1 20170620 -mcpu=cortex-m3 -mno-thumb-i"
 3498      43313120 
 3498      362E332E 
 3498      31203230 
 3498      31373036 
 3499 052b 6E746572 		.ascii	"nterwork -mthumb -ggdb -O2 -fomit-frame-pointer -ff"
 3499      776F726B 
 3499      202D6D74 
 3499      68756D62 
 3499      202D6767 
 3500 055e 756E6374 		.ascii	"unction-sections -fdata-sections -fno-common\000"
 3500      696F6E2D 
 3500      73656374 
 3500      696F6E73 
 3500      202D6664 
 3501              	.LASF49:
 3502 058b 5F617465 		.ascii	"_atexit\000"
 3502      78697400 
 3503              	.LASF70:
 3504 0593 5F6D6273 		.ascii	"_mbstate\000"
 3504      74617465 
 3504      00
 3505              	.LASF158:
 3506 059c 705F7265 		.ascii	"p_realprio\000"
 3506      616C7072 
 3506      696F00
 3507              	.LASF195:
 3508 05a7 63685F76 		.ascii	"ch_version\000"
 3508      65727369 
 3508      6F6E00
 3509              	.LASF7:
 3510 05b2 73686F72 		.ascii	"short int\000"
ARM GAS  /tmp/ccxox4Ym.s 			page 67


 3510      7420696E 
 3510      7400
 3511              	.LASF181:
 3512 05bc 725F6375 		.ascii	"r_current\000"
 3512      7272656E 
 3512      7400
 3513              	.LASF156:
 3514 05c6 705F6570 		.ascii	"p_epending\000"
 3514      656E6469 
 3514      6E6700
 3515              	.LASF185:
 3516 05d1 6D5F7175 		.ascii	"m_queue\000"
 3516      65756500 
 3517              	.LASF11:
 3518 05d9 6C6F6E67 		.ascii	"long int\000"
 3518      20696E74 
 3518      00
 3519              	.LASF93:
 3520 05e2 5F5F7366 		.ascii	"__sf\000"
 3520      00
 3521              	.LASF31:
 3522 05e7 5F736967 		.ascii	"_sign\000"
 3522      6E00
 3523              	.LASF204:
 3524 05ed 63665F6F 		.ascii	"cf_off_stklimit\000"
 3524      66665F73 
 3524      746B6C69 
 3524      6D697400 
 3525              	.LASF80:
 3526 05fd 5F637572 		.ascii	"_current_locale\000"
 3526      72656E74 
 3526      5F6C6F63 
 3526      616C6500 
 3527              	.LASF141:
 3528 060d 705F6E65 		.ascii	"p_next\000"
 3528      787400
 3529              	.LASF68:
 3530 0614 5F646174 		.ascii	"_data\000"
 3530      6100
 3531              	.LASF21:
 3532 061a 5F5F7763 		.ascii	"__wchb\000"
 3532      686200
 3533              	.LASF125:
 3534 0621 5F676C6F 		.ascii	"_global_impure_ptr\000"
 3534      62616C5F 
 3534      696D7075 
 3534      72655F70 
 3534      747200
 3535              	.LASF144:
 3536 0634 705F6374 		.ascii	"p_ctx\000"
 3536      7800
 3537              	.LASF40:
 3538 063a 5F5F746D 		.ascii	"__tm_year\000"
 3538      5F796561 
 3538      7200
 3539              	.LASF183:
 3540 0644 726C6973 		.ascii	"rlist\000"
ARM GAS  /tmp/ccxox4Ym.s 			page 68


 3540      7400
 3541              	.LASF209:
 3542 064a 63665F6F 		.ascii	"cf_off_time\000"
 3542      66665F74 
 3542      696D6500 
 3543              	.LASF167:
 3544 0656 56697274 		.ascii	"VirtualTimer\000"
 3544      75616C54 
 3544      696D6572 
 3544      00
 3545              	.LASF105:
 3546 0663 5F6C6F63 		.ascii	"_localtime_buf\000"
 3546      616C7469 
 3546      6D655F62 
 3546      756600
 3547              	.LASF199:
 3548 0672 63665F6F 		.ascii	"cf_off_prio\000"
 3548      66665F70 
 3548      72696F00 
 3549              	.LASF123:
 3550 067e 5F756E75 		.ascii	"_unused\000"
 3550      73656400 
 3551              	.LASF5:
 3552 0686 5F5F7569 		.ascii	"__uint8_t\000"
 3552      6E74385F 
 3552      7400
 3553              	.LASF89:
 3554 0690 5F6E6577 		.ascii	"_new\000"
 3554      00
 3555              	.LASF87:
 3556 0695 5F637674 		.ascii	"_cvtlen\000"
 3556      6C656E00 
 3557              	.LASF30:
 3558 069d 5F6D6178 		.ascii	"_maxwds\000"
 3558      77647300 
 3559              	.LASF112:
 3560 06a5 5F6C3634 		.ascii	"_l64a_buf\000"
 3560      615F6275 
 3560      6600
 3561              	.LASF79:
 3562 06af 5F637572 		.ascii	"_current_category\000"
 3562      72656E74 
 3562      5F636174 
 3562      65676F72 
 3562      7900
 3563              	.LASF192:
 3564 06c1 63685F69 		.ascii	"ch_identifier\000"
 3564      64656E74 
 3564      69666965 
 3564      7200
 3565              	.LASF66:
 3566 06cf 5F626C6B 		.ascii	"_blksize\000"
 3566      73697A65 
 3566      00
 3567              	.LASF34:
 3568 06d8 5F5F746D 		.ascii	"__tm\000"
 3568      00
ARM GAS  /tmp/ccxox4Ym.s 			page 69


 3569              	.LASF223:
 3570 06dd 2E2E2F6F 		.ascii	"../os/various/memstreams.c\000"
 3570      732F7661 
 3570      72696F75 
 3570      732F6D65 
 3570      6D737472 
 3571              	.LASF69:
 3572 06f8 5F6C6F63 		.ascii	"_lock\000"
 3572      6B00
 3573              	.LASF142:
 3574 06fe 705F7072 		.ascii	"p_prev\000"
 3574      657600
 3575              	.LASF22:
 3576 0705 73697A65 		.ascii	"sizetype\000"
 3576      74797065 
 3576      00
 3577              	.LASF134:
 3578 070e 74726566 		.ascii	"trefs_t\000"
 3578      735F7400 
 3579              	.LASF13:
 3580 0716 6C6F6E67 		.ascii	"long unsigned int\000"
 3580      20756E73 
 3580      69676E65 
 3580      6420696E 
 3580      7400
 3581              	.LASF205:
 3582 0728 63665F6F 		.ascii	"cf_off_state\000"
 3582      66665F73 
 3582      74617465 
 3582      00
 3583              	.LASF96:
 3584 0735 5F6E696F 		.ascii	"_niobs\000"
 3584      627300
 3585              	.LASF19:
 3586 073c 77696E74 		.ascii	"wint_t\000"
 3586      5F7400
 3587              	.LASF128:
 3588 0743 696E7433 		.ascii	"int32_t\000"
 3588      325F7400 
 3589              	.LASF46:
 3590 074b 5F64736F 		.ascii	"_dso_handle\000"
 3590      5F68616E 
 3590      646C6500 
 3591              	.LASF172:
 3592 0757 76745F70 		.ascii	"vt_par\000"
 3592      617200
 3593              	.LASF88:
 3594 075e 5F637674 		.ascii	"_cvtbuf\000"
 3594      62756600 
 3595              	.LASF219:
 3596 0766 4D656D6F 		.ascii	"MemoryStream\000"
 3596      72795374 
 3596      7265616D 
 3596      00
 3597              	.LASF6:
 3598 0773 756E7369 		.ascii	"unsigned char\000"
 3598      676E6564 
ARM GAS  /tmp/ccxox4Ym.s 			page 70


 3598      20636861 
 3598      7200
 3599              	.LASF12:
 3600 0781 5F5F7569 		.ascii	"__uint32_t\000"
 3600      6E743332 
 3600      5F7400
 3601              	.LASF150:
 3602 078c 705F7265 		.ascii	"p_refs\000"
 3602      667300
 3603              	.LASF182:
 3604 0793 52656164 		.ascii	"ReadyList\000"
 3604      794C6973 
 3604      7400
 3605              	.LASF114:
 3606 079d 5F676574 		.ascii	"_getdate_err\000"
 3606      64617465 
 3606      5F657272 
 3606      00
 3607              	.LASF101:
 3608 07aa 5F616464 		.ascii	"_add\000"
 3608      00
 3609              	.LASF151:
 3610 07af 705F7072 		.ascii	"p_preempt\000"
 3610      65656D70 
 3610      7400
 3611              	.LASF52:
 3612 07b9 5F5F7362 		.ascii	"__sbuf\000"
 3612      756600
 3613              	.LASF168:
 3614 07c0 76745F6E 		.ascii	"vt_next\000"
 3614      65787400 
 3615              	.LASF95:
 3616 07c8 5F676C75 		.ascii	"_glue\000"
 3616      6500
 3617              	.LASF130:
 3618 07ce 75696E74 		.ascii	"uint64_t\000"
 3618      36345F74 
 3618      00
 3619              	.LASF92:
 3620 07d7 5F5F7367 		.ascii	"__sglue\000"
 3620      6C756500 
 3621              	.LASF103:
 3622 07df 5F737472 		.ascii	"_strtok_last\000"
 3622      746F6B5F 
 3622      6C617374 
 3622      00
 3623              	.LASF110:
 3624 07ec 5F6D6274 		.ascii	"_mbtowc_state\000"
 3624      6F77635F 
 3624      73746174 
 3624      6500
 3625              	.LASF187:
 3626 07fa 6D5F6E65 		.ascii	"m_next\000"
 3626      787400
 3627              	.LASF45:
 3628 0801 5F666E61 		.ascii	"_fnargs\000"
 3628      72677300 
ARM GAS  /tmp/ccxox4Ym.s 			page 71


 3629              	.LASF3:
 3630 0809 7369676E 		.ascii	"signed char\000"
 3630      65642063 
 3630      68617200 
 3631              	.LASF201:
 3632 0815 63665F6F 		.ascii	"cf_off_newer\000"
 3632      66665F6E 
 3632      65776572 
 3632      00
 3633              	.LASF72:
 3634 0822 5F726565 		.ascii	"_reent\000"
 3634      6E7400
 3635              	.LASF9:
 3636 0829 73686F72 		.ascii	"short unsigned int\000"
 3636      7420756E 
 3636      7369676E 
 3636      65642069 
 3636      6E7400
 3637              	.LASF178:
 3638 083c 725F6374 		.ascii	"r_ctx\000"
 3638      7800
 3639              	.LASF163:
 3640 0842 73746B61 		.ascii	"stkalign_t\000"
 3640      6C69676E 
 3640      5F7400
 3641              	.LASF226:
 3642 084d 6D656D63 		.ascii	"memcpy\000"
 3642      707900
 3643              	.LASF211:
 3644 0854 63685F64 		.ascii	"ch_debug\000"
 3644      65627567 
 3644      00
 3645              	.LASF47:
 3646 085d 5F666E74 		.ascii	"_fntypes\000"
 3646      79706573 
 3646      00
 3647              	.LASF171:
 3648 0866 76745F66 		.ascii	"vt_func\000"
 3648      756E6300 
 3649              	.LASF54:
 3650 086e 5F73697A 		.ascii	"_size\000"
 3650      6500
 3651              	.LASF169:
 3652 0874 76745F70 		.ascii	"vt_prev\000"
 3652      72657600 
 3653              	.LASF17:
 3654 087c 5F6F6666 		.ascii	"_off_t\000"
 3654      5F7400
 3655              	.LASF65:
 3656 0883 5F6E6275 		.ascii	"_nbuf\000"
 3656      6600
 3657              	.LASF102:
 3658 0889 5F756E75 		.ascii	"_unused_rand\000"
 3658      7365645F 
 3658      72616E64 
 3658      00
 3659              	.LASF71:
ARM GAS  /tmp/ccxox4Ym.s 			page 72


 3660 0896 5F666C61 		.ascii	"_flags2\000"
 3660      67733200 
 3661              	.LASF48:
 3662 089e 5F69735F 		.ascii	"_is_cxa\000"
 3662      63786100 
 3663              	.LASF99:
 3664 08a6 5F736565 		.ascii	"_seed\000"
 3664      6400
 3665              	.LASF107:
 3666 08ac 5F72616E 		.ascii	"_rand_next\000"
 3666      645F6E65 
 3666      787400
 3667              	.LASF189:
 3668 08b7 65786974 		.ascii	"exitcode\000"
 3668      636F6465 
 3668      00
 3669              	.LASF62:
 3670 08c0 5F736565 		.ascii	"_seek\000"
 3670      6B00
 3671              	.LASF224:
 3672 08c6 2F686F6D 		.ascii	"/home/ekobayu/Arok-Gandring-Lokajaya/LPC/ChibiOS-RT"
 3672      652F656B 
 3672      6F626179 
 3672      752F4172 
 3672      6F6B2D47 
 3673 08f9 2D4C5043 		.ascii	"-LPC/Chibi_LPC1766\000"
 3673      2F436869 
 3673      62695F4C 
 3673      50433137 
 3673      363600
 3674              	.LASF76:
 3675 090c 5F737464 		.ascii	"_stderr\000"
 3675      65727200 
 3676              	.LASF122:
 3677 0914 5F6E6D61 		.ascii	"_nmalloc\000"
 3677      6C6C6F63 
 3677      00
 3678              	.LASF64:
 3679 091d 5F756275 		.ascii	"_ubuf\000"
 3679      6600
 3680              		.ident	"GCC: (15:6.3.1+svn253039-1build1) 6.3.1 20170620"
ARM GAS  /tmp/ccxox4Ym.s 			page 73


DEFINED SYMBOLS
                            *ABS*:0000000000000000 memstreams.c
     /tmp/ccxox4Ym.s:16     .text.put:0000000000000000 $t
     /tmp/ccxox4Ym.s:23     .text.put:0000000000000000 put
     /tmp/ccxox4Ym.s:71     .text.get:0000000000000000 $t
     /tmp/ccxox4Ym.s:78     .text.get:0000000000000000 get
     /tmp/ccxox4Ym.s:115    .text.reads:0000000000000000 $t
     /tmp/ccxox4Ym.s:122    .text.reads:0000000000000000 reads
     /tmp/ccxox4Ym.s:170    .text.writes:0000000000000000 $t
     /tmp/ccxox4Ym.s:177    .text.writes:0000000000000000 writes
     /tmp/ccxox4Ym.s:223    .text.msObjectInit:0000000000000000 $t
     /tmp/ccxox4Ym.s:231    .text.msObjectInit:0000000000000000 msObjectInit
     /tmp/ccxox4Ym.s:266    .text.msObjectInit:0000000000000014 $d
     /tmp/ccxox4Ym.s:271    .rodata.vmt:0000000000000000 $d
     /tmp/ccxox4Ym.s:275    .rodata.vmt:0000000000000000 vmt
                     .debug_frame:0000000000000010 $d

UNDEFINED SYMBOLS
memcpy
