ARM GAS  /tmp/ccSAVTpe.s 			page 1


   1              		.cpu cortex-m3
   2              		.eabi_attribute 20, 1
   3              		.eabi_attribute 21, 1
   4              		.eabi_attribute 23, 3
   5              		.eabi_attribute 24, 1
   6              		.eabi_attribute 25, 1
   7              		.eabi_attribute 26, 1
   8              		.eabi_attribute 30, 2
   9              		.eabi_attribute 34, 1
  10              		.eabi_attribute 18, 4
  11              		.file	"pal.c"
  12              		.text
  13              	.Ltext0:
  14              		.cfi_sections	.debug_frame
  15              		.section	.text.palReadBus,"ax",%progbits
  16              		.align	1
  17              		.p2align 2,,3
  18              		.global	palReadBus
  19              		.syntax unified
  20              		.thumb
  21              		.thumb_func
  22              		.fpu softvfp
  23              		.type	palReadBus, %function
  24              	palReadBus:
  25              	.LFB63:
  26              		.file 1 "../os/hal/src/pal.c"
  27              		.loc 1 70 0
  28              		.cfi_startproc
  29              		@ args = 0, pretend = 0, frame = 0
  30              		@ frame_needed = 0, uses_anonymous_args = 0
  31              		@ link register save eliminated.
  32              	.LVL0:
  33              		.loc 1 75 0
  34 0000 07C8     		ldm	r0, {r0, r1, r2}
  35              	.LVL1:
  36 0002 FFF7FEBF 		b	_pal_lld_readgroup
  37              	.LVL2:
  38              		.cfi_endproc
  39              	.LFE63:
  40              		.size	palReadBus, .-palReadBus
  41 0006 00BF     		.section	.text.palWriteBus,"ax",%progbits
  42              		.align	1
  43              		.p2align 2,,3
  44              		.global	palWriteBus
  45              		.syntax unified
  46              		.thumb
  47              		.thumb_func
  48              		.fpu softvfp
  49              		.type	palWriteBus, %function
  50              	palWriteBus:
  51              	.LFB64:
  52              		.loc 1 96 0
  53              		.cfi_startproc
  54              		@ args = 0, pretend = 0, frame = 0
  55              		@ frame_needed = 0, uses_anonymous_args = 0
  56              		@ link register save eliminated.
  57              	.LVL3:
ARM GAS  /tmp/ccSAVTpe.s 			page 2


  58              		.loc 1 101 0
  59 0000 0B46     		mov	r3, r1
  60 0002 07C8     		ldm	r0, {r0, r1, r2}
  61              	.LVL4:
  62 0004 FFF7FEBF 		b	_pal_lld_writegroup
  63              	.LVL5:
  64              		.cfi_endproc
  65              	.LFE64:
  66              		.size	palWriteBus, .-palWriteBus
  67              		.section	.text.palSetBusMode,"ax",%progbits
  68              		.align	1
  69              		.p2align 2,,3
  70              		.global	palSetBusMode
  71              		.syntax unified
  72              		.thumb
  73              		.thumb_func
  74              		.fpu softvfp
  75              		.type	palSetBusMode, %function
  76              	palSetBusMode:
  77              	.LFB65:
  78              		.loc 1 120 0
  79              		.cfi_startproc
  80              		@ args = 0, pretend = 0, frame = 0
  81              		@ frame_needed = 0, uses_anonymous_args = 0
  82              		@ link register save eliminated.
  83              	.LVL6:
  84 0000 10B4     		push	{r4}
  85              		.cfi_def_cfa_offset 4
  86              		.cfi_offset 4, -4
  87              		.loc 1 125 0
  88 0002 8368     		ldr	r3, [r0, #8]
  89 0004 4468     		ldr	r4, [r0, #4]
  90 0006 0A46     		mov	r2, r1
  91 0008 0068     		ldr	r0, [r0]
  92              	.LVL7:
  93 000a 04FA03F1 		lsl	r1, r4, r3
  94              	.LVL8:
  95              		.loc 1 126 0
  96 000e 10BC     		pop	{r4}
  97              		.cfi_restore 4
  98              		.cfi_def_cfa_offset 0
  99              		.loc 1 125 0
 100 0010 FFF7FEBF 		b	_pal_lld_setgroupmode
 101              	.LVL9:
 102              		.cfi_endproc
 103              	.LFE65:
 104              		.size	palSetBusMode, .-palSetBusMode
 105              		.text
 106              	.Letext0:
 107              		.file 2 "/usr/lib/gcc/arm-none-eabi/6.3.1/include/stddef.h"
 108              		.file 3 "/usr/include/newlib/machine/_default_types.h"
 109              		.file 4 "/usr/include/newlib/sys/_stdint.h"
 110              		.file 5 "/usr/include/newlib/stdint.h"
 111              		.file 6 "../os/ports/GCC/ARMCMx/chtypes.h"
 112              		.file 7 "../os/kernel/include/chlists.h"
 113              		.file 8 "../os/kernel/include/chthreads.h"
 114              		.file 9 "../os/ports/GCC/ARMCMx/chcore_v7m.h"
ARM GAS  /tmp/ccSAVTpe.s 			page 3


 115              		.file 10 "../os/kernel/include/chvt.h"
 116              		.file 11 "../os/kernel/include/chschd.h"
 117              		.file 12 "../os/kernel/include/chsem.h"
 118              		.file 13 "../os/kernel/include/chmtx.h"
 119              		.file 14 "../os/kernel/include/chevents.h"
 120              		.file 15 "../os/kernel/include/chregistry.h"
 121              		.file 16 "../os/kernel/include/chqueues.h"
 122              		.file 17 "../os/kernel/include/ch.h"
 123              		.file 18 "../os/ports/common/ARMCMx/CMSIS/include/core_cm3.h"
 124              		.file 19 "../os/hal/platforms/LPC17xx/system_LPC17xx.h"
 125              		.file 20 "../os/hal/platforms/LPC17xx/LPC17xx.h"
 126              		.file 21 "../os/hal/platforms/LPC17xx/lpc17xx_dma.h"
 127              		.file 22 "../os/hal/platforms/LPC17xx/pal_lld.h"
 128              		.file 23 "../os/hal/include/pal.h"
 129              		.file 24 "../os/hal/include/adc.h"
 130              		.file 25 "../os/hal/platforms/LPC17xx/adc_lld.h"
 131              		.file 26 "../os/hal/include/can.h"
 132              		.file 27 "../os/hal/platforms/LPC17xx/can_lld.h"
 133              		.file 28 "../os/hal/include/gpt.h"
 134              		.file 29 "../os/hal/platforms/LPC17xx/gpt_lld.h"
 135              		.file 30 "../os/hal/include/serial.h"
 136              		.file 31 "../os/hal/platforms/LPC17xx/serial_lld.h"
 137              		.file 32 "../os/hal/include/spi.h"
 138              		.file 33 "../os/hal/platforms/LPC17xx/spi_lld.h"
 139              		.section	.debug_info,"",%progbits
 140              	.Ldebug_info0:
 141 0000 4E190000 		.4byte	0x194e
 142 0004 0400     		.2byte	0x4
 143 0006 00000000 		.4byte	.Ldebug_abbrev0
 144 000a 04       		.byte	0x4
 145 000b 01       		.uleb128 0x1
 146 000c 1A080000 		.4byte	.LASF319
 147 0010 0C       		.byte	0xc
 148 0011 87020000 		.4byte	.LASF320
 149 0015 57090000 		.4byte	.LASF321
 150 0019 00000000 		.4byte	.Ldebug_ranges0+0
 151 001d 00000000 		.4byte	0
 152 0021 00000000 		.4byte	.Ldebug_line0
 153 0025 02       		.uleb128 0x2
 154 0026 04       		.byte	0x4
 155 0027 05       		.byte	0x5
 156 0028 696E7400 		.ascii	"int\000"
 157 002c 03       		.uleb128 0x3
 158 002d 00000000 		.4byte	.LASF4
 159 0031 02       		.byte	0x2
 160 0032 D8       		.byte	0xd8
 161 0033 37000000 		.4byte	0x37
 162 0037 04       		.uleb128 0x4
 163 0038 04       		.byte	0x4
 164 0039 07       		.byte	0x7
 165 003a 4F070000 		.4byte	.LASF0
 166 003e 04       		.uleb128 0x4
 167 003f 08       		.byte	0x8
 168 0040 05       		.byte	0x5
 169 0041 6F060000 		.4byte	.LASF1
 170 0045 04       		.uleb128 0x4
 171 0046 08       		.byte	0x8
ARM GAS  /tmp/ccSAVTpe.s 			page 4


 172 0047 04       		.byte	0x4
 173 0048 29090000 		.4byte	.LASF2
 174 004c 04       		.uleb128 0x4
 175 004d 01       		.byte	0x1
 176 004e 06       		.byte	0x6
 177 004f BE020000 		.4byte	.LASF3
 178 0053 03       		.uleb128 0x3
 179 0054 9F010000 		.4byte	.LASF5
 180 0058 03       		.byte	0x3
 181 0059 1D       		.byte	0x1d
 182 005a 5E000000 		.4byte	0x5e
 183 005e 04       		.uleb128 0x4
 184 005f 01       		.byte	0x1
 185 0060 08       		.byte	0x8
 186 0061 2E030000 		.4byte	.LASF6
 187 0065 04       		.uleb128 0x4
 188 0066 02       		.byte	0x2
 189 0067 05       		.byte	0x5
 190 0068 CB0A0000 		.4byte	.LASF7
 191 006c 03       		.uleb128 0x3
 192 006d C9030000 		.4byte	.LASF8
 193 0071 03       		.byte	0x3
 194 0072 2B       		.byte	0x2b
 195 0073 77000000 		.4byte	0x77
 196 0077 04       		.uleb128 0x4
 197 0078 02       		.byte	0x2
 198 0079 07       		.byte	0x7
 199 007a E60B0000 		.4byte	.LASF9
 200 007e 03       		.uleb128 0x3
 201 007f 3F0C0000 		.4byte	.LASF10
 202 0083 03       		.byte	0x3
 203 0084 3F       		.byte	0x3f
 204 0085 89000000 		.4byte	0x89
 205 0089 04       		.uleb128 0x4
 206 008a 04       		.byte	0x4
 207 008b 05       		.byte	0x5
 208 008c 0A020000 		.4byte	.LASF11
 209 0090 03       		.uleb128 0x3
 210 0091 54060000 		.4byte	.LASF12
 211 0095 03       		.byte	0x3
 212 0096 41       		.byte	0x41
 213 0097 9B000000 		.4byte	0x9b
 214 009b 04       		.uleb128 0x4
 215 009c 04       		.byte	0x4
 216 009d 07       		.byte	0x7
 217 009e 2B050000 		.4byte	.LASF13
 218 00a2 03       		.uleb128 0x3
 219 00a3 20050000 		.4byte	.LASF14
 220 00a7 03       		.byte	0x3
 221 00a8 5B       		.byte	0x5b
 222 00a9 AD000000 		.4byte	0xad
 223 00ad 04       		.uleb128 0x4
 224 00ae 08       		.byte	0x8
 225 00af 07       		.byte	0x7
 226 00b0 A3090000 		.4byte	.LASF15
 227 00b4 03       		.uleb128 0x3
 228 00b5 DE020000 		.4byte	.LASF16
ARM GAS  /tmp/ccSAVTpe.s 			page 5


 229 00b9 04       		.byte	0x4
 230 00ba 18       		.byte	0x18
 231 00bb 53000000 		.4byte	0x53
 232 00bf 05       		.uleb128 0x5
 233 00c0 B4000000 		.4byte	0xb4
 234 00c4 06       		.uleb128 0x6
 235 00c5 B4000000 		.4byte	0xb4
 236 00c9 03       		.uleb128 0x3
 237 00ca C2090000 		.4byte	.LASF17
 238 00ce 04       		.byte	0x4
 239 00cf 24       		.byte	0x24
 240 00d0 6C000000 		.4byte	0x6c
 241 00d4 05       		.uleb128 0x5
 242 00d5 C9000000 		.4byte	0xc9
 243 00d9 03       		.uleb128 0x3
 244 00da 74000000 		.4byte	.LASF18
 245 00de 04       		.byte	0x4
 246 00df 2C       		.byte	0x2c
 247 00e0 7E000000 		.4byte	0x7e
 248 00e4 05       		.uleb128 0x5
 249 00e5 D9000000 		.4byte	0xd9
 250 00e9 03       		.uleb128 0x3
 251 00ea 950B0000 		.4byte	.LASF19
 252 00ee 04       		.byte	0x4
 253 00ef 30       		.byte	0x30
 254 00f0 90000000 		.4byte	0x90
 255 00f4 05       		.uleb128 0x5
 256 00f5 E9000000 		.4byte	0xe9
 257 00f9 06       		.uleb128 0x6
 258 00fa F4000000 		.4byte	0xf4
 259 00fe 03       		.uleb128 0x3
 260 00ff D50A0000 		.4byte	.LASF20
 261 0103 04       		.byte	0x4
 262 0104 3C       		.byte	0x3c
 263 0105 A2000000 		.4byte	0xa2
 264 0109 03       		.uleb128 0x3
 265 010a BE0A0000 		.4byte	.LASF21
 266 010e 05       		.byte	0x5
 267 010f 34       		.byte	0x34
 268 0110 37000000 		.4byte	0x37
 269 0114 03       		.uleb128 0x3
 270 0115 160B0000 		.4byte	.LASF22
 271 0119 06       		.byte	0x6
 272 011a 24       		.byte	0x24
 273 011b 1F010000 		.4byte	0x11f
 274 011f 04       		.uleb128 0x4
 275 0120 01       		.byte	0x1
 276 0121 02       		.byte	0x2
 277 0122 8A030000 		.4byte	.LASF23
 278 0126 03       		.uleb128 0x3
 279 0127 640A0000 		.4byte	.LASF24
 280 012b 06       		.byte	0x6
 281 012c 25       		.byte	0x25
 282 012d B4000000 		.4byte	0xb4
 283 0131 03       		.uleb128 0x3
 284 0132 64020000 		.4byte	.LASF25
 285 0136 06       		.byte	0x6
ARM GAS  /tmp/ccSAVTpe.s 			page 6


 286 0137 26       		.byte	0x26
 287 0138 B4000000 		.4byte	0xb4
 288 013c 03       		.uleb128 0x3
 289 013d 580B0000 		.4byte	.LASF26
 290 0141 06       		.byte	0x6
 291 0142 27       		.byte	0x27
 292 0143 B4000000 		.4byte	0xb4
 293 0147 03       		.uleb128 0x3
 294 0148 E5090000 		.4byte	.LASF27
 295 014c 06       		.byte	0x6
 296 014d 28       		.byte	0x28
 297 014e B4000000 		.4byte	0xb4
 298 0152 03       		.uleb128 0x3
 299 0153 44000000 		.4byte	.LASF28
 300 0157 06       		.byte	0x6
 301 0158 29       		.byte	0x29
 302 0159 E9000000 		.4byte	0xe9
 303 015d 03       		.uleb128 0x3
 304 015e CB090000 		.4byte	.LASF29
 305 0162 06       		.byte	0x6
 306 0163 2A       		.byte	0x2a
 307 0164 D9000000 		.4byte	0xd9
 308 0168 03       		.uleb128 0x3
 309 0169 F9020000 		.4byte	.LASF30
 310 016d 06       		.byte	0x6
 311 016e 2C       		.byte	0x2c
 312 016f E9000000 		.4byte	0xe9
 313 0173 03       		.uleb128 0x3
 314 0174 C6080000 		.4byte	.LASF31
 315 0178 06       		.byte	0x6
 316 0179 2D       		.byte	0x2d
 317 017a E9000000 		.4byte	0xe9
 318 017e 03       		.uleb128 0x3
 319 017f 1C000000 		.4byte	.LASF32
 320 0183 06       		.byte	0x6
 321 0184 2E       		.byte	0x2e
 322 0185 E9000000 		.4byte	0xe9
 323 0189 05       		.uleb128 0x5
 324 018a 7E010000 		.4byte	0x17e
 325 018e 03       		.uleb128 0x3
 326 018f 87040000 		.4byte	.LASF33
 327 0193 06       		.byte	0x6
 328 0194 2F       		.byte	0x2f
 329 0195 D9000000 		.4byte	0xd9
 330 0199 03       		.uleb128 0x3
 331 019a 340B0000 		.4byte	.LASF34
 332 019e 07       		.byte	0x7
 333 019f 23       		.byte	0x23
 334 01a0 A4010000 		.4byte	0x1a4
 335 01a4 07       		.uleb128 0x7
 336 01a5 340B0000 		.4byte	.LASF34
 337 01a9 48       		.byte	0x48
 338 01aa 08       		.byte	0x8
 339 01ab 57       		.byte	0x57
 340 01ac A1020000 		.4byte	0x2a1
 341 01b0 08       		.uleb128 0x8
 342 01b1 1E020000 		.4byte	.LASF35
ARM GAS  /tmp/ccSAVTpe.s 			page 7


 343 01b5 08       		.byte	0x8
 344 01b6 58       		.byte	0x58
 345 01b7 C2020000 		.4byte	0x2c2
 346 01bb 00       		.byte	0
 347 01bc 08       		.uleb128 0x8
 348 01bd 3A020000 		.4byte	.LASF36
 349 01c1 08       		.byte	0x8
 350 01c2 5A       		.byte	0x5a
 351 01c3 C2020000 		.4byte	0x2c2
 352 01c7 04       		.byte	0x4
 353 01c8 08       		.uleb128 0x8
 354 01c9 C2030000 		.4byte	.LASF37
 355 01cd 08       		.byte	0x8
 356 01ce 5C       		.byte	0x5c
 357 01cf 52010000 		.4byte	0x152
 358 01d3 08       		.byte	0x8
 359 01d4 08       		.uleb128 0x8
 360 01d5 3E000000 		.4byte	.LASF38
 361 01d9 08       		.byte	0x8
 362 01da 5D       		.byte	0x5d
 363 01db 87030000 		.4byte	0x387
 364 01df 0C       		.byte	0xc
 365 01e0 08       		.uleb128 0x8
 366 01e1 F9010000 		.4byte	.LASF39
 367 01e5 08       		.byte	0x8
 368 01e6 5F       		.byte	0x5f
 369 01e7 C2020000 		.4byte	0x2c2
 370 01eb 10       		.byte	0x10
 371 01ec 08       		.uleb128 0x8
 372 01ed BA090000 		.4byte	.LASF40
 373 01f1 08       		.byte	0x8
 374 01f2 60       		.byte	0x60
 375 01f3 C2020000 		.4byte	0x2c2
 376 01f7 14       		.byte	0x14
 377 01f8 08       		.uleb128 0x8
 378 01f9 800C0000 		.4byte	.LASF41
 379 01fd 08       		.byte	0x8
 380 01fe 67       		.byte	0x67
 381 01ff F4050000 		.4byte	0x5f4
 382 0203 18       		.byte	0x18
 383 0204 08       		.uleb128 0x8
 384 0205 C50C0000 		.4byte	.LASF42
 385 0209 08       		.byte	0x8
 386 020a 72       		.byte	0x72
 387 020b 31010000 		.4byte	0x131
 388 020f 1C       		.byte	0x1c
 389 0210 08       		.uleb128 0x8
 390 0211 38070000 		.4byte	.LASF43
 391 0215 08       		.byte	0x8
 392 0216 76       		.byte	0x76
 393 0217 26010000 		.4byte	0x126
 394 021b 1D       		.byte	0x1d
 395 021c 08       		.uleb128 0x8
 396 021d E0070000 		.4byte	.LASF44
 397 0221 08       		.byte	0x8
 398 0222 7B       		.byte	0x7b
 399 0223 3C010000 		.4byte	0x13c
ARM GAS  /tmp/ccSAVTpe.s 			page 8


 400 0227 1E       		.byte	0x1e
 401 0228 08       		.uleb128 0x8
 402 0229 CA020000 		.4byte	.LASF45
 403 022d 08       		.byte	0x8
 404 022e 81       		.byte	0x81
 405 022f 47010000 		.4byte	0x147
 406 0233 1F       		.byte	0x1f
 407 0234 08       		.uleb128 0x8
 408 0235 E4080000 		.4byte	.LASF46
 409 0239 08       		.byte	0x8
 410 023a 88       		.byte	0x88
 411 023b 89010000 		.4byte	0x189
 412 023f 20       		.byte	0x20
 413 0240 09       		.uleb128 0x9
 414 0241 705F7500 		.ascii	"p_u\000"
 415 0245 08       		.byte	0x8
 416 0246 AD       		.byte	0xad
 417 0247 BF050000 		.4byte	0x5bf
 418 024b 24       		.byte	0x24
 419 024c 08       		.uleb128 0x8
 420 024d 28070000 		.4byte	.LASF47
 421 0251 08       		.byte	0x8
 422 0252 B2       		.byte	0xb2
 423 0253 E8020000 		.4byte	0x2e8
 424 0257 28       		.byte	0x28
 425 0258 08       		.uleb128 0x8
 426 0259 63000000 		.4byte	.LASF48
 427 025d 08       		.byte	0x8
 428 025e B8       		.byte	0xb8
 429 025f C8020000 		.4byte	0x2c8
 430 0263 2C       		.byte	0x2c
 431 0264 08       		.uleb128 0x8
 432 0265 A90C0000 		.4byte	.LASF49
 433 0269 08       		.byte	0x8
 434 026a BC       		.byte	0xbc
 435 026b 5D010000 		.4byte	0x15d
 436 026f 34       		.byte	0x34
 437 0270 08       		.uleb128 0x8
 438 0271 B1040000 		.4byte	.LASF50
 439 0275 08       		.byte	0x8
 440 0276 C2       		.byte	0xc2
 441 0277 68010000 		.4byte	0x168
 442 027b 38       		.byte	0x38
 443 027c 08       		.uleb128 0x8
 444 027d 6D020000 		.4byte	.LASF51
 445 0281 08       		.byte	0x8
 446 0282 C9       		.byte	0xc9
 447 0283 06060000 		.4byte	0x606
 448 0287 3C       		.byte	0x3c
 449 0288 08       		.uleb128 0x8
 450 0289 35090000 		.4byte	.LASF52
 451 028d 08       		.byte	0x8
 452 028e CD       		.byte	0xcd
 453 028f 52010000 		.4byte	0x152
 454 0293 40       		.byte	0x40
 455 0294 08       		.uleb128 0x8
 456 0295 B8070000 		.4byte	.LASF53
ARM GAS  /tmp/ccSAVTpe.s 			page 9


 457 0299 08       		.byte	0x8
 458 029a D3       		.byte	0xd3
 459 029b FE020000 		.4byte	0x2fe
 460 029f 44       		.byte	0x44
 461 02a0 00       		.byte	0
 462 02a1 0A       		.uleb128 0xa
 463 02a2 08       		.byte	0x8
 464 02a3 07       		.byte	0x7
 465 02a4 5A       		.byte	0x5a
 466 02a5 C2020000 		.4byte	0x2c2
 467 02a9 08       		.uleb128 0x8
 468 02aa 1E020000 		.4byte	.LASF35
 469 02ae 07       		.byte	0x7
 470 02af 5B       		.byte	0x5b
 471 02b0 C2020000 		.4byte	0x2c2
 472 02b4 00       		.byte	0
 473 02b5 08       		.uleb128 0x8
 474 02b6 3A020000 		.4byte	.LASF36
 475 02ba 07       		.byte	0x7
 476 02bb 5D       		.byte	0x5d
 477 02bc C2020000 		.4byte	0x2c2
 478 02c0 04       		.byte	0x4
 479 02c1 00       		.byte	0
 480 02c2 0B       		.uleb128 0xb
 481 02c3 04       		.byte	0x4
 482 02c4 99010000 		.4byte	0x199
 483 02c8 03       		.uleb128 0x3
 484 02c9 AB0B0000 		.4byte	.LASF54
 485 02cd 07       		.byte	0x7
 486 02ce 5F       		.byte	0x5f
 487 02cf A1020000 		.4byte	0x2a1
 488 02d3 0A       		.uleb128 0xa
 489 02d4 04       		.byte	0x4
 490 02d5 07       		.byte	0x7
 491 02d6 64       		.byte	0x64
 492 02d7 E8020000 		.4byte	0x2e8
 493 02db 08       		.uleb128 0x8
 494 02dc 1E020000 		.4byte	.LASF35
 495 02e0 07       		.byte	0x7
 496 02e1 66       		.byte	0x66
 497 02e2 C2020000 		.4byte	0x2c2
 498 02e6 00       		.byte	0
 499 02e7 00       		.byte	0
 500 02e8 03       		.uleb128 0x3
 501 02e9 AD080000 		.4byte	.LASF55
 502 02ed 07       		.byte	0x7
 503 02ee 69       		.byte	0x69
 504 02ef D3020000 		.4byte	0x2d3
 505 02f3 03       		.uleb128 0x3
 506 02f4 7E020000 		.4byte	.LASF56
 507 02f8 09       		.byte	0x9
 508 02f9 DE       		.byte	0xde
 509 02fa FE020000 		.4byte	0x2fe
 510 02fe 0C       		.uleb128 0xc
 511 02ff 04       		.byte	0x4
 512 0300 03       		.uleb128 0x3
 513 0301 04040000 		.4byte	.LASF57
ARM GAS  /tmp/ccSAVTpe.s 			page 10


 514 0305 09       		.byte	0x9
 515 0306 E4       		.byte	0xe4
 516 0307 FE000000 		.4byte	0xfe
 517 030b 0D       		.uleb128 0xd
 518 030c AA040000 		.4byte	.LASF58
 519 0310 24       		.byte	0x24
 520 0311 09       		.byte	0x9
 521 0312 0501     		.2byte	0x105
 522 0314 87030000 		.4byte	0x387
 523 0318 0E       		.uleb128 0xe
 524 0319 723400   		.ascii	"r4\000"
 525 031c 09       		.byte	0x9
 526 031d 1801     		.2byte	0x118
 527 031f F3020000 		.4byte	0x2f3
 528 0323 00       		.byte	0
 529 0324 0E       		.uleb128 0xe
 530 0325 723500   		.ascii	"r5\000"
 531 0328 09       		.byte	0x9
 532 0329 1901     		.2byte	0x119
 533 032b F3020000 		.4byte	0x2f3
 534 032f 04       		.byte	0x4
 535 0330 0E       		.uleb128 0xe
 536 0331 723600   		.ascii	"r6\000"
 537 0334 09       		.byte	0x9
 538 0335 1A01     		.2byte	0x11a
 539 0337 F3020000 		.4byte	0x2f3
 540 033b 08       		.byte	0x8
 541 033c 0E       		.uleb128 0xe
 542 033d 723700   		.ascii	"r7\000"
 543 0340 09       		.byte	0x9
 544 0341 1B01     		.2byte	0x11b
 545 0343 F3020000 		.4byte	0x2f3
 546 0347 0C       		.byte	0xc
 547 0348 0E       		.uleb128 0xe
 548 0349 723800   		.ascii	"r8\000"
 549 034c 09       		.byte	0x9
 550 034d 1C01     		.2byte	0x11c
 551 034f F3020000 		.4byte	0x2f3
 552 0353 10       		.byte	0x10
 553 0354 0E       		.uleb128 0xe
 554 0355 723900   		.ascii	"r9\000"
 555 0358 09       		.byte	0x9
 556 0359 1D01     		.2byte	0x11d
 557 035b F3020000 		.4byte	0x2f3
 558 035f 14       		.byte	0x14
 559 0360 0E       		.uleb128 0xe
 560 0361 72313000 		.ascii	"r10\000"
 561 0365 09       		.byte	0x9
 562 0366 1E01     		.2byte	0x11e
 563 0368 F3020000 		.4byte	0x2f3
 564 036c 18       		.byte	0x18
 565 036d 0E       		.uleb128 0xe
 566 036e 72313100 		.ascii	"r11\000"
 567 0372 09       		.byte	0x9
 568 0373 1F01     		.2byte	0x11f
 569 0375 F3020000 		.4byte	0x2f3
 570 0379 1C       		.byte	0x1c
ARM GAS  /tmp/ccSAVTpe.s 			page 11


 571 037a 0E       		.uleb128 0xe
 572 037b 6C7200   		.ascii	"lr\000"
 573 037e 09       		.byte	0x9
 574 037f 2001     		.2byte	0x120
 575 0381 F3020000 		.4byte	0x2f3
 576 0385 20       		.byte	0x20
 577 0386 00       		.byte	0
 578 0387 0D       		.uleb128 0xd
 579 0388 05030000 		.4byte	.LASF59
 580 038c 04       		.byte	0x4
 581 038d 09       		.byte	0x9
 582 038e 2A01     		.2byte	0x12a
 583 0390 A2030000 		.4byte	0x3a2
 584 0394 0E       		.uleb128 0xe
 585 0395 72313300 		.ascii	"r13\000"
 586 0399 09       		.byte	0x9
 587 039a 2B01     		.2byte	0x12b
 588 039c A2030000 		.4byte	0x3a2
 589 03a0 00       		.byte	0
 590 03a1 00       		.byte	0
 591 03a2 0B       		.uleb128 0xb
 592 03a3 04       		.byte	0x4
 593 03a4 0B030000 		.4byte	0x30b
 594 03a8 04       		.uleb128 0x4
 595 03a9 04       		.byte	0x4
 596 03aa 07       		.byte	0x7
 597 03ab 07000000 		.4byte	.LASF60
 598 03af 03       		.uleb128 0x3
 599 03b0 92000000 		.4byte	.LASF61
 600 03b4 0A       		.byte	0xa
 601 03b5 51       		.byte	0x51
 602 03b6 BA030000 		.4byte	0x3ba
 603 03ba 0B       		.uleb128 0xb
 604 03bb 04       		.byte	0x4
 605 03bc C0030000 		.4byte	0x3c0
 606 03c0 0F       		.uleb128 0xf
 607 03c1 CB030000 		.4byte	0x3cb
 608 03c5 10       		.uleb128 0x10
 609 03c6 FE020000 		.4byte	0x2fe
 610 03ca 00       		.byte	0
 611 03cb 03       		.uleb128 0x3
 612 03cc 9E0B0000 		.4byte	.LASF62
 613 03d0 0A       		.byte	0xa
 614 03d1 56       		.byte	0x56
 615 03d2 D6030000 		.4byte	0x3d6
 616 03d6 07       		.uleb128 0x7
 617 03d7 9E0B0000 		.4byte	.LASF62
 618 03db 14       		.byte	0x14
 619 03dc 0A       		.byte	0xa
 620 03dd 5D       		.byte	0x5d
 621 03de 1F040000 		.4byte	0x41f
 622 03e2 08       		.uleb128 0x8
 623 03e3 B7060000 		.4byte	.LASF63
 624 03e7 0A       		.byte	0xa
 625 03e8 5E       		.byte	0x5e
 626 03e9 1F040000 		.4byte	0x41f
 627 03ed 00       		.byte	0
ARM GAS  /tmp/ccSAVTpe.s 			page 12


 628 03ee 08       		.uleb128 0x8
 629 03ef 5B030000 		.4byte	.LASF64
 630 03f3 0A       		.byte	0xa
 631 03f4 60       		.byte	0x60
 632 03f5 1F040000 		.4byte	0x41f
 633 03f9 04       		.byte	0x4
 634 03fa 08       		.uleb128 0x8
 635 03fb 870C0000 		.4byte	.LASF65
 636 03ff 0A       		.byte	0xa
 637 0400 62       		.byte	0x62
 638 0401 7E010000 		.4byte	0x17e
 639 0405 08       		.byte	0x8
 640 0406 08       		.uleb128 0x8
 641 0407 9C040000 		.4byte	.LASF66
 642 040b 0A       		.byte	0xa
 643 040c 63       		.byte	0x63
 644 040d AF030000 		.4byte	0x3af
 645 0411 0C       		.byte	0xc
 646 0412 08       		.uleb128 0x8
 647 0413 88010000 		.4byte	.LASF67
 648 0417 0A       		.byte	0xa
 649 0418 65       		.byte	0x65
 650 0419 FE020000 		.4byte	0x2fe
 651 041d 10       		.byte	0x10
 652 041e 00       		.byte	0
 653 041f 0B       		.uleb128 0xb
 654 0420 04       		.byte	0x4
 655 0421 CB030000 		.4byte	0x3cb
 656 0425 0A       		.uleb128 0xa
 657 0426 10       		.byte	0x10
 658 0427 0A       		.byte	0xa
 659 0428 6F       		.byte	0x6f
 660 0429 5E040000 		.4byte	0x45e
 661 042d 08       		.uleb128 0x8
 662 042e B7060000 		.4byte	.LASF63
 663 0432 0A       		.byte	0xa
 664 0433 70       		.byte	0x70
 665 0434 1F040000 		.4byte	0x41f
 666 0438 00       		.byte	0
 667 0439 08       		.uleb128 0x8
 668 043a 5B030000 		.4byte	.LASF64
 669 043e 0A       		.byte	0xa
 670 043f 72       		.byte	0x72
 671 0440 1F040000 		.4byte	0x41f
 672 0444 04       		.byte	0x4
 673 0445 08       		.uleb128 0x8
 674 0446 870C0000 		.4byte	.LASF65
 675 044a 0A       		.byte	0xa
 676 044b 74       		.byte	0x74
 677 044c 7E010000 		.4byte	0x17e
 678 0450 08       		.byte	0x8
 679 0451 08       		.uleb128 0x8
 680 0452 800A0000 		.4byte	.LASF68
 681 0456 0A       		.byte	0xa
 682 0457 75       		.byte	0x75
 683 0458 89010000 		.4byte	0x189
 684 045c 0C       		.byte	0xc
ARM GAS  /tmp/ccSAVTpe.s 			page 13


 685 045d 00       		.byte	0
 686 045e 03       		.uleb128 0x3
 687 045f 120A0000 		.4byte	.LASF69
 688 0463 0A       		.byte	0xa
 689 0464 76       		.byte	0x76
 690 0465 25040000 		.4byte	0x425
 691 0469 11       		.uleb128 0x11
 692 046a 3B0B0000 		.4byte	.LASF77
 693 046e 0A       		.byte	0xa
 694 046f EE       		.byte	0xee
 695 0470 5E040000 		.4byte	0x45e
 696 0474 0A       		.uleb128 0xa
 697 0475 1C       		.byte	0x1c
 698 0476 0B       		.byte	0xb
 699 0477 57       		.byte	0x57
 700 0478 C5040000 		.4byte	0x4c5
 701 047c 08       		.uleb128 0x8
 702 047d 390A0000 		.4byte	.LASF70
 703 0481 0B       		.byte	0xb
 704 0482 58       		.byte	0x58
 705 0483 C8020000 		.4byte	0x2c8
 706 0487 00       		.byte	0
 707 0488 08       		.uleb128 0x8
 708 0489 FA0A0000 		.4byte	.LASF71
 709 048d 0B       		.byte	0xb
 710 048e 59       		.byte	0x59
 711 048f 52010000 		.4byte	0x152
 712 0493 08       		.byte	0x8
 713 0494 08       		.uleb128 0x8
 714 0495 6E000000 		.4byte	.LASF72
 715 0499 0B       		.byte	0xb
 716 049a 5B       		.byte	0x5b
 717 049b 87030000 		.4byte	0x387
 718 049f 0C       		.byte	0xc
 719 04a0 08       		.uleb128 0x8
 720 04a1 6E030000 		.4byte	.LASF73
 721 04a5 0B       		.byte	0xb
 722 04a6 5E       		.byte	0x5e
 723 04a7 C2020000 		.4byte	0x2c2
 724 04ab 10       		.byte	0x10
 725 04ac 08       		.uleb128 0x8
 726 04ad A70A0000 		.4byte	.LASF74
 727 04b1 0B       		.byte	0xb
 728 04b2 5F       		.byte	0x5f
 729 04b3 C2020000 		.4byte	0x2c2
 730 04b7 14       		.byte	0x14
 731 04b8 08       		.uleb128 0x8
 732 04b9 080A0000 		.4byte	.LASF75
 733 04bd 0B       		.byte	0xb
 734 04be 62       		.byte	0x62
 735 04bf C2020000 		.4byte	0x2c2
 736 04c3 18       		.byte	0x18
 737 04c4 00       		.byte	0
 738 04c5 03       		.uleb128 0x3
 739 04c6 590C0000 		.4byte	.LASF76
 740 04ca 0B       		.byte	0xb
 741 04cb 64       		.byte	0x64
ARM GAS  /tmp/ccSAVTpe.s 			page 14


 742 04cc 74040000 		.4byte	0x474
 743 04d0 11       		.uleb128 0x11
 744 04d1 5E0A0000 		.4byte	.LASF78
 745 04d5 0B       		.byte	0xb
 746 04d6 68       		.byte	0x68
 747 04d7 C5040000 		.4byte	0x4c5
 748 04db 07       		.uleb128 0x7
 749 04dc AD060000 		.4byte	.LASF79
 750 04e0 0C       		.byte	0xc
 751 04e1 0C       		.byte	0xc
 752 04e2 25       		.byte	0x25
 753 04e3 00050000 		.4byte	0x500
 754 04e7 08       		.uleb128 0x8
 755 04e8 B60A0000 		.4byte	.LASF80
 756 04ec 0C       		.byte	0xc
 757 04ed 26       		.byte	0x26
 758 04ee C8020000 		.4byte	0x2c8
 759 04f2 00       		.byte	0
 760 04f3 08       		.uleb128 0x8
 761 04f4 9D090000 		.4byte	.LASF81
 762 04f8 0C       		.byte	0xc
 763 04f9 28       		.byte	0x28
 764 04fa 8E010000 		.4byte	0x18e
 765 04fe 08       		.byte	0x8
 766 04ff 00       		.byte	0
 767 0500 03       		.uleb128 0x3
 768 0501 AD060000 		.4byte	.LASF79
 769 0505 0C       		.byte	0xc
 770 0506 29       		.byte	0x29
 771 0507 DB040000 		.4byte	0x4db
 772 050b 07       		.uleb128 0x7
 773 050c 5F060000 		.4byte	.LASF82
 774 0510 10       		.byte	0x10
 775 0511 0D       		.byte	0xd
 776 0512 25       		.byte	0x25
 777 0513 3C050000 		.4byte	0x53c
 778 0517 08       		.uleb128 0x8
 779 0518 95060000 		.4byte	.LASF83
 780 051c 0D       		.byte	0xd
 781 051d 26       		.byte	0x26
 782 051e C8020000 		.4byte	0x2c8
 783 0522 00       		.byte	0
 784 0523 08       		.uleb128 0x8
 785 0524 80010000 		.4byte	.LASF84
 786 0528 0D       		.byte	0xd
 787 0529 28       		.byte	0x28
 788 052a C2020000 		.4byte	0x2c2
 789 052e 08       		.byte	0x8
 790 052f 08       		.uleb128 0x8
 791 0530 940C0000 		.4byte	.LASF85
 792 0534 0D       		.byte	0xd
 793 0535 2A       		.byte	0x2a
 794 0536 3C050000 		.4byte	0x53c
 795 053a 0C       		.byte	0xc
 796 053b 00       		.byte	0
 797 053c 0B       		.uleb128 0xb
 798 053d 04       		.byte	0x4
ARM GAS  /tmp/ccSAVTpe.s 			page 15


 799 053e 0B050000 		.4byte	0x50b
 800 0542 03       		.uleb128 0x3
 801 0543 5F060000 		.4byte	.LASF82
 802 0547 0D       		.byte	0xd
 803 0548 2C       		.byte	0x2c
 804 0549 0B050000 		.4byte	0x50b
 805 054d 03       		.uleb128 0x3
 806 054e 7B0B0000 		.4byte	.LASF86
 807 0552 0E       		.byte	0xe
 808 0553 25       		.byte	0x25
 809 0554 58050000 		.4byte	0x558
 810 0558 07       		.uleb128 0x7
 811 0559 7B0B0000 		.4byte	.LASF86
 812 055d 10       		.byte	0x10
 813 055e 0E       		.byte	0xe
 814 055f 2A       		.byte	0x2a
 815 0560 95050000 		.4byte	0x595
 816 0564 08       		.uleb128 0x8
 817 0565 78050000 		.4byte	.LASF87
 818 0569 0E       		.byte	0xe
 819 056a 2B       		.byte	0x2b
 820 056b 95050000 		.4byte	0x595
 821 056f 00       		.byte	0
 822 0570 08       		.uleb128 0x8
 823 0571 AF0C0000 		.4byte	.LASF88
 824 0575 0E       		.byte	0xe
 825 0576 2E       		.byte	0x2e
 826 0577 C2020000 		.4byte	0x2c2
 827 057b 04       		.byte	0x4
 828 057c 08       		.uleb128 0x8
 829 057d 510C0000 		.4byte	.LASF89
 830 0581 0E       		.byte	0xe
 831 0582 30       		.byte	0x30
 832 0583 68010000 		.4byte	0x168
 833 0587 08       		.byte	0x8
 834 0588 08       		.uleb128 0x8
 835 0589 DA000000 		.4byte	.LASF90
 836 058d 0E       		.byte	0xe
 837 058e 33       		.byte	0x33
 838 058f 73010000 		.4byte	0x173
 839 0593 0C       		.byte	0xc
 840 0594 00       		.byte	0
 841 0595 0B       		.uleb128 0xb
 842 0596 04       		.byte	0x4
 843 0597 4D050000 		.4byte	0x54d
 844 059b 07       		.uleb128 0x7
 845 059c 14050000 		.4byte	.LASF91
 846 05a0 04       		.byte	0x4
 847 05a1 0E       		.byte	0xe
 848 05a2 3A       		.byte	0x3a
 849 05a3 B4050000 		.4byte	0x5b4
 850 05a7 08       		.uleb128 0x8
 851 05a8 E2040000 		.4byte	.LASF92
 852 05ac 0E       		.byte	0xe
 853 05ad 3B       		.byte	0x3b
 854 05ae 95050000 		.4byte	0x595
 855 05b2 00       		.byte	0
ARM GAS  /tmp/ccSAVTpe.s 			page 16


 856 05b3 00       		.byte	0
 857 05b4 03       		.uleb128 0x3
 858 05b5 14050000 		.4byte	.LASF91
 859 05b9 0E       		.byte	0xe
 860 05ba 3E       		.byte	0x3e
 861 05bb 9B050000 		.4byte	0x59b
 862 05bf 12       		.uleb128 0x12
 863 05c0 04       		.byte	0x4
 864 05c1 08       		.byte	0x8
 865 05c2 8F       		.byte	0x8f
 866 05c3 F4050000 		.4byte	0x5f4
 867 05c7 13       		.uleb128 0x13
 868 05c8 D60B0000 		.4byte	.LASF93
 869 05cc 08       		.byte	0x8
 870 05cd 96       		.byte	0x96
 871 05ce 5D010000 		.4byte	0x15d
 872 05d2 13       		.uleb128 0x13
 873 05d3 96010000 		.4byte	.LASF94
 874 05d7 08       		.byte	0x8
 875 05d8 9D       		.byte	0x9d
 876 05d9 5D010000 		.4byte	0x15d
 877 05dd 13       		.uleb128 0x13
 878 05de E1030000 		.4byte	.LASF95
 879 05e2 08       		.byte	0x8
 880 05e3 A4       		.byte	0xa4
 881 05e4 FE020000 		.4byte	0x2fe
 882 05e8 13       		.uleb128 0x13
 883 05e9 B9010000 		.4byte	.LASF96
 884 05ed 08       		.byte	0x8
 885 05ee AB       		.byte	0xab
 886 05ef 68010000 		.4byte	0x168
 887 05f3 00       		.byte	0
 888 05f4 0B       		.uleb128 0xb
 889 05f5 04       		.byte	0x4
 890 05f6 01060000 		.4byte	0x601
 891 05fa 04       		.uleb128 0x4
 892 05fb 01       		.byte	0x1
 893 05fc 08       		.byte	0x8
 894 05fd AC030000 		.4byte	.LASF97
 895 0601 06       		.uleb128 0x6
 896 0602 FA050000 		.4byte	0x5fa
 897 0606 0B       		.uleb128 0xb
 898 0607 04       		.byte	0x4
 899 0608 42050000 		.4byte	0x542
 900 060c 0B       		.uleb128 0xb
 901 060d 04       		.byte	0x4
 902 060e 12060000 		.4byte	0x612
 903 0612 14       		.uleb128 0x14
 904 0613 5D010000 		.4byte	0x15d
 905 0617 21060000 		.4byte	0x621
 906 061b 10       		.uleb128 0x10
 907 061c FE020000 		.4byte	0x2fe
 908 0620 00       		.byte	0
 909 0621 0A       		.uleb128 0xa
 910 0622 16       		.byte	0x16
 911 0623 0F       		.byte	0xf
 912 0624 25       		.byte	0x25
ARM GAS  /tmp/ccSAVTpe.s 			page 17


 913 0625 02070000 		.4byte	0x702
 914 0629 08       		.uleb128 0x8
 915 062a 30000000 		.4byte	.LASF98
 916 062e 0F       		.byte	0xf
 917 062f 26       		.byte	0x26
 918 0630 02070000 		.4byte	0x702
 919 0634 00       		.byte	0
 920 0635 08       		.uleb128 0x8
 921 0636 3D050000 		.4byte	.LASF99
 922 063a 0F       		.byte	0xf
 923 063b 27       		.byte	0x27
 924 063c B4000000 		.4byte	0xb4
 925 0640 04       		.byte	0x4
 926 0641 08       		.uleb128 0x8
 927 0642 240C0000 		.4byte	.LASF100
 928 0646 0F       		.byte	0xf
 929 0647 28       		.byte	0x28
 930 0648 B4000000 		.4byte	0xb4
 931 064c 05       		.byte	0x5
 932 064d 08       		.uleb128 0x8
 933 064e 8A060000 		.4byte	.LASF101
 934 0652 0F       		.byte	0xf
 935 0653 29       		.byte	0x29
 936 0654 C9000000 		.4byte	0xc9
 937 0658 06       		.byte	0x6
 938 0659 08       		.uleb128 0x8
 939 065a 31010000 		.4byte	.LASF102
 940 065e 0F       		.byte	0xf
 941 065f 2A       		.byte	0x2a
 942 0660 B4000000 		.4byte	0xb4
 943 0664 08       		.byte	0x8
 944 0665 08       		.uleb128 0x8
 945 0666 F9070000 		.4byte	.LASF103
 946 066a 0F       		.byte	0xf
 947 066b 2B       		.byte	0x2b
 948 066c B4000000 		.4byte	0xb4
 949 0670 09       		.byte	0x9
 950 0671 08       		.uleb128 0x8
 951 0672 CA010000 		.4byte	.LASF104
 952 0676 0F       		.byte	0xf
 953 0677 2C       		.byte	0x2c
 954 0678 B4000000 		.4byte	0xb4
 955 067c 0A       		.byte	0xa
 956 067d 08       		.uleb128 0x8
 957 067e 4C040000 		.4byte	.LASF105
 958 0682 0F       		.byte	0xf
 959 0683 2D       		.byte	0x2d
 960 0684 B4000000 		.4byte	0xb4
 961 0688 0B       		.byte	0xb
 962 0689 08       		.uleb128 0x8
 963 068a 87000000 		.4byte	.LASF106
 964 068e 0F       		.byte	0xf
 965 068f 2E       		.byte	0x2e
 966 0690 B4000000 		.4byte	0xb4
 967 0694 0C       		.byte	0xc
 968 0695 08       		.uleb128 0x8
 969 0696 F2030000 		.4byte	.LASF107
ARM GAS  /tmp/ccSAVTpe.s 			page 18


 970 069a 0F       		.byte	0xf
 971 069b 2F       		.byte	0x2f
 972 069c B4000000 		.4byte	0xb4
 973 06a0 0D       		.byte	0xd
 974 06a1 08       		.uleb128 0x8
 975 06a2 1D0B0000 		.4byte	.LASF108
 976 06a6 0F       		.byte	0xf
 977 06a7 30       		.byte	0x30
 978 06a8 B4000000 		.4byte	0xb4
 979 06ac 0E       		.byte	0xe
 980 06ad 08       		.uleb128 0x8
 981 06ae 10000000 		.4byte	.LASF109
 982 06b2 0F       		.byte	0xf
 983 06b3 31       		.byte	0x31
 984 06b4 B4000000 		.4byte	0xb4
 985 06b8 0F       		.byte	0xf
 986 06b9 08       		.uleb128 0x8
 987 06ba 5C070000 		.4byte	.LASF110
 988 06be 0F       		.byte	0xf
 989 06bf 32       		.byte	0x32
 990 06c0 B4000000 		.4byte	0xb4
 991 06c4 10       		.byte	0x10
 992 06c5 08       		.uleb128 0x8
 993 06c6 2D020000 		.4byte	.LASF111
 994 06ca 0F       		.byte	0xf
 995 06cb 34       		.byte	0x34
 996 06cc B4000000 		.4byte	0xb4
 997 06d0 11       		.byte	0x11
 998 06d1 08       		.uleb128 0x8
 999 06d2 D8090000 		.4byte	.LASF112
 1000 06d6 0F       		.byte	0xf
 1001 06d7 35       		.byte	0x35
 1002 06d8 B4000000 		.4byte	0xb4
 1003 06dc 12       		.byte	0x12
 1004 06dd 08       		.uleb128 0x8
 1005 06de F2080000 		.4byte	.LASF113
 1006 06e2 0F       		.byte	0xf
 1007 06e3 36       		.byte	0x36
 1008 06e4 B4000000 		.4byte	0xb4
 1009 06e8 13       		.byte	0x13
 1010 06e9 08       		.uleb128 0x8
 1011 06ea 35060000 		.4byte	.LASF114
 1012 06ee 0F       		.byte	0xf
 1013 06ef 37       		.byte	0x37
 1014 06f0 B4000000 		.4byte	0xb4
 1015 06f4 14       		.byte	0x14
 1016 06f5 08       		.uleb128 0x8
 1017 06f6 40090000 		.4byte	.LASF115
 1018 06fa 0F       		.byte	0xf
 1019 06fb 39       		.byte	0x39
 1020 06fc B4000000 		.4byte	0xb4
 1021 0700 15       		.byte	0x15
 1022 0701 00       		.byte	0
 1023 0702 15       		.uleb128 0x15
 1024 0703 FA050000 		.4byte	0x5fa
 1025 0707 12070000 		.4byte	0x712
 1026 070b 16       		.uleb128 0x16
ARM GAS  /tmp/ccSAVTpe.s 			page 19


 1027 070c A8030000 		.4byte	0x3a8
 1028 0710 03       		.byte	0x3
 1029 0711 00       		.byte	0
 1030 0712 03       		.uleb128 0x3
 1031 0713 040C0000 		.4byte	.LASF116
 1032 0717 0F       		.byte	0xf
 1033 0718 3A       		.byte	0x3a
 1034 0719 21060000 		.4byte	0x621
 1035 071d 06       		.uleb128 0x6
 1036 071e 12070000 		.4byte	0x712
 1037 0722 11       		.uleb128 0x11
 1038 0723 5A000000 		.4byte	.LASF117
 1039 0727 0F       		.byte	0xf
 1040 0728 77       		.byte	0x77
 1041 0729 1D070000 		.4byte	0x71d
 1042 072d 03       		.uleb128 0x3
 1043 072e D4030000 		.4byte	.LASF118
 1044 0732 10       		.byte	0x10
 1045 0733 30       		.byte	0x30
 1046 0734 38070000 		.4byte	0x738
 1047 0738 07       		.uleb128 0x7
 1048 0739 D4030000 		.4byte	.LASF118
 1049 073d 24       		.byte	0x24
 1050 073e 10       		.byte	0x10
 1051 073f 3E       		.byte	0x3e
 1052 0740 A5070000 		.4byte	0x7a5
 1053 0744 08       		.uleb128 0x8
 1054 0745 540A0000 		.4byte	.LASF119
 1055 0749 10       		.byte	0x10
 1056 074a 3F       		.byte	0x3f
 1057 074b C8020000 		.4byte	0x2c8
 1058 074f 00       		.byte	0
 1059 0750 08       		.uleb128 0x8
 1060 0751 EA040000 		.4byte	.LASF120
 1061 0755 10       		.byte	0x10
 1062 0756 40       		.byte	0x40
 1063 0757 2C000000 		.4byte	0x2c
 1064 075b 08       		.byte	0x8
 1065 075c 08       		.uleb128 0x8
 1066 075d DE010000 		.4byte	.LASF121
 1067 0761 10       		.byte	0x10
 1068 0762 41       		.byte	0x41
 1069 0763 C7070000 		.4byte	0x7c7
 1070 0767 0C       		.byte	0xc
 1071 0768 08       		.uleb128 0x8
 1072 0769 A9010000 		.4byte	.LASF122
 1073 076d 10       		.byte	0x10
 1074 076e 42       		.byte	0x42
 1075 076f C7070000 		.4byte	0x7c7
 1076 0773 10       		.byte	0x10
 1077 0774 08       		.uleb128 0x8
 1078 0775 8D050000 		.4byte	.LASF123
 1079 0779 10       		.byte	0x10
 1080 077a 44       		.byte	0x44
 1081 077b C7070000 		.4byte	0x7c7
 1082 077f 14       		.byte	0x14
 1083 0780 08       		.uleb128 0x8
ARM GAS  /tmp/ccSAVTpe.s 			page 20


 1084 0781 25020000 		.4byte	.LASF124
 1085 0785 10       		.byte	0x10
 1086 0786 45       		.byte	0x45
 1087 0787 C7070000 		.4byte	0x7c7
 1088 078b 18       		.byte	0x18
 1089 078c 08       		.uleb128 0x8
 1090 078d F0010000 		.4byte	.LASF125
 1091 0791 10       		.byte	0x10
 1092 0792 46       		.byte	0x46
 1093 0793 A5070000 		.4byte	0x7a5
 1094 0797 1C       		.byte	0x1c
 1095 0798 08       		.uleb128 0x8
 1096 0799 46030000 		.4byte	.LASF126
 1097 079d 10       		.byte	0x10
 1098 079e 47       		.byte	0x47
 1099 079f FE020000 		.4byte	0x2fe
 1100 07a3 20       		.byte	0x20
 1101 07a4 00       		.byte	0
 1102 07a5 03       		.uleb128 0x3
 1103 07a6 12070000 		.4byte	.LASF127
 1104 07aa 10       		.byte	0x10
 1105 07ab 33       		.byte	0x33
 1106 07ac B0070000 		.4byte	0x7b0
 1107 07b0 0B       		.uleb128 0xb
 1108 07b1 04       		.byte	0x4
 1109 07b2 B6070000 		.4byte	0x7b6
 1110 07b6 0F       		.uleb128 0xf
 1111 07b7 C1070000 		.4byte	0x7c1
 1112 07bb 10       		.uleb128 0x10
 1113 07bc C1070000 		.4byte	0x7c1
 1114 07c0 00       		.byte	0
 1115 07c1 0B       		.uleb128 0xb
 1116 07c2 04       		.byte	0x4
 1117 07c3 2D070000 		.4byte	0x72d
 1118 07c7 0B       		.uleb128 0xb
 1119 07c8 04       		.byte	0x4
 1120 07c9 B4000000 		.4byte	0xb4
 1121 07cd 03       		.uleb128 0x3
 1122 07ce 190C0000 		.4byte	.LASF128
 1123 07d2 10       		.byte	0x10
 1124 07d3 7B       		.byte	0x7b
 1125 07d4 2D070000 		.4byte	0x72d
 1126 07d8 03       		.uleb128 0x3
 1127 07d9 27040000 		.4byte	.LASF129
 1128 07dd 10       		.byte	0x10
 1129 07de EE       		.byte	0xee
 1130 07df 2D070000 		.4byte	0x72d
 1131 07e3 14       		.uleb128 0x14
 1132 07e4 2C000000 		.4byte	0x2c
 1133 07e8 FC070000 		.4byte	0x7fc
 1134 07ec 10       		.uleb128 0x10
 1135 07ed FE020000 		.4byte	0x2fe
 1136 07f1 10       		.uleb128 0x10
 1137 07f2 FC070000 		.4byte	0x7fc
 1138 07f6 10       		.uleb128 0x10
 1139 07f7 2C000000 		.4byte	0x2c
 1140 07fb 00       		.byte	0
ARM GAS  /tmp/ccSAVTpe.s 			page 21


 1141 07fc 0B       		.uleb128 0xb
 1142 07fd 04       		.byte	0x4
 1143 07fe C4000000 		.4byte	0xc4
 1144 0802 0B       		.uleb128 0xb
 1145 0803 04       		.byte	0x4
 1146 0804 E3070000 		.4byte	0x7e3
 1147 0808 14       		.uleb128 0x14
 1148 0809 2C000000 		.4byte	0x2c
 1149 080d 21080000 		.4byte	0x821
 1150 0811 10       		.uleb128 0x10
 1151 0812 FE020000 		.4byte	0x2fe
 1152 0816 10       		.uleb128 0x10
 1153 0817 C7070000 		.4byte	0x7c7
 1154 081b 10       		.uleb128 0x10
 1155 081c 2C000000 		.4byte	0x2c
 1156 0820 00       		.byte	0
 1157 0821 0B       		.uleb128 0xb
 1158 0822 04       		.byte	0x4
 1159 0823 08080000 		.4byte	0x808
 1160 0827 14       		.uleb128 0x14
 1161 0828 5D010000 		.4byte	0x15d
 1162 082c 3B080000 		.4byte	0x83b
 1163 0830 10       		.uleb128 0x10
 1164 0831 FE020000 		.4byte	0x2fe
 1165 0835 10       		.uleb128 0x10
 1166 0836 B4000000 		.4byte	0xb4
 1167 083a 00       		.byte	0
 1168 083b 0B       		.uleb128 0xb
 1169 083c 04       		.byte	0x4
 1170 083d 27080000 		.4byte	0x827
 1171 0841 15       		.uleb128 0x15
 1172 0842 00030000 		.4byte	0x300
 1173 0846 51080000 		.4byte	0x851
 1174 084a 16       		.uleb128 0x16
 1175 084b A8030000 		.4byte	0x3a8
 1176 084f 17       		.byte	0x17
 1177 0850 00       		.byte	0
 1178 0851 11       		.uleb128 0x11
 1179 0852 600B0000 		.4byte	.LASF130
 1180 0856 11       		.byte	0x11
 1181 0857 82       		.byte	0x82
 1182 0858 41080000 		.4byte	0x841
 1183 085c 15       		.uleb128 0x15
 1184 085d E9000000 		.4byte	0xe9
 1185 0861 6C080000 		.4byte	0x86c
 1186 0865 16       		.uleb128 0x16
 1187 0866 A8030000 		.4byte	0x3a8
 1188 086a 01       		.byte	0x1
 1189 086b 00       		.byte	0
 1190 086c 17       		.uleb128 0x17
 1191 086d F0060000 		.4byte	.LASF131
 1192 0871 12       		.byte	0x12
 1193 0872 0706     		.2byte	0x607
 1194 0874 E4000000 		.4byte	0xe4
 1195 0878 11       		.uleb128 0x11
 1196 0879 55050000 		.4byte	.LASF132
 1197 087d 13       		.byte	0x13
ARM GAS  /tmp/ccSAVTpe.s 			page 22


 1198 087e 23       		.byte	0x23
 1199 087f E9000000 		.4byte	0xe9
 1200 0883 15       		.uleb128 0x15
 1201 0884 E9000000 		.4byte	0xe9
 1202 0888 93080000 		.4byte	0x893
 1203 088c 16       		.uleb128 0x16
 1204 088d A8030000 		.4byte	0x3a8
 1205 0891 0B       		.byte	0xb
 1206 0892 00       		.byte	0
 1207 0893 0A       		.uleb128 0xa
 1208 0894 04       		.byte	0x4
 1209 0895 14       		.byte	0x14
 1210 0896 C7       		.byte	0xc7
 1211 0897 B4080000 		.4byte	0x8b4
 1212 089b 08       		.uleb128 0x8
 1213 089c 4C060000 		.4byte	.LASF133
 1214 08a0 14       		.byte	0x14
 1215 08a1 C8       		.byte	0xc8
 1216 08a2 D4000000 		.4byte	0xd4
 1217 08a6 00       		.byte	0
 1218 08a7 08       		.uleb128 0x8
 1219 08a8 44060000 		.4byte	.LASF134
 1220 08ac 14       		.byte	0x14
 1221 08ad C9       		.byte	0xc9
 1222 08ae D4000000 		.4byte	0xd4
 1223 08b2 02       		.byte	0x2
 1224 08b3 00       		.byte	0
 1225 08b4 0A       		.uleb128 0xa
 1226 08b5 04       		.byte	0x4
 1227 08b6 14       		.byte	0x14
 1228 08b7 CB       		.byte	0xcb
 1229 08b8 ED080000 		.4byte	0x8ed
 1230 08bc 08       		.uleb128 0x8
 1231 08bd 15060000 		.4byte	.LASF135
 1232 08c1 14       		.byte	0x14
 1233 08c2 CC       		.byte	0xcc
 1234 08c3 BF000000 		.4byte	0xbf
 1235 08c7 00       		.byte	0
 1236 08c8 08       		.uleb128 0x8
 1237 08c9 1D060000 		.4byte	.LASF136
 1238 08cd 14       		.byte	0x14
 1239 08ce CD       		.byte	0xcd
 1240 08cf BF000000 		.4byte	0xbf
 1241 08d3 01       		.byte	0x1
 1242 08d4 08       		.uleb128 0x8
 1243 08d5 25060000 		.4byte	.LASF137
 1244 08d9 14       		.byte	0x14
 1245 08da CE       		.byte	0xce
 1246 08db BF000000 		.4byte	0xbf
 1247 08df 02       		.byte	0x2
 1248 08e0 08       		.uleb128 0x8
 1249 08e1 2D060000 		.4byte	.LASF138
 1250 08e5 14       		.byte	0x14
 1251 08e6 CF       		.byte	0xcf
 1252 08e7 BF000000 		.4byte	0xbf
 1253 08eb 03       		.byte	0x3
 1254 08ec 00       		.byte	0
ARM GAS  /tmp/ccSAVTpe.s 			page 23


 1255 08ed 12       		.uleb128 0x12
 1256 08ee 04       		.byte	0x4
 1257 08ef 14       		.byte	0x14
 1258 08f0 C5       		.byte	0xc5
 1259 08f1 0B090000 		.4byte	0x90b
 1260 08f5 13       		.uleb128 0x13
 1261 08f6 EB080000 		.4byte	.LASF139
 1262 08fa 14       		.byte	0x14
 1263 08fb C6       		.byte	0xc6
 1264 08fc F4000000 		.4byte	0xf4
 1265 0900 18       		.uleb128 0x18
 1266 0901 93080000 		.4byte	0x893
 1267 0905 18       		.uleb128 0x18
 1268 0906 B4080000 		.4byte	0x8b4
 1269 090a 00       		.byte	0
 1270 090b 0A       		.uleb128 0xa
 1271 090c 04       		.byte	0x4
 1272 090d 14       		.byte	0x14
 1273 090e D5       		.byte	0xd5
 1274 090f 2C090000 		.4byte	0x92c
 1275 0913 08       		.uleb128 0x8
 1276 0914 F0070000 		.4byte	.LASF140
 1277 0918 14       		.byte	0x14
 1278 0919 D6       		.byte	0xd6
 1279 091a D4000000 		.4byte	0xd4
 1280 091e 00       		.byte	0
 1281 091f 08       		.uleb128 0x8
 1282 0920 E7070000 		.4byte	.LASF141
 1283 0924 14       		.byte	0x14
 1284 0925 D7       		.byte	0xd7
 1285 0926 D4000000 		.4byte	0xd4
 1286 092a 02       		.byte	0x2
 1287 092b 00       		.byte	0
 1288 092c 0A       		.uleb128 0xa
 1289 092d 04       		.byte	0x4
 1290 092e 14       		.byte	0x14
 1291 092f D9       		.byte	0xd9
 1292 0930 65090000 		.4byte	0x965
 1293 0934 08       		.uleb128 0x8
 1294 0935 81070000 		.4byte	.LASF142
 1295 0939 14       		.byte	0x14
 1296 093a DA       		.byte	0xda
 1297 093b BF000000 		.4byte	0xbf
 1298 093f 00       		.byte	0
 1299 0940 08       		.uleb128 0x8
 1300 0941 8A070000 		.4byte	.LASF143
 1301 0945 14       		.byte	0x14
 1302 0946 DB       		.byte	0xdb
 1303 0947 BF000000 		.4byte	0xbf
 1304 094b 01       		.byte	0x1
 1305 094c 08       		.uleb128 0x8
 1306 094d 93070000 		.4byte	.LASF144
 1307 0951 14       		.byte	0x14
 1308 0952 DC       		.byte	0xdc
 1309 0953 BF000000 		.4byte	0xbf
 1310 0957 02       		.byte	0x2
 1311 0958 08       		.uleb128 0x8
ARM GAS  /tmp/ccSAVTpe.s 			page 24


 1312 0959 9C070000 		.4byte	.LASF145
 1313 095d 14       		.byte	0x14
 1314 095e DD       		.byte	0xdd
 1315 095f BF000000 		.4byte	0xbf
 1316 0963 03       		.byte	0x3
 1317 0964 00       		.byte	0
 1318 0965 12       		.uleb128 0x12
 1319 0966 04       		.byte	0x4
 1320 0967 14       		.byte	0x14
 1321 0968 D3       		.byte	0xd3
 1322 0969 83090000 		.4byte	0x983
 1323 096d 13       		.uleb128 0x13
 1324 096e C3050000 		.4byte	.LASF146
 1325 0972 14       		.byte	0x14
 1326 0973 D4       		.byte	0xd4
 1327 0974 F4000000 		.4byte	0xf4
 1328 0978 18       		.uleb128 0x18
 1329 0979 0B090000 		.4byte	0x90b
 1330 097d 18       		.uleb128 0x18
 1331 097e 2C090000 		.4byte	0x92c
 1332 0982 00       		.byte	0
 1333 0983 0A       		.uleb128 0xa
 1334 0984 04       		.byte	0x4
 1335 0985 14       		.byte	0x14
 1336 0986 E2       		.byte	0xe2
 1337 0987 A4090000 		.4byte	0x9a4
 1338 098b 08       		.uleb128 0x8
 1339 098c 4D050000 		.4byte	.LASF147
 1340 0990 14       		.byte	0x14
 1341 0991 E3       		.byte	0xe3
 1342 0992 D4000000 		.4byte	0xd4
 1343 0996 00       		.byte	0
 1344 0997 08       		.uleb128 0x8
 1345 0998 45050000 		.4byte	.LASF148
 1346 099c 14       		.byte	0x14
 1347 099d E4       		.byte	0xe4
 1348 099e D4000000 		.4byte	0xd4
 1349 09a2 02       		.byte	0x2
 1350 09a3 00       		.byte	0
 1351 09a4 0A       		.uleb128 0xa
 1352 09a5 04       		.byte	0x4
 1353 09a6 14       		.byte	0x14
 1354 09a7 E6       		.byte	0xe6
 1355 09a8 DD090000 		.4byte	0x9dd
 1356 09ac 08       		.uleb128 0x8
 1357 09ad F4040000 		.4byte	.LASF149
 1358 09b1 14       		.byte	0x14
 1359 09b2 E7       		.byte	0xe7
 1360 09b3 BF000000 		.4byte	0xbf
 1361 09b7 00       		.byte	0
 1362 09b8 08       		.uleb128 0x8
 1363 09b9 FC040000 		.4byte	.LASF150
 1364 09bd 14       		.byte	0x14
 1365 09be E8       		.byte	0xe8
 1366 09bf BF000000 		.4byte	0xbf
 1367 09c3 01       		.byte	0x1
 1368 09c4 08       		.uleb128 0x8
ARM GAS  /tmp/ccSAVTpe.s 			page 25


 1369 09c5 04050000 		.4byte	.LASF151
 1370 09c9 14       		.byte	0x14
 1371 09ca E9       		.byte	0xe9
 1372 09cb BF000000 		.4byte	0xbf
 1373 09cf 02       		.byte	0x2
 1374 09d0 08       		.uleb128 0x8
 1375 09d1 0C050000 		.4byte	.LASF152
 1376 09d5 14       		.byte	0x14
 1377 09d6 EA       		.byte	0xea
 1378 09d7 BF000000 		.4byte	0xbf
 1379 09db 03       		.byte	0x3
 1380 09dc 00       		.byte	0
 1381 09dd 12       		.uleb128 0x12
 1382 09de 04       		.byte	0x4
 1383 09df 14       		.byte	0x14
 1384 09e0 E0       		.byte	0xe0
 1385 09e1 FB090000 		.4byte	0x9fb
 1386 09e5 13       		.uleb128 0x13
 1387 09e6 D1090000 		.4byte	.LASF153
 1388 09ea 14       		.byte	0x14
 1389 09eb E1       		.byte	0xe1
 1390 09ec F4000000 		.4byte	0xf4
 1391 09f0 18       		.uleb128 0x18
 1392 09f1 83090000 		.4byte	0x983
 1393 09f5 18       		.uleb128 0x18
 1394 09f6 A4090000 		.4byte	0x9a4
 1395 09fa 00       		.byte	0
 1396 09fb 0A       		.uleb128 0xa
 1397 09fc 04       		.byte	0x4
 1398 09fd 14       		.byte	0x14
 1399 09fe EF       		.byte	0xef
 1400 09ff 1C0A0000 		.4byte	0xa1c
 1401 0a03 08       		.uleb128 0x8
 1402 0a04 44040000 		.4byte	.LASF154
 1403 0a08 14       		.byte	0x14
 1404 0a09 F0       		.byte	0xf0
 1405 0a0a D4000000 		.4byte	0xd4
 1406 0a0e 00       		.byte	0
 1407 0a0f 08       		.uleb128 0x8
 1408 0a10 3C040000 		.4byte	.LASF155
 1409 0a14 14       		.byte	0x14
 1410 0a15 F1       		.byte	0xf1
 1411 0a16 D4000000 		.4byte	0xd4
 1412 0a1a 02       		.byte	0x2
 1413 0a1b 00       		.byte	0
 1414 0a1c 0A       		.uleb128 0xa
 1415 0a1d 04       		.byte	0x4
 1416 0a1e 14       		.byte	0x14
 1417 0a1f F3       		.byte	0xf3
 1418 0a20 550A0000 		.4byte	0xa55
 1419 0a24 08       		.uleb128 0x8
 1420 0a25 0F040000 		.4byte	.LASF156
 1421 0a29 14       		.byte	0x14
 1422 0a2a F4       		.byte	0xf4
 1423 0a2b BF000000 		.4byte	0xbf
 1424 0a2f 00       		.byte	0
 1425 0a30 08       		.uleb128 0x8
ARM GAS  /tmp/ccSAVTpe.s 			page 26


 1426 0a31 17040000 		.4byte	.LASF157
 1427 0a35 14       		.byte	0x14
 1428 0a36 F5       		.byte	0xf5
 1429 0a37 BF000000 		.4byte	0xbf
 1430 0a3b 01       		.byte	0x1
 1431 0a3c 08       		.uleb128 0x8
 1432 0a3d 1F040000 		.4byte	.LASF158
 1433 0a41 14       		.byte	0x14
 1434 0a42 F6       		.byte	0xf6
 1435 0a43 BF000000 		.4byte	0xbf
 1436 0a47 02       		.byte	0x2
 1437 0a48 08       		.uleb128 0x8
 1438 0a49 690C0000 		.4byte	.LASF159
 1439 0a4d 14       		.byte	0x14
 1440 0a4e F7       		.byte	0xf7
 1441 0a4f BF000000 		.4byte	0xbf
 1442 0a53 03       		.byte	0x3
 1443 0a54 00       		.byte	0
 1444 0a55 12       		.uleb128 0x12
 1445 0a56 04       		.byte	0x4
 1446 0a57 14       		.byte	0x14
 1447 0a58 ED       		.byte	0xed
 1448 0a59 730A0000 		.4byte	0xa73
 1449 0a5d 13       		.uleb128 0x13
 1450 0a5e BF060000 		.4byte	.LASF160
 1451 0a62 14       		.byte	0x14
 1452 0a63 EE       		.byte	0xee
 1453 0a64 F4000000 		.4byte	0xf4
 1454 0a68 18       		.uleb128 0x18
 1455 0a69 FB090000 		.4byte	0x9fb
 1456 0a6d 18       		.uleb128 0x18
 1457 0a6e 1C0A0000 		.4byte	0xa1c
 1458 0a72 00       		.byte	0
 1459 0a73 0A       		.uleb128 0xa
 1460 0a74 04       		.byte	0x4
 1461 0a75 14       		.byte	0x14
 1462 0a76 FC       		.byte	0xfc
 1463 0a77 940A0000 		.4byte	0xa94
 1464 0a7b 08       		.uleb128 0x8
 1465 0a7c 0D080000 		.4byte	.LASF161
 1466 0a80 14       		.byte	0x14
 1467 0a81 FD       		.byte	0xfd
 1468 0a82 D4000000 		.4byte	0xd4
 1469 0a86 00       		.byte	0
 1470 0a87 08       		.uleb128 0x8
 1471 0a88 05080000 		.4byte	.LASF162
 1472 0a8c 14       		.byte	0x14
 1473 0a8d FE       		.byte	0xfe
 1474 0a8e D4000000 		.4byte	0xd4
 1475 0a92 02       		.byte	0x2
 1476 0a93 00       		.byte	0
 1477 0a94 19       		.uleb128 0x19
 1478 0a95 04       		.byte	0x4
 1479 0a96 14       		.byte	0x14
 1480 0a97 0001     		.2byte	0x100
 1481 0a99 D20A0000 		.4byte	0xad2
 1482 0a9d 1A       		.uleb128 0x1a
ARM GAS  /tmp/ccSAVTpe.s 			page 27


 1483 0a9e C0070000 		.4byte	.LASF163
 1484 0aa2 14       		.byte	0x14
 1485 0aa3 0101     		.2byte	0x101
 1486 0aa5 BF000000 		.4byte	0xbf
 1487 0aa9 00       		.byte	0
 1488 0aaa 1A       		.uleb128 0x1a
 1489 0aab C8070000 		.4byte	.LASF164
 1490 0aaf 14       		.byte	0x14
 1491 0ab0 0201     		.2byte	0x102
 1492 0ab2 BF000000 		.4byte	0xbf
 1493 0ab6 01       		.byte	0x1
 1494 0ab7 1A       		.uleb128 0x1a
 1495 0ab8 D0070000 		.4byte	.LASF165
 1496 0abc 14       		.byte	0x14
 1497 0abd 0301     		.2byte	0x103
 1498 0abf BF000000 		.4byte	0xbf
 1499 0ac3 02       		.byte	0x2
 1500 0ac4 1A       		.uleb128 0x1a
 1501 0ac5 D8070000 		.4byte	.LASF166
 1502 0ac9 14       		.byte	0x14
 1503 0aca 0401     		.2byte	0x104
 1504 0acc BF000000 		.4byte	0xbf
 1505 0ad0 03       		.byte	0x3
 1506 0ad1 00       		.byte	0
 1507 0ad2 12       		.uleb128 0x12
 1508 0ad3 04       		.byte	0x4
 1509 0ad4 14       		.byte	0x14
 1510 0ad5 FA       		.byte	0xfa
 1511 0ad6 F00A0000 		.4byte	0xaf0
 1512 0ada 13       		.uleb128 0x13
 1513 0adb 22090000 		.4byte	.LASF167
 1514 0adf 14       		.byte	0x14
 1515 0ae0 FB       		.byte	0xfb
 1516 0ae1 F4000000 		.4byte	0xf4
 1517 0ae5 18       		.uleb128 0x18
 1518 0ae6 730A0000 		.4byte	0xa73
 1519 0aea 18       		.uleb128 0x18
 1520 0aeb 940A0000 		.4byte	0xa94
 1521 0aef 00       		.byte	0
 1522 0af0 0A       		.uleb128 0xa
 1523 0af1 20       		.byte	0x20
 1524 0af2 14       		.byte	0x14
 1525 0af3 C3       		.byte	0xc3
 1526 0af4 230B0000 		.4byte	0xb23
 1527 0af8 1B       		.uleb128 0x1b
 1528 0af9 ED080000 		.4byte	0x8ed
 1529 0afd 00       		.byte	0
 1530 0afe 08       		.uleb128 0x8
 1531 0aff 1A030000 		.4byte	.LASF168
 1532 0b03 14       		.byte	0x14
 1533 0b04 D2       		.byte	0xd2
 1534 0b05 230B0000 		.4byte	0xb23
 1535 0b09 04       		.byte	0x4
 1536 0b0a 1B       		.uleb128 0x1b
 1537 0b0b 65090000 		.4byte	0x965
 1538 0b0f 10       		.byte	0x10
 1539 0b10 1B       		.uleb128 0x1b
ARM GAS  /tmp/ccSAVTpe.s 			page 28


 1540 0b11 DD090000 		.4byte	0x9dd
 1541 0b15 14       		.byte	0x14
 1542 0b16 1B       		.uleb128 0x1b
 1543 0b17 550A0000 		.4byte	0xa55
 1544 0b1b 18       		.byte	0x18
 1545 0b1c 1B       		.uleb128 0x1b
 1546 0b1d D20A0000 		.4byte	0xad2
 1547 0b21 1C       		.byte	0x1c
 1548 0b22 00       		.byte	0
 1549 0b23 15       		.uleb128 0x15
 1550 0b24 E9000000 		.4byte	0xe9
 1551 0b28 330B0000 		.4byte	0xb33
 1552 0b2c 16       		.uleb128 0x16
 1553 0b2d A8030000 		.4byte	0x3a8
 1554 0b31 02       		.byte	0x2
 1555 0b32 00       		.byte	0
 1556 0b33 1C       		.uleb128 0x1c
 1557 0b34 C50B0000 		.4byte	.LASF169
 1558 0b38 14       		.byte	0x14
 1559 0b39 0701     		.2byte	0x107
 1560 0b3b F00A0000 		.4byte	0xaf0
 1561 0b3f 19       		.uleb128 0x19
 1562 0b40 74       		.byte	0x74
 1563 0b41 14       		.byte	0x14
 1564 0b42 1C01     		.2byte	0x11c
 1565 0b44 220C0000 		.4byte	0xc22
 1566 0b48 0E       		.uleb128 0xe
 1567 0b49 495200   		.ascii	"IR\000"
 1568 0b4c 14       		.byte	0x14
 1569 0b4d 1E01     		.2byte	0x11e
 1570 0b4f F4000000 		.4byte	0xf4
 1571 0b53 00       		.byte	0
 1572 0b54 0E       		.uleb128 0xe
 1573 0b55 54435200 		.ascii	"TCR\000"
 1574 0b59 14       		.byte	0x14
 1575 0b5a 1F01     		.2byte	0x11f
 1576 0b5c F4000000 		.4byte	0xf4
 1577 0b60 04       		.byte	0x4
 1578 0b61 0E       		.uleb128 0xe
 1579 0b62 544300   		.ascii	"TC\000"
 1580 0b65 14       		.byte	0x14
 1581 0b66 2001     		.2byte	0x120
 1582 0b68 F4000000 		.4byte	0xf4
 1583 0b6c 08       		.byte	0x8
 1584 0b6d 0E       		.uleb128 0xe
 1585 0b6e 505200   		.ascii	"PR\000"
 1586 0b71 14       		.byte	0x14
 1587 0b72 2101     		.2byte	0x121
 1588 0b74 F4000000 		.4byte	0xf4
 1589 0b78 0C       		.byte	0xc
 1590 0b79 0E       		.uleb128 0xe
 1591 0b7a 504300   		.ascii	"PC\000"
 1592 0b7d 14       		.byte	0x14
 1593 0b7e 2201     		.2byte	0x122
 1594 0b80 F4000000 		.4byte	0xf4
 1595 0b84 10       		.byte	0x10
 1596 0b85 0E       		.uleb128 0xe
ARM GAS  /tmp/ccSAVTpe.s 			page 29


 1597 0b86 4D435200 		.ascii	"MCR\000"
 1598 0b8a 14       		.byte	0x14
 1599 0b8b 2301     		.2byte	0x123
 1600 0b8d F4000000 		.4byte	0xf4
 1601 0b91 14       		.byte	0x14
 1602 0b92 0E       		.uleb128 0xe
 1603 0b93 4D523000 		.ascii	"MR0\000"
 1604 0b97 14       		.byte	0x14
 1605 0b98 2401     		.2byte	0x124
 1606 0b9a F4000000 		.4byte	0xf4
 1607 0b9e 18       		.byte	0x18
 1608 0b9f 0E       		.uleb128 0xe
 1609 0ba0 4D523100 		.ascii	"MR1\000"
 1610 0ba4 14       		.byte	0x14
 1611 0ba5 2501     		.2byte	0x125
 1612 0ba7 F4000000 		.4byte	0xf4
 1613 0bab 1C       		.byte	0x1c
 1614 0bac 0E       		.uleb128 0xe
 1615 0bad 4D523200 		.ascii	"MR2\000"
 1616 0bb1 14       		.byte	0x14
 1617 0bb2 2601     		.2byte	0x126
 1618 0bb4 F4000000 		.4byte	0xf4
 1619 0bb8 20       		.byte	0x20
 1620 0bb9 0E       		.uleb128 0xe
 1621 0bba 4D523300 		.ascii	"MR3\000"
 1622 0bbe 14       		.byte	0x14
 1623 0bbf 2701     		.2byte	0x127
 1624 0bc1 F4000000 		.4byte	0xf4
 1625 0bc5 24       		.byte	0x24
 1626 0bc6 0E       		.uleb128 0xe
 1627 0bc7 43435200 		.ascii	"CCR\000"
 1628 0bcb 14       		.byte	0x14
 1629 0bcc 2801     		.2byte	0x128
 1630 0bce F4000000 		.4byte	0xf4
 1631 0bd2 28       		.byte	0x28
 1632 0bd3 0E       		.uleb128 0xe
 1633 0bd4 43523000 		.ascii	"CR0\000"
 1634 0bd8 14       		.byte	0x14
 1635 0bd9 2901     		.2byte	0x129
 1636 0bdb F9000000 		.4byte	0xf9
 1637 0bdf 2C       		.byte	0x2c
 1638 0be0 0E       		.uleb128 0xe
 1639 0be1 43523100 		.ascii	"CR1\000"
 1640 0be5 14       		.byte	0x14
 1641 0be6 2A01     		.2byte	0x12a
 1642 0be8 F9000000 		.4byte	0xf9
 1643 0bec 30       		.byte	0x30
 1644 0bed 1A       		.uleb128 0x1a
 1645 0bee 1A030000 		.4byte	.LASF168
 1646 0bf2 14       		.byte	0x14
 1647 0bf3 2B01     		.2byte	0x12b
 1648 0bf5 5C080000 		.4byte	0x85c
 1649 0bf9 34       		.byte	0x34
 1650 0bfa 0E       		.uleb128 0xe
 1651 0bfb 454D5200 		.ascii	"EMR\000"
 1652 0bff 14       		.byte	0x14
 1653 0c00 2C01     		.2byte	0x12c
ARM GAS  /tmp/ccSAVTpe.s 			page 30


 1654 0c02 F4000000 		.4byte	0xf4
 1655 0c06 3C       		.byte	0x3c
 1656 0c07 1A       		.uleb128 0x1a
 1657 0c08 24030000 		.4byte	.LASF170
 1658 0c0c 14       		.byte	0x14
 1659 0c0d 2D01     		.2byte	0x12d
 1660 0c0f 83080000 		.4byte	0x883
 1661 0c13 40       		.byte	0x40
 1662 0c14 1A       		.uleb128 0x1a
 1663 0c15 D5000000 		.4byte	.LASF171
 1664 0c19 14       		.byte	0x14
 1665 0c1a 2E01     		.2byte	0x12e
 1666 0c1c F4000000 		.4byte	0xf4
 1667 0c20 70       		.byte	0x70
 1668 0c21 00       		.byte	0
 1669 0c22 1C       		.uleb128 0x1c
 1670 0c23 FE080000 		.4byte	.LASF172
 1671 0c27 14       		.byte	0x14
 1672 0c28 2F01     		.2byte	0x12f
 1673 0c2a 3F0B0000 		.4byte	0xb3f
 1674 0c2e 1D       		.uleb128 0x1d
 1675 0c2f 04       		.byte	0x4
 1676 0c30 14       		.byte	0x14
 1677 0c31 5201     		.2byte	0x152
 1678 0c33 5C0C0000 		.4byte	0xc5c
 1679 0c37 1E       		.uleb128 0x1e
 1680 0c38 52425200 		.ascii	"RBR\000"
 1681 0c3c 14       		.byte	0x14
 1682 0c3d 5301     		.2byte	0x153
 1683 0c3f F9000000 		.4byte	0xf9
 1684 0c43 1E       		.uleb128 0x1e
 1685 0c44 54485200 		.ascii	"THR\000"
 1686 0c48 14       		.byte	0x14
 1687 0c49 5401     		.2byte	0x154
 1688 0c4b F4000000 		.4byte	0xf4
 1689 0c4f 1E       		.uleb128 0x1e
 1690 0c50 444C4C00 		.ascii	"DLL\000"
 1691 0c54 14       		.byte	0x14
 1692 0c55 5501     		.2byte	0x155
 1693 0c57 F4000000 		.4byte	0xf4
 1694 0c5b 00       		.byte	0
 1695 0c5c 1D       		.uleb128 0x1d
 1696 0c5d 04       		.byte	0x4
 1697 0c5e 14       		.byte	0x14
 1698 0c5f 5701     		.2byte	0x157
 1699 0c61 7E0C0000 		.4byte	0xc7e
 1700 0c65 1E       		.uleb128 0x1e
 1701 0c66 444C4D00 		.ascii	"DLM\000"
 1702 0c6a 14       		.byte	0x14
 1703 0c6b 5801     		.2byte	0x158
 1704 0c6d F4000000 		.4byte	0xf4
 1705 0c71 1E       		.uleb128 0x1e
 1706 0c72 49455200 		.ascii	"IER\000"
 1707 0c76 14       		.byte	0x14
 1708 0c77 5901     		.2byte	0x159
 1709 0c79 F4000000 		.4byte	0xf4
 1710 0c7d 00       		.byte	0
ARM GAS  /tmp/ccSAVTpe.s 			page 31


 1711 0c7e 1D       		.uleb128 0x1d
 1712 0c7f 04       		.byte	0x4
 1713 0c80 14       		.byte	0x14
 1714 0c81 5B01     		.2byte	0x15b
 1715 0c83 A00C0000 		.4byte	0xca0
 1716 0c87 1E       		.uleb128 0x1e
 1717 0c88 49495200 		.ascii	"IIR\000"
 1718 0c8c 14       		.byte	0x14
 1719 0c8d 5C01     		.2byte	0x15c
 1720 0c8f F9000000 		.4byte	0xf9
 1721 0c93 1E       		.uleb128 0x1e
 1722 0c94 46435200 		.ascii	"FCR\000"
 1723 0c98 14       		.byte	0x14
 1724 0c99 5D01     		.2byte	0x15d
 1725 0c9b F4000000 		.4byte	0xf4
 1726 0c9f 00       		.byte	0
 1727 0ca0 19       		.uleb128 0x19
 1728 0ca1 34       		.byte	0x34
 1729 0ca2 14       		.byte	0x14
 1730 0ca3 5001     		.2byte	0x150
 1731 0ca5 3E0D0000 		.4byte	0xd3e
 1732 0ca9 1B       		.uleb128 0x1b
 1733 0caa 2E0C0000 		.4byte	0xc2e
 1734 0cae 00       		.byte	0
 1735 0caf 1B       		.uleb128 0x1b
 1736 0cb0 5C0C0000 		.4byte	0xc5c
 1737 0cb4 04       		.byte	0x4
 1738 0cb5 1B       		.uleb128 0x1b
 1739 0cb6 7E0C0000 		.4byte	0xc7e
 1740 0cba 08       		.byte	0x8
 1741 0cbb 0E       		.uleb128 0xe
 1742 0cbc 4C435200 		.ascii	"LCR\000"
 1743 0cc0 14       		.byte	0x14
 1744 0cc1 5F01     		.2byte	0x15f
 1745 0cc3 F4000000 		.4byte	0xf4
 1746 0cc7 0C       		.byte	0xc
 1747 0cc8 1A       		.uleb128 0x1a
 1748 0cc9 1A030000 		.4byte	.LASF168
 1749 0ccd 14       		.byte	0x14
 1750 0cce 6001     		.2byte	0x160
 1751 0cd0 E9000000 		.4byte	0xe9
 1752 0cd4 10       		.byte	0x10
 1753 0cd5 0E       		.uleb128 0xe
 1754 0cd6 4C535200 		.ascii	"LSR\000"
 1755 0cda 14       		.byte	0x14
 1756 0cdb 6101     		.2byte	0x161
 1757 0cdd F9000000 		.4byte	0xf9
 1758 0ce1 14       		.byte	0x14
 1759 0ce2 1A       		.uleb128 0x1a
 1760 0ce3 24030000 		.4byte	.LASF170
 1761 0ce7 14       		.byte	0x14
 1762 0ce8 6201     		.2byte	0x162
 1763 0cea E9000000 		.4byte	0xe9
 1764 0cee 18       		.byte	0x18
 1765 0cef 0E       		.uleb128 0xe
 1766 0cf0 53435200 		.ascii	"SCR\000"
 1767 0cf4 14       		.byte	0x14
ARM GAS  /tmp/ccSAVTpe.s 			page 32


 1768 0cf5 6301     		.2byte	0x163
 1769 0cf7 F4000000 		.4byte	0xf4
 1770 0cfb 1C       		.byte	0x1c
 1771 0cfc 0E       		.uleb128 0xe
 1772 0cfd 41435200 		.ascii	"ACR\000"
 1773 0d01 14       		.byte	0x14
 1774 0d02 6401     		.2byte	0x164
 1775 0d04 F4000000 		.4byte	0xf4
 1776 0d08 20       		.byte	0x20
 1777 0d09 0E       		.uleb128 0xe
 1778 0d0a 49435200 		.ascii	"ICR\000"
 1779 0d0e 14       		.byte	0x14
 1780 0d0f 6501     		.2byte	0x165
 1781 0d11 F4000000 		.4byte	0xf4
 1782 0d15 24       		.byte	0x24
 1783 0d16 0E       		.uleb128 0xe
 1784 0d17 46445200 		.ascii	"FDR\000"
 1785 0d1b 14       		.byte	0x14
 1786 0d1c 6601     		.2byte	0x166
 1787 0d1e F4000000 		.4byte	0xf4
 1788 0d22 28       		.byte	0x28
 1789 0d23 1A       		.uleb128 0x1a
 1790 0d24 90030000 		.4byte	.LASF173
 1791 0d28 14       		.byte	0x14
 1792 0d29 6701     		.2byte	0x167
 1793 0d2b E9000000 		.4byte	0xe9
 1794 0d2f 2C       		.byte	0x2c
 1795 0d30 0E       		.uleb128 0xe
 1796 0d31 54455200 		.ascii	"TER\000"
 1797 0d35 14       		.byte	0x14
 1798 0d36 6801     		.2byte	0x168
 1799 0d38 F4000000 		.4byte	0xf4
 1800 0d3c 30       		.byte	0x30
 1801 0d3d 00       		.byte	0
 1802 0d3e 1C       		.uleb128 0x1c
 1803 0d3f 230A0000 		.4byte	.LASF174
 1804 0d43 14       		.byte	0x14
 1805 0d44 6901     		.2byte	0x169
 1806 0d46 A00C0000 		.4byte	0xca0
 1807 0d4a 19       		.uleb128 0x19
 1808 0d4b 28       		.byte	0x28
 1809 0d4c 14       		.byte	0x14
 1810 0d4d 9901     		.2byte	0x199
 1811 0d4f D40D0000 		.4byte	0xdd4
 1812 0d53 0E       		.uleb128 0xe
 1813 0d54 43523000 		.ascii	"CR0\000"
 1814 0d58 14       		.byte	0x14
 1815 0d59 9B01     		.2byte	0x19b
 1816 0d5b F4000000 		.4byte	0xf4
 1817 0d5f 00       		.byte	0
 1818 0d60 0E       		.uleb128 0xe
 1819 0d61 43523100 		.ascii	"CR1\000"
 1820 0d65 14       		.byte	0x14
 1821 0d66 9C01     		.2byte	0x19c
 1822 0d68 F4000000 		.4byte	0xf4
 1823 0d6c 04       		.byte	0x4
 1824 0d6d 0E       		.uleb128 0xe
ARM GAS  /tmp/ccSAVTpe.s 			page 33


 1825 0d6e 445200   		.ascii	"DR\000"
 1826 0d71 14       		.byte	0x14
 1827 0d72 9D01     		.2byte	0x19d
 1828 0d74 F4000000 		.4byte	0xf4
 1829 0d78 08       		.byte	0x8
 1830 0d79 0E       		.uleb128 0xe
 1831 0d7a 535200   		.ascii	"SR\000"
 1832 0d7d 14       		.byte	0x14
 1833 0d7e 9E01     		.2byte	0x19e
 1834 0d80 F9000000 		.4byte	0xf9
 1835 0d84 0C       		.byte	0xc
 1836 0d85 1A       		.uleb128 0x1a
 1837 0d86 7B0A0000 		.4byte	.LASF175
 1838 0d8a 14       		.byte	0x14
 1839 0d8b 9F01     		.2byte	0x19f
 1840 0d8d F4000000 		.4byte	0xf4
 1841 0d91 10       		.byte	0x10
 1842 0d92 1A       		.uleb128 0x1a
 1843 0d93 E6020000 		.4byte	.LASF176
 1844 0d97 14       		.byte	0x14
 1845 0d98 A001     		.2byte	0x1a0
 1846 0d9a F4000000 		.4byte	0xf4
 1847 0d9e 14       		.byte	0x14
 1848 0d9f 0E       		.uleb128 0xe
 1849 0da0 52495300 		.ascii	"RIS\000"
 1850 0da4 14       		.byte	0x14
 1851 0da5 A101     		.2byte	0x1a1
 1852 0da7 F4000000 		.4byte	0xf4
 1853 0dab 18       		.byte	0x18
 1854 0dac 0E       		.uleb128 0xe
 1855 0dad 4D495300 		.ascii	"MIS\000"
 1856 0db1 14       		.byte	0x14
 1857 0db2 A201     		.2byte	0x1a2
 1858 0db4 F4000000 		.4byte	0xf4
 1859 0db8 1C       		.byte	0x1c
 1860 0db9 0E       		.uleb128 0xe
 1861 0dba 49435200 		.ascii	"ICR\000"
 1862 0dbe 14       		.byte	0x14
 1863 0dbf A301     		.2byte	0x1a3
 1864 0dc1 F4000000 		.4byte	0xf4
 1865 0dc5 20       		.byte	0x20
 1866 0dc6 1A       		.uleb128 0x1a
 1867 0dc7 A6030000 		.4byte	.LASF177
 1868 0dcb 14       		.byte	0x14
 1869 0dcc A401     		.2byte	0x1a4
 1870 0dce F4000000 		.4byte	0xf4
 1871 0dd2 24       		.byte	0x24
 1872 0dd3 00       		.byte	0
 1873 0dd4 1C       		.uleb128 0x1c
 1874 0dd5 9B020000 		.4byte	.LASF178
 1875 0dd9 14       		.byte	0x14
 1876 0dda A501     		.2byte	0x1a5
 1877 0ddc 4A0D0000 		.4byte	0xd4a
 1878 0de0 19       		.uleb128 0x19
 1879 0de1 38       		.byte	0x38
 1880 0de2 14       		.byte	0x14
 1881 0de3 0E02     		.2byte	0x20e
ARM GAS  /tmp/ccSAVTpe.s 			page 34


 1882 0de5 430E0000 		.4byte	0xe43
 1883 0de9 0E       		.uleb128 0xe
 1884 0dea 435200   		.ascii	"CR\000"
 1885 0ded 14       		.byte	0x14
 1886 0dee 1002     		.2byte	0x210
 1887 0df0 F4000000 		.4byte	0xf4
 1888 0df4 00       		.byte	0
 1889 0df5 0E       		.uleb128 0xe
 1890 0df6 47445200 		.ascii	"GDR\000"
 1891 0dfa 14       		.byte	0x14
 1892 0dfb 1102     		.2byte	0x211
 1893 0dfd F4000000 		.4byte	0xf4
 1894 0e01 04       		.byte	0x4
 1895 0e02 1A       		.uleb128 0x1a
 1896 0e03 1A030000 		.4byte	.LASF168
 1897 0e07 14       		.byte	0x14
 1898 0e08 1202     		.2byte	0x212
 1899 0e0a E9000000 		.4byte	0xe9
 1900 0e0e 08       		.byte	0x8
 1901 0e0f 1A       		.uleb128 0x1a
 1902 0e10 750B0000 		.4byte	.LASF179
 1903 0e14 14       		.byte	0x14
 1904 0e15 1302     		.2byte	0x213
 1905 0e17 F4000000 		.4byte	0xf4
 1906 0e1b 0C       		.byte	0xc
 1907 0e1c 0E       		.uleb128 0xe
 1908 0e1d 445200   		.ascii	"DR\000"
 1909 0e20 14       		.byte	0x14
 1910 0e21 1402     		.2byte	0x214
 1911 0e23 580E0000 		.4byte	0xe58
 1912 0e27 10       		.byte	0x10
 1913 0e28 1A       		.uleb128 0x1a
 1914 0e29 2C010000 		.4byte	.LASF180
 1915 0e2d 14       		.byte	0x14
 1916 0e2e 1502     		.2byte	0x215
 1917 0e30 F9000000 		.4byte	0xf9
 1918 0e34 30       		.byte	0x30
 1919 0e35 1A       		.uleb128 0x1a
 1920 0e36 A7060000 		.4byte	.LASF181
 1921 0e3a 14       		.byte	0x14
 1922 0e3b 1602     		.2byte	0x216
 1923 0e3d F4000000 		.4byte	0xf4
 1924 0e41 34       		.byte	0x34
 1925 0e42 00       		.byte	0
 1926 0e43 15       		.uleb128 0x15
 1927 0e44 F9000000 		.4byte	0xf9
 1928 0e48 530E0000 		.4byte	0xe53
 1929 0e4c 16       		.uleb128 0x16
 1930 0e4d A8030000 		.4byte	0x3a8
 1931 0e51 07       		.byte	0x7
 1932 0e52 00       		.byte	0
 1933 0e53 06       		.uleb128 0x6
 1934 0e54 430E0000 		.4byte	0xe43
 1935 0e58 05       		.uleb128 0x5
 1936 0e59 530E0000 		.4byte	0xe53
 1937 0e5d 1C       		.uleb128 0x1c
 1938 0e5e 01010000 		.4byte	.LASF182
ARM GAS  /tmp/ccSAVTpe.s 			page 35


 1939 0e62 14       		.byte	0x14
 1940 0e63 1702     		.2byte	0x217
 1941 0e65 E00D0000 		.4byte	0xde0
 1942 0e69 19       		.uleb128 0x19
 1943 0e6a 60       		.byte	0x60
 1944 0e6b 14       		.byte	0x14
 1945 0e6c 8302     		.2byte	0x283
 1946 0e6e AA0F0000 		.4byte	0xfaa
 1947 0e72 0E       		.uleb128 0xe
 1948 0e73 4D4F4400 		.ascii	"MOD\000"
 1949 0e77 14       		.byte	0x14
 1950 0e78 8502     		.2byte	0x285
 1951 0e7a F4000000 		.4byte	0xf4
 1952 0e7e 00       		.byte	0
 1953 0e7f 0E       		.uleb128 0xe
 1954 0e80 434D5200 		.ascii	"CMR\000"
 1955 0e84 14       		.byte	0x14
 1956 0e85 8602     		.2byte	0x286
 1957 0e87 F4000000 		.4byte	0xf4
 1958 0e8b 04       		.byte	0x4
 1959 0e8c 0E       		.uleb128 0xe
 1960 0e8d 47535200 		.ascii	"GSR\000"
 1961 0e91 14       		.byte	0x14
 1962 0e92 8702     		.2byte	0x287
 1963 0e94 F4000000 		.4byte	0xf4
 1964 0e98 08       		.byte	0x8
 1965 0e99 0E       		.uleb128 0xe
 1966 0e9a 49435200 		.ascii	"ICR\000"
 1967 0e9e 14       		.byte	0x14
 1968 0e9f 8802     		.2byte	0x288
 1969 0ea1 F9000000 		.4byte	0xf9
 1970 0ea5 0C       		.byte	0xc
 1971 0ea6 0E       		.uleb128 0xe
 1972 0ea7 49455200 		.ascii	"IER\000"
 1973 0eab 14       		.byte	0x14
 1974 0eac 8902     		.2byte	0x289
 1975 0eae F4000000 		.4byte	0xf4
 1976 0eb2 10       		.byte	0x10
 1977 0eb3 0E       		.uleb128 0xe
 1978 0eb4 42545200 		.ascii	"BTR\000"
 1979 0eb8 14       		.byte	0x14
 1980 0eb9 8A02     		.2byte	0x28a
 1981 0ebb F4000000 		.4byte	0xf4
 1982 0ebf 14       		.byte	0x14
 1983 0ec0 0E       		.uleb128 0xe
 1984 0ec1 45574C00 		.ascii	"EWL\000"
 1985 0ec5 14       		.byte	0x14
 1986 0ec6 8B02     		.2byte	0x28b
 1987 0ec8 F4000000 		.4byte	0xf4
 1988 0ecc 18       		.byte	0x18
 1989 0ecd 0E       		.uleb128 0xe
 1990 0ece 535200   		.ascii	"SR\000"
 1991 0ed1 14       		.byte	0x14
 1992 0ed2 8C02     		.2byte	0x28c
 1993 0ed4 F9000000 		.4byte	0xf9
 1994 0ed8 1C       		.byte	0x1c
 1995 0ed9 0E       		.uleb128 0xe
ARM GAS  /tmp/ccSAVTpe.s 			page 36


 1996 0eda 52465300 		.ascii	"RFS\000"
 1997 0ede 14       		.byte	0x14
 1998 0edf 8D02     		.2byte	0x28d
 1999 0ee1 F4000000 		.4byte	0xf4
 2000 0ee5 20       		.byte	0x20
 2001 0ee6 0E       		.uleb128 0xe
 2002 0ee7 52494400 		.ascii	"RID\000"
 2003 0eeb 14       		.byte	0x14
 2004 0eec 8E02     		.2byte	0x28e
 2005 0eee F4000000 		.4byte	0xf4
 2006 0ef2 24       		.byte	0x24
 2007 0ef3 0E       		.uleb128 0xe
 2008 0ef4 52444100 		.ascii	"RDA\000"
 2009 0ef8 14       		.byte	0x14
 2010 0ef9 8F02     		.2byte	0x28f
 2011 0efb F4000000 		.4byte	0xf4
 2012 0eff 28       		.byte	0x28
 2013 0f00 0E       		.uleb128 0xe
 2014 0f01 52444200 		.ascii	"RDB\000"
 2015 0f05 14       		.byte	0x14
 2016 0f06 9002     		.2byte	0x290
 2017 0f08 F4000000 		.4byte	0xf4
 2018 0f0c 2C       		.byte	0x2c
 2019 0f0d 1A       		.uleb128 0x1a
 2020 0f0e 700B0000 		.4byte	.LASF183
 2021 0f12 14       		.byte	0x14
 2022 0f13 9102     		.2byte	0x291
 2023 0f15 F4000000 		.4byte	0xf4
 2024 0f19 30       		.byte	0x30
 2025 0f1a 1A       		.uleb128 0x1a
 2026 0f1b CB050000 		.4byte	.LASF184
 2027 0f1f 14       		.byte	0x14
 2028 0f20 9202     		.2byte	0x292
 2029 0f22 F4000000 		.4byte	0xf4
 2030 0f26 34       		.byte	0x34
 2031 0f27 1A       		.uleb128 0x1a
 2032 0f28 8D040000 		.4byte	.LASF185
 2033 0f2c 14       		.byte	0x14
 2034 0f2d 9302     		.2byte	0x293
 2035 0f2f F4000000 		.4byte	0xf4
 2036 0f33 38       		.byte	0x38
 2037 0f34 1A       		.uleb128 0x1a
 2038 0f35 BC040000 		.4byte	.LASF186
 2039 0f39 14       		.byte	0x14
 2040 0f3a 9402     		.2byte	0x294
 2041 0f3c F4000000 		.4byte	0xf4
 2042 0f40 3C       		.byte	0x3c
 2043 0f41 1A       		.uleb128 0x1a
 2044 0f42 26000000 		.4byte	.LASF187
 2045 0f46 14       		.byte	0x14
 2046 0f47 9502     		.2byte	0x295
 2047 0f49 F4000000 		.4byte	0xf4
 2048 0f4d 40       		.byte	0x40
 2049 0f4e 1A       		.uleb128 0x1a
 2050 0f4f D0050000 		.4byte	.LASF188
 2051 0f53 14       		.byte	0x14
 2052 0f54 9602     		.2byte	0x296
ARM GAS  /tmp/ccSAVTpe.s 			page 37


 2053 0f56 F4000000 		.4byte	0xf4
 2054 0f5a 44       		.byte	0x44
 2055 0f5b 1A       		.uleb128 0x1a
 2056 0f5c 92040000 		.4byte	.LASF189
 2057 0f60 14       		.byte	0x14
 2058 0f61 9702     		.2byte	0x297
 2059 0f63 F4000000 		.4byte	0xf4
 2060 0f67 48       		.byte	0x48
 2061 0f68 1A       		.uleb128 0x1a
 2062 0f69 C1040000 		.4byte	.LASF190
 2063 0f6d 14       		.byte	0x14
 2064 0f6e 9802     		.2byte	0x298
 2065 0f70 F4000000 		.4byte	0xf4
 2066 0f74 4C       		.byte	0x4c
 2067 0f75 1A       		.uleb128 0x1a
 2068 0f76 2B000000 		.4byte	.LASF191
 2069 0f7a 14       		.byte	0x14
 2070 0f7b 9902     		.2byte	0x299
 2071 0f7d F4000000 		.4byte	0xf4
 2072 0f81 50       		.byte	0x50
 2073 0f82 1A       		.uleb128 0x1a
 2074 0f83 D5050000 		.4byte	.LASF192
 2075 0f87 14       		.byte	0x14
 2076 0f88 9A02     		.2byte	0x29a
 2077 0f8a F4000000 		.4byte	0xf4
 2078 0f8e 54       		.byte	0x54
 2079 0f8f 1A       		.uleb128 0x1a
 2080 0f90 97040000 		.4byte	.LASF193
 2081 0f94 14       		.byte	0x14
 2082 0f95 9B02     		.2byte	0x29b
 2083 0f97 F4000000 		.4byte	0xf4
 2084 0f9b 58       		.byte	0x58
 2085 0f9c 1A       		.uleb128 0x1a
 2086 0f9d C6040000 		.4byte	.LASF194
 2087 0fa1 14       		.byte	0x14
 2088 0fa2 9C02     		.2byte	0x29c
 2089 0fa4 F4000000 		.4byte	0xf4
 2090 0fa8 5C       		.byte	0x5c
 2091 0fa9 00       		.byte	0
 2092 0faa 1C       		.uleb128 0x1c
 2093 0fab 58040000 		.4byte	.LASF195
 2094 0faf 14       		.byte	0x14
 2095 0fb0 9D02     		.2byte	0x29d
 2096 0fb2 690E0000 		.4byte	0xe69
 2097 0fb6 19       		.uleb128 0x19
 2098 0fb7 14       		.byte	0x14
 2099 0fb8 14       		.byte	0x14
 2100 0fb9 B402     		.2byte	0x2b4
 2101 0fbb 01100000 		.4byte	0x1001
 2102 0fbf 1A       		.uleb128 0x1a
 2103 0fc0 E7010000 		.4byte	.LASF196
 2104 0fc4 14       		.byte	0x14
 2105 0fc5 B602     		.2byte	0x2b6
 2106 0fc7 F4000000 		.4byte	0xf4
 2107 0fcb 00       		.byte	0
 2108 0fcc 1A       		.uleb128 0x1a
 2109 0fcd AF010000 		.4byte	.LASF197
ARM GAS  /tmp/ccSAVTpe.s 			page 38


 2110 0fd1 14       		.byte	0x14
 2111 0fd2 B702     		.2byte	0x2b7
 2112 0fd4 F4000000 		.4byte	0xf4
 2113 0fd8 04       		.byte	0x4
 2114 0fd9 1A       		.uleb128 0x1a
 2115 0fda 340A0000 		.4byte	.LASF198
 2116 0fde 14       		.byte	0x14
 2117 0fdf B802     		.2byte	0x2b8
 2118 0fe1 F4000000 		.4byte	0xf4
 2119 0fe5 08       		.byte	0x8
 2120 0fe6 1A       		.uleb128 0x1a
 2121 0fe7 6F050000 		.4byte	.LASF199
 2122 0feb 14       		.byte	0x14
 2123 0fec B902     		.2byte	0x2b9
 2124 0fee F4000000 		.4byte	0xf4
 2125 0ff2 0C       		.byte	0xc
 2126 0ff3 1A       		.uleb128 0x1a
 2127 0ff4 420B0000 		.4byte	.LASF200
 2128 0ff8 14       		.byte	0x14
 2129 0ff9 BA02     		.2byte	0x2ba
 2130 0ffb F4000000 		.4byte	0xf4
 2131 0fff 10       		.byte	0x10
 2132 1000 00       		.byte	0
 2133 1001 1C       		.uleb128 0x1c
 2134 1002 AE000000 		.4byte	.LASF201
 2135 1006 14       		.byte	0x14
 2136 1007 BB02     		.2byte	0x2bb
 2137 1009 B60F0000 		.4byte	0xfb6
 2138 100d 15       		.uleb128 0x15
 2139 100e 18100000 		.4byte	0x1018
 2140 1012 18100000 		.4byte	0x1018
 2141 1016 1F       		.uleb128 0x1f
 2142 1017 00       		.byte	0
 2143 1018 0B       		.uleb128 0xb
 2144 1019 04       		.byte	0x4
 2145 101a 01100000 		.4byte	0x1001
 2146 101e 17       		.uleb128 0x17
 2147 101f 95050000 		.4byte	.LASF202
 2148 1023 15       		.byte	0x15
 2149 1024 9501     		.2byte	0x195
 2150 1026 0D100000 		.4byte	0x100d
 2151 102a 14       		.uleb128 0x14
 2152 102b 5D010000 		.4byte	0x15d
 2153 102f 43100000 		.4byte	0x1043
 2154 1033 10       		.uleb128 0x10
 2155 1034 FE020000 		.4byte	0x2fe
 2156 1038 10       		.uleb128 0x10
 2157 1039 B4000000 		.4byte	0xb4
 2158 103d 10       		.uleb128 0x10
 2159 103e 7E010000 		.4byte	0x17e
 2160 1042 00       		.byte	0
 2161 1043 0B       		.uleb128 0xb
 2162 1044 04       		.byte	0x4
 2163 1045 2A100000 		.4byte	0x102a
 2164 1049 14       		.uleb128 0x14
 2165 104a 5D010000 		.4byte	0x15d
 2166 104e 5D100000 		.4byte	0x105d
ARM GAS  /tmp/ccSAVTpe.s 			page 39


 2167 1052 10       		.uleb128 0x10
 2168 1053 FE020000 		.4byte	0x2fe
 2169 1057 10       		.uleb128 0x10
 2170 1058 7E010000 		.4byte	0x17e
 2171 105c 00       		.byte	0
 2172 105d 0B       		.uleb128 0xb
 2173 105e 04       		.byte	0x4
 2174 105f 49100000 		.4byte	0x1049
 2175 1063 14       		.uleb128 0x14
 2176 1064 2C000000 		.4byte	0x2c
 2177 1068 81100000 		.4byte	0x1081
 2178 106c 10       		.uleb128 0x10
 2179 106d FE020000 		.4byte	0x2fe
 2180 1071 10       		.uleb128 0x10
 2181 1072 FC070000 		.4byte	0x7fc
 2182 1076 10       		.uleb128 0x10
 2183 1077 2C000000 		.4byte	0x2c
 2184 107b 10       		.uleb128 0x10
 2185 107c 7E010000 		.4byte	0x17e
 2186 1080 00       		.byte	0
 2187 1081 0B       		.uleb128 0xb
 2188 1082 04       		.byte	0x4
 2189 1083 63100000 		.4byte	0x1063
 2190 1087 14       		.uleb128 0x14
 2191 1088 2C000000 		.4byte	0x2c
 2192 108c A5100000 		.4byte	0x10a5
 2193 1090 10       		.uleb128 0x10
 2194 1091 FE020000 		.4byte	0x2fe
 2195 1095 10       		.uleb128 0x10
 2196 1096 C7070000 		.4byte	0x7c7
 2197 109a 10       		.uleb128 0x10
 2198 109b 2C000000 		.4byte	0x2c
 2199 109f 10       		.uleb128 0x10
 2200 10a0 7E010000 		.4byte	0x17e
 2201 10a4 00       		.byte	0
 2202 10a5 0B       		.uleb128 0xb
 2203 10a6 04       		.byte	0x4
 2204 10a7 87100000 		.4byte	0x1087
 2205 10ab 0A       		.uleb128 0xa
 2206 10ac 08       		.byte	0x8
 2207 10ad 16       		.byte	0x16
 2208 10ae 2E       		.byte	0x2e
 2209 10af CC100000 		.4byte	0x10cc
 2210 10b3 08       		.uleb128 0x8
 2211 10b4 8F0C0000 		.4byte	.LASF203
 2212 10b8 16       		.byte	0x16
 2213 10b9 30       		.byte	0x30
 2214 10ba E9000000 		.4byte	0xe9
 2215 10be 00       		.byte	0
 2216 10bf 09       		.uleb128 0x9
 2217 10c0 64697200 		.ascii	"dir\000"
 2218 10c4 16       		.byte	0x16
 2219 10c5 32       		.byte	0x32
 2220 10c6 E9000000 		.4byte	0xe9
 2221 10ca 04       		.byte	0x4
 2222 10cb 00       		.byte	0
 2223 10cc 03       		.uleb128 0x3
ARM GAS  /tmp/ccSAVTpe.s 			page 40


 2224 10cd 010B0000 		.4byte	.LASF204
 2225 10d1 16       		.byte	0x16
 2226 10d2 33       		.byte	0x33
 2227 10d3 AB100000 		.4byte	0x10ab
 2228 10d7 0A       		.uleb128 0xa
 2229 10d8 28       		.byte	0x28
 2230 10d9 16       		.byte	0x16
 2231 10da 41       		.byte	0x41
 2232 10db 17110000 		.4byte	0x1117
 2233 10df 09       		.uleb128 0x9
 2234 10e0 503000   		.ascii	"P0\000"
 2235 10e3 16       		.byte	0x16
 2236 10e4 43       		.byte	0x43
 2237 10e5 CC100000 		.4byte	0x10cc
 2238 10e9 00       		.byte	0
 2239 10ea 09       		.uleb128 0x9
 2240 10eb 503100   		.ascii	"P1\000"
 2241 10ee 16       		.byte	0x16
 2242 10ef 45       		.byte	0x45
 2243 10f0 CC100000 		.4byte	0x10cc
 2244 10f4 08       		.byte	0x8
 2245 10f5 09       		.uleb128 0x9
 2246 10f6 503200   		.ascii	"P2\000"
 2247 10f9 16       		.byte	0x16
 2248 10fa 47       		.byte	0x47
 2249 10fb CC100000 		.4byte	0x10cc
 2250 10ff 10       		.byte	0x10
 2251 1100 09       		.uleb128 0x9
 2252 1101 503300   		.ascii	"P3\000"
 2253 1104 16       		.byte	0x16
 2254 1105 49       		.byte	0x49
 2255 1106 CC100000 		.4byte	0x10cc
 2256 110a 18       		.byte	0x18
 2257 110b 09       		.uleb128 0x9
 2258 110c 503400   		.ascii	"P4\000"
 2259 110f 16       		.byte	0x16
 2260 1110 4B       		.byte	0x4b
 2261 1111 CC100000 		.4byte	0x10cc
 2262 1115 20       		.byte	0x20
 2263 1116 00       		.byte	0
 2264 1117 03       		.uleb128 0x3
 2265 1118 2A0B0000 		.4byte	.LASF205
 2266 111c 16       		.byte	0x16
 2267 111d 4C       		.byte	0x4c
 2268 111e D7100000 		.4byte	0x10d7
 2269 1122 06       		.uleb128 0x6
 2270 1123 17110000 		.4byte	0x1117
 2271 1127 03       		.uleb128 0x3
 2272 1128 68040000 		.4byte	.LASF206
 2273 112c 16       		.byte	0x16
 2274 112d 5C       		.byte	0x5c
 2275 112e E9000000 		.4byte	0xe9
 2276 1132 03       		.uleb128 0x3
 2277 1133 58010000 		.4byte	.LASF207
 2278 1137 16       		.byte	0x16
 2279 1138 61       		.byte	0x61
 2280 1139 E9000000 		.4byte	0xe9
ARM GAS  /tmp/ccSAVTpe.s 			page 41


 2281 113d 03       		.uleb128 0x3
 2282 113e 59020000 		.4byte	.LASF208
 2283 1142 16       		.byte	0x16
 2284 1143 66       		.byte	0x66
 2285 1144 48110000 		.4byte	0x1148
 2286 1148 0B       		.uleb128 0xb
 2287 1149 04       		.byte	0x4
 2288 114a 330B0000 		.4byte	0xb33
 2289 114e 17       		.uleb128 0x17
 2290 114f AB020000 		.4byte	.LASF209
 2291 1153 16       		.byte	0x16
 2292 1154 3301     		.2byte	0x133
 2293 1156 22110000 		.4byte	0x1122
 2294 115a 0A       		.uleb128 0xa
 2295 115b 0C       		.byte	0xc
 2296 115c 17       		.byte	0x17
 2297 115d 7E       		.byte	0x7e
 2298 115e 87110000 		.4byte	0x1187
 2299 1162 08       		.uleb128 0x8
 2300 1163 EB020000 		.4byte	.LASF210
 2301 1167 17       		.byte	0x17
 2302 1168 82       		.byte	0x82
 2303 1169 3D110000 		.4byte	0x113d
 2304 116d 00       		.byte	0
 2305 116e 08       		.uleb128 0x8
 2306 116f E5060000 		.4byte	.LASF211
 2307 1173 17       		.byte	0x17
 2308 1174 88       		.byte	0x88
 2309 1175 27110000 		.4byte	0x1127
 2310 1179 04       		.byte	0x4
 2311 117a 08       		.uleb128 0x8
 2312 117b BF080000 		.4byte	.LASF212
 2313 117f 17       		.byte	0x17
 2314 1180 8C       		.byte	0x8c
 2315 1181 09010000 		.4byte	0x109
 2316 1185 08       		.byte	0x8
 2317 1186 00       		.byte	0
 2318 1187 03       		.uleb128 0x3
 2319 1188 A4040000 		.4byte	.LASF213
 2320 118c 17       		.byte	0x17
 2321 118d 8D       		.byte	0x8d
 2322 118e 5A110000 		.4byte	0x115a
 2323 1192 20       		.uleb128 0x20
 2324 1193 01       		.byte	0x1
 2325 1194 5E000000 		.4byte	0x5e
 2326 1198 18       		.byte	0x18
 2327 1199 4E       		.byte	0x4e
 2328 119a C3110000 		.4byte	0x11c3
 2329 119e 21       		.uleb128 0x21
 2330 119f F90B0000 		.4byte	.LASF214
 2331 11a3 00       		.byte	0
 2332 11a4 21       		.uleb128 0x21
 2333 11a5 720A0000 		.4byte	.LASF215
 2334 11a9 01       		.byte	0x1
 2335 11aa 21       		.uleb128 0x21
 2336 11ab 80030000 		.4byte	.LASF216
 2337 11af 02       		.byte	0x2
ARM GAS  /tmp/ccSAVTpe.s 			page 42


 2338 11b0 21       		.uleb128 0x21
 2339 11b1 4C090000 		.4byte	.LASF217
 2340 11b5 03       		.byte	0x3
 2341 11b6 21       		.uleb128 0x21
 2342 11b7 F3050000 		.4byte	.LASF218
 2343 11bb 04       		.byte	0x4
 2344 11bc 21       		.uleb128 0x21
 2345 11bd E8030000 		.4byte	.LASF219
 2346 11c1 05       		.byte	0x5
 2347 11c2 00       		.byte	0
 2348 11c3 03       		.uleb128 0x3
 2349 11c4 7C000000 		.4byte	.LASF220
 2350 11c8 18       		.byte	0x18
 2351 11c9 55       		.byte	0x55
 2352 11ca 92110000 		.4byte	0x1192
 2353 11ce 03       		.uleb128 0x3
 2354 11cf 9A030000 		.4byte	.LASF221
 2355 11d3 19       		.byte	0x19
 2356 11d4 A7       		.byte	0xa7
 2357 11d5 E9000000 		.4byte	0xe9
 2358 11d9 03       		.uleb128 0x3
 2359 11da A5070000 		.4byte	.LASF222
 2360 11de 19       		.byte	0x19
 2361 11df AC       		.byte	0xac
 2362 11e0 C9000000 		.4byte	0xc9
 2363 11e4 20       		.uleb128 0x20
 2364 11e5 01       		.byte	0x1
 2365 11e6 5E000000 		.4byte	0x5e
 2366 11ea 19       		.byte	0x19
 2367 11eb B3       		.byte	0xb3
 2368 11ec F7110000 		.4byte	0x11f7
 2369 11f0 21       		.uleb128 0x21
 2370 11f1 00060000 		.4byte	.LASF223
 2371 11f5 01       		.byte	0x1
 2372 11f6 00       		.byte	0
 2373 11f7 03       		.uleb128 0x3
 2374 11f8 63030000 		.4byte	.LASF224
 2375 11fc 19       		.byte	0x19
 2376 11fd B5       		.byte	0xb5
 2377 11fe E4110000 		.4byte	0x11e4
 2378 1202 03       		.uleb128 0x3
 2379 1203 190A0000 		.4byte	.LASF225
 2380 1207 19       		.byte	0x19
 2381 1208 BA       		.byte	0xba
 2382 1209 0D120000 		.4byte	0x120d
 2383 120d 0D       		.uleb128 0xd
 2384 120e 190A0000 		.4byte	.LASF225
 2385 1212 34       		.byte	0x34
 2386 1213 19       		.byte	0x19
 2387 1214 0101     		.2byte	0x101
 2388 1216 9D120000 		.4byte	0x129d
 2389 121a 1A       		.uleb128 0x1a
 2390 121b F5000000 		.4byte	.LASF226
 2391 121f 19       		.byte	0x19
 2392 1220 0501     		.2byte	0x105
 2393 1222 C3110000 		.4byte	0x11c3
 2394 1226 00       		.byte	0
ARM GAS  /tmp/ccSAVTpe.s 			page 43


 2395 1227 1A       		.uleb128 0x1a
 2396 1228 EE000000 		.4byte	.LASF227
 2397 122c 19       		.byte	0x19
 2398 122d 0901     		.2byte	0x109
 2399 122f 76130000 		.4byte	0x1376
 2400 1233 04       		.byte	0x4
 2401 1234 1A       		.uleb128 0x1a
 2402 1235 7F040000 		.4byte	.LASF228
 2403 1239 19       		.byte	0x19
 2404 123a 0D01     		.2byte	0x10d
 2405 123c C9120000 		.4byte	0x12c9
 2406 1240 08       		.byte	0x8
 2407 1241 1A       		.uleb128 0x1a
 2408 1242 DF060000 		.4byte	.LASF229
 2409 1246 19       		.byte	0x19
 2410 1247 1101     		.2byte	0x111
 2411 1249 2C000000 		.4byte	0x2c
 2412 124d 0C       		.byte	0xc
 2413 124e 1A       		.uleb128 0x1a
 2414 124f A20A0000 		.4byte	.LASF230
 2415 1253 19       		.byte	0x19
 2416 1254 1501     		.2byte	0x115
 2417 1256 7C130000 		.4byte	0x137c
 2418 125a 10       		.byte	0x10
 2419 125b 1A       		.uleb128 0x1a
 2420 125c AF0A0000 		.4byte	.LASF231
 2421 1260 19       		.byte	0x19
 2422 1261 1A01     		.2byte	0x11a
 2423 1263 C2020000 		.4byte	0x2c2
 2424 1267 14       		.byte	0x14
 2425 1268 1A       		.uleb128 0x1a
 2426 1269 EA060000 		.4byte	.LASF232
 2427 126d 19       		.byte	0x19
 2428 126e 2101     		.2byte	0x121
 2429 1270 42050000 		.4byte	0x542
 2430 1274 18       		.byte	0x18
 2431 1275 0E       		.uleb128 0xe
 2432 1276 61646300 		.ascii	"adc\000"
 2433 127a 19       		.byte	0x19
 2434 127b 2D01     		.2byte	0x12d
 2435 127d 82130000 		.4byte	0x1382
 2436 1281 28       		.byte	0x28
 2437 1282 1A       		.uleb128 0x1a
 2438 1283 61010000 		.4byte	.LASF233
 2439 1287 19       		.byte	0x19
 2440 1288 3101     		.2byte	0x131
 2441 128a E9000000 		.4byte	0xe9
 2442 128e 2C       		.byte	0x2c
 2443 128f 0E       		.uleb128 0xe
 2444 1290 6E756D00 		.ascii	"num\000"
 2445 1294 19       		.byte	0x19
 2446 1295 3501     		.2byte	0x135
 2447 1297 E9000000 		.4byte	0xe9
 2448 129b 30       		.byte	0x30
 2449 129c 00       		.byte	0
 2450 129d 03       		.uleb128 0x3
 2451 129e 4C000000 		.4byte	.LASF234
ARM GAS  /tmp/ccSAVTpe.s 			page 44


 2452 12a2 19       		.byte	0x19
 2453 12a3 C4       		.byte	0xc4
 2454 12a4 A8120000 		.4byte	0x12a8
 2455 12a8 0B       		.uleb128 0xb
 2456 12a9 04       		.byte	0x4
 2457 12aa AE120000 		.4byte	0x12ae
 2458 12ae 0F       		.uleb128 0xf
 2459 12af C3120000 		.4byte	0x12c3
 2460 12b3 10       		.uleb128 0x10
 2461 12b4 C3120000 		.4byte	0x12c3
 2462 12b8 10       		.uleb128 0x10
 2463 12b9 C9120000 		.4byte	0x12c9
 2464 12bd 10       		.uleb128 0x10
 2465 12be 2C000000 		.4byte	0x2c
 2466 12c2 00       		.byte	0
 2467 12c3 0B       		.uleb128 0xb
 2468 12c4 04       		.byte	0x4
 2469 12c5 02120000 		.4byte	0x1202
 2470 12c9 0B       		.uleb128 0xb
 2471 12ca 04       		.byte	0x4
 2472 12cb CE110000 		.4byte	0x11ce
 2473 12cf 03       		.uleb128 0x3
 2474 12d0 CC060000 		.4byte	.LASF235
 2475 12d4 19       		.byte	0x19
 2476 12d5 CD       		.byte	0xcd
 2477 12d6 DA120000 		.4byte	0x12da
 2478 12da 0B       		.uleb128 0xb
 2479 12db 04       		.byte	0x4
 2480 12dc E0120000 		.4byte	0x12e0
 2481 12e0 0F       		.uleb128 0xf
 2482 12e1 F0120000 		.4byte	0x12f0
 2483 12e5 10       		.uleb128 0x10
 2484 12e6 C3120000 		.4byte	0x12c3
 2485 12ea 10       		.uleb128 0x10
 2486 12eb F7110000 		.4byte	0x11f7
 2487 12ef 00       		.byte	0
 2488 12f0 0A       		.uleb128 0xa
 2489 12f1 14       		.byte	0x14
 2490 12f2 19       		.byte	0x19
 2491 12f3 D7       		.byte	0xd7
 2492 12f4 41130000 		.4byte	0x1341
 2493 12f8 08       		.uleb128 0x8
 2494 12f9 33040000 		.4byte	.LASF236
 2495 12fd 19       		.byte	0x19
 2496 12fe DB       		.byte	0xdb
 2497 12ff 14010000 		.4byte	0x114
 2498 1303 00       		.byte	0
 2499 1304 08       		.uleb128 0x8
 2500 1305 80050000 		.4byte	.LASF237
 2501 1309 19       		.byte	0x19
 2502 130a DF       		.byte	0xdf
 2503 130b D9110000 		.4byte	0x11d9
 2504 130f 02       		.byte	0x2
 2505 1310 08       		.uleb128 0x8
 2506 1311 8F010000 		.4byte	.LASF238
 2507 1315 19       		.byte	0x19
 2508 1316 E3       		.byte	0xe3
ARM GAS  /tmp/ccSAVTpe.s 			page 45


 2509 1317 9D120000 		.4byte	0x129d
 2510 131b 04       		.byte	0x4
 2511 131c 08       		.uleb128 0x8
 2512 131d 3C010000 		.4byte	.LASF239
 2513 1321 19       		.byte	0x19
 2514 1322 E7       		.byte	0xe7
 2515 1323 CF120000 		.4byte	0x12cf
 2516 1327 08       		.byte	0x8
 2517 1328 09       		.uleb128 0x9
 2518 1329 63723000 		.ascii	"cr0\000"
 2519 132d 19       		.byte	0x19
 2520 132e ED       		.byte	0xed
 2521 132f E9000000 		.4byte	0xe9
 2522 1333 0C       		.byte	0xc
 2523 1334 08       		.uleb128 0x8
 2524 1335 D2080000 		.4byte	.LASF240
 2525 1339 19       		.byte	0x19
 2526 133a F3       		.byte	0xf3
 2527 133b E9000000 		.4byte	0xe9
 2528 133f 10       		.byte	0x10
 2529 1340 00       		.byte	0
 2530 1341 03       		.uleb128 0x3
 2531 1342 E0050000 		.4byte	.LASF241
 2532 1346 19       		.byte	0x19
 2533 1347 F4       		.byte	0xf4
 2534 1348 F0120000 		.4byte	0x12f0
 2535 134c 06       		.uleb128 0x6
 2536 134d 41130000 		.4byte	0x1341
 2537 1351 0A       		.uleb128 0xa
 2538 1352 04       		.byte	0x4
 2539 1353 19       		.byte	0x19
 2540 1354 FA       		.byte	0xfa
 2541 1355 66130000 		.4byte	0x1366
 2542 1359 08       		.uleb128 0x8
 2543 135a 6C0A0000 		.4byte	.LASF242
 2544 135e 19       		.byte	0x19
 2545 135f FB       		.byte	0xfb
 2546 1360 E9000000 		.4byte	0xe9
 2547 1364 00       		.byte	0
 2548 1365 00       		.byte	0
 2549 1366 03       		.uleb128 0x3
 2550 1367 BB0C0000 		.4byte	.LASF243
 2551 136b 19       		.byte	0x19
 2552 136c FC       		.byte	0xfc
 2553 136d 51130000 		.4byte	0x1351
 2554 1371 06       		.uleb128 0x6
 2555 1372 66130000 		.4byte	0x1366
 2556 1376 0B       		.uleb128 0xb
 2557 1377 04       		.byte	0x4
 2558 1378 71130000 		.4byte	0x1371
 2559 137c 0B       		.uleb128 0xb
 2560 137d 04       		.byte	0x4
 2561 137e 4C130000 		.4byte	0x134c
 2562 1382 0B       		.uleb128 0xb
 2563 1383 04       		.byte	0x4
 2564 1384 5D0E0000 		.4byte	0xe5d
 2565 1388 17       		.uleb128 0x17
ARM GAS  /tmp/ccSAVTpe.s 			page 46


 2566 1389 B9080000 		.4byte	.LASF244
 2567 138d 19       		.byte	0x19
 2568 138e 4801     		.2byte	0x148
 2569 1390 02120000 		.4byte	0x1202
 2570 1394 20       		.uleb128 0x20
 2571 1395 01       		.byte	0x1
 2572 1396 5E000000 		.4byte	0x5e
 2573 139a 1A       		.byte	0x1a
 2574 139b 67       		.byte	0x67
 2575 139c BF130000 		.4byte	0x13bf
 2576 13a0 21       		.uleb128 0x21
 2577 13a1 07070000 		.4byte	.LASF245
 2578 13a5 00       		.byte	0
 2579 13a6 21       		.uleb128 0x21
 2580 13a7 770C0000 		.4byte	.LASF246
 2581 13ab 01       		.byte	0x1
 2582 13ac 21       		.uleb128 0x21
 2583 13ad 7D060000 		.4byte	.LASF247
 2584 13b1 02       		.byte	0x2
 2585 13b2 21       		.uleb128 0x21
 2586 13b3 75040000 		.4byte	.LASF248
 2587 13b7 03       		.byte	0x3
 2588 13b8 21       		.uleb128 0x21
 2589 13b9 4E010000 		.4byte	.LASF249
 2590 13bd 04       		.byte	0x4
 2591 13be 00       		.byte	0
 2592 13bf 03       		.uleb128 0x3
 2593 13c0 D1040000 		.4byte	.LASF250
 2594 13c4 1A       		.byte	0x1a
 2595 13c5 6D       		.byte	0x6d
 2596 13c6 94130000 		.4byte	0x1394
 2597 13ca 19       		.uleb128 0x19
 2598 13cb 08       		.byte	0x8
 2599 13cc 1B       		.byte	0x1b
 2600 13cd 0802     		.2byte	0x208
 2601 13cf EE130000 		.4byte	0x13ee
 2602 13d3 0E       		.uleb128 0xe
 2603 13d4 6D6F6400 		.ascii	"mod\000"
 2604 13d8 1B       		.byte	0x1b
 2605 13d9 0E02     		.2byte	0x20e
 2606 13db E9000000 		.4byte	0xe9
 2607 13df 00       		.byte	0
 2608 13e0 0E       		.uleb128 0xe
 2609 13e1 62747200 		.ascii	"btr\000"
 2610 13e5 1B       		.byte	0x1b
 2611 13e6 1402     		.2byte	0x214
 2612 13e8 E9000000 		.4byte	0xe9
 2613 13ec 04       		.byte	0x4
 2614 13ed 00       		.byte	0
 2615 13ee 1C       		.uleb128 0x1c
 2616 13ef 16010000 		.4byte	.LASF251
 2617 13f3 1B       		.byte	0x1b
 2618 13f4 1502     		.2byte	0x215
 2619 13f6 CA130000 		.4byte	0x13ca
 2620 13fa 06       		.uleb128 0x6
 2621 13fb EE130000 		.4byte	0x13ee
 2622 13ff 19       		.uleb128 0x19
ARM GAS  /tmp/ccSAVTpe.s 			page 47


 2623 1400 38       		.byte	0x38
 2624 1401 1B       		.byte	0x1b
 2625 1402 1A02     		.2byte	0x21a
 2626 1404 8B140000 		.4byte	0x148b
 2627 1408 1A       		.uleb128 0x1a
 2628 1409 F5000000 		.4byte	.LASF226
 2629 140d 1B       		.byte	0x1b
 2630 140e 1E02     		.2byte	0x21e
 2631 1410 BF130000 		.4byte	0x13bf
 2632 1414 00       		.byte	0
 2633 1415 1A       		.uleb128 0x1a
 2634 1416 EE000000 		.4byte	.LASF227
 2635 141a 1B       		.byte	0x1b
 2636 141b 2202     		.2byte	0x222
 2637 141d 8B140000 		.4byte	0x148b
 2638 1421 04       		.byte	0x4
 2639 1422 1A       		.uleb128 0x1a
 2640 1423 FB000000 		.4byte	.LASF252
 2641 1427 1B       		.byte	0x1b
 2642 1428 2602     		.2byte	0x226
 2643 142a 00050000 		.4byte	0x500
 2644 142e 08       		.byte	0x8
 2645 142f 1A       		.uleb128 0x1a
 2646 1430 CB040000 		.4byte	.LASF253
 2647 1434 1B       		.byte	0x1b
 2648 1435 2A02     		.2byte	0x22a
 2649 1437 00050000 		.4byte	0x500
 2650 143b 14       		.byte	0x14
 2651 143c 1A       		.uleb128 0x1a
 2652 143d 0D030000 		.4byte	.LASF254
 2653 1441 1B       		.byte	0x1b
 2654 1442 3702     		.2byte	0x237
 2655 1444 B4050000 		.4byte	0x5b4
 2656 1448 20       		.byte	0x20
 2657 1449 1A       		.uleb128 0x1a
 2658 144a 940A0000 		.4byte	.LASF255
 2659 144e 1B       		.byte	0x1b
 2660 144f 3E02     		.2byte	0x23e
 2661 1451 B4050000 		.4byte	0x5b4
 2662 1455 24       		.byte	0x24
 2663 1456 1A       		.uleb128 0x1a
 2664 1457 D8080000 		.4byte	.LASF256
 2665 145b 1B       		.byte	0x1b
 2666 145c 4402     		.2byte	0x244
 2667 145e B4050000 		.4byte	0x5b4
 2668 1462 28       		.byte	0x28
 2669 1463 1A       		.uleb128 0x1a
 2670 1464 9B000000 		.4byte	.LASF257
 2671 1468 1B       		.byte	0x1b
 2672 1469 4902     		.2byte	0x249
 2673 146b B4050000 		.4byte	0x5b4
 2674 146f 2C       		.byte	0x2c
 2675 1470 1A       		.uleb128 0x1a
 2676 1471 C8000000 		.4byte	.LASF258
 2677 1475 1B       		.byte	0x1b
 2678 1476 4D02     		.2byte	0x24d
 2679 1478 B4050000 		.4byte	0x5b4
ARM GAS  /tmp/ccSAVTpe.s 			page 48


 2680 147c 30       		.byte	0x30
 2681 147d 0E       		.uleb128 0xe
 2682 147e 63616E00 		.ascii	"can\000"
 2683 1482 1B       		.byte	0x1b
 2684 1483 5302     		.2byte	0x253
 2685 1485 91140000 		.4byte	0x1491
 2686 1489 34       		.byte	0x34
 2687 148a 00       		.byte	0
 2688 148b 0B       		.uleb128 0xb
 2689 148c 04       		.byte	0x4
 2690 148d FA130000 		.4byte	0x13fa
 2691 1491 0B       		.uleb128 0xb
 2692 1492 04       		.byte	0x4
 2693 1493 AA0F0000 		.4byte	0xfaa
 2694 1497 1C       		.uleb128 0x1c
 2695 1498 C0010000 		.4byte	.LASF259
 2696 149c 1B       		.byte	0x1b
 2697 149d 5402     		.2byte	0x254
 2698 149f FF130000 		.4byte	0x13ff
 2699 14a3 17       		.uleb128 0x17
 2700 14a4 410A0000 		.4byte	.LASF260
 2701 14a8 1B       		.byte	0x1b
 2702 14a9 5F02     		.2byte	0x25f
 2703 14ab 97140000 		.4byte	0x1497
 2704 14af 20       		.uleb128 0x20
 2705 14b0 01       		.byte	0x1
 2706 14b1 5E000000 		.4byte	0x5e
 2707 14b5 1C       		.byte	0x1c
 2708 14b6 35       		.byte	0x35
 2709 14b7 DA140000 		.4byte	0x14da
 2710 14bb 21       		.uleb128 0x21
 2711 14bc B7030000 		.4byte	.LASF261
 2712 14c0 00       		.byte	0
 2713 14c1 21       		.uleb128 0x21
 2714 14c2 DD0B0000 		.4byte	.LASF262
 2715 14c6 01       		.byte	0x1
 2716 14c7 21       		.uleb128 0x21
 2717 14c8 EF090000 		.4byte	.LASF263
 2718 14cc 02       		.byte	0x2
 2719 14cd 21       		.uleb128 0x21
 2720 14ce F9090000 		.4byte	.LASF264
 2721 14d2 03       		.byte	0x3
 2722 14d3 21       		.uleb128 0x21
 2723 14d4 1C070000 		.4byte	.LASF265
 2724 14d8 04       		.byte	0x4
 2725 14d9 00       		.byte	0
 2726 14da 03       		.uleb128 0x3
 2727 14db E3000000 		.4byte	.LASF266
 2728 14df 1C       		.byte	0x1c
 2729 14e0 3B       		.byte	0x3b
 2730 14e1 AF140000 		.4byte	0x14af
 2731 14e5 03       		.uleb128 0x3
 2732 14e6 9D060000 		.4byte	.LASF267
 2733 14ea 1C       		.byte	0x1c
 2734 14eb 40       		.byte	0x40
 2735 14ec F0140000 		.4byte	0x14f0
 2736 14f0 07       		.uleb128 0x7
ARM GAS  /tmp/ccSAVTpe.s 			page 49


 2737 14f1 9D060000 		.4byte	.LASF267
 2738 14f5 10       		.byte	0x10
 2739 14f6 1D       		.byte	0x1d
 2740 14f7 93       		.byte	0x93
 2741 14f8 2D150000 		.4byte	0x152d
 2742 14fc 08       		.uleb128 0x8
 2743 14fd F5000000 		.4byte	.LASF226
 2744 1501 1D       		.byte	0x1d
 2745 1502 97       		.byte	0x97
 2746 1503 DA140000 		.4byte	0x14da
 2747 1507 00       		.byte	0
 2748 1508 08       		.uleb128 0x8
 2749 1509 EE000000 		.4byte	.LASF227
 2750 150d 1D       		.byte	0x1d
 2751 150e 9B       		.byte	0x9b
 2752 150f 8B150000 		.4byte	0x158b
 2753 1513 04       		.byte	0x4
 2754 1514 08       		.uleb128 0x8
 2755 1515 C6060000 		.4byte	.LASF268
 2756 1519 1D       		.byte	0x1d
 2757 151a A0       		.byte	0xa0
 2758 151b E9000000 		.4byte	0xe9
 2759 151f 08       		.byte	0x8
 2760 1520 09       		.uleb128 0x9
 2761 1521 746D7200 		.ascii	"tmr\000"
 2762 1525 1D       		.byte	0x1d
 2763 1526 A4       		.byte	0xa4
 2764 1527 91150000 		.4byte	0x1591
 2765 152b 0C       		.byte	0xc
 2766 152c 00       		.byte	0
 2767 152d 03       		.uleb128 0x3
 2768 152e 9B0C0000 		.4byte	.LASF269
 2769 1532 1C       		.byte	0x1c
 2770 1533 47       		.byte	0x47
 2771 1534 38150000 		.4byte	0x1538
 2772 1538 0B       		.uleb128 0xb
 2773 1539 04       		.byte	0x4
 2774 153a 3E150000 		.4byte	0x153e
 2775 153e 0F       		.uleb128 0xf
 2776 153f 49150000 		.4byte	0x1549
 2777 1543 10       		.uleb128 0x10
 2778 1544 49150000 		.4byte	0x1549
 2779 1548 00       		.byte	0
 2780 1549 0B       		.uleb128 0xb
 2781 154a 04       		.byte	0x4
 2782 154b E5140000 		.4byte	0x14e5
 2783 154f 03       		.uleb128 0x3
 2784 1550 65050000 		.4byte	.LASF270
 2785 1554 1D       		.byte	0x1d
 2786 1555 76       		.byte	0x76
 2787 1556 E9000000 		.4byte	0xe9
 2788 155a 0A       		.uleb128 0xa
 2789 155b 08       		.byte	0x8
 2790 155c 1D       		.byte	0x1d
 2791 155d 81       		.byte	0x81
 2792 155e 7B150000 		.4byte	0x157b
 2793 1562 08       		.uleb128 0x8
ARM GAS  /tmp/ccSAVTpe.s 			page 50


 2794 1563 FD060000 		.4byte	.LASF271
 2795 1567 1D       		.byte	0x1d
 2796 1568 87       		.byte	0x87
 2797 1569 4F150000 		.4byte	0x154f
 2798 156d 00       		.byte	0
 2799 156e 08       		.uleb128 0x8
 2800 156f 45010000 		.4byte	.LASF272
 2801 1573 1D       		.byte	0x1d
 2802 1574 8C       		.byte	0x8c
 2803 1575 2D150000 		.4byte	0x152d
 2804 1579 04       		.byte	0x4
 2805 157a 00       		.byte	0
 2806 157b 03       		.uleb128 0x3
 2807 157c D4020000 		.4byte	.LASF273
 2808 1580 1D       		.byte	0x1d
 2809 1581 8E       		.byte	0x8e
 2810 1582 5A150000 		.4byte	0x155a
 2811 1586 06       		.uleb128 0x6
 2812 1587 7B150000 		.4byte	0x157b
 2813 158b 0B       		.uleb128 0xb
 2814 158c 04       		.byte	0x4
 2815 158d 86150000 		.4byte	0x1586
 2816 1591 0B       		.uleb128 0xb
 2817 1592 04       		.byte	0x4
 2818 1593 220C0000 		.4byte	0xc22
 2819 1597 11       		.uleb128 0x11
 2820 1598 41020000 		.4byte	.LASF274
 2821 159c 1D       		.byte	0x1d
 2822 159d B0       		.byte	0xb0
 2823 159e E5140000 		.4byte	0x14e5
 2824 15a2 11       		.uleb128 0x11
 2825 15a3 47020000 		.4byte	.LASF275
 2826 15a7 1D       		.byte	0x1d
 2827 15a8 B4       		.byte	0xb4
 2828 15a9 E5140000 		.4byte	0x14e5
 2829 15ad 11       		.uleb128 0x11
 2830 15ae 4D020000 		.4byte	.LASF276
 2831 15b2 1D       		.byte	0x1d
 2832 15b3 B8       		.byte	0xb8
 2833 15b4 E5140000 		.4byte	0x14e5
 2834 15b8 11       		.uleb128 0x11
 2835 15b9 53020000 		.4byte	.LASF277
 2836 15bd 1D       		.byte	0x1d
 2837 15be BC       		.byte	0xbc
 2838 15bf E5140000 		.4byte	0x14e5
 2839 15c3 20       		.uleb128 0x20
 2840 15c4 01       		.byte	0x1
 2841 15c5 5E000000 		.4byte	0x5e
 2842 15c9 1E       		.byte	0x1e
 2843 15ca 5D       		.byte	0x5d
 2844 15cb E2150000 		.4byte	0x15e2
 2845 15cf 21       		.uleb128 0x21
 2846 15d0 76030000 		.4byte	.LASF278
 2847 15d4 00       		.byte	0
 2848 15d5 21       		.uleb128 0x21
 2849 15d6 490C0000 		.4byte	.LASF279
 2850 15da 01       		.byte	0x1
ARM GAS  /tmp/ccSAVTpe.s 			page 51


 2851 15db 21       		.uleb128 0x21
 2852 15dc 8B0A0000 		.4byte	.LASF280
 2853 15e0 02       		.byte	0x2
 2854 15e1 00       		.byte	0
 2855 15e2 03       		.uleb128 0x3
 2856 15e3 45070000 		.4byte	.LASF281
 2857 15e7 1E       		.byte	0x1e
 2858 15e8 61       		.byte	0x61
 2859 15e9 C3150000 		.4byte	0x15c3
 2860 15ed 03       		.uleb128 0x3
 2861 15ee 470A0000 		.4byte	.LASF282
 2862 15f2 1E       		.byte	0x1e
 2863 15f3 66       		.byte	0x66
 2864 15f4 F8150000 		.4byte	0x15f8
 2865 15f8 07       		.uleb128 0x7
 2866 15f9 470A0000 		.4byte	.LASF282
 2867 15fd 78       		.byte	0x78
 2868 15fe 1E       		.byte	0x1e
 2869 15ff 80       		.byte	0x80
 2870 1600 63160000 		.4byte	0x1663
 2871 1604 09       		.uleb128 0x9
 2872 1605 766D7400 		.ascii	"vmt\000"
 2873 1609 1E       		.byte	0x1e
 2874 160a 82       		.byte	0x82
 2875 160b EB160000 		.4byte	0x16eb
 2876 160f 00       		.byte	0
 2877 1610 08       		.uleb128 0x8
 2878 1611 32070000 		.4byte	.LASF283
 2879 1615 1E       		.byte	0x1e
 2880 1616 83       		.byte	0x83
 2881 1617 B4050000 		.4byte	0x5b4
 2882 161b 04       		.byte	0x4
 2883 161c 08       		.uleb128 0x8
 2884 161d F5000000 		.4byte	.LASF226
 2885 1621 1E       		.byte	0x1e
 2886 1622 83       		.byte	0x83
 2887 1623 E2150000 		.4byte	0x15e2
 2888 1627 08       		.byte	0x8
 2889 1628 08       		.uleb128 0x8
 2890 1629 E80A0000 		.4byte	.LASF284
 2891 162d 1E       		.byte	0x1e
 2892 162e 83       		.byte	0x83
 2893 162f CD070000 		.4byte	0x7cd
 2894 1633 0C       		.byte	0xc
 2895 1634 08       		.uleb128 0x8
 2896 1635 77020000 		.4byte	.LASF285
 2897 1639 1E       		.byte	0x1e
 2898 163a 83       		.byte	0x83
 2899 163b D8070000 		.4byte	0x7d8
 2900 163f 30       		.byte	0x30
 2901 1640 09       		.uleb128 0x9
 2902 1641 696200   		.ascii	"ib\000"
 2903 1644 1E       		.byte	0x1e
 2904 1645 83       		.byte	0x83
 2905 1646 F1160000 		.4byte	0x16f1
 2906 164a 54       		.byte	0x54
 2907 164b 09       		.uleb128 0x9
ARM GAS  /tmp/ccSAVTpe.s 			page 52


 2908 164c 6F6200   		.ascii	"ob\000"
 2909 164f 1E       		.byte	0x1e
 2910 1650 83       		.byte	0x83
 2911 1651 F1160000 		.4byte	0x16f1
 2912 1655 64       		.byte	0x64
 2913 1656 08       		.uleb128 0x8
 2914 1657 E30A0000 		.4byte	.LASF286
 2915 165b 1E       		.byte	0x1e
 2916 165c 83       		.byte	0x83
 2917 165d 01170000 		.4byte	0x1701
 2918 1661 74       		.byte	0x74
 2919 1662 00       		.byte	0
 2920 1663 22       		.uleb128 0x22
 2921 1664 53443100 		.ascii	"SD1\000"
 2922 1668 1F       		.byte	0x1f
 2923 1669 EF       		.byte	0xef
 2924 166a ED150000 		.4byte	0x15ed
 2925 166e 22       		.uleb128 0x22
 2926 166f 53443300 		.ascii	"SD3\000"
 2927 1673 1F       		.byte	0x1f
 2928 1674 F7       		.byte	0xf7
 2929 1675 ED150000 		.4byte	0x15ed
 2930 1679 07       		.uleb128 0x7
 2931 167a B3050000 		.4byte	.LASF287
 2932 167e 20       		.byte	0x20
 2933 167f 1E       		.byte	0x1e
 2934 1680 75       		.byte	0x75
 2935 1681 E6160000 		.4byte	0x16e6
 2936 1685 08       		.uleb128 0x8
 2937 1686 C2000000 		.4byte	.LASF288
 2938 168a 1E       		.byte	0x1e
 2939 168b 76       		.byte	0x76
 2940 168c 02080000 		.4byte	0x802
 2941 1690 00       		.byte	0
 2942 1691 08       		.uleb128 0x8
 2943 1692 40070000 		.4byte	.LASF289
 2944 1696 1E       		.byte	0x1e
 2945 1697 76       		.byte	0x76
 2946 1698 21080000 		.4byte	0x821
 2947 169c 04       		.byte	0x4
 2948 169d 09       		.uleb128 0x9
 2949 169e 70757400 		.ascii	"put\000"
 2950 16a2 1E       		.byte	0x1e
 2951 16a3 76       		.byte	0x76
 2952 16a4 3B080000 		.4byte	0x83b
 2953 16a8 08       		.byte	0x8
 2954 16a9 09       		.uleb128 0x9
 2955 16aa 67657400 		.ascii	"get\000"
 2956 16ae 1E       		.byte	0x1e
 2957 16af 76       		.byte	0x76
 2958 16b0 0C060000 		.4byte	0x60c
 2959 16b4 0C       		.byte	0xc
 2960 16b5 08       		.uleb128 0x8
 2961 16b6 11010000 		.4byte	.LASF290
 2962 16ba 1E       		.byte	0x1e
 2963 16bb 76       		.byte	0x76
 2964 16bc 43100000 		.4byte	0x1043
ARM GAS  /tmp/ccSAVTpe.s 			page 53


 2965 16c0 10       		.byte	0x10
 2966 16c1 08       		.uleb128 0x8
 2967 16c2 FF030000 		.4byte	.LASF291
 2968 16c6 1E       		.byte	0x1e
 2969 16c7 76       		.byte	0x76
 2970 16c8 5D100000 		.4byte	0x105d
 2971 16cc 14       		.byte	0x14
 2972 16cd 08       		.uleb128 0x8
 2973 16ce F2020000 		.4byte	.LASF292
 2974 16d2 1E       		.byte	0x1e
 2975 16d3 76       		.byte	0x76
 2976 16d4 81100000 		.4byte	0x1081
 2977 16d8 18       		.byte	0x18
 2978 16d9 08       		.uleb128 0x8
 2979 16da D8010000 		.4byte	.LASF293
 2980 16de 1E       		.byte	0x1e
 2981 16df 76       		.byte	0x76
 2982 16e0 A5100000 		.4byte	0x10a5
 2983 16e4 1C       		.byte	0x1c
 2984 16e5 00       		.byte	0
 2985 16e6 06       		.uleb128 0x6
 2986 16e7 79160000 		.4byte	0x1679
 2987 16eb 0B       		.uleb128 0xb
 2988 16ec 04       		.byte	0x4
 2989 16ed E6160000 		.4byte	0x16e6
 2990 16f1 15       		.uleb128 0x15
 2991 16f2 B4000000 		.4byte	0xb4
 2992 16f6 01170000 		.4byte	0x1701
 2993 16fa 16       		.uleb128 0x16
 2994 16fb A8030000 		.4byte	0x3a8
 2995 16ff 0F       		.byte	0xf
 2996 1700 00       		.byte	0
 2997 1701 0B       		.uleb128 0xb
 2998 1702 04       		.byte	0x4
 2999 1703 3E0D0000 		.4byte	0xd3e
 3000 1707 20       		.uleb128 0x20
 3001 1708 01       		.byte	0x1
 3002 1709 5E000000 		.4byte	0x5e
 3003 170d 20       		.byte	0x20
 3004 170e 4E       		.byte	0x4e
 3005 170f 32170000 		.4byte	0x1732
 3006 1713 21       		.uleb128 0x21
 3007 1714 13020000 		.4byte	.LASF294
 3008 1718 00       		.byte	0
 3009 1719 21       		.uleb128 0x21
 3010 171a 01020000 		.4byte	.LASF295
 3011 171e 01       		.byte	0x1
 3012 171f 21       		.uleb128 0x21
 3013 1720 65060000 		.4byte	.LASF296
 3014 1724 02       		.byte	0x2
 3015 1725 21       		.uleb128 0x21
 3016 1726 76070000 		.4byte	.LASF297
 3017 172a 03       		.byte	0x3
 3018 172b 21       		.uleb128 0x21
 3019 172c B80B0000 		.4byte	.LASF298
 3020 1730 04       		.byte	0x4
 3021 1731 00       		.byte	0
ARM GAS  /tmp/ccSAVTpe.s 			page 54


 3022 1732 03       		.uleb128 0x3
 3023 1733 0E0C0000 		.4byte	.LASF299
 3024 1737 20       		.byte	0x20
 3025 1738 54       		.byte	0x54
 3026 1739 07170000 		.4byte	0x1707
 3027 173d 03       		.uleb128 0x3
 3028 173e 3C030000 		.4byte	.LASF300
 3029 1742 21       		.byte	0x21
 3030 1743 D0       		.byte	0xd0
 3031 1744 48170000 		.4byte	0x1748
 3032 1748 07       		.uleb128 0x7
 3033 1749 3C030000 		.4byte	.LASF300
 3034 174d 30       		.byte	0x30
 3035 174e 21       		.byte	0x21
 3036 174f F8       		.byte	0xf8
 3037 1750 C9170000 		.4byte	0x17c9
 3038 1754 08       		.uleb128 0x8
 3039 1755 F5000000 		.4byte	.LASF226
 3040 1759 21       		.byte	0x21
 3041 175a FC       		.byte	0xfc
 3042 175b 32170000 		.4byte	0x1732
 3043 175f 00       		.byte	0
 3044 1760 1A       		.uleb128 0x1a
 3045 1761 EE000000 		.4byte	.LASF227
 3046 1765 21       		.byte	0x21
 3047 1766 0001     		.2byte	0x100
 3048 1768 40180000 		.4byte	0x1840
 3049 176c 04       		.byte	0x4
 3050 176d 1A       		.uleb128 0x1a
 3051 176e AF0A0000 		.4byte	.LASF231
 3052 1772 21       		.byte	0x21
 3053 1773 0501     		.2byte	0x105
 3054 1775 C2020000 		.4byte	0x2c2
 3055 1779 08       		.byte	0x8
 3056 177a 1A       		.uleb128 0x1a
 3057 177b EA060000 		.4byte	.LASF232
 3058 177f 21       		.byte	0x21
 3059 1780 0C01     		.2byte	0x10c
 3060 1782 42050000 		.4byte	0x542
 3061 1786 0C       		.byte	0xc
 3062 1787 0E       		.uleb128 0xe
 3063 1788 73737000 		.ascii	"ssp\000"
 3064 178c 21       		.byte	0x21
 3065 178d 1801     		.2byte	0x118
 3066 178f 46180000 		.4byte	0x1846
 3067 1793 1C       		.byte	0x1c
 3068 1794 1A       		.uleb128 0x1a
 3069 1795 DA050000 		.4byte	.LASF301
 3070 1799 21       		.byte	0x21
 3071 179a 1C01     		.2byte	0x11c
 3072 179c E9000000 		.4byte	0xe9
 3073 17a0 20       		.byte	0x20
 3074 17a1 1A       		.uleb128 0x1a
 3075 17a2 B1030000 		.4byte	.LASF302
 3076 17a6 21       		.byte	0x21
 3077 17a7 2001     		.2byte	0x120
 3078 17a9 FE020000 		.4byte	0x2fe
ARM GAS  /tmp/ccSAVTpe.s 			page 55


 3079 17ad 24       		.byte	0x24
 3080 17ae 1A       		.uleb128 0x1a
 3081 17af DC040000 		.4byte	.LASF303
 3082 17b3 21       		.byte	0x21
 3083 17b4 2401     		.2byte	0x124
 3084 17b6 E9000000 		.4byte	0xe9
 3085 17ba 28       		.byte	0x28
 3086 17bb 1A       		.uleb128 0x1a
 3087 17bc 710C0000 		.4byte	.LASF304
 3088 17c0 21       		.byte	0x21
 3089 17c1 2801     		.2byte	0x128
 3090 17c3 4C180000 		.4byte	0x184c
 3091 17c7 2C       		.byte	0x2c
 3092 17c8 00       		.byte	0
 3093 17c9 03       		.uleb128 0x3
 3094 17ca 4D030000 		.4byte	.LASF305
 3095 17ce 21       		.byte	0x21
 3096 17cf D8       		.byte	0xd8
 3097 17d0 D4170000 		.4byte	0x17d4
 3098 17d4 0B       		.uleb128 0xb
 3099 17d5 04       		.byte	0x4
 3100 17d6 DA170000 		.4byte	0x17da
 3101 17da 0F       		.uleb128 0xf
 3102 17db E5170000 		.4byte	0x17e5
 3103 17df 10       		.uleb128 0x10
 3104 17e0 E5170000 		.4byte	0x17e5
 3105 17e4 00       		.byte	0
 3106 17e5 0B       		.uleb128 0xb
 3107 17e6 04       		.byte	0x4
 3108 17e7 3D170000 		.4byte	0x173d
 3109 17eb 0A       		.uleb128 0xa
 3110 17ec 10       		.byte	0x10
 3111 17ed 21       		.byte	0x21
 3112 17ee DD       		.byte	0xdd
 3113 17ef 30180000 		.4byte	0x1830
 3114 17f3 08       		.uleb128 0x8
 3115 17f4 8F010000 		.4byte	.LASF238
 3116 17f8 21       		.byte	0x21
 3117 17f9 E1       		.byte	0xe1
 3118 17fa C9170000 		.4byte	0x17c9
 3119 17fe 00       		.byte	0
 3120 17ff 08       		.uleb128 0x8
 3121 1800 A7000000 		.4byte	.LASF306
 3122 1804 21       		.byte	0x21
 3123 1805 E6       		.byte	0xe6
 3124 1806 3D110000 		.4byte	0x113d
 3125 180a 04       		.byte	0x4
 3126 180b 08       		.uleb128 0x8
 3127 180c 630C0000 		.4byte	.LASF307
 3128 1810 21       		.byte	0x21
 3129 1811 EA       		.byte	0xea
 3130 1812 C9000000 		.4byte	0xc9
 3131 1816 08       		.byte	0x8
 3132 1817 09       		.uleb128 0x9
 3133 1818 63723000 		.ascii	"cr0\000"
 3134 181c 21       		.byte	0x21
 3135 181d EE       		.byte	0xee
ARM GAS  /tmp/ccSAVTpe.s 			page 56


 3136 181e C9000000 		.4byte	0xc9
 3137 1822 0A       		.byte	0xa
 3138 1823 08       		.uleb128 0x8
 3139 1824 10060000 		.4byte	.LASF308
 3140 1828 21       		.byte	0x21
 3141 1829 F2       		.byte	0xf2
 3142 182a E9000000 		.4byte	0xe9
 3143 182e 0C       		.byte	0xc
 3144 182f 00       		.byte	0
 3145 1830 03       		.uleb128 0x3
 3146 1831 6C070000 		.4byte	.LASF309
 3147 1835 21       		.byte	0x21
 3148 1836 F3       		.byte	0xf3
 3149 1837 EB170000 		.4byte	0x17eb
 3150 183b 06       		.uleb128 0x6
 3151 183c 30180000 		.4byte	0x1830
 3152 1840 0B       		.uleb128 0xb
 3153 1841 04       		.byte	0x4
 3154 1842 3B180000 		.4byte	0x183b
 3155 1846 0B       		.uleb128 0xb
 3156 1847 04       		.byte	0x4
 3157 1848 D40D0000 		.4byte	0xdd4
 3158 184c 0B       		.uleb128 0xb
 3159 184d 04       		.byte	0x4
 3160 184e 52180000 		.4byte	0x1852
 3161 1852 23       		.uleb128 0x23
 3162 1853 17       		.uleb128 0x17
 3163 1854 20010000 		.4byte	.LASF310
 3164 1858 21       		.byte	0x21
 3165 1859 3401     		.2byte	0x134
 3166 185b 3D170000 		.4byte	0x173d
 3167 185f 17       		.uleb128 0x17
 3168 1860 26010000 		.4byte	.LASF311
 3169 1864 21       		.byte	0x21
 3170 1865 3801     		.2byte	0x138
 3171 1867 3D170000 		.4byte	0x173d
 3172 186b 24       		.uleb128 0x24
 3173 186c 4A0B0000 		.4byte	.LASF313
 3174 1870 01       		.byte	0x1
 3175 1871 78       		.byte	0x78
 3176 1872 00000000 		.4byte	.LFB65
 3177 1876 14000000 		.4byte	.LFE65-.LFB65
 3178 187a 01       		.uleb128 0x1
 3179 187b 9C       		.byte	0x9c
 3180 187c B0180000 		.4byte	0x18b0
 3181 1880 25       		.uleb128 0x25
 3182 1881 62757300 		.ascii	"bus\000"
 3183 1885 01       		.byte	0x1
 3184 1886 78       		.byte	0x78
 3185 1887 B0180000 		.4byte	0x18b0
 3186 188b 00000000 		.4byte	.LLST3
 3187 188f 26       		.uleb128 0x26
 3188 1890 DE0A0000 		.4byte	.LASF312
 3189 1894 01       		.byte	0x1
 3190 1895 78       		.byte	0x78
 3191 1896 32110000 		.4byte	0x1132
 3192 189a 21000000 		.4byte	.LLST4
ARM GAS  /tmp/ccSAVTpe.s 			page 57


 3193 189e 27       		.uleb128 0x27
 3194 189f 14000000 		.4byte	.LVL9
 3195 18a3 2D190000 		.4byte	0x192d
 3196 18a7 28       		.uleb128 0x28
 3197 18a8 01       		.uleb128 0x1
 3198 18a9 52       		.byte	0x52
 3199 18aa 03       		.uleb128 0x3
 3200 18ab F3       		.byte	0xf3
 3201 18ac 01       		.uleb128 0x1
 3202 18ad 51       		.byte	0x51
 3203 18ae 00       		.byte	0
 3204 18af 00       		.byte	0
 3205 18b0 0B       		.uleb128 0xb
 3206 18b1 04       		.byte	0x4
 3207 18b2 87110000 		.4byte	0x1187
 3208 18b6 24       		.uleb128 0x24
 3209 18b7 890B0000 		.4byte	.LASF314
 3210 18bb 01       		.byte	0x1
 3211 18bc 60       		.byte	0x60
 3212 18bd 00000000 		.4byte	.LFB64
 3213 18c1 08000000 		.4byte	.LFE64-.LFB64
 3214 18c5 01       		.uleb128 0x1
 3215 18c6 9C       		.byte	0x9c
 3216 18c7 FB180000 		.4byte	0x18fb
 3217 18cb 25       		.uleb128 0x25
 3218 18cc 62757300 		.ascii	"bus\000"
 3219 18d0 01       		.byte	0x1
 3220 18d1 60       		.byte	0x60
 3221 18d2 B0180000 		.4byte	0x18b0
 3222 18d6 4D000000 		.4byte	.LLST1
 3223 18da 26       		.uleb128 0x26
 3224 18db 15080000 		.4byte	.LASF315
 3225 18df 01       		.byte	0x1
 3226 18e0 60       		.byte	0x60
 3227 18e1 27110000 		.4byte	0x1127
 3228 18e5 6E000000 		.4byte	.LLST2
 3229 18e9 27       		.uleb128 0x27
 3230 18ea 08000000 		.4byte	.LVL5
 3231 18ee 39190000 		.4byte	0x1939
 3232 18f2 28       		.uleb128 0x28
 3233 18f3 01       		.uleb128 0x1
 3234 18f4 53       		.byte	0x53
 3235 18f5 03       		.uleb128 0x3
 3236 18f6 F3       		.byte	0xf3
 3237 18f7 01       		.uleb128 0x1
 3238 18f8 51       		.byte	0x51
 3239 18f9 00       		.byte	0
 3240 18fa 00       		.byte	0
 3241 18fb 29       		.uleb128 0x29
 3242 18fc EF0A0000 		.4byte	.LASF322
 3243 1900 01       		.byte	0x1
 3244 1901 46       		.byte	0x46
 3245 1902 27110000 		.4byte	0x1127
 3246 1906 00000000 		.4byte	.LFB63
 3247 190a 06000000 		.4byte	.LFE63-.LFB63
 3248 190e 01       		.uleb128 0x1
 3249 190f 9C       		.byte	0x9c
ARM GAS  /tmp/ccSAVTpe.s 			page 58


 3250 1910 2D190000 		.4byte	0x192d
 3251 1914 25       		.uleb128 0x25
 3252 1915 62757300 		.ascii	"bus\000"
 3253 1919 01       		.byte	0x1
 3254 191a 46       		.byte	0x46
 3255 191b B0180000 		.4byte	0x18b0
 3256 191f 9A000000 		.4byte	.LLST0
 3257 1923 2A       		.uleb128 0x2a
 3258 1924 06000000 		.4byte	.LVL2
 3259 1928 45190000 		.4byte	0x1945
 3260 192c 00       		.byte	0
 3261 192d 2B       		.uleb128 0x2b
 3262 192e 6A010000 		.4byte	.LASF316
 3263 1932 6A010000 		.4byte	.LASF316
 3264 1936 16       		.byte	0x16
 3265 1937 4101     		.2byte	0x141
 3266 1939 2B       		.uleb128 0x2b
 3267 193a 0E090000 		.4byte	.LASF317
 3268 193e 0E090000 		.4byte	.LASF317
 3269 1942 16       		.byte	0x16
 3270 1943 3D01     		.2byte	0x13d
 3271 1945 2B       		.uleb128 0x2b
 3272 1946 2C0C0000 		.4byte	.LASF318
 3273 194a 2C0C0000 		.4byte	.LASF318
 3274 194e 16       		.byte	0x16
 3275 194f 3A01     		.2byte	0x13a
 3276 1951 00       		.byte	0
 3277              		.section	.debug_abbrev,"",%progbits
 3278              	.Ldebug_abbrev0:
 3279 0000 01       		.uleb128 0x1
 3280 0001 11       		.uleb128 0x11
 3281 0002 01       		.byte	0x1
 3282 0003 25       		.uleb128 0x25
 3283 0004 0E       		.uleb128 0xe
 3284 0005 13       		.uleb128 0x13
 3285 0006 0B       		.uleb128 0xb
 3286 0007 03       		.uleb128 0x3
 3287 0008 0E       		.uleb128 0xe
 3288 0009 1B       		.uleb128 0x1b
 3289 000a 0E       		.uleb128 0xe
 3290 000b 55       		.uleb128 0x55
 3291 000c 17       		.uleb128 0x17
 3292 000d 11       		.uleb128 0x11
 3293 000e 01       		.uleb128 0x1
 3294 000f 10       		.uleb128 0x10
 3295 0010 17       		.uleb128 0x17
 3296 0011 00       		.byte	0
 3297 0012 00       		.byte	0
 3298 0013 02       		.uleb128 0x2
 3299 0014 24       		.uleb128 0x24
 3300 0015 00       		.byte	0
 3301 0016 0B       		.uleb128 0xb
 3302 0017 0B       		.uleb128 0xb
 3303 0018 3E       		.uleb128 0x3e
 3304 0019 0B       		.uleb128 0xb
 3305 001a 03       		.uleb128 0x3
 3306 001b 08       		.uleb128 0x8
ARM GAS  /tmp/ccSAVTpe.s 			page 59


 3307 001c 00       		.byte	0
 3308 001d 00       		.byte	0
 3309 001e 03       		.uleb128 0x3
 3310 001f 16       		.uleb128 0x16
 3311 0020 00       		.byte	0
 3312 0021 03       		.uleb128 0x3
 3313 0022 0E       		.uleb128 0xe
 3314 0023 3A       		.uleb128 0x3a
 3315 0024 0B       		.uleb128 0xb
 3316 0025 3B       		.uleb128 0x3b
 3317 0026 0B       		.uleb128 0xb
 3318 0027 49       		.uleb128 0x49
 3319 0028 13       		.uleb128 0x13
 3320 0029 00       		.byte	0
 3321 002a 00       		.byte	0
 3322 002b 04       		.uleb128 0x4
 3323 002c 24       		.uleb128 0x24
 3324 002d 00       		.byte	0
 3325 002e 0B       		.uleb128 0xb
 3326 002f 0B       		.uleb128 0xb
 3327 0030 3E       		.uleb128 0x3e
 3328 0031 0B       		.uleb128 0xb
 3329 0032 03       		.uleb128 0x3
 3330 0033 0E       		.uleb128 0xe
 3331 0034 00       		.byte	0
 3332 0035 00       		.byte	0
 3333 0036 05       		.uleb128 0x5
 3334 0037 35       		.uleb128 0x35
 3335 0038 00       		.byte	0
 3336 0039 49       		.uleb128 0x49
 3337 003a 13       		.uleb128 0x13
 3338 003b 00       		.byte	0
 3339 003c 00       		.byte	0
 3340 003d 06       		.uleb128 0x6
 3341 003e 26       		.uleb128 0x26
 3342 003f 00       		.byte	0
 3343 0040 49       		.uleb128 0x49
 3344 0041 13       		.uleb128 0x13
 3345 0042 00       		.byte	0
 3346 0043 00       		.byte	0
 3347 0044 07       		.uleb128 0x7
 3348 0045 13       		.uleb128 0x13
 3349 0046 01       		.byte	0x1
 3350 0047 03       		.uleb128 0x3
 3351 0048 0E       		.uleb128 0xe
 3352 0049 0B       		.uleb128 0xb
 3353 004a 0B       		.uleb128 0xb
 3354 004b 3A       		.uleb128 0x3a
 3355 004c 0B       		.uleb128 0xb
 3356 004d 3B       		.uleb128 0x3b
 3357 004e 0B       		.uleb128 0xb
 3358 004f 01       		.uleb128 0x1
 3359 0050 13       		.uleb128 0x13
 3360 0051 00       		.byte	0
 3361 0052 00       		.byte	0
 3362 0053 08       		.uleb128 0x8
 3363 0054 0D       		.uleb128 0xd
ARM GAS  /tmp/ccSAVTpe.s 			page 60


 3364 0055 00       		.byte	0
 3365 0056 03       		.uleb128 0x3
 3366 0057 0E       		.uleb128 0xe
 3367 0058 3A       		.uleb128 0x3a
 3368 0059 0B       		.uleb128 0xb
 3369 005a 3B       		.uleb128 0x3b
 3370 005b 0B       		.uleb128 0xb
 3371 005c 49       		.uleb128 0x49
 3372 005d 13       		.uleb128 0x13
 3373 005e 38       		.uleb128 0x38
 3374 005f 0B       		.uleb128 0xb
 3375 0060 00       		.byte	0
 3376 0061 00       		.byte	0
 3377 0062 09       		.uleb128 0x9
 3378 0063 0D       		.uleb128 0xd
 3379 0064 00       		.byte	0
 3380 0065 03       		.uleb128 0x3
 3381 0066 08       		.uleb128 0x8
 3382 0067 3A       		.uleb128 0x3a
 3383 0068 0B       		.uleb128 0xb
 3384 0069 3B       		.uleb128 0x3b
 3385 006a 0B       		.uleb128 0xb
 3386 006b 49       		.uleb128 0x49
 3387 006c 13       		.uleb128 0x13
 3388 006d 38       		.uleb128 0x38
 3389 006e 0B       		.uleb128 0xb
 3390 006f 00       		.byte	0
 3391 0070 00       		.byte	0
 3392 0071 0A       		.uleb128 0xa
 3393 0072 13       		.uleb128 0x13
 3394 0073 01       		.byte	0x1
 3395 0074 0B       		.uleb128 0xb
 3396 0075 0B       		.uleb128 0xb
 3397 0076 3A       		.uleb128 0x3a
 3398 0077 0B       		.uleb128 0xb
 3399 0078 3B       		.uleb128 0x3b
 3400 0079 0B       		.uleb128 0xb
 3401 007a 01       		.uleb128 0x1
 3402 007b 13       		.uleb128 0x13
 3403 007c 00       		.byte	0
 3404 007d 00       		.byte	0
 3405 007e 0B       		.uleb128 0xb
 3406 007f 0F       		.uleb128 0xf
 3407 0080 00       		.byte	0
 3408 0081 0B       		.uleb128 0xb
 3409 0082 0B       		.uleb128 0xb
 3410 0083 49       		.uleb128 0x49
 3411 0084 13       		.uleb128 0x13
 3412 0085 00       		.byte	0
 3413 0086 00       		.byte	0
 3414 0087 0C       		.uleb128 0xc
 3415 0088 0F       		.uleb128 0xf
 3416 0089 00       		.byte	0
 3417 008a 0B       		.uleb128 0xb
 3418 008b 0B       		.uleb128 0xb
 3419 008c 00       		.byte	0
 3420 008d 00       		.byte	0
ARM GAS  /tmp/ccSAVTpe.s 			page 61


 3421 008e 0D       		.uleb128 0xd
 3422 008f 13       		.uleb128 0x13
 3423 0090 01       		.byte	0x1
 3424 0091 03       		.uleb128 0x3
 3425 0092 0E       		.uleb128 0xe
 3426 0093 0B       		.uleb128 0xb
 3427 0094 0B       		.uleb128 0xb
 3428 0095 3A       		.uleb128 0x3a
 3429 0096 0B       		.uleb128 0xb
 3430 0097 3B       		.uleb128 0x3b
 3431 0098 05       		.uleb128 0x5
 3432 0099 01       		.uleb128 0x1
 3433 009a 13       		.uleb128 0x13
 3434 009b 00       		.byte	0
 3435 009c 00       		.byte	0
 3436 009d 0E       		.uleb128 0xe
 3437 009e 0D       		.uleb128 0xd
 3438 009f 00       		.byte	0
 3439 00a0 03       		.uleb128 0x3
 3440 00a1 08       		.uleb128 0x8
 3441 00a2 3A       		.uleb128 0x3a
 3442 00a3 0B       		.uleb128 0xb
 3443 00a4 3B       		.uleb128 0x3b
 3444 00a5 05       		.uleb128 0x5
 3445 00a6 49       		.uleb128 0x49
 3446 00a7 13       		.uleb128 0x13
 3447 00a8 38       		.uleb128 0x38
 3448 00a9 0B       		.uleb128 0xb
 3449 00aa 00       		.byte	0
 3450 00ab 00       		.byte	0
 3451 00ac 0F       		.uleb128 0xf
 3452 00ad 15       		.uleb128 0x15
 3453 00ae 01       		.byte	0x1
 3454 00af 27       		.uleb128 0x27
 3455 00b0 19       		.uleb128 0x19
 3456 00b1 01       		.uleb128 0x1
 3457 00b2 13       		.uleb128 0x13
 3458 00b3 00       		.byte	0
 3459 00b4 00       		.byte	0
 3460 00b5 10       		.uleb128 0x10
 3461 00b6 05       		.uleb128 0x5
 3462 00b7 00       		.byte	0
 3463 00b8 49       		.uleb128 0x49
 3464 00b9 13       		.uleb128 0x13
 3465 00ba 00       		.byte	0
 3466 00bb 00       		.byte	0
 3467 00bc 11       		.uleb128 0x11
 3468 00bd 34       		.uleb128 0x34
 3469 00be 00       		.byte	0
 3470 00bf 03       		.uleb128 0x3
 3471 00c0 0E       		.uleb128 0xe
 3472 00c1 3A       		.uleb128 0x3a
 3473 00c2 0B       		.uleb128 0xb
 3474 00c3 3B       		.uleb128 0x3b
 3475 00c4 0B       		.uleb128 0xb
 3476 00c5 49       		.uleb128 0x49
 3477 00c6 13       		.uleb128 0x13
ARM GAS  /tmp/ccSAVTpe.s 			page 62


 3478 00c7 3F       		.uleb128 0x3f
 3479 00c8 19       		.uleb128 0x19
 3480 00c9 3C       		.uleb128 0x3c
 3481 00ca 19       		.uleb128 0x19
 3482 00cb 00       		.byte	0
 3483 00cc 00       		.byte	0
 3484 00cd 12       		.uleb128 0x12
 3485 00ce 17       		.uleb128 0x17
 3486 00cf 01       		.byte	0x1
 3487 00d0 0B       		.uleb128 0xb
 3488 00d1 0B       		.uleb128 0xb
 3489 00d2 3A       		.uleb128 0x3a
 3490 00d3 0B       		.uleb128 0xb
 3491 00d4 3B       		.uleb128 0x3b
 3492 00d5 0B       		.uleb128 0xb
 3493 00d6 01       		.uleb128 0x1
 3494 00d7 13       		.uleb128 0x13
 3495 00d8 00       		.byte	0
 3496 00d9 00       		.byte	0
 3497 00da 13       		.uleb128 0x13
 3498 00db 0D       		.uleb128 0xd
 3499 00dc 00       		.byte	0
 3500 00dd 03       		.uleb128 0x3
 3501 00de 0E       		.uleb128 0xe
 3502 00df 3A       		.uleb128 0x3a
 3503 00e0 0B       		.uleb128 0xb
 3504 00e1 3B       		.uleb128 0x3b
 3505 00e2 0B       		.uleb128 0xb
 3506 00e3 49       		.uleb128 0x49
 3507 00e4 13       		.uleb128 0x13
 3508 00e5 00       		.byte	0
 3509 00e6 00       		.byte	0
 3510 00e7 14       		.uleb128 0x14
 3511 00e8 15       		.uleb128 0x15
 3512 00e9 01       		.byte	0x1
 3513 00ea 27       		.uleb128 0x27
 3514 00eb 19       		.uleb128 0x19
 3515 00ec 49       		.uleb128 0x49
 3516 00ed 13       		.uleb128 0x13
 3517 00ee 01       		.uleb128 0x1
 3518 00ef 13       		.uleb128 0x13
 3519 00f0 00       		.byte	0
 3520 00f1 00       		.byte	0
 3521 00f2 15       		.uleb128 0x15
 3522 00f3 01       		.uleb128 0x1
 3523 00f4 01       		.byte	0x1
 3524 00f5 49       		.uleb128 0x49
 3525 00f6 13       		.uleb128 0x13
 3526 00f7 01       		.uleb128 0x1
 3527 00f8 13       		.uleb128 0x13
 3528 00f9 00       		.byte	0
 3529 00fa 00       		.byte	0
 3530 00fb 16       		.uleb128 0x16
 3531 00fc 21       		.uleb128 0x21
 3532 00fd 00       		.byte	0
 3533 00fe 49       		.uleb128 0x49
 3534 00ff 13       		.uleb128 0x13
ARM GAS  /tmp/ccSAVTpe.s 			page 63


 3535 0100 2F       		.uleb128 0x2f
 3536 0101 0B       		.uleb128 0xb
 3537 0102 00       		.byte	0
 3538 0103 00       		.byte	0
 3539 0104 17       		.uleb128 0x17
 3540 0105 34       		.uleb128 0x34
 3541 0106 00       		.byte	0
 3542 0107 03       		.uleb128 0x3
 3543 0108 0E       		.uleb128 0xe
 3544 0109 3A       		.uleb128 0x3a
 3545 010a 0B       		.uleb128 0xb
 3546 010b 3B       		.uleb128 0x3b
 3547 010c 05       		.uleb128 0x5
 3548 010d 49       		.uleb128 0x49
 3549 010e 13       		.uleb128 0x13
 3550 010f 3F       		.uleb128 0x3f
 3551 0110 19       		.uleb128 0x19
 3552 0111 3C       		.uleb128 0x3c
 3553 0112 19       		.uleb128 0x19
 3554 0113 00       		.byte	0
 3555 0114 00       		.byte	0
 3556 0115 18       		.uleb128 0x18
 3557 0116 0D       		.uleb128 0xd
 3558 0117 00       		.byte	0
 3559 0118 49       		.uleb128 0x49
 3560 0119 13       		.uleb128 0x13
 3561 011a 00       		.byte	0
 3562 011b 00       		.byte	0
 3563 011c 19       		.uleb128 0x19
 3564 011d 13       		.uleb128 0x13
 3565 011e 01       		.byte	0x1
 3566 011f 0B       		.uleb128 0xb
 3567 0120 0B       		.uleb128 0xb
 3568 0121 3A       		.uleb128 0x3a
 3569 0122 0B       		.uleb128 0xb
 3570 0123 3B       		.uleb128 0x3b
 3571 0124 05       		.uleb128 0x5
 3572 0125 01       		.uleb128 0x1
 3573 0126 13       		.uleb128 0x13
 3574 0127 00       		.byte	0
 3575 0128 00       		.byte	0
 3576 0129 1A       		.uleb128 0x1a
 3577 012a 0D       		.uleb128 0xd
 3578 012b 00       		.byte	0
 3579 012c 03       		.uleb128 0x3
 3580 012d 0E       		.uleb128 0xe
 3581 012e 3A       		.uleb128 0x3a
 3582 012f 0B       		.uleb128 0xb
 3583 0130 3B       		.uleb128 0x3b
 3584 0131 05       		.uleb128 0x5
 3585 0132 49       		.uleb128 0x49
 3586 0133 13       		.uleb128 0x13
 3587 0134 38       		.uleb128 0x38
 3588 0135 0B       		.uleb128 0xb
 3589 0136 00       		.byte	0
 3590 0137 00       		.byte	0
 3591 0138 1B       		.uleb128 0x1b
ARM GAS  /tmp/ccSAVTpe.s 			page 64


 3592 0139 0D       		.uleb128 0xd
 3593 013a 00       		.byte	0
 3594 013b 49       		.uleb128 0x49
 3595 013c 13       		.uleb128 0x13
 3596 013d 38       		.uleb128 0x38
 3597 013e 0B       		.uleb128 0xb
 3598 013f 00       		.byte	0
 3599 0140 00       		.byte	0
 3600 0141 1C       		.uleb128 0x1c
 3601 0142 16       		.uleb128 0x16
 3602 0143 00       		.byte	0
 3603 0144 03       		.uleb128 0x3
 3604 0145 0E       		.uleb128 0xe
 3605 0146 3A       		.uleb128 0x3a
 3606 0147 0B       		.uleb128 0xb
 3607 0148 3B       		.uleb128 0x3b
 3608 0149 05       		.uleb128 0x5
 3609 014a 49       		.uleb128 0x49
 3610 014b 13       		.uleb128 0x13
 3611 014c 00       		.byte	0
 3612 014d 00       		.byte	0
 3613 014e 1D       		.uleb128 0x1d
 3614 014f 17       		.uleb128 0x17
 3615 0150 01       		.byte	0x1
 3616 0151 0B       		.uleb128 0xb
 3617 0152 0B       		.uleb128 0xb
 3618 0153 3A       		.uleb128 0x3a
 3619 0154 0B       		.uleb128 0xb
 3620 0155 3B       		.uleb128 0x3b
 3621 0156 05       		.uleb128 0x5
 3622 0157 01       		.uleb128 0x1
 3623 0158 13       		.uleb128 0x13
 3624 0159 00       		.byte	0
 3625 015a 00       		.byte	0
 3626 015b 1E       		.uleb128 0x1e
 3627 015c 0D       		.uleb128 0xd
 3628 015d 00       		.byte	0
 3629 015e 03       		.uleb128 0x3
 3630 015f 08       		.uleb128 0x8
 3631 0160 3A       		.uleb128 0x3a
 3632 0161 0B       		.uleb128 0xb
 3633 0162 3B       		.uleb128 0x3b
 3634 0163 05       		.uleb128 0x5
 3635 0164 49       		.uleb128 0x49
 3636 0165 13       		.uleb128 0x13
 3637 0166 00       		.byte	0
 3638 0167 00       		.byte	0
 3639 0168 1F       		.uleb128 0x1f
 3640 0169 21       		.uleb128 0x21
 3641 016a 00       		.byte	0
 3642 016b 00       		.byte	0
 3643 016c 00       		.byte	0
 3644 016d 20       		.uleb128 0x20
 3645 016e 04       		.uleb128 0x4
 3646 016f 01       		.byte	0x1
 3647 0170 0B       		.uleb128 0xb
 3648 0171 0B       		.uleb128 0xb
ARM GAS  /tmp/ccSAVTpe.s 			page 65


 3649 0172 49       		.uleb128 0x49
 3650 0173 13       		.uleb128 0x13
 3651 0174 3A       		.uleb128 0x3a
 3652 0175 0B       		.uleb128 0xb
 3653 0176 3B       		.uleb128 0x3b
 3654 0177 0B       		.uleb128 0xb
 3655 0178 01       		.uleb128 0x1
 3656 0179 13       		.uleb128 0x13
 3657 017a 00       		.byte	0
 3658 017b 00       		.byte	0
 3659 017c 21       		.uleb128 0x21
 3660 017d 28       		.uleb128 0x28
 3661 017e 00       		.byte	0
 3662 017f 03       		.uleb128 0x3
 3663 0180 0E       		.uleb128 0xe
 3664 0181 1C       		.uleb128 0x1c
 3665 0182 0B       		.uleb128 0xb
 3666 0183 00       		.byte	0
 3667 0184 00       		.byte	0
 3668 0185 22       		.uleb128 0x22
 3669 0186 34       		.uleb128 0x34
 3670 0187 00       		.byte	0
 3671 0188 03       		.uleb128 0x3
 3672 0189 08       		.uleb128 0x8
 3673 018a 3A       		.uleb128 0x3a
 3674 018b 0B       		.uleb128 0xb
 3675 018c 3B       		.uleb128 0x3b
 3676 018d 0B       		.uleb128 0xb
 3677 018e 49       		.uleb128 0x49
 3678 018f 13       		.uleb128 0x13
 3679 0190 3F       		.uleb128 0x3f
 3680 0191 19       		.uleb128 0x19
 3681 0192 3C       		.uleb128 0x3c
 3682 0193 19       		.uleb128 0x19
 3683 0194 00       		.byte	0
 3684 0195 00       		.byte	0
 3685 0196 23       		.uleb128 0x23
 3686 0197 26       		.uleb128 0x26
 3687 0198 00       		.byte	0
 3688 0199 00       		.byte	0
 3689 019a 00       		.byte	0
 3690 019b 24       		.uleb128 0x24
 3691 019c 2E       		.uleb128 0x2e
 3692 019d 01       		.byte	0x1
 3693 019e 3F       		.uleb128 0x3f
 3694 019f 19       		.uleb128 0x19
 3695 01a0 03       		.uleb128 0x3
 3696 01a1 0E       		.uleb128 0xe
 3697 01a2 3A       		.uleb128 0x3a
 3698 01a3 0B       		.uleb128 0xb
 3699 01a4 3B       		.uleb128 0x3b
 3700 01a5 0B       		.uleb128 0xb
 3701 01a6 27       		.uleb128 0x27
 3702 01a7 19       		.uleb128 0x19
 3703 01a8 11       		.uleb128 0x11
 3704 01a9 01       		.uleb128 0x1
 3705 01aa 12       		.uleb128 0x12
ARM GAS  /tmp/ccSAVTpe.s 			page 66


 3706 01ab 06       		.uleb128 0x6
 3707 01ac 40       		.uleb128 0x40
 3708 01ad 18       		.uleb128 0x18
 3709 01ae 9742     		.uleb128 0x2117
 3710 01b0 19       		.uleb128 0x19
 3711 01b1 01       		.uleb128 0x1
 3712 01b2 13       		.uleb128 0x13
 3713 01b3 00       		.byte	0
 3714 01b4 00       		.byte	0
 3715 01b5 25       		.uleb128 0x25
 3716 01b6 05       		.uleb128 0x5
 3717 01b7 00       		.byte	0
 3718 01b8 03       		.uleb128 0x3
 3719 01b9 08       		.uleb128 0x8
 3720 01ba 3A       		.uleb128 0x3a
 3721 01bb 0B       		.uleb128 0xb
 3722 01bc 3B       		.uleb128 0x3b
 3723 01bd 0B       		.uleb128 0xb
 3724 01be 49       		.uleb128 0x49
 3725 01bf 13       		.uleb128 0x13
 3726 01c0 02       		.uleb128 0x2
 3727 01c1 17       		.uleb128 0x17
 3728 01c2 00       		.byte	0
 3729 01c3 00       		.byte	0
 3730 01c4 26       		.uleb128 0x26
 3731 01c5 05       		.uleb128 0x5
 3732 01c6 00       		.byte	0
 3733 01c7 03       		.uleb128 0x3
 3734 01c8 0E       		.uleb128 0xe
 3735 01c9 3A       		.uleb128 0x3a
 3736 01ca 0B       		.uleb128 0xb
 3737 01cb 3B       		.uleb128 0x3b
 3738 01cc 0B       		.uleb128 0xb
 3739 01cd 49       		.uleb128 0x49
 3740 01ce 13       		.uleb128 0x13
 3741 01cf 02       		.uleb128 0x2
 3742 01d0 17       		.uleb128 0x17
 3743 01d1 00       		.byte	0
 3744 01d2 00       		.byte	0
 3745 01d3 27       		.uleb128 0x27
 3746 01d4 898201   		.uleb128 0x4109
 3747 01d7 01       		.byte	0x1
 3748 01d8 11       		.uleb128 0x11
 3749 01d9 01       		.uleb128 0x1
 3750 01da 9542     		.uleb128 0x2115
 3751 01dc 19       		.uleb128 0x19
 3752 01dd 31       		.uleb128 0x31
 3753 01de 13       		.uleb128 0x13
 3754 01df 00       		.byte	0
 3755 01e0 00       		.byte	0
 3756 01e1 28       		.uleb128 0x28
 3757 01e2 8A8201   		.uleb128 0x410a
 3758 01e5 00       		.byte	0
 3759 01e6 02       		.uleb128 0x2
 3760 01e7 18       		.uleb128 0x18
 3761 01e8 9142     		.uleb128 0x2111
 3762 01ea 18       		.uleb128 0x18
ARM GAS  /tmp/ccSAVTpe.s 			page 67


 3763 01eb 00       		.byte	0
 3764 01ec 00       		.byte	0
 3765 01ed 29       		.uleb128 0x29
 3766 01ee 2E       		.uleb128 0x2e
 3767 01ef 01       		.byte	0x1
 3768 01f0 3F       		.uleb128 0x3f
 3769 01f1 19       		.uleb128 0x19
 3770 01f2 03       		.uleb128 0x3
 3771 01f3 0E       		.uleb128 0xe
 3772 01f4 3A       		.uleb128 0x3a
 3773 01f5 0B       		.uleb128 0xb
 3774 01f6 3B       		.uleb128 0x3b
 3775 01f7 0B       		.uleb128 0xb
 3776 01f8 27       		.uleb128 0x27
 3777 01f9 19       		.uleb128 0x19
 3778 01fa 49       		.uleb128 0x49
 3779 01fb 13       		.uleb128 0x13
 3780 01fc 11       		.uleb128 0x11
 3781 01fd 01       		.uleb128 0x1
 3782 01fe 12       		.uleb128 0x12
 3783 01ff 06       		.uleb128 0x6
 3784 0200 40       		.uleb128 0x40
 3785 0201 18       		.uleb128 0x18
 3786 0202 9742     		.uleb128 0x2117
 3787 0204 19       		.uleb128 0x19
 3788 0205 01       		.uleb128 0x1
 3789 0206 13       		.uleb128 0x13
 3790 0207 00       		.byte	0
 3791 0208 00       		.byte	0
 3792 0209 2A       		.uleb128 0x2a
 3793 020a 898201   		.uleb128 0x4109
 3794 020d 00       		.byte	0
 3795 020e 11       		.uleb128 0x11
 3796 020f 01       		.uleb128 0x1
 3797 0210 9542     		.uleb128 0x2115
 3798 0212 19       		.uleb128 0x19
 3799 0213 31       		.uleb128 0x31
 3800 0214 13       		.uleb128 0x13
 3801 0215 00       		.byte	0
 3802 0216 00       		.byte	0
 3803 0217 2B       		.uleb128 0x2b
 3804 0218 2E       		.uleb128 0x2e
 3805 0219 00       		.byte	0
 3806 021a 3F       		.uleb128 0x3f
 3807 021b 19       		.uleb128 0x19
 3808 021c 3C       		.uleb128 0x3c
 3809 021d 19       		.uleb128 0x19
 3810 021e 6E       		.uleb128 0x6e
 3811 021f 0E       		.uleb128 0xe
 3812 0220 03       		.uleb128 0x3
 3813 0221 0E       		.uleb128 0xe
 3814 0222 3A       		.uleb128 0x3a
 3815 0223 0B       		.uleb128 0xb
 3816 0224 3B       		.uleb128 0x3b
 3817 0225 05       		.uleb128 0x5
 3818 0226 00       		.byte	0
 3819 0227 00       		.byte	0
ARM GAS  /tmp/ccSAVTpe.s 			page 68


 3820 0228 00       		.byte	0
 3821              		.section	.debug_loc,"",%progbits
 3822              	.Ldebug_loc0:
 3823              	.LLST3:
 3824 0000 00000000 		.4byte	.LVL6
 3825 0004 0A000000 		.4byte	.LVL7
 3826 0008 0100     		.2byte	0x1
 3827 000a 50       		.byte	0x50
 3828 000b 0A000000 		.4byte	.LVL7
 3829 000f 14000000 		.4byte	.LFE65
 3830 0013 0400     		.2byte	0x4
 3831 0015 F3       		.byte	0xf3
 3832 0016 01       		.uleb128 0x1
 3833 0017 50       		.byte	0x50
 3834 0018 9F       		.byte	0x9f
 3835 0019 00000000 		.4byte	0
 3836 001d 00000000 		.4byte	0
 3837              	.LLST4:
 3838 0021 00000000 		.4byte	.LVL6
 3839 0025 0E000000 		.4byte	.LVL8
 3840 0029 0100     		.2byte	0x1
 3841 002b 51       		.byte	0x51
 3842 002c 0E000000 		.4byte	.LVL8
 3843 0030 13000000 		.4byte	.LVL9-1
 3844 0034 0100     		.2byte	0x1
 3845 0036 52       		.byte	0x52
 3846 0037 13000000 		.4byte	.LVL9-1
 3847 003b 14000000 		.4byte	.LFE65
 3848 003f 0400     		.2byte	0x4
 3849 0041 F3       		.byte	0xf3
 3850 0042 01       		.uleb128 0x1
 3851 0043 51       		.byte	0x51
 3852 0044 9F       		.byte	0x9f
 3853 0045 00000000 		.4byte	0
 3854 0049 00000000 		.4byte	0
 3855              	.LLST1:
 3856 004d 00000000 		.4byte	.LVL3
 3857 0051 04000000 		.4byte	.LVL4
 3858 0055 0100     		.2byte	0x1
 3859 0057 50       		.byte	0x50
 3860 0058 04000000 		.4byte	.LVL4
 3861 005c 08000000 		.4byte	.LFE64
 3862 0060 0400     		.2byte	0x4
 3863 0062 F3       		.byte	0xf3
 3864 0063 01       		.uleb128 0x1
 3865 0064 50       		.byte	0x50
 3866 0065 9F       		.byte	0x9f
 3867 0066 00000000 		.4byte	0
 3868 006a 00000000 		.4byte	0
 3869              	.LLST2:
 3870 006e 00000000 		.4byte	.LVL3
 3871 0072 04000000 		.4byte	.LVL4
 3872 0076 0100     		.2byte	0x1
 3873 0078 51       		.byte	0x51
 3874 0079 04000000 		.4byte	.LVL4
 3875 007d 07000000 		.4byte	.LVL5-1
 3876 0081 0100     		.2byte	0x1
ARM GAS  /tmp/ccSAVTpe.s 			page 69


 3877 0083 53       		.byte	0x53
 3878 0084 07000000 		.4byte	.LVL5-1
 3879 0088 08000000 		.4byte	.LFE64
 3880 008c 0400     		.2byte	0x4
 3881 008e F3       		.byte	0xf3
 3882 008f 01       		.uleb128 0x1
 3883 0090 51       		.byte	0x51
 3884 0091 9F       		.byte	0x9f
 3885 0092 00000000 		.4byte	0
 3886 0096 00000000 		.4byte	0
 3887              	.LLST0:
 3888 009a 00000000 		.4byte	.LVL0
 3889 009e 02000000 		.4byte	.LVL1
 3890 00a2 0100     		.2byte	0x1
 3891 00a4 50       		.byte	0x50
 3892 00a5 02000000 		.4byte	.LVL1
 3893 00a9 06000000 		.4byte	.LFE63
 3894 00ad 0400     		.2byte	0x4
 3895 00af F3       		.byte	0xf3
 3896 00b0 01       		.uleb128 0x1
 3897 00b1 50       		.byte	0x50
 3898 00b2 9F       		.byte	0x9f
 3899 00b3 00000000 		.4byte	0
 3900 00b7 00000000 		.4byte	0
 3901              		.section	.debug_aranges,"",%progbits
 3902 0000 2C000000 		.4byte	0x2c
 3903 0004 0200     		.2byte	0x2
 3904 0006 00000000 		.4byte	.Ldebug_info0
 3905 000a 04       		.byte	0x4
 3906 000b 00       		.byte	0
 3907 000c 0000     		.2byte	0
 3908 000e 0000     		.2byte	0
 3909 0010 00000000 		.4byte	.LFB63
 3910 0014 06000000 		.4byte	.LFE63-.LFB63
 3911 0018 00000000 		.4byte	.LFB64
 3912 001c 08000000 		.4byte	.LFE64-.LFB64
 3913 0020 00000000 		.4byte	.LFB65
 3914 0024 14000000 		.4byte	.LFE65-.LFB65
 3915 0028 00000000 		.4byte	0
 3916 002c 00000000 		.4byte	0
 3917              		.section	.debug_ranges,"",%progbits
 3918              	.Ldebug_ranges0:
 3919 0000 00000000 		.4byte	.LFB63
 3920 0004 06000000 		.4byte	.LFE63
 3921 0008 00000000 		.4byte	.LFB64
 3922 000c 08000000 		.4byte	.LFE64
 3923 0010 00000000 		.4byte	.LFB65
 3924 0014 14000000 		.4byte	.LFE65
 3925 0018 00000000 		.4byte	0
 3926 001c 00000000 		.4byte	0
 3927              		.section	.debug_line,"",%progbits
 3928              	.Ldebug_line0:
 3929 0000 F4020000 		.section	.debug_str,"MS",%progbits,1
 3929      0200B902 
 3929      00000201 
 3929      FB0E0D00 
 3929      01010101 
ARM GAS  /tmp/ccSAVTpe.s 			page 70


 3930              	.LASF4:
 3931 0000 73697A65 		.ascii	"size_t\000"
 3931      5F7400
 3932              	.LASF60:
 3933 0007 73697A65 		.ascii	"sizetype\000"
 3933      74797065 
 3933      00
 3934              	.LASF109:
 3935 0010 63665F6F 		.ascii	"cf_off_name\000"
 3935      66665F6E 
 3935      616D6500 
 3936              	.LASF32:
 3937 001c 73797374 		.ascii	"systime_t\000"
 3937      696D655F 
 3937      7400
 3938              	.LASF187:
 3939 0026 54464932 		.ascii	"TFI2\000"
 3939      00
 3940              	.LASF191:
 3941 002b 54464933 		.ascii	"TFI3\000"
 3941      00
 3942              	.LASF98:
 3943 0030 63685F69 		.ascii	"ch_identifier\000"
 3943      64656E74 
 3943      69666965 
 3943      7200
 3944              	.LASF38:
 3945 003e 705F6374 		.ascii	"p_ctx\000"
 3945      7800
 3946              	.LASF28:
 3947 0044 74707269 		.ascii	"tprio_t\000"
 3947      6F5F7400 
 3948              	.LASF234:
 3949 004c 61646363 		.ascii	"adccallback_t\000"
 3949      616C6C62 
 3949      61636B5F 
 3949      7400
 3950              	.LASF117:
 3951 005a 63685F64 		.ascii	"ch_debug\000"
 3951      65627567 
 3951      00
 3952              	.LASF48:
 3953 0063 705F6D73 		.ascii	"p_msgqueue\000"
 3953      67717565 
 3953      756500
 3954              	.LASF72:
 3955 006e 725F6374 		.ascii	"r_ctx\000"
 3955      7800
 3956              	.LASF18:
 3957 0074 696E7433 		.ascii	"int32_t\000"
 3957      325F7400 
 3958              	.LASF220:
 3959 007c 61646373 		.ascii	"adcstate_t\000"
 3959      74617465 
 3959      5F7400
 3960              	.LASF106:
 3961 0087 63665F6F 		.ascii	"cf_off_ctx\000"
ARM GAS  /tmp/ccSAVTpe.s 			page 71


 3961      66665F63 
 3961      747800
 3962              	.LASF61:
 3963 0092 76746675 		.ascii	"vtfunc_t\000"
 3963      6E635F74 
 3963      00
 3964              	.LASF257:
 3965 009b 736C6565 		.ascii	"sleep_event\000"
 3965      705F6576 
 3965      656E7400 
 3966              	.LASF306:
 3967 00a7 7373706F 		.ascii	"ssport\000"
 3967      727400
 3968              	.LASF201:
 3969 00ae 4C50435F 		.ascii	"LPC_GPDMACH_TypeDef\000"
 3969      4750444D 
 3969      4143485F 
 3969      54797065 
 3969      44656600 
 3970              	.LASF288:
 3971 00c2 77726974 		.ascii	"write\000"
 3971      6500
 3972              	.LASF258:
 3973 00c8 77616B65 		.ascii	"wakeup_event\000"
 3973      75705F65 
 3973      76656E74 
 3973      00
 3974              	.LASF171:
 3975 00d5 43544352 		.ascii	"CTCR\000"
 3975      00
 3976              	.LASF90:
 3977 00da 656C5F66 		.ascii	"el_flags\000"
 3977      6C616773 
 3977      00
 3978              	.LASF266:
 3979 00e3 67707473 		.ascii	"gptstate_t\000"
 3979      74617465 
 3979      5F7400
 3980              	.LASF227:
 3981 00ee 636F6E66 		.ascii	"config\000"
 3981      696700
 3982              	.LASF226:
 3983 00f5 73746174 		.ascii	"state\000"
 3983      6500
 3984              	.LASF252:
 3985 00fb 74787365 		.ascii	"txsem\000"
 3985      6D00
 3986              	.LASF182:
 3987 0101 4C50435F 		.ascii	"LPC_ADC_TypeDef\000"
 3987      4144435F 
 3987      54797065 
 3987      44656600 
 3988              	.LASF290:
 3989 0111 70757474 		.ascii	"putt\000"
 3989      00
 3990              	.LASF251:
 3991 0116 43414E43 		.ascii	"CANConfig\000"
ARM GAS  /tmp/ccSAVTpe.s 			page 72


 3991      6F6E6669 
 3991      6700
 3992              	.LASF310:
 3993 0120 53504944 		.ascii	"SPID1\000"
 3993      3100
 3994              	.LASF311:
 3995 0126 53504944 		.ascii	"SPID2\000"
 3995      3200
 3996              	.LASF180:
 3997 012c 53544154 		.ascii	"STAT\000"
 3997      00
 3998              	.LASF102:
 3999 0131 63685F70 		.ascii	"ch_ptrsize\000"
 3999      74727369 
 3999      7A6500
 4000              	.LASF239:
 4001 013c 6572726F 		.ascii	"error_cb\000"
 4001      725F6362 
 4001      00
 4002              	.LASF272:
 4003 0145 63616C6C 		.ascii	"callback\000"
 4003      6261636B 
 4003      00
 4004              	.LASF249:
 4005 014e 43414E5F 		.ascii	"CAN_SLEEP\000"
 4005      534C4545 
 4005      5000
 4006              	.LASF207:
 4007 0158 696F6D6F 		.ascii	"iomode_t\000"
 4007      64655F74 
 4007      00
 4008              	.LASF233:
 4009 0161 6E73616D 		.ascii	"nsamples\000"
 4009      706C6573 
 4009      00
 4010              	.LASF316:
 4011 016a 5F70616C 		.ascii	"_pal_lld_setgroupmode\000"
 4011      5F6C6C64 
 4011      5F736574 
 4011      67726F75 
 4011      706D6F64 
 4012              	.LASF84:
 4013 0180 6D5F6F77 		.ascii	"m_owner\000"
 4013      6E657200 
 4014              	.LASF67:
 4015 0188 76745F70 		.ascii	"vt_par\000"
 4015      617200
 4016              	.LASF238:
 4017 018f 656E645F 		.ascii	"end_cb\000"
 4017      636200
 4018              	.LASF94:
 4019 0196 65786974 		.ascii	"exitcode\000"
 4019      636F6465 
 4019      00
 4020              	.LASF5:
 4021 019f 5F5F7569 		.ascii	"__uint8_t\000"
 4021      6E74385F 
ARM GAS  /tmp/ccSAVTpe.s 			page 73


 4021      7400
 4022              	.LASF122:
 4023 01a9 715F746F 		.ascii	"q_top\000"
 4023      7000
 4024              	.LASF197:
 4025 01af 43446573 		.ascii	"CDestAddr\000"
 4025      74416464 
 4025      7200
 4026              	.LASF96:
 4027 01b9 65776D61 		.ascii	"ewmask\000"
 4027      736B00
 4028              	.LASF259:
 4029 01c0 43414E44 		.ascii	"CANDriver\000"
 4029      72697665 
 4029      7200
 4030              	.LASF104:
 4031 01ca 63685F74 		.ascii	"ch_threadsize\000"
 4031      68726561 
 4031      6473697A 
 4031      6500
 4032              	.LASF293:
 4033 01d8 72656164 		.ascii	"readt\000"
 4033      7400
 4034              	.LASF121:
 4035 01de 715F6275 		.ascii	"q_buffer\000"
 4035      66666572 
 4035      00
 4036              	.LASF196:
 4037 01e7 43537263 		.ascii	"CSrcAddr\000"
 4037      41646472 
 4037      00
 4038              	.LASF125:
 4039 01f0 715F6E6F 		.ascii	"q_notify\000"
 4039      74696679 
 4039      00
 4040              	.LASF39:
 4041 01f9 705F6E65 		.ascii	"p_newer\000"
 4041      77657200 
 4042              	.LASF295:
 4043 0201 5350495F 		.ascii	"SPI_STOP\000"
 4043      53544F50 
 4043      00
 4044              	.LASF11:
 4045 020a 6C6F6E67 		.ascii	"long int\000"
 4045      20696E74 
 4045      00
 4046              	.LASF294:
 4047 0213 5350495F 		.ascii	"SPI_UNINIT\000"
 4047      554E494E 
 4047      495400
 4048              	.LASF35:
 4049 021e 705F6E65 		.ascii	"p_next\000"
 4049      787400
 4050              	.LASF124:
 4051 0225 715F7264 		.ascii	"q_rdptr\000"
 4051      70747200 
 4052              	.LASF111:
ARM GAS  /tmp/ccSAVTpe.s 			page 74


 4053 022d 63665F6F 		.ascii	"cf_off_state\000"
 4053      66665F73 
 4053      74617465 
 4053      00
 4054              	.LASF36:
 4055 023a 705F7072 		.ascii	"p_prev\000"
 4055      657600
 4056              	.LASF274:
 4057 0241 47505444 		.ascii	"GPTD1\000"
 4057      3100
 4058              	.LASF275:
 4059 0247 47505444 		.ascii	"GPTD2\000"
 4059      3200
 4060              	.LASF276:
 4061 024d 47505444 		.ascii	"GPTD3\000"
 4061      3300
 4062              	.LASF277:
 4063 0253 47505444 		.ascii	"GPTD4\000"
 4063      3400
 4064              	.LASF208:
 4065 0259 696F706F 		.ascii	"ioportid_t\000"
 4065      72746964 
 4065      5F7400
 4066              	.LASF25:
 4067 0264 74737461 		.ascii	"tstate_t\000"
 4067      74655F74 
 4067      00
 4068              	.LASF51:
 4069 026d 705F6D74 		.ascii	"p_mtxlist\000"
 4069      786C6973 
 4069      7400
 4070              	.LASF285:
 4071 0277 6F717565 		.ascii	"oqueue\000"
 4071      756500
 4072              	.LASF56:
 4073 027e 72656761 		.ascii	"regarm_t\000"
 4073      726D5F74 
 4073      00
 4074              	.LASF320:
 4075 0287 2E2E2F6F 		.ascii	"../os/hal/src/pal.c\000"
 4075      732F6861 
 4075      6C2F7372 
 4075      632F7061 
 4075      6C2E6300 
 4076              	.LASF178:
 4077 029b 4C50435F 		.ascii	"LPC_SSP_TypeDef\000"
 4077      5353505F 
 4077      54797065 
 4077      44656600 
 4078              	.LASF209:
 4079 02ab 70616C5F 		.ascii	"pal_default_config\000"
 4079      64656661 
 4079      756C745F 
 4079      636F6E66 
 4079      696700
 4080              	.LASF3:
 4081 02be 7369676E 		.ascii	"signed char\000"
ARM GAS  /tmp/ccSAVTpe.s 			page 75


 4081      65642063 
 4081      68617200 
 4082              	.LASF45:
 4083 02ca 705F7072 		.ascii	"p_preempt\000"
 4083      65656D70 
 4083      7400
 4084              	.LASF273:
 4085 02d4 47505443 		.ascii	"GPTConfig\000"
 4085      6F6E6669 
 4085      6700
 4086              	.LASF16:
 4087 02de 75696E74 		.ascii	"uint8_t\000"
 4087      385F7400 
 4088              	.LASF176:
 4089 02e6 494D5343 		.ascii	"IMSC\000"
 4089      00
 4090              	.LASF210:
 4091 02eb 706F7274 		.ascii	"portid\000"
 4091      696400
 4092              	.LASF292:
 4093 02f2 77726974 		.ascii	"writet\000"
 4093      657400
 4094              	.LASF30:
 4095 02f9 6576656E 		.ascii	"eventmask_t\000"
 4095      746D6173 
 4095      6B5F7400 
 4096              	.LASF59:
 4097 0305 636F6E74 		.ascii	"context\000"
 4097      65787400 
 4098              	.LASF254:
 4099 030d 72786675 		.ascii	"rxfull_event\000"
 4099      6C6C5F65 
 4099      76656E74 
 4099      00
 4100              	.LASF168:
 4101 031a 52455345 		.ascii	"RESERVED0\000"
 4101      52564544 
 4101      3000
 4102              	.LASF170:
 4103 0324 52455345 		.ascii	"RESERVED1\000"
 4103      52564544 
 4103      3100
 4104              	.LASF6:
 4105 032e 756E7369 		.ascii	"unsigned char\000"
 4105      676E6564 
 4105      20636861 
 4105      7200
 4106              	.LASF300:
 4107 033c 53504944 		.ascii	"SPIDriver\000"
 4107      72697665 
 4107      7200
 4108              	.LASF126:
 4109 0346 715F6C69 		.ascii	"q_link\000"
 4109      6E6B00
 4110              	.LASF305:
 4111 034d 73706963 		.ascii	"spicallback_t\000"
 4111      616C6C62 
ARM GAS  /tmp/ccSAVTpe.s 			page 76


 4111      61636B5F 
 4111      7400
 4112              	.LASF64:
 4113 035b 76745F70 		.ascii	"vt_prev\000"
 4113      72657600 
 4114              	.LASF224:
 4115 0363 61646365 		.ascii	"adcerror_t\000"
 4115      72726F72 
 4115      5F7400
 4116              	.LASF73:
 4117 036e 725F6E65 		.ascii	"r_newer\000"
 4117      77657200 
 4118              	.LASF278:
 4119 0376 53445F55 		.ascii	"SD_UNINIT\000"
 4119      4E494E49 
 4119      5400
 4120              	.LASF216:
 4121 0380 4144435F 		.ascii	"ADC_READY\000"
 4121      52454144 
 4121      5900
 4122              	.LASF23:
 4123 038a 5F426F6F 		.ascii	"_Bool\000"
 4123      6C00
 4124              	.LASF173:
 4125 0390 52455345 		.ascii	"RESERVED2\000"
 4125      52564544 
 4125      3200
 4126              	.LASF221:
 4127 039a 61646373 		.ascii	"adcsample_t\000"
 4127      616D706C 
 4127      655F7400 
 4128              	.LASF177:
 4129 03a6 444D4143 		.ascii	"DMACR\000"
 4129      5200
 4130              	.LASF97:
 4131 03ac 63686172 		.ascii	"char\000"
 4131      00
 4132              	.LASF302:
 4133 03b1 72787074 		.ascii	"rxptr\000"
 4133      7200
 4134              	.LASF261:
 4135 03b7 4750545F 		.ascii	"GPT_UNINIT\000"
 4135      554E494E 
 4135      495400
 4136              	.LASF37:
 4137 03c2 705F7072 		.ascii	"p_prio\000"
 4137      696F00
 4138              	.LASF8:
 4139 03c9 5F5F7569 		.ascii	"__uint16_t\000"
 4139      6E743136 
 4139      5F7400
 4140              	.LASF118:
 4141 03d4 47656E65 		.ascii	"GenericQueue\000"
 4141      72696351 
 4141      75657565 
 4141      00
 4142              	.LASF95:
ARM GAS  /tmp/ccSAVTpe.s 			page 77


 4143 03e1 77746F62 		.ascii	"wtobjp\000"
 4143      6A7000
 4144              	.LASF219:
 4145 03e8 4144435F 		.ascii	"ADC_ERROR\000"
 4145      4552524F 
 4145      5200
 4146              	.LASF107:
 4147 03f2 63665F6F 		.ascii	"cf_off_newer\000"
 4147      66665F6E 
 4147      65776572 
 4147      00
 4148              	.LASF291:
 4149 03ff 67657474 		.ascii	"gett\000"
 4149      00
 4150              	.LASF57:
 4151 0404 73746B61 		.ascii	"stkalign_t\000"
 4151      6C69676E 
 4151      5F7400
 4152              	.LASF156:
 4153 040f 46494F53 		.ascii	"FIOSET0\000"
 4153      45543000 
 4154              	.LASF157:
 4155 0417 46494F53 		.ascii	"FIOSET1\000"
 4155      45543100 
 4156              	.LASF158:
 4157 041f 46494F53 		.ascii	"FIOSET2\000"
 4157      45543200 
 4158              	.LASF129:
 4159 0427 4F757470 		.ascii	"OutputQueue\000"
 4159      75745175 
 4159      65756500 
 4160              	.LASF236:
 4161 0433 63697263 		.ascii	"circular\000"
 4161      756C6172 
 4161      00
 4162              	.LASF155:
 4163 043c 46494F53 		.ascii	"FIOSETH\000"
 4163      45544800 
 4164              	.LASF154:
 4165 0444 46494F53 		.ascii	"FIOSETL\000"
 4165      45544C00 
 4166              	.LASF105:
 4167 044c 63665F6F 		.ascii	"cf_off_prio\000"
 4167      66665F70 
 4167      72696F00 
 4168              	.LASF195:
 4169 0458 4C50435F 		.ascii	"LPC_CAN_TypeDef\000"
 4169      43414E5F 
 4169      54797065 
 4169      44656600 
 4170              	.LASF206:
 4171 0468 696F706F 		.ascii	"ioportmask_t\000"
 4171      72746D61 
 4171      736B5F74 
 4171      00
 4172              	.LASF248:
 4173 0475 43414E5F 		.ascii	"CAN_READY\000"
ARM GAS  /tmp/ccSAVTpe.s 			page 78


 4173      52454144 
 4173      5900
 4174              	.LASF228:
 4175 047f 73616D70 		.ascii	"samples\000"
 4175      6C657300 
 4176              	.LASF33:
 4177 0487 636E745F 		.ascii	"cnt_t\000"
 4177      7400
 4178              	.LASF185:
 4179 048d 54444131 		.ascii	"TDA1\000"
 4179      00
 4180              	.LASF189:
 4181 0492 54444132 		.ascii	"TDA2\000"
 4181      00
 4182              	.LASF193:
 4183 0497 54444133 		.ascii	"TDA3\000"
 4183      00
 4184              	.LASF66:
 4185 049c 76745F66 		.ascii	"vt_func\000"
 4185      756E6300 
 4186              	.LASF213:
 4187 04a4 494F4275 		.ascii	"IOBus\000"
 4187      7300
 4188              	.LASF58:
 4189 04aa 696E7463 		.ascii	"intctx\000"
 4189      747800
 4190              	.LASF50:
 4191 04b1 705F6570 		.ascii	"p_epending\000"
 4191      656E6469 
 4191      6E6700
 4192              	.LASF186:
 4193 04bc 54444231 		.ascii	"TDB1\000"
 4193      00
 4194              	.LASF190:
 4195 04c1 54444232 		.ascii	"TDB2\000"
 4195      00
 4196              	.LASF194:
 4197 04c6 54444233 		.ascii	"TDB3\000"
 4197      00
 4198              	.LASF253:
 4199 04cb 72787365 		.ascii	"rxsem\000"
 4199      6D00
 4200              	.LASF250:
 4201 04d1 63616E73 		.ascii	"canstate_t\000"
 4201      74617465 
 4201      5F7400
 4202              	.LASF303:
 4203 04dc 7478636E 		.ascii	"txcnt\000"
 4203      7400
 4204              	.LASF92:
 4205 04e2 65735F6E 		.ascii	"es_next\000"
 4205      65787400 
 4206              	.LASF120:
 4207 04ea 715F636F 		.ascii	"q_counter\000"
 4207      756E7465 
 4207      7200
 4208              	.LASF149:
ARM GAS  /tmp/ccSAVTpe.s 			page 79


 4209 04f4 46494F50 		.ascii	"FIOPIN0\000"
 4209      494E3000 
 4210              	.LASF150:
 4211 04fc 46494F50 		.ascii	"FIOPIN1\000"
 4211      494E3100 
 4212              	.LASF151:
 4213 0504 46494F50 		.ascii	"FIOPIN2\000"
 4213      494E3200 
 4214              	.LASF152:
 4215 050c 46494F50 		.ascii	"FIOPIN3\000"
 4215      494E3300 
 4216              	.LASF91:
 4217 0514 4576656E 		.ascii	"EventSource\000"
 4217      74536F75 
 4217      72636500 
 4218              	.LASF14:
 4219 0520 5F5F7569 		.ascii	"__uint64_t\000"
 4219      6E743634 
 4219      5F7400
 4220              	.LASF13:
 4221 052b 6C6F6E67 		.ascii	"long unsigned int\000"
 4221      20756E73 
 4221      69676E65 
 4221      6420696E 
 4221      7400
 4222              	.LASF99:
 4223 053d 63685F7A 		.ascii	"ch_zero\000"
 4223      65726F00 
 4224              	.LASF148:
 4225 0545 46494F50 		.ascii	"FIOPINH\000"
 4225      494E4800 
 4226              	.LASF147:
 4227 054d 46494F50 		.ascii	"FIOPINL\000"
 4227      494E4C00 
 4228              	.LASF132:
 4229 0555 53797374 		.ascii	"SystemCoreClock\000"
 4229      656D436F 
 4229      7265436C 
 4229      6F636B00 
 4230              	.LASF270:
 4231 0565 67707466 		.ascii	"gptfreq_t\000"
 4231      7265715F 
 4231      7400
 4232              	.LASF199:
 4233 056f 43436F6E 		.ascii	"CControl\000"
 4233      74726F6C 
 4233      00
 4234              	.LASF87:
 4235 0578 656C5F6E 		.ascii	"el_next\000"
 4235      65787400 
 4236              	.LASF237:
 4237 0580 6E756D5F 		.ascii	"num_channels\000"
 4237      6368616E 
 4237      6E656C73 
 4237      00
 4238              	.LASF123:
 4239 058d 715F7772 		.ascii	"q_wrptr\000"
ARM GAS  /tmp/ccSAVTpe.s 			page 80


 4239      70747200 
 4240              	.LASF202:
 4241 0595 5F6C7063 		.ascii	"_lpc17xx_dma_channel_config_t\000"
 4241      31377878 
 4241      5F646D61 
 4241      5F636861 
 4241      6E6E656C 
 4242              	.LASF287:
 4243 05b3 53657269 		.ascii	"SerialDriverVMT\000"
 4243      616C4472 
 4243      69766572 
 4243      564D5400 
 4244              	.LASF146:
 4245 05c3 46494F4D 		.ascii	"FIOMASK\000"
 4245      41534B00 
 4246              	.LASF184:
 4247 05cb 54494431 		.ascii	"TID1\000"
 4247      00
 4248              	.LASF188:
 4249 05d0 54494432 		.ascii	"TID2\000"
 4249      00
 4250              	.LASF192:
 4251 05d5 54494433 		.ascii	"TID3\000"
 4251      00
 4252              	.LASF301:
 4253 05da 7278636E 		.ascii	"rxcnt\000"
 4253      7400
 4254              	.LASF241:
 4255 05e0 41444343 		.ascii	"ADCConversionGroup\000"
 4255      6F6E7665 
 4255      7273696F 
 4255      6E47726F 
 4255      757000
 4256              	.LASF218:
 4257 05f3 4144435F 		.ascii	"ADC_COMPLETE\000"
 4257      434F4D50 
 4257      4C455445 
 4257      00
 4258              	.LASF223:
 4259 0600 4144435F 		.ascii	"ADC_ERR_OVERRUN\000"
 4259      4552525F 
 4259      4F564552 
 4259      52554E00 
 4260              	.LASF308:
 4261 0610 63707372 		.ascii	"cpsr\000"
 4261      00
 4262              	.LASF135:
 4263 0615 46494F44 		.ascii	"FIODIR0\000"
 4263      49523000 
 4264              	.LASF136:
 4265 061d 46494F44 		.ascii	"FIODIR1\000"
 4265      49523100 
 4266              	.LASF137:
 4267 0625 46494F44 		.ascii	"FIODIR2\000"
 4267      49523200 
 4268              	.LASF138:
 4269 062d 46494F44 		.ascii	"FIODIR3\000"
ARM GAS  /tmp/ccSAVTpe.s 			page 81


 4269      49523300 
 4270              	.LASF114:
 4271 0635 63665F6F 		.ascii	"cf_off_preempt\000"
 4271      66665F70 
 4271      7265656D 
 4271      707400
 4272              	.LASF134:
 4273 0644 46494F44 		.ascii	"FIODIRH\000"
 4273      49524800 
 4274              	.LASF133:
 4275 064c 46494F44 		.ascii	"FIODIRL\000"
 4275      49524C00 
 4276              	.LASF12:
 4277 0654 5F5F7569 		.ascii	"__uint32_t\000"
 4277      6E743332 
 4277      5F7400
 4278              	.LASF82:
 4279 065f 4D757465 		.ascii	"Mutex\000"
 4279      7800
 4280              	.LASF296:
 4281 0665 5350495F 		.ascii	"SPI_READY\000"
 4281      52454144 
 4281      5900
 4282              	.LASF1:
 4283 066f 6C6F6E67 		.ascii	"long long int\000"
 4283      206C6F6E 
 4283      6720696E 
 4283      7400
 4284              	.LASF247:
 4285 067d 43414E5F 		.ascii	"CAN_STARTING\000"
 4285      53544152 
 4285      54494E47 
 4285      00
 4286              	.LASF101:
 4287 068a 63685F76 		.ascii	"ch_version\000"
 4287      65727369 
 4287      6F6E00
 4288              	.LASF83:
 4289 0695 6D5F7175 		.ascii	"m_queue\000"
 4289      65756500 
 4290              	.LASF267:
 4291 069d 47505444 		.ascii	"GPTDriver\000"
 4291      72697665 
 4291      7200
 4292              	.LASF181:
 4293 06a7 41445452 		.ascii	"ADTRM\000"
 4293      4D00
 4294              	.LASF79:
 4295 06ad 53656D61 		.ascii	"Semaphore\000"
 4295      70686F72 
 4295      6500
 4296              	.LASF63:
 4297 06b7 76745F6E 		.ascii	"vt_next\000"
 4297      65787400 
 4298              	.LASF160:
 4299 06bf 46494F53 		.ascii	"FIOSET\000"
 4299      455400
ARM GAS  /tmp/ccSAVTpe.s 			page 82


 4300              	.LASF268:
 4301 06c6 636C6F63 		.ascii	"clock\000"
 4301      6B00
 4302              	.LASF235:
 4303 06cc 61646365 		.ascii	"adcerrorcallback_t\000"
 4303      72726F72 
 4303      63616C6C 
 4303      6261636B 
 4303      5F7400
 4304              	.LASF229:
 4305 06df 64657074 		.ascii	"depth\000"
 4305      6800
 4306              	.LASF211:
 4307 06e5 6D61736B 		.ascii	"mask\000"
 4307      00
 4308              	.LASF232:
 4309 06ea 6D757465 		.ascii	"mutex\000"
 4309      7800
 4310              	.LASF131:
 4311 06f0 49544D5F 		.ascii	"ITM_RxBuffer\000"
 4311      52784275 
 4311      66666572 
 4311      00
 4312              	.LASF271:
 4313 06fd 66726571 		.ascii	"frequency\000"
 4313      75656E63 
 4313      7900
 4314              	.LASF245:
 4315 0707 43414E5F 		.ascii	"CAN_UNINIT\000"
 4315      554E494E 
 4315      495400
 4316              	.LASF127:
 4317 0712 716E6F74 		.ascii	"qnotify_t\000"
 4317      6966795F 
 4317      7400
 4318              	.LASF265:
 4319 071c 4750545F 		.ascii	"GPT_ONESHOT\000"
 4319      4F4E4553 
 4319      484F5400 
 4320              	.LASF47:
 4321 0728 705F7761 		.ascii	"p_waiting\000"
 4321      6974696E 
 4321      6700
 4322              	.LASF283:
 4323 0732 6576656E 		.ascii	"event\000"
 4323      7400
 4324              	.LASF43:
 4325 0738 705F666C 		.ascii	"p_flags\000"
 4325      61677300 
 4326              	.LASF289:
 4327 0740 72656164 		.ascii	"read\000"
 4327      00
 4328              	.LASF281:
 4329 0745 73647374 		.ascii	"sdstate_t\000"
 4329      6174655F 
 4329      7400
 4330              	.LASF0:
ARM GAS  /tmp/ccSAVTpe.s 			page 83


 4331 074f 756E7369 		.ascii	"unsigned int\000"
 4331      676E6564 
 4331      20696E74 
 4331      00
 4332              	.LASF110:
 4333 075c 63665F6F 		.ascii	"cf_off_stklimit\000"
 4333      66665F73 
 4333      746B6C69 
 4333      6D697400 
 4334              	.LASF309:
 4335 076c 53504943 		.ascii	"SPIConfig\000"
 4335      6F6E6669 
 4335      6700
 4336              	.LASF297:
 4337 0776 5350495F 		.ascii	"SPI_ACTIVE\000"
 4337      41435449 
 4337      564500
 4338              	.LASF142:
 4339 0781 46494F4D 		.ascii	"FIOMASK0\000"
 4339      41534B30 
 4339      00
 4340              	.LASF143:
 4341 078a 46494F4D 		.ascii	"FIOMASK1\000"
 4341      41534B31 
 4341      00
 4342              	.LASF144:
 4343 0793 46494F4D 		.ascii	"FIOMASK2\000"
 4343      41534B32 
 4343      00
 4344              	.LASF145:
 4345 079c 46494F4D 		.ascii	"FIOMASK3\000"
 4345      41534B33 
 4345      00
 4346              	.LASF222:
 4347 07a5 6164635F 		.ascii	"adc_channels_num_t\000"
 4347      6368616E 
 4347      6E656C73 
 4347      5F6E756D 
 4347      5F7400
 4348              	.LASF53:
 4349 07b8 705F6D70 		.ascii	"p_mpool\000"
 4349      6F6F6C00 
 4350              	.LASF163:
 4351 07c0 46494F43 		.ascii	"FIOCLR0\000"
 4351      4C523000 
 4352              	.LASF164:
 4353 07c8 46494F43 		.ascii	"FIOCLR1\000"
 4353      4C523100 
 4354              	.LASF165:
 4355 07d0 46494F43 		.ascii	"FIOCLR2\000"
 4355      4C523200 
 4356              	.LASF166:
 4357 07d8 46494F43 		.ascii	"FIOCLR3\000"
 4357      4C523300 
 4358              	.LASF44:
 4359 07e0 705F7265 		.ascii	"p_refs\000"
 4359      667300
ARM GAS  /tmp/ccSAVTpe.s 			page 84


 4360              	.LASF141:
 4361 07e7 46494F4D 		.ascii	"FIOMASKH\000"
 4361      41534B48 
 4361      00
 4362              	.LASF140:
 4363 07f0 46494F4D 		.ascii	"FIOMASKL\000"
 4363      41534B4C 
 4363      00
 4364              	.LASF103:
 4365 07f9 63685F74 		.ascii	"ch_timesize\000"
 4365      696D6573 
 4365      697A6500 
 4366              	.LASF162:
 4367 0805 46494F43 		.ascii	"FIOCLRH\000"
 4367      4C524800 
 4368              	.LASF161:
 4369 080d 46494F43 		.ascii	"FIOCLRL\000"
 4369      4C524C00 
 4370              	.LASF315:
 4371 0815 62697473 		.ascii	"bits\000"
 4371      00
 4372              	.LASF319:
 4373 081a 474E5520 		.ascii	"GNU C11 6.3.1 20170620 -mcpu=cortex-m3 -mno-thumb-i"
 4373      43313120 
 4373      362E332E 
 4373      31203230 
 4373      31373036 
 4374 084d 6E746572 		.ascii	"nterwork -mthumb -ggdb -O2 -fomit-frame-pointer -ff"
 4374      776F726B 
 4374      202D6D74 
 4374      68756D62 
 4374      202D6767 
 4375 0880 756E6374 		.ascii	"unction-sections -fdata-sections -fno-common\000"
 4375      696F6E2D 
 4375      73656374 
 4375      696F6E73 
 4375      202D6664 
 4376              	.LASF55:
 4377 08ad 54687265 		.ascii	"ThreadsList\000"
 4377      6164734C 
 4377      69737400 
 4378              	.LASF244:
 4379 08b9 41444344 		.ascii	"ADCD1\000"
 4379      3100
 4380              	.LASF212:
 4381 08bf 6F666673 		.ascii	"offset\000"
 4381      657400
 4382              	.LASF31:
 4383 08c6 666C6167 		.ascii	"flagsmask_t\000"
 4383      736D6173 
 4383      6B5F7400 
 4384              	.LASF240:
 4385 08d2 696E7465 		.ascii	"inten\000"
 4385      6E00
 4386              	.LASF256:
 4387 08d8 6572726F 		.ascii	"error_event\000"
 4387      725F6576 
ARM GAS  /tmp/ccSAVTpe.s 			page 85


 4387      656E7400 
 4388              	.LASF46:
 4389 08e4 705F7469 		.ascii	"p_time\000"
 4389      6D6500
 4390              	.LASF139:
 4391 08eb 46494F44 		.ascii	"FIODIR\000"
 4391      495200
 4392              	.LASF113:
 4393 08f2 63665F6F 		.ascii	"cf_off_refs\000"
 4393      66665F72 
 4393      65667300 
 4394              	.LASF172:
 4395 08fe 4C50435F 		.ascii	"LPC_TIM_TypeDef\000"
 4395      54494D5F 
 4395      54797065 
 4395      44656600 
 4396              	.LASF317:
 4397 090e 5F70616C 		.ascii	"_pal_lld_writegroup\000"
 4397      5F6C6C64 
 4397      5F777269 
 4397      74656772 
 4397      6F757000 
 4398              	.LASF167:
 4399 0922 46494F43 		.ascii	"FIOCLR\000"
 4399      4C5200
 4400              	.LASF2:
 4401 0929 6C6F6E67 		.ascii	"long double\000"
 4401      20646F75 
 4401      626C6500 
 4402              	.LASF52:
 4403 0935 705F7265 		.ascii	"p_realprio\000"
 4403      616C7072 
 4403      696F00
 4404              	.LASF115:
 4405 0940 63665F6F 		.ascii	"cf_off_time\000"
 4405      66665F74 
 4405      696D6500 
 4406              	.LASF217:
 4407 094c 4144435F 		.ascii	"ADC_ACTIVE\000"
 4407      41435449 
 4407      564500
 4408              	.LASF321:
 4409 0957 2F686F6D 		.ascii	"/home/ekobayu/Arok-Gandring-Lokajaya/LPC/ChibiOS-RT"
 4409      652F656B 
 4409      6F626179 
 4409      752F4172 
 4409      6F6B2D47 
 4410 098a 2D4C5043 		.ascii	"-LPC/Chibi_LPC1766\000"
 4410      2F436869 
 4410      62695F4C 
 4410      50433137 
 4410      363600
 4411              	.LASF81:
 4412 099d 735F636E 		.ascii	"s_cnt\000"
 4412      7400
 4413              	.LASF15:
 4414 09a3 6C6F6E67 		.ascii	"long long unsigned int\000"
ARM GAS  /tmp/ccSAVTpe.s 			page 86


 4414      206C6F6E 
 4414      6720756E 
 4414      7369676E 
 4414      65642069 
 4415              	.LASF40:
 4416 09ba 705F6F6C 		.ascii	"p_older\000"
 4416      64657200 
 4417              	.LASF17:
 4418 09c2 75696E74 		.ascii	"uint16_t\000"
 4418      31365F74 
 4418      00
 4419              	.LASF29:
 4420 09cb 6D73675F 		.ascii	"msg_t\000"
 4420      7400
 4421              	.LASF153:
 4422 09d1 46494F50 		.ascii	"FIOPIN\000"
 4422      494E00
 4423              	.LASF112:
 4424 09d8 63665F6F 		.ascii	"cf_off_flags\000"
 4424      66665F66 
 4424      6C616773 
 4424      00
 4425              	.LASF27:
 4426 09e5 74736C69 		.ascii	"tslices_t\000"
 4426      6365735F 
 4426      7400
 4427              	.LASF263:
 4428 09ef 4750545F 		.ascii	"GPT_READY\000"
 4428      52454144 
 4428      5900
 4429              	.LASF264:
 4430 09f9 4750545F 		.ascii	"GPT_CONTINUOUS\000"
 4430      434F4E54 
 4430      494E554F 
 4430      555300
 4431              	.LASF75:
 4432 0a08 725F6375 		.ascii	"r_current\000"
 4432      7272656E 
 4432      7400
 4433              	.LASF69:
 4434 0a12 56544C69 		.ascii	"VTList\000"
 4434      737400
 4435              	.LASF225:
 4436 0a19 41444344 		.ascii	"ADCDriver\000"
 4436      72697665 
 4436      7200
 4437              	.LASF174:
 4438 0a23 4C50435F 		.ascii	"LPC_UART_TypeDef\000"
 4438      55415254 
 4438      5F547970 
 4438      65446566 
 4438      00
 4439              	.LASF198:
 4440 0a34 434C4C49 		.ascii	"CLLI\000"
 4440      00
 4441              	.LASF70:
 4442 0a39 725F7175 		.ascii	"r_queue\000"
ARM GAS  /tmp/ccSAVTpe.s 			page 87


 4442      65756500 
 4443              	.LASF260:
 4444 0a41 43414E44 		.ascii	"CAND1\000"
 4444      3100
 4445              	.LASF282:
 4446 0a47 53657269 		.ascii	"SerialDriver\000"
 4446      616C4472 
 4446      69766572 
 4446      00
 4447              	.LASF119:
 4448 0a54 715F7761 		.ascii	"q_waiting\000"
 4448      6974696E 
 4448      6700
 4449              	.LASF78:
 4450 0a5e 726C6973 		.ascii	"rlist\000"
 4450      7400
 4451              	.LASF24:
 4452 0a64 746D6F64 		.ascii	"tmode_t\000"
 4452      655F7400 
 4453              	.LASF242:
 4454 0a6c 64756D6D 		.ascii	"dummy\000"
 4454      7900
 4455              	.LASF215:
 4456 0a72 4144435F 		.ascii	"ADC_STOP\000"
 4456      53544F50 
 4456      00
 4457              	.LASF175:
 4458 0a7b 43505352 		.ascii	"CPSR\000"
 4458      00
 4459              	.LASF68:
 4460 0a80 76745F73 		.ascii	"vt_systime\000"
 4460      79737469 
 4460      6D6500
 4461              	.LASF280:
 4462 0a8b 53445F52 		.ascii	"SD_READY\000"
 4462      45414459 
 4462      00
 4463              	.LASF255:
 4464 0a94 7478656D 		.ascii	"txempty_event\000"
 4464      7074795F 
 4464      6576656E 
 4464      7400
 4465              	.LASF230:
 4466 0aa2 67727070 		.ascii	"grpp\000"
 4466      00
 4467              	.LASF74:
 4468 0aa7 725F6F6C 		.ascii	"r_older\000"
 4468      64657200 
 4469              	.LASF231:
 4470 0aaf 74687265 		.ascii	"thread\000"
 4470      616400
 4471              	.LASF80:
 4472 0ab6 735F7175 		.ascii	"s_queue\000"
 4472      65756500 
 4473              	.LASF21:
 4474 0abe 75696E74 		.ascii	"uint_fast8_t\000"
 4474      5F666173 
ARM GAS  /tmp/ccSAVTpe.s 			page 88


 4474      74385F74 
 4474      00
 4475              	.LASF7:
 4476 0acb 73686F72 		.ascii	"short int\000"
 4476      7420696E 
 4476      7400
 4477              	.LASF20:
 4478 0ad5 75696E74 		.ascii	"uint64_t\000"
 4478      36345F74 
 4478      00
 4479              	.LASF312:
 4480 0ade 6D6F6465 		.ascii	"mode\000"
 4480      00
 4481              	.LASF286:
 4482 0ae3 75617274 		.ascii	"uart\000"
 4482      00
 4483              	.LASF284:
 4484 0ae8 69717565 		.ascii	"iqueue\000"
 4484      756500
 4485              	.LASF322:
 4486 0aef 70616C52 		.ascii	"palReadBus\000"
 4486      65616442 
 4486      757300
 4487              	.LASF71:
 4488 0afa 725F7072 		.ascii	"r_prio\000"
 4488      696F00
 4489              	.LASF204:
 4490 0b01 6C706331 		.ascii	"lpc17xx_gpio_setup_t\000"
 4490      3778785F 
 4490      6770696F 
 4490      5F736574 
 4490      75705F74 
 4491              	.LASF22:
 4492 0b16 626F6F6C 		.ascii	"bool_t\000"
 4492      5F7400
 4493              	.LASF108:
 4494 0b1d 63665F6F 		.ascii	"cf_off_older\000"
 4494      66665F6F 
 4494      6C646572 
 4494      00
 4495              	.LASF205:
 4496 0b2a 50414C43 		.ascii	"PALConfig\000"
 4496      6F6E6669 
 4496      6700
 4497              	.LASF34:
 4498 0b34 54687265 		.ascii	"Thread\000"
 4498      616400
 4499              	.LASF77:
 4500 0b3b 76746C69 		.ascii	"vtlist\000"
 4500      737400
 4501              	.LASF200:
 4502 0b42 43436F6E 		.ascii	"CConfig\000"
 4502      66696700 
 4503              	.LASF313:
 4504 0b4a 70616C53 		.ascii	"palSetBusMode\000"
 4504      65744275 
 4504      734D6F64 
ARM GAS  /tmp/ccSAVTpe.s 			page 89


 4504      6500
 4505              	.LASF26:
 4506 0b58 74726566 		.ascii	"trefs_t\000"
 4506      735F7400 
 4507              	.LASF130:
 4508 0b60 5F69646C 		.ascii	"_idle_thread_wa\000"
 4508      655F7468 
 4508      72656164 
 4508      5F776100 
 4509              	.LASF183:
 4510 0b70 54464931 		.ascii	"TFI1\000"
 4510      00
 4511              	.LASF179:
 4512 0b75 494E5445 		.ascii	"INTEN\000"
 4512      4E00
 4513              	.LASF86:
 4514 0b7b 4576656E 		.ascii	"EventListener\000"
 4514      744C6973 
 4514      74656E65 
 4514      7200
 4515              	.LASF314:
 4516 0b89 70616C57 		.ascii	"palWriteBus\000"
 4516      72697465 
 4516      42757300 
 4517              	.LASF19:
 4518 0b95 75696E74 		.ascii	"uint32_t\000"
 4518      33325F74 
 4518      00
 4519              	.LASF62:
 4520 0b9e 56697274 		.ascii	"VirtualTimer\000"
 4520      75616C54 
 4520      696D6572 
 4520      00
 4521              	.LASF54:
 4522 0bab 54687265 		.ascii	"ThreadsQueue\000"
 4522      61647351 
 4522      75657565 
 4522      00
 4523              	.LASF298:
 4524 0bb8 5350495F 		.ascii	"SPI_COMPLETE\000"
 4524      434F4D50 
 4524      4C455445 
 4524      00
 4525              	.LASF169:
 4526 0bc5 4C50435F 		.ascii	"LPC_GPIO_TypeDef\000"
 4526      4750494F 
 4526      5F547970 
 4526      65446566 
 4526      00
 4527              	.LASF93:
 4528 0bd6 7264796D 		.ascii	"rdymsg\000"
 4528      736700
 4529              	.LASF262:
 4530 0bdd 4750545F 		.ascii	"GPT_STOP\000"
 4530      53544F50 
 4530      00
 4531              	.LASF9:
ARM GAS  /tmp/ccSAVTpe.s 			page 90


 4532 0be6 73686F72 		.ascii	"short unsigned int\000"
 4532      7420756E 
 4532      7369676E 
 4532      65642069 
 4532      6E7400
 4533              	.LASF214:
 4534 0bf9 4144435F 		.ascii	"ADC_UNINIT\000"
 4534      554E494E 
 4534      495400
 4535              	.LASF116:
 4536 0c04 63686465 		.ascii	"chdebug_t\000"
 4536      6275675F 
 4536      7400
 4537              	.LASF299:
 4538 0c0e 73706973 		.ascii	"spistate_t\000"
 4538      74617465 
 4538      5F7400
 4539              	.LASF128:
 4540 0c19 496E7075 		.ascii	"InputQueue\000"
 4540      74517565 
 4540      756500
 4541              	.LASF100:
 4542 0c24 63685F73 		.ascii	"ch_size\000"
 4542      697A6500 
 4543              	.LASF318:
 4544 0c2c 5F70616C 		.ascii	"_pal_lld_readgroup\000"
 4544      5F6C6C64 
 4544      5F726561 
 4544      6467726F 
 4544      757000
 4545              	.LASF10:
 4546 0c3f 5F5F696E 		.ascii	"__int32_t\000"
 4546      7433325F 
 4546      7400
 4547              	.LASF279:
 4548 0c49 53445F53 		.ascii	"SD_STOP\000"
 4548      544F5000 
 4549              	.LASF89:
 4550 0c51 656C5F6D 		.ascii	"el_mask\000"
 4550      61736B00 
 4551              	.LASF76:
 4552 0c59 52656164 		.ascii	"ReadyList\000"
 4552      794C6973 
 4552      7400
 4553              	.LASF307:
 4554 0c63 73737061 		.ascii	"sspad\000"
 4554      6400
 4555              	.LASF159:
 4556 0c69 46494F53 		.ascii	"FIOSET3\000"
 4556      45543300 
 4557              	.LASF304:
 4558 0c71 74787074 		.ascii	"txptr\000"
 4558      7200
 4559              	.LASF246:
 4560 0c77 43414E5F 		.ascii	"CAN_STOP\000"
 4560      53544F50 
 4560      00
ARM GAS  /tmp/ccSAVTpe.s 			page 91


 4561              	.LASF41:
 4562 0c80 705F6E61 		.ascii	"p_name\000"
 4562      6D6500
 4563              	.LASF65:
 4564 0c87 76745F74 		.ascii	"vt_time\000"
 4564      696D6500 
 4565              	.LASF203:
 4566 0c8f 64617461 		.ascii	"data\000"
 4566      00
 4567              	.LASF85:
 4568 0c94 6D5F6E65 		.ascii	"m_next\000"
 4568      787400
 4569              	.LASF269:
 4570 0c9b 67707463 		.ascii	"gptcallback_t\000"
 4570      616C6C62 
 4570      61636B5F 
 4570      7400
 4571              	.LASF49:
 4572 0ca9 705F6D73 		.ascii	"p_msg\000"
 4572      6700
 4573              	.LASF88:
 4574 0caf 656C5F6C 		.ascii	"el_listener\000"
 4574      69737465 
 4574      6E657200 
 4575              	.LASF243:
 4576 0cbb 41444343 		.ascii	"ADCConfig\000"
 4576      6F6E6669 
 4576      6700
 4577              	.LASF42:
 4578 0cc5 705F7374 		.ascii	"p_state\000"
 4578      61746500 
 4579              		.ident	"GCC: (15:6.3.1+svn253039-1build1) 6.3.1 20170620"
ARM GAS  /tmp/ccSAVTpe.s 			page 92


DEFINED SYMBOLS
                            *ABS*:0000000000000000 pal.c
     /tmp/ccSAVTpe.s:16     .text.palReadBus:0000000000000000 $t
     /tmp/ccSAVTpe.s:24     .text.palReadBus:0000000000000000 palReadBus
     /tmp/ccSAVTpe.s:42     .text.palWriteBus:0000000000000000 $t
     /tmp/ccSAVTpe.s:50     .text.palWriteBus:0000000000000000 palWriteBus
     /tmp/ccSAVTpe.s:68     .text.palSetBusMode:0000000000000000 $t
     /tmp/ccSAVTpe.s:76     .text.palSetBusMode:0000000000000000 palSetBusMode
                     .debug_frame:0000000000000010 $d

UNDEFINED SYMBOLS
_pal_lld_readgroup
_pal_lld_writegroup
_pal_lld_setgroupmode
