ARM GAS  /tmp/ccSAVTpe.s 			page 1


   1              		.cpu cortex-m3
   2              		.eabi_attribute 20, 1
   3              		.eabi_attribute 21, 1
   4              		.eabi_attribute 23, 3
   5              		.eabi_attribute 24, 1
   6              		.eabi_attribute 25, 1
   7              		.eabi_attribute 26, 1
   8              		.eabi_attribute 30, 2
   9              		.eabi_attribute 34, 1
  10              		.eabi_attribute 18, 4
  11              		.file	"pal.c"
  12              		.text
  13              	.Ltext0:
  14              		.cfi_sections	.debug_frame
  15              		.section	.text.palReadBus,"ax",%progbits
  16              		.align	1
  17              		.p2align 2,,3
  18              		.global	palReadBus
  19              		.syntax unified
  20              		.thumb
  21              		.thumb_func
  22              		.fpu softvfp
  23              		.type	palReadBus, %function
  24              	palReadBus:
  25              	.LFB63:
  26              		.file 1 "../os/hal/src/pal.c"
  27              		.loc 1 70 0
  28              		.cfi_startproc
  29              		@ args = 0, pretend = 0, frame = 0
  30              		@ frame_needed = 0, uses_anonymous_args = 0
  31              		@ link register save eliminated.
  32              	.LVL0:
  33              		.loc 1 75 0
  34 0000 07C8     		ldm	r0, {r0, r1, r2}
  35              	.LVL1:
  36 0002 FFF7FEBF 		b	_pal_lld_readgroup
  37              	.LVL2:
  38              		.cfi_endproc
  39              	.LFE63:
  40              		.size	palReadBus, .-palReadBus
  41 0006 00BF     		.section	.text.palWriteBus,"ax",%progbits
  42              		.align	1
  43              		.p2align 2,,3
  44              		.global	palWriteBus
  45              		.syntax unified
  46              		.thumb
  47              		.thumb_func
  48              		.fpu softvfp
  49              		.type	palWriteBus, %function
  50              	palWriteBus:
  51              	.LFB64:
  52              		.loc 1 96 0
  53              		.cfi_startproc
  54              		@ args = 0, pretend = 0, frame = 0
  55              		@ frame_needed = 0, uses_anonymous_args = 0
  56              		@ link register save eliminated.
  57              	.LVL3:
ARM GAS  /tmp/ccSAVTpe.s 			page 2


  58              		.loc 1 101 0
  59 0000 0B46     		mov	r3, r1
  60 0002 07C8     		ldm	r0, {r0, r1, r2}
  61              	.LVL4:
  62 0004 FFF7FEBF 		b	_pal_lld_writegroup
  63              	.LVL5:
  64              		.cfi_endproc
  65              	.LFE64:
  66              		.size	palWriteBus, .-palWriteBus
  67              		.section	.text.palSetBusMode,"ax",%progbits
  68              		.align	1
  69              		.p2align 2,,3
  70              		.global	palSetBusMode
  71              		.syntax unified
  72              		.thumb
  73              		.thumb_func
  74              		.fpu softvfp
  75              		.type	palSetBusMode, %function
  76              	palSetBusMode:
  77              	.LFB65:
  78              		.loc 1 120 0
  79              		.cfi_startproc
  80              		@ args = 0, pretend = 0, frame = 0
  81              		@ frame_needed = 0, uses_anonymous_args = 0
  82              		@ link register save eliminated.
  83              	.LVL6:
  84 0000 10B4     		push	{r4}
  85              		.cfi_def_cfa_offset 4
  86              		.cfi_offset 4, -4
  87              		.loc 1 125 0
  88 0002 8368     		ldr	r3, [r0, #8]
  89 0004 4468     		ldr	r4, [r0, #4]
  90 0006 0A46     		mov	r2, r1
  91 0008 0068     		ldr	r0, [r0]
  92              	.LVL7:
  93 000a 04FA03F1 		lsl	r1, r4, r3
  94              	.LVL8:
  95              		.loc 1 126 0
  96 000e 10BC     		pop	{r4}
  97              		.cfi_restore 4
  98              		.cfi_def_cfa_offset 0
  99              		.loc 1 125 0
 100 0010 FFF7FEBF 		b	_pal_lld_setgroupmode
 101              	.LVL9:
 102              		.cfi_endproc
 103              	.LFE65:
 104              		.size	palSetBusMode, .-palSetBusMode
 105              		.text
 106              	.Letext0:
 107              		.file 2 "/usr/lib/gcc/arm-none-eabi/6.3.1/include/stddef.h"
 108              		.file 3 "/usr/include/newlib/machine/_default_types.h"
 109              		.file 4 "/usr/include/newlib/sys/_stdint.h"
 110              		.file 5 "/usr/include/newlib/stdint.h"
 111              		.file 6 "../os/ports/GCC/ARMCMx/chtypes.h"
 112              		.file 7 "../os/kernel/include/chlists.h"
 113              		.file 8 "../os/kernel/include/chthreads.h"
 114              		.file 9 "../os/ports/GCC/ARMCMx/chcore_v7m.h"
ARM GAS  /tmp/ccSAVTpe.s 			page 3


 115              		.file 10 "../os/kernel/include/chvt.h"
 116              		.file 11 "../os/kernel/include/chschd.h"
 117              		.file 12 "../os/kernel/include/chsem.h"
 118              		.file 13 "../os/kernel/include/chmtx.h"
 119              		.file 14 "../os/kernel/include/chevents.h"
 120              		.file 15 "../os/kernel/include/chregistry.h"
 121              		.file 16 "../os/kernel/include/chqueues.h"
 122              		.file 17 "../os/kernel/include/ch.h"
 123              		.file 18 "../os/ports/common/ARMCMx/CMSIS/include/core_cm3.h"
 124              		.file 19 "../os/hal/platforms/LPC17xx/system_LPC17xx.h"
 125              		.file 20 "../os/hal/platforms/LPC17xx/LPC17xx.h"
 126              		.file 21 "../os/hal/platforms/LPC17xx/lpc17xx_dma.h"
 127              		.file 22 "../os/hal/platforms/LPC17xx/pal_lld.h"
 128              		.file 23 "../os/hal/include/pal.h"
 129              		.file 24 "../os/hal/include/adc.h"
 130              		.file 25 "../os/hal/platforms/LPC17xx/adc_lld.h"
 131              		.file 26 "../os/hal/include/can.h"
 132              		.file 27 "../os/hal/platforms/LPC17xx/can_lld.h"
 133              		.file 28 "../os/hal/include/gpt.h"
 134              		.file 29 "../os/hal/platforms/LPC17xx/gpt_lld.h"
 135              		.file 30 "../os/hal/include/serial.h"
 136              		.file 31 "../os/hal/platforms/LPC17xx/serial_lld.h"
 137              		.file 32 "../os/hal/include/spi.h"
 138              		.file 33 "../os/hal/platforms/LPC17xx/spi_lld.h"