ARM GAS  /tmp/ccHbY6vn.s 			page 1


   1              		.cpu cortex-m3
   2              		.eabi_attribute 20, 1
   3              		.eabi_attribute 21, 1
   4              		.eabi_attribute 23, 3
   5              		.eabi_attribute 24, 1
   6              		.eabi_attribute 25, 1
   7              		.eabi_attribute 26, 1
   8              		.eabi_attribute 30, 2
   9              		.eabi_attribute 34, 1
  10              		.eabi_attribute 18, 4
  11              		.file	"pal_lld.c"
  12              		.text
  13              	.Ltext0:
  14              		.cfi_sections	.debug_frame
  15              		.section	.text._pal_lld_init,"ax",%progbits
  16              		.align	1
  17              		.p2align 2,,3
  18              		.global	_pal_lld_init
  19              		.syntax unified
  20              		.thumb
  21              		.thumb_func
  22              		.fpu softvfp
  23              		.type	_pal_lld_init, %function
  24              	_pal_lld_init:
  25              	.LFB63:
  26              		.file 1 "../os/hal/platforms/LPC17xx/pal_lld.c"
  27              		.loc 1 57 0
  28              		.cfi_startproc
  29              		@ args = 0, pretend = 0, frame = 0
  30              		@ frame_needed = 0, uses_anonymous_args = 0
  31              		@ link register save eliminated.
  32              	.LVL0:
  33              		.loc 1 64 0
  34 0000 0023     		movs	r3, #0
  35              		.loc 1 57 0
  36 0002 F0B4     		push	{r4, r5, r6, r7}
  37              		.cfi_def_cfa_offset 16
  38              		.cfi_offset 4, -16
  39              		.cfi_offset 5, -12
  40              		.cfi_offset 6, -8
  41              		.cfi_offset 7, -4
  42              		.loc 1 59 0
  43 0004 4268     		ldr	r2, [r0, #4]
  44 0006 0F4E     		ldr	r6, .L3
  45              		.loc 1 60 0
  46 0008 0F4D     		ldr	r5, .L3+4
  47              		.loc 1 59 0
  48 000a 3260     		str	r2, [r6]
  49              		.loc 1 60 0
  50 000c C268     		ldr	r2, [r0, #12]
  51              		.loc 1 61 0
  52 000e 0F4C     		ldr	r4, .L3+8
  53              		.loc 1 60 0
  54 0010 2A60     		str	r2, [r5]
  55              		.loc 1 61 0
  56 0012 4269     		ldr	r2, [r0, #20]
  57              		.loc 1 62 0
ARM GAS  /tmp/ccHbY6vn.s 			page 2


  58 0014 0E49     		ldr	r1, .L3+12
  59              		.loc 1 61 0
  60 0016 2260     		str	r2, [r4]
  61              		.loc 1 62 0
  62 0018 C769     		ldr	r7, [r0, #28]
  63              		.loc 1 63 0
  64 001a 0E4A     		ldr	r2, .L3+16
  65              		.loc 1 62 0
  66 001c 0F60     		str	r7, [r1]
  67              		.loc 1 63 0
  68 001e 476A     		ldr	r7, [r0, #36]
  69 0020 1760     		str	r7, [r2]
  70              		.loc 1 64 0
  71 0022 3361     		str	r3, [r6, #16]
  72              		.loc 1 65 0
  73 0024 2B61     		str	r3, [r5, #16]
  74              		.loc 1 66 0
  75 0026 2361     		str	r3, [r4, #16]
  76              		.loc 1 67 0
  77 0028 0B61     		str	r3, [r1, #16]
  78              		.loc 1 68 0
  79 002a 1361     		str	r3, [r2, #16]
  80              		.loc 1 69 0
  81 002c 0368     		ldr	r3, [r0]
  82 002e 7361     		str	r3, [r6, #20]
  83              		.loc 1 70 0
  84 0030 8368     		ldr	r3, [r0, #8]
  85 0032 6B61     		str	r3, [r5, #20]
  86              		.loc 1 71 0
  87 0034 0369     		ldr	r3, [r0, #16]
  88 0036 6361     		str	r3, [r4, #20]
  89              		.loc 1 72 0
  90 0038 8369     		ldr	r3, [r0, #24]
  91 003a 4B61     		str	r3, [r1, #20]
  92              		.loc 1 73 0
  93 003c 036A     		ldr	r3, [r0, #32]
  94 003e 5361     		str	r3, [r2, #20]
  95              		.loc 1 74 0
  96 0040 F0BC     		pop	{r4, r5, r6, r7}
  97              		.cfi_restore 7
  98              		.cfi_restore 6
  99              		.cfi_restore 5
 100              		.cfi_restore 4
 101              		.cfi_def_cfa_offset 0
 102 0042 7047     		bx	lr
 103              	.L4:
 104              		.align	2
 105              	.L3:
 106 0044 00C00920 		.word	537509888
 107 0048 20C00920 		.word	537509920
 108 004c 40C00920 		.word	537509952
 109 0050 60C00920 		.word	537509984
 110 0054 80C00920 		.word	537510016
 111              		.cfi_endproc
 112              	.LFE63:
 113              		.size	_pal_lld_init, .-_pal_lld_init
 114              		.section	.text._pal_lld_readgroup,"ax",%progbits
ARM GAS  /tmp/ccHbY6vn.s 			page 3


 115              		.align	1
 116              		.p2align 2,,3
 117              		.global	_pal_lld_readgroup
 118              		.syntax unified
 119              		.thumb
 120              		.thumb_func
 121              		.fpu softvfp
 122              		.type	_pal_lld_readgroup, %function
 123              	_pal_lld_readgroup:
 124              	.LFB64:
 125              		.loc 1 91 0
 126              		.cfi_startproc
 127              		@ args = 0, pretend = 0, frame = 0
 128              		@ frame_needed = 0, uses_anonymous_args = 0
 129              		@ link register save eliminated.
 130              	.LVL1:
 131              		.loc 1 95 0
 132 0000 01FA02F2 		lsl	r2, r1, r2
 133              	.LVL2:
 134 0004 D243     		mvns	r2, r2
 135              		.loc 1 91 0
 136 0006 0346     		mov	r3, r0
 137              		.loc 1 97 0
 138 0008 0021     		movs	r1, #0
 139              	.LVL3:
 140              		.loc 1 95 0
 141 000a 0261     		str	r2, [r0, #16]
 142              		.loc 1 96 0
 143 000c 4069     		ldr	r0, [r0, #20]
 144              	.LVL4:
 145              		.loc 1 97 0
 146 000e 1961     		str	r1, [r3, #16]
 147              		.loc 1 99 0
 148 0010 7047     		bx	lr
 149              		.cfi_endproc
 150              	.LFE64:
 151              		.size	_pal_lld_readgroup, .-_pal_lld_readgroup
 152 0012 00BF     		.section	.text._pal_lld_writegroup,"ax",%progbits
 153              		.align	1
 154              		.p2align 2,,3
 155              		.global	_pal_lld_writegroup
 156              		.syntax unified
 157              		.thumb
 158              		.thumb_func
 159              		.fpu softvfp
 160              		.type	_pal_lld_writegroup, %function
 161              	_pal_lld_writegroup:
 162              	.LFB65:
 163              		.loc 1 118 0
 164              		.cfi_startproc
 165              		@ args = 0, pretend = 0, frame = 0
 166              		@ frame_needed = 0, uses_anonymous_args = 0
 167              		@ link register save eliminated.
 168              	.LVL5:
 169              		.loc 1 120 0
 170 0000 01FA02F2 		lsl	r2, r1, r2
 171              	.LVL6:
ARM GAS  /tmp/ccHbY6vn.s 			page 4


 172 0004 D243     		mvns	r2, r2
 173              		.loc 1 122 0
 174 0006 0021     		movs	r1, #0
 175              	.LVL7:
 176              		.loc 1 120 0
 177 0008 0261     		str	r2, [r0, #16]
 178              		.loc 1 121 0
 179 000a 4361     		str	r3, [r0, #20]
 180              		.loc 1 122 0
 181 000c 0161     		str	r1, [r0, #16]
 182 000e 7047     		bx	lr
 183              		.cfi_endproc
 184              	.LFE65:
 185              		.size	_pal_lld_writegroup, .-_pal_lld_writegroup
 186              		.section	.text._pal_lld_setgroupmode,"ax",%progbits
 187              		.align	1
 188              		.p2align 2,,3
 189              		.global	_pal_lld_setgroupmode
 190              		.syntax unified
 191              		.thumb
 192              		.thumb_func
 193              		.fpu softvfp
 194              		.type	_pal_lld_setgroupmode, %function
 195              	_pal_lld_setgroupmode:
 196              	.LFB66:
 197              		.loc 1 141 0
 198              		.cfi_startproc
 199              		@ args = 0, pretend = 0, frame = 0
 200              		@ frame_needed = 0, uses_anonymous_args = 0
 201              		@ link register save eliminated.
 202              	.LVL8:
 203              		.loc 1 143 0
 204 0000 062A     		cmp	r2, #6
 205 0002 0BD8     		bhi	.L7
 206 0004 DFE802F0 		tbb	[pc, r2]
 207              	.L10:
 208 0008 0B       		.byte	(.L9-.L10)/2
 209 0009 04       		.byte	(.L11-.L10)/2
 210 000a 0B       		.byte	(.L9-.L10)/2
 211 000b 0A       		.byte	(.L7-.L10)/2
 212 000c 0A       		.byte	(.L7-.L10)/2
 213 000d 0A       		.byte	(.L7-.L10)/2
 214 000e 07       		.byte	(.L12-.L10)/2
 215 000f 00       		.p2align 1
 216              	.L11:
 217              		.loc 1 149 0
 218 0010 4FF0FF33 		mov	r3, #-1
 219 0014 8361     		str	r3, [r0, #24]
 220              	.L12:
 221              		.loc 1 151 0
 222 0016 0368     		ldr	r3, [r0]
 223 0018 1943     		orrs	r1, r1, r3
 224              	.LVL9:
 225 001a 0160     		str	r1, [r0]
 226              	.L7:
 227 001c 7047     		bx	lr
 228              	.LVL10:
ARM GAS  /tmp/ccHbY6vn.s 			page 5


 229              	.L9:
 230              		.loc 1 146 0
 231 001e 0368     		ldr	r3, [r0]
 232 0020 23EA0101 		bic	r1, r3, r1
 233              	.LVL11:
 234 0024 0160     		str	r1, [r0]
 235              		.loc 1 147 0
 236 0026 7047     		bx	lr
 237              		.cfi_endproc
 238              	.LFE66:
 239              		.size	_pal_lld_setgroupmode, .-_pal_lld_setgroupmode
 240              		.text
 241              	.Letext0:
 242              		.file 2 "/usr/lib/gcc/arm-none-eabi/6.3.1/include/stddef.h"
 243              		.file 3 "/usr/include/newlib/machine/_default_types.h"
 244              		.file 4 "/usr/include/newlib/sys/_stdint.h"
 245              		.file 5 "../os/ports/GCC/ARMCMx/chtypes.h"
 246              		.file 6 "../os/kernel/include/chlists.h"
 247              		.file 7 "../os/kernel/include/chthreads.h"
 248              		.file 8 "../os/ports/GCC/ARMCMx/chcore_v7m.h"
 249              		.file 9 "../os/kernel/include/chvt.h"
 250              		.file 10 "../os/kernel/include/chschd.h"
 251              		.file 11 "../os/kernel/include/chsem.h"
 252              		.file 12 "../os/kernel/include/chmtx.h"
 253              		.file 13 "../os/kernel/include/chevents.h"
 254              		.file 14 "../os/kernel/include/chregistry.h"
 255              		.file 15 "../os/kernel/include/chqueues.h"
 256              		.file 16 "../os/kernel/include/ch.h"
 257              		.file 17 "../os/ports/common/ARMCMx/CMSIS/include/core_cm3.h"
 258              		.file 18 "../os/hal/platforms/LPC17xx/system_LPC17xx.h"
 259              		.file 19 "../os/hal/platforms/LPC17xx/LPC17xx.h"
 260              		.file 20 "../os/hal/platforms/LPC17xx/lpc17xx_dma.h"
 261              		.file 21 "../os/hal/platforms/LPC17xx/pal_lld.h"
 262              		.file 22 "../os/hal/include/adc.h"
 263              		.file 23 "../os/hal/platforms/LPC17xx/adc_lld.h"
 264              		.file 24 "../os/hal/include/can.h"
 265              		.file 25 "../os/hal/platforms/LPC17xx/can_lld.h"
 266              		.file 26 "../os/hal/include/gpt.h"
 267              		.file 27 "../os/hal/platforms/LPC17xx/gpt_lld.h"
 268              		.file 28 "../os/hal/include/serial.h"
 269              		.file 29 "../os/hal/platforms/LPC17xx/serial_lld.h"
 270              		.file 30 "../os/hal/include/spi.h"
 271              		.file 31 "../os/hal/platforms/LPC17xx/spi_lld.h"
 272              		.section	.debug_info,"",%progbits
 273              	.Ldebug_info0:
 274 0000 2D190000 		.4byte	0x192d
 275 0004 0400     		.2byte	0x4
 276 0006 00000000 		.4byte	.Ldebug_abbrev0
 277 000a 04       		.byte	0x4
 278 000b 01       		.uleb128 0x1
 279 000c 2D080000 		.4byte	.LASF315
 280 0010 0C       		.byte	0xc
 281 0011 D3040000 		.4byte	.LASF316
 282 0015 6A090000 		.4byte	.LASF317
 283 0019 00000000 		.4byte	.Ldebug_ranges0+0
 284 001d 00000000 		.4byte	0
 285 0021 00000000 		.4byte	.Ldebug_line0
ARM GAS  /tmp/ccHbY6vn.s 			page 6


 286 0025 02       		.uleb128 0x2
 287 0026 04       		.byte	0x4
 288 0027 05       		.byte	0x5
 289 0028 696E7400 		.ascii	"int\000"
 290 002c 03       		.uleb128 0x3
 291 002d 00000000 		.4byte	.LASF4
 292 0031 02       		.byte	0x2
 293 0032 D8       		.byte	0xd8
 294 0033 37000000 		.4byte	0x37
 295 0037 04       		.uleb128 0x4
 296 0038 04       		.byte	0x4
 297 0039 07       		.byte	0x7
 298 003a 54070000 		.4byte	.LASF0
 299 003e 04       		.uleb128 0x4
 300 003f 08       		.byte	0x8
 301 0040 05       		.byte	0x5
 302 0041 74060000 		.4byte	.LASF1
 303 0045 04       		.uleb128 0x4
 304 0046 08       		.byte	0x8
 305 0047 04       		.byte	0x4
 306 0048 3C090000 		.4byte	.LASF2
 307 004c 04       		.uleb128 0x4
 308 004d 01       		.byte	0x1
 309 004e 06       		.byte	0x6
 310 004f AA020000 		.4byte	.LASF3
 311 0053 03       		.uleb128 0x3
 312 0054 9F010000 		.4byte	.LASF5
 313 0058 03       		.byte	0x3
 314 0059 1D       		.byte	0x1d
 315 005a 5E000000 		.4byte	0x5e
 316 005e 04       		.uleb128 0x4
 317 005f 01       		.byte	0x1
 318 0060 08       		.byte	0x8
 319 0061 13030000 		.4byte	.LASF6
 320 0065 04       		.uleb128 0x4
 321 0066 02       		.byte	0x2
 322 0067 05       		.byte	0x5
 323 0068 D60A0000 		.4byte	.LASF7
 324 006c 03       		.uleb128 0x3
 325 006d AE030000 		.4byte	.LASF8
 326 0071 03       		.byte	0x3
 327 0072 2B       		.byte	0x2b
 328 0073 77000000 		.4byte	0x77
 329 0077 04       		.uleb128 0x4
 330 0078 02       		.byte	0x2
 331 0079 07       		.byte	0x7
 332 007a CC0B0000 		.4byte	.LASF9
 333 007e 03       		.uleb128 0x3
 334 007f 250C0000 		.4byte	.LASF10
 335 0083 03       		.byte	0x3
 336 0084 3F       		.byte	0x3f
 337 0085 89000000 		.4byte	0x89
 338 0089 04       		.uleb128 0x4
 339 008a 04       		.byte	0x4
 340 008b 05       		.byte	0x5
 341 008c 0A020000 		.4byte	.LASF11
 342 0090 03       		.uleb128 0x3
ARM GAS  /tmp/ccHbY6vn.s 			page 7


 343 0091 59060000 		.4byte	.LASF12
 344 0095 03       		.byte	0x3
 345 0096 41       		.byte	0x41
 346 0097 9B000000 		.4byte	0x9b
 347 009b 04       		.uleb128 0x4
 348 009c 04       		.byte	0x4
 349 009d 07       		.byte	0x7
 350 009e 30050000 		.4byte	.LASF13
 351 00a2 03       		.uleb128 0x3
 352 00a3 25050000 		.4byte	.LASF14
 353 00a7 03       		.byte	0x3
 354 00a8 5B       		.byte	0x5b
 355 00a9 AD000000 		.4byte	0xad
 356 00ad 04       		.uleb128 0x4
 357 00ae 08       		.byte	0x8
 358 00af 07       		.byte	0x7
 359 00b0 B6090000 		.4byte	.LASF15
 360 00b4 03       		.uleb128 0x3
 361 00b5 CA020000 		.4byte	.LASF16
 362 00b9 04       		.byte	0x4
 363 00ba 18       		.byte	0x18
 364 00bb 53000000 		.4byte	0x53
 365 00bf 05       		.uleb128 0x5
 366 00c0 B4000000 		.4byte	0xb4
 367 00c4 06       		.uleb128 0x6
 368 00c5 B4000000 		.4byte	0xb4
 369 00c9 03       		.uleb128 0x3
 370 00ca D5090000 		.4byte	.LASF17
 371 00ce 04       		.byte	0x4
 372 00cf 24       		.byte	0x24
 373 00d0 6C000000 		.4byte	0x6c
 374 00d4 05       		.uleb128 0x5
 375 00d5 C9000000 		.4byte	0xc9
 376 00d9 03       		.uleb128 0x3
 377 00da 74000000 		.4byte	.LASF18
 378 00de 04       		.byte	0x4
 379 00df 2C       		.byte	0x2c
 380 00e0 7E000000 		.4byte	0x7e
 381 00e4 05       		.uleb128 0x5
 382 00e5 D9000000 		.4byte	0xd9
 383 00e9 03       		.uleb128 0x3
 384 00ea 7B0B0000 		.4byte	.LASF19
 385 00ee 04       		.byte	0x4
 386 00ef 30       		.byte	0x30
 387 00f0 90000000 		.4byte	0x90
 388 00f4 05       		.uleb128 0x5
 389 00f5 E9000000 		.4byte	0xe9
 390 00f9 06       		.uleb128 0x6
 391 00fa F4000000 		.4byte	0xf4
 392 00fe 03       		.uleb128 0x3
 393 00ff E00A0000 		.4byte	.LASF20
 394 0103 04       		.byte	0x4
 395 0104 3C       		.byte	0x3c
 396 0105 A2000000 		.4byte	0xa2
 397 0109 03       		.uleb128 0x3
 398 010a 160B0000 		.4byte	.LASF21
 399 010e 05       		.byte	0x5
ARM GAS  /tmp/ccHbY6vn.s 			page 8


 400 010f 24       		.byte	0x24
 401 0110 14010000 		.4byte	0x114
 402 0114 04       		.uleb128 0x4
 403 0115 01       		.byte	0x1
 404 0116 02       		.byte	0x2
 405 0117 6F030000 		.4byte	.LASF22
 406 011b 03       		.uleb128 0x3
 407 011c 770A0000 		.4byte	.LASF23
 408 0120 05       		.byte	0x5
 409 0121 25       		.byte	0x25
 410 0122 B4000000 		.4byte	0xb4
 411 0126 03       		.uleb128 0x3
 412 0127 64020000 		.4byte	.LASF24
 413 012b 05       		.byte	0x5
 414 012c 26       		.byte	0x26
 415 012d B4000000 		.4byte	0xb4
 416 0131 03       		.uleb128 0x3
 417 0132 4A0B0000 		.4byte	.LASF25
 418 0136 05       		.byte	0x5
 419 0137 27       		.byte	0x27
 420 0138 B4000000 		.4byte	0xb4
 421 013c 03       		.uleb128 0x3
 422 013d F8090000 		.4byte	.LASF26
 423 0141 05       		.byte	0x5
 424 0142 28       		.byte	0x28
 425 0143 B4000000 		.4byte	0xb4
 426 0147 03       		.uleb128 0x3
 427 0148 44000000 		.4byte	.LASF27
 428 014c 05       		.byte	0x5
 429 014d 29       		.byte	0x29
 430 014e E9000000 		.4byte	0xe9
 431 0152 03       		.uleb128 0x3
 432 0153 DE090000 		.4byte	.LASF28
 433 0157 05       		.byte	0x5
 434 0158 2A       		.byte	0x2a
 435 0159 D9000000 		.4byte	0xd9
 436 015d 03       		.uleb128 0x3
 437 015e DE020000 		.4byte	.LASF29
 438 0162 05       		.byte	0x5
 439 0163 2C       		.byte	0x2c
 440 0164 E9000000 		.4byte	0xe9
 441 0168 03       		.uleb128 0x3
 442 0169 D9080000 		.4byte	.LASF30
 443 016d 05       		.byte	0x5
 444 016e 2D       		.byte	0x2d
 445 016f E9000000 		.4byte	0xe9
 446 0173 03       		.uleb128 0x3
 447 0174 1C000000 		.4byte	.LASF31
 448 0178 05       		.byte	0x5
 449 0179 2E       		.byte	0x2e
 450 017a E9000000 		.4byte	0xe9
 451 017e 05       		.uleb128 0x5
 452 017f 73010000 		.4byte	0x173
 453 0183 03       		.uleb128 0x3
 454 0184 6C040000 		.4byte	.LASF32
 455 0188 05       		.byte	0x5
 456 0189 2F       		.byte	0x2f
ARM GAS  /tmp/ccHbY6vn.s 			page 9


 457 018a D9000000 		.4byte	0xd9
 458 018e 03       		.uleb128 0x3
 459 018f 340B0000 		.4byte	.LASF33
 460 0193 06       		.byte	0x6
 461 0194 23       		.byte	0x23
 462 0195 99010000 		.4byte	0x199
 463 0199 07       		.uleb128 0x7
 464 019a 340B0000 		.4byte	.LASF33
 465 019e 48       		.byte	0x48
 466 019f 07       		.byte	0x7
 467 01a0 57       		.byte	0x57
 468 01a1 96020000 		.4byte	0x296
 469 01a5 08       		.uleb128 0x8
 470 01a6 1E020000 		.4byte	.LASF34
 471 01aa 07       		.byte	0x7
 472 01ab 58       		.byte	0x58
 473 01ac B7020000 		.4byte	0x2b7
 474 01b0 00       		.byte	0
 475 01b1 08       		.uleb128 0x8
 476 01b2 3A020000 		.4byte	.LASF35
 477 01b6 07       		.byte	0x7
 478 01b7 5A       		.byte	0x5a
 479 01b8 B7020000 		.4byte	0x2b7
 480 01bc 04       		.byte	0x4
 481 01bd 08       		.uleb128 0x8
 482 01be A7030000 		.4byte	.LASF36
 483 01c2 07       		.byte	0x7
 484 01c3 5C       		.byte	0x5c
 485 01c4 47010000 		.4byte	0x147
 486 01c8 08       		.byte	0x8
 487 01c9 08       		.uleb128 0x8
 488 01ca 3E000000 		.4byte	.LASF37
 489 01ce 07       		.byte	0x7
 490 01cf 5D       		.byte	0x5d
 491 01d0 7C030000 		.4byte	0x37c
 492 01d4 0C       		.byte	0xc
 493 01d5 08       		.uleb128 0x8
 494 01d6 F9010000 		.4byte	.LASF38
 495 01da 07       		.byte	0x7
 496 01db 5F       		.byte	0x5f
 497 01dc B7020000 		.4byte	0x2b7
 498 01e0 10       		.byte	0x10
 499 01e1 08       		.uleb128 0x8
 500 01e2 CD090000 		.4byte	.LASF39
 501 01e6 07       		.byte	0x7
 502 01e7 60       		.byte	0x60
 503 01e8 B7020000 		.4byte	0x2b7
 504 01ec 14       		.byte	0x14
 505 01ed 08       		.uleb128 0x8
 506 01ee 660C0000 		.4byte	.LASF40
 507 01f2 07       		.byte	0x7
 508 01f3 67       		.byte	0x67
 509 01f4 E9050000 		.4byte	0x5e9
 510 01f8 18       		.byte	0x18
 511 01f9 08       		.uleb128 0x8
 512 01fa AB0C0000 		.4byte	.LASF41
 513 01fe 07       		.byte	0x7
ARM GAS  /tmp/ccHbY6vn.s 			page 10


 514 01ff 72       		.byte	0x72
 515 0200 26010000 		.4byte	0x126
 516 0204 1C       		.byte	0x1c
 517 0205 08       		.uleb128 0x8
 518 0206 3D070000 		.4byte	.LASF42
 519 020a 07       		.byte	0x7
 520 020b 76       		.byte	0x76
 521 020c 1B010000 		.4byte	0x11b
 522 0210 1D       		.byte	0x1d
 523 0211 08       		.uleb128 0x8
 524 0212 F3070000 		.4byte	.LASF43
 525 0216 07       		.byte	0x7
 526 0217 7B       		.byte	0x7b
 527 0218 31010000 		.4byte	0x131
 528 021c 1E       		.byte	0x1e
 529 021d 08       		.uleb128 0x8
 530 021e B6020000 		.4byte	.LASF44
 531 0222 07       		.byte	0x7
 532 0223 81       		.byte	0x81
 533 0224 3C010000 		.4byte	0x13c
 534 0228 1F       		.byte	0x1f
 535 0229 08       		.uleb128 0x8
 536 022a F7080000 		.4byte	.LASF45
 537 022e 07       		.byte	0x7
 538 022f 88       		.byte	0x88
 539 0230 7E010000 		.4byte	0x17e
 540 0234 20       		.byte	0x20
 541 0235 09       		.uleb128 0x9
 542 0236 705F7500 		.ascii	"p_u\000"
 543 023a 07       		.byte	0x7
 544 023b AD       		.byte	0xad
 545 023c B4050000 		.4byte	0x5b4
 546 0240 24       		.byte	0x24
 547 0241 08       		.uleb128 0x8
 548 0242 2D070000 		.4byte	.LASF46
 549 0246 07       		.byte	0x7
 550 0247 B2       		.byte	0xb2
 551 0248 DD020000 		.4byte	0x2dd
 552 024c 28       		.byte	0x28
 553 024d 08       		.uleb128 0x8
 554 024e 63000000 		.4byte	.LASF47
 555 0252 07       		.byte	0x7
 556 0253 B8       		.byte	0xb8
 557 0254 BD020000 		.4byte	0x2bd
 558 0258 2C       		.byte	0x2c
 559 0259 08       		.uleb128 0x8
 560 025a 8F0C0000 		.4byte	.LASF48
 561 025e 07       		.byte	0x7
 562 025f BC       		.byte	0xbc
 563 0260 52010000 		.4byte	0x152
 564 0264 34       		.byte	0x34
 565 0265 08       		.uleb128 0x8
 566 0266 90040000 		.4byte	.LASF49
 567 026a 07       		.byte	0x7
 568 026b C2       		.byte	0xc2
 569 026c 5D010000 		.4byte	0x15d
 570 0270 38       		.byte	0x38
ARM GAS  /tmp/ccHbY6vn.s 			page 11


 571 0271 08       		.uleb128 0x8
 572 0272 6D020000 		.4byte	.LASF50
 573 0276 07       		.byte	0x7
 574 0277 C9       		.byte	0xc9
 575 0278 FB050000 		.4byte	0x5fb
 576 027c 3C       		.byte	0x3c
 577 027d 08       		.uleb128 0x8
 578 027e 48090000 		.4byte	.LASF51
 579 0282 07       		.byte	0x7
 580 0283 CD       		.byte	0xcd
 581 0284 47010000 		.4byte	0x147
 582 0288 40       		.byte	0x40
 583 0289 08       		.uleb128 0x8
 584 028a CB070000 		.4byte	.LASF52
 585 028e 07       		.byte	0x7
 586 028f D3       		.byte	0xd3
 587 0290 F3020000 		.4byte	0x2f3
 588 0294 44       		.byte	0x44
 589 0295 00       		.byte	0
 590 0296 0A       		.uleb128 0xa
 591 0297 08       		.byte	0x8
 592 0298 06       		.byte	0x6
 593 0299 5A       		.byte	0x5a
 594 029a B7020000 		.4byte	0x2b7
 595 029e 08       		.uleb128 0x8
 596 029f 1E020000 		.4byte	.LASF34
 597 02a3 06       		.byte	0x6
 598 02a4 5B       		.byte	0x5b
 599 02a5 B7020000 		.4byte	0x2b7
 600 02a9 00       		.byte	0
 601 02aa 08       		.uleb128 0x8
 602 02ab 3A020000 		.4byte	.LASF35
 603 02af 06       		.byte	0x6
 604 02b0 5D       		.byte	0x5d
 605 02b1 B7020000 		.4byte	0x2b7
 606 02b5 04       		.byte	0x4
 607 02b6 00       		.byte	0
 608 02b7 0B       		.uleb128 0xb
 609 02b8 04       		.byte	0x4
 610 02b9 8E010000 		.4byte	0x18e
 611 02bd 03       		.uleb128 0x3
 612 02be 910B0000 		.4byte	.LASF53
 613 02c2 06       		.byte	0x6
 614 02c3 5F       		.byte	0x5f
 615 02c4 96020000 		.4byte	0x296
 616 02c8 0A       		.uleb128 0xa
 617 02c9 04       		.byte	0x4
 618 02ca 06       		.byte	0x6
 619 02cb 64       		.byte	0x64
 620 02cc DD020000 		.4byte	0x2dd
 621 02d0 08       		.uleb128 0x8
 622 02d1 1E020000 		.4byte	.LASF34
 623 02d5 06       		.byte	0x6
 624 02d6 66       		.byte	0x66
 625 02d7 B7020000 		.4byte	0x2b7
 626 02db 00       		.byte	0
 627 02dc 00       		.byte	0
ARM GAS  /tmp/ccHbY6vn.s 			page 12


 628 02dd 03       		.uleb128 0x3
 629 02de C0080000 		.4byte	.LASF54
 630 02e2 06       		.byte	0x6
 631 02e3 69       		.byte	0x69
 632 02e4 C8020000 		.4byte	0x2c8
 633 02e8 03       		.uleb128 0x3
 634 02e9 7E020000 		.4byte	.LASF55
 635 02ed 08       		.byte	0x8
 636 02ee DE       		.byte	0xde
 637 02ef F3020000 		.4byte	0x2f3
 638 02f3 0C       		.uleb128 0xc
 639 02f4 04       		.byte	0x4
 640 02f5 03       		.uleb128 0x3
 641 02f6 E9030000 		.4byte	.LASF56
 642 02fa 08       		.byte	0x8
 643 02fb E4       		.byte	0xe4
 644 02fc FE000000 		.4byte	0xfe
 645 0300 0D       		.uleb128 0xd
 646 0301 89040000 		.4byte	.LASF57
 647 0305 24       		.byte	0x24
 648 0306 08       		.byte	0x8
 649 0307 0501     		.2byte	0x105
 650 0309 7C030000 		.4byte	0x37c
 651 030d 0E       		.uleb128 0xe
 652 030e 723400   		.ascii	"r4\000"
 653 0311 08       		.byte	0x8
 654 0312 1801     		.2byte	0x118
 655 0314 E8020000 		.4byte	0x2e8
 656 0318 00       		.byte	0
 657 0319 0E       		.uleb128 0xe
 658 031a 723500   		.ascii	"r5\000"
 659 031d 08       		.byte	0x8
 660 031e 1901     		.2byte	0x119
 661 0320 E8020000 		.4byte	0x2e8
 662 0324 04       		.byte	0x4
 663 0325 0E       		.uleb128 0xe
 664 0326 723600   		.ascii	"r6\000"
 665 0329 08       		.byte	0x8
 666 032a 1A01     		.2byte	0x11a
 667 032c E8020000 		.4byte	0x2e8
 668 0330 08       		.byte	0x8
 669 0331 0E       		.uleb128 0xe
 670 0332 723700   		.ascii	"r7\000"
 671 0335 08       		.byte	0x8
 672 0336 1B01     		.2byte	0x11b
 673 0338 E8020000 		.4byte	0x2e8
 674 033c 0C       		.byte	0xc
 675 033d 0E       		.uleb128 0xe
 676 033e 723800   		.ascii	"r8\000"
 677 0341 08       		.byte	0x8
 678 0342 1C01     		.2byte	0x11c
 679 0344 E8020000 		.4byte	0x2e8
 680 0348 10       		.byte	0x10
 681 0349 0E       		.uleb128 0xe
 682 034a 723900   		.ascii	"r9\000"
 683 034d 08       		.byte	0x8
 684 034e 1D01     		.2byte	0x11d
ARM GAS  /tmp/ccHbY6vn.s 			page 13


 685 0350 E8020000 		.4byte	0x2e8
 686 0354 14       		.byte	0x14
 687 0355 0E       		.uleb128 0xe
 688 0356 72313000 		.ascii	"r10\000"
 689 035a 08       		.byte	0x8
 690 035b 1E01     		.2byte	0x11e
 691 035d E8020000 		.4byte	0x2e8
 692 0361 18       		.byte	0x18
 693 0362 0E       		.uleb128 0xe
 694 0363 72313100 		.ascii	"r11\000"
 695 0367 08       		.byte	0x8
 696 0368 1F01     		.2byte	0x11f
 697 036a E8020000 		.4byte	0x2e8
 698 036e 1C       		.byte	0x1c
 699 036f 0E       		.uleb128 0xe
 700 0370 6C7200   		.ascii	"lr\000"
 701 0373 08       		.byte	0x8
 702 0374 2001     		.2byte	0x120
 703 0376 E8020000 		.4byte	0x2e8
 704 037a 20       		.byte	0x20
 705 037b 00       		.byte	0
 706 037c 0D       		.uleb128 0xd
 707 037d EA020000 		.4byte	.LASF58
 708 0381 04       		.byte	0x4
 709 0382 08       		.byte	0x8
 710 0383 2A01     		.2byte	0x12a
 711 0385 97030000 		.4byte	0x397
 712 0389 0E       		.uleb128 0xe
 713 038a 72313300 		.ascii	"r13\000"
 714 038e 08       		.byte	0x8
 715 038f 2B01     		.2byte	0x12b
 716 0391 97030000 		.4byte	0x397
 717 0395 00       		.byte	0
 718 0396 00       		.byte	0
 719 0397 0B       		.uleb128 0xb
 720 0398 04       		.byte	0x4
 721 0399 00030000 		.4byte	0x300
 722 039d 04       		.uleb128 0x4
 723 039e 04       		.byte	0x4
 724 039f 07       		.byte	0x7
 725 03a0 07000000 		.4byte	.LASF59
 726 03a4 03       		.uleb128 0x3
 727 03a5 92000000 		.4byte	.LASF60
 728 03a9 09       		.byte	0x9
 729 03aa 51       		.byte	0x51
 730 03ab AF030000 		.4byte	0x3af
 731 03af 0B       		.uleb128 0xb
 732 03b0 04       		.byte	0x4
 733 03b1 B5030000 		.4byte	0x3b5
 734 03b5 0F       		.uleb128 0xf
 735 03b6 C0030000 		.4byte	0x3c0
 736 03ba 10       		.uleb128 0x10
 737 03bb F3020000 		.4byte	0x2f3
 738 03bf 00       		.byte	0
 739 03c0 03       		.uleb128 0x3
 740 03c1 840B0000 		.4byte	.LASF61
 741 03c5 09       		.byte	0x9
ARM GAS  /tmp/ccHbY6vn.s 			page 14


 742 03c6 56       		.byte	0x56
 743 03c7 CB030000 		.4byte	0x3cb
 744 03cb 07       		.uleb128 0x7
 745 03cc 840B0000 		.4byte	.LASF61
 746 03d0 14       		.byte	0x14
 747 03d1 09       		.byte	0x9
 748 03d2 5D       		.byte	0x5d
 749 03d3 14040000 		.4byte	0x414
 750 03d7 08       		.uleb128 0x8
 751 03d8 BC060000 		.4byte	.LASF62
 752 03dc 09       		.byte	0x9
 753 03dd 5E       		.byte	0x5e
 754 03de 14040000 		.4byte	0x414
 755 03e2 00       		.byte	0
 756 03e3 08       		.uleb128 0x8
 757 03e4 40030000 		.4byte	.LASF63
 758 03e8 09       		.byte	0x9
 759 03e9 60       		.byte	0x60
 760 03ea 14040000 		.4byte	0x414
 761 03ee 04       		.byte	0x4
 762 03ef 08       		.uleb128 0x8
 763 03f0 6D0C0000 		.4byte	.LASF64
 764 03f4 09       		.byte	0x9
 765 03f5 62       		.byte	0x62
 766 03f6 73010000 		.4byte	0x173
 767 03fa 08       		.byte	0x8
 768 03fb 08       		.uleb128 0x8
 769 03fc 81040000 		.4byte	.LASF65
 770 0400 09       		.byte	0x9
 771 0401 63       		.byte	0x63
 772 0402 A4030000 		.4byte	0x3a4
 773 0406 0C       		.byte	0xc
 774 0407 08       		.uleb128 0x8
 775 0408 88010000 		.4byte	.LASF66
 776 040c 09       		.byte	0x9
 777 040d 65       		.byte	0x65
 778 040e F3020000 		.4byte	0x2f3
 779 0412 10       		.byte	0x10
 780 0413 00       		.byte	0
 781 0414 0B       		.uleb128 0xb
 782 0415 04       		.byte	0x4
 783 0416 C0030000 		.4byte	0x3c0
 784 041a 0A       		.uleb128 0xa
 785 041b 10       		.byte	0x10
 786 041c 09       		.byte	0x9
 787 041d 6F       		.byte	0x6f
 788 041e 53040000 		.4byte	0x453
 789 0422 08       		.uleb128 0x8
 790 0423 BC060000 		.4byte	.LASF62
 791 0427 09       		.byte	0x9
 792 0428 70       		.byte	0x70
 793 0429 14040000 		.4byte	0x414
 794 042d 00       		.byte	0
 795 042e 08       		.uleb128 0x8
 796 042f 40030000 		.4byte	.LASF63
 797 0433 09       		.byte	0x9
 798 0434 72       		.byte	0x72
ARM GAS  /tmp/ccHbY6vn.s 			page 15


 799 0435 14040000 		.4byte	0x414
 800 0439 04       		.byte	0x4
 801 043a 08       		.uleb128 0x8
 802 043b 6D0C0000 		.4byte	.LASF64
 803 043f 09       		.byte	0x9
 804 0440 74       		.byte	0x74
 805 0441 73010000 		.4byte	0x173
 806 0445 08       		.byte	0x8
 807 0446 08       		.uleb128 0x8
 808 0447 930A0000 		.4byte	.LASF67
 809 044b 09       		.byte	0x9
 810 044c 75       		.byte	0x75
 811 044d 7E010000 		.4byte	0x17e
 812 0451 0C       		.byte	0xc
 813 0452 00       		.byte	0
 814 0453 03       		.uleb128 0x3
 815 0454 250A0000 		.4byte	.LASF68
 816 0458 09       		.byte	0x9
 817 0459 76       		.byte	0x76
 818 045a 1A040000 		.4byte	0x41a
 819 045e 11       		.uleb128 0x11
 820 045f 3B0B0000 		.4byte	.LASF76
 821 0463 09       		.byte	0x9
 822 0464 EE       		.byte	0xee
 823 0465 53040000 		.4byte	0x453
 824 0469 0A       		.uleb128 0xa
 825 046a 1C       		.byte	0x1c
 826 046b 0A       		.byte	0xa
 827 046c 57       		.byte	0x57
 828 046d BA040000 		.4byte	0x4ba
 829 0471 08       		.uleb128 0x8
 830 0472 4C0A0000 		.4byte	.LASF69
 831 0476 0A       		.byte	0xa
 832 0477 58       		.byte	0x58
 833 0478 BD020000 		.4byte	0x2bd
 834 047c 00       		.byte	0
 835 047d 08       		.uleb128 0x8
 836 047e FA0A0000 		.4byte	.LASF70
 837 0482 0A       		.byte	0xa
 838 0483 59       		.byte	0x59
 839 0484 47010000 		.4byte	0x147
 840 0488 08       		.byte	0x8
 841 0489 08       		.uleb128 0x8
 842 048a 6E000000 		.4byte	.LASF71
 843 048e 0A       		.byte	0xa
 844 048f 5B       		.byte	0x5b
 845 0490 7C030000 		.4byte	0x37c
 846 0494 0C       		.byte	0xc
 847 0495 08       		.uleb128 0x8
 848 0496 53030000 		.4byte	.LASF72
 849 049a 0A       		.byte	0xa
 850 049b 5E       		.byte	0x5e
 851 049c B7020000 		.4byte	0x2b7
 852 04a0 10       		.byte	0x10
 853 04a1 08       		.uleb128 0x8
 854 04a2 BA0A0000 		.4byte	.LASF73
 855 04a6 0A       		.byte	0xa
ARM GAS  /tmp/ccHbY6vn.s 			page 16


 856 04a7 5F       		.byte	0x5f
 857 04a8 B7020000 		.4byte	0x2b7
 858 04ac 14       		.byte	0x14
 859 04ad 08       		.uleb128 0x8
 860 04ae 1B0A0000 		.4byte	.LASF74
 861 04b2 0A       		.byte	0xa
 862 04b3 62       		.byte	0x62
 863 04b4 B7020000 		.4byte	0x2b7
 864 04b8 18       		.byte	0x18
 865 04b9 00       		.byte	0
 866 04ba 03       		.uleb128 0x3
 867 04bb 3F0C0000 		.4byte	.LASF75
 868 04bf 0A       		.byte	0xa
 869 04c0 64       		.byte	0x64
 870 04c1 69040000 		.4byte	0x469
 871 04c5 11       		.uleb128 0x11
 872 04c6 710A0000 		.4byte	.LASF77
 873 04ca 0A       		.byte	0xa
 874 04cb 68       		.byte	0x68
 875 04cc BA040000 		.4byte	0x4ba
 876 04d0 07       		.uleb128 0x7
 877 04d1 B2060000 		.4byte	.LASF78
 878 04d5 0C       		.byte	0xc
 879 04d6 0B       		.byte	0xb
 880 04d7 25       		.byte	0x25
 881 04d8 F5040000 		.4byte	0x4f5
 882 04dc 08       		.uleb128 0x8
 883 04dd C90A0000 		.4byte	.LASF79
 884 04e1 0B       		.byte	0xb
 885 04e2 26       		.byte	0x26
 886 04e3 BD020000 		.4byte	0x2bd
 887 04e7 00       		.byte	0
 888 04e8 08       		.uleb128 0x8
 889 04e9 B0090000 		.4byte	.LASF80
 890 04ed 0B       		.byte	0xb
 891 04ee 28       		.byte	0x28
 892 04ef 83010000 		.4byte	0x183
 893 04f3 08       		.byte	0x8
 894 04f4 00       		.byte	0
 895 04f5 03       		.uleb128 0x3
 896 04f6 B2060000 		.4byte	.LASF78
 897 04fa 0B       		.byte	0xb
 898 04fb 29       		.byte	0x29
 899 04fc D0040000 		.4byte	0x4d0
 900 0500 07       		.uleb128 0x7
 901 0501 64060000 		.4byte	.LASF81
 902 0505 10       		.byte	0x10
 903 0506 0C       		.byte	0xc
 904 0507 25       		.byte	0x25
 905 0508 31050000 		.4byte	0x531
 906 050c 08       		.uleb128 0x8
 907 050d 9A060000 		.4byte	.LASF82
 908 0511 0C       		.byte	0xc
 909 0512 26       		.byte	0x26
 910 0513 BD020000 		.4byte	0x2bd
 911 0517 00       		.byte	0
 912 0518 08       		.uleb128 0x8
ARM GAS  /tmp/ccHbY6vn.s 			page 17


 913 0519 80010000 		.4byte	.LASF83
 914 051d 0C       		.byte	0xc
 915 051e 28       		.byte	0x28
 916 051f B7020000 		.4byte	0x2b7
 917 0523 08       		.byte	0x8
 918 0524 08       		.uleb128 0x8
 919 0525 7A0C0000 		.4byte	.LASF84
 920 0529 0C       		.byte	0xc
 921 052a 2A       		.byte	0x2a
 922 052b 31050000 		.4byte	0x531
 923 052f 0C       		.byte	0xc
 924 0530 00       		.byte	0
 925 0531 0B       		.uleb128 0xb
 926 0532 04       		.byte	0x4
 927 0533 00050000 		.4byte	0x500
 928 0537 03       		.uleb128 0x3
 929 0538 64060000 		.4byte	.LASF81
 930 053c 0C       		.byte	0xc
 931 053d 2C       		.byte	0x2c
 932 053e 00050000 		.4byte	0x500
 933 0542 03       		.uleb128 0x3
 934 0543 6D0B0000 		.4byte	.LASF85
 935 0547 0D       		.byte	0xd
 936 0548 25       		.byte	0x25
 937 0549 4D050000 		.4byte	0x54d
 938 054d 07       		.uleb128 0x7
 939 054e 6D0B0000 		.4byte	.LASF85
 940 0552 10       		.byte	0x10
 941 0553 0D       		.byte	0xd
 942 0554 2A       		.byte	0x2a
 943 0555 8A050000 		.4byte	0x58a
 944 0559 08       		.uleb128 0x8
 945 055a 7D050000 		.4byte	.LASF86
 946 055e 0D       		.byte	0xd
 947 055f 2B       		.byte	0x2b
 948 0560 8A050000 		.4byte	0x58a
 949 0564 00       		.byte	0
 950 0565 08       		.uleb128 0x8
 951 0566 950C0000 		.4byte	.LASF87
 952 056a 0D       		.byte	0xd
 953 056b 2E       		.byte	0x2e
 954 056c B7020000 		.4byte	0x2b7
 955 0570 04       		.byte	0x4
 956 0571 08       		.uleb128 0x8
 957 0572 370C0000 		.4byte	.LASF88
 958 0576 0D       		.byte	0xd
 959 0577 30       		.byte	0x30
 960 0578 5D010000 		.4byte	0x15d
 961 057c 08       		.byte	0x8
 962 057d 08       		.uleb128 0x8
 963 057e DA000000 		.4byte	.LASF89
 964 0582 0D       		.byte	0xd
 965 0583 33       		.byte	0x33
 966 0584 68010000 		.4byte	0x168
 967 0588 0C       		.byte	0xc
 968 0589 00       		.byte	0
 969 058a 0B       		.uleb128 0xb
ARM GAS  /tmp/ccHbY6vn.s 			page 18


 970 058b 04       		.byte	0x4
 971 058c 42050000 		.4byte	0x542
 972 0590 07       		.uleb128 0x7
 973 0591 19050000 		.4byte	.LASF90
 974 0595 04       		.byte	0x4
 975 0596 0D       		.byte	0xd
 976 0597 3A       		.byte	0x3a
 977 0598 A9050000 		.4byte	0x5a9
 978 059c 08       		.uleb128 0x8
 979 059d C1040000 		.4byte	.LASF91
 980 05a1 0D       		.byte	0xd
 981 05a2 3B       		.byte	0x3b
 982 05a3 8A050000 		.4byte	0x58a
 983 05a7 00       		.byte	0
 984 05a8 00       		.byte	0
 985 05a9 03       		.uleb128 0x3
 986 05aa 19050000 		.4byte	.LASF90
 987 05ae 0D       		.byte	0xd
 988 05af 3E       		.byte	0x3e
 989 05b0 90050000 		.4byte	0x590
 990 05b4 12       		.uleb128 0x12
 991 05b5 04       		.byte	0x4
 992 05b6 07       		.byte	0x7
 993 05b7 8F       		.byte	0x8f
 994 05b8 E9050000 		.4byte	0x5e9
 995 05bc 13       		.uleb128 0x13
 996 05bd BC0B0000 		.4byte	.LASF92
 997 05c1 07       		.byte	0x7
 998 05c2 96       		.byte	0x96
 999 05c3 52010000 		.4byte	0x152
 1000 05c7 13       		.uleb128 0x13
 1001 05c8 96010000 		.4byte	.LASF93
 1002 05cc 07       		.byte	0x7
 1003 05cd 9D       		.byte	0x9d
 1004 05ce 52010000 		.4byte	0x152
 1005 05d2 13       		.uleb128 0x13
 1006 05d3 C6030000 		.4byte	.LASF94
 1007 05d7 07       		.byte	0x7
 1008 05d8 A4       		.byte	0xa4
 1009 05d9 F3020000 		.4byte	0x2f3
 1010 05dd 13       		.uleb128 0x13
 1011 05de B9010000 		.4byte	.LASF95
 1012 05e2 07       		.byte	0x7
 1013 05e3 AB       		.byte	0xab
 1014 05e4 5D010000 		.4byte	0x15d
 1015 05e8 00       		.byte	0
 1016 05e9 0B       		.uleb128 0xb
 1017 05ea 04       		.byte	0x4
 1018 05eb F6050000 		.4byte	0x5f6
 1019 05ef 04       		.uleb128 0x4
 1020 05f0 01       		.byte	0x1
 1021 05f1 08       		.byte	0x8
 1022 05f2 91030000 		.4byte	.LASF96
 1023 05f6 06       		.uleb128 0x6
 1024 05f7 EF050000 		.4byte	0x5ef
 1025 05fb 0B       		.uleb128 0xb
 1026 05fc 04       		.byte	0x4
ARM GAS  /tmp/ccHbY6vn.s 			page 19


 1027 05fd 37050000 		.4byte	0x537
 1028 0601 0B       		.uleb128 0xb
 1029 0602 04       		.byte	0x4
 1030 0603 07060000 		.4byte	0x607
 1031 0607 14       		.uleb128 0x14
 1032 0608 52010000 		.4byte	0x152
 1033 060c 16060000 		.4byte	0x616
 1034 0610 10       		.uleb128 0x10
 1035 0611 F3020000 		.4byte	0x2f3
 1036 0615 00       		.byte	0
 1037 0616 0A       		.uleb128 0xa
 1038 0617 16       		.byte	0x16
 1039 0618 0E       		.byte	0xe
 1040 0619 25       		.byte	0x25
 1041 061a F7060000 		.4byte	0x6f7
 1042 061e 08       		.uleb128 0x8
 1043 061f 30000000 		.4byte	.LASF97
 1044 0623 0E       		.byte	0xe
 1045 0624 26       		.byte	0x26
 1046 0625 F7060000 		.4byte	0x6f7
 1047 0629 00       		.byte	0
 1048 062a 08       		.uleb128 0x8
 1049 062b 42050000 		.4byte	.LASF98
 1050 062f 0E       		.byte	0xe
 1051 0630 27       		.byte	0x27
 1052 0631 B4000000 		.4byte	0xb4
 1053 0635 04       		.byte	0x4
 1054 0636 08       		.uleb128 0x8
 1055 0637 0A0C0000 		.4byte	.LASF99
 1056 063b 0E       		.byte	0xe
 1057 063c 28       		.byte	0x28
 1058 063d B4000000 		.4byte	0xb4
 1059 0641 05       		.byte	0x5
 1060 0642 08       		.uleb128 0x8
 1061 0643 8F060000 		.4byte	.LASF100
 1062 0647 0E       		.byte	0xe
 1063 0648 29       		.byte	0x29
 1064 0649 C9000000 		.4byte	0xc9
 1065 064d 06       		.byte	0x6
 1066 064e 08       		.uleb128 0x8
 1067 064f 31010000 		.4byte	.LASF101
 1068 0653 0E       		.byte	0xe
 1069 0654 2A       		.byte	0x2a
 1070 0655 B4000000 		.4byte	0xb4
 1071 0659 08       		.byte	0x8
 1072 065a 08       		.uleb128 0x8
 1073 065b 0C080000 		.4byte	.LASF102
 1074 065f 0E       		.byte	0xe
 1075 0660 2B       		.byte	0x2b
 1076 0661 B4000000 		.4byte	0xb4
 1077 0665 09       		.byte	0x9
 1078 0666 08       		.uleb128 0x8
 1079 0667 CA010000 		.4byte	.LASF103
 1080 066b 0E       		.byte	0xe
 1081 066c 2C       		.byte	0x2c
 1082 066d B4000000 		.4byte	0xb4
 1083 0671 0A       		.byte	0xa
ARM GAS  /tmp/ccHbY6vn.s 			page 20


 1084 0672 08       		.uleb128 0x8
 1085 0673 31040000 		.4byte	.LASF104
 1086 0677 0E       		.byte	0xe
 1087 0678 2D       		.byte	0x2d
 1088 0679 B4000000 		.4byte	0xb4
 1089 067d 0B       		.byte	0xb
 1090 067e 08       		.uleb128 0x8
 1091 067f 87000000 		.4byte	.LASF105
 1092 0683 0E       		.byte	0xe
 1093 0684 2E       		.byte	0x2e
 1094 0685 B4000000 		.4byte	0xb4
 1095 0689 0C       		.byte	0xc
 1096 068a 08       		.uleb128 0x8
 1097 068b D7030000 		.4byte	.LASF106
 1098 068f 0E       		.byte	0xe
 1099 0690 2F       		.byte	0x2f
 1100 0691 B4000000 		.4byte	0xb4
 1101 0695 0D       		.byte	0xd
 1102 0696 08       		.uleb128 0x8
 1103 0697 1D0B0000 		.4byte	.LASF107
 1104 069b 0E       		.byte	0xe
 1105 069c 30       		.byte	0x30
 1106 069d B4000000 		.4byte	0xb4
 1107 06a1 0E       		.byte	0xe
 1108 06a2 08       		.uleb128 0x8
 1109 06a3 10000000 		.4byte	.LASF108
 1110 06a7 0E       		.byte	0xe
 1111 06a8 31       		.byte	0x31
 1112 06a9 B4000000 		.4byte	0xb4
 1113 06ad 0F       		.byte	0xf
 1114 06ae 08       		.uleb128 0x8
 1115 06af 6F070000 		.4byte	.LASF109
 1116 06b3 0E       		.byte	0xe
 1117 06b4 32       		.byte	0x32
 1118 06b5 B4000000 		.4byte	0xb4
 1119 06b9 10       		.byte	0x10
 1120 06ba 08       		.uleb128 0x8
 1121 06bb 2D020000 		.4byte	.LASF110
 1122 06bf 0E       		.byte	0xe
 1123 06c0 34       		.byte	0x34
 1124 06c1 B4000000 		.4byte	0xb4
 1125 06c5 11       		.byte	0x11
 1126 06c6 08       		.uleb128 0x8
 1127 06c7 EB090000 		.4byte	.LASF111
 1128 06cb 0E       		.byte	0xe
 1129 06cc 35       		.byte	0x35
 1130 06cd B4000000 		.4byte	0xb4
 1131 06d1 12       		.byte	0x12
 1132 06d2 08       		.uleb128 0x8
 1133 06d3 05090000 		.4byte	.LASF112
 1134 06d7 0E       		.byte	0xe
 1135 06d8 36       		.byte	0x36
 1136 06d9 B4000000 		.4byte	0xb4
 1137 06dd 13       		.byte	0x13
 1138 06de 08       		.uleb128 0x8
 1139 06df 3A060000 		.4byte	.LASF113
 1140 06e3 0E       		.byte	0xe
ARM GAS  /tmp/ccHbY6vn.s 			page 21


 1141 06e4 37       		.byte	0x37
 1142 06e5 B4000000 		.4byte	0xb4
 1143 06e9 14       		.byte	0x14
 1144 06ea 08       		.uleb128 0x8
 1145 06eb 53090000 		.4byte	.LASF114
 1146 06ef 0E       		.byte	0xe
 1147 06f0 39       		.byte	0x39
 1148 06f1 B4000000 		.4byte	0xb4
 1149 06f5 15       		.byte	0x15
 1150 06f6 00       		.byte	0
 1151 06f7 15       		.uleb128 0x15
 1152 06f8 EF050000 		.4byte	0x5ef
 1153 06fc 07070000 		.4byte	0x707
 1154 0700 16       		.uleb128 0x16
 1155 0701 9D030000 		.4byte	0x39d
 1156 0705 03       		.byte	0x3
 1157 0706 00       		.byte	0
 1158 0707 03       		.uleb128 0x3
 1159 0708 EA0B0000 		.4byte	.LASF115
 1160 070c 0E       		.byte	0xe
 1161 070d 3A       		.byte	0x3a
 1162 070e 16060000 		.4byte	0x616
 1163 0712 06       		.uleb128 0x6
 1164 0713 07070000 		.4byte	0x707
 1165 0717 11       		.uleb128 0x11
 1166 0718 5A000000 		.4byte	.LASF116
 1167 071c 0E       		.byte	0xe
 1168 071d 77       		.byte	0x77
 1169 071e 12070000 		.4byte	0x712
 1170 0722 03       		.uleb128 0x3
 1171 0723 B9030000 		.4byte	.LASF117
 1172 0727 0F       		.byte	0xf
 1173 0728 30       		.byte	0x30
 1174 0729 2D070000 		.4byte	0x72d
 1175 072d 07       		.uleb128 0x7
 1176 072e B9030000 		.4byte	.LASF117
 1177 0732 24       		.byte	0x24
 1178 0733 0F       		.byte	0xf
 1179 0734 3E       		.byte	0x3e
 1180 0735 9A070000 		.4byte	0x79a
 1181 0739 08       		.uleb128 0x8
 1182 073a 670A0000 		.4byte	.LASF118
 1183 073e 0F       		.byte	0xf
 1184 073f 3F       		.byte	0x3f
 1185 0740 BD020000 		.4byte	0x2bd
 1186 0744 00       		.byte	0
 1187 0745 08       		.uleb128 0x8
 1188 0746 C9040000 		.4byte	.LASF119
 1189 074a 0F       		.byte	0xf
 1190 074b 40       		.byte	0x40
 1191 074c 2C000000 		.4byte	0x2c
 1192 0750 08       		.byte	0x8
 1193 0751 08       		.uleb128 0x8
 1194 0752 DE010000 		.4byte	.LASF120
 1195 0756 0F       		.byte	0xf
 1196 0757 41       		.byte	0x41
 1197 0758 BC070000 		.4byte	0x7bc
ARM GAS  /tmp/ccHbY6vn.s 			page 22


 1198 075c 0C       		.byte	0xc
 1199 075d 08       		.uleb128 0x8
 1200 075e A9010000 		.4byte	.LASF121
 1201 0762 0F       		.byte	0xf
 1202 0763 42       		.byte	0x42
 1203 0764 BC070000 		.4byte	0x7bc
 1204 0768 10       		.byte	0x10
 1205 0769 08       		.uleb128 0x8
 1206 076a 92050000 		.4byte	.LASF122
 1207 076e 0F       		.byte	0xf
 1208 076f 44       		.byte	0x44
 1209 0770 BC070000 		.4byte	0x7bc
 1210 0774 14       		.byte	0x14
 1211 0775 08       		.uleb128 0x8
 1212 0776 25020000 		.4byte	.LASF123
 1213 077a 0F       		.byte	0xf
 1214 077b 45       		.byte	0x45
 1215 077c BC070000 		.4byte	0x7bc
 1216 0780 18       		.byte	0x18
 1217 0781 08       		.uleb128 0x8
 1218 0782 F0010000 		.4byte	.LASF124
 1219 0786 0F       		.byte	0xf
 1220 0787 46       		.byte	0x46
 1221 0788 9A070000 		.4byte	0x79a
 1222 078c 1C       		.byte	0x1c
 1223 078d 08       		.uleb128 0x8
 1224 078e 2B030000 		.4byte	.LASF125
 1225 0792 0F       		.byte	0xf
 1226 0793 47       		.byte	0x47
 1227 0794 F3020000 		.4byte	0x2f3
 1228 0798 20       		.byte	0x20
 1229 0799 00       		.byte	0
 1230 079a 03       		.uleb128 0x3
 1231 079b 17070000 		.4byte	.LASF126
 1232 079f 0F       		.byte	0xf
 1233 07a0 33       		.byte	0x33
 1234 07a1 A5070000 		.4byte	0x7a5
 1235 07a5 0B       		.uleb128 0xb
 1236 07a6 04       		.byte	0x4
 1237 07a7 AB070000 		.4byte	0x7ab
 1238 07ab 0F       		.uleb128 0xf
 1239 07ac B6070000 		.4byte	0x7b6
 1240 07b0 10       		.uleb128 0x10
 1241 07b1 B6070000 		.4byte	0x7b6
 1242 07b5 00       		.byte	0
 1243 07b6 0B       		.uleb128 0xb
 1244 07b7 04       		.byte	0x4
 1245 07b8 22070000 		.4byte	0x722
 1246 07bc 0B       		.uleb128 0xb
 1247 07bd 04       		.byte	0x4
 1248 07be B4000000 		.4byte	0xb4
 1249 07c2 03       		.uleb128 0x3
 1250 07c3 FF0B0000 		.4byte	.LASF127
 1251 07c7 0F       		.byte	0xf
 1252 07c8 7B       		.byte	0x7b
 1253 07c9 22070000 		.4byte	0x722
 1254 07cd 03       		.uleb128 0x3
ARM GAS  /tmp/ccHbY6vn.s 			page 23


 1255 07ce 0C040000 		.4byte	.LASF128
 1256 07d2 0F       		.byte	0xf
 1257 07d3 EE       		.byte	0xee
 1258 07d4 22070000 		.4byte	0x722
 1259 07d8 14       		.uleb128 0x14
 1260 07d9 2C000000 		.4byte	0x2c
 1261 07dd F1070000 		.4byte	0x7f1
 1262 07e1 10       		.uleb128 0x10
 1263 07e2 F3020000 		.4byte	0x2f3
 1264 07e6 10       		.uleb128 0x10
 1265 07e7 F1070000 		.4byte	0x7f1
 1266 07eb 10       		.uleb128 0x10
 1267 07ec 2C000000 		.4byte	0x2c
 1268 07f0 00       		.byte	0
 1269 07f1 0B       		.uleb128 0xb
 1270 07f2 04       		.byte	0x4
 1271 07f3 C4000000 		.4byte	0xc4
 1272 07f7 0B       		.uleb128 0xb
 1273 07f8 04       		.byte	0x4
 1274 07f9 D8070000 		.4byte	0x7d8
 1275 07fd 14       		.uleb128 0x14
 1276 07fe 2C000000 		.4byte	0x2c
 1277 0802 16080000 		.4byte	0x816
 1278 0806 10       		.uleb128 0x10
 1279 0807 F3020000 		.4byte	0x2f3
 1280 080b 10       		.uleb128 0x10
 1281 080c BC070000 		.4byte	0x7bc
 1282 0810 10       		.uleb128 0x10
 1283 0811 2C000000 		.4byte	0x2c
 1284 0815 00       		.byte	0
 1285 0816 0B       		.uleb128 0xb
 1286 0817 04       		.byte	0x4
 1287 0818 FD070000 		.4byte	0x7fd
 1288 081c 14       		.uleb128 0x14
 1289 081d 52010000 		.4byte	0x152
 1290 0821 30080000 		.4byte	0x830
 1291 0825 10       		.uleb128 0x10
 1292 0826 F3020000 		.4byte	0x2f3
 1293 082a 10       		.uleb128 0x10
 1294 082b B4000000 		.4byte	0xb4
 1295 082f 00       		.byte	0
 1296 0830 0B       		.uleb128 0xb
 1297 0831 04       		.byte	0x4
 1298 0832 1C080000 		.4byte	0x81c
 1299 0836 15       		.uleb128 0x15
 1300 0837 F5020000 		.4byte	0x2f5
 1301 083b 46080000 		.4byte	0x846
 1302 083f 16       		.uleb128 0x16
 1303 0840 9D030000 		.4byte	0x39d
 1304 0844 17       		.byte	0x17
 1305 0845 00       		.byte	0
 1306 0846 11       		.uleb128 0x11
 1307 0847 520B0000 		.4byte	.LASF129
 1308 084b 10       		.byte	0x10
 1309 084c 82       		.byte	0x82
 1310 084d 36080000 		.4byte	0x836
 1311 0851 15       		.uleb128 0x15
ARM GAS  /tmp/ccHbY6vn.s 			page 24


 1312 0852 E9000000 		.4byte	0xe9
 1313 0856 61080000 		.4byte	0x861
 1314 085a 16       		.uleb128 0x16
 1315 085b 9D030000 		.4byte	0x39d
 1316 085f 01       		.byte	0x1
 1317 0860 00       		.byte	0
 1318 0861 17       		.uleb128 0x17
 1319 0862 F5060000 		.4byte	.LASF130
 1320 0866 11       		.byte	0x11
 1321 0867 0706     		.2byte	0x607
 1322 0869 E4000000 		.4byte	0xe4
 1323 086d 11       		.uleb128 0x11
 1324 086e 5A050000 		.4byte	.LASF131
 1325 0872 12       		.byte	0x12
 1326 0873 23       		.byte	0x23
 1327 0874 E9000000 		.4byte	0xe9
 1328 0878 15       		.uleb128 0x15
 1329 0879 E9000000 		.4byte	0xe9
 1330 087d 88080000 		.4byte	0x888
 1331 0881 16       		.uleb128 0x16
 1332 0882 9D030000 		.4byte	0x39d
 1333 0886 0B       		.byte	0xb
 1334 0887 00       		.byte	0
 1335 0888 0A       		.uleb128 0xa
 1336 0889 04       		.byte	0x4
 1337 088a 13       		.byte	0x13
 1338 088b C7       		.byte	0xc7
 1339 088c A9080000 		.4byte	0x8a9
 1340 0890 08       		.uleb128 0x8
 1341 0891 51060000 		.4byte	.LASF132
 1342 0895 13       		.byte	0x13
 1343 0896 C8       		.byte	0xc8
 1344 0897 D4000000 		.4byte	0xd4
 1345 089b 00       		.byte	0
 1346 089c 08       		.uleb128 0x8
 1347 089d 49060000 		.4byte	.LASF133
 1348 08a1 13       		.byte	0x13
 1349 08a2 C9       		.byte	0xc9
 1350 08a3 D4000000 		.4byte	0xd4
 1351 08a7 02       		.byte	0x2
 1352 08a8 00       		.byte	0
 1353 08a9 0A       		.uleb128 0xa
 1354 08aa 04       		.byte	0x4
 1355 08ab 13       		.byte	0x13
 1356 08ac CB       		.byte	0xcb
 1357 08ad E2080000 		.4byte	0x8e2
 1358 08b1 08       		.uleb128 0x8
 1359 08b2 1A060000 		.4byte	.LASF134
 1360 08b6 13       		.byte	0x13
 1361 08b7 CC       		.byte	0xcc
 1362 08b8 BF000000 		.4byte	0xbf
 1363 08bc 00       		.byte	0
 1364 08bd 08       		.uleb128 0x8
 1365 08be 22060000 		.4byte	.LASF135
 1366 08c2 13       		.byte	0x13
 1367 08c3 CD       		.byte	0xcd
 1368 08c4 BF000000 		.4byte	0xbf
ARM GAS  /tmp/ccHbY6vn.s 			page 25


 1369 08c8 01       		.byte	0x1
 1370 08c9 08       		.uleb128 0x8
 1371 08ca 2A060000 		.4byte	.LASF136
 1372 08ce 13       		.byte	0x13
 1373 08cf CE       		.byte	0xce
 1374 08d0 BF000000 		.4byte	0xbf
 1375 08d4 02       		.byte	0x2
 1376 08d5 08       		.uleb128 0x8
 1377 08d6 32060000 		.4byte	.LASF137
 1378 08da 13       		.byte	0x13
 1379 08db CF       		.byte	0xcf
 1380 08dc BF000000 		.4byte	0xbf
 1381 08e0 03       		.byte	0x3
 1382 08e1 00       		.byte	0
 1383 08e2 12       		.uleb128 0x12
 1384 08e3 04       		.byte	0x4
 1385 08e4 13       		.byte	0x13
 1386 08e5 C5       		.byte	0xc5
 1387 08e6 00090000 		.4byte	0x900
 1388 08ea 13       		.uleb128 0x13
 1389 08eb FE080000 		.4byte	.LASF138
 1390 08ef 13       		.byte	0x13
 1391 08f0 C6       		.byte	0xc6
 1392 08f1 F4000000 		.4byte	0xf4
 1393 08f5 18       		.uleb128 0x18
 1394 08f6 88080000 		.4byte	0x888
 1395 08fa 18       		.uleb128 0x18
 1396 08fb A9080000 		.4byte	0x8a9
 1397 08ff 00       		.byte	0
 1398 0900 0A       		.uleb128 0xa
 1399 0901 04       		.byte	0x4
 1400 0902 13       		.byte	0x13
 1401 0903 D5       		.byte	0xd5
 1402 0904 21090000 		.4byte	0x921
 1403 0908 08       		.uleb128 0x8
 1404 0909 03080000 		.4byte	.LASF139
 1405 090d 13       		.byte	0x13
 1406 090e D6       		.byte	0xd6
 1407 090f D4000000 		.4byte	0xd4
 1408 0913 00       		.byte	0
 1409 0914 08       		.uleb128 0x8
 1410 0915 FA070000 		.4byte	.LASF140
 1411 0919 13       		.byte	0x13
 1412 091a D7       		.byte	0xd7
 1413 091b D4000000 		.4byte	0xd4
 1414 091f 02       		.byte	0x2
 1415 0920 00       		.byte	0
 1416 0921 0A       		.uleb128 0xa
 1417 0922 04       		.byte	0x4
 1418 0923 13       		.byte	0x13
 1419 0924 D9       		.byte	0xd9
 1420 0925 5A090000 		.4byte	0x95a
 1421 0929 08       		.uleb128 0x8
 1422 092a 94070000 		.4byte	.LASF141
 1423 092e 13       		.byte	0x13
 1424 092f DA       		.byte	0xda
 1425 0930 BF000000 		.4byte	0xbf
ARM GAS  /tmp/ccHbY6vn.s 			page 26


 1426 0934 00       		.byte	0
 1427 0935 08       		.uleb128 0x8
 1428 0936 9D070000 		.4byte	.LASF142
 1429 093a 13       		.byte	0x13
 1430 093b DB       		.byte	0xdb
 1431 093c BF000000 		.4byte	0xbf
 1432 0940 01       		.byte	0x1
 1433 0941 08       		.uleb128 0x8
 1434 0942 A6070000 		.4byte	.LASF143
 1435 0946 13       		.byte	0x13
 1436 0947 DC       		.byte	0xdc
 1437 0948 BF000000 		.4byte	0xbf
 1438 094c 02       		.byte	0x2
 1439 094d 08       		.uleb128 0x8
 1440 094e AF070000 		.4byte	.LASF144
 1441 0952 13       		.byte	0x13
 1442 0953 DD       		.byte	0xdd
 1443 0954 BF000000 		.4byte	0xbf
 1444 0958 03       		.byte	0x3
 1445 0959 00       		.byte	0
 1446 095a 12       		.uleb128 0x12
 1447 095b 04       		.byte	0x4
 1448 095c 13       		.byte	0x13
 1449 095d D3       		.byte	0xd3
 1450 095e 78090000 		.4byte	0x978
 1451 0962 13       		.uleb128 0x13
 1452 0963 C8050000 		.4byte	.LASF145
 1453 0967 13       		.byte	0x13
 1454 0968 D4       		.byte	0xd4
 1455 0969 F4000000 		.4byte	0xf4
 1456 096d 18       		.uleb128 0x18
 1457 096e 00090000 		.4byte	0x900
 1458 0972 18       		.uleb128 0x18
 1459 0973 21090000 		.4byte	0x921
 1460 0977 00       		.byte	0
 1461 0978 0A       		.uleb128 0xa
 1462 0979 04       		.byte	0x4
 1463 097a 13       		.byte	0x13
 1464 097b E2       		.byte	0xe2
 1465 097c 99090000 		.4byte	0x999
 1466 0980 08       		.uleb128 0x8
 1467 0981 52050000 		.4byte	.LASF146
 1468 0985 13       		.byte	0x13
 1469 0986 E3       		.byte	0xe3
 1470 0987 D4000000 		.4byte	0xd4
 1471 098b 00       		.byte	0
 1472 098c 08       		.uleb128 0x8
 1473 098d 4A050000 		.4byte	.LASF147
 1474 0991 13       		.byte	0x13
 1475 0992 E4       		.byte	0xe4
 1476 0993 D4000000 		.4byte	0xd4
 1477 0997 02       		.byte	0x2
 1478 0998 00       		.byte	0
 1479 0999 0A       		.uleb128 0xa
 1480 099a 04       		.byte	0x4
 1481 099b 13       		.byte	0x13
 1482 099c E6       		.byte	0xe6
ARM GAS  /tmp/ccHbY6vn.s 			page 27


 1483 099d D2090000 		.4byte	0x9d2
 1484 09a1 08       		.uleb128 0x8
 1485 09a2 F9040000 		.4byte	.LASF148
 1486 09a6 13       		.byte	0x13
 1487 09a7 E7       		.byte	0xe7
 1488 09a8 BF000000 		.4byte	0xbf
 1489 09ac 00       		.byte	0
 1490 09ad 08       		.uleb128 0x8
 1491 09ae 01050000 		.4byte	.LASF149
 1492 09b2 13       		.byte	0x13
 1493 09b3 E8       		.byte	0xe8
 1494 09b4 BF000000 		.4byte	0xbf
 1495 09b8 01       		.byte	0x1
 1496 09b9 08       		.uleb128 0x8
 1497 09ba 09050000 		.4byte	.LASF150
 1498 09be 13       		.byte	0x13
 1499 09bf E9       		.byte	0xe9
 1500 09c0 BF000000 		.4byte	0xbf
 1501 09c4 02       		.byte	0x2
 1502 09c5 08       		.uleb128 0x8
 1503 09c6 11050000 		.4byte	.LASF151
 1504 09ca 13       		.byte	0x13
 1505 09cb EA       		.byte	0xea
 1506 09cc BF000000 		.4byte	0xbf
 1507 09d0 03       		.byte	0x3
 1508 09d1 00       		.byte	0
 1509 09d2 12       		.uleb128 0x12
 1510 09d3 04       		.byte	0x4
 1511 09d4 13       		.byte	0x13
 1512 09d5 E0       		.byte	0xe0
 1513 09d6 F0090000 		.4byte	0x9f0
 1514 09da 13       		.uleb128 0x13
 1515 09db E4090000 		.4byte	.LASF152
 1516 09df 13       		.byte	0x13
 1517 09e0 E1       		.byte	0xe1
 1518 09e1 F4000000 		.4byte	0xf4
 1519 09e5 18       		.uleb128 0x18
 1520 09e6 78090000 		.4byte	0x978
 1521 09ea 18       		.uleb128 0x18
 1522 09eb 99090000 		.4byte	0x999
 1523 09ef 00       		.byte	0
 1524 09f0 0A       		.uleb128 0xa
 1525 09f1 04       		.byte	0x4
 1526 09f2 13       		.byte	0x13
 1527 09f3 EF       		.byte	0xef
 1528 09f4 110A0000 		.4byte	0xa11
 1529 09f8 08       		.uleb128 0x8
 1530 09f9 29040000 		.4byte	.LASF153
 1531 09fd 13       		.byte	0x13
 1532 09fe F0       		.byte	0xf0
 1533 09ff D4000000 		.4byte	0xd4
 1534 0a03 00       		.byte	0
 1535 0a04 08       		.uleb128 0x8
 1536 0a05 21040000 		.4byte	.LASF154
 1537 0a09 13       		.byte	0x13
 1538 0a0a F1       		.byte	0xf1
 1539 0a0b D4000000 		.4byte	0xd4
ARM GAS  /tmp/ccHbY6vn.s 			page 28


 1540 0a0f 02       		.byte	0x2
 1541 0a10 00       		.byte	0
 1542 0a11 0A       		.uleb128 0xa
 1543 0a12 04       		.byte	0x4
 1544 0a13 13       		.byte	0x13
 1545 0a14 F3       		.byte	0xf3
 1546 0a15 4A0A0000 		.4byte	0xa4a
 1547 0a19 08       		.uleb128 0x8
 1548 0a1a F4030000 		.4byte	.LASF155
 1549 0a1e 13       		.byte	0x13
 1550 0a1f F4       		.byte	0xf4
 1551 0a20 BF000000 		.4byte	0xbf
 1552 0a24 00       		.byte	0
 1553 0a25 08       		.uleb128 0x8
 1554 0a26 FC030000 		.4byte	.LASF156
 1555 0a2a 13       		.byte	0x13
 1556 0a2b F5       		.byte	0xf5
 1557 0a2c BF000000 		.4byte	0xbf
 1558 0a30 01       		.byte	0x1
 1559 0a31 08       		.uleb128 0x8
 1560 0a32 04040000 		.4byte	.LASF157
 1561 0a36 13       		.byte	0x13
 1562 0a37 F6       		.byte	0xf6
 1563 0a38 BF000000 		.4byte	0xbf
 1564 0a3c 02       		.byte	0x2
 1565 0a3d 08       		.uleb128 0x8
 1566 0a3e 4F0C0000 		.4byte	.LASF158
 1567 0a42 13       		.byte	0x13
 1568 0a43 F7       		.byte	0xf7
 1569 0a44 BF000000 		.4byte	0xbf
 1570 0a48 03       		.byte	0x3
 1571 0a49 00       		.byte	0
 1572 0a4a 12       		.uleb128 0x12
 1573 0a4b 04       		.byte	0x4
 1574 0a4c 13       		.byte	0x13
 1575 0a4d ED       		.byte	0xed
 1576 0a4e 680A0000 		.4byte	0xa68
 1577 0a52 13       		.uleb128 0x13
 1578 0a53 C4060000 		.4byte	.LASF159
 1579 0a57 13       		.byte	0x13
 1580 0a58 EE       		.byte	0xee
 1581 0a59 F4000000 		.4byte	0xf4
 1582 0a5d 18       		.uleb128 0x18
 1583 0a5e F0090000 		.4byte	0x9f0
 1584 0a62 18       		.uleb128 0x18
 1585 0a63 110A0000 		.4byte	0xa11
 1586 0a67 00       		.byte	0
 1587 0a68 0A       		.uleb128 0xa
 1588 0a69 04       		.byte	0x4
 1589 0a6a 13       		.byte	0x13
 1590 0a6b FC       		.byte	0xfc
 1591 0a6c 890A0000 		.4byte	0xa89
 1592 0a70 08       		.uleb128 0x8
 1593 0a71 20080000 		.4byte	.LASF160
 1594 0a75 13       		.byte	0x13
 1595 0a76 FD       		.byte	0xfd
 1596 0a77 D4000000 		.4byte	0xd4
ARM GAS  /tmp/ccHbY6vn.s 			page 29


 1597 0a7b 00       		.byte	0
 1598 0a7c 08       		.uleb128 0x8
 1599 0a7d 18080000 		.4byte	.LASF161
 1600 0a81 13       		.byte	0x13
 1601 0a82 FE       		.byte	0xfe
 1602 0a83 D4000000 		.4byte	0xd4
 1603 0a87 02       		.byte	0x2
 1604 0a88 00       		.byte	0
 1605 0a89 19       		.uleb128 0x19
 1606 0a8a 04       		.byte	0x4
 1607 0a8b 13       		.byte	0x13
 1608 0a8c 0001     		.2byte	0x100
 1609 0a8e C70A0000 		.4byte	0xac7
 1610 0a92 1A       		.uleb128 0x1a
 1611 0a93 D3070000 		.4byte	.LASF162
 1612 0a97 13       		.byte	0x13
 1613 0a98 0101     		.2byte	0x101
 1614 0a9a BF000000 		.4byte	0xbf
 1615 0a9e 00       		.byte	0
 1616 0a9f 1A       		.uleb128 0x1a
 1617 0aa0 DB070000 		.4byte	.LASF163
 1618 0aa4 13       		.byte	0x13
 1619 0aa5 0201     		.2byte	0x102
 1620 0aa7 BF000000 		.4byte	0xbf
 1621 0aab 01       		.byte	0x1
 1622 0aac 1A       		.uleb128 0x1a
 1623 0aad E3070000 		.4byte	.LASF164
 1624 0ab1 13       		.byte	0x13
 1625 0ab2 0301     		.2byte	0x103
 1626 0ab4 BF000000 		.4byte	0xbf
 1627 0ab8 02       		.byte	0x2
 1628 0ab9 1A       		.uleb128 0x1a
 1629 0aba EB070000 		.4byte	.LASF165
 1630 0abe 13       		.byte	0x13
 1631 0abf 0401     		.2byte	0x104
 1632 0ac1 BF000000 		.4byte	0xbf
 1633 0ac5 03       		.byte	0x3
 1634 0ac6 00       		.byte	0
 1635 0ac7 12       		.uleb128 0x12
 1636 0ac8 04       		.byte	0x4
 1637 0ac9 13       		.byte	0x13
 1638 0aca FA       		.byte	0xfa
 1639 0acb E50A0000 		.4byte	0xae5
 1640 0acf 13       		.uleb128 0x13
 1641 0ad0 35090000 		.4byte	.LASF166
 1642 0ad4 13       		.byte	0x13
 1643 0ad5 FB       		.byte	0xfb
 1644 0ad6 F4000000 		.4byte	0xf4
 1645 0ada 18       		.uleb128 0x18
 1646 0adb 680A0000 		.4byte	0xa68
 1647 0adf 18       		.uleb128 0x18
 1648 0ae0 890A0000 		.4byte	0xa89
 1649 0ae4 00       		.byte	0
 1650 0ae5 0A       		.uleb128 0xa
 1651 0ae6 20       		.byte	0x20
 1652 0ae7 13       		.byte	0x13
 1653 0ae8 C3       		.byte	0xc3
ARM GAS  /tmp/ccHbY6vn.s 			page 30


 1654 0ae9 180B0000 		.4byte	0xb18
 1655 0aed 1B       		.uleb128 0x1b
 1656 0aee E2080000 		.4byte	0x8e2
 1657 0af2 00       		.byte	0
 1658 0af3 08       		.uleb128 0x8
 1659 0af4 FF020000 		.4byte	.LASF167
 1660 0af8 13       		.byte	0x13
 1661 0af9 D2       		.byte	0xd2
 1662 0afa 180B0000 		.4byte	0xb18
 1663 0afe 04       		.byte	0x4
 1664 0aff 1B       		.uleb128 0x1b
 1665 0b00 5A090000 		.4byte	0x95a
 1666 0b04 10       		.byte	0x10
 1667 0b05 1B       		.uleb128 0x1b
 1668 0b06 D2090000 		.4byte	0x9d2
 1669 0b0a 14       		.byte	0x14
 1670 0b0b 1B       		.uleb128 0x1b
 1671 0b0c 4A0A0000 		.4byte	0xa4a
 1672 0b10 18       		.byte	0x18
 1673 0b11 1B       		.uleb128 0x1b
 1674 0b12 C70A0000 		.4byte	0xac7
 1675 0b16 1C       		.byte	0x1c
 1676 0b17 00       		.byte	0
 1677 0b18 15       		.uleb128 0x15
 1678 0b19 E9000000 		.4byte	0xe9
 1679 0b1d 280B0000 		.4byte	0xb28
 1680 0b21 16       		.uleb128 0x16
 1681 0b22 9D030000 		.4byte	0x39d
 1682 0b26 02       		.byte	0x2
 1683 0b27 00       		.byte	0
 1684 0b28 1C       		.uleb128 0x1c
 1685 0b29 AB0B0000 		.4byte	.LASF168
 1686 0b2d 13       		.byte	0x13
 1687 0b2e 0701     		.2byte	0x107
 1688 0b30 E50A0000 		.4byte	0xae5
 1689 0b34 19       		.uleb128 0x19
 1690 0b35 74       		.byte	0x74
 1691 0b36 13       		.byte	0x13
 1692 0b37 1C01     		.2byte	0x11c
 1693 0b39 170C0000 		.4byte	0xc17
 1694 0b3d 0E       		.uleb128 0xe
 1695 0b3e 495200   		.ascii	"IR\000"
 1696 0b41 13       		.byte	0x13
 1697 0b42 1E01     		.2byte	0x11e
 1698 0b44 F4000000 		.4byte	0xf4
 1699 0b48 00       		.byte	0
 1700 0b49 0E       		.uleb128 0xe
 1701 0b4a 54435200 		.ascii	"TCR\000"
 1702 0b4e 13       		.byte	0x13
 1703 0b4f 1F01     		.2byte	0x11f
 1704 0b51 F4000000 		.4byte	0xf4
 1705 0b55 04       		.byte	0x4
 1706 0b56 0E       		.uleb128 0xe
 1707 0b57 544300   		.ascii	"TC\000"
 1708 0b5a 13       		.byte	0x13
 1709 0b5b 2001     		.2byte	0x120
 1710 0b5d F4000000 		.4byte	0xf4
ARM GAS  /tmp/ccHbY6vn.s 			page 31


 1711 0b61 08       		.byte	0x8
 1712 0b62 0E       		.uleb128 0xe
 1713 0b63 505200   		.ascii	"PR\000"
 1714 0b66 13       		.byte	0x13
 1715 0b67 2101     		.2byte	0x121
 1716 0b69 F4000000 		.4byte	0xf4
 1717 0b6d 0C       		.byte	0xc
 1718 0b6e 0E       		.uleb128 0xe
 1719 0b6f 504300   		.ascii	"PC\000"
 1720 0b72 13       		.byte	0x13
 1721 0b73 2201     		.2byte	0x122
 1722 0b75 F4000000 		.4byte	0xf4
 1723 0b79 10       		.byte	0x10
 1724 0b7a 0E       		.uleb128 0xe
 1725 0b7b 4D435200 		.ascii	"MCR\000"
 1726 0b7f 13       		.byte	0x13
 1727 0b80 2301     		.2byte	0x123
 1728 0b82 F4000000 		.4byte	0xf4
 1729 0b86 14       		.byte	0x14
 1730 0b87 0E       		.uleb128 0xe
 1731 0b88 4D523000 		.ascii	"MR0\000"
 1732 0b8c 13       		.byte	0x13
 1733 0b8d 2401     		.2byte	0x124
 1734 0b8f F4000000 		.4byte	0xf4
 1735 0b93 18       		.byte	0x18
 1736 0b94 0E       		.uleb128 0xe
 1737 0b95 4D523100 		.ascii	"MR1\000"
 1738 0b99 13       		.byte	0x13
 1739 0b9a 2501     		.2byte	0x125
 1740 0b9c F4000000 		.4byte	0xf4
 1741 0ba0 1C       		.byte	0x1c
 1742 0ba1 0E       		.uleb128 0xe
 1743 0ba2 4D523200 		.ascii	"MR2\000"
 1744 0ba6 13       		.byte	0x13
 1745 0ba7 2601     		.2byte	0x126
 1746 0ba9 F4000000 		.4byte	0xf4
 1747 0bad 20       		.byte	0x20
 1748 0bae 0E       		.uleb128 0xe
 1749 0baf 4D523300 		.ascii	"MR3\000"
 1750 0bb3 13       		.byte	0x13
 1751 0bb4 2701     		.2byte	0x127
 1752 0bb6 F4000000 		.4byte	0xf4
 1753 0bba 24       		.byte	0x24
 1754 0bbb 0E       		.uleb128 0xe
 1755 0bbc 43435200 		.ascii	"CCR\000"
 1756 0bc0 13       		.byte	0x13
 1757 0bc1 2801     		.2byte	0x128
 1758 0bc3 F4000000 		.4byte	0xf4
 1759 0bc7 28       		.byte	0x28
 1760 0bc8 0E       		.uleb128 0xe
 1761 0bc9 43523000 		.ascii	"CR0\000"
 1762 0bcd 13       		.byte	0x13
 1763 0bce 2901     		.2byte	0x129
 1764 0bd0 F9000000 		.4byte	0xf9
 1765 0bd4 2C       		.byte	0x2c
 1766 0bd5 0E       		.uleb128 0xe
 1767 0bd6 43523100 		.ascii	"CR1\000"
ARM GAS  /tmp/ccHbY6vn.s 			page 32


 1768 0bda 13       		.byte	0x13
 1769 0bdb 2A01     		.2byte	0x12a
 1770 0bdd F9000000 		.4byte	0xf9
 1771 0be1 30       		.byte	0x30
 1772 0be2 1A       		.uleb128 0x1a
 1773 0be3 FF020000 		.4byte	.LASF167
 1774 0be7 13       		.byte	0x13
 1775 0be8 2B01     		.2byte	0x12b
 1776 0bea 51080000 		.4byte	0x851
 1777 0bee 34       		.byte	0x34
 1778 0bef 0E       		.uleb128 0xe
 1779 0bf0 454D5200 		.ascii	"EMR\000"
 1780 0bf4 13       		.byte	0x13
 1781 0bf5 2C01     		.2byte	0x12c
 1782 0bf7 F4000000 		.4byte	0xf4
 1783 0bfb 3C       		.byte	0x3c
 1784 0bfc 1A       		.uleb128 0x1a
 1785 0bfd 09030000 		.4byte	.LASF169
 1786 0c01 13       		.byte	0x13
 1787 0c02 2D01     		.2byte	0x12d
 1788 0c04 78080000 		.4byte	0x878
 1789 0c08 40       		.byte	0x40
 1790 0c09 1A       		.uleb128 0x1a
 1791 0c0a D5000000 		.4byte	.LASF170
 1792 0c0e 13       		.byte	0x13
 1793 0c0f 2E01     		.2byte	0x12e
 1794 0c11 F4000000 		.4byte	0xf4
 1795 0c15 70       		.byte	0x70
 1796 0c16 00       		.byte	0
 1797 0c17 1C       		.uleb128 0x1c
 1798 0c18 11090000 		.4byte	.LASF171
 1799 0c1c 13       		.byte	0x13
 1800 0c1d 2F01     		.2byte	0x12f
 1801 0c1f 340B0000 		.4byte	0xb34
 1802 0c23 1D       		.uleb128 0x1d
 1803 0c24 04       		.byte	0x4
 1804 0c25 13       		.byte	0x13
 1805 0c26 5201     		.2byte	0x152
 1806 0c28 510C0000 		.4byte	0xc51
 1807 0c2c 1E       		.uleb128 0x1e
 1808 0c2d 52425200 		.ascii	"RBR\000"
 1809 0c31 13       		.byte	0x13
 1810 0c32 5301     		.2byte	0x153
 1811 0c34 F9000000 		.4byte	0xf9
 1812 0c38 1E       		.uleb128 0x1e
 1813 0c39 54485200 		.ascii	"THR\000"
 1814 0c3d 13       		.byte	0x13
 1815 0c3e 5401     		.2byte	0x154
 1816 0c40 F4000000 		.4byte	0xf4
 1817 0c44 1E       		.uleb128 0x1e
 1818 0c45 444C4C00 		.ascii	"DLL\000"
 1819 0c49 13       		.byte	0x13
 1820 0c4a 5501     		.2byte	0x155
 1821 0c4c F4000000 		.4byte	0xf4
 1822 0c50 00       		.byte	0
 1823 0c51 1D       		.uleb128 0x1d
 1824 0c52 04       		.byte	0x4
ARM GAS  /tmp/ccHbY6vn.s 			page 33


 1825 0c53 13       		.byte	0x13
 1826 0c54 5701     		.2byte	0x157
 1827 0c56 730C0000 		.4byte	0xc73
 1828 0c5a 1E       		.uleb128 0x1e
 1829 0c5b 444C4D00 		.ascii	"DLM\000"
 1830 0c5f 13       		.byte	0x13
 1831 0c60 5801     		.2byte	0x158
 1832 0c62 F4000000 		.4byte	0xf4
 1833 0c66 1E       		.uleb128 0x1e
 1834 0c67 49455200 		.ascii	"IER\000"
 1835 0c6b 13       		.byte	0x13
 1836 0c6c 5901     		.2byte	0x159
 1837 0c6e F4000000 		.4byte	0xf4
 1838 0c72 00       		.byte	0
 1839 0c73 1D       		.uleb128 0x1d
 1840 0c74 04       		.byte	0x4
 1841 0c75 13       		.byte	0x13
 1842 0c76 5B01     		.2byte	0x15b
 1843 0c78 950C0000 		.4byte	0xc95
 1844 0c7c 1E       		.uleb128 0x1e
 1845 0c7d 49495200 		.ascii	"IIR\000"
 1846 0c81 13       		.byte	0x13
 1847 0c82 5C01     		.2byte	0x15c
 1848 0c84 F9000000 		.4byte	0xf9
 1849 0c88 1E       		.uleb128 0x1e
 1850 0c89 46435200 		.ascii	"FCR\000"
 1851 0c8d 13       		.byte	0x13
 1852 0c8e 5D01     		.2byte	0x15d
 1853 0c90 F4000000 		.4byte	0xf4
 1854 0c94 00       		.byte	0
 1855 0c95 19       		.uleb128 0x19
 1856 0c96 34       		.byte	0x34
 1857 0c97 13       		.byte	0x13
 1858 0c98 5001     		.2byte	0x150
 1859 0c9a 330D0000 		.4byte	0xd33
 1860 0c9e 1B       		.uleb128 0x1b
 1861 0c9f 230C0000 		.4byte	0xc23
 1862 0ca3 00       		.byte	0
 1863 0ca4 1B       		.uleb128 0x1b
 1864 0ca5 510C0000 		.4byte	0xc51
 1865 0ca9 04       		.byte	0x4
 1866 0caa 1B       		.uleb128 0x1b
 1867 0cab 730C0000 		.4byte	0xc73
 1868 0caf 08       		.byte	0x8
 1869 0cb0 0E       		.uleb128 0xe
 1870 0cb1 4C435200 		.ascii	"LCR\000"
 1871 0cb5 13       		.byte	0x13
 1872 0cb6 5F01     		.2byte	0x15f
 1873 0cb8 F4000000 		.4byte	0xf4
 1874 0cbc 0C       		.byte	0xc
 1875 0cbd 1A       		.uleb128 0x1a
 1876 0cbe FF020000 		.4byte	.LASF167
 1877 0cc2 13       		.byte	0x13
 1878 0cc3 6001     		.2byte	0x160
 1879 0cc5 E9000000 		.4byte	0xe9
 1880 0cc9 10       		.byte	0x10
 1881 0cca 0E       		.uleb128 0xe
ARM GAS  /tmp/ccHbY6vn.s 			page 34


 1882 0ccb 4C535200 		.ascii	"LSR\000"
 1883 0ccf 13       		.byte	0x13
 1884 0cd0 6101     		.2byte	0x161
 1885 0cd2 F9000000 		.4byte	0xf9
 1886 0cd6 14       		.byte	0x14
 1887 0cd7 1A       		.uleb128 0x1a
 1888 0cd8 09030000 		.4byte	.LASF169
 1889 0cdc 13       		.byte	0x13
 1890 0cdd 6201     		.2byte	0x162
 1891 0cdf E9000000 		.4byte	0xe9
 1892 0ce3 18       		.byte	0x18
 1893 0ce4 0E       		.uleb128 0xe
 1894 0ce5 53435200 		.ascii	"SCR\000"
 1895 0ce9 13       		.byte	0x13
 1896 0cea 6301     		.2byte	0x163
 1897 0cec F4000000 		.4byte	0xf4
 1898 0cf0 1C       		.byte	0x1c
 1899 0cf1 0E       		.uleb128 0xe
 1900 0cf2 41435200 		.ascii	"ACR\000"
 1901 0cf6 13       		.byte	0x13
 1902 0cf7 6401     		.2byte	0x164
 1903 0cf9 F4000000 		.4byte	0xf4
 1904 0cfd 20       		.byte	0x20
 1905 0cfe 0E       		.uleb128 0xe
 1906 0cff 49435200 		.ascii	"ICR\000"
 1907 0d03 13       		.byte	0x13
 1908 0d04 6501     		.2byte	0x165
 1909 0d06 F4000000 		.4byte	0xf4
 1910 0d0a 24       		.byte	0x24
 1911 0d0b 0E       		.uleb128 0xe
 1912 0d0c 46445200 		.ascii	"FDR\000"
 1913 0d10 13       		.byte	0x13
 1914 0d11 6601     		.2byte	0x166
 1915 0d13 F4000000 		.4byte	0xf4
 1916 0d17 28       		.byte	0x28
 1917 0d18 1A       		.uleb128 0x1a
 1918 0d19 75030000 		.4byte	.LASF172
 1919 0d1d 13       		.byte	0x13
 1920 0d1e 6701     		.2byte	0x167
 1921 0d20 E9000000 		.4byte	0xe9
 1922 0d24 2C       		.byte	0x2c
 1923 0d25 0E       		.uleb128 0xe
 1924 0d26 54455200 		.ascii	"TER\000"
 1925 0d2a 13       		.byte	0x13
 1926 0d2b 6801     		.2byte	0x168
 1927 0d2d F4000000 		.4byte	0xf4
 1928 0d31 30       		.byte	0x30
 1929 0d32 00       		.byte	0
 1930 0d33 1C       		.uleb128 0x1c
 1931 0d34 360A0000 		.4byte	.LASF173
 1932 0d38 13       		.byte	0x13
 1933 0d39 6901     		.2byte	0x169
 1934 0d3b 950C0000 		.4byte	0xc95
 1935 0d3f 19       		.uleb128 0x19
 1936 0d40 28       		.byte	0x28
 1937 0d41 13       		.byte	0x13
 1938 0d42 9901     		.2byte	0x199
ARM GAS  /tmp/ccHbY6vn.s 			page 35


 1939 0d44 C90D0000 		.4byte	0xdc9
 1940 0d48 0E       		.uleb128 0xe
 1941 0d49 43523000 		.ascii	"CR0\000"
 1942 0d4d 13       		.byte	0x13
 1943 0d4e 9B01     		.2byte	0x19b
 1944 0d50 F4000000 		.4byte	0xf4
 1945 0d54 00       		.byte	0
 1946 0d55 0E       		.uleb128 0xe
 1947 0d56 43523100 		.ascii	"CR1\000"
 1948 0d5a 13       		.byte	0x13
 1949 0d5b 9C01     		.2byte	0x19c
 1950 0d5d F4000000 		.4byte	0xf4
 1951 0d61 04       		.byte	0x4
 1952 0d62 0E       		.uleb128 0xe
 1953 0d63 445200   		.ascii	"DR\000"
 1954 0d66 13       		.byte	0x13
 1955 0d67 9D01     		.2byte	0x19d
 1956 0d69 F4000000 		.4byte	0xf4
 1957 0d6d 08       		.byte	0x8
 1958 0d6e 0E       		.uleb128 0xe
 1959 0d6f 535200   		.ascii	"SR\000"
 1960 0d72 13       		.byte	0x13
 1961 0d73 9E01     		.2byte	0x19e
 1962 0d75 F9000000 		.4byte	0xf9
 1963 0d79 0C       		.byte	0xc
 1964 0d7a 1A       		.uleb128 0x1a
 1965 0d7b 8E0A0000 		.4byte	.LASF174
 1966 0d7f 13       		.byte	0x13
 1967 0d80 9F01     		.2byte	0x19f
 1968 0d82 F4000000 		.4byte	0xf4
 1969 0d86 10       		.byte	0x10
 1970 0d87 1A       		.uleb128 0x1a
 1971 0d88 D2020000 		.4byte	.LASF175
 1972 0d8c 13       		.byte	0x13
 1973 0d8d A001     		.2byte	0x1a0
 1974 0d8f F4000000 		.4byte	0xf4
 1975 0d93 14       		.byte	0x14
 1976 0d94 0E       		.uleb128 0xe
 1977 0d95 52495300 		.ascii	"RIS\000"
 1978 0d99 13       		.byte	0x13
 1979 0d9a A101     		.2byte	0x1a1
 1980 0d9c F4000000 		.4byte	0xf4
 1981 0da0 18       		.byte	0x18
 1982 0da1 0E       		.uleb128 0xe
 1983 0da2 4D495300 		.ascii	"MIS\000"
 1984 0da6 13       		.byte	0x13
 1985 0da7 A201     		.2byte	0x1a2
 1986 0da9 F4000000 		.4byte	0xf4
 1987 0dad 1C       		.byte	0x1c
 1988 0dae 0E       		.uleb128 0xe
 1989 0daf 49435200 		.ascii	"ICR\000"
 1990 0db3 13       		.byte	0x13
 1991 0db4 A301     		.2byte	0x1a3
 1992 0db6 F4000000 		.4byte	0xf4
 1993 0dba 20       		.byte	0x20
 1994 0dbb 1A       		.uleb128 0x1a
 1995 0dbc 8B030000 		.4byte	.LASF176
ARM GAS  /tmp/ccHbY6vn.s 			page 36


 1996 0dc0 13       		.byte	0x13
 1997 0dc1 A401     		.2byte	0x1a4
 1998 0dc3 F4000000 		.4byte	0xf4
 1999 0dc7 24       		.byte	0x24
 2000 0dc8 00       		.byte	0
 2001 0dc9 1C       		.uleb128 0x1c
 2002 0dca 87020000 		.4byte	.LASF177
 2003 0dce 13       		.byte	0x13
 2004 0dcf A501     		.2byte	0x1a5
 2005 0dd1 3F0D0000 		.4byte	0xd3f
 2006 0dd5 19       		.uleb128 0x19
 2007 0dd6 38       		.byte	0x38
 2008 0dd7 13       		.byte	0x13
 2009 0dd8 0E02     		.2byte	0x20e
 2010 0dda 380E0000 		.4byte	0xe38
 2011 0dde 0E       		.uleb128 0xe
 2012 0ddf 435200   		.ascii	"CR\000"
 2013 0de2 13       		.byte	0x13
 2014 0de3 1002     		.2byte	0x210
 2015 0de5 F4000000 		.4byte	0xf4
 2016 0de9 00       		.byte	0
 2017 0dea 0E       		.uleb128 0xe
 2018 0deb 47445200 		.ascii	"GDR\000"
 2019 0def 13       		.byte	0x13
 2020 0df0 1102     		.2byte	0x211
 2021 0df2 F4000000 		.4byte	0xf4
 2022 0df6 04       		.byte	0x4
 2023 0df7 1A       		.uleb128 0x1a
 2024 0df8 FF020000 		.4byte	.LASF167
 2025 0dfc 13       		.byte	0x13
 2026 0dfd 1202     		.2byte	0x212
 2027 0dff E9000000 		.4byte	0xe9
 2028 0e03 08       		.byte	0x8
 2029 0e04 1A       		.uleb128 0x1a
 2030 0e05 670B0000 		.4byte	.LASF178
 2031 0e09 13       		.byte	0x13
 2032 0e0a 1302     		.2byte	0x213
 2033 0e0c F4000000 		.4byte	0xf4
 2034 0e10 0C       		.byte	0xc
 2035 0e11 0E       		.uleb128 0xe
 2036 0e12 445200   		.ascii	"DR\000"
 2037 0e15 13       		.byte	0x13
 2038 0e16 1402     		.2byte	0x214
 2039 0e18 4D0E0000 		.4byte	0xe4d
 2040 0e1c 10       		.byte	0x10
 2041 0e1d 1A       		.uleb128 0x1a
 2042 0e1e 2C010000 		.4byte	.LASF179
 2043 0e22 13       		.byte	0x13
 2044 0e23 1502     		.2byte	0x215
 2045 0e25 F9000000 		.4byte	0xf9
 2046 0e29 30       		.byte	0x30
 2047 0e2a 1A       		.uleb128 0x1a
 2048 0e2b AC060000 		.4byte	.LASF180
 2049 0e2f 13       		.byte	0x13
 2050 0e30 1602     		.2byte	0x216
 2051 0e32 F4000000 		.4byte	0xf4
 2052 0e36 34       		.byte	0x34
ARM GAS  /tmp/ccHbY6vn.s 			page 37


 2053 0e37 00       		.byte	0
 2054 0e38 15       		.uleb128 0x15
 2055 0e39 F9000000 		.4byte	0xf9
 2056 0e3d 480E0000 		.4byte	0xe48
 2057 0e41 16       		.uleb128 0x16
 2058 0e42 9D030000 		.4byte	0x39d
 2059 0e46 07       		.byte	0x7
 2060 0e47 00       		.byte	0
 2061 0e48 06       		.uleb128 0x6
 2062 0e49 380E0000 		.4byte	0xe38
 2063 0e4d 05       		.uleb128 0x5
 2064 0e4e 480E0000 		.4byte	0xe48
 2065 0e52 1C       		.uleb128 0x1c
 2066 0e53 01010000 		.4byte	.LASF181
 2067 0e57 13       		.byte	0x13
 2068 0e58 1702     		.2byte	0x217
 2069 0e5a D50D0000 		.4byte	0xdd5
 2070 0e5e 19       		.uleb128 0x19
 2071 0e5f 60       		.byte	0x60
 2072 0e60 13       		.byte	0x13
 2073 0e61 8302     		.2byte	0x283
 2074 0e63 9F0F0000 		.4byte	0xf9f
 2075 0e67 0E       		.uleb128 0xe
 2076 0e68 4D4F4400 		.ascii	"MOD\000"
 2077 0e6c 13       		.byte	0x13
 2078 0e6d 8502     		.2byte	0x285
 2079 0e6f F4000000 		.4byte	0xf4
 2080 0e73 00       		.byte	0
 2081 0e74 0E       		.uleb128 0xe
 2082 0e75 434D5200 		.ascii	"CMR\000"
 2083 0e79 13       		.byte	0x13
 2084 0e7a 8602     		.2byte	0x286
 2085 0e7c F4000000 		.4byte	0xf4
 2086 0e80 04       		.byte	0x4
 2087 0e81 0E       		.uleb128 0xe
 2088 0e82 47535200 		.ascii	"GSR\000"
 2089 0e86 13       		.byte	0x13
 2090 0e87 8702     		.2byte	0x287
 2091 0e89 F4000000 		.4byte	0xf4
 2092 0e8d 08       		.byte	0x8
 2093 0e8e 0E       		.uleb128 0xe
 2094 0e8f 49435200 		.ascii	"ICR\000"
 2095 0e93 13       		.byte	0x13
 2096 0e94 8802     		.2byte	0x288
 2097 0e96 F9000000 		.4byte	0xf9
 2098 0e9a 0C       		.byte	0xc
 2099 0e9b 0E       		.uleb128 0xe
 2100 0e9c 49455200 		.ascii	"IER\000"
 2101 0ea0 13       		.byte	0x13
 2102 0ea1 8902     		.2byte	0x289
 2103 0ea3 F4000000 		.4byte	0xf4
 2104 0ea7 10       		.byte	0x10
 2105 0ea8 0E       		.uleb128 0xe
 2106 0ea9 42545200 		.ascii	"BTR\000"
 2107 0ead 13       		.byte	0x13
 2108 0eae 8A02     		.2byte	0x28a
 2109 0eb0 F4000000 		.4byte	0xf4
ARM GAS  /tmp/ccHbY6vn.s 			page 38


 2110 0eb4 14       		.byte	0x14
 2111 0eb5 0E       		.uleb128 0xe
 2112 0eb6 45574C00 		.ascii	"EWL\000"
 2113 0eba 13       		.byte	0x13
 2114 0ebb 8B02     		.2byte	0x28b
 2115 0ebd F4000000 		.4byte	0xf4
 2116 0ec1 18       		.byte	0x18
 2117 0ec2 0E       		.uleb128 0xe
 2118 0ec3 535200   		.ascii	"SR\000"
 2119 0ec6 13       		.byte	0x13
 2120 0ec7 8C02     		.2byte	0x28c
 2121 0ec9 F9000000 		.4byte	0xf9
 2122 0ecd 1C       		.byte	0x1c
 2123 0ece 0E       		.uleb128 0xe
 2124 0ecf 52465300 		.ascii	"RFS\000"
 2125 0ed3 13       		.byte	0x13
 2126 0ed4 8D02     		.2byte	0x28d
 2127 0ed6 F4000000 		.4byte	0xf4
 2128 0eda 20       		.byte	0x20
 2129 0edb 0E       		.uleb128 0xe
 2130 0edc 52494400 		.ascii	"RID\000"
 2131 0ee0 13       		.byte	0x13
 2132 0ee1 8E02     		.2byte	0x28e
 2133 0ee3 F4000000 		.4byte	0xf4
 2134 0ee7 24       		.byte	0x24
 2135 0ee8 0E       		.uleb128 0xe
 2136 0ee9 52444100 		.ascii	"RDA\000"
 2137 0eed 13       		.byte	0x13
 2138 0eee 8F02     		.2byte	0x28f
 2139 0ef0 F4000000 		.4byte	0xf4
 2140 0ef4 28       		.byte	0x28
 2141 0ef5 0E       		.uleb128 0xe
 2142 0ef6 52444200 		.ascii	"RDB\000"
 2143 0efa 13       		.byte	0x13
 2144 0efb 9002     		.2byte	0x290
 2145 0efd F4000000 		.4byte	0xf4
 2146 0f01 2C       		.byte	0x2c
 2147 0f02 1A       		.uleb128 0x1a
 2148 0f03 620B0000 		.4byte	.LASF182
 2149 0f07 13       		.byte	0x13
 2150 0f08 9102     		.2byte	0x291
 2151 0f0a F4000000 		.4byte	0xf4
 2152 0f0e 30       		.byte	0x30
 2153 0f0f 1A       		.uleb128 0x1a
 2154 0f10 D0050000 		.4byte	.LASF183
 2155 0f14 13       		.byte	0x13
 2156 0f15 9202     		.2byte	0x292
 2157 0f17 F4000000 		.4byte	0xf4
 2158 0f1b 34       		.byte	0x34
 2159 0f1c 1A       		.uleb128 0x1a
 2160 0f1d 72040000 		.4byte	.LASF184
 2161 0f21 13       		.byte	0x13
 2162 0f22 9302     		.2byte	0x293
 2163 0f24 F4000000 		.4byte	0xf4
 2164 0f28 38       		.byte	0x38
 2165 0f29 1A       		.uleb128 0x1a
 2166 0f2a 9B040000 		.4byte	.LASF185
ARM GAS  /tmp/ccHbY6vn.s 			page 39


 2167 0f2e 13       		.byte	0x13
 2168 0f2f 9402     		.2byte	0x294
 2169 0f31 F4000000 		.4byte	0xf4
 2170 0f35 3C       		.byte	0x3c
 2171 0f36 1A       		.uleb128 0x1a
 2172 0f37 26000000 		.4byte	.LASF186
 2173 0f3b 13       		.byte	0x13
 2174 0f3c 9502     		.2byte	0x295
 2175 0f3e F4000000 		.4byte	0xf4
 2176 0f42 40       		.byte	0x40
 2177 0f43 1A       		.uleb128 0x1a
 2178 0f44 D5050000 		.4byte	.LASF187
 2179 0f48 13       		.byte	0x13
 2180 0f49 9602     		.2byte	0x296
 2181 0f4b F4000000 		.4byte	0xf4
 2182 0f4f 44       		.byte	0x44
 2183 0f50 1A       		.uleb128 0x1a
 2184 0f51 77040000 		.4byte	.LASF188
 2185 0f55 13       		.byte	0x13
 2186 0f56 9702     		.2byte	0x297
 2187 0f58 F4000000 		.4byte	0xf4
 2188 0f5c 48       		.byte	0x48
 2189 0f5d 1A       		.uleb128 0x1a
 2190 0f5e A0040000 		.4byte	.LASF189
 2191 0f62 13       		.byte	0x13
 2192 0f63 9802     		.2byte	0x298
 2193 0f65 F4000000 		.4byte	0xf4
 2194 0f69 4C       		.byte	0x4c
 2195 0f6a 1A       		.uleb128 0x1a
 2196 0f6b 2B000000 		.4byte	.LASF190
 2197 0f6f 13       		.byte	0x13
 2198 0f70 9902     		.2byte	0x299
 2199 0f72 F4000000 		.4byte	0xf4
 2200 0f76 50       		.byte	0x50
 2201 0f77 1A       		.uleb128 0x1a
 2202 0f78 DA050000 		.4byte	.LASF191
 2203 0f7c 13       		.byte	0x13
 2204 0f7d 9A02     		.2byte	0x29a
 2205 0f7f F4000000 		.4byte	0xf4
 2206 0f83 54       		.byte	0x54
 2207 0f84 1A       		.uleb128 0x1a
 2208 0f85 7C040000 		.4byte	.LASF192
 2209 0f89 13       		.byte	0x13
 2210 0f8a 9B02     		.2byte	0x29b
 2211 0f8c F4000000 		.4byte	0xf4
 2212 0f90 58       		.byte	0x58
 2213 0f91 1A       		.uleb128 0x1a
 2214 0f92 A5040000 		.4byte	.LASF193
 2215 0f96 13       		.byte	0x13
 2216 0f97 9C02     		.2byte	0x29c
 2217 0f99 F4000000 		.4byte	0xf4
 2218 0f9d 5C       		.byte	0x5c
 2219 0f9e 00       		.byte	0
 2220 0f9f 1C       		.uleb128 0x1c
 2221 0fa0 3D040000 		.4byte	.LASF194
 2222 0fa4 13       		.byte	0x13
 2223 0fa5 9D02     		.2byte	0x29d
ARM GAS  /tmp/ccHbY6vn.s 			page 40


 2224 0fa7 5E0E0000 		.4byte	0xe5e
 2225 0fab 19       		.uleb128 0x19
 2226 0fac 14       		.byte	0x14
 2227 0fad 13       		.byte	0x13
 2228 0fae B402     		.2byte	0x2b4
 2229 0fb0 F60F0000 		.4byte	0xff6
 2230 0fb4 1A       		.uleb128 0x1a
 2231 0fb5 E7010000 		.4byte	.LASF195
 2232 0fb9 13       		.byte	0x13
 2233 0fba B602     		.2byte	0x2b6
 2234 0fbc F4000000 		.4byte	0xf4
 2235 0fc0 00       		.byte	0
 2236 0fc1 1A       		.uleb128 0x1a
 2237 0fc2 AF010000 		.4byte	.LASF196
 2238 0fc6 13       		.byte	0x13
 2239 0fc7 B702     		.2byte	0x2b7
 2240 0fc9 F4000000 		.4byte	0xf4
 2241 0fcd 04       		.byte	0x4
 2242 0fce 1A       		.uleb128 0x1a
 2243 0fcf 470A0000 		.4byte	.LASF197
 2244 0fd3 13       		.byte	0x13
 2245 0fd4 B802     		.2byte	0x2b8
 2246 0fd6 F4000000 		.4byte	0xf4
 2247 0fda 08       		.byte	0x8
 2248 0fdb 1A       		.uleb128 0x1a
 2249 0fdc 74050000 		.4byte	.LASF198
 2250 0fe0 13       		.byte	0x13
 2251 0fe1 B902     		.2byte	0x2b9
 2252 0fe3 F4000000 		.4byte	0xf4
 2253 0fe7 0C       		.byte	0xc
 2254 0fe8 1A       		.uleb128 0x1a
 2255 0fe9 420B0000 		.4byte	.LASF199
 2256 0fed 13       		.byte	0x13
 2257 0fee BA02     		.2byte	0x2ba
 2258 0ff0 F4000000 		.4byte	0xf4
 2259 0ff4 10       		.byte	0x10
 2260 0ff5 00       		.byte	0
 2261 0ff6 1C       		.uleb128 0x1c
 2262 0ff7 AE000000 		.4byte	.LASF200
 2263 0ffb 13       		.byte	0x13
 2264 0ffc BB02     		.2byte	0x2bb
 2265 0ffe AB0F0000 		.4byte	0xfab
 2266 1002 15       		.uleb128 0x15
 2267 1003 0D100000 		.4byte	0x100d
 2268 1007 0D100000 		.4byte	0x100d
 2269 100b 1F       		.uleb128 0x1f
 2270 100c 00       		.byte	0
 2271 100d 0B       		.uleb128 0xb
 2272 100e 04       		.byte	0x4
 2273 100f F60F0000 		.4byte	0xff6
 2274 1013 17       		.uleb128 0x17
 2275 1014 9A050000 		.4byte	.LASF201
 2276 1018 14       		.byte	0x14
 2277 1019 9501     		.2byte	0x195
 2278 101b 02100000 		.4byte	0x1002
 2279 101f 14       		.uleb128 0x14
 2280 1020 52010000 		.4byte	0x152
ARM GAS  /tmp/ccHbY6vn.s 			page 41


 2281 1024 38100000 		.4byte	0x1038
 2282 1028 10       		.uleb128 0x10
 2283 1029 F3020000 		.4byte	0x2f3
 2284 102d 10       		.uleb128 0x10
 2285 102e B4000000 		.4byte	0xb4
 2286 1032 10       		.uleb128 0x10
 2287 1033 73010000 		.4byte	0x173
 2288 1037 00       		.byte	0
 2289 1038 0B       		.uleb128 0xb
 2290 1039 04       		.byte	0x4
 2291 103a 1F100000 		.4byte	0x101f
 2292 103e 14       		.uleb128 0x14
 2293 103f 52010000 		.4byte	0x152
 2294 1043 52100000 		.4byte	0x1052
 2295 1047 10       		.uleb128 0x10
 2296 1048 F3020000 		.4byte	0x2f3
 2297 104c 10       		.uleb128 0x10
 2298 104d 73010000 		.4byte	0x173
 2299 1051 00       		.byte	0
 2300 1052 0B       		.uleb128 0xb
 2301 1053 04       		.byte	0x4
 2302 1054 3E100000 		.4byte	0x103e
 2303 1058 14       		.uleb128 0x14
 2304 1059 2C000000 		.4byte	0x2c
 2305 105d 76100000 		.4byte	0x1076
 2306 1061 10       		.uleb128 0x10
 2307 1062 F3020000 		.4byte	0x2f3
 2308 1066 10       		.uleb128 0x10
 2309 1067 F1070000 		.4byte	0x7f1
 2310 106b 10       		.uleb128 0x10
 2311 106c 2C000000 		.4byte	0x2c
 2312 1070 10       		.uleb128 0x10
 2313 1071 73010000 		.4byte	0x173
 2314 1075 00       		.byte	0
 2315 1076 0B       		.uleb128 0xb
 2316 1077 04       		.byte	0x4
 2317 1078 58100000 		.4byte	0x1058
 2318 107c 14       		.uleb128 0x14
 2319 107d 2C000000 		.4byte	0x2c
 2320 1081 9A100000 		.4byte	0x109a
 2321 1085 10       		.uleb128 0x10
 2322 1086 F3020000 		.4byte	0x2f3
 2323 108a 10       		.uleb128 0x10
 2324 108b BC070000 		.4byte	0x7bc
 2325 108f 10       		.uleb128 0x10
 2326 1090 2C000000 		.4byte	0x2c
 2327 1094 10       		.uleb128 0x10
 2328 1095 73010000 		.4byte	0x173
 2329 1099 00       		.byte	0
 2330 109a 0B       		.uleb128 0xb
 2331 109b 04       		.byte	0x4
 2332 109c 7C100000 		.4byte	0x107c
 2333 10a0 0A       		.uleb128 0xa
 2334 10a1 08       		.byte	0x8
 2335 10a2 15       		.byte	0x15
 2336 10a3 2E       		.byte	0x2e
 2337 10a4 C1100000 		.4byte	0x10c1
ARM GAS  /tmp/ccHbY6vn.s 			page 42


 2338 10a8 08       		.uleb128 0x8
 2339 10a9 750C0000 		.4byte	.LASF202
 2340 10ad 15       		.byte	0x15
 2341 10ae 30       		.byte	0x30
 2342 10af E9000000 		.4byte	0xe9
 2343 10b3 00       		.byte	0
 2344 10b4 09       		.uleb128 0x9
 2345 10b5 64697200 		.ascii	"dir\000"
 2346 10b9 15       		.byte	0x15
 2347 10ba 32       		.byte	0x32
 2348 10bb E9000000 		.4byte	0xe9
 2349 10bf 04       		.byte	0x4
 2350 10c0 00       		.byte	0
 2351 10c1 03       		.uleb128 0x3
 2352 10c2 010B0000 		.4byte	.LASF203
 2353 10c6 15       		.byte	0x15
 2354 10c7 33       		.byte	0x33
 2355 10c8 A0100000 		.4byte	0x10a0
 2356 10cc 0A       		.uleb128 0xa
 2357 10cd 28       		.byte	0x28
 2358 10ce 15       		.byte	0x15
 2359 10cf 41       		.byte	0x41
 2360 10d0 0C110000 		.4byte	0x110c
 2361 10d4 09       		.uleb128 0x9
 2362 10d5 503000   		.ascii	"P0\000"
 2363 10d8 15       		.byte	0x15
 2364 10d9 43       		.byte	0x43
 2365 10da C1100000 		.4byte	0x10c1
 2366 10de 00       		.byte	0
 2367 10df 09       		.uleb128 0x9
 2368 10e0 503100   		.ascii	"P1\000"
 2369 10e3 15       		.byte	0x15
 2370 10e4 45       		.byte	0x45
 2371 10e5 C1100000 		.4byte	0x10c1
 2372 10e9 08       		.byte	0x8
 2373 10ea 09       		.uleb128 0x9
 2374 10eb 503200   		.ascii	"P2\000"
 2375 10ee 15       		.byte	0x15
 2376 10ef 47       		.byte	0x47
 2377 10f0 C1100000 		.4byte	0x10c1
 2378 10f4 10       		.byte	0x10
 2379 10f5 09       		.uleb128 0x9
 2380 10f6 503300   		.ascii	"P3\000"
 2381 10f9 15       		.byte	0x15
 2382 10fa 49       		.byte	0x49
 2383 10fb C1100000 		.4byte	0x10c1
 2384 10ff 18       		.byte	0x18
 2385 1100 09       		.uleb128 0x9
 2386 1101 503400   		.ascii	"P4\000"
 2387 1104 15       		.byte	0x15
 2388 1105 4B       		.byte	0x4b
 2389 1106 C1100000 		.4byte	0x10c1
 2390 110a 20       		.byte	0x20
 2391 110b 00       		.byte	0
 2392 110c 03       		.uleb128 0x3
 2393 110d 2A0B0000 		.4byte	.LASF204
 2394 1111 15       		.byte	0x15
ARM GAS  /tmp/ccHbY6vn.s 			page 43


 2395 1112 4C       		.byte	0x4c
 2396 1113 CC100000 		.4byte	0x10cc
 2397 1117 06       		.uleb128 0x6
 2398 1118 0C110000 		.4byte	0x110c
 2399 111c 03       		.uleb128 0x3
 2400 111d 4D040000 		.4byte	.LASF205
 2401 1121 15       		.byte	0x15
 2402 1122 5C       		.byte	0x5c
 2403 1123 E9000000 		.4byte	0xe9
 2404 1127 03       		.uleb128 0x3
 2405 1128 58010000 		.4byte	.LASF206
 2406 112c 15       		.byte	0x15
 2407 112d 61       		.byte	0x61
 2408 112e E9000000 		.4byte	0xe9
 2409 1132 03       		.uleb128 0x3
 2410 1133 59020000 		.4byte	.LASF207
 2411 1137 15       		.byte	0x15
 2412 1138 66       		.byte	0x66
 2413 1139 3D110000 		.4byte	0x113d
 2414 113d 0B       		.uleb128 0xb
 2415 113e 04       		.byte	0x4
 2416 113f 280B0000 		.4byte	0xb28
 2417 1143 17       		.uleb128 0x17
 2418 1144 97020000 		.4byte	.LASF208
 2419 1148 15       		.byte	0x15
 2420 1149 3301     		.2byte	0x133
 2421 114b 17110000 		.4byte	0x1117
 2422 114f 20       		.uleb128 0x20
 2423 1150 01       		.byte	0x1
 2424 1151 5E000000 		.4byte	0x5e
 2425 1155 16       		.byte	0x16
 2426 1156 4E       		.byte	0x4e
 2427 1157 80110000 		.4byte	0x1180
 2428 115b 21       		.uleb128 0x21
 2429 115c DF0B0000 		.4byte	.LASF209
 2430 1160 00       		.byte	0
 2431 1161 21       		.uleb128 0x21
 2432 1162 850A0000 		.4byte	.LASF210
 2433 1166 01       		.byte	0x1
 2434 1167 21       		.uleb128 0x21
 2435 1168 65030000 		.4byte	.LASF211
 2436 116c 02       		.byte	0x2
 2437 116d 21       		.uleb128 0x21
 2438 116e 5F090000 		.4byte	.LASF212
 2439 1172 03       		.byte	0x3
 2440 1173 21       		.uleb128 0x21
 2441 1174 F8050000 		.4byte	.LASF213
 2442 1178 04       		.byte	0x4
 2443 1179 21       		.uleb128 0x21
 2444 117a CD030000 		.4byte	.LASF214
 2445 117e 05       		.byte	0x5
 2446 117f 00       		.byte	0
 2447 1180 03       		.uleb128 0x3
 2448 1181 7C000000 		.4byte	.LASF215
 2449 1185 16       		.byte	0x16
 2450 1186 55       		.byte	0x55
 2451 1187 4F110000 		.4byte	0x114f
ARM GAS  /tmp/ccHbY6vn.s 			page 44


 2452 118b 03       		.uleb128 0x3
 2453 118c 7F030000 		.4byte	.LASF216
 2454 1190 17       		.byte	0x17
 2455 1191 A7       		.byte	0xa7
 2456 1192 E9000000 		.4byte	0xe9
 2457 1196 03       		.uleb128 0x3
 2458 1197 B8070000 		.4byte	.LASF217
 2459 119b 17       		.byte	0x17
 2460 119c AC       		.byte	0xac
 2461 119d C9000000 		.4byte	0xc9
 2462 11a1 20       		.uleb128 0x20
 2463 11a2 01       		.byte	0x1
 2464 11a3 5E000000 		.4byte	0x5e
 2465 11a7 17       		.byte	0x17
 2466 11a8 B3       		.byte	0xb3
 2467 11a9 B4110000 		.4byte	0x11b4
 2468 11ad 21       		.uleb128 0x21
 2469 11ae 05060000 		.4byte	.LASF218
 2470 11b2 01       		.byte	0x1
 2471 11b3 00       		.byte	0
 2472 11b4 03       		.uleb128 0x3
 2473 11b5 48030000 		.4byte	.LASF219
 2474 11b9 17       		.byte	0x17
 2475 11ba B5       		.byte	0xb5
 2476 11bb A1110000 		.4byte	0x11a1
 2477 11bf 03       		.uleb128 0x3
 2478 11c0 2C0A0000 		.4byte	.LASF220
 2479 11c4 17       		.byte	0x17
 2480 11c5 BA       		.byte	0xba
 2481 11c6 CA110000 		.4byte	0x11ca
 2482 11ca 0D       		.uleb128 0xd
 2483 11cb 2C0A0000 		.4byte	.LASF220
 2484 11cf 34       		.byte	0x34
 2485 11d0 17       		.byte	0x17
 2486 11d1 0101     		.2byte	0x101
 2487 11d3 5A120000 		.4byte	0x125a
 2488 11d7 1A       		.uleb128 0x1a
 2489 11d8 F5000000 		.4byte	.LASF221
 2490 11dc 17       		.byte	0x17
 2491 11dd 0501     		.2byte	0x105
 2492 11df 80110000 		.4byte	0x1180
 2493 11e3 00       		.byte	0
 2494 11e4 1A       		.uleb128 0x1a
 2495 11e5 EE000000 		.4byte	.LASF222
 2496 11e9 17       		.byte	0x17
 2497 11ea 0901     		.2byte	0x109
 2498 11ec 33130000 		.4byte	0x1333
 2499 11f0 04       		.byte	0x4
 2500 11f1 1A       		.uleb128 0x1a
 2501 11f2 64040000 		.4byte	.LASF223
 2502 11f6 17       		.byte	0x17
 2503 11f7 0D01     		.2byte	0x10d
 2504 11f9 86120000 		.4byte	0x1286
 2505 11fd 08       		.byte	0x8
 2506 11fe 1A       		.uleb128 0x1a
 2507 11ff E4060000 		.4byte	.LASF224
 2508 1203 17       		.byte	0x17
ARM GAS  /tmp/ccHbY6vn.s 			page 45


 2509 1204 1101     		.2byte	0x111
 2510 1206 2C000000 		.4byte	0x2c
 2511 120a 0C       		.byte	0xc
 2512 120b 1A       		.uleb128 0x1a
 2513 120c B50A0000 		.4byte	.LASF225
 2514 1210 17       		.byte	0x17
 2515 1211 1501     		.2byte	0x115
 2516 1213 39130000 		.4byte	0x1339
 2517 1217 10       		.byte	0x10
 2518 1218 1A       		.uleb128 0x1a
 2519 1219 C20A0000 		.4byte	.LASF226
 2520 121d 17       		.byte	0x17
 2521 121e 1A01     		.2byte	0x11a
 2522 1220 B7020000 		.4byte	0x2b7
 2523 1224 14       		.byte	0x14
 2524 1225 1A       		.uleb128 0x1a
 2525 1226 EF060000 		.4byte	.LASF227
 2526 122a 17       		.byte	0x17
 2527 122b 2101     		.2byte	0x121
 2528 122d 37050000 		.4byte	0x537
 2529 1231 18       		.byte	0x18
 2530 1232 0E       		.uleb128 0xe
 2531 1233 61646300 		.ascii	"adc\000"
 2532 1237 17       		.byte	0x17
 2533 1238 2D01     		.2byte	0x12d
 2534 123a 3F130000 		.4byte	0x133f
 2535 123e 28       		.byte	0x28
 2536 123f 1A       		.uleb128 0x1a
 2537 1240 61010000 		.4byte	.LASF228
 2538 1244 17       		.byte	0x17
 2539 1245 3101     		.2byte	0x131
 2540 1247 E9000000 		.4byte	0xe9
 2541 124b 2C       		.byte	0x2c
 2542 124c 0E       		.uleb128 0xe
 2543 124d 6E756D00 		.ascii	"num\000"
 2544 1251 17       		.byte	0x17
 2545 1252 3501     		.2byte	0x135
 2546 1254 E9000000 		.4byte	0xe9
 2547 1258 30       		.byte	0x30
 2548 1259 00       		.byte	0
 2549 125a 03       		.uleb128 0x3
 2550 125b 4C000000 		.4byte	.LASF229
 2551 125f 17       		.byte	0x17
 2552 1260 C4       		.byte	0xc4
 2553 1261 65120000 		.4byte	0x1265
 2554 1265 0B       		.uleb128 0xb
 2555 1266 04       		.byte	0x4
 2556 1267 6B120000 		.4byte	0x126b
 2557 126b 0F       		.uleb128 0xf
 2558 126c 80120000 		.4byte	0x1280
 2559 1270 10       		.uleb128 0x10
 2560 1271 80120000 		.4byte	0x1280
 2561 1275 10       		.uleb128 0x10
 2562 1276 86120000 		.4byte	0x1286
 2563 127a 10       		.uleb128 0x10
 2564 127b 2C000000 		.4byte	0x2c
 2565 127f 00       		.byte	0
ARM GAS  /tmp/ccHbY6vn.s 			page 46


 2566 1280 0B       		.uleb128 0xb
 2567 1281 04       		.byte	0x4
 2568 1282 BF110000 		.4byte	0x11bf
 2569 1286 0B       		.uleb128 0xb
 2570 1287 04       		.byte	0x4
 2571 1288 8B110000 		.4byte	0x118b
 2572 128c 03       		.uleb128 0x3
 2573 128d D1060000 		.4byte	.LASF230
 2574 1291 17       		.byte	0x17
 2575 1292 CD       		.byte	0xcd
 2576 1293 97120000 		.4byte	0x1297
 2577 1297 0B       		.uleb128 0xb
 2578 1298 04       		.byte	0x4
 2579 1299 9D120000 		.4byte	0x129d
 2580 129d 0F       		.uleb128 0xf
 2581 129e AD120000 		.4byte	0x12ad
 2582 12a2 10       		.uleb128 0x10
 2583 12a3 80120000 		.4byte	0x1280
 2584 12a7 10       		.uleb128 0x10
 2585 12a8 B4110000 		.4byte	0x11b4
 2586 12ac 00       		.byte	0
 2587 12ad 0A       		.uleb128 0xa
 2588 12ae 14       		.byte	0x14
 2589 12af 17       		.byte	0x17
 2590 12b0 D7       		.byte	0xd7
 2591 12b1 FE120000 		.4byte	0x12fe
 2592 12b5 08       		.uleb128 0x8
 2593 12b6 18040000 		.4byte	.LASF231
 2594 12ba 17       		.byte	0x17
 2595 12bb DB       		.byte	0xdb
 2596 12bc 09010000 		.4byte	0x109
 2597 12c0 00       		.byte	0
 2598 12c1 08       		.uleb128 0x8
 2599 12c2 85050000 		.4byte	.LASF232
 2600 12c6 17       		.byte	0x17
 2601 12c7 DF       		.byte	0xdf
 2602 12c8 96110000 		.4byte	0x1196
 2603 12cc 02       		.byte	0x2
 2604 12cd 08       		.uleb128 0x8
 2605 12ce 8F010000 		.4byte	.LASF233
 2606 12d2 17       		.byte	0x17
 2607 12d3 E3       		.byte	0xe3
 2608 12d4 5A120000 		.4byte	0x125a
 2609 12d8 04       		.byte	0x4
 2610 12d9 08       		.uleb128 0x8
 2611 12da 3C010000 		.4byte	.LASF234
 2612 12de 17       		.byte	0x17
 2613 12df E7       		.byte	0xe7
 2614 12e0 8C120000 		.4byte	0x128c
 2615 12e4 08       		.byte	0x8
 2616 12e5 09       		.uleb128 0x9
 2617 12e6 63723000 		.ascii	"cr0\000"
 2618 12ea 17       		.byte	0x17
 2619 12eb ED       		.byte	0xed
 2620 12ec E9000000 		.4byte	0xe9
 2621 12f0 0C       		.byte	0xc
 2622 12f1 08       		.uleb128 0x8
ARM GAS  /tmp/ccHbY6vn.s 			page 47


 2623 12f2 E5080000 		.4byte	.LASF235
 2624 12f6 17       		.byte	0x17
 2625 12f7 F3       		.byte	0xf3
 2626 12f8 E9000000 		.4byte	0xe9
 2627 12fc 10       		.byte	0x10
 2628 12fd 00       		.byte	0
 2629 12fe 03       		.uleb128 0x3
 2630 12ff E5050000 		.4byte	.LASF236
 2631 1303 17       		.byte	0x17
 2632 1304 F4       		.byte	0xf4
 2633 1305 AD120000 		.4byte	0x12ad
 2634 1309 06       		.uleb128 0x6
 2635 130a FE120000 		.4byte	0x12fe
 2636 130e 0A       		.uleb128 0xa
 2637 130f 04       		.byte	0x4
 2638 1310 17       		.byte	0x17
 2639 1311 FA       		.byte	0xfa
 2640 1312 23130000 		.4byte	0x1323
 2641 1316 08       		.uleb128 0x8
 2642 1317 7F0A0000 		.4byte	.LASF237
 2643 131b 17       		.byte	0x17
 2644 131c FB       		.byte	0xfb
 2645 131d E9000000 		.4byte	0xe9
 2646 1321 00       		.byte	0
 2647 1322 00       		.byte	0
 2648 1323 03       		.uleb128 0x3
 2649 1324 A10C0000 		.4byte	.LASF238
 2650 1328 17       		.byte	0x17
 2651 1329 FC       		.byte	0xfc
 2652 132a 0E130000 		.4byte	0x130e
 2653 132e 06       		.uleb128 0x6
 2654 132f 23130000 		.4byte	0x1323
 2655 1333 0B       		.uleb128 0xb
 2656 1334 04       		.byte	0x4
 2657 1335 2E130000 		.4byte	0x132e
 2658 1339 0B       		.uleb128 0xb
 2659 133a 04       		.byte	0x4
 2660 133b 09130000 		.4byte	0x1309
 2661 133f 0B       		.uleb128 0xb
 2662 1340 04       		.byte	0x4
 2663 1341 520E0000 		.4byte	0xe52
 2664 1345 17       		.uleb128 0x17
 2665 1346 CC080000 		.4byte	.LASF239
 2666 134a 17       		.byte	0x17
 2667 134b 4801     		.2byte	0x148
 2668 134d BF110000 		.4byte	0x11bf
 2669 1351 20       		.uleb128 0x20
 2670 1352 01       		.byte	0x1
 2671 1353 5E000000 		.4byte	0x5e
 2672 1357 18       		.byte	0x18
 2673 1358 67       		.byte	0x67
 2674 1359 7C130000 		.4byte	0x137c
 2675 135d 21       		.uleb128 0x21
 2676 135e 0C070000 		.4byte	.LASF240
 2677 1362 00       		.byte	0
 2678 1363 21       		.uleb128 0x21
 2679 1364 5D0C0000 		.4byte	.LASF241
ARM GAS  /tmp/ccHbY6vn.s 			page 48


 2680 1368 01       		.byte	0x1
 2681 1369 21       		.uleb128 0x21
 2682 136a 82060000 		.4byte	.LASF242
 2683 136e 02       		.byte	0x2
 2684 136f 21       		.uleb128 0x21
 2685 1370 5A040000 		.4byte	.LASF243
 2686 1374 03       		.byte	0x3
 2687 1375 21       		.uleb128 0x21
 2688 1376 4E010000 		.4byte	.LASF244
 2689 137a 04       		.byte	0x4
 2690 137b 00       		.byte	0
 2691 137c 03       		.uleb128 0x3
 2692 137d B0040000 		.4byte	.LASF245
 2693 1381 18       		.byte	0x18
 2694 1382 6D       		.byte	0x6d
 2695 1383 51130000 		.4byte	0x1351
 2696 1387 19       		.uleb128 0x19
 2697 1388 08       		.byte	0x8
 2698 1389 19       		.byte	0x19
 2699 138a 0802     		.2byte	0x208
 2700 138c AB130000 		.4byte	0x13ab
 2701 1390 0E       		.uleb128 0xe
 2702 1391 6D6F6400 		.ascii	"mod\000"
 2703 1395 19       		.byte	0x19
 2704 1396 0E02     		.2byte	0x20e
 2705 1398 E9000000 		.4byte	0xe9
 2706 139c 00       		.byte	0
 2707 139d 0E       		.uleb128 0xe
 2708 139e 62747200 		.ascii	"btr\000"
 2709 13a2 19       		.byte	0x19
 2710 13a3 1402     		.2byte	0x214
 2711 13a5 E9000000 		.4byte	0xe9
 2712 13a9 04       		.byte	0x4
 2713 13aa 00       		.byte	0
 2714 13ab 1C       		.uleb128 0x1c
 2715 13ac 16010000 		.4byte	.LASF246
 2716 13b0 19       		.byte	0x19
 2717 13b1 1502     		.2byte	0x215
 2718 13b3 87130000 		.4byte	0x1387
 2719 13b7 06       		.uleb128 0x6
 2720 13b8 AB130000 		.4byte	0x13ab
 2721 13bc 19       		.uleb128 0x19
 2722 13bd 38       		.byte	0x38
 2723 13be 19       		.byte	0x19
 2724 13bf 1A02     		.2byte	0x21a
 2725 13c1 48140000 		.4byte	0x1448
 2726 13c5 1A       		.uleb128 0x1a
 2727 13c6 F5000000 		.4byte	.LASF221
 2728 13ca 19       		.byte	0x19
 2729 13cb 1E02     		.2byte	0x21e
 2730 13cd 7C130000 		.4byte	0x137c
 2731 13d1 00       		.byte	0
 2732 13d2 1A       		.uleb128 0x1a
 2733 13d3 EE000000 		.4byte	.LASF222
 2734 13d7 19       		.byte	0x19
 2735 13d8 2202     		.2byte	0x222
 2736 13da 48140000 		.4byte	0x1448
ARM GAS  /tmp/ccHbY6vn.s 			page 49


 2737 13de 04       		.byte	0x4
 2738 13df 1A       		.uleb128 0x1a
 2739 13e0 FB000000 		.4byte	.LASF247
 2740 13e4 19       		.byte	0x19
 2741 13e5 2602     		.2byte	0x226
 2742 13e7 F5040000 		.4byte	0x4f5
 2743 13eb 08       		.byte	0x8
 2744 13ec 1A       		.uleb128 0x1a
 2745 13ed AA040000 		.4byte	.LASF248
 2746 13f1 19       		.byte	0x19
 2747 13f2 2A02     		.2byte	0x22a
 2748 13f4 F5040000 		.4byte	0x4f5
 2749 13f8 14       		.byte	0x14
 2750 13f9 1A       		.uleb128 0x1a
 2751 13fa F2020000 		.4byte	.LASF249
 2752 13fe 19       		.byte	0x19
 2753 13ff 3702     		.2byte	0x237
 2754 1401 A9050000 		.4byte	0x5a9
 2755 1405 20       		.byte	0x20
 2756 1406 1A       		.uleb128 0x1a
 2757 1407 A70A0000 		.4byte	.LASF250
 2758 140b 19       		.byte	0x19
 2759 140c 3E02     		.2byte	0x23e
 2760 140e A9050000 		.4byte	0x5a9
 2761 1412 24       		.byte	0x24
 2762 1413 1A       		.uleb128 0x1a
 2763 1414 EB080000 		.4byte	.LASF251
 2764 1418 19       		.byte	0x19
 2765 1419 4402     		.2byte	0x244
 2766 141b A9050000 		.4byte	0x5a9
 2767 141f 28       		.byte	0x28
 2768 1420 1A       		.uleb128 0x1a
 2769 1421 9B000000 		.4byte	.LASF252
 2770 1425 19       		.byte	0x19
 2771 1426 4902     		.2byte	0x249
 2772 1428 A9050000 		.4byte	0x5a9
 2773 142c 2C       		.byte	0x2c
 2774 142d 1A       		.uleb128 0x1a
 2775 142e C8000000 		.4byte	.LASF253
 2776 1432 19       		.byte	0x19
 2777 1433 4D02     		.2byte	0x24d
 2778 1435 A9050000 		.4byte	0x5a9
 2779 1439 30       		.byte	0x30
 2780 143a 0E       		.uleb128 0xe
 2781 143b 63616E00 		.ascii	"can\000"
 2782 143f 19       		.byte	0x19
 2783 1440 5302     		.2byte	0x253
 2784 1442 4E140000 		.4byte	0x144e
 2785 1446 34       		.byte	0x34
 2786 1447 00       		.byte	0
 2787 1448 0B       		.uleb128 0xb
 2788 1449 04       		.byte	0x4
 2789 144a B7130000 		.4byte	0x13b7
 2790 144e 0B       		.uleb128 0xb
 2791 144f 04       		.byte	0x4
 2792 1450 9F0F0000 		.4byte	0xf9f
 2793 1454 1C       		.uleb128 0x1c
ARM GAS  /tmp/ccHbY6vn.s 			page 50


 2794 1455 C0010000 		.4byte	.LASF254
 2795 1459 19       		.byte	0x19
 2796 145a 5402     		.2byte	0x254
 2797 145c BC130000 		.4byte	0x13bc
 2798 1460 17       		.uleb128 0x17
 2799 1461 540A0000 		.4byte	.LASF255
 2800 1465 19       		.byte	0x19
 2801 1466 5F02     		.2byte	0x25f
 2802 1468 54140000 		.4byte	0x1454
 2803 146c 20       		.uleb128 0x20
 2804 146d 01       		.byte	0x1
 2805 146e 5E000000 		.4byte	0x5e
 2806 1472 1A       		.byte	0x1a
 2807 1473 35       		.byte	0x35
 2808 1474 97140000 		.4byte	0x1497
 2809 1478 21       		.uleb128 0x21
 2810 1479 9C030000 		.4byte	.LASF256
 2811 147d 00       		.byte	0
 2812 147e 21       		.uleb128 0x21
 2813 147f C30B0000 		.4byte	.LASF257
 2814 1483 01       		.byte	0x1
 2815 1484 21       		.uleb128 0x21
 2816 1485 020A0000 		.4byte	.LASF258
 2817 1489 02       		.byte	0x2
 2818 148a 21       		.uleb128 0x21
 2819 148b 0C0A0000 		.4byte	.LASF259
 2820 148f 03       		.byte	0x3
 2821 1490 21       		.uleb128 0x21
 2822 1491 21070000 		.4byte	.LASF260
 2823 1495 04       		.byte	0x4
 2824 1496 00       		.byte	0
 2825 1497 03       		.uleb128 0x3
 2826 1498 E3000000 		.4byte	.LASF261
 2827 149c 1A       		.byte	0x1a
 2828 149d 3B       		.byte	0x3b
 2829 149e 6C140000 		.4byte	0x146c
 2830 14a2 03       		.uleb128 0x3
 2831 14a3 A2060000 		.4byte	.LASF262
 2832 14a7 1A       		.byte	0x1a
 2833 14a8 40       		.byte	0x40
 2834 14a9 AD140000 		.4byte	0x14ad
 2835 14ad 07       		.uleb128 0x7
 2836 14ae A2060000 		.4byte	.LASF262
 2837 14b2 10       		.byte	0x10
 2838 14b3 1B       		.byte	0x1b
 2839 14b4 93       		.byte	0x93
 2840 14b5 EA140000 		.4byte	0x14ea
 2841 14b9 08       		.uleb128 0x8
 2842 14ba F5000000 		.4byte	.LASF221
 2843 14be 1B       		.byte	0x1b
 2844 14bf 97       		.byte	0x97
 2845 14c0 97140000 		.4byte	0x1497
 2846 14c4 00       		.byte	0
 2847 14c5 08       		.uleb128 0x8
 2848 14c6 EE000000 		.4byte	.LASF222
 2849 14ca 1B       		.byte	0x1b
 2850 14cb 9B       		.byte	0x9b
ARM GAS  /tmp/ccHbY6vn.s 			page 51


 2851 14cc 48150000 		.4byte	0x1548
 2852 14d0 04       		.byte	0x4
 2853 14d1 08       		.uleb128 0x8
 2854 14d2 CB060000 		.4byte	.LASF263
 2855 14d6 1B       		.byte	0x1b
 2856 14d7 A0       		.byte	0xa0
 2857 14d8 E9000000 		.4byte	0xe9
 2858 14dc 08       		.byte	0x8
 2859 14dd 09       		.uleb128 0x9
 2860 14de 746D7200 		.ascii	"tmr\000"
 2861 14e2 1B       		.byte	0x1b
 2862 14e3 A4       		.byte	0xa4
 2863 14e4 4E150000 		.4byte	0x154e
 2864 14e8 0C       		.byte	0xc
 2865 14e9 00       		.byte	0
 2866 14ea 03       		.uleb128 0x3
 2867 14eb 810C0000 		.4byte	.LASF264
 2868 14ef 1A       		.byte	0x1a
 2869 14f0 47       		.byte	0x47
 2870 14f1 F5140000 		.4byte	0x14f5
 2871 14f5 0B       		.uleb128 0xb
 2872 14f6 04       		.byte	0x4
 2873 14f7 FB140000 		.4byte	0x14fb
 2874 14fb 0F       		.uleb128 0xf
 2875 14fc 06150000 		.4byte	0x1506
 2876 1500 10       		.uleb128 0x10
 2877 1501 06150000 		.4byte	0x1506
 2878 1505 00       		.byte	0
 2879 1506 0B       		.uleb128 0xb
 2880 1507 04       		.byte	0x4
 2881 1508 A2140000 		.4byte	0x14a2
 2882 150c 03       		.uleb128 0x3
 2883 150d 6A050000 		.4byte	.LASF265
 2884 1511 1B       		.byte	0x1b
 2885 1512 76       		.byte	0x76
 2886 1513 E9000000 		.4byte	0xe9
 2887 1517 0A       		.uleb128 0xa
 2888 1518 08       		.byte	0x8
 2889 1519 1B       		.byte	0x1b
 2890 151a 81       		.byte	0x81
 2891 151b 38150000 		.4byte	0x1538
 2892 151f 08       		.uleb128 0x8
 2893 1520 02070000 		.4byte	.LASF266
 2894 1524 1B       		.byte	0x1b
 2895 1525 87       		.byte	0x87
 2896 1526 0C150000 		.4byte	0x150c
 2897 152a 00       		.byte	0
 2898 152b 08       		.uleb128 0x8
 2899 152c 45010000 		.4byte	.LASF267
 2900 1530 1B       		.byte	0x1b
 2901 1531 8C       		.byte	0x8c
 2902 1532 EA140000 		.4byte	0x14ea
 2903 1536 04       		.byte	0x4
 2904 1537 00       		.byte	0
 2905 1538 03       		.uleb128 0x3
 2906 1539 C0020000 		.4byte	.LASF268
 2907 153d 1B       		.byte	0x1b
ARM GAS  /tmp/ccHbY6vn.s 			page 52


 2908 153e 8E       		.byte	0x8e
 2909 153f 17150000 		.4byte	0x1517
 2910 1543 06       		.uleb128 0x6
 2911 1544 38150000 		.4byte	0x1538
 2912 1548 0B       		.uleb128 0xb
 2913 1549 04       		.byte	0x4
 2914 154a 43150000 		.4byte	0x1543
 2915 154e 0B       		.uleb128 0xb
 2916 154f 04       		.byte	0x4
 2917 1550 170C0000 		.4byte	0xc17
 2918 1554 11       		.uleb128 0x11
 2919 1555 41020000 		.4byte	.LASF269
 2920 1559 1B       		.byte	0x1b
 2921 155a B0       		.byte	0xb0
 2922 155b A2140000 		.4byte	0x14a2
 2923 155f 11       		.uleb128 0x11
 2924 1560 47020000 		.4byte	.LASF270
 2925 1564 1B       		.byte	0x1b
 2926 1565 B4       		.byte	0xb4
 2927 1566 A2140000 		.4byte	0x14a2
 2928 156a 11       		.uleb128 0x11
 2929 156b 4D020000 		.4byte	.LASF271
 2930 156f 1B       		.byte	0x1b
 2931 1570 B8       		.byte	0xb8
 2932 1571 A2140000 		.4byte	0x14a2
 2933 1575 11       		.uleb128 0x11
 2934 1576 53020000 		.4byte	.LASF272
 2935 157a 1B       		.byte	0x1b
 2936 157b BC       		.byte	0xbc
 2937 157c A2140000 		.4byte	0x14a2
 2938 1580 20       		.uleb128 0x20
 2939 1581 01       		.byte	0x1
 2940 1582 5E000000 		.4byte	0x5e
 2941 1586 1C       		.byte	0x1c
 2942 1587 5D       		.byte	0x5d
 2943 1588 9F150000 		.4byte	0x159f
 2944 158c 21       		.uleb128 0x21
 2945 158d 5B030000 		.4byte	.LASF273
 2946 1591 00       		.byte	0
 2947 1592 21       		.uleb128 0x21
 2948 1593 2F0C0000 		.4byte	.LASF274
 2949 1597 01       		.byte	0x1
 2950 1598 21       		.uleb128 0x21
 2951 1599 9E0A0000 		.4byte	.LASF275
 2952 159d 02       		.byte	0x2
 2953 159e 00       		.byte	0
 2954 159f 03       		.uleb128 0x3
 2955 15a0 4A070000 		.4byte	.LASF276
 2956 15a4 1C       		.byte	0x1c
 2957 15a5 61       		.byte	0x61
 2958 15a6 80150000 		.4byte	0x1580
 2959 15aa 03       		.uleb128 0x3
 2960 15ab 5A0A0000 		.4byte	.LASF277
 2961 15af 1C       		.byte	0x1c
 2962 15b0 66       		.byte	0x66
 2963 15b1 B5150000 		.4byte	0x15b5
 2964 15b5 07       		.uleb128 0x7
ARM GAS  /tmp/ccHbY6vn.s 			page 53


 2965 15b6 5A0A0000 		.4byte	.LASF277
 2966 15ba 78       		.byte	0x78
 2967 15bb 1C       		.byte	0x1c
 2968 15bc 80       		.byte	0x80
 2969 15bd 20160000 		.4byte	0x1620
 2970 15c1 09       		.uleb128 0x9
 2971 15c2 766D7400 		.ascii	"vmt\000"
 2972 15c6 1C       		.byte	0x1c
 2973 15c7 82       		.byte	0x82
 2974 15c8 A8160000 		.4byte	0x16a8
 2975 15cc 00       		.byte	0
 2976 15cd 08       		.uleb128 0x8
 2977 15ce 37070000 		.4byte	.LASF278
 2978 15d2 1C       		.byte	0x1c
 2979 15d3 83       		.byte	0x83
 2980 15d4 A9050000 		.4byte	0x5a9
 2981 15d8 04       		.byte	0x4
 2982 15d9 08       		.uleb128 0x8
 2983 15da F5000000 		.4byte	.LASF221
 2984 15de 1C       		.byte	0x1c
 2985 15df 83       		.byte	0x83
 2986 15e0 9F150000 		.4byte	0x159f
 2987 15e4 08       		.byte	0x8
 2988 15e5 08       		.uleb128 0x8
 2989 15e6 F30A0000 		.4byte	.LASF279
 2990 15ea 1C       		.byte	0x1c
 2991 15eb 83       		.byte	0x83
 2992 15ec C2070000 		.4byte	0x7c2
 2993 15f0 0C       		.byte	0xc
 2994 15f1 08       		.uleb128 0x8
 2995 15f2 77020000 		.4byte	.LASF280
 2996 15f6 1C       		.byte	0x1c
 2997 15f7 83       		.byte	0x83
 2998 15f8 CD070000 		.4byte	0x7cd
 2999 15fc 30       		.byte	0x30
 3000 15fd 09       		.uleb128 0x9
 3001 15fe 696200   		.ascii	"ib\000"
 3002 1601 1C       		.byte	0x1c
 3003 1602 83       		.byte	0x83
 3004 1603 AE160000 		.4byte	0x16ae
 3005 1607 54       		.byte	0x54
 3006 1608 09       		.uleb128 0x9
 3007 1609 6F6200   		.ascii	"ob\000"
 3008 160c 1C       		.byte	0x1c
 3009 160d 83       		.byte	0x83
 3010 160e AE160000 		.4byte	0x16ae
 3011 1612 64       		.byte	0x64
 3012 1613 08       		.uleb128 0x8
 3013 1614 EE0A0000 		.4byte	.LASF281
 3014 1618 1C       		.byte	0x1c
 3015 1619 83       		.byte	0x83
 3016 161a BE160000 		.4byte	0x16be
 3017 161e 74       		.byte	0x74
 3018 161f 00       		.byte	0
 3019 1620 22       		.uleb128 0x22
 3020 1621 53443100 		.ascii	"SD1\000"
 3021 1625 1D       		.byte	0x1d
ARM GAS  /tmp/ccHbY6vn.s 			page 54


 3022 1626 EF       		.byte	0xef
 3023 1627 AA150000 		.4byte	0x15aa
 3024 162b 22       		.uleb128 0x22
 3025 162c 53443300 		.ascii	"SD3\000"
 3026 1630 1D       		.byte	0x1d
 3027 1631 F7       		.byte	0xf7
 3028 1632 AA150000 		.4byte	0x15aa
 3029 1636 07       		.uleb128 0x7
 3030 1637 B8050000 		.4byte	.LASF282
 3031 163b 20       		.byte	0x20
 3032 163c 1C       		.byte	0x1c
 3033 163d 75       		.byte	0x75
 3034 163e A3160000 		.4byte	0x16a3
 3035 1642 08       		.uleb128 0x8
 3036 1643 C2000000 		.4byte	.LASF283
 3037 1647 1C       		.byte	0x1c
 3038 1648 76       		.byte	0x76
 3039 1649 F7070000 		.4byte	0x7f7
 3040 164d 00       		.byte	0
 3041 164e 08       		.uleb128 0x8
 3042 164f 45070000 		.4byte	.LASF284
 3043 1653 1C       		.byte	0x1c
 3044 1654 76       		.byte	0x76
 3045 1655 16080000 		.4byte	0x816
 3046 1659 04       		.byte	0x4
 3047 165a 09       		.uleb128 0x9
 3048 165b 70757400 		.ascii	"put\000"
 3049 165f 1C       		.byte	0x1c
 3050 1660 76       		.byte	0x76
 3051 1661 30080000 		.4byte	0x830
 3052 1665 08       		.byte	0x8
 3053 1666 09       		.uleb128 0x9
 3054 1667 67657400 		.ascii	"get\000"
 3055 166b 1C       		.byte	0x1c
 3056 166c 76       		.byte	0x76
 3057 166d 01060000 		.4byte	0x601
 3058 1671 0C       		.byte	0xc
 3059 1672 08       		.uleb128 0x8
 3060 1673 11010000 		.4byte	.LASF285
 3061 1677 1C       		.byte	0x1c
 3062 1678 76       		.byte	0x76
 3063 1679 38100000 		.4byte	0x1038
 3064 167d 10       		.byte	0x10
 3065 167e 08       		.uleb128 0x8
 3066 167f E4030000 		.4byte	.LASF286
 3067 1683 1C       		.byte	0x1c
 3068 1684 76       		.byte	0x76
 3069 1685 52100000 		.4byte	0x1052
 3070 1689 14       		.byte	0x14
 3071 168a 08       		.uleb128 0x8
 3072 168b D7020000 		.4byte	.LASF287
 3073 168f 1C       		.byte	0x1c
 3074 1690 76       		.byte	0x76
 3075 1691 76100000 		.4byte	0x1076
 3076 1695 18       		.byte	0x18
 3077 1696 08       		.uleb128 0x8
 3078 1697 D8010000 		.4byte	.LASF288
ARM GAS  /tmp/ccHbY6vn.s 			page 55


 3079 169b 1C       		.byte	0x1c
 3080 169c 76       		.byte	0x76
 3081 169d 9A100000 		.4byte	0x109a
 3082 16a1 1C       		.byte	0x1c
 3083 16a2 00       		.byte	0
 3084 16a3 06       		.uleb128 0x6
 3085 16a4 36160000 		.4byte	0x1636
 3086 16a8 0B       		.uleb128 0xb
 3087 16a9 04       		.byte	0x4
 3088 16aa A3160000 		.4byte	0x16a3
 3089 16ae 15       		.uleb128 0x15
 3090 16af B4000000 		.4byte	0xb4
 3091 16b3 BE160000 		.4byte	0x16be
 3092 16b7 16       		.uleb128 0x16
 3093 16b8 9D030000 		.4byte	0x39d
 3094 16bc 0F       		.byte	0xf
 3095 16bd 00       		.byte	0
 3096 16be 0B       		.uleb128 0xb
 3097 16bf 04       		.byte	0x4
 3098 16c0 330D0000 		.4byte	0xd33
 3099 16c4 20       		.uleb128 0x20
 3100 16c5 01       		.byte	0x1
 3101 16c6 5E000000 		.4byte	0x5e
 3102 16ca 1E       		.byte	0x1e
 3103 16cb 4E       		.byte	0x4e
 3104 16cc EF160000 		.4byte	0x16ef
 3105 16d0 21       		.uleb128 0x21
 3106 16d1 13020000 		.4byte	.LASF289
 3107 16d5 00       		.byte	0
 3108 16d6 21       		.uleb128 0x21
 3109 16d7 01020000 		.4byte	.LASF290
 3110 16db 01       		.byte	0x1
 3111 16dc 21       		.uleb128 0x21
 3112 16dd 6A060000 		.4byte	.LASF291
 3113 16e1 02       		.byte	0x2
 3114 16e2 21       		.uleb128 0x21
 3115 16e3 89070000 		.4byte	.LASF292
 3116 16e7 03       		.byte	0x3
 3117 16e8 21       		.uleb128 0x21
 3118 16e9 9E0B0000 		.4byte	.LASF293
 3119 16ed 04       		.byte	0x4
 3120 16ee 00       		.byte	0
 3121 16ef 03       		.uleb128 0x3
 3122 16f0 F40B0000 		.4byte	.LASF294
 3123 16f4 1E       		.byte	0x1e
 3124 16f5 54       		.byte	0x54
 3125 16f6 C4160000 		.4byte	0x16c4
 3126 16fa 03       		.uleb128 0x3
 3127 16fb 21030000 		.4byte	.LASF295
 3128 16ff 1F       		.byte	0x1f
 3129 1700 D0       		.byte	0xd0
 3130 1701 05170000 		.4byte	0x1705
 3131 1705 07       		.uleb128 0x7
 3132 1706 21030000 		.4byte	.LASF295
 3133 170a 30       		.byte	0x30
 3134 170b 1F       		.byte	0x1f
 3135 170c F8       		.byte	0xf8
ARM GAS  /tmp/ccHbY6vn.s 			page 56


 3136 170d 86170000 		.4byte	0x1786
 3137 1711 08       		.uleb128 0x8
 3138 1712 F5000000 		.4byte	.LASF221
 3139 1716 1F       		.byte	0x1f
 3140 1717 FC       		.byte	0xfc
 3141 1718 EF160000 		.4byte	0x16ef
 3142 171c 00       		.byte	0
 3143 171d 1A       		.uleb128 0x1a
 3144 171e EE000000 		.4byte	.LASF222
 3145 1722 1F       		.byte	0x1f
 3146 1723 0001     		.2byte	0x100
 3147 1725 FD170000 		.4byte	0x17fd
 3148 1729 04       		.byte	0x4
 3149 172a 1A       		.uleb128 0x1a
 3150 172b C20A0000 		.4byte	.LASF226
 3151 172f 1F       		.byte	0x1f
 3152 1730 0501     		.2byte	0x105
 3153 1732 B7020000 		.4byte	0x2b7
 3154 1736 08       		.byte	0x8
 3155 1737 1A       		.uleb128 0x1a
 3156 1738 EF060000 		.4byte	.LASF227
 3157 173c 1F       		.byte	0x1f
 3158 173d 0C01     		.2byte	0x10c
 3159 173f 37050000 		.4byte	0x537
 3160 1743 0C       		.byte	0xc
 3161 1744 0E       		.uleb128 0xe
 3162 1745 73737000 		.ascii	"ssp\000"
 3163 1749 1F       		.byte	0x1f
 3164 174a 1801     		.2byte	0x118
 3165 174c 03180000 		.4byte	0x1803
 3166 1750 1C       		.byte	0x1c
 3167 1751 1A       		.uleb128 0x1a
 3168 1752 DF050000 		.4byte	.LASF296
 3169 1756 1F       		.byte	0x1f
 3170 1757 1C01     		.2byte	0x11c
 3171 1759 E9000000 		.4byte	0xe9
 3172 175d 20       		.byte	0x20
 3173 175e 1A       		.uleb128 0x1a
 3174 175f 96030000 		.4byte	.LASF297
 3175 1763 1F       		.byte	0x1f
 3176 1764 2001     		.2byte	0x120
 3177 1766 F3020000 		.4byte	0x2f3
 3178 176a 24       		.byte	0x24
 3179 176b 1A       		.uleb128 0x1a
 3180 176c BB040000 		.4byte	.LASF298
 3181 1770 1F       		.byte	0x1f
 3182 1771 2401     		.2byte	0x124
 3183 1773 E9000000 		.4byte	0xe9
 3184 1777 28       		.byte	0x28
 3185 1778 1A       		.uleb128 0x1a
 3186 1779 570C0000 		.4byte	.LASF299
 3187 177d 1F       		.byte	0x1f
 3188 177e 2801     		.2byte	0x128
 3189 1780 09180000 		.4byte	0x1809
 3190 1784 2C       		.byte	0x2c
 3191 1785 00       		.byte	0
 3192 1786 03       		.uleb128 0x3
ARM GAS  /tmp/ccHbY6vn.s 			page 57


 3193 1787 32030000 		.4byte	.LASF300
 3194 178b 1F       		.byte	0x1f
 3195 178c D8       		.byte	0xd8
 3196 178d 91170000 		.4byte	0x1791
 3197 1791 0B       		.uleb128 0xb
 3198 1792 04       		.byte	0x4
 3199 1793 97170000 		.4byte	0x1797
 3200 1797 0F       		.uleb128 0xf
 3201 1798 A2170000 		.4byte	0x17a2
 3202 179c 10       		.uleb128 0x10
 3203 179d A2170000 		.4byte	0x17a2
 3204 17a1 00       		.byte	0
 3205 17a2 0B       		.uleb128 0xb
 3206 17a3 04       		.byte	0x4
 3207 17a4 FA160000 		.4byte	0x16fa
 3208 17a8 0A       		.uleb128 0xa
 3209 17a9 10       		.byte	0x10
 3210 17aa 1F       		.byte	0x1f
 3211 17ab DD       		.byte	0xdd
 3212 17ac ED170000 		.4byte	0x17ed
 3213 17b0 08       		.uleb128 0x8
 3214 17b1 8F010000 		.4byte	.LASF233
 3215 17b5 1F       		.byte	0x1f
 3216 17b6 E1       		.byte	0xe1
 3217 17b7 86170000 		.4byte	0x1786
 3218 17bb 00       		.byte	0
 3219 17bc 08       		.uleb128 0x8
 3220 17bd A7000000 		.4byte	.LASF301
 3221 17c1 1F       		.byte	0x1f
 3222 17c2 E6       		.byte	0xe6
 3223 17c3 32110000 		.4byte	0x1132
 3224 17c7 04       		.byte	0x4
 3225 17c8 08       		.uleb128 0x8
 3226 17c9 490C0000 		.4byte	.LASF302
 3227 17cd 1F       		.byte	0x1f
 3228 17ce EA       		.byte	0xea
 3229 17cf C9000000 		.4byte	0xc9
 3230 17d3 08       		.byte	0x8
 3231 17d4 09       		.uleb128 0x9
 3232 17d5 63723000 		.ascii	"cr0\000"
 3233 17d9 1F       		.byte	0x1f
 3234 17da EE       		.byte	0xee
 3235 17db C9000000 		.4byte	0xc9
 3236 17df 0A       		.byte	0xa
 3237 17e0 08       		.uleb128 0x8
 3238 17e1 15060000 		.4byte	.LASF303
 3239 17e5 1F       		.byte	0x1f
 3240 17e6 F2       		.byte	0xf2
 3241 17e7 E9000000 		.4byte	0xe9
 3242 17eb 0C       		.byte	0xc
 3243 17ec 00       		.byte	0
 3244 17ed 03       		.uleb128 0x3
 3245 17ee 7F070000 		.4byte	.LASF304
 3246 17f2 1F       		.byte	0x1f
 3247 17f3 F3       		.byte	0xf3
 3248 17f4 A8170000 		.4byte	0x17a8
 3249 17f8 06       		.uleb128 0x6
ARM GAS  /tmp/ccHbY6vn.s 			page 58


 3250 17f9 ED170000 		.4byte	0x17ed
 3251 17fd 0B       		.uleb128 0xb
 3252 17fe 04       		.byte	0x4
 3253 17ff F8170000 		.4byte	0x17f8
 3254 1803 0B       		.uleb128 0xb
 3255 1804 04       		.byte	0x4
 3256 1805 C90D0000 		.4byte	0xdc9
 3257 1809 0B       		.uleb128 0xb
 3258 180a 04       		.byte	0x4
 3259 180b 0F180000 		.4byte	0x180f
 3260 180f 23       		.uleb128 0x23
 3261 1810 17       		.uleb128 0x17
 3262 1811 20010000 		.4byte	.LASF305
 3263 1815 1F       		.byte	0x1f
 3264 1816 3401     		.2byte	0x134
 3265 1818 FA160000 		.4byte	0x16fa
 3266 181c 17       		.uleb128 0x17
 3267 181d 26010000 		.4byte	.LASF306
 3268 1821 1F       		.byte	0x1f
 3269 1822 3801     		.2byte	0x138
 3270 1824 FA160000 		.4byte	0x16fa
 3271 1828 24       		.uleb128 0x24
 3272 1829 6A010000 		.4byte	.LASF310
 3273 182d 01       		.byte	0x1
 3274 182e 8B       		.byte	0x8b
 3275 182f 00000000 		.4byte	.LFB66
 3276 1833 28000000 		.4byte	.LFE66-.LFB66
 3277 1837 01       		.uleb128 0x1
 3278 1838 9C       		.byte	0x9c
 3279 1839 67180000 		.4byte	0x1867
 3280 183d 25       		.uleb128 0x25
 3281 183e D10A0000 		.4byte	.LASF307
 3282 1842 01       		.byte	0x1
 3283 1843 8B       		.byte	0x8b
 3284 1844 32110000 		.4byte	0x1132
 3285 1848 01       		.uleb128 0x1
 3286 1849 50       		.byte	0x50
 3287 184a 26       		.uleb128 0x26
 3288 184b EA060000 		.4byte	.LASF308
 3289 184f 01       		.byte	0x1
 3290 1850 8C       		.byte	0x8c
 3291 1851 1C110000 		.4byte	0x111c
 3292 1855 00000000 		.4byte	.LLST5
 3293 1859 25       		.uleb128 0x25
 3294 185a E90A0000 		.4byte	.LASF309
 3295 185e 01       		.byte	0x1
 3296 185f 8D       		.byte	0x8d
 3297 1860 27110000 		.4byte	0x1127
 3298 1864 01       		.uleb128 0x1
 3299 1865 52       		.byte	0x52
 3300 1866 00       		.byte	0
 3301 1867 24       		.uleb128 0x24
 3302 1868 21090000 		.4byte	.LASF311
 3303 186c 01       		.byte	0x1
 3304 186d 73       		.byte	0x73
 3305 186e 00000000 		.4byte	.LFB65
 3306 1872 10000000 		.4byte	.LFE65-.LFB65
ARM GAS  /tmp/ccHbY6vn.s 			page 59


 3307 1876 01       		.uleb128 0x1
 3308 1877 9C       		.byte	0x9c
 3309 1878 B5180000 		.4byte	0x18b5
 3310 187c 25       		.uleb128 0x25
 3311 187d D10A0000 		.4byte	.LASF307
 3312 1881 01       		.byte	0x1
 3313 1882 73       		.byte	0x73
 3314 1883 32110000 		.4byte	0x1132
 3315 1887 01       		.uleb128 0x1
 3316 1888 50       		.byte	0x50
 3317 1889 26       		.uleb128 0x26
 3318 188a EA060000 		.4byte	.LASF308
 3319 188e 01       		.byte	0x1
 3320 188f 74       		.byte	0x74
 3321 1890 1C110000 		.4byte	0x111c
 3322 1894 3A000000 		.4byte	.LLST3
 3323 1898 26       		.uleb128 0x26
 3324 1899 D2080000 		.4byte	.LASF312
 3325 189d 01       		.byte	0x1
 3326 189e 75       		.byte	0x75
 3327 189f E9000000 		.4byte	0xe9
 3328 18a3 5B000000 		.4byte	.LLST4
 3329 18a7 25       		.uleb128 0x25
 3330 18a8 28080000 		.4byte	.LASF313
 3331 18ac 01       		.byte	0x1
 3332 18ad 76       		.byte	0x76
 3333 18ae E9000000 		.4byte	0xe9
 3334 18b2 01       		.uleb128 0x1
 3335 18b3 53       		.byte	0x53
 3336 18b4 00       		.byte	0
 3337 18b5 27       		.uleb128 0x27
 3338 18b6 120C0000 		.4byte	.LASF318
 3339 18ba 01       		.byte	0x1
 3340 18bb 59       		.byte	0x59
 3341 18bc E9000000 		.4byte	0xe9
 3342 18c0 00000000 		.4byte	.LFB64
 3343 18c4 12000000 		.4byte	.LFE64-.LFB64
 3344 18c8 01       		.uleb128 0x1
 3345 18c9 9C       		.byte	0x9c
 3346 18ca 07190000 		.4byte	0x1907
 3347 18ce 26       		.uleb128 0x26
 3348 18cf D10A0000 		.4byte	.LASF307
 3349 18d3 01       		.byte	0x1
 3350 18d4 59       		.byte	0x59
 3351 18d5 32110000 		.4byte	0x1132
 3352 18d9 7C000000 		.4byte	.LLST0
 3353 18dd 26       		.uleb128 0x26
 3354 18de EA060000 		.4byte	.LASF308
 3355 18e2 01       		.byte	0x1
 3356 18e3 5A       		.byte	0x5a
 3357 18e4 1C110000 		.4byte	0x111c
 3358 18e8 9A000000 		.4byte	.LLST1
 3359 18ec 26       		.uleb128 0x26
 3360 18ed D2080000 		.4byte	.LASF312
 3361 18f1 01       		.byte	0x1
 3362 18f2 5B       		.byte	0x5b
 3363 18f3 E9000000 		.4byte	0xe9
ARM GAS  /tmp/ccHbY6vn.s 			page 60


 3364 18f7 BB000000 		.4byte	.LLST2
 3365 18fb 28       		.uleb128 0x28
 3366 18fc 7000     		.ascii	"p\000"
 3367 18fe 01       		.byte	0x1
 3368 18ff 5D       		.byte	0x5d
 3369 1900 E9000000 		.4byte	0xe9
 3370 1904 01       		.uleb128 0x1
 3371 1905 50       		.byte	0x50
 3372 1906 00       		.byte	0
 3373 1907 24       		.uleb128 0x24
 3374 1908 61070000 		.4byte	.LASF314
 3375 190c 01       		.byte	0x1
 3376 190d 39       		.byte	0x39
 3377 190e 00000000 		.4byte	.LFB63
 3378 1912 58000000 		.4byte	.LFE63-.LFB63
 3379 1916 01       		.uleb128 0x1
 3380 1917 9C       		.byte	0x9c
 3381 1918 2A190000 		.4byte	0x192a
 3382 191c 25       		.uleb128 0x25
 3383 191d EE000000 		.4byte	.LASF222
 3384 1921 01       		.byte	0x1
 3385 1922 39       		.byte	0x39
 3386 1923 2A190000 		.4byte	0x192a
 3387 1927 01       		.uleb128 0x1
 3388 1928 50       		.byte	0x50
 3389 1929 00       		.byte	0
 3390 192a 0B       		.uleb128 0xb
 3391 192b 04       		.byte	0x4
 3392 192c 17110000 		.4byte	0x1117
 3393 1930 00       		.byte	0
 3394              		.section	.debug_abbrev,"",%progbits
 3395              	.Ldebug_abbrev0:
 3396 0000 01       		.uleb128 0x1
 3397 0001 11       		.uleb128 0x11
 3398 0002 01       		.byte	0x1
 3399 0003 25       		.uleb128 0x25
 3400 0004 0E       		.uleb128 0xe
 3401 0005 13       		.uleb128 0x13
 3402 0006 0B       		.uleb128 0xb
 3403 0007 03       		.uleb128 0x3
 3404 0008 0E       		.uleb128 0xe
 3405 0009 1B       		.uleb128 0x1b
 3406 000a 0E       		.uleb128 0xe
 3407 000b 55       		.uleb128 0x55
 3408 000c 17       		.uleb128 0x17
 3409 000d 11       		.uleb128 0x11
 3410 000e 01       		.uleb128 0x1
 3411 000f 10       		.uleb128 0x10
 3412 0010 17       		.uleb128 0x17
 3413 0011 00       		.byte	0
 3414 0012 00       		.byte	0
 3415 0013 02       		.uleb128 0x2
 3416 0014 24       		.uleb128 0x24
 3417 0015 00       		.byte	0
 3418 0016 0B       		.uleb128 0xb
 3419 0017 0B       		.uleb128 0xb
 3420 0018 3E       		.uleb128 0x3e
ARM GAS  /tmp/ccHbY6vn.s 			page 61


 3421 0019 0B       		.uleb128 0xb
 3422 001a 03       		.uleb128 0x3
 3423 001b 08       		.uleb128 0x8
 3424 001c 00       		.byte	0
 3425 001d 00       		.byte	0
 3426 001e 03       		.uleb128 0x3
 3427 001f 16       		.uleb128 0x16
 3428 0020 00       		.byte	0
 3429 0021 03       		.uleb128 0x3
 3430 0022 0E       		.uleb128 0xe
 3431 0023 3A       		.uleb128 0x3a
 3432 0024 0B       		.uleb128 0xb
 3433 0025 3B       		.uleb128 0x3b
 3434 0026 0B       		.uleb128 0xb
 3435 0027 49       		.uleb128 0x49
 3436 0028 13       		.uleb128 0x13
 3437 0029 00       		.byte	0
 3438 002a 00       		.byte	0
 3439 002b 04       		.uleb128 0x4
 3440 002c 24       		.uleb128 0x24
 3441 002d 00       		.byte	0
 3442 002e 0B       		.uleb128 0xb
 3443 002f 0B       		.uleb128 0xb
 3444 0030 3E       		.uleb128 0x3e
 3445 0031 0B       		.uleb128 0xb
 3446 0032 03       		.uleb128 0x3
 3447 0033 0E       		.uleb128 0xe
 3448 0034 00       		.byte	0
 3449 0035 00       		.byte	0
 3450 0036 05       		.uleb128 0x5
 3451 0037 35       		.uleb128 0x35
 3452 0038 00       		.byte	0
 3453 0039 49       		.uleb128 0x49
 3454 003a 13       		.uleb128 0x13
 3455 003b 00       		.byte	0
 3456 003c 00       		.byte	0
 3457 003d 06       		.uleb128 0x6
 3458 003e 26       		.uleb128 0x26
 3459 003f 00       		.byte	0
 3460 0040 49       		.uleb128 0x49
 3461 0041 13       		.uleb128 0x13
 3462 0042 00       		.byte	0
 3463 0043 00       		.byte	0
 3464 0044 07       		.uleb128 0x7
 3465 0045 13       		.uleb128 0x13
 3466 0046 01       		.byte	0x1
 3467 0047 03       		.uleb128 0x3
 3468 0048 0E       		.uleb128 0xe
 3469 0049 0B       		.uleb128 0xb
 3470 004a 0B       		.uleb128 0xb
 3471 004b 3A       		.uleb128 0x3a
 3472 004c 0B       		.uleb128 0xb
 3473 004d 3B       		.uleb128 0x3b
 3474 004e 0B       		.uleb128 0xb
 3475 004f 01       		.uleb128 0x1
 3476 0050 13       		.uleb128 0x13
 3477 0051 00       		.byte	0
ARM GAS  /tmp/ccHbY6vn.s 			page 62


 3478 0052 00       		.byte	0
 3479 0053 08       		.uleb128 0x8
 3480 0054 0D       		.uleb128 0xd
 3481 0055 00       		.byte	0
 3482 0056 03       		.uleb128 0x3
 3483 0057 0E       		.uleb128 0xe
 3484 0058 3A       		.uleb128 0x3a
 3485 0059 0B       		.uleb128 0xb
 3486 005a 3B       		.uleb128 0x3b
 3487 005b 0B       		.uleb128 0xb
 3488 005c 49       		.uleb128 0x49
 3489 005d 13       		.uleb128 0x13
 3490 005e 38       		.uleb128 0x38
 3491 005f 0B       		.uleb128 0xb
 3492 0060 00       		.byte	0
 3493 0061 00       		.byte	0
 3494 0062 09       		.uleb128 0x9
 3495 0063 0D       		.uleb128 0xd
 3496 0064 00       		.byte	0
 3497 0065 03       		.uleb128 0x3
 3498 0066 08       		.uleb128 0x8
 3499 0067 3A       		.uleb128 0x3a
 3500 0068 0B       		.uleb128 0xb
 3501 0069 3B       		.uleb128 0x3b
 3502 006a 0B       		.uleb128 0xb
 3503 006b 49       		.uleb128 0x49
 3504 006c 13       		.uleb128 0x13
 3505 006d 38       		.uleb128 0x38
 3506 006e 0B       		.uleb128 0xb
 3507 006f 00       		.byte	0
 3508 0070 00       		.byte	0
 3509 0071 0A       		.uleb128 0xa
 3510 0072 13       		.uleb128 0x13
 3511 0073 01       		.byte	0x1
 3512 0074 0B       		.uleb128 0xb
 3513 0075 0B       		.uleb128 0xb
 3514 0076 3A       		.uleb128 0x3a
 3515 0077 0B       		.uleb128 0xb
 3516 0078 3B       		.uleb128 0x3b
 3517 0079 0B       		.uleb128 0xb
 3518 007a 01       		.uleb128 0x1
 3519 007b 13       		.uleb128 0x13
 3520 007c 00       		.byte	0
 3521 007d 00       		.byte	0
 3522 007e 0B       		.uleb128 0xb
 3523 007f 0F       		.uleb128 0xf
 3524 0080 00       		.byte	0
 3525 0081 0B       		.uleb128 0xb
 3526 0082 0B       		.uleb128 0xb
 3527 0083 49       		.uleb128 0x49
 3528 0084 13       		.uleb128 0x13
 3529 0085 00       		.byte	0
 3530 0086 00       		.byte	0
 3531 0087 0C       		.uleb128 0xc
 3532 0088 0F       		.uleb128 0xf
 3533 0089 00       		.byte	0
 3534 008a 0B       		.uleb128 0xb
ARM GAS  /tmp/ccHbY6vn.s 			page 63


 3535 008b 0B       		.uleb128 0xb
 3536 008c 00       		.byte	0
 3537 008d 00       		.byte	0
 3538 008e 0D       		.uleb128 0xd
 3539 008f 13       		.uleb128 0x13
 3540 0090 01       		.byte	0x1
 3541 0091 03       		.uleb128 0x3
 3542 0092 0E       		.uleb128 0xe
 3543 0093 0B       		.uleb128 0xb
 3544 0094 0B       		.uleb128 0xb
 3545 0095 3A       		.uleb128 0x3a
 3546 0096 0B       		.uleb128 0xb
 3547 0097 3B       		.uleb128 0x3b
 3548 0098 05       		.uleb128 0x5
 3549 0099 01       		.uleb128 0x1
 3550 009a 13       		.uleb128 0x13
 3551 009b 00       		.byte	0
 3552 009c 00       		.byte	0
 3553 009d 0E       		.uleb128 0xe
 3554 009e 0D       		.uleb128 0xd
 3555 009f 00       		.byte	0
 3556 00a0 03       		.uleb128 0x3
 3557 00a1 08       		.uleb128 0x8
 3558 00a2 3A       		.uleb128 0x3a
 3559 00a3 0B       		.uleb128 0xb
 3560 00a4 3B       		.uleb128 0x3b
 3561 00a5 05       		.uleb128 0x5
 3562 00a6 49       		.uleb128 0x49
 3563 00a7 13       		.uleb128 0x13
 3564 00a8 38       		.uleb128 0x38
 3565 00a9 0B       		.uleb128 0xb
 3566 00aa 00       		.byte	0
 3567 00ab 00       		.byte	0
 3568 00ac 0F       		.uleb128 0xf
 3569 00ad 15       		.uleb128 0x15
 3570 00ae 01       		.byte	0x1
 3571 00af 27       		.uleb128 0x27
 3572 00b0 19       		.uleb128 0x19
 3573 00b1 01       		.uleb128 0x1
 3574 00b2 13       		.uleb128 0x13
 3575 00b3 00       		.byte	0
 3576 00b4 00       		.byte	0
 3577 00b5 10       		.uleb128 0x10
 3578 00b6 05       		.uleb128 0x5
 3579 00b7 00       		.byte	0
 3580 00b8 49       		.uleb128 0x49
 3581 00b9 13       		.uleb128 0x13
 3582 00ba 00       		.byte	0
 3583 00bb 00       		.byte	0
 3584 00bc 11       		.uleb128 0x11
 3585 00bd 34       		.uleb128 0x34
 3586 00be 00       		.byte	0
 3587 00bf 03       		.uleb128 0x3
 3588 00c0 0E       		.uleb128 0xe
 3589 00c1 3A       		.uleb128 0x3a
 3590 00c2 0B       		.uleb128 0xb
 3591 00c3 3B       		.uleb128 0x3b
ARM GAS  /tmp/ccHbY6vn.s 			page 64


 3592 00c4 0B       		.uleb128 0xb
 3593 00c5 49       		.uleb128 0x49
 3594 00c6 13       		.uleb128 0x13
 3595 00c7 3F       		.uleb128 0x3f
 3596 00c8 19       		.uleb128 0x19
 3597 00c9 3C       		.uleb128 0x3c
 3598 00ca 19       		.uleb128 0x19
 3599 00cb 00       		.byte	0
 3600 00cc 00       		.byte	0
 3601 00cd 12       		.uleb128 0x12
 3602 00ce 17       		.uleb128 0x17
 3603 00cf 01       		.byte	0x1
 3604 00d0 0B       		.uleb128 0xb
 3605 00d1 0B       		.uleb128 0xb
 3606 00d2 3A       		.uleb128 0x3a
 3607 00d3 0B       		.uleb128 0xb
 3608 00d4 3B       		.uleb128 0x3b
 3609 00d5 0B       		.uleb128 0xb
 3610 00d6 01       		.uleb128 0x1
 3611 00d7 13       		.uleb128 0x13
 3612 00d8 00       		.byte	0
 3613 00d9 00       		.byte	0
 3614 00da 13       		.uleb128 0x13
 3615 00db 0D       		.uleb128 0xd
 3616 00dc 00       		.byte	0
 3617 00dd 03       		.uleb128 0x3
 3618 00de 0E       		.uleb128 0xe
 3619 00df 3A       		.uleb128 0x3a
 3620 00e0 0B       		.uleb128 0xb
 3621 00e1 3B       		.uleb128 0x3b
 3622 00e2 0B       		.uleb128 0xb
 3623 00e3 49       		.uleb128 0x49
 3624 00e4 13       		.uleb128 0x13
 3625 00e5 00       		.byte	0
 3626 00e6 00       		.byte	0
 3627 00e7 14       		.uleb128 0x14
 3628 00e8 15       		.uleb128 0x15
 3629 00e9 01       		.byte	0x1
 3630 00ea 27       		.uleb128 0x27
 3631 00eb 19       		.uleb128 0x19
 3632 00ec 49       		.uleb128 0x49
 3633 00ed 13       		.uleb128 0x13
 3634 00ee 01       		.uleb128 0x1
 3635 00ef 13       		.uleb128 0x13
 3636 00f0 00       		.byte	0
 3637 00f1 00       		.byte	0
 3638 00f2 15       		.uleb128 0x15
 3639 00f3 01       		.uleb128 0x1
 3640 00f4 01       		.byte	0x1
 3641 00f5 49       		.uleb128 0x49
 3642 00f6 13       		.uleb128 0x13
 3643 00f7 01       		.uleb128 0x1
 3644 00f8 13       		.uleb128 0x13
 3645 00f9 00       		.byte	0
 3646 00fa 00       		.byte	0
 3647 00fb 16       		.uleb128 0x16
 3648 00fc 21       		.uleb128 0x21
ARM GAS  /tmp/ccHbY6vn.s 			page 65


 3649 00fd 00       		.byte	0
 3650 00fe 49       		.uleb128 0x49
 3651 00ff 13       		.uleb128 0x13
 3652 0100 2F       		.uleb128 0x2f
 3653 0101 0B       		.uleb128 0xb
 3654 0102 00       		.byte	0
 3655 0103 00       		.byte	0
 3656 0104 17       		.uleb128 0x17
 3657 0105 34       		.uleb128 0x34
 3658 0106 00       		.byte	0
 3659 0107 03       		.uleb128 0x3
 3660 0108 0E       		.uleb128 0xe
 3661 0109 3A       		.uleb128 0x3a
 3662 010a 0B       		.uleb128 0xb
 3663 010b 3B       		.uleb128 0x3b
 3664 010c 05       		.uleb128 0x5
 3665 010d 49       		.uleb128 0x49
 3666 010e 13       		.uleb128 0x13
 3667 010f 3F       		.uleb128 0x3f
 3668 0110 19       		.uleb128 0x19
 3669 0111 3C       		.uleb128 0x3c
 3670 0112 19       		.uleb128 0x19
 3671 0113 00       		.byte	0
 3672 0114 00       		.byte	0
 3673 0115 18       		.uleb128 0x18
 3674 0116 0D       		.uleb128 0xd
 3675 0117 00       		.byte	0
 3676 0118 49       		.uleb128 0x49
 3677 0119 13       		.uleb128 0x13
 3678 011a 00       		.byte	0
 3679 011b 00       		.byte	0
 3680 011c 19       		.uleb128 0x19
 3681 011d 13       		.uleb128 0x13
 3682 011e 01       		.byte	0x1
 3683 011f 0B       		.uleb128 0xb
 3684 0120 0B       		.uleb128 0xb
 3685 0121 3A       		.uleb128 0x3a
 3686 0122 0B       		.uleb128 0xb
 3687 0123 3B       		.uleb128 0x3b
 3688 0124 05       		.uleb128 0x5
 3689 0125 01       		.uleb128 0x1
 3690 0126 13       		.uleb128 0x13
 3691 0127 00       		.byte	0
 3692 0128 00       		.byte	0
 3693 0129 1A       		.uleb128 0x1a
 3694 012a 0D       		.uleb128 0xd
 3695 012b 00       		.byte	0
 3696 012c 03       		.uleb128 0x3
 3697 012d 0E       		.uleb128 0xe
 3698 012e 3A       		.uleb128 0x3a
 3699 012f 0B       		.uleb128 0xb
 3700 0130 3B       		.uleb128 0x3b
 3701 0131 05       		.uleb128 0x5
 3702 0132 49       		.uleb128 0x49
 3703 0133 13       		.uleb128 0x13
 3704 0134 38       		.uleb128 0x38
 3705 0135 0B       		.uleb128 0xb
ARM GAS  /tmp/ccHbY6vn.s 			page 66


 3706 0136 00       		.byte	0
 3707 0137 00       		.byte	0
 3708 0138 1B       		.uleb128 0x1b
 3709 0139 0D       		.uleb128 0xd
 3710 013a 00       		.byte	0
 3711 013b 49       		.uleb128 0x49
 3712 013c 13       		.uleb128 0x13
 3713 013d 38       		.uleb128 0x38
 3714 013e 0B       		.uleb128 0xb
 3715 013f 00       		.byte	0
 3716 0140 00       		.byte	0
 3717 0141 1C       		.uleb128 0x1c
 3718 0142 16       		.uleb128 0x16
 3719 0143 00       		.byte	0
 3720 0144 03       		.uleb128 0x3
 3721 0145 0E       		.uleb128 0xe
 3722 0146 3A       		.uleb128 0x3a
 3723 0147 0B       		.uleb128 0xb
 3724 0148 3B       		.uleb128 0x3b
 3725 0149 05       		.uleb128 0x5
 3726 014a 49       		.uleb128 0x49
 3727 014b 13       		.uleb128 0x13
 3728 014c 00       		.byte	0
 3729 014d 00       		.byte	0
 3730 014e 1D       		.uleb128 0x1d
 3731 014f 17       		.uleb128 0x17
 3732 0150 01       		.byte	0x1
 3733 0151 0B       		.uleb128 0xb
 3734 0152 0B       		.uleb128 0xb
 3735 0153 3A       		.uleb128 0x3a
 3736 0154 0B       		.uleb128 0xb
 3737 0155 3B       		.uleb128 0x3b
 3738 0156 05       		.uleb128 0x5
 3739 0157 01       		.uleb128 0x1
 3740 0158 13       		.uleb128 0x13
 3741 0159 00       		.byte	0
 3742 015a 00       		.byte	0
 3743 015b 1E       		.uleb128 0x1e
 3744 015c 0D       		.uleb128 0xd
 3745 015d 00       		.byte	0
 3746 015e 03       		.uleb128 0x3
 3747 015f 08       		.uleb128 0x8
 3748 0160 3A       		.uleb128 0x3a
 3749 0161 0B       		.uleb128 0xb
 3750 0162 3B       		.uleb128 0x3b
 3751 0163 05       		.uleb128 0x5
 3752 0164 49       		.uleb128 0x49
 3753 0165 13       		.uleb128 0x13
 3754 0166 00       		.byte	0
 3755 0167 00       		.byte	0
 3756 0168 1F       		.uleb128 0x1f
 3757 0169 21       		.uleb128 0x21
 3758 016a 00       		.byte	0
 3759 016b 00       		.byte	0
 3760 016c 00       		.byte	0
 3761 016d 20       		.uleb128 0x20
 3762 016e 04       		.uleb128 0x4
ARM GAS  /tmp/ccHbY6vn.s 			page 67


 3763 016f 01       		.byte	0x1
 3764 0170 0B       		.uleb128 0xb
 3765 0171 0B       		.uleb128 0xb
 3766 0172 49       		.uleb128 0x49
 3767 0173 13       		.uleb128 0x13
 3768 0174 3A       		.uleb128 0x3a
 3769 0175 0B       		.uleb128 0xb
 3770 0176 3B       		.uleb128 0x3b
 3771 0177 0B       		.uleb128 0xb
 3772 0178 01       		.uleb128 0x1
 3773 0179 13       		.uleb128 0x13
 3774 017a 00       		.byte	0
 3775 017b 00       		.byte	0
 3776 017c 21       		.uleb128 0x21
 3777 017d 28       		.uleb128 0x28
 3778 017e 00       		.byte	0
 3779 017f 03       		.uleb128 0x3
 3780 0180 0E       		.uleb128 0xe
 3781 0181 1C       		.uleb128 0x1c
 3782 0182 0B       		.uleb128 0xb
 3783 0183 00       		.byte	0
 3784 0184 00       		.byte	0
 3785 0185 22       		.uleb128 0x22
 3786 0186 34       		.uleb128 0x34
 3787 0187 00       		.byte	0
 3788 0188 03       		.uleb128 0x3
 3789 0189 08       		.uleb128 0x8
 3790 018a 3A       		.uleb128 0x3a
 3791 018b 0B       		.uleb128 0xb
 3792 018c 3B       		.uleb128 0x3b
 3793 018d 0B       		.uleb128 0xb
 3794 018e 49       		.uleb128 0x49
 3795 018f 13       		.uleb128 0x13
 3796 0190 3F       		.uleb128 0x3f
 3797 0191 19       		.uleb128 0x19
 3798 0192 3C       		.uleb128 0x3c
 3799 0193 19       		.uleb128 0x19
 3800 0194 00       		.byte	0
 3801 0195 00       		.byte	0
 3802 0196 23       		.uleb128 0x23
 3803 0197 26       		.uleb128 0x26
 3804 0198 00       		.byte	0
 3805 0199 00       		.byte	0
 3806 019a 00       		.byte	0
 3807 019b 24       		.uleb128 0x24
 3808 019c 2E       		.uleb128 0x2e
 3809 019d 01       		.byte	0x1
 3810 019e 3F       		.uleb128 0x3f
 3811 019f 19       		.uleb128 0x19
 3812 01a0 03       		.uleb128 0x3
 3813 01a1 0E       		.uleb128 0xe
 3814 01a2 3A       		.uleb128 0x3a
 3815 01a3 0B       		.uleb128 0xb
 3816 01a4 3B       		.uleb128 0x3b
 3817 01a5 0B       		.uleb128 0xb
 3818 01a6 27       		.uleb128 0x27
 3819 01a7 19       		.uleb128 0x19
ARM GAS  /tmp/ccHbY6vn.s 			page 68


 3820 01a8 11       		.uleb128 0x11
 3821 01a9 01       		.uleb128 0x1
 3822 01aa 12       		.uleb128 0x12
 3823 01ab 06       		.uleb128 0x6
 3824 01ac 40       		.uleb128 0x40
 3825 01ad 18       		.uleb128 0x18
 3826 01ae 9742     		.uleb128 0x2117
 3827 01b0 19       		.uleb128 0x19
 3828 01b1 01       		.uleb128 0x1
 3829 01b2 13       		.uleb128 0x13
 3830 01b3 00       		.byte	0
 3831 01b4 00       		.byte	0
 3832 01b5 25       		.uleb128 0x25
 3833 01b6 05       		.uleb128 0x5
 3834 01b7 00       		.byte	0
 3835 01b8 03       		.uleb128 0x3
 3836 01b9 0E       		.uleb128 0xe
 3837 01ba 3A       		.uleb128 0x3a
 3838 01bb 0B       		.uleb128 0xb
 3839 01bc 3B       		.uleb128 0x3b
 3840 01bd 0B       		.uleb128 0xb
 3841 01be 49       		.uleb128 0x49
 3842 01bf 13       		.uleb128 0x13
 3843 01c0 02       		.uleb128 0x2
 3844 01c1 18       		.uleb128 0x18
 3845 01c2 00       		.byte	0
 3846 01c3 00       		.byte	0
 3847 01c4 26       		.uleb128 0x26
 3848 01c5 05       		.uleb128 0x5
 3849 01c6 00       		.byte	0
 3850 01c7 03       		.uleb128 0x3
 3851 01c8 0E       		.uleb128 0xe
 3852 01c9 3A       		.uleb128 0x3a
 3853 01ca 0B       		.uleb128 0xb
 3854 01cb 3B       		.uleb128 0x3b
 3855 01cc 0B       		.uleb128 0xb
 3856 01cd 49       		.uleb128 0x49
 3857 01ce 13       		.uleb128 0x13
 3858 01cf 02       		.uleb128 0x2
 3859 01d0 17       		.uleb128 0x17
 3860 01d1 00       		.byte	0
 3861 01d2 00       		.byte	0
 3862 01d3 27       		.uleb128 0x27
 3863 01d4 2E       		.uleb128 0x2e
 3864 01d5 01       		.byte	0x1
 3865 01d6 3F       		.uleb128 0x3f
 3866 01d7 19       		.uleb128 0x19
 3867 01d8 03       		.uleb128 0x3
 3868 01d9 0E       		.uleb128 0xe
 3869 01da 3A       		.uleb128 0x3a
 3870 01db 0B       		.uleb128 0xb
 3871 01dc 3B       		.uleb128 0x3b
 3872 01dd 0B       		.uleb128 0xb
 3873 01de 27       		.uleb128 0x27
 3874 01df 19       		.uleb128 0x19
 3875 01e0 49       		.uleb128 0x49
 3876 01e1 13       		.uleb128 0x13
ARM GAS  /tmp/ccHbY6vn.s 			page 69


 3877 01e2 11       		.uleb128 0x11
 3878 01e3 01       		.uleb128 0x1
 3879 01e4 12       		.uleb128 0x12
 3880 01e5 06       		.uleb128 0x6
 3881 01e6 40       		.uleb128 0x40
 3882 01e7 18       		.uleb128 0x18
 3883 01e8 9742     		.uleb128 0x2117
 3884 01ea 19       		.uleb128 0x19
 3885 01eb 01       		.uleb128 0x1
 3886 01ec 13       		.uleb128 0x13
 3887 01ed 00       		.byte	0
 3888 01ee 00       		.byte	0
 3889 01ef 28       		.uleb128 0x28
 3890 01f0 34       		.uleb128 0x34
 3891 01f1 00       		.byte	0
 3892 01f2 03       		.uleb128 0x3
 3893 01f3 08       		.uleb128 0x8
 3894 01f4 3A       		.uleb128 0x3a
 3895 01f5 0B       		.uleb128 0xb
 3896 01f6 3B       		.uleb128 0x3b
 3897 01f7 0B       		.uleb128 0xb
 3898 01f8 49       		.uleb128 0x49
 3899 01f9 13       		.uleb128 0x13
 3900 01fa 02       		.uleb128 0x2
 3901 01fb 18       		.uleb128 0x18
 3902 01fc 00       		.byte	0
 3903 01fd 00       		.byte	0
 3904 01fe 00       		.byte	0
 3905              		.section	.debug_loc,"",%progbits
 3906              	.Ldebug_loc0:
 3907              	.LLST5:
 3908 0000 00000000 		.4byte	.LVL8
 3909 0004 1A000000 		.4byte	.LVL9
 3910 0008 0100     		.2byte	0x1
 3911 000a 51       		.byte	0x51
 3912 000b 1A000000 		.4byte	.LVL9
 3913 000f 1E000000 		.4byte	.LVL10
 3914 0013 0400     		.2byte	0x4
 3915 0015 F3       		.byte	0xf3
 3916 0016 01       		.uleb128 0x1
 3917 0017 51       		.byte	0x51
 3918 0018 9F       		.byte	0x9f
 3919 0019 1E000000 		.4byte	.LVL10
 3920 001d 24000000 		.4byte	.LVL11
 3921 0021 0100     		.2byte	0x1
 3922 0023 51       		.byte	0x51
 3923 0024 24000000 		.4byte	.LVL11
 3924 0028 28000000 		.4byte	.LFE66
 3925 002c 0400     		.2byte	0x4
 3926 002e F3       		.byte	0xf3
 3927 002f 01       		.uleb128 0x1
 3928 0030 51       		.byte	0x51
 3929 0031 9F       		.byte	0x9f
 3930 0032 00000000 		.4byte	0
 3931 0036 00000000 		.4byte	0
 3932              	.LLST3:
 3933 003a 00000000 		.4byte	.LVL5
ARM GAS  /tmp/ccHbY6vn.s 			page 70


 3934 003e 08000000 		.4byte	.LVL7
 3935 0042 0100     		.2byte	0x1
 3936 0044 51       		.byte	0x51
 3937 0045 08000000 		.4byte	.LVL7
 3938 0049 10000000 		.4byte	.LFE65
 3939 004d 0400     		.2byte	0x4
 3940 004f F3       		.byte	0xf3
 3941 0050 01       		.uleb128 0x1
 3942 0051 51       		.byte	0x51
 3943 0052 9F       		.byte	0x9f
 3944 0053 00000000 		.4byte	0
 3945 0057 00000000 		.4byte	0
 3946              	.LLST4:
 3947 005b 00000000 		.4byte	.LVL5
 3948 005f 04000000 		.4byte	.LVL6
 3949 0063 0100     		.2byte	0x1
 3950 0065 52       		.byte	0x52
 3951 0066 04000000 		.4byte	.LVL6
 3952 006a 10000000 		.4byte	.LFE65
 3953 006e 0400     		.2byte	0x4
 3954 0070 F3       		.byte	0xf3
 3955 0071 01       		.uleb128 0x1
 3956 0072 52       		.byte	0x52
 3957 0073 9F       		.byte	0x9f
 3958 0074 00000000 		.4byte	0
 3959 0078 00000000 		.4byte	0
 3960              	.LLST0:
 3961 007c 00000000 		.4byte	.LVL1
 3962 0080 0E000000 		.4byte	.LVL4
 3963 0084 0100     		.2byte	0x1
 3964 0086 50       		.byte	0x50
 3965 0087 0E000000 		.4byte	.LVL4
 3966 008b 12000000 		.4byte	.LFE64
 3967 008f 0100     		.2byte	0x1
 3968 0091 53       		.byte	0x53
 3969 0092 00000000 		.4byte	0
 3970 0096 00000000 		.4byte	0
 3971              	.LLST1:
 3972 009a 00000000 		.4byte	.LVL1
 3973 009e 0A000000 		.4byte	.LVL3
 3974 00a2 0100     		.2byte	0x1
 3975 00a4 51       		.byte	0x51
 3976 00a5 0A000000 		.4byte	.LVL3
 3977 00a9 12000000 		.4byte	.LFE64
 3978 00ad 0400     		.2byte	0x4
 3979 00af F3       		.byte	0xf3
 3980 00b0 01       		.uleb128 0x1
 3981 00b1 51       		.byte	0x51
 3982 00b2 9F       		.byte	0x9f
 3983 00b3 00000000 		.4byte	0
 3984 00b7 00000000 		.4byte	0
 3985              	.LLST2:
 3986 00bb 00000000 		.4byte	.LVL1
 3987 00bf 04000000 		.4byte	.LVL2
 3988 00c3 0100     		.2byte	0x1
 3989 00c5 52       		.byte	0x52
 3990 00c6 04000000 		.4byte	.LVL2
ARM GAS  /tmp/ccHbY6vn.s 			page 71


 3991 00ca 12000000 		.4byte	.LFE64
 3992 00ce 0400     		.2byte	0x4
 3993 00d0 F3       		.byte	0xf3
 3994 00d1 01       		.uleb128 0x1
 3995 00d2 52       		.byte	0x52
 3996 00d3 9F       		.byte	0x9f
 3997 00d4 00000000 		.4byte	0
 3998 00d8 00000000 		.4byte	0
 3999              		.section	.debug_aranges,"",%progbits
 4000 0000 34000000 		.4byte	0x34
 4001 0004 0200     		.2byte	0x2
 4002 0006 00000000 		.4byte	.Ldebug_info0
 4003 000a 04       		.byte	0x4
 4004 000b 00       		.byte	0
 4005 000c 0000     		.2byte	0
 4006 000e 0000     		.2byte	0
 4007 0010 00000000 		.4byte	.LFB63
 4008 0014 58000000 		.4byte	.LFE63-.LFB63
 4009 0018 00000000 		.4byte	.LFB64
 4010 001c 12000000 		.4byte	.LFE64-.LFB64
 4011 0020 00000000 		.4byte	.LFB65
 4012 0024 10000000 		.4byte	.LFE65-.LFB65
 4013 0028 00000000 		.4byte	.LFB66
 4014 002c 28000000 		.4byte	.LFE66-.LFB66
 4015 0030 00000000 		.4byte	0
 4016 0034 00000000 		.4byte	0
 4017              		.section	.debug_ranges,"",%progbits
 4018              	.Ldebug_ranges0:
 4019 0000 00000000 		.4byte	.LFB63
 4020 0004 58000000 		.4byte	.LFE63
 4021 0008 00000000 		.4byte	.LFB64
 4022 000c 12000000 		.4byte	.LFE64
 4023 0010 00000000 		.4byte	.LFB65
 4024 0014 10000000 		.4byte	.LFE65
 4025 0018 00000000 		.4byte	.LFB66
 4026 001c 28000000 		.4byte	.LFE66
 4027 0020 00000000 		.4byte	0
 4028 0024 00000000 		.4byte	0
 4029              		.section	.debug_line,"",%progbits
 4030              	.Ldebug_line0:
 4031 0000 F8020000 		.section	.debug_str,"MS",%progbits,1
 4031      02008602 
 4031      00000201 
 4031      FB0E0D00 
 4031      01010101 
 4032              	.LASF4:
 4033 0000 73697A65 		.ascii	"size_t\000"
 4033      5F7400
 4034              	.LASF59:
 4035 0007 73697A65 		.ascii	"sizetype\000"
 4035      74797065 
 4035      00
 4036              	.LASF108:
 4037 0010 63665F6F 		.ascii	"cf_off_name\000"
 4037      66665F6E 
 4037      616D6500 
 4038              	.LASF31:
ARM GAS  /tmp/ccHbY6vn.s 			page 72


 4039 001c 73797374 		.ascii	"systime_t\000"
 4039      696D655F 
 4039      7400
 4040              	.LASF186:
 4041 0026 54464932 		.ascii	"TFI2\000"
 4041      00
 4042              	.LASF190:
 4043 002b 54464933 		.ascii	"TFI3\000"
 4043      00
 4044              	.LASF97:
 4045 0030 63685F69 		.ascii	"ch_identifier\000"
 4045      64656E74 
 4045      69666965 
 4045      7200
 4046              	.LASF37:
 4047 003e 705F6374 		.ascii	"p_ctx\000"
 4047      7800
 4048              	.LASF27:
 4049 0044 74707269 		.ascii	"tprio_t\000"
 4049      6F5F7400 
 4050              	.LASF229:
 4051 004c 61646363 		.ascii	"adccallback_t\000"
 4051      616C6C62 
 4051      61636B5F 
 4051      7400
 4052              	.LASF116:
 4053 005a 63685F64 		.ascii	"ch_debug\000"
 4053      65627567 
 4053      00
 4054              	.LASF47:
 4055 0063 705F6D73 		.ascii	"p_msgqueue\000"
 4055      67717565 
 4055      756500
 4056              	.LASF71:
 4057 006e 725F6374 		.ascii	"r_ctx\000"
 4057      7800
 4058              	.LASF18:
 4059 0074 696E7433 		.ascii	"int32_t\000"
 4059      325F7400 
 4060              	.LASF215:
 4061 007c 61646373 		.ascii	"adcstate_t\000"
 4061      74617465 
 4061      5F7400
 4062              	.LASF105:
 4063 0087 63665F6F 		.ascii	"cf_off_ctx\000"
 4063      66665F63 
 4063      747800
 4064              	.LASF60:
 4065 0092 76746675 		.ascii	"vtfunc_t\000"
 4065      6E635F74 
 4065      00
 4066              	.LASF252:
 4067 009b 736C6565 		.ascii	"sleep_event\000"
 4067      705F6576 
 4067      656E7400 
 4068              	.LASF301:
 4069 00a7 7373706F 		.ascii	"ssport\000"
ARM GAS  /tmp/ccHbY6vn.s 			page 73


 4069      727400
 4070              	.LASF200:
 4071 00ae 4C50435F 		.ascii	"LPC_GPDMACH_TypeDef\000"
 4071      4750444D 
 4071      4143485F 
 4071      54797065 
 4071      44656600 
 4072              	.LASF283:
 4073 00c2 77726974 		.ascii	"write\000"
 4073      6500
 4074              	.LASF253:
 4075 00c8 77616B65 		.ascii	"wakeup_event\000"
 4075      75705F65 
 4075      76656E74 
 4075      00
 4076              	.LASF170:
 4077 00d5 43544352 		.ascii	"CTCR\000"
 4077      00
 4078              	.LASF89:
 4079 00da 656C5F66 		.ascii	"el_flags\000"
 4079      6C616773 
 4079      00
 4080              	.LASF261:
 4081 00e3 67707473 		.ascii	"gptstate_t\000"
 4081      74617465 
 4081      5F7400
 4082              	.LASF222:
 4083 00ee 636F6E66 		.ascii	"config\000"
 4083      696700
 4084              	.LASF221:
 4085 00f5 73746174 		.ascii	"state\000"
 4085      6500
 4086              	.LASF247:
 4087 00fb 74787365 		.ascii	"txsem\000"
 4087      6D00
 4088              	.LASF181:
 4089 0101 4C50435F 		.ascii	"LPC_ADC_TypeDef\000"
 4089      4144435F 
 4089      54797065 
 4089      44656600 
 4090              	.LASF285:
 4091 0111 70757474 		.ascii	"putt\000"
 4091      00
 4092              	.LASF246:
 4093 0116 43414E43 		.ascii	"CANConfig\000"
 4093      6F6E6669 
 4093      6700
 4094              	.LASF305:
 4095 0120 53504944 		.ascii	"SPID1\000"
 4095      3100
 4096              	.LASF306:
 4097 0126 53504944 		.ascii	"SPID2\000"
 4097      3200
 4098              	.LASF179:
 4099 012c 53544154 		.ascii	"STAT\000"
 4099      00
 4100              	.LASF101:
ARM GAS  /tmp/ccHbY6vn.s 			page 74


 4101 0131 63685F70 		.ascii	"ch_ptrsize\000"
 4101      74727369 
 4101      7A6500
 4102              	.LASF234:
 4103 013c 6572726F 		.ascii	"error_cb\000"
 4103      725F6362 
 4103      00
 4104              	.LASF267:
 4105 0145 63616C6C 		.ascii	"callback\000"
 4105      6261636B 
 4105      00
 4106              	.LASF244:
 4107 014e 43414E5F 		.ascii	"CAN_SLEEP\000"
 4107      534C4545 
 4107      5000
 4108              	.LASF206:
 4109 0158 696F6D6F 		.ascii	"iomode_t\000"
 4109      64655F74 
 4109      00
 4110              	.LASF228:
 4111 0161 6E73616D 		.ascii	"nsamples\000"
 4111      706C6573 
 4111      00
 4112              	.LASF310:
 4113 016a 5F70616C 		.ascii	"_pal_lld_setgroupmode\000"
 4113      5F6C6C64 
 4113      5F736574 
 4113      67726F75 
 4113      706D6F64 
 4114              	.LASF83:
 4115 0180 6D5F6F77 		.ascii	"m_owner\000"
 4115      6E657200 
 4116              	.LASF66:
 4117 0188 76745F70 		.ascii	"vt_par\000"
 4117      617200
 4118              	.LASF233:
 4119 018f 656E645F 		.ascii	"end_cb\000"
 4119      636200
 4120              	.LASF93:
 4121 0196 65786974 		.ascii	"exitcode\000"
 4121      636F6465 
 4121      00
 4122              	.LASF5:
 4123 019f 5F5F7569 		.ascii	"__uint8_t\000"
 4123      6E74385F 
 4123      7400
 4124              	.LASF121:
 4125 01a9 715F746F 		.ascii	"q_top\000"
 4125      7000
 4126              	.LASF196:
 4127 01af 43446573 		.ascii	"CDestAddr\000"
 4127      74416464 
 4127      7200
 4128              	.LASF95:
 4129 01b9 65776D61 		.ascii	"ewmask\000"
 4129      736B00
 4130              	.LASF254:
ARM GAS  /tmp/ccHbY6vn.s 			page 75


 4131 01c0 43414E44 		.ascii	"CANDriver\000"
 4131      72697665 
 4131      7200
 4132              	.LASF103:
 4133 01ca 63685F74 		.ascii	"ch_threadsize\000"
 4133      68726561 
 4133      6473697A 
 4133      6500
 4134              	.LASF288:
 4135 01d8 72656164 		.ascii	"readt\000"
 4135      7400
 4136              	.LASF120:
 4137 01de 715F6275 		.ascii	"q_buffer\000"
 4137      66666572 
 4137      00
 4138              	.LASF195:
 4139 01e7 43537263 		.ascii	"CSrcAddr\000"
 4139      41646472 
 4139      00
 4140              	.LASF124:
 4141 01f0 715F6E6F 		.ascii	"q_notify\000"
 4141      74696679 
 4141      00
 4142              	.LASF38:
 4143 01f9 705F6E65 		.ascii	"p_newer\000"
 4143      77657200 
 4144              	.LASF290:
 4145 0201 5350495F 		.ascii	"SPI_STOP\000"
 4145      53544F50 
 4145      00
 4146              	.LASF11:
 4147 020a 6C6F6E67 		.ascii	"long int\000"
 4147      20696E74 
 4147      00
 4148              	.LASF289:
 4149 0213 5350495F 		.ascii	"SPI_UNINIT\000"
 4149      554E494E 
 4149      495400
 4150              	.LASF34:
 4151 021e 705F6E65 		.ascii	"p_next\000"
 4151      787400
 4152              	.LASF123:
 4153 0225 715F7264 		.ascii	"q_rdptr\000"
 4153      70747200 
 4154              	.LASF110:
 4155 022d 63665F6F 		.ascii	"cf_off_state\000"
 4155      66665F73 
 4155      74617465 
 4155      00
 4156              	.LASF35:
 4157 023a 705F7072 		.ascii	"p_prev\000"
 4157      657600
 4158              	.LASF269:
 4159 0241 47505444 		.ascii	"GPTD1\000"
 4159      3100
 4160              	.LASF270:
 4161 0247 47505444 		.ascii	"GPTD2\000"
ARM GAS  /tmp/ccHbY6vn.s 			page 76


 4161      3200
 4162              	.LASF271:
 4163 024d 47505444 		.ascii	"GPTD3\000"
 4163      3300
 4164              	.LASF272:
 4165 0253 47505444 		.ascii	"GPTD4\000"
 4165      3400
 4166              	.LASF207:
 4167 0259 696F706F 		.ascii	"ioportid_t\000"
 4167      72746964 
 4167      5F7400
 4168              	.LASF24:
 4169 0264 74737461 		.ascii	"tstate_t\000"
 4169      74655F74 
 4169      00
 4170              	.LASF50:
 4171 026d 705F6D74 		.ascii	"p_mtxlist\000"
 4171      786C6973 
 4171      7400
 4172              	.LASF280:
 4173 0277 6F717565 		.ascii	"oqueue\000"
 4173      756500
 4174              	.LASF55:
 4175 027e 72656761 		.ascii	"regarm_t\000"
 4175      726D5F74 
 4175      00
 4176              	.LASF177:
 4177 0287 4C50435F 		.ascii	"LPC_SSP_TypeDef\000"
 4177      5353505F 
 4177      54797065 
 4177      44656600 
 4178              	.LASF208:
 4179 0297 70616C5F 		.ascii	"pal_default_config\000"
 4179      64656661 
 4179      756C745F 
 4179      636F6E66 
 4179      696700
 4180              	.LASF3:
 4181 02aa 7369676E 		.ascii	"signed char\000"
 4181      65642063 
 4181      68617200 
 4182              	.LASF44:
 4183 02b6 705F7072 		.ascii	"p_preempt\000"
 4183      65656D70 
 4183      7400
 4184              	.LASF268:
 4185 02c0 47505443 		.ascii	"GPTConfig\000"
 4185      6F6E6669 
 4185      6700
 4186              	.LASF16:
 4187 02ca 75696E74 		.ascii	"uint8_t\000"
 4187      385F7400 
 4188              	.LASF175:
 4189 02d2 494D5343 		.ascii	"IMSC\000"
 4189      00
 4190              	.LASF287:
 4191 02d7 77726974 		.ascii	"writet\000"
ARM GAS  /tmp/ccHbY6vn.s 			page 77


 4191      657400
 4192              	.LASF29:
 4193 02de 6576656E 		.ascii	"eventmask_t\000"
 4193      746D6173 
 4193      6B5F7400 
 4194              	.LASF58:
 4195 02ea 636F6E74 		.ascii	"context\000"
 4195      65787400 
 4196              	.LASF249:
 4197 02f2 72786675 		.ascii	"rxfull_event\000"
 4197      6C6C5F65 
 4197      76656E74 
 4197      00
 4198              	.LASF167:
 4199 02ff 52455345 		.ascii	"RESERVED0\000"
 4199      52564544 
 4199      3000
 4200              	.LASF169:
 4201 0309 52455345 		.ascii	"RESERVED1\000"
 4201      52564544 
 4201      3100
 4202              	.LASF6:
 4203 0313 756E7369 		.ascii	"unsigned char\000"
 4203      676E6564 
 4203      20636861 
 4203      7200
 4204              	.LASF295:
 4205 0321 53504944 		.ascii	"SPIDriver\000"
 4205      72697665 
 4205      7200
 4206              	.LASF125:
 4207 032b 715F6C69 		.ascii	"q_link\000"
 4207      6E6B00
 4208              	.LASF300:
 4209 0332 73706963 		.ascii	"spicallback_t\000"
 4209      616C6C62 
 4209      61636B5F 
 4209      7400
 4210              	.LASF63:
 4211 0340 76745F70 		.ascii	"vt_prev\000"
 4211      72657600 
 4212              	.LASF219:
 4213 0348 61646365 		.ascii	"adcerror_t\000"
 4213      72726F72 
 4213      5F7400
 4214              	.LASF72:
 4215 0353 725F6E65 		.ascii	"r_newer\000"
 4215      77657200 
 4216              	.LASF273:
 4217 035b 53445F55 		.ascii	"SD_UNINIT\000"
 4217      4E494E49 
 4217      5400
 4218              	.LASF211:
 4219 0365 4144435F 		.ascii	"ADC_READY\000"
 4219      52454144 
 4219      5900
 4220              	.LASF22:
ARM GAS  /tmp/ccHbY6vn.s 			page 78


 4221 036f 5F426F6F 		.ascii	"_Bool\000"
 4221      6C00
 4222              	.LASF172:
 4223 0375 52455345 		.ascii	"RESERVED2\000"
 4223      52564544 
 4223      3200
 4224              	.LASF216:
 4225 037f 61646373 		.ascii	"adcsample_t\000"
 4225      616D706C 
 4225      655F7400 
 4226              	.LASF176:
 4227 038b 444D4143 		.ascii	"DMACR\000"
 4227      5200
 4228              	.LASF96:
 4229 0391 63686172 		.ascii	"char\000"
 4229      00
 4230              	.LASF297:
 4231 0396 72787074 		.ascii	"rxptr\000"
 4231      7200
 4232              	.LASF256:
 4233 039c 4750545F 		.ascii	"GPT_UNINIT\000"
 4233      554E494E 
 4233      495400
 4234              	.LASF36:
 4235 03a7 705F7072 		.ascii	"p_prio\000"
 4235      696F00
 4236              	.LASF8:
 4237 03ae 5F5F7569 		.ascii	"__uint16_t\000"
 4237      6E743136 
 4237      5F7400
 4238              	.LASF117:
 4239 03b9 47656E65 		.ascii	"GenericQueue\000"
 4239      72696351 
 4239      75657565 
 4239      00
 4240              	.LASF94:
 4241 03c6 77746F62 		.ascii	"wtobjp\000"
 4241      6A7000
 4242              	.LASF214:
 4243 03cd 4144435F 		.ascii	"ADC_ERROR\000"
 4243      4552524F 
 4243      5200
 4244              	.LASF106:
 4245 03d7 63665F6F 		.ascii	"cf_off_newer\000"
 4245      66665F6E 
 4245      65776572 
 4245      00
 4246              	.LASF286:
 4247 03e4 67657474 		.ascii	"gett\000"
 4247      00
 4248              	.LASF56:
 4249 03e9 73746B61 		.ascii	"stkalign_t\000"
 4249      6C69676E 
 4249      5F7400
 4250              	.LASF155:
 4251 03f4 46494F53 		.ascii	"FIOSET0\000"
 4251      45543000 
ARM GAS  /tmp/ccHbY6vn.s 			page 79


 4252              	.LASF156:
 4253 03fc 46494F53 		.ascii	"FIOSET1\000"
 4253      45543100 
 4254              	.LASF157:
 4255 0404 46494F53 		.ascii	"FIOSET2\000"
 4255      45543200 
 4256              	.LASF128:
 4257 040c 4F757470 		.ascii	"OutputQueue\000"
 4257      75745175 
 4257      65756500 
 4258              	.LASF231:
 4259 0418 63697263 		.ascii	"circular\000"
 4259      756C6172 
 4259      00
 4260              	.LASF154:
 4261 0421 46494F53 		.ascii	"FIOSETH\000"
 4261      45544800 
 4262              	.LASF153:
 4263 0429 46494F53 		.ascii	"FIOSETL\000"
 4263      45544C00 
 4264              	.LASF104:
 4265 0431 63665F6F 		.ascii	"cf_off_prio\000"
 4265      66665F70 
 4265      72696F00 
 4266              	.LASF194:
 4267 043d 4C50435F 		.ascii	"LPC_CAN_TypeDef\000"
 4267      43414E5F 
 4267      54797065 
 4267      44656600 
 4268              	.LASF205:
 4269 044d 696F706F 		.ascii	"ioportmask_t\000"
 4269      72746D61 
 4269      736B5F74 
 4269      00
 4270              	.LASF243:
 4271 045a 43414E5F 		.ascii	"CAN_READY\000"
 4271      52454144 
 4271      5900
 4272              	.LASF223:
 4273 0464 73616D70 		.ascii	"samples\000"
 4273      6C657300 
 4274              	.LASF32:
 4275 046c 636E745F 		.ascii	"cnt_t\000"
 4275      7400
 4276              	.LASF184:
 4277 0472 54444131 		.ascii	"TDA1\000"
 4277      00
 4278              	.LASF188:
 4279 0477 54444132 		.ascii	"TDA2\000"
 4279      00
 4280              	.LASF192:
 4281 047c 54444133 		.ascii	"TDA3\000"
 4281      00
 4282              	.LASF65:
 4283 0481 76745F66 		.ascii	"vt_func\000"
 4283      756E6300 
 4284              	.LASF57:
ARM GAS  /tmp/ccHbY6vn.s 			page 80


 4285 0489 696E7463 		.ascii	"intctx\000"
 4285      747800
 4286              	.LASF49:
 4287 0490 705F6570 		.ascii	"p_epending\000"
 4287      656E6469 
 4287      6E6700
 4288              	.LASF185:
 4289 049b 54444231 		.ascii	"TDB1\000"
 4289      00
 4290              	.LASF189:
 4291 04a0 54444232 		.ascii	"TDB2\000"
 4291      00
 4292              	.LASF193:
 4293 04a5 54444233 		.ascii	"TDB3\000"
 4293      00
 4294              	.LASF248:
 4295 04aa 72787365 		.ascii	"rxsem\000"
 4295      6D00
 4296              	.LASF245:
 4297 04b0 63616E73 		.ascii	"canstate_t\000"
 4297      74617465 
 4297      5F7400
 4298              	.LASF298:
 4299 04bb 7478636E 		.ascii	"txcnt\000"
 4299      7400
 4300              	.LASF91:
 4301 04c1 65735F6E 		.ascii	"es_next\000"
 4301      65787400 
 4302              	.LASF119:
 4303 04c9 715F636F 		.ascii	"q_counter\000"
 4303      756E7465 
 4303      7200
 4304              	.LASF316:
 4305 04d3 2E2E2F6F 		.ascii	"../os/hal/platforms/LPC17xx/pal_lld.c\000"
 4305      732F6861 
 4305      6C2F706C 
 4305      6174666F 
 4305      726D732F 
 4306              	.LASF148:
 4307 04f9 46494F50 		.ascii	"FIOPIN0\000"
 4307      494E3000 
 4308              	.LASF149:
 4309 0501 46494F50 		.ascii	"FIOPIN1\000"
 4309      494E3100 
 4310              	.LASF150:
 4311 0509 46494F50 		.ascii	"FIOPIN2\000"
 4311      494E3200 
 4312              	.LASF151:
 4313 0511 46494F50 		.ascii	"FIOPIN3\000"
 4313      494E3300 
 4314              	.LASF90:
 4315 0519 4576656E 		.ascii	"EventSource\000"
 4315      74536F75 
 4315      72636500 
 4316              	.LASF14:
 4317 0525 5F5F7569 		.ascii	"__uint64_t\000"
 4317      6E743634 
ARM GAS  /tmp/ccHbY6vn.s 			page 81


 4317      5F7400
 4318              	.LASF13:
 4319 0530 6C6F6E67 		.ascii	"long unsigned int\000"
 4319      20756E73 
 4319      69676E65 
 4319      6420696E 
 4319      7400
 4320              	.LASF98:
 4321 0542 63685F7A 		.ascii	"ch_zero\000"
 4321      65726F00 
 4322              	.LASF147:
 4323 054a 46494F50 		.ascii	"FIOPINH\000"
 4323      494E4800 
 4324              	.LASF146:
 4325 0552 46494F50 		.ascii	"FIOPINL\000"
 4325      494E4C00 
 4326              	.LASF131:
 4327 055a 53797374 		.ascii	"SystemCoreClock\000"
 4327      656D436F 
 4327      7265436C 
 4327      6F636B00 
 4328              	.LASF265:
 4329 056a 67707466 		.ascii	"gptfreq_t\000"
 4329      7265715F 
 4329      7400
 4330              	.LASF198:
 4331 0574 43436F6E 		.ascii	"CControl\000"
 4331      74726F6C 
 4331      00
 4332              	.LASF86:
 4333 057d 656C5F6E 		.ascii	"el_next\000"
 4333      65787400 
 4334              	.LASF232:
 4335 0585 6E756D5F 		.ascii	"num_channels\000"
 4335      6368616E 
 4335      6E656C73 
 4335      00
 4336              	.LASF122:
 4337 0592 715F7772 		.ascii	"q_wrptr\000"
 4337      70747200 
 4338              	.LASF201:
 4339 059a 5F6C7063 		.ascii	"_lpc17xx_dma_channel_config_t\000"
 4339      31377878 
 4339      5F646D61 
 4339      5F636861 
 4339      6E6E656C 
 4340              	.LASF282:
 4341 05b8 53657269 		.ascii	"SerialDriverVMT\000"
 4341      616C4472 
 4341      69766572 
 4341      564D5400 
 4342              	.LASF145:
 4343 05c8 46494F4D 		.ascii	"FIOMASK\000"
 4343      41534B00 
 4344              	.LASF183:
 4345 05d0 54494431 		.ascii	"TID1\000"
 4345      00
ARM GAS  /tmp/ccHbY6vn.s 			page 82


 4346              	.LASF187:
 4347 05d5 54494432 		.ascii	"TID2\000"
 4347      00
 4348              	.LASF191:
 4349 05da 54494433 		.ascii	"TID3\000"
 4349      00
 4350              	.LASF296:
 4351 05df 7278636E 		.ascii	"rxcnt\000"
 4351      7400
 4352              	.LASF236:
 4353 05e5 41444343 		.ascii	"ADCConversionGroup\000"
 4353      6F6E7665 
 4353      7273696F 
 4353      6E47726F 
 4353      757000
 4354              	.LASF213:
 4355 05f8 4144435F 		.ascii	"ADC_COMPLETE\000"
 4355      434F4D50 
 4355      4C455445 
 4355      00
 4356              	.LASF218:
 4357 0605 4144435F 		.ascii	"ADC_ERR_OVERRUN\000"
 4357      4552525F 
 4357      4F564552 
 4357      52554E00 
 4358              	.LASF303:
 4359 0615 63707372 		.ascii	"cpsr\000"
 4359      00
 4360              	.LASF134:
 4361 061a 46494F44 		.ascii	"FIODIR0\000"
 4361      49523000 
 4362              	.LASF135:
 4363 0622 46494F44 		.ascii	"FIODIR1\000"
 4363      49523100 
 4364              	.LASF136:
 4365 062a 46494F44 		.ascii	"FIODIR2\000"
 4365      49523200 
 4366              	.LASF137:
 4367 0632 46494F44 		.ascii	"FIODIR3\000"
 4367      49523300 
 4368              	.LASF113:
 4369 063a 63665F6F 		.ascii	"cf_off_preempt\000"
 4369      66665F70 
 4369      7265656D 
 4369      707400
 4370              	.LASF133:
 4371 0649 46494F44 		.ascii	"FIODIRH\000"
 4371      49524800 
 4372              	.LASF132:
 4373 0651 46494F44 		.ascii	"FIODIRL\000"
 4373      49524C00 
 4374              	.LASF12:
 4375 0659 5F5F7569 		.ascii	"__uint32_t\000"
 4375      6E743332 
 4375      5F7400
 4376              	.LASF81:
 4377 0664 4D757465 		.ascii	"Mutex\000"
ARM GAS  /tmp/ccHbY6vn.s 			page 83


 4377      7800
 4378              	.LASF291:
 4379 066a 5350495F 		.ascii	"SPI_READY\000"
 4379      52454144 
 4379      5900
 4380              	.LASF1:
 4381 0674 6C6F6E67 		.ascii	"long long int\000"
 4381      206C6F6E 
 4381      6720696E 
 4381      7400
 4382              	.LASF242:
 4383 0682 43414E5F 		.ascii	"CAN_STARTING\000"
 4383      53544152 
 4383      54494E47 
 4383      00
 4384              	.LASF100:
 4385 068f 63685F76 		.ascii	"ch_version\000"
 4385      65727369 
 4385      6F6E00
 4386              	.LASF82:
 4387 069a 6D5F7175 		.ascii	"m_queue\000"
 4387      65756500 
 4388              	.LASF262:
 4389 06a2 47505444 		.ascii	"GPTDriver\000"
 4389      72697665 
 4389      7200
 4390              	.LASF180:
 4391 06ac 41445452 		.ascii	"ADTRM\000"
 4391      4D00
 4392              	.LASF78:
 4393 06b2 53656D61 		.ascii	"Semaphore\000"
 4393      70686F72 
 4393      6500
 4394              	.LASF62:
 4395 06bc 76745F6E 		.ascii	"vt_next\000"
 4395      65787400 
 4396              	.LASF159:
 4397 06c4 46494F53 		.ascii	"FIOSET\000"
 4397      455400
 4398              	.LASF263:
 4399 06cb 636C6F63 		.ascii	"clock\000"
 4399      6B00
 4400              	.LASF230:
 4401 06d1 61646365 		.ascii	"adcerrorcallback_t\000"
 4401      72726F72 
 4401      63616C6C 
 4401      6261636B 
 4401      5F7400
 4402              	.LASF224:
 4403 06e4 64657074 		.ascii	"depth\000"
 4403      6800
 4404              	.LASF308:
 4405 06ea 6D61736B 		.ascii	"mask\000"
 4405      00
 4406              	.LASF227:
 4407 06ef 6D757465 		.ascii	"mutex\000"
 4407      7800
ARM GAS  /tmp/ccHbY6vn.s 			page 84


 4408              	.LASF130:
 4409 06f5 49544D5F 		.ascii	"ITM_RxBuffer\000"
 4409      52784275 
 4409      66666572 
 4409      00
 4410              	.LASF266:
 4411 0702 66726571 		.ascii	"frequency\000"
 4411      75656E63 
 4411      7900
 4412              	.LASF240:
 4413 070c 43414E5F 		.ascii	"CAN_UNINIT\000"
 4413      554E494E 
 4413      495400
 4414              	.LASF126:
 4415 0717 716E6F74 		.ascii	"qnotify_t\000"
 4415      6966795F 
 4415      7400
 4416              	.LASF260:
 4417 0721 4750545F 		.ascii	"GPT_ONESHOT\000"
 4417      4F4E4553 
 4417      484F5400 
 4418              	.LASF46:
 4419 072d 705F7761 		.ascii	"p_waiting\000"
 4419      6974696E 
 4419      6700
 4420              	.LASF278:
 4421 0737 6576656E 		.ascii	"event\000"
 4421      7400
 4422              	.LASF42:
 4423 073d 705F666C 		.ascii	"p_flags\000"
 4423      61677300 
 4424              	.LASF284:
 4425 0745 72656164 		.ascii	"read\000"
 4425      00
 4426              	.LASF276:
 4427 074a 73647374 		.ascii	"sdstate_t\000"
 4427      6174655F 
 4427      7400
 4428              	.LASF0:
 4429 0754 756E7369 		.ascii	"unsigned int\000"
 4429      676E6564 
 4429      20696E74 
 4429      00
 4430              	.LASF314:
 4431 0761 5F70616C 		.ascii	"_pal_lld_init\000"
 4431      5F6C6C64 
 4431      5F696E69 
 4431      7400
 4432              	.LASF109:
 4433 076f 63665F6F 		.ascii	"cf_off_stklimit\000"
 4433      66665F73 
 4433      746B6C69 
 4433      6D697400 
 4434              	.LASF304:
 4435 077f 53504943 		.ascii	"SPIConfig\000"
 4435      6F6E6669 
 4435      6700
ARM GAS  /tmp/ccHbY6vn.s 			page 85


 4436              	.LASF292:
 4437 0789 5350495F 		.ascii	"SPI_ACTIVE\000"
 4437      41435449 
 4437      564500
 4438              	.LASF141:
 4439 0794 46494F4D 		.ascii	"FIOMASK0\000"
 4439      41534B30 
 4439      00
 4440              	.LASF142:
 4441 079d 46494F4D 		.ascii	"FIOMASK1\000"
 4441      41534B31 
 4441      00
 4442              	.LASF143:
 4443 07a6 46494F4D 		.ascii	"FIOMASK2\000"
 4443      41534B32 
 4443      00
 4444              	.LASF144:
 4445 07af 46494F4D 		.ascii	"FIOMASK3\000"
 4445      41534B33 
 4445      00
 4446              	.LASF217:
 4447 07b8 6164635F 		.ascii	"adc_channels_num_t\000"
 4447      6368616E 
 4447      6E656C73 
 4447      5F6E756D 
 4447      5F7400
 4448              	.LASF52:
 4449 07cb 705F6D70 		.ascii	"p_mpool\000"
 4449      6F6F6C00 
 4450              	.LASF162:
 4451 07d3 46494F43 		.ascii	"FIOCLR0\000"
 4451      4C523000 
 4452              	.LASF163:
 4453 07db 46494F43 		.ascii	"FIOCLR1\000"
 4453      4C523100 
 4454              	.LASF164:
 4455 07e3 46494F43 		.ascii	"FIOCLR2\000"
 4455      4C523200 
 4456              	.LASF165:
 4457 07eb 46494F43 		.ascii	"FIOCLR3\000"
 4457      4C523300 
 4458              	.LASF43:
 4459 07f3 705F7265 		.ascii	"p_refs\000"
 4459      667300
 4460              	.LASF140:
 4461 07fa 46494F4D 		.ascii	"FIOMASKH\000"
 4461      41534B48 
 4461      00
 4462              	.LASF139:
 4463 0803 46494F4D 		.ascii	"FIOMASKL\000"
 4463      41534B4C 
 4463      00
 4464              	.LASF102:
 4465 080c 63685F74 		.ascii	"ch_timesize\000"
 4465      696D6573 
 4465      697A6500 
 4466              	.LASF161:
ARM GAS  /tmp/ccHbY6vn.s 			page 86


 4467 0818 46494F43 		.ascii	"FIOCLRH\000"
 4467      4C524800 
 4468              	.LASF160:
 4469 0820 46494F43 		.ascii	"FIOCLRL\000"
 4469      4C524C00 
 4470              	.LASF313:
 4471 0828 62697473 		.ascii	"bits\000"
 4471      00
 4472              	.LASF315:
 4473 082d 474E5520 		.ascii	"GNU C11 6.3.1 20170620 -mcpu=cortex-m3 -mno-thumb-i"
 4473      43313120 
 4473      362E332E 
 4473      31203230 
 4473      31373036 
 4474 0860 6E746572 		.ascii	"nterwork -mthumb -ggdb -O2 -fomit-frame-pointer -ff"
 4474      776F726B 
 4474      202D6D74 
 4474      68756D62 
 4474      202D6767 
 4475 0893 756E6374 		.ascii	"unction-sections -fdata-sections -fno-common\000"
 4475      696F6E2D 
 4475      73656374 
 4475      696F6E73 
 4475      202D6664 
 4476              	.LASF54:
 4477 08c0 54687265 		.ascii	"ThreadsList\000"
 4477      6164734C 
 4477      69737400 
 4478              	.LASF239:
 4479 08cc 41444344 		.ascii	"ADCD1\000"
 4479      3100
 4480              	.LASF312:
 4481 08d2 6F666673 		.ascii	"offset\000"
 4481      657400
 4482              	.LASF30:
 4483 08d9 666C6167 		.ascii	"flagsmask_t\000"
 4483      736D6173 
 4483      6B5F7400 
 4484              	.LASF235:
 4485 08e5 696E7465 		.ascii	"inten\000"
 4485      6E00
 4486              	.LASF251:
 4487 08eb 6572726F 		.ascii	"error_event\000"
 4487      725F6576 
 4487      656E7400 
 4488              	.LASF45:
 4489 08f7 705F7469 		.ascii	"p_time\000"
 4489      6D6500
 4490              	.LASF138:
 4491 08fe 46494F44 		.ascii	"FIODIR\000"
 4491      495200
 4492              	.LASF112:
 4493 0905 63665F6F 		.ascii	"cf_off_refs\000"
 4493      66665F72 
 4493      65667300 
 4494              	.LASF171:
 4495 0911 4C50435F 		.ascii	"LPC_TIM_TypeDef\000"
ARM GAS  /tmp/ccHbY6vn.s 			page 87


 4495      54494D5F 
 4495      54797065 
 4495      44656600 
 4496              	.LASF311:
 4497 0921 5F70616C 		.ascii	"_pal_lld_writegroup\000"
 4497      5F6C6C64 
 4497      5F777269 
 4497      74656772 
 4497      6F757000 
 4498              	.LASF166:
 4499 0935 46494F43 		.ascii	"FIOCLR\000"
 4499      4C5200
 4500              	.LASF2:
 4501 093c 6C6F6E67 		.ascii	"long double\000"
 4501      20646F75 
 4501      626C6500 
 4502              	.LASF51:
 4503 0948 705F7265 		.ascii	"p_realprio\000"
 4503      616C7072 
 4503      696F00
 4504              	.LASF114:
 4505 0953 63665F6F 		.ascii	"cf_off_time\000"
 4505      66665F74 
 4505      696D6500 
 4506              	.LASF212:
 4507 095f 4144435F 		.ascii	"ADC_ACTIVE\000"
 4507      41435449 
 4507      564500
 4508              	.LASF317:
 4509 096a 2F686F6D 		.ascii	"/home/ekobayu/Arok-Gandring-Lokajaya/LPC/ChibiOS-RT"
 4509      652F656B 
 4509      6F626179 
 4509      752F4172 
 4509      6F6B2D47 
 4510 099d 2D4C5043 		.ascii	"-LPC/Chibi_LPC1766\000"
 4510      2F436869 
 4510      62695F4C 
 4510      50433137 
 4510      363600
 4511              	.LASF80:
 4512 09b0 735F636E 		.ascii	"s_cnt\000"
 4512      7400
 4513              	.LASF15:
 4514 09b6 6C6F6E67 		.ascii	"long long unsigned int\000"
 4514      206C6F6E 
 4514      6720756E 
 4514      7369676E 
 4514      65642069 
 4515              	.LASF39:
 4516 09cd 705F6F6C 		.ascii	"p_older\000"
 4516      64657200 
 4517              	.LASF17:
 4518 09d5 75696E74 		.ascii	"uint16_t\000"
 4518      31365F74 
 4518      00
 4519              	.LASF28:
 4520 09de 6D73675F 		.ascii	"msg_t\000"
ARM GAS  /tmp/ccHbY6vn.s 			page 88


 4520      7400
 4521              	.LASF152:
 4522 09e4 46494F50 		.ascii	"FIOPIN\000"
 4522      494E00
 4523              	.LASF111:
 4524 09eb 63665F6F 		.ascii	"cf_off_flags\000"
 4524      66665F66 
 4524      6C616773 
 4524      00
 4525              	.LASF26:
 4526 09f8 74736C69 		.ascii	"tslices_t\000"
 4526      6365735F 
 4526      7400
 4527              	.LASF258:
 4528 0a02 4750545F 		.ascii	"GPT_READY\000"
 4528      52454144 
 4528      5900
 4529              	.LASF259:
 4530 0a0c 4750545F 		.ascii	"GPT_CONTINUOUS\000"
 4530      434F4E54 
 4530      494E554F 
 4530      555300
 4531              	.LASF74:
 4532 0a1b 725F6375 		.ascii	"r_current\000"
 4532      7272656E 
 4532      7400
 4533              	.LASF68:
 4534 0a25 56544C69 		.ascii	"VTList\000"
 4534      737400
 4535              	.LASF220:
 4536 0a2c 41444344 		.ascii	"ADCDriver\000"
 4536      72697665 
 4536      7200
 4537              	.LASF173:
 4538 0a36 4C50435F 		.ascii	"LPC_UART_TypeDef\000"
 4538      55415254 
 4538      5F547970 
 4538      65446566 
 4538      00
 4539              	.LASF197:
 4540 0a47 434C4C49 		.ascii	"CLLI\000"
 4540      00
 4541              	.LASF69:
 4542 0a4c 725F7175 		.ascii	"r_queue\000"
 4542      65756500 
 4543              	.LASF255:
 4544 0a54 43414E44 		.ascii	"CAND1\000"
 4544      3100
 4545              	.LASF277:
 4546 0a5a 53657269 		.ascii	"SerialDriver\000"
 4546      616C4472 
 4546      69766572 
 4546      00
 4547              	.LASF118:
 4548 0a67 715F7761 		.ascii	"q_waiting\000"
 4548      6974696E 
 4548      6700
ARM GAS  /tmp/ccHbY6vn.s 			page 89


 4549              	.LASF77:
 4550 0a71 726C6973 		.ascii	"rlist\000"
 4550      7400
 4551              	.LASF23:
 4552 0a77 746D6F64 		.ascii	"tmode_t\000"
 4552      655F7400 
 4553              	.LASF237:
 4554 0a7f 64756D6D 		.ascii	"dummy\000"
 4554      7900
 4555              	.LASF210:
 4556 0a85 4144435F 		.ascii	"ADC_STOP\000"
 4556      53544F50 
 4556      00
 4557              	.LASF174:
 4558 0a8e 43505352 		.ascii	"CPSR\000"
 4558      00
 4559              	.LASF67:
 4560 0a93 76745F73 		.ascii	"vt_systime\000"
 4560      79737469 
 4560      6D6500
 4561              	.LASF275:
 4562 0a9e 53445F52 		.ascii	"SD_READY\000"
 4562      45414459 
 4562      00
 4563              	.LASF250:
 4564 0aa7 7478656D 		.ascii	"txempty_event\000"
 4564      7074795F 
 4564      6576656E 
 4564      7400
 4565              	.LASF225:
 4566 0ab5 67727070 		.ascii	"grpp\000"
 4566      00
 4567              	.LASF73:
 4568 0aba 725F6F6C 		.ascii	"r_older\000"
 4568      64657200 
 4569              	.LASF226:
 4570 0ac2 74687265 		.ascii	"thread\000"
 4570      616400
 4571              	.LASF79:
 4572 0ac9 735F7175 		.ascii	"s_queue\000"
 4572      65756500 
 4573              	.LASF307:
 4574 0ad1 706F7274 		.ascii	"port\000"
 4574      00
 4575              	.LASF7:
 4576 0ad6 73686F72 		.ascii	"short int\000"
 4576      7420696E 
 4576      7400
 4577              	.LASF20:
 4578 0ae0 75696E74 		.ascii	"uint64_t\000"
 4578      36345F74 
 4578      00
 4579              	.LASF309:
 4580 0ae9 6D6F6465 		.ascii	"mode\000"
 4580      00
 4581              	.LASF281:
 4582 0aee 75617274 		.ascii	"uart\000"
ARM GAS  /tmp/ccHbY6vn.s 			page 90


 4582      00
 4583              	.LASF279:
 4584 0af3 69717565 		.ascii	"iqueue\000"
 4584      756500
 4585              	.LASF70:
 4586 0afa 725F7072 		.ascii	"r_prio\000"
 4586      696F00
 4587              	.LASF203:
 4588 0b01 6C706331 		.ascii	"lpc17xx_gpio_setup_t\000"
 4588      3778785F 
 4588      6770696F 
 4588      5F736574 
 4588      75705F74 
 4589              	.LASF21:
 4590 0b16 626F6F6C 		.ascii	"bool_t\000"
 4590      5F7400
 4591              	.LASF107:
 4592 0b1d 63665F6F 		.ascii	"cf_off_older\000"
 4592      66665F6F 
 4592      6C646572 
 4592      00
 4593              	.LASF204:
 4594 0b2a 50414C43 		.ascii	"PALConfig\000"
 4594      6F6E6669 
 4594      6700
 4595              	.LASF33:
 4596 0b34 54687265 		.ascii	"Thread\000"
 4596      616400
 4597              	.LASF76:
 4598 0b3b 76746C69 		.ascii	"vtlist\000"
 4598      737400
 4599              	.LASF199:
 4600 0b42 43436F6E 		.ascii	"CConfig\000"
 4600      66696700 
 4601              	.LASF25:
 4602 0b4a 74726566 		.ascii	"trefs_t\000"
 4602      735F7400 
 4603              	.LASF129:
 4604 0b52 5F69646C 		.ascii	"_idle_thread_wa\000"
 4604      655F7468 
 4604      72656164 
 4604      5F776100 
 4605              	.LASF182:
 4606 0b62 54464931 		.ascii	"TFI1\000"
 4606      00
 4607              	.LASF178:
 4608 0b67 494E5445 		.ascii	"INTEN\000"
 4608      4E00
 4609              	.LASF85:
 4610 0b6d 4576656E 		.ascii	"EventListener\000"
 4610      744C6973 
 4610      74656E65 
 4610      7200
 4611              	.LASF19:
 4612 0b7b 75696E74 		.ascii	"uint32_t\000"
 4612      33325F74 
 4612      00
ARM GAS  /tmp/ccHbY6vn.s 			page 91


 4613              	.LASF61:
 4614 0b84 56697274 		.ascii	"VirtualTimer\000"
 4614      75616C54 
 4614      696D6572 
 4614      00
 4615              	.LASF53:
 4616 0b91 54687265 		.ascii	"ThreadsQueue\000"
 4616      61647351 
 4616      75657565 
 4616      00
 4617              	.LASF293:
 4618 0b9e 5350495F 		.ascii	"SPI_COMPLETE\000"
 4618      434F4D50 
 4618      4C455445 
 4618      00
 4619              	.LASF168:
 4620 0bab 4C50435F 		.ascii	"LPC_GPIO_TypeDef\000"
 4620      4750494F 
 4620      5F547970 
 4620      65446566 
 4620      00
 4621              	.LASF92:
 4622 0bbc 7264796D 		.ascii	"rdymsg\000"
 4622      736700
 4623              	.LASF257:
 4624 0bc3 4750545F 		.ascii	"GPT_STOP\000"
 4624      53544F50 
 4624      00
 4625              	.LASF9:
 4626 0bcc 73686F72 		.ascii	"short unsigned int\000"
 4626      7420756E 
 4626      7369676E 
 4626      65642069 
 4626      6E7400
 4627              	.LASF209:
 4628 0bdf 4144435F 		.ascii	"ADC_UNINIT\000"
 4628      554E494E 
 4628      495400
 4629              	.LASF115:
 4630 0bea 63686465 		.ascii	"chdebug_t\000"
 4630      6275675F 
 4630      7400
 4631              	.LASF294:
 4632 0bf4 73706973 		.ascii	"spistate_t\000"
 4632      74617465 
 4632      5F7400
 4633              	.LASF127:
 4634 0bff 496E7075 		.ascii	"InputQueue\000"
 4634      74517565 
 4634      756500
 4635              	.LASF99:
 4636 0c0a 63685F73 		.ascii	"ch_size\000"
 4636      697A6500 
 4637              	.LASF318:
 4638 0c12 5F70616C 		.ascii	"_pal_lld_readgroup\000"
 4638      5F6C6C64 
 4638      5F726561 
ARM GAS  /tmp/ccHbY6vn.s 			page 92


 4638      6467726F 
 4638      757000
 4639              	.LASF10:
 4640 0c25 5F5F696E 		.ascii	"__int32_t\000"
 4640      7433325F 
 4640      7400
 4641              	.LASF274:
 4642 0c2f 53445F53 		.ascii	"SD_STOP\000"
 4642      544F5000 
 4643              	.LASF88:
 4644 0c37 656C5F6D 		.ascii	"el_mask\000"
 4644      61736B00 
 4645              	.LASF75:
 4646 0c3f 52656164 		.ascii	"ReadyList\000"
 4646      794C6973 
 4646      7400
 4647              	.LASF302:
 4648 0c49 73737061 		.ascii	"sspad\000"
 4648      6400
 4649              	.LASF158:
 4650 0c4f 46494F53 		.ascii	"FIOSET3\000"
 4650      45543300 
 4651              	.LASF299:
 4652 0c57 74787074 		.ascii	"txptr\000"
 4652      7200
 4653              	.LASF241:
 4654 0c5d 43414E5F 		.ascii	"CAN_STOP\000"
 4654      53544F50 
 4654      00
 4655              	.LASF40:
 4656 0c66 705F6E61 		.ascii	"p_name\000"
 4656      6D6500
 4657              	.LASF64:
 4658 0c6d 76745F74 		.ascii	"vt_time\000"
 4658      696D6500 
 4659              	.LASF202:
 4660 0c75 64617461 		.ascii	"data\000"
 4660      00
 4661              	.LASF84:
 4662 0c7a 6D5F6E65 		.ascii	"m_next\000"
 4662      787400
 4663              	.LASF264:
 4664 0c81 67707463 		.ascii	"gptcallback_t\000"
 4664      616C6C62 
 4664      61636B5F 
 4664      7400
 4665              	.LASF48:
 4666 0c8f 705F6D73 		.ascii	"p_msg\000"
 4666      6700
 4667              	.LASF87:
 4668 0c95 656C5F6C 		.ascii	"el_listener\000"
 4668      69737465 
 4668      6E657200 
 4669              	.LASF238:
 4670 0ca1 41444343 		.ascii	"ADCConfig\000"
 4670      6F6E6669 
 4670      6700
ARM GAS  /tmp/ccHbY6vn.s 			page 93


 4671              	.LASF41:
 4672 0cab 705F7374 		.ascii	"p_state\000"
 4672      61746500 
 4673              		.ident	"GCC: (15:6.3.1+svn253039-1build1) 6.3.1 20170620"
ARM GAS  /tmp/ccHbY6vn.s 			page 94


DEFINED SYMBOLS
                            *ABS*:0000000000000000 pal_lld.c
     /tmp/ccHbY6vn.s:16     .text._pal_lld_init:0000000000000000 $t
     /tmp/ccHbY6vn.s:24     .text._pal_lld_init:0000000000000000 _pal_lld_init
     /tmp/ccHbY6vn.s:106    .text._pal_lld_init:0000000000000044 $d
     /tmp/ccHbY6vn.s:115    .text._pal_lld_readgroup:0000000000000000 $t
     /tmp/ccHbY6vn.s:123    .text._pal_lld_readgroup:0000000000000000 _pal_lld_readgroup
     /tmp/ccHbY6vn.s:153    .text._pal_lld_writegroup:0000000000000000 $t
     /tmp/ccHbY6vn.s:161    .text._pal_lld_writegroup:0000000000000000 _pal_lld_writegroup
     /tmp/ccHbY6vn.s:187    .text._pal_lld_setgroupmode:0000000000000000 $t
     /tmp/ccHbY6vn.s:195    .text._pal_lld_setgroupmode:0000000000000000 _pal_lld_setgroupmode
     /tmp/ccHbY6vn.s:208    .text._pal_lld_setgroupmode:0000000000000008 $d
                     .debug_frame:0000000000000010 $d
     /tmp/ccHbY6vn.s:215    .text._pal_lld_setgroupmode:000000000000000f $d
     /tmp/ccHbY6vn.s:215    .text._pal_lld_setgroupmode:0000000000000010 $t

NO UNDEFINED SYMBOLS
