ARM GAS  /tmp/ccHbY6vn.s 			page 1


   1              		.cpu cortex-m3
   2              		.eabi_attribute 20, 1
   3              		.eabi_attribute 21, 1
   4              		.eabi_attribute 23, 3
   5              		.eabi_attribute 24, 1
   6              		.eabi_attribute 25, 1
   7              		.eabi_attribute 26, 1
   8              		.eabi_attribute 30, 2
   9              		.eabi_attribute 34, 1
  10              		.eabi_attribute 18, 4
  11              		.file	"pal_lld.c"
  12              		.text
  13              	.Ltext0:
  14              		.cfi_sections	.debug_frame
  15              		.section	.text._pal_lld_init,"ax",%progbits
  16              		.align	1
  17              		.p2align 2,,3
  18              		.global	_pal_lld_init
  19              		.syntax unified
  20              		.thumb
  21              		.thumb_func
  22              		.fpu softvfp
  23              		.type	_pal_lld_init, %function
  24              	_pal_lld_init:
  25              	.LFB63:
  26              		.file 1 "../os/hal/platforms/LPC17xx/pal_lld.c"
  27              		.loc 1 57 0
  28              		.cfi_startproc
  29              		@ args = 0, pretend = 0, frame = 0
  30              		@ frame_needed = 0, uses_anonymous_args = 0
  31              		@ link register save eliminated.
  32              	.LVL0:
  33              		.loc 1 64 0
  34 0000 0023     		movs	r3, #0
  35              		.loc 1 57 0
  36 0002 F0B4     		push	{r4, r5, r6, r7}
  37              		.cfi_def_cfa_offset 16
  38              		.cfi_offset 4, -16
  39              		.cfi_offset 5, -12
  40              		.cfi_offset 6, -8
  41              		.cfi_offset 7, -4
  42              		.loc 1 59 0
  43 0004 4268     		ldr	r2, [r0, #4]
  44 0006 0F4E     		ldr	r6, .L3
  45              		.loc 1 60 0
  46 0008 0F4D     		ldr	r5, .L3+4
  47              		.loc 1 59 0
  48 000a 3260     		str	r2, [r6]
  49              		.loc 1 60 0
  50 000c C268     		ldr	r2, [r0, #12]
  51              		.loc 1 61 0
  52 000e 0F4C     		ldr	r4, .L3+8
  53              		.loc 1 60 0
  54 0010 2A60     		str	r2, [r5]
  55              		.loc 1 61 0
  56 0012 4269     		ldr	r2, [r0, #20]
  57              		.loc 1 62 0
ARM GAS  /tmp/ccHbY6vn.s 			page 2


  58 0014 0E49     		ldr	r1, .L3+12
  59              		.loc 1 61 0
  60 0016 2260     		str	r2, [r4]
  61              		.loc 1 62 0
  62 0018 C769     		ldr	r7, [r0, #28]
  63              		.loc 1 63 0
  64 001a 0E4A     		ldr	r2, .L3+16
  65              		.loc 1 62 0
  66 001c 0F60     		str	r7, [r1]
  67              		.loc 1 63 0
  68 001e 476A     		ldr	r7, [r0, #36]
  69 0020 1760     		str	r7, [r2]
  70              		.loc 1 64 0
  71 0022 3361     		str	r3, [r6, #16]
  72              		.loc 1 65 0
  73 0024 2B61     		str	r3, [r5, #16]
  74              		.loc 1 66 0
  75 0026 2361     		str	r3, [r4, #16]
  76              		.loc 1 67 0
  77 0028 0B61     		str	r3, [r1, #16]
  78              		.loc 1 68 0
  79 002a 1361     		str	r3, [r2, #16]
  80              		.loc 1 69 0
  81 002c 0368     		ldr	r3, [r0]
  82 002e 7361     		str	r3, [r6, #20]
  83              		.loc 1 70 0
  84 0030 8368     		ldr	r3, [r0, #8]
  85 0032 6B61     		str	r3, [r5, #20]
  86              		.loc 1 71 0
  87 0034 0369     		ldr	r3, [r0, #16]
  88 0036 6361     		str	r3, [r4, #20]
  89              		.loc 1 72 0
  90 0038 8369     		ldr	r3, [r0, #24]
  91 003a 4B61     		str	r3, [r1, #20]
  92              		.loc 1 73 0
  93 003c 036A     		ldr	r3, [r0, #32]
  94 003e 5361     		str	r3, [r2, #20]
  95              		.loc 1 74 0
  96 0040 F0BC     		pop	{r4, r5, r6, r7}
  97              		.cfi_restore 7
  98              		.cfi_restore 6
  99              		.cfi_restore 5
 100              		.cfi_restore 4
 101              		.cfi_def_cfa_offset 0
 102 0042 7047     		bx	lr
 103              	.L4:
 104              		.align	2
 105              	.L3:
 106 0044 00C00920 		.word	537509888
 107 0048 20C00920 		.word	537509920
 108 004c 40C00920 		.word	537509952
 109 0050 60C00920 		.word	537509984
 110 0054 80C00920 		.word	537510016
 111              		.cfi_endproc
 112              	.LFE63:
 113              		.size	_pal_lld_init, .-_pal_lld_init
 114              		.section	.text._pal_lld_readgroup,"ax",%progbits
ARM GAS  /tmp/ccHbY6vn.s 			page 3


 115              		.align	1
 116              		.p2align 2,,3
 117              		.global	_pal_lld_readgroup
 118              		.syntax unified
 119              		.thumb
 120              		.thumb_func
 121              		.fpu softvfp
 122              		.type	_pal_lld_readgroup, %function
 123              	_pal_lld_readgroup:
 124              	.LFB64:
 125              		.loc 1 91 0
 126              		.cfi_startproc
 127              		@ args = 0, pretend = 0, frame = 0
 128              		@ frame_needed = 0, uses_anonymous_args = 0
 129              		@ link register save eliminated.
 130              	.LVL1:
 131              		.loc 1 95 0
 132 0000 01FA02F2 		lsl	r2, r1, r2
 133              	.LVL2:
 134 0004 D243     		mvns	r2, r2
 135              		.loc 1 91 0
 136 0006 0346     		mov	r3, r0
 137              		.loc 1 97 0
 138 0008 0021     		movs	r1, #0
 139              	.LVL3:
 140              		.loc 1 95 0
 141 000a 0261     		str	r2, [r0, #16]
 142              		.loc 1 96 0
 143 000c 4069     		ldr	r0, [r0, #20]
 144              	.LVL4:
 145              		.loc 1 97 0
 146 000e 1961     		str	r1, [r3, #16]
 147              		.loc 1 99 0
 148 0010 7047     		bx	lr
 149              		.cfi_endproc
 150              	.LFE64:
 151              		.size	_pal_lld_readgroup, .-_pal_lld_readgroup
 152 0012 00BF     		.section	.text._pal_lld_writegroup,"ax",%progbits
 153              		.align	1
 154              		.p2align 2,,3
 155              		.global	_pal_lld_writegroup
 156              		.syntax unified
 157              		.thumb
 158              		.thumb_func
 159              		.fpu softvfp
 160              		.type	_pal_lld_writegroup, %function
 161              	_pal_lld_writegroup:
 162              	.LFB65:
 163              		.loc 1 118 0
 164              		.cfi_startproc
 165              		@ args = 0, pretend = 0, frame = 0
 166              		@ frame_needed = 0, uses_anonymous_args = 0
 167              		@ link register save eliminated.
 168              	.LVL5:
 169              		.loc 1 120 0
 170 0000 01FA02F2 		lsl	r2, r1, r2
 171              	.LVL6:
ARM GAS  /tmp/ccHbY6vn.s 			page 4


 172 0004 D243     		mvns	r2, r2
 173              		.loc 1 122 0
 174 0006 0021     		movs	r1, #0
 175              	.LVL7:
 176              		.loc 1 120 0
 177 0008 0261     		str	r2, [r0, #16]
 178              		.loc 1 121 0
 179 000a 4361     		str	r3, [r0, #20]
 180              		.loc 1 122 0
 181 000c 0161     		str	r1, [r0, #16]
 182 000e 7047     		bx	lr
 183              		.cfi_endproc
 184              	.LFE65:
 185              		.size	_pal_lld_writegroup, .-_pal_lld_writegroup
 186              		.section	.text._pal_lld_setgroupmode,"ax",%progbits
 187              		.align	1
 188              		.p2align 2,,3
 189              		.global	_pal_lld_setgroupmode
 190              		.syntax unified
 191              		.thumb
 192              		.thumb_func
 193              		.fpu softvfp
 194              		.type	_pal_lld_setgroupmode, %function
 195              	_pal_lld_setgroupmode:
 196              	.LFB66:
 197              		.loc 1 141 0
 198              		.cfi_startproc
 199              		@ args = 0, pretend = 0, frame = 0
 200              		@ frame_needed = 0, uses_anonymous_args = 0
 201              		@ link register save eliminated.
 202              	.LVL8:
 203              		.loc 1 143 0
 204 0000 062A     		cmp	r2, #6
 205 0002 0BD8     		bhi	.L7
 206 0004 DFE802F0 		tbb	[pc, r2]
 207              	.L10:
 208 0008 0B       		.byte	(.L9-.L10)/2
 209 0009 04       		.byte	(.L11-.L10)/2
 210 000a 0B       		.byte	(.L9-.L10)/2
 211 000b 0A       		.byte	(.L7-.L10)/2
 212 000c 0A       		.byte	(.L7-.L10)/2
 213 000d 0A       		.byte	(.L7-.L10)/2
 214 000e 07       		.byte	(.L12-.L10)/2
 215 000f 00       		.p2align 1
 216              	.L11:
 217              		.loc 1 149 0
 218 0010 4FF0FF33 		mov	r3, #-1
 219 0014 8361     		str	r3, [r0, #24]
 220              	.L12:
 221              		.loc 1 151 0
 222 0016 0368     		ldr	r3, [r0]
 223 0018 1943     		orrs	r1, r1, r3
 224              	.LVL9:
 225 001a 0160     		str	r1, [r0]
 226              	.L7:
 227 001c 7047     		bx	lr
 228              	.LVL10:
ARM GAS  /tmp/ccHbY6vn.s 			page 5


 229              	.L9:
 230              		.loc 1 146 0
 231 001e 0368     		ldr	r3, [r0]
 232 0020 23EA0101 		bic	r1, r3, r1
 233              	.LVL11:
 234 0024 0160     		str	r1, [r0]
 235              		.loc 1 147 0
 236 0026 7047     		bx	lr
 237              		.cfi_endproc
 238              	.LFE66:
 239              		.size	_pal_lld_setgroupmode, .-_pal_lld_setgroupmode
 240              		.text
 241              	.Letext0:
 242              		.file 2 "/usr/lib/gcc/arm-none-eabi/6.3.1/include/stddef.h"
 243              		.file 3 "/usr/include/newlib/machine/_default_types.h"
 244              		.file 4 "/usr/include/newlib/sys/_stdint.h"
 245              		.file 5 "../os/ports/GCC/ARMCMx/chtypes.h"
 246              		.file 6 "../os/kernel/include/chlists.h"
 247              		.file 7 "../os/kernel/include/chthreads.h"
 248              		.file 8 "../os/ports/GCC/ARMCMx/chcore_v7m.h"
 249              		.file 9 "../os/kernel/include/chvt.h"
 250              		.file 10 "../os/kernel/include/chschd.h"
 251              		.file 11 "../os/kernel/include/chsem.h"
 252              		.file 12 "../os/kernel/include/chmtx.h"
 253              		.file 13 "../os/kernel/include/chevents.h"
 254              		.file 14 "../os/kernel/include/chregistry.h"
 255              		.file 15 "../os/kernel/include/chqueues.h"
 256              		.file 16 "../os/kernel/include/ch.h"
 257              		.file 17 "../os/ports/common/ARMCMx/CMSIS/include/core_cm3.h"
 258              		.file 18 "../os/hal/platforms/LPC17xx/system_LPC17xx.h"
 259              		.file 19 "../os/hal/platforms/LPC17xx/LPC17xx.h"
 260              		.file 20 "../os/hal/platforms/LPC17xx/lpc17xx_dma.h"
 261              		.file 21 "../os/hal/platforms/LPC17xx/pal_lld.h"
 262              		.file 22 "../os/hal/include/adc.h"
 263              		.file 23 "../os/hal/platforms/LPC17xx/adc_lld.h"
 264              		.file 24 "../os/hal/include/can.h"
 265              		.file 25 "../os/hal/platforms/LPC17xx/can_lld.h"
 266              		.file 26 "../os/hal/include/gpt.h"
 267              		.file 27 "../os/hal/platforms/LPC17xx/gpt_lld.h"
 268              		.file 28 "../os/hal/include/serial.h"
 269              		.file 29 "../os/hal/platforms/LPC17xx/serial_lld.h"
 270              		.file 30 "../os/hal/include/spi.h"
 271              		.file 31 "../os/hal/platforms/LPC17xx/spi_lld.h"