ARM GAS  /tmp/ccGSOqQI.s 			page 1


   1              		.cpu cortex-m3
   2              		.eabi_attribute 20, 1
   3              		.eabi_attribute 21, 1
   4              		.eabi_attribute 23, 3
   5              		.eabi_attribute 24, 1
   6              		.eabi_attribute 25, 1
   7              		.eabi_attribute 26, 1
   8              		.eabi_attribute 30, 2
   9              		.eabi_attribute 34, 1
  10              		.eabi_attribute 18, 4
  11              		.file	"spi_lld.c"
  12              		.text
  13              	.Ltext0:
  14              		.cfi_sections	.debug_frame
  15              		.section	.text.ssp_fifo_preload,"ax",%progbits
  16              		.align	1
  17              		.p2align 2,,3
  18              		.syntax unified
  19              		.thumb
  20              		.thumb_func
  21              		.fpu softvfp
  22              		.type	ssp_fifo_preload, %function
  23              	ssp_fifo_preload:
  24              	.LFB63:
  25              		.file 1 "../os/hal/platforms/LPC17xx/spi_lld.c"
  26              		.loc 1 57 0
  27              		.cfi_startproc
  28              		@ args = 0, pretend = 0, frame = 0
  29              		@ frame_needed = 0, uses_anonymous_args = 0
  30              		@ link register save eliminated.
  31              	.LVL0:
  32 0000 70B4     		push	{r4, r5, r6}
  33              		.cfi_def_cfa_offset 12
  34              		.cfi_offset 4, -12
  35              		.cfi_offset 5, -8
  36              		.cfi_offset 6, -4
  37              		.loc 1 58 0
  38 0002 C569     		ldr	r5, [r0, #28]
  39              	.LVL1:
  40              		.loc 1 59 0
  41 0004 816A     		ldr	r1, [r0, #40]
  42              		.loc 1 62 0
  43 0006 EB68     		ldr	r3, [r5, #12]
  44              		.loc 1 59 0
  45 0008 0829     		cmp	r1, #8
  46 000a 0C46     		mov	r4, r1
  47 000c 28BF     		it	cs
  48 000e 0824     		movcs	r4, #8
  49              	.LVL2:
  50              		.loc 1 62 0
  51 0010 9A07     		lsls	r2, r3, #30
  52 0012 1BD5     		bpl	.L1
  53 0014 D4B1     		cbz	r4, .L1
  54              		.loc 1 76 0
  55 0016 4FF0FF36 		mov	r6, #-1
  56 001a 12E0     		b	.L7
  57              	.LVL3:
ARM GAS  /tmp/ccGSOqQI.s 			page 2


  58              	.L17:
  59              		.loc 1 64 0
  60 001c 2A68     		ldr	r2, [r5]
  61 001e 02F00F02 		and	r2, r2, #15
  62 0022 072A     		cmp	r2, #7
  63              	.LBB2:
  64              		.loc 1 66 0
  65 0024 8CBF     		ite	hi
  66 0026 33F8022B 		ldrhhi	r2, [r3], #2
  67              	.LVL4:
  68              	.LBE2:
  69              	.LBB3:
  70              		.loc 1 71 0
  71 002a 13F8012B 		ldrbls	r2, [r3], #1	@ zero_extendqisi2
  72 002e AA60     		str	r2, [r5, #8]
  73              		.loc 1 72 0
  74 0030 C362     		str	r3, [r0, #44]
  75              	.LVL5:
  76              	.L6:
  77              	.LBE3:
  78              		.loc 1 62 0
  79 0032 EB68     		ldr	r3, [r5, #12]
  80              		.loc 1 78 0
  81 0034 0139     		subs	r1, r1, #1
  82              		.loc 1 62 0
  83 0036 9B07     		lsls	r3, r3, #30
  84              		.loc 1 78 0
  85 0038 8162     		str	r1, [r0, #40]
  86              		.loc 1 77 0
  87 003a 04F1FF34 		add	r4, r4, #-1
  88              	.LVL6:
  89              		.loc 1 62 0
  90 003e 05D5     		bpl	.L1
  91              		.loc 1 62 0 is_stmt 0 discriminator 1
  92 0040 24B1     		cbz	r4, .L1
  93              	.L7:
  94              		.loc 1 63 0 is_stmt 1
  95 0042 C36A     		ldr	r3, [r0, #44]
  96              	.LVL7:
  97 0044 002B     		cmp	r3, #0
  98 0046 E9D1     		bne	.L17
  99              		.loc 1 76 0
 100 0048 AE60     		str	r6, [r5, #8]
 101 004a F2E7     		b	.L6
 102              	.LVL8:
 103              	.L1:
 104              		.loc 1 80 0
 105 004c 70BC     		pop	{r4, r5, r6}
 106              		.cfi_restore 6
 107              		.cfi_restore 5
 108              		.cfi_restore 4
 109              		.cfi_def_cfa_offset 0
 110              	.LVL9:
 111 004e 7047     		bx	lr
 112              		.cfi_endproc
 113              	.LFE63:
 114              		.size	ssp_fifo_preload, .-ssp_fifo_preload
ARM GAS  /tmp/ccGSOqQI.s 			page 3


 115              		.section	.text.spi_serve_interrupt,"ax",%progbits
 116              		.align	1
 117              		.p2align 2,,3
 118              		.syntax unified
 119              		.thumb
 120              		.thumb_func
 121              		.fpu softvfp
 122              		.type	spi_serve_interrupt, %function
 123              	spi_serve_interrupt:
 124              	.LFB64:
 125              		.loc 1 87 0
 126              		.cfi_startproc
 127              		@ args = 0, pretend = 0, frame = 0
 128              		@ frame_needed = 0, uses_anonymous_args = 0
 129              	.LVL10:
 130 0000 38B5     		push	{r3, r4, r5, lr}
 131              		.cfi_def_cfa_offset 16
 132              		.cfi_offset 3, -16
 133              		.cfi_offset 4, -12
 134              		.cfi_offset 5, -8
 135              		.cfi_offset 14, -4
 136              		.loc 1 88 0
 137 0002 C569     		ldr	r5, [r0, #28]
 138              	.LVL11:
 139              		.loc 1 87 0
 140 0004 0446     		mov	r4, r0
 141              		.loc 1 90 0
 142 0006 EB69     		ldr	r3, [r5, #28]
 143 0008 DA07     		lsls	r2, r3, #31
 144 000a 3FD4     		bmi	.L40
 145              	.LVL12:
 146              	.L19:
 147              		.loc 1 95 0
 148 000c 0323     		movs	r3, #3
 149 000e 2B62     		str	r3, [r5, #32]
 150              		.loc 1 96 0
 151 0010 0EE0     		b	.L20
 152              	.LVL13:
 153              	.L43:
 154              		.loc 1 98 0
 155 0012 2A68     		ldr	r2, [r5]
 156 0014 02F00F02 		and	r2, r2, #15
 157 0018 072A     		cmp	r2, #7
 158              	.LBB4:
 159              		.loc 1 100 0
 160 001a AA68     		ldr	r2, [r5, #8]
 161 001c 8CBF     		ite	hi
 162 001e 23F8022B 		strhhi	r2, [r3], #2	@ movhi
 163              	.LVL14:
 164              	.LBE4:
 165              	.LBB5:
 166              		.loc 1 105 0
 167 0022 03F8012B 		strbls	r2, [r3], #1
 168              	.LVL15:
 169              		.loc 1 106 0
 170 0026 6362     		str	r3, [r4, #36]
 171              	.LBE5:
ARM GAS  /tmp/ccGSOqQI.s 			page 4


 172              		.loc 1 111 0
 173 0028 236A     		ldr	r3, [r4, #32]
 174 002a 013B     		subs	r3, r3, #1
 175 002c 2362     		str	r3, [r4, #32]
 176 002e 5BB1     		cbz	r3, .L41
 177              	.L20:
 178              		.loc 1 96 0
 179 0030 EB68     		ldr	r3, [r5, #12]
 180 0032 5B07     		lsls	r3, r3, #29
 181 0034 22D5     		bpl	.L42
 182              		.loc 1 97 0
 183 0036 636A     		ldr	r3, [r4, #36]
 184              	.LVL16:
 185 0038 002B     		cmp	r3, #0
 186 003a EAD1     		bne	.L43
 187              		.loc 1 110 0
 188 003c AB68     		ldr	r3, [r5, #8]
 189              	.LVL17:
 190              		.loc 1 111 0
 191 003e 236A     		ldr	r3, [r4, #32]
 192 0040 013B     		subs	r3, r3, #1
 193 0042 2362     		str	r3, [r4, #32]
 194 0044 002B     		cmp	r3, #0
 195 0046 F3D1     		bne	.L20
 196              	.LVL18:
 197              	.L41:
 198              		.loc 1 118 0
 199 0048 6268     		ldr	r2, [r4, #4]
 200              		.loc 1 115 0
 201 004a 6B61     		str	r3, [r5, #20]
 202              		.loc 1 118 0
 203 004c 1368     		ldr	r3, [r2]
 204 004e 03B3     		cbz	r3, .L24
 205              		.loc 1 118 0 is_stmt 0 discriminator 1
 206 0050 0422     		movs	r2, #4
 207 0052 2046     		mov	r0, r4
 208 0054 2270     		strb	r2, [r4]
 209 0056 9847     		blx	r3
 210              	.LVL19:
 211 0058 2378     		ldrb	r3, [r4]	@ zero_extendqisi2
 212 005a 042B     		cmp	r3, #4
 213 005c 19D0     		beq	.L24
 214              	.L25:
 215              	.LBB6:
 216              		.loc 1 118 0 discriminator 4
 217 005e 4023     		movs	r3, #64
 218              		.syntax unified
 219              	@ 118 "../os/hal/platforms/LPC17xx/spi_lld.c" 1
 220 0060 83F31188 		msr     BASEPRI, r3
 221              	@ 0 "" 2
 222              		.thumb
 223              		.syntax unified
 224              	.LBE6:
 225 0064 A368     		ldr	r3, [r4, #8]
 226 0066 2BB1     		cbz	r3, .L26
 227              	.LVL20:
 228              	.LBB7:
ARM GAS  /tmp/ccGSOqQI.s 			page 5


 229              		.loc 1 118 0 discriminator 5
 230 0068 0022     		movs	r2, #0
 231 006a 1846     		mov	r0, r3
 232 006c A260     		str	r2, [r4, #8]
 233 006e 5A62     		str	r2, [r3, #36]
 234 0070 FFF7FEFF 		bl	chSchReadyI
 235              	.LVL21:
 236              	.L26:
 237              	.LBE7:
 238              	.LBB8:
 239              		.loc 1 118 0 discriminator 7
 240 0074 0023     		movs	r3, #0
 241              		.syntax unified
 242              	@ 118 "../os/hal/platforms/LPC17xx/spi_lld.c" 1
 243 0076 83F31188 		msr     BASEPRI, r3
 244              	@ 0 "" 2
 245              		.thumb
 246              		.syntax unified
 247              	.LBE8:
 248              		.loc 1 119 0 is_stmt 1 discriminator 7
 249 007a 38BD     		pop	{r3, r4, r5, pc}
 250              	.LVL22:
 251              	.L42:
 252              		.loc 1 122 0
 253 007c 2046     		mov	r0, r4
 254 007e FFF7FEFF 		bl	ssp_fifo_preload
 255              	.LVL23:
 256              		.loc 1 123 0
 257 0082 A36A     		ldr	r3, [r4, #40]
 258 0084 0BB9     		cbnz	r3, .L18
 259              	.LVL24:
 260              		.loc 1 124 0
 261 0086 0723     		movs	r3, #7
 262 0088 6B61     		str	r3, [r5, #20]
 263              	.L18:
 264 008a 38BD     		pop	{r3, r4, r5, pc}
 265              	.LVL25:
 266              	.L40:
 267              		.loc 1 93 0
 268 008c FFF7FEFF 		bl	port_halt
 269              	.LVL26:
 270 0090 BCE7     		b	.L19
 271              	.L24:
 272              		.loc 1 118 0 discriminator 3
 273 0092 0223     		movs	r3, #2
 274 0094 2370     		strb	r3, [r4]
 275 0096 E2E7     		b	.L25
 276              		.cfi_endproc
 277              	.LFE64:
 278              		.size	spi_serve_interrupt, .-spi_serve_interrupt
 279              		.section	.text.Vector78,"ax",%progbits
 280              		.align	1
 281              		.p2align 2,,3
 282              		.global	Vector78
 283              		.syntax unified
 284              		.thumb
 285              		.thumb_func
ARM GAS  /tmp/ccGSOqQI.s 			page 6


 286              		.fpu softvfp
 287              		.type	Vector78, %function
 288              	Vector78:
 289              	.LFB65:
 290              		.loc 1 137 0
 291              		.cfi_startproc
 292              		@ args = 0, pretend = 0, frame = 0
 293              		@ frame_needed = 0, uses_anonymous_args = 0
 294 0000 08B5     		push	{r3, lr}
 295              		.cfi_def_cfa_offset 8
 296              		.cfi_offset 3, -8
 297              		.cfi_offset 14, -4
 298              		.loc 1 141 0
 299 0002 0348     		ldr	r0, .L46
 300 0004 FFF7FEFF 		bl	spi_serve_interrupt
 301              	.LVL27:
 302              		.loc 1 144 0
 303 0008 BDE80840 		pop	{r3, lr}
 304              		.cfi_restore 14
 305              		.cfi_restore 3
 306              		.cfi_def_cfa_offset 0
 307              		.loc 1 143 0
 308 000c FFF7FEBF 		b	_port_irq_epilogue
 309              	.LVL28:
 310              	.L47:
 311              		.align	2
 312              	.L46:
 313 0010 00000000 		.word	.LANCHOR0
 314              		.cfi_endproc
 315              	.LFE65:
 316              		.size	Vector78, .-Vector78
 317              		.section	.text.Vector7C,"ax",%progbits
 318              		.align	1
 319              		.p2align 2,,3
 320              		.global	Vector7C
 321              		.syntax unified
 322              		.thumb
 323              		.thumb_func
 324              		.fpu softvfp
 325              		.type	Vector7C, %function
 326              	Vector7C:
 327              	.LFB66:
 328              		.loc 1 153 0
 329              		.cfi_startproc
 330              		@ args = 0, pretend = 0, frame = 0
 331              		@ frame_needed = 0, uses_anonymous_args = 0
 332 0000 08B5     		push	{r3, lr}
 333              		.cfi_def_cfa_offset 8
 334              		.cfi_offset 3, -8
 335              		.cfi_offset 14, -4
 336              		.loc 1 157 0
 337 0002 0348     		ldr	r0, .L50
 338 0004 FFF7FEFF 		bl	spi_serve_interrupt
 339              	.LVL29:
 340              		.loc 1 160 0
 341 0008 BDE80840 		pop	{r3, lr}
 342              		.cfi_restore 14
ARM GAS  /tmp/ccGSOqQI.s 			page 7


 343              		.cfi_restore 3
 344              		.cfi_def_cfa_offset 0
 345              		.loc 1 159 0
 346 000c FFF7FEBF 		b	_port_irq_epilogue
 347              	.LVL30:
 348              	.L51:
 349              		.align	2
 350              	.L50:
 351 0010 00000000 		.word	.LANCHOR1
 352              		.cfi_endproc
 353              	.LFE66:
 354              		.size	Vector7C, .-Vector7C
 355              		.section	.text.spi_lld_init,"ax",%progbits
 356              		.align	1
 357              		.p2align 2,,3
 358              		.global	spi_lld_init
 359              		.syntax unified
 360              		.thumb
 361              		.thumb_func
 362              		.fpu softvfp
 363              		.type	spi_lld_init, %function
 364              	spi_lld_init:
 365              	.LFB67:
 366              		.loc 1 172 0
 367              		.cfi_startproc
 368              		@ args = 0, pretend = 0, frame = 0
 369              		@ frame_needed = 0, uses_anonymous_args = 0
 370 0000 38B5     		push	{r3, r4, r5, lr}
 371              		.cfi_def_cfa_offset 16
 372              		.cfi_offset 3, -16
 373              		.cfi_offset 4, -12
 374              		.cfi_offset 5, -8
 375              		.cfi_offset 14, -4
 376              		.loc 1 175 0
 377 0002 064D     		ldr	r5, .L54
 378              		.loc 1 180 0
 379 0004 064C     		ldr	r4, .L54+4
 380              		.loc 1 175 0
 381 0006 2846     		mov	r0, r5
 382 0008 FFF7FEFF 		bl	spiObjectInit
 383              	.LVL31:
 384              		.loc 1 176 0
 385 000c 054B     		ldr	r3, .L54+8
 386              		.loc 1 180 0
 387 000e 2046     		mov	r0, r4
 388              		.loc 1 176 0
 389 0010 EB61     		str	r3, [r5, #28]
 390              		.loc 1 180 0
 391 0012 FFF7FEFF 		bl	spiObjectInit
 392              	.LVL32:
 393              		.loc 1 181 0
 394 0016 044B     		ldr	r3, .L54+12
 395 0018 E361     		str	r3, [r4, #28]
 396 001a 38BD     		pop	{r3, r4, r5, pc}
 397              	.L55:
 398              		.align	2
 399              	.L54:
ARM GAS  /tmp/ccGSOqQI.s 			page 8


 400 001c 00000000 		.word	.LANCHOR0
 401 0020 00000000 		.word	.LANCHOR1
 402 0024 00800840 		.word	1074298880
 403 0028 00000340 		.word	1073938432
 404              		.cfi_endproc
 405              	.LFE67:
 406              		.size	spi_lld_init, .-spi_lld_init
 407              		.section	.text.spi_lld_start,"ax",%progbits
 408              		.align	1
 409              		.p2align 2,,3
 410              		.global	spi_lld_start
 411              		.syntax unified
 412              		.thumb
 413              		.thumb_func
 414              		.fpu softvfp
 415              		.type	spi_lld_start, %function
 416              	spi_lld_start:
 417              	.LFB68:
 418              		.loc 1 192 0
 419              		.cfi_startproc
 420              		@ args = 0, pretend = 0, frame = 0
 421              		@ frame_needed = 0, uses_anonymous_args = 0
 422              	.LVL33:
 423              		.loc 1 194 0
 424 0000 0378     		ldrb	r3, [r0]	@ zero_extendqisi2
 425              		.loc 1 192 0
 426 0002 70B5     		push	{r4, r5, r6, lr}
 427              		.cfi_def_cfa_offset 16
 428              		.cfi_offset 4, -16
 429              		.cfi_offset 5, -12
 430              		.cfi_offset 6, -8
 431              		.cfi_offset 14, -4
 432              		.loc 1 194 0
 433 0004 012B     		cmp	r3, #1
 434              		.loc 1 192 0
 435 0006 0446     		mov	r4, r0
 436              		.loc 1 194 0
 437 0008 0CD0     		beq	.L60
 438              	.LVL34:
 439              	.L57:
 440              		.loc 1 216 0
 441 000a 0026     		movs	r6, #0
 442              		.loc 1 217 0
 443 000c 0325     		movs	r5, #3
 444              		.loc 1 220 0
 445 000e 0221     		movs	r1, #2
 446              		.loc 1 218 0
 447 0010 6268     		ldr	r2, [r4, #4]
 448              		.loc 1 216 0
 449 0012 E369     		ldr	r3, [r4, #28]
 450              		.loc 1 218 0
 451 0014 5089     		ldrh	r0, [r2, #10]
 452              		.loc 1 219 0
 453 0016 D268     		ldr	r2, [r2, #12]
 454              		.loc 1 216 0
 455 0018 5E60     		str	r6, [r3, #4]
 456              		.loc 1 217 0
ARM GAS  /tmp/ccGSOqQI.s 			page 9


 457 001a 1D62     		str	r5, [r3, #32]
 458              		.loc 1 218 0
 459 001c 1860     		str	r0, [r3]
 460              		.loc 1 219 0
 461 001e 1A61     		str	r2, [r3, #16]
 462              		.loc 1 220 0
 463 0020 5960     		str	r1, [r3, #4]
 464 0022 70BD     		pop	{r4, r5, r6, pc}
 465              	.LVL35:
 466              	.L60:
 467              		.loc 1 197 0
 468 0024 1A4B     		ldr	r3, .L62
 469 0026 9842     		cmp	r0, r3
 470 0028 1AD0     		beq	.L61
 471              		.loc 1 206 0
 472 002a 1A4B     		ldr	r3, .L62+4
 473 002c 9842     		cmp	r0, r3
 474 002e ECD1     		bne	.L57
 475              		.loc 1 207 0
 476 0030 194B     		ldr	r3, .L62+8
 477              		.loc 1 210 0
 478 0032 A021     		movs	r1, #160
 479              		.loc 1 207 0
 480 0034 D3F8C420 		ldr	r2, [r3, #196]
 481              		.loc 1 210 0
 482 0038 0F20     		movs	r0, #15
 483              	.LVL36:
 484              		.loc 1 207 0
 485 003a 42F48062 		orr	r2, r2, #1024
 486 003e C3F8C420 		str	r2, [r3, #196]
 487              		.loc 1 208 0
 488 0042 D3F8AC21 		ldr	r2, [r3, #428]
 489 0046 22F44062 		bic	r2, r2, #3072
 490 004a C3F8AC21 		str	r2, [r3, #428]
 491              		.loc 1 209 0
 492 004e D3F8AC21 		ldr	r2, [r3, #428]
 493 0052 42F48062 		orr	r2, r2, #1024
 494 0056 C3F8AC21 		str	r2, [r3, #428]
 495              		.loc 1 210 0
 496 005a FFF7FEFF 		bl	nvicEnableVector
 497              	.LVL37:
 498 005e D4E7     		b	.L57
 499              	.LVL38:
 500              	.L61:
 501              		.loc 1 198 0
 502 0060 0D4B     		ldr	r3, .L62+8
 503              		.loc 1 201 0
 504 0062 A021     		movs	r1, #160
 505              		.loc 1 198 0
 506 0064 D3F8C420 		ldr	r2, [r3, #196]
 507              		.loc 1 201 0
 508 0068 0E20     		movs	r0, #14
 509              	.LVL39:
 510              		.loc 1 198 0
 511 006a 42F40012 		orr	r2, r2, #2097152
 512 006e C3F8C420 		str	r2, [r3, #196]
 513              		.loc 1 199 0
ARM GAS  /tmp/ccGSOqQI.s 			page 10


 514 0072 D3F8A821 		ldr	r2, [r3, #424]
 515 0076 22F44012 		bic	r2, r2, #3145728
 516 007a C3F8A821 		str	r2, [r3, #424]
 517              		.loc 1 200 0
 518 007e D3F8A821 		ldr	r2, [r3, #424]
 519 0082 42F48012 		orr	r2, r2, #1048576
 520 0086 C3F8A821 		str	r2, [r3, #424]
 521              		.loc 1 201 0
 522 008a FFF7FEFF 		bl	nvicEnableVector
 523              	.LVL40:
 524 008e BCE7     		b	.L57
 525              	.L63:
 526              		.align	2
 527              	.L62:
 528 0090 00000000 		.word	.LANCHOR0
 529 0094 00000000 		.word	.LANCHOR1
 530 0098 00C00F40 		.word	1074774016
 531              		.cfi_endproc
 532              	.LFE68:
 533              		.size	spi_lld_start, .-spi_lld_start
 534              		.section	.text.spi_lld_stop,"ax",%progbits
 535              		.align	1
 536              		.p2align 2,,3
 537              		.global	spi_lld_stop
 538              		.syntax unified
 539              		.thumb
 540              		.thumb_func
 541              		.fpu softvfp
 542              		.type	spi_lld_stop, %function
 543              	spi_lld_stop:
 544              	.LFB69:
 545              		.loc 1 230 0
 546              		.cfi_startproc
 547              		@ args = 0, pretend = 0, frame = 0
 548              		@ frame_needed = 0, uses_anonymous_args = 0
 549              		@ link register save eliminated.
 550              	.LVL41:
 551              		.loc 1 232 0
 552 0000 0378     		ldrb	r3, [r0]	@ zero_extendqisi2
 553 0002 012B     		cmp	r3, #1
 554 0004 0AD0     		beq	.L64
 555              		.loc 1 233 0
 556 0006 0022     		movs	r2, #0
 557              		.loc 1 237 0
 558 0008 0F49     		ldr	r1, .L71
 559              		.loc 1 233 0
 560 000a C369     		ldr	r3, [r0, #28]
 561              		.loc 1 237 0
 562 000c 8842     		cmp	r0, r1
 563              		.loc 1 233 0
 564 000e 5A60     		str	r2, [r3, #4]
 565              		.loc 1 234 0
 566 0010 1A60     		str	r2, [r3]
 567              		.loc 1 235 0
 568 0012 1A61     		str	r2, [r3, #16]
 569              		.loc 1 237 0
 570 0014 0DD0     		beq	.L69
ARM GAS  /tmp/ccGSOqQI.s 			page 11


 571              		.loc 1 243 0
 572 0016 0D4B     		ldr	r3, .L71+4
 573 0018 9842     		cmp	r0, r3
 574 001a 00D0     		beq	.L70
 575              	.L64:
 576 001c 7047     		bx	lr
 577              	.L70:
 578              		.loc 1 244 0
 579 001e 0C4A     		ldr	r2, .L71+8
 580              		.loc 1 245 0
 581 0020 0F20     		movs	r0, #15
 582              	.LVL42:
 583              		.loc 1 244 0
 584 0022 D2F8C430 		ldr	r3, [r2, #196]
 585 0026 23F48063 		bic	r3, r3, #1024
 586 002a C2F8C430 		str	r3, [r2, #196]
 587              		.loc 1 245 0
 588 002e FFF7FEBF 		b	nvicDisableVector
 589              	.LVL43:
 590              	.L69:
 591              		.loc 1 238 0
 592 0032 074A     		ldr	r2, .L71+8
 593              		.loc 1 239 0
 594 0034 0E20     		movs	r0, #14
 595              	.LVL44:
 596              		.loc 1 238 0
 597 0036 D2F8C430 		ldr	r3, [r2, #196]
 598 003a 23F40013 		bic	r3, r3, #2097152
 599 003e C2F8C430 		str	r3, [r2, #196]
 600              		.loc 1 239 0
 601 0042 FFF7FEBF 		b	nvicDisableVector
 602              	.LVL45:
 603              	.L72:
 604 0046 00BF     		.align	2
 605              	.L71:
 606 0048 00000000 		.word	.LANCHOR0
 607 004c 00000000 		.word	.LANCHOR1
 608 0050 00C00F40 		.word	1074774016
 609              		.cfi_endproc
 610              	.LFE69:
 611              		.size	spi_lld_stop, .-spi_lld_stop
 612              		.section	.text.spi_lld_select,"ax",%progbits
 613              		.align	1
 614              		.p2align 2,,3
 615              		.global	spi_lld_select
 616              		.syntax unified
 617              		.thumb
 618              		.thumb_func
 619              		.fpu softvfp
 620              		.type	spi_lld_select, %function
 621              	spi_lld_select:
 622              	.LFB70:
 623              		.loc 1 258 0
 624              		.cfi_startproc
 625              		@ args = 0, pretend = 0, frame = 0
 626              		@ frame_needed = 0, uses_anonymous_args = 0
 627              		@ link register save eliminated.
ARM GAS  /tmp/ccGSOqQI.s 			page 12


 628              	.LVL46:
 629              		.loc 1 260 0
 630 0000 0123     		movs	r3, #1
 631 0002 4268     		ldr	r2, [r0, #4]
 632 0004 1189     		ldrh	r1, [r2, #8]
 633 0006 5268     		ldr	r2, [r2, #4]
 634 0008 8B40     		lsls	r3, r3, r1
 635 000a D361     		str	r3, [r2, #28]
 636 000c 7047     		bx	lr
 637              		.cfi_endproc
 638              	.LFE70:
 639              		.size	spi_lld_select, .-spi_lld_select
 640 000e 00BF     		.section	.text.spi_lld_unselect,"ax",%progbits
 641              		.align	1
 642              		.p2align 2,,3
 643              		.global	spi_lld_unselect
 644              		.syntax unified
 645              		.thumb
 646              		.thumb_func
 647              		.fpu softvfp
 648              		.type	spi_lld_unselect, %function
 649              	spi_lld_unselect:
 650              	.LFB71:
 651              		.loc 1 271 0
 652              		.cfi_startproc
 653              		@ args = 0, pretend = 0, frame = 0
 654              		@ frame_needed = 0, uses_anonymous_args = 0
 655              		@ link register save eliminated.
 656              	.LVL47:
 657              		.loc 1 273 0
 658 0000 0123     		movs	r3, #1
 659 0002 4268     		ldr	r2, [r0, #4]
 660 0004 1189     		ldrh	r1, [r2, #8]
 661 0006 5268     		ldr	r2, [r2, #4]
 662 0008 8B40     		lsls	r3, r3, r1
 663 000a 9361     		str	r3, [r2, #24]
 664 000c 7047     		bx	lr
 665              		.cfi_endproc
 666              	.LFE71:
 667              		.size	spi_lld_unselect, .-spi_lld_unselect
 668 000e 00BF     		.section	.text.spi_lld_ignore,"ax",%progbits
 669              		.align	1
 670              		.p2align 2,,3
 671              		.global	spi_lld_ignore
 672              		.syntax unified
 673              		.thumb
 674              		.thumb_func
 675              		.fpu softvfp
 676              		.type	spi_lld_ignore, %function
 677              	spi_lld_ignore:
 678              	.LFB72:
 679              		.loc 1 287 0
 680              		.cfi_startproc
 681              		@ args = 0, pretend = 0, frame = 0
 682              		@ frame_needed = 0, uses_anonymous_args = 0
 683              	.LVL48:
 684              		.loc 1 289 0
ARM GAS  /tmp/ccGSOqQI.s 			page 13


 685 0000 0023     		movs	r3, #0
 686              		.loc 1 287 0
 687 0002 10B5     		push	{r4, lr}
 688              		.cfi_def_cfa_offset 8
 689              		.cfi_offset 4, -8
 690              		.cfi_offset 14, -4
 691              		.loc 1 289 0
 692 0004 4362     		str	r3, [r0, #36]
 693              		.loc 1 290 0
 694 0006 C362     		str	r3, [r0, #44]
 695              		.loc 1 291 0
 696 0008 8162     		str	r1, [r0, #40]
 697 000a 0162     		str	r1, [r0, #32]
 698              		.loc 1 292 0
 699 000c FFF7FEFF 		bl	ssp_fifo_preload
 700              	.LVL49:
 701              		.loc 1 293 0
 702 0010 0F22     		movs	r2, #15
 703 0012 C369     		ldr	r3, [r0, #28]
 704 0014 5A61     		str	r2, [r3, #20]
 705 0016 10BD     		pop	{r4, pc}
 706              		.cfi_endproc
 707              	.LFE72:
 708              		.size	spi_lld_ignore, .-spi_lld_ignore
 709              		.section	.text.spi_lld_exchange,"ax",%progbits
 710              		.align	1
 711              		.p2align 2,,3
 712              		.global	spi_lld_exchange
 713              		.syntax unified
 714              		.thumb
 715              		.thumb_func
 716              		.fpu softvfp
 717              		.type	spi_lld_exchange, %function
 718              	spi_lld_exchange:
 719              	.LFB73:
 720              		.loc 1 312 0
 721              		.cfi_startproc
 722              		@ args = 0, pretend = 0, frame = 0
 723              		@ frame_needed = 0, uses_anonymous_args = 0
 724              	.LVL50:
 725              		.loc 1 314 0
 726 0000 4362     		str	r3, [r0, #36]
 727              		.loc 1 315 0
 728 0002 C262     		str	r2, [r0, #44]
 729              		.loc 1 312 0
 730 0004 10B5     		push	{r4, lr}
 731              		.cfi_def_cfa_offset 8
 732              		.cfi_offset 4, -8
 733              		.cfi_offset 14, -4
 734              		.loc 1 316 0
 735 0006 8162     		str	r1, [r0, #40]
 736 0008 0162     		str	r1, [r0, #32]
 737              		.loc 1 317 0
 738 000a FFF7FEFF 		bl	ssp_fifo_preload
 739              	.LVL51:
 740              		.loc 1 318 0
 741 000e 0F22     		movs	r2, #15
ARM GAS  /tmp/ccGSOqQI.s 			page 14


 742 0010 C369     		ldr	r3, [r0, #28]
 743 0012 5A61     		str	r2, [r3, #20]
 744 0014 10BD     		pop	{r4, pc}
 745              		.cfi_endproc
 746              	.LFE73:
 747              		.size	spi_lld_exchange, .-spi_lld_exchange
 748 0016 00BF     		.section	.text.spi_lld_send,"ax",%progbits
 749              		.align	1
 750              		.p2align 2,,3
 751              		.global	spi_lld_send
 752              		.syntax unified
 753              		.thumb
 754              		.thumb_func
 755              		.fpu softvfp
 756              		.type	spi_lld_send, %function
 757              	spi_lld_send:
 758              	.LFB74:
 759              		.loc 1 334 0
 760              		.cfi_startproc
 761              		@ args = 0, pretend = 0, frame = 0
 762              		@ frame_needed = 0, uses_anonymous_args = 0
 763              	.LVL52:
 764              		.loc 1 336 0
 765 0000 0023     		movs	r3, #0
 766              		.loc 1 337 0
 767 0002 C262     		str	r2, [r0, #44]
 768              		.loc 1 336 0
 769 0004 4362     		str	r3, [r0, #36]
 770              		.loc 1 334 0
 771 0006 10B5     		push	{r4, lr}
 772              		.cfi_def_cfa_offset 8
 773              		.cfi_offset 4, -8
 774              		.cfi_offset 14, -4
 775              		.loc 1 338 0
 776 0008 8162     		str	r1, [r0, #40]
 777 000a 0162     		str	r1, [r0, #32]
 778              		.loc 1 339 0
 779 000c FFF7FEFF 		bl	ssp_fifo_preload
 780              	.LVL53:
 781              		.loc 1 340 0
 782 0010 0F22     		movs	r2, #15
 783 0012 C369     		ldr	r3, [r0, #28]
 784 0014 5A61     		str	r2, [r3, #20]
 785 0016 10BD     		pop	{r4, pc}
 786              		.cfi_endproc
 787              	.LFE74:
 788              		.size	spi_lld_send, .-spi_lld_send
 789              		.section	.text.spi_lld_receive,"ax",%progbits
 790              		.align	1
 791              		.p2align 2,,3
 792              		.global	spi_lld_receive
 793              		.syntax unified
 794              		.thumb
 795              		.thumb_func
 796              		.fpu softvfp
 797              		.type	spi_lld_receive, %function
 798              	spi_lld_receive:
ARM GAS  /tmp/ccGSOqQI.s 			page 15


 799              	.LFB75:
 800              		.loc 1 356 0
 801              		.cfi_startproc
 802              		@ args = 0, pretend = 0, frame = 0
 803              		@ frame_needed = 0, uses_anonymous_args = 0
 804              	.LVL54:
 805              		.loc 1 359 0
 806 0000 0023     		movs	r3, #0
 807              		.loc 1 358 0
 808 0002 4262     		str	r2, [r0, #36]
 809              		.loc 1 359 0
 810 0004 C362     		str	r3, [r0, #44]
 811              		.loc 1 356 0
 812 0006 10B5     		push	{r4, lr}
 813              		.cfi_def_cfa_offset 8
 814              		.cfi_offset 4, -8
 815              		.cfi_offset 14, -4
 816              		.loc 1 360 0
 817 0008 8162     		str	r1, [r0, #40]
 818 000a 0162     		str	r1, [r0, #32]
 819              		.loc 1 361 0
 820 000c FFF7FEFF 		bl	ssp_fifo_preload
 821              	.LVL55:
 822              		.loc 1 362 0
 823 0010 0F22     		movs	r2, #15
 824 0012 C369     		ldr	r3, [r0, #28]
 825 0014 5A61     		str	r2, [r3, #20]
 826 0016 10BD     		pop	{r4, pc}
 827              		.cfi_endproc
 828              	.LFE75:
 829              		.size	spi_lld_receive, .-spi_lld_receive
 830              		.section	.text.spi_lld_polled_exchange,"ax",%progbits
 831              		.align	1
 832              		.p2align 2,,3
 833              		.global	spi_lld_polled_exchange
 834              		.syntax unified
 835              		.thumb
 836              		.thumb_func
 837              		.fpu softvfp
 838              		.type	spi_lld_polled_exchange, %function
 839              	spi_lld_polled_exchange:
 840              	.LFB76:
 841              		.loc 1 377 0
 842              		.cfi_startproc
 843              		@ args = 0, pretend = 0, frame = 0
 844              		@ frame_needed = 0, uses_anonymous_args = 0
 845              		@ link register save eliminated.
 846              	.LVL56:
 847              		.loc 1 379 0
 848 0000 C269     		ldr	r2, [r0, #28]
 849 0002 9160     		str	r1, [r2, #8]
 850              	.L84:
 851              		.loc 1 380 0 discriminator 1
 852 0004 D368     		ldr	r3, [r2, #12]
 853 0006 5B07     		lsls	r3, r3, #29
 854 0008 FCD5     		bpl	.L84
 855              		.loc 1 382 0
ARM GAS  /tmp/ccGSOqQI.s 			page 16


 856 000a 9068     		ldr	r0, [r2, #8]
 857              	.LVL57:
 858              		.loc 1 383 0
 859 000c 80B2     		uxth	r0, r0
 860 000e 7047     		bx	lr
 861              		.cfi_endproc
 862              	.LFE76:
 863              		.size	spi_lld_polled_exchange, .-spi_lld_polled_exchange
 864              		.global	SPID2
 865              		.global	SPID1
 866              		.section	.bss.SPID1,"aw",%nobits
 867              		.align	2
 868              		.set	.LANCHOR0,. + 0
 869              		.type	SPID1, %object
 870              		.size	SPID1, 48
 871              	SPID1:
 872 0000 00000000 		.space	48
 872      00000000 
 872      00000000 
 872      00000000 
 872      00000000 
 873              		.section	.bss.SPID2,"aw",%nobits
 874              		.align	2
 875              		.set	.LANCHOR1,. + 0
 876              		.type	SPID2, %object
 877              		.size	SPID2, 48
 878              	SPID2:
 879 0000 00000000 		.space	48
 879      00000000 
 879      00000000 
 879      00000000 
 879      00000000 
 880              		.text
 881              	.Letext0:
 882              		.file 2 "/usr/lib/gcc/arm-none-eabi/6.3.1/include/stddef.h"
 883              		.file 3 "/usr/include/newlib/machine/_default_types.h"
 884              		.file 4 "/usr/include/newlib/sys/_stdint.h"
 885              		.file 5 "../os/ports/GCC/ARMCMx/chtypes.h"
 886              		.file 6 "../os/kernel/include/chlists.h"
 887              		.file 7 "../os/kernel/include/chthreads.h"
 888              		.file 8 "../os/ports/GCC/ARMCMx/chcore_v7m.h"
 889              		.file 9 "../os/kernel/include/chvt.h"
 890              		.file 10 "../os/kernel/include/chschd.h"
 891              		.file 11 "../os/kernel/include/chsem.h"
 892              		.file 12 "../os/kernel/include/chmtx.h"
 893              		.file 13 "../os/kernel/include/chevents.h"
 894              		.file 14 "../os/kernel/include/chregistry.h"
 895              		.file 15 "../os/kernel/include/chqueues.h"
 896              		.file 16 "../os/kernel/include/ch.h"
 897              		.file 17 "../os/ports/common/ARMCMx/CMSIS/include/core_cm3.h"
 898              		.file 18 "../os/hal/platforms/LPC17xx/system_LPC17xx.h"
 899              		.file 19 "../os/hal/platforms/LPC17xx/LPC17xx.h"
 900              		.file 20 "../os/hal/platforms/LPC17xx/lpc17xx_dma.h"
 901              		.file 21 "../os/hal/platforms/LPC17xx/pal_lld.h"
 902              		.file 22 "../os/hal/include/adc.h"
 903              		.file 23 "../os/hal/platforms/LPC17xx/adc_lld.h"
 904              		.file 24 "../os/hal/include/can.h"
ARM GAS  /tmp/ccGSOqQI.s 			page 17


 905              		.file 25 "../os/hal/platforms/LPC17xx/can_lld.h"
 906              		.file 26 "../os/hal/include/gpt.h"
 907              		.file 27 "../os/hal/platforms/LPC17xx/gpt_lld.h"
 908              		.file 28 "../os/hal/include/serial.h"
 909              		.file 29 "../os/hal/platforms/LPC17xx/serial_lld.h"
 910              		.file 30 "../os/hal/include/spi.h"
 911              		.file 31 "../os/hal/platforms/LPC17xx/spi_lld.h"
 912              		.file 32 "../os/ports/common/ARMCMx/nvic.h"