ARM GAS  /tmp/cc9cuD55.s 			page 1


   1              		.cpu cortex-m3
   2              		.eabi_attribute 20, 1
   3              		.eabi_attribute 21, 1
   4              		.eabi_attribute 23, 3
   5              		.eabi_attribute 24, 1
   6              		.eabi_attribute 25, 1
   7              		.eabi_attribute 26, 1
   8              		.eabi_attribute 30, 2
   9              		.eabi_attribute 34, 1
  10              		.eabi_attribute 18, 4
  11              		.file	"chcond.c"
  12              		.text
  13              	.Ltext0:
  14              		.cfi_sections	.debug_frame
  15              		.section	.text.chCondInit,"ax",%progbits
  16              		.align	1
  17              		.p2align 2,,3
  18              		.global	chCondInit
  19              		.syntax unified
  20              		.thumb
  21              		.thumb_func
  22              		.fpu softvfp
  23              		.type	chCondInit, %function
  24              	chCondInit:
  25              	.LFB7:
  26              		.file 1 "../../os/kernel/src/chcond.c"
  27              		.loc 1 52 0
  28              		.cfi_startproc
  29              		@ args = 0, pretend = 0, frame = 0
  30              		@ frame_needed = 0, uses_anonymous_args = 0
  31              		@ link register save eliminated.
  32              	.LVL0:
  33              		.loc 1 56 0
  34 0000 4060     		str	r0, [r0, #4]
  35 0002 0060     		str	r0, [r0]
  36 0004 7047     		bx	lr
  37              		.cfi_endproc
  38              	.LFE7:
  39              		.size	chCondInit, .-chCondInit
  40 0006 00BF     		.section	.text.chCondSignal,"ax",%progbits
  41              		.align	1
  42              		.p2align 2,,3
  43              		.global	chCondSignal
  44              		.syntax unified
  45              		.thumb
  46              		.thumb_func
  47              		.fpu softvfp
  48              		.type	chCondSignal, %function
  49              	chCondSignal:
  50              	.LFB8:
  51              		.loc 1 66 0
  52              		.cfi_startproc
  53              		@ args = 0, pretend = 0, frame = 0
  54              		@ frame_needed = 0, uses_anonymous_args = 0
  55              	.LVL1:
  56              	.LBB20:
  57              		.loc 1 70 0
ARM GAS  /tmp/cc9cuD55.s 			page 2


  58 0000 4023     		movs	r3, #64
  59              		.syntax unified
  60              	@ 70 "../../os/kernel/src/chcond.c" 1
  61 0002 83F31188 		msr     BASEPRI, r3
  62              	@ 0 "" 2
  63              		.thumb
  64              		.syntax unified
  65              	.LBE20:
  66              		.loc 1 71 0
  67 0006 0268     		ldr	r2, [r0]
  68 0008 8242     		cmp	r2, r0
  69 000a 0CD0     		beq	.L5
  70 000c 0346     		mov	r3, r0
  71              	.LVL2:
  72              		.loc 1 66 0
  73 000e 10B5     		push	{r4, lr}
  74              		.cfi_def_cfa_offset 8
  75              		.cfi_offset 4, -8
  76              		.cfi_offset 14, -4
  77              	.LBB21:
  78              	.LBB22:
  79              		.file 2 "../../os/kernel/include/chinline.h"
  80              		.loc 2 55 0
  81 0010 1468     		ldr	r4, [r2]
  82              	.LBE22:
  83              	.LBE21:
  84              		.loc 1 72 0
  85 0012 1046     		mov	r0, r2
  86              	.LVL3:
  87              	.LBB25:
  88              	.LBB23:
  89              		.loc 2 55 0
  90 0014 1C60     		str	r4, [r3]
  91              	.LBE23:
  92              	.LBE25:
  93              		.loc 1 72 0
  94 0016 0021     		movs	r1, #0
  95              	.LBB26:
  96              	.LBB24:
  97              		.loc 2 55 0
  98 0018 6360     		str	r3, [r4, #4]
  99              	.LVL4:
 100              	.LBE24:
 101              	.LBE26:
 102              		.loc 1 72 0
 103 001a FFF7FEFF 		bl	chSchWakeupS
 104              	.LVL5:
 105              	.LBB27:
 106              		.loc 1 73 0
 107 001e 0023     		movs	r3, #0
 108              		.syntax unified
 109              	@ 73 "../../os/kernel/src/chcond.c" 1
 110 0020 83F31188 		msr     BASEPRI, r3
 111              	@ 0 "" 2
 112              		.thumb
 113              		.syntax unified
 114 0024 10BD     		pop	{r4, pc}
ARM GAS  /tmp/cc9cuD55.s 			page 3


 115              	.LVL6:
 116              	.L5:
 117              		.cfi_def_cfa_offset 0
 118              		.cfi_restore 4
 119              		.cfi_restore 14
 120 0026 0023     		movs	r3, #0
 121              		.syntax unified
 122              	@ 73 "../../os/kernel/src/chcond.c" 1
 123 0028 83F31188 		msr     BASEPRI, r3
 124              	@ 0 "" 2
 125              		.thumb
 126              		.syntax unified
 127 002c 7047     		bx	lr
 128              	.LBE27:
 129              		.cfi_endproc
 130              	.LFE8:
 131              		.size	chCondSignal, .-chCondSignal
 132 002e 00BF     		.section	.text.chCondSignalI,"ax",%progbits
 133              		.align	1
 134              		.p2align 2,,3
 135              		.global	chCondSignalI
 136              		.syntax unified
 137              		.thumb
 138              		.thumb_func
 139              		.fpu softvfp
 140              		.type	chCondSignalI, %function
 141              	chCondSignalI:
 142              	.LFB9:
 143              		.loc 1 87 0
 144              		.cfi_startproc
 145              		@ args = 0, pretend = 0, frame = 0
 146              		@ frame_needed = 0, uses_anonymous_args = 0
 147              	.LVL7:
 148              		.loc 1 92 0
 149 0000 0268     		ldr	r2, [r0]
 150 0002 8242     		cmp	r2, r0
 151 0004 0AD0     		beq	.L12
 152              		.loc 1 87 0
 153 0006 08B5     		push	{r3, lr}
 154              		.cfi_def_cfa_offset 8
 155              		.cfi_offset 3, -8
 156              		.cfi_offset 14, -4
 157 0008 0346     		mov	r3, r0
 158              	.LVL8:
 159              	.LBB28:
 160              	.LBB29:
 161              		.loc 2 55 0
 162 000a 1168     		ldr	r1, [r2]
 163              	.LBE29:
 164              	.LBE28:
 165              		.loc 1 93 0
 166 000c 1046     		mov	r0, r2
 167              	.LVL9:
 168              	.LBB31:
 169              	.LBB30:
 170              		.loc 2 55 0
 171 000e 1960     		str	r1, [r3]
ARM GAS  /tmp/cc9cuD55.s 			page 4


 172 0010 4B60     		str	r3, [r1, #4]
 173              	.LVL10:
 174              	.LBE30:
 175              	.LBE31:
 176              		.loc 1 93 0
 177 0012 FFF7FEFF 		bl	chSchReadyI
 178              	.LVL11:
 179 0016 0023     		movs	r3, #0
 180 0018 4362     		str	r3, [r0, #36]
 181 001a 08BD     		pop	{r3, pc}
 182              	.LVL12:
 183              	.L12:
 184              		.cfi_def_cfa_offset 0
 185              		.cfi_restore 3
 186              		.cfi_restore 14
 187 001c 7047     		bx	lr
 188              		.cfi_endproc
 189              	.LFE9:
 190              		.size	chCondSignalI, .-chCondSignalI
 191 001e 00BF     		.section	.text.chCondBroadcast,"ax",%progbits
 192              		.align	1
 193              		.p2align 2,,3
 194              		.global	chCondBroadcast
 195              		.syntax unified
 196              		.thumb
 197              		.thumb_func
 198              		.fpu softvfp
 199              		.type	chCondBroadcast, %function
 200              	chCondBroadcast:
 201              	.LFB10:
 202              		.loc 1 103 0
 203              		.cfi_startproc
 204              		@ args = 0, pretend = 0, frame = 0
 205              		@ frame_needed = 0, uses_anonymous_args = 0
 206              	.LVL13:
 207 0000 38B5     		push	{r3, r4, r5, lr}
 208              		.cfi_def_cfa_offset 16
 209              		.cfi_offset 3, -16
 210              		.cfi_offset 4, -12
 211              		.cfi_offset 5, -8
 212              		.cfi_offset 14, -4
 213              		.loc 1 103 0
 214 0002 0446     		mov	r4, r0
 215              	.LBB32:
 216              		.loc 1 105 0
 217 0004 4023     		movs	r3, #64
 218              		.syntax unified
 219              	@ 105 "../../os/kernel/src/chcond.c" 1
 220 0006 83F31188 		msr     BASEPRI, r3
 221              	@ 0 "" 2
 222              	.LVL14:
 223              		.thumb
 224              		.syntax unified
 225              	.LBE32:
 226              	.LBB33:
 227              	.LBB34:
 228              		.loc 1 130 0
ARM GAS  /tmp/cc9cuD55.s 			page 5


 229 000a 0068     		ldr	r0, [r0]
 230              	.LVL15:
 231 000c A042     		cmp	r0, r4
 232              		.loc 1 131 0
 233 000e 18BF     		it	ne
 234 0010 6FF00105 		mvnne	r5, #1
 235              		.loc 1 130 0
 236 0014 08D0     		beq	.L18
 237              	.L17:
 238              	.LVL16:
 239              	.LBB35:
 240              	.LBB36:
 241              		.loc 2 55 0
 242 0016 0368     		ldr	r3, [r0]
 243 0018 2360     		str	r3, [r4]
 244 001a 5C60     		str	r4, [r3, #4]
 245              	.LVL17:
 246              	.LBE36:
 247              	.LBE35:
 248              		.loc 1 131 0
 249 001c FFF7FEFF 		bl	chSchReadyI
 250              	.LVL18:
 251 0020 4562     		str	r5, [r0, #36]
 252              		.loc 1 130 0
 253 0022 2068     		ldr	r0, [r4]
 254 0024 A042     		cmp	r0, r4
 255 0026 F6D1     		bne	.L17
 256              	.L18:
 257              	.LVL19:
 258              	.LBE34:
 259              	.LBE33:
 260              		.loc 1 107 0
 261 0028 FFF7FEFF 		bl	chSchRescheduleS
 262              	.LVL20:
 263              	.LBB37:
 264              		.loc 1 108 0
 265 002c 0023     		movs	r3, #0
 266              		.syntax unified
 267              	@ 108 "../../os/kernel/src/chcond.c" 1
 268 002e 83F31188 		msr     BASEPRI, r3
 269              	@ 0 "" 2
 270              		.thumb
 271              		.syntax unified
 272              	.LBE37:
 273              		.loc 1 109 0
 274 0032 38BD     		pop	{r3, r4, r5, pc}
 275              		.cfi_endproc
 276              	.LFE10:
 277              		.size	chCondBroadcast, .-chCondBroadcast
 278              		.section	.text.chCondBroadcastI,"ax",%progbits
 279              		.align	1
 280              		.p2align 2,,3
 281              		.global	chCondBroadcastI
 282              		.syntax unified
 283              		.thumb
 284              		.thumb_func
 285              		.fpu softvfp
ARM GAS  /tmp/cc9cuD55.s 			page 6


 286              		.type	chCondBroadcastI, %function
 287              	chCondBroadcastI:
 288              	.LFB11:
 289              		.loc 1 122 0
 290              		.cfi_startproc
 291              		@ args = 0, pretend = 0, frame = 0
 292              		@ frame_needed = 0, uses_anonymous_args = 0
 293              	.LVL21:
 294 0000 38B5     		push	{r3, r4, r5, lr}
 295              		.cfi_def_cfa_offset 16
 296              		.cfi_offset 3, -16
 297              		.cfi_offset 4, -12
 298              		.cfi_offset 5, -8
 299              		.cfi_offset 14, -4
 300              		.loc 1 122 0
 301 0002 0446     		mov	r4, r0
 302              		.loc 1 130 0
 303 0004 0068     		ldr	r0, [r0]
 304              	.LVL22:
 305 0006 A042     		cmp	r0, r4
 306 0008 0AD0     		beq	.L22
 307              		.loc 1 131 0
 308 000a 6FF00105 		mvn	r5, #1
 309              	.L24:
 310              	.LVL23:
 311              	.LBB38:
 312              	.LBB39:
 313              		.loc 2 55 0
 314 000e 0368     		ldr	r3, [r0]
 315 0010 2360     		str	r3, [r4]
 316 0012 5C60     		str	r4, [r3, #4]
 317              	.LVL24:
 318              	.LBE39:
 319              	.LBE38:
 320              		.loc 1 131 0
 321 0014 FFF7FEFF 		bl	chSchReadyI
 322              	.LVL25:
 323 0018 4562     		str	r5, [r0, #36]
 324              		.loc 1 130 0
 325 001a 2068     		ldr	r0, [r4]
 326 001c A042     		cmp	r0, r4
 327 001e F6D1     		bne	.L24
 328              	.L22:
 329 0020 38BD     		pop	{r3, r4, r5, pc}
 330              		.cfi_endproc
 331              	.LFE11:
 332              		.size	chCondBroadcastI, .-chCondBroadcastI
 333 0022 00BF     		.section	.text.chCondWaitS,"ax",%progbits
 334              		.align	1
 335              		.p2align 2,,3
 336              		.global	chCondWaitS
 337              		.syntax unified
 338              		.thumb
 339              		.thumb_func
 340              		.fpu softvfp
 341              		.type	chCondWaitS, %function
 342              	chCondWaitS:
ARM GAS  /tmp/cc9cuD55.s 			page 7


 343              	.LFB13:
 344              		.loc 1 177 0
 345              		.cfi_startproc
 346              		@ args = 0, pretend = 0, frame = 0
 347              		@ frame_needed = 0, uses_anonymous_args = 0
 348              	.LVL26:
 349              		.loc 1 178 0
 350 0000 0F4B     		ldr	r3, .L36
 351              		.loc 1 177 0
 352 0002 70B5     		push	{r4, r5, r6, lr}
 353              		.cfi_def_cfa_offset 16
 354              		.cfi_offset 4, -16
 355              		.cfi_offset 5, -12
 356              		.cfi_offset 6, -8
 357              		.cfi_offset 14, -4
 358              		.loc 1 177 0
 359 0004 0546     		mov	r5, r0
 360              		.loc 1 178 0
 361 0006 9C69     		ldr	r4, [r3, #24]
 362              	.LVL27:
 363              		.loc 1 188 0
 364 0008 FFF7FEFF 		bl	chMtxUnlockS
 365              	.LVL28:
 366              		.loc 1 190 0
 367 000c 2B46     		mov	r3, r5
 368              		.loc 1 188 0
 369 000e 0646     		mov	r6, r0
 370              	.LVL29:
 371              		.loc 1 189 0
 372 0010 6562     		str	r5, [r4, #36]
 373              	.LVL30:
 374 0012 03E0     		b	.L30
 375              	.LVL31:
 376              	.L35:
 377              	.LBB40:
 378              	.LBB41:
 379              		.loc 2 39 0
 380 0014 9968     		ldr	r1, [r3, #8]
 381 0016 A268     		ldr	r2, [r4, #8]
 382 0018 9142     		cmp	r1, r2
 383 001a 02D3     		bcc	.L31
 384              	.L30:
 385              		.loc 2 38 0
 386 001c 1B68     		ldr	r3, [r3]
 387              	.LVL32:
 388              		.loc 2 39 0
 389 001e 9D42     		cmp	r5, r3
 390 0020 F8D1     		bne	.L35
 391              	.L31:
 392              		.loc 2 41 0
 393 0022 5A68     		ldr	r2, [r3, #4]
 394              	.LBE41:
 395              	.LBE40:
 396              		.loc 1 191 0
 397 0024 0520     		movs	r0, #5
 398              	.LVL33:
 399              	.LBB43:
ARM GAS  /tmp/cc9cuD55.s 			page 8


 400              	.LBB42:
 401              		.loc 2 40 0
 402 0026 2360     		str	r3, [r4]
 403              		.loc 2 41 0
 404 0028 6260     		str	r2, [r4, #4]
 405              		.loc 2 42 0
 406 002a 5C60     		str	r4, [r3, #4]
 407 002c 1460     		str	r4, [r2]
 408              	.LVL34:
 409              	.LBE42:
 410              	.LBE43:
 411              		.loc 1 191 0
 412 002e FFF7FEFF 		bl	chSchGoSleepS
 413              	.LVL35:
 414              		.loc 1 192 0
 415 0032 646A     		ldr	r4, [r4, #36]
 416              	.LVL36:
 417              		.loc 1 193 0
 418 0034 3046     		mov	r0, r6
 419 0036 FFF7FEFF 		bl	chMtxLockS
 420              	.LVL37:
 421              		.loc 1 195 0
 422 003a 2046     		mov	r0, r4
 423 003c 70BD     		pop	{r4, r5, r6, pc}
 424              	.LVL38:
 425              	.L37:
 426 003e 00BF     		.align	2
 427              	.L36:
 428 0040 00000000 		.word	rlist
 429              		.cfi_endproc
 430              	.LFE13:
 431              		.size	chCondWaitS, .-chCondWaitS
 432              		.section	.text.chCondWait,"ax",%progbits
 433              		.align	1
 434              		.p2align 2,,3
 435              		.global	chCondWait
 436              		.syntax unified
 437              		.thumb
 438              		.thumb_func
 439              		.fpu softvfp
 440              		.type	chCondWait, %function
 441              	chCondWait:
 442              	.LFB12:
 443              		.loc 1 151 0
 444              		.cfi_startproc
 445              		@ args = 0, pretend = 0, frame = 0
 446              		@ frame_needed = 0, uses_anonymous_args = 0
 447              	.LVL39:
 448 0000 08B5     		push	{r3, lr}
 449              		.cfi_def_cfa_offset 8
 450              		.cfi_offset 3, -8
 451              		.cfi_offset 14, -4
 452              	.LBB44:
 453              		.loc 1 154 0
 454 0002 4023     		movs	r3, #64
 455              		.syntax unified
 456              	@ 154 "../../os/kernel/src/chcond.c" 1
ARM GAS  /tmp/cc9cuD55.s 			page 9


 457 0004 83F31188 		msr     BASEPRI, r3
 458              	@ 0 "" 2
 459              		.thumb
 460              		.syntax unified
 461              	.LBE44:
 462              		.loc 1 155 0
 463 0008 FFF7FEFF 		bl	chCondWaitS
 464              	.LVL40:
 465              	.LBB45:
 466              		.loc 1 156 0
 467 000c 0023     		movs	r3, #0
 468              		.syntax unified
 469              	@ 156 "../../os/kernel/src/chcond.c" 1
 470 000e 83F31188 		msr     BASEPRI, r3
 471              	@ 0 "" 2
 472              		.thumb
 473              		.syntax unified
 474              	.LBE45:
 475              		.loc 1 158 0
 476 0012 08BD     		pop	{r3, pc}
 477              		.cfi_endproc
 478              	.LFE12:
 479              		.size	chCondWait, .-chCondWait
 480              		.section	.text.chCondWaitTimeoutS,"ax",%progbits
 481              		.align	1
 482              		.p2align 2,,3
 483              		.global	chCondWaitTimeoutS
 484              		.syntax unified
 485              		.thumb
 486              		.thumb_func
 487              		.fpu softvfp
 488              		.type	chCondWaitTimeoutS, %function
 489              	chCondWaitTimeoutS:
 490              	.LFB15:
 491              		.loc 1 263 0
 492              		.cfi_startproc
 493              		@ args = 0, pretend = 0, frame = 0
 494              		@ frame_needed = 0, uses_anonymous_args = 0
 495              	.LVL41:
 496 0000 F8B5     		push	{r3, r4, r5, r6, r7, lr}
 497              		.cfi_def_cfa_offset 24
 498              		.cfi_offset 3, -24
 499              		.cfi_offset 4, -20
 500              		.cfi_offset 5, -16
 501              		.cfi_offset 6, -12
 502              		.cfi_offset 7, -8
 503              		.cfi_offset 14, -4
 504              		.loc 1 263 0
 505 0002 0546     		mov	r5, r0
 506 0004 0F46     		mov	r7, r1
 507              		.loc 1 273 0
 508 0006 FFF7FEFF 		bl	chMtxUnlockS
 509              	.LVL42:
 510              		.loc 1 274 0
 511 000a 0F4A     		ldr	r2, .L48
 512              		.loc 1 273 0
 513 000c 0646     		mov	r6, r0
ARM GAS  /tmp/cc9cuD55.s 			page 10


 514              	.LVL43:
 515              		.loc 1 274 0
 516 000e 9469     		ldr	r4, [r2, #24]
 517              		.loc 1 275 0
 518 0010 2B46     		mov	r3, r5
 519              		.loc 1 274 0
 520 0012 6562     		str	r5, [r4, #36]
 521              	.LVL44:
 522 0014 03E0     		b	.L44
 523              	.LVL45:
 524              	.L41:
 525              	.LBB46:
 526              	.LBB47:
 527              		.loc 2 39 0
 528 0016 9868     		ldr	r0, [r3, #8]
 529 0018 A268     		ldr	r2, [r4, #8]
 530 001a 9042     		cmp	r0, r2
 531 001c 02D3     		bcc	.L45
 532              	.L44:
 533              		.loc 2 38 0
 534 001e 1B68     		ldr	r3, [r3]
 535              	.LVL46:
 536              		.loc 2 39 0
 537 0020 9D42     		cmp	r5, r3
 538 0022 F8D1     		bne	.L41
 539              	.L45:
 540              		.loc 2 41 0
 541 0024 5A68     		ldr	r2, [r3, #4]
 542              	.LBE47:
 543              	.LBE46:
 544              		.loc 1 276 0
 545 0026 3946     		mov	r1, r7
 546              	.LBB50:
 547              	.LBB48:
 548              		.loc 2 40 0
 549 0028 2360     		str	r3, [r4]
 550              		.loc 2 41 0
 551 002a 6260     		str	r2, [r4, #4]
 552              	.LBE48:
 553              	.LBE50:
 554              		.loc 1 276 0
 555 002c 0520     		movs	r0, #5
 556              	.LBB51:
 557              	.LBB49:
 558              		.loc 2 42 0
 559 002e 5C60     		str	r4, [r3, #4]
 560 0030 1460     		str	r4, [r2]
 561              	.LVL47:
 562              	.LBE49:
 563              	.LBE51:
 564              		.loc 1 276 0
 565 0032 FFF7FEFF 		bl	chSchGoSleepTimeoutS
 566              	.LVL48:
 567              		.loc 1 277 0
 568 0036 431C     		adds	r3, r0, #1
 569              		.loc 1 276 0
 570 0038 0446     		mov	r4, r0
ARM GAS  /tmp/cc9cuD55.s 			page 11


 571              	.LVL49:
 572              		.loc 1 277 0
 573 003a 02D0     		beq	.L40
 574              		.loc 1 278 0
 575 003c 3046     		mov	r0, r6
 576              	.LVL50:
 577 003e FFF7FEFF 		bl	chMtxLockS
 578              	.LVL51:
 579              	.L40:
 580              		.loc 1 280 0
 581 0042 2046     		mov	r0, r4
 582 0044 F8BD     		pop	{r3, r4, r5, r6, r7, pc}
 583              	.LVL52:
 584              	.L49:
 585 0046 00BF     		.align	2
 586              	.L48:
 587 0048 00000000 		.word	rlist
 588              		.cfi_endproc
 589              	.LFE15:
 590              		.size	chCondWaitTimeoutS, .-chCondWaitTimeoutS
 591              		.section	.text.chCondWaitTimeout,"ax",%progbits
 592              		.align	1
 593              		.p2align 2,,3
 594              		.global	chCondWaitTimeout
 595              		.syntax unified
 596              		.thumb
 597              		.thumb_func
 598              		.fpu softvfp
 599              		.type	chCondWaitTimeout, %function
 600              	chCondWaitTimeout:
 601              	.LFB14:
 602              		.loc 1 226 0
 603              		.cfi_startproc
 604              		@ args = 0, pretend = 0, frame = 0
 605              		@ frame_needed = 0, uses_anonymous_args = 0
 606              	.LVL53:
 607 0000 08B5     		push	{r3, lr}
 608              		.cfi_def_cfa_offset 8
 609              		.cfi_offset 3, -8
 610              		.cfi_offset 14, -4
 611              	.LBB52:
 612              		.loc 1 229 0
 613 0002 4023     		movs	r3, #64
 614              		.syntax unified
 615              	@ 229 "../../os/kernel/src/chcond.c" 1
 616 0004 83F31188 		msr     BASEPRI, r3
 617              	@ 0 "" 2
 618              		.thumb
 619              		.syntax unified
 620              	.LBE52:
 621              		.loc 1 230 0
 622 0008 FFF7FEFF 		bl	chCondWaitTimeoutS
 623              	.LVL54:
 624              	.LBB53:
 625              		.loc 1 231 0
 626 000c 0023     		movs	r3, #0
 627              		.syntax unified
ARM GAS  /tmp/cc9cuD55.s 			page 12


 628              	@ 231 "../../os/kernel/src/chcond.c" 1
 629 000e 83F31188 		msr     BASEPRI, r3
 630              	@ 0 "" 2
 631              		.thumb
 632              		.syntax unified
 633              	.LBE53:
 634              		.loc 1 233 0
 635 0012 08BD     		pop	{r3, pc}
 636              		.cfi_endproc
 637              	.LFE14:
 638              		.size	chCondWaitTimeout, .-chCondWaitTimeout
 639              		.text
 640              	.Letext0:
 641              		.file 3 "/usr/include/newlib/machine/_default_types.h"
 642              		.file 4 "/usr/include/newlib/sys/_stdint.h"
 643              		.file 5 "../../os/ports/GCC/ARMCMx/chtypes.h"
 644              		.file 6 "../../os/kernel/include/chlists.h"
 645              		.file 7 "../../os/kernel/include/chthreads.h"
 646              		.file 8 "../../os/ports/GCC/ARMCMx/chcore_v7m.h"
 647              		.file 9 "../../os/kernel/include/chvt.h"
 648              		.file 10 "../../os/kernel/include/chschd.h"
 649              		.file 11 "../../os/kernel/include/chmtx.h"
 650              		.file 12 "../../os/kernel/include/chcond.h"
 651              		.file 13 "../../os/kernel/include/chregistry.h"
 652              		.file 14 "../../os/kernel/include/ch.h"