ARM GAS  /tmp/cc9cuD55.s 			page 1


   1              		.cpu cortex-m3
   2              		.eabi_attribute 20, 1
   3              		.eabi_attribute 21, 1
   4              		.eabi_attribute 23, 3
   5              		.eabi_attribute 24, 1
   6              		.eabi_attribute 25, 1
   7              		.eabi_attribute 26, 1
   8              		.eabi_attribute 30, 2
   9              		.eabi_attribute 34, 1
  10              		.eabi_attribute 18, 4
  11              		.file	"chcond.c"
  12              		.text
  13              	.Ltext0:
  14              		.cfi_sections	.debug_frame
  15              		.section	.text.chCondInit,"ax",%progbits
  16              		.align	1
  17              		.p2align 2,,3
  18              		.global	chCondInit
  19              		.syntax unified
  20              		.thumb
  21              		.thumb_func
  22              		.fpu softvfp
  23              		.type	chCondInit, %function
  24              	chCondInit:
  25              	.LFB7:
  26              		.file 1 "../../os/kernel/src/chcond.c"
  27              		.loc 1 52 0
  28              		.cfi_startproc
  29              		@ args = 0, pretend = 0, frame = 0
  30              		@ frame_needed = 0, uses_anonymous_args = 0
  31              		@ link register save eliminated.
  32              	.LVL0:
  33              		.loc 1 56 0
  34 0000 4060     		str	r0, [r0, #4]
  35 0002 0060     		str	r0, [r0]
  36 0004 7047     		bx	lr
  37              		.cfi_endproc
  38              	.LFE7:
  39              		.size	chCondInit, .-chCondInit
  40 0006 00BF     		.section	.text.chCondSignal,"ax",%progbits
  41              		.align	1
  42              		.p2align 2,,3
  43              		.global	chCondSignal
  44              		.syntax unified
  45              		.thumb
  46              		.thumb_func
  47              		.fpu softvfp
  48              		.type	chCondSignal, %function
  49              	chCondSignal:
  50              	.LFB8:
  51              		.loc 1 66 0
  52              		.cfi_startproc
  53              		@ args = 0, pretend = 0, frame = 0
  54              		@ frame_needed = 0, uses_anonymous_args = 0
  55              	.LVL1:
  56              	.LBB20:
  57              		.loc 1 70 0
ARM GAS  /tmp/cc9cuD55.s 			page 2


  58 0000 4023     		movs	r3, #64
  59              		.syntax unified
  60              	@ 70 "../../os/kernel/src/chcond.c" 1
  61 0002 83F31188 		msr     BASEPRI, r3
  62              	@ 0 "" 2
  63              		.thumb
  64              		.syntax unified
  65              	.LBE20:
  66              		.loc 1 71 0
  67 0006 0268     		ldr	r2, [r0]
  68 0008 8242     		cmp	r2, r0
  69 000a 0CD0     		beq	.L5
  70 000c 0346     		mov	r3, r0
  71              	.LVL2:
  72              		.loc 1 66 0
  73 000e 10B5     		push	{r4, lr}
  74              		.cfi_def_cfa_offset 8
  75              		.cfi_offset 4, -8
  76              		.cfi_offset 14, -4
  77              	.LBB21:
  78              	.LBB22:
  79              		.file 2 "../../os/kernel/include/chinline.h"
  80              		.loc 2 55 0
  81 0010 1468     		ldr	r4, [r2]
  82              	.LBE22:
  83              	.LBE21:
  84              		.loc 1 72 0
  85 0012 1046     		mov	r0, r2
  86              	.LVL3:
  87              	.LBB25:
  88              	.LBB23:
  89              		.loc 2 55 0
  90 0014 1C60     		str	r4, [r3]
  91              	.LBE23:
  92              	.LBE25:
  93              		.loc 1 72 0
  94 0016 0021     		movs	r1, #0
  95              	.LBB26:
  96              	.LBB24:
  97              		.loc 2 55 0
  98 0018 6360     		str	r3, [r4, #4]
  99              	.LVL4:
 100              	.LBE24:
 101              	.LBE26:
 102              		.loc 1 72 0
 103 001a FFF7FEFF 		bl	chSchWakeupS
 104              	.LVL5:
 105              	.LBB27:
 106              		.loc 1 73 0
 107 001e 0023     		movs	r3, #0
 108              		.syntax unified
 109              	@ 73 "../../os/kernel/src/chcond.c" 1
 110 0020 83F31188 		msr     BASEPRI, r3
 111              	@ 0 "" 2
 112              		.thumb
 113              		.syntax unified
 114 0024 10BD     		pop	{r4, pc}
ARM GAS  /tmp/cc9cuD55.s 			page 3


 115              	.LVL6:
 116              	.L5:
 117              		.cfi_def_cfa_offset 0
 118              		.cfi_restore 4
 119              		.cfi_restore 14
 120 0026 0023     		movs	r3, #0
 121              		.syntax unified
 122              	@ 73 "../../os/kernel/src/chcond.c" 1
 123 0028 83F31188 		msr     BASEPRI, r3
 124              	@ 0 "" 2
 125              		.thumb
 126              		.syntax unified
 127 002c 7047     		bx	lr
 128              	.LBE27:
 129              		.cfi_endproc
 130              	.LFE8:
 131              		.size	chCondSignal, .-chCondSignal
 132 002e 00BF     		.section	.text.chCondSignalI,"ax",%progbits
 133              		.align	1
 134              		.p2align 2,,3
 135              		.global	chCondSignalI
 136              		.syntax unified
 137              		.thumb
 138              		.thumb_func
 139              		.fpu softvfp
 140              		.type	chCondSignalI, %function
 141              	chCondSignalI:
 142              	.LFB9:
 143              		.loc 1 87 0
 144              		.cfi_startproc
 145              		@ args = 0, pretend = 0, frame = 0
 146              		@ frame_needed = 0, uses_anonymous_args = 0
 147              	.LVL7:
 148              		.loc 1 92 0
 149 0000 0268     		ldr	r2, [r0]
 150 0002 8242     		cmp	r2, r0
 151 0004 0AD0     		beq	.L12
 152              		.loc 1 87 0
 153 0006 08B5     		push	{r3, lr}
 154              		.cfi_def_cfa_offset 8
 155              		.cfi_offset 3, -8
 156              		.cfi_offset 14, -4
 157 0008 0346     		mov	r3, r0
 158              	.LVL8:
 159              	.LBB28:
 160              	.LBB29:
 161              		.loc 2 55 0
 162 000a 1168     		ldr	r1, [r2]
 163              	.LBE29:
 164              	.LBE28:
 165              		.loc 1 93 0
 166 000c 1046     		mov	r0, r2
 167              	.LVL9:
 168              	.LBB31:
 169              	.LBB30:
 170              		.loc 2 55 0
 171 000e 1960     		str	r1, [r3]
ARM GAS  /tmp/cc9cuD55.s 			page 4


 172 0010 4B60     		str	r3, [r1, #4]
 173              	.LVL10:
 174              	.LBE30:
 175              	.LBE31:
 176              		.loc 1 93 0
 177 0012 FFF7FEFF 		bl	chSchReadyI
 178              	.LVL11:
 179 0016 0023     		movs	r3, #0
 180 0018 4362     		str	r3, [r0, #36]
 181 001a 08BD     		pop	{r3, pc}
 182              	.LVL12:
 183              	.L12:
 184              		.cfi_def_cfa_offset 0
 185              		.cfi_restore 3
 186              		.cfi_restore 14
 187 001c 7047     		bx	lr
 188              		.cfi_endproc
 189              	.LFE9:
 190              		.size	chCondSignalI, .-chCondSignalI
 191 001e 00BF     		.section	.text.chCondBroadcast,"ax",%progbits
 192              		.align	1
 193              		.p2align 2,,3
 194              		.global	chCondBroadcast
 195              		.syntax unified
 196              		.thumb
 197              		.thumb_func
 198              		.fpu softvfp
 199              		.type	chCondBroadcast, %function
 200              	chCondBroadcast:
 201              	.LFB10:
 202              		.loc 1 103 0
 203              		.cfi_startproc
 204              		@ args = 0, pretend = 0, frame = 0
 205              		@ frame_needed = 0, uses_anonymous_args = 0
 206              	.LVL13:
 207 0000 38B5     		push	{r3, r4, r5, lr}
 208              		.cfi_def_cfa_offset 16
 209              		.cfi_offset 3, -16
 210              		.cfi_offset 4, -12
 211              		.cfi_offset 5, -8
 212              		.cfi_offset 14, -4
 213              		.loc 1 103 0
 214 0002 0446     		mov	r4, r0
 215              	.LBB32:
 216              		.loc 1 105 0
 217 0004 4023     		movs	r3, #64
 218              		.syntax unified
 219              	@ 105 "../../os/kernel/src/chcond.c" 1
 220 0006 83F31188 		msr     BASEPRI, r3
 221              	@ 0 "" 2
 222              	.LVL14:
 223              		.thumb
 224              		.syntax unified
 225              	.LBE32:
 226              	.LBB33:
 227              	.LBB34:
 228              		.loc 1 130 0
ARM GAS  /tmp/cc9cuD55.s 			page 5


 229 000a 0068     		ldr	r0, [r0]
 230              	.LVL15:
 231 000c A042     		cmp	r0, r4
 232              		.loc 1 131 0
 233 000e 18BF     		it	ne
 234 0010 6FF00105 		mvnne	r5, #1
 235              		.loc 1 130 0
 236 0014 08D0     		beq	.L18
 237              	.L17:
 238              	.LVL16:
 239              	.LBB35:
 240              	.LBB36:
 241              		.loc 2 55 0
 242 0016 0368     		ldr	r3, [r0]
 243 0018 2360     		str	r3, [r4]
 244 001a 5C60     		str	r4, [r3, #4]
 245              	.LVL17:
 246              	.LBE36:
 247              	.LBE35:
 248              		.loc 1 131 0
 249 001c FFF7FEFF 		bl	chSchReadyI
 250              	.LVL18:
 251 0020 4562     		str	r5, [r0, #36]
 252              		.loc 1 130 0
 253 0022 2068     		ldr	r0, [r4]
 254 0024 A042     		cmp	r0, r4
 255 0026 F6D1     		bne	.L17
 256              	.L18:
 257              	.LVL19:
 258              	.LBE34:
 259              	.LBE33:
 260              		.loc 1 107 0
 261 0028 FFF7FEFF 		bl	chSchRescheduleS
 262              	.LVL20:
 263              	.LBB37:
 264              		.loc 1 108 0
 265 002c 0023     		movs	r3, #0
 266              		.syntax unified
 267              	@ 108 "../../os/kernel/src/chcond.c" 1
 268 002e 83F31188 		msr     BASEPRI, r3
 269              	@ 0 "" 2
 270              		.thumb
 271              		.syntax unified
 272              	.LBE37:
 273              		.loc 1 109 0
 274 0032 38BD     		pop	{r3, r4, r5, pc}
 275              		.cfi_endproc
 276              	.LFE10:
 277              		.size	chCondBroadcast, .-chCondBroadcast
 278              		.section	.text.chCondBroadcastI,"ax",%progbits
 279              		.align	1
 280              		.p2align 2,,3
 281              		.global	chCondBroadcastI
 282              		.syntax unified
 283              		.thumb
 284              		.thumb_func
 285              		.fpu softvfp
ARM GAS  /tmp/cc9cuD55.s 			page 6


 286              		.type	chCondBroadcastI, %function
 287              	chCondBroadcastI:
 288              	.LFB11:
 289              		.loc 1 122 0
 290              		.cfi_startproc
 291              		@ args = 0, pretend = 0, frame = 0
 292              		@ frame_needed = 0, uses_anonymous_args = 0
 293              	.LVL21:
 294 0000 38B5     		push	{r3, r4, r5, lr}
 295              		.cfi_def_cfa_offset 16
 296              		.cfi_offset 3, -16
 297              		.cfi_offset 4, -12
 298              		.cfi_offset 5, -8
 299              		.cfi_offset 14, -4
 300              		.loc 1 122 0
 301 0002 0446     		mov	r4, r0
 302              		.loc 1 130 0
 303 0004 0068     		ldr	r0, [r0]
 304              	.LVL22:
 305 0006 A042     		cmp	r0, r4
 306 0008 0AD0     		beq	.L22
 307              		.loc 1 131 0
 308 000a 6FF00105 		mvn	r5, #1
 309              	.L24:
 310              	.LVL23:
 311              	.LBB38:
 312              	.LBB39:
 313              		.loc 2 55 0
 314 000e 0368     		ldr	r3, [r0]
 315 0010 2360     		str	r3, [r4]
 316 0012 5C60     		str	r4, [r3, #4]
 317              	.LVL24:
 318              	.LBE39:
 319              	.LBE38:
 320              		.loc 1 131 0
 321 0014 FFF7FEFF 		bl	chSchReadyI
 322              	.LVL25:
 323 0018 4562     		str	r5, [r0, #36]
 324              		.loc 1 130 0
 325 001a 2068     		ldr	r0, [r4]
 326 001c A042     		cmp	r0, r4
 327 001e F6D1     		bne	.L24
 328              	.L22:
 329 0020 38BD     		pop	{r3, r4, r5, pc}
 330              		.cfi_endproc
 331              	.LFE11:
 332              		.size	chCondBroadcastI, .-chCondBroadcastI
 333 0022 00BF     		.section	.text.chCondWaitS,"ax",%progbits
 334              		.align	1
 335              		.p2align 2,,3
 336              		.global	chCondWaitS
 337              		.syntax unified
 338              		.thumb
 339              		.thumb_func
 340              		.fpu softvfp
 341              		.type	chCondWaitS, %function
 342              	chCondWaitS:
ARM GAS  /tmp/cc9cuD55.s 			page 7


 343              	.LFB13:
 344              		.loc 1 177 0
 345              		.cfi_startproc
 346              		@ args = 0, pretend = 0, frame = 0
 347              		@ frame_needed = 0, uses_anonymous_args = 0
 348              	.LVL26:
 349              		.loc 1 178 0
 350 0000 0F4B     		ldr	r3, .L36
 351              		.loc 1 177 0
 352 0002 70B5     		push	{r4, r5, r6, lr}
 353              		.cfi_def_cfa_offset 16
 354              		.cfi_offset 4, -16
 355              		.cfi_offset 5, -12
 356              		.cfi_offset 6, -8
 357              		.cfi_offset 14, -4
 358              		.loc 1 177 0
 359 0004 0546     		mov	r5, r0
 360              		.loc 1 178 0
 361 0006 9C69     		ldr	r4, [r3, #24]
 362              	.LVL27:
 363              		.loc 1 188 0
 364 0008 FFF7FEFF 		bl	chMtxUnlockS
 365              	.LVL28:
 366              		.loc 1 190 0
 367 000c 2B46     		mov	r3, r5
 368              		.loc 1 188 0
 369 000e 0646     		mov	r6, r0
 370              	.LVL29:
 371              		.loc 1 189 0
 372 0010 6562     		str	r5, [r4, #36]
 373              	.LVL30:
 374 0012 03E0     		b	.L30
 375              	.LVL31:
 376              	.L35:
 377              	.LBB40:
 378              	.LBB41:
 379              		.loc 2 39 0
 380 0014 9968     		ldr	r1, [r3, #8]
 381 0016 A268     		ldr	r2, [r4, #8]
 382 0018 9142     		cmp	r1, r2
 383 001a 02D3     		bcc	.L31
 384              	.L30:
 385              		.loc 2 38 0
 386 001c 1B68     		ldr	r3, [r3]
 387              	.LVL32:
 388              		.loc 2 39 0
 389 001e 9D42     		cmp	r5, r3
 390 0020 F8D1     		bne	.L35
 391              	.L31:
 392              		.loc 2 41 0
 393 0022 5A68     		ldr	r2, [r3, #4]
 394              	.LBE41:
 395              	.LBE40:
 396              		.loc 1 191 0
 397 0024 0520     		movs	r0, #5
 398              	.LVL33:
 399              	.LBB43:
ARM GAS  /tmp/cc9cuD55.s 			page 8


 400              	.LBB42:
 401              		.loc 2 40 0
 402 0026 2360     		str	r3, [r4]
 403              		.loc 2 41 0
 404 0028 6260     		str	r2, [r4, #4]
 405              		.loc 2 42 0
 406 002a 5C60     		str	r4, [r3, #4]
 407 002c 1460     		str	r4, [r2]
 408              	.LVL34:
 409              	.LBE42:
 410              	.LBE43:
 411              		.loc 1 191 0
 412 002e FFF7FEFF 		bl	chSchGoSleepS
 413              	.LVL35:
 414              		.loc 1 192 0
 415 0032 646A     		ldr	r4, [r4, #36]
 416              	.LVL36:
 417              		.loc 1 193 0
 418 0034 3046     		mov	r0, r6
 419 0036 FFF7FEFF 		bl	chMtxLockS
 420              	.LVL37:
 421              		.loc 1 195 0
 422 003a 2046     		mov	r0, r4
 423 003c 70BD     		pop	{r4, r5, r6, pc}
 424              	.LVL38:
 425              	.L37:
 426 003e 00BF     		.align	2
 427              	.L36:
 428 0040 00000000 		.word	rlist
 429              		.cfi_endproc
 430              	.LFE13:
 431              		.size	chCondWaitS, .-chCondWaitS
 432              		.section	.text.chCondWait,"ax",%progbits
 433              		.align	1
 434              		.p2align 2,,3
 435              		.global	chCondWait
 436              		.syntax unified
 437              		.thumb
 438              		.thumb_func
 439              		.fpu softvfp
 440              		.type	chCondWait, %function
 441              	chCondWait:
 442              	.LFB12:
 443              		.loc 1 151 0
 444              		.cfi_startproc
 445              		@ args = 0, pretend = 0, frame = 0
 446              		@ frame_needed = 0, uses_anonymous_args = 0
 447              	.LVL39:
 448 0000 08B5     		push	{r3, lr}
 449              		.cfi_def_cfa_offset 8
 450              		.cfi_offset 3, -8
 451              		.cfi_offset 14, -4
 452              	.LBB44:
 453              		.loc 1 154 0
 454 0002 4023     		movs	r3, #64
 455              		.syntax unified
 456              	@ 154 "../../os/kernel/src/chcond.c" 1
ARM GAS  /tmp/cc9cuD55.s 			page 9


 457 0004 83F31188 		msr     BASEPRI, r3
 458              	@ 0 "" 2
 459              		.thumb
 460              		.syntax unified
 461              	.LBE44:
 462              		.loc 1 155 0
 463 0008 FFF7FEFF 		bl	chCondWaitS
 464              	.LVL40:
 465              	.LBB45:
 466              		.loc 1 156 0
 467 000c 0023     		movs	r3, #0
 468              		.syntax unified
 469              	@ 156 "../../os/kernel/src/chcond.c" 1
 470 000e 83F31188 		msr     BASEPRI, r3
 471              	@ 0 "" 2
 472              		.thumb
 473              		.syntax unified
 474              	.LBE45:
 475              		.loc 1 158 0
 476 0012 08BD     		pop	{r3, pc}
 477              		.cfi_endproc
 478              	.LFE12:
 479              		.size	chCondWait, .-chCondWait
 480              		.section	.text.chCondWaitTimeoutS,"ax",%progbits
 481              		.align	1
 482              		.p2align 2,,3
 483              		.global	chCondWaitTimeoutS
 484              		.syntax unified
 485              		.thumb
 486              		.thumb_func
 487              		.fpu softvfp
 488              		.type	chCondWaitTimeoutS, %function
 489              	chCondWaitTimeoutS:
 490              	.LFB15:
 491              		.loc 1 263 0
 492              		.cfi_startproc
 493              		@ args = 0, pretend = 0, frame = 0
 494              		@ frame_needed = 0, uses_anonymous_args = 0
 495              	.LVL41:
 496 0000 F8B5     		push	{r3, r4, r5, r6, r7, lr}
 497              		.cfi_def_cfa_offset 24
 498              		.cfi_offset 3, -24
 499              		.cfi_offset 4, -20
 500              		.cfi_offset 5, -16
 501              		.cfi_offset 6, -12
 502              		.cfi_offset 7, -8
 503              		.cfi_offset 14, -4
 504              		.loc 1 263 0
 505 0002 0546     		mov	r5, r0
 506 0004 0F46     		mov	r7, r1
 507              		.loc 1 273 0
 508 0006 FFF7FEFF 		bl	chMtxUnlockS
 509              	.LVL42:
 510              		.loc 1 274 0
 511 000a 0F4A     		ldr	r2, .L48
 512              		.loc 1 273 0
 513 000c 0646     		mov	r6, r0
ARM GAS  /tmp/cc9cuD55.s 			page 10


 514              	.LVL43:
 515              		.loc 1 274 0
 516 000e 9469     		ldr	r4, [r2, #24]
 517              		.loc 1 275 0
 518 0010 2B46     		mov	r3, r5
 519              		.loc 1 274 0
 520 0012 6562     		str	r5, [r4, #36]
 521              	.LVL44:
 522 0014 03E0     		b	.L44
 523              	.LVL45:
 524              	.L41:
 525              	.LBB46:
 526              	.LBB47:
 527              		.loc 2 39 0
 528 0016 9868     		ldr	r0, [r3, #8]
 529 0018 A268     		ldr	r2, [r4, #8]
 530 001a 9042     		cmp	r0, r2
 531 001c 02D3     		bcc	.L45
 532              	.L44:
 533              		.loc 2 38 0
 534 001e 1B68     		ldr	r3, [r3]
 535              	.LVL46:
 536              		.loc 2 39 0
 537 0020 9D42     		cmp	r5, r3
 538 0022 F8D1     		bne	.L41
 539              	.L45:
 540              		.loc 2 41 0
 541 0024 5A68     		ldr	r2, [r3, #4]
 542              	.LBE47:
 543              	.LBE46:
 544              		.loc 1 276 0
 545 0026 3946     		mov	r1, r7
 546              	.LBB50:
 547              	.LBB48:
 548              		.loc 2 40 0
 549 0028 2360     		str	r3, [r4]
 550              		.loc 2 41 0
 551 002a 6260     		str	r2, [r4, #4]
 552              	.LBE48:
 553              	.LBE50:
 554              		.loc 1 276 0
 555 002c 0520     		movs	r0, #5
 556              	.LBB51:
 557              	.LBB49:
 558              		.loc 2 42 0
 559 002e 5C60     		str	r4, [r3, #4]
 560 0030 1460     		str	r4, [r2]
 561              	.LVL47:
 562              	.LBE49:
 563              	.LBE51:
 564              		.loc 1 276 0
 565 0032 FFF7FEFF 		bl	chSchGoSleepTimeoutS
 566              	.LVL48:
 567              		.loc 1 277 0
 568 0036 431C     		adds	r3, r0, #1
 569              		.loc 1 276 0
 570 0038 0446     		mov	r4, r0
ARM GAS  /tmp/cc9cuD55.s 			page 11


 571              	.LVL49:
 572              		.loc 1 277 0
 573 003a 02D0     		beq	.L40
 574              		.loc 1 278 0
 575 003c 3046     		mov	r0, r6
 576              	.LVL50:
 577 003e FFF7FEFF 		bl	chMtxLockS
 578              	.LVL51:
 579              	.L40:
 580              		.loc 1 280 0
 581 0042 2046     		mov	r0, r4
 582 0044 F8BD     		pop	{r3, r4, r5, r6, r7, pc}
 583              	.LVL52:
 584              	.L49:
 585 0046 00BF     		.align	2
 586              	.L48:
 587 0048 00000000 		.word	rlist
 588              		.cfi_endproc
 589              	.LFE15:
 590              		.size	chCondWaitTimeoutS, .-chCondWaitTimeoutS
 591              		.section	.text.chCondWaitTimeout,"ax",%progbits
 592              		.align	1
 593              		.p2align 2,,3
 594              		.global	chCondWaitTimeout
 595              		.syntax unified
 596              		.thumb
 597              		.thumb_func
 598              		.fpu softvfp
 599              		.type	chCondWaitTimeout, %function
 600              	chCondWaitTimeout:
 601              	.LFB14:
 602              		.loc 1 226 0
 603              		.cfi_startproc
 604              		@ args = 0, pretend = 0, frame = 0
 605              		@ frame_needed = 0, uses_anonymous_args = 0
 606              	.LVL53:
 607 0000 08B5     		push	{r3, lr}
 608              		.cfi_def_cfa_offset 8
 609              		.cfi_offset 3, -8
 610              		.cfi_offset 14, -4
 611              	.LBB52:
 612              		.loc 1 229 0
 613 0002 4023     		movs	r3, #64
 614              		.syntax unified
 615              	@ 229 "../../os/kernel/src/chcond.c" 1
 616 0004 83F31188 		msr     BASEPRI, r3
 617              	@ 0 "" 2
 618              		.thumb
 619              		.syntax unified
 620              	.LBE52:
 621              		.loc 1 230 0
 622 0008 FFF7FEFF 		bl	chCondWaitTimeoutS
 623              	.LVL54:
 624              	.LBB53:
 625              		.loc 1 231 0
 626 000c 0023     		movs	r3, #0
 627              		.syntax unified
ARM GAS  /tmp/cc9cuD55.s 			page 12


 628              	@ 231 "../../os/kernel/src/chcond.c" 1
 629 000e 83F31188 		msr     BASEPRI, r3
 630              	@ 0 "" 2
 631              		.thumb
 632              		.syntax unified
 633              	.LBE53:
 634              		.loc 1 233 0
 635 0012 08BD     		pop	{r3, pc}
 636              		.cfi_endproc
 637              	.LFE14:
 638              		.size	chCondWaitTimeout, .-chCondWaitTimeout
 639              		.text
 640              	.Letext0:
 641              		.file 3 "/usr/include/newlib/machine/_default_types.h"
 642              		.file 4 "/usr/include/newlib/sys/_stdint.h"
 643              		.file 5 "../../os/ports/GCC/ARMCMx/chtypes.h"
 644              		.file 6 "../../os/kernel/include/chlists.h"
 645              		.file 7 "../../os/kernel/include/chthreads.h"
 646              		.file 8 "../../os/ports/GCC/ARMCMx/chcore_v7m.h"
 647              		.file 9 "../../os/kernel/include/chvt.h"
 648              		.file 10 "../../os/kernel/include/chschd.h"
 649              		.file 11 "../../os/kernel/include/chmtx.h"
 650              		.file 12 "../../os/kernel/include/chcond.h"
 651              		.file 13 "../../os/kernel/include/chregistry.h"
 652              		.file 14 "../../os/kernel/include/ch.h"
 653              		.section	.debug_info,"",%progbits
 654              	.Ldebug_info0:
 655 0000 C20B0000 		.4byte	0xbc2
 656 0004 0400     		.2byte	0x4
 657 0006 00000000 		.4byte	.Ldebug_abbrev0
 658 000a 04       		.byte	0x4
 659 000b 01       		.uleb128 0x1
 660 000c B4020000 		.4byte	.LASF122
 661 0010 0C       		.byte	0xc
 662 0011 B3010000 		.4byte	.LASF123
 663 0015 0D000000 		.4byte	.LASF124
 664 0019 70000000 		.4byte	.Ldebug_ranges0+0x70
 665 001d 00000000 		.4byte	0
 666 0021 00000000 		.4byte	.Ldebug_line0
 667 0025 02       		.uleb128 0x2
 668 0026 04       		.byte	0x4
 669 0027 05       		.byte	0x5
 670 0028 696E7400 		.ascii	"int\000"
 671 002c 03       		.uleb128 0x3
 672 002d 04       		.byte	0x4
 673 002e 07       		.byte	0x7
 674 002f EA010000 		.4byte	.LASF0
 675 0033 03       		.uleb128 0x3
 676 0034 08       		.byte	0x8
 677 0035 05       		.byte	0x5
 678 0036 D9000000 		.4byte	.LASF1
 679 003a 03       		.uleb128 0x3
 680 003b 08       		.byte	0x8
 681 003c 04       		.byte	0x4
 682 003d 50030000 		.4byte	.LASF2
 683 0041 03       		.uleb128 0x3
 684 0042 01       		.byte	0x1
ARM GAS  /tmp/cc9cuD55.s 			page 13


 685 0043 06       		.byte	0x6
 686 0044 E7000000 		.4byte	.LASF3
 687 0048 04       		.uleb128 0x4
 688 0049 75000000 		.4byte	.LASF6
 689 004d 03       		.byte	0x3
 690 004e 1D       		.byte	0x1d
 691 004f 53000000 		.4byte	0x53
 692 0053 03       		.uleb128 0x3
 693 0054 01       		.byte	0x1
 694 0055 08       		.byte	0x8
 695 0056 1A040000 		.4byte	.LASF4
 696 005a 03       		.uleb128 0x3
 697 005b 02       		.byte	0x2
 698 005c 05       		.byte	0x5
 699 005d 32040000 		.4byte	.LASF5
 700 0061 04       		.uleb128 0x4
 701 0062 E9040000 		.4byte	.LASF7
 702 0066 03       		.byte	0x3
 703 0067 2B       		.byte	0x2b
 704 0068 6C000000 		.4byte	0x6c
 705 006c 03       		.uleb128 0x3
 706 006d 02       		.byte	0x2
 707 006e 07       		.byte	0x7
 708 006f 39020000 		.4byte	.LASF8
 709 0073 04       		.uleb128 0x4
 710 0074 1C050000 		.4byte	.LASF9
 711 0078 03       		.byte	0x3
 712 0079 3F       		.byte	0x3f
 713 007a 7E000000 		.4byte	0x7e
 714 007e 03       		.uleb128 0x3
 715 007f 04       		.byte	0x4
 716 0080 05       		.byte	0x5
 717 0081 32010000 		.4byte	.LASF10
 718 0085 04       		.uleb128 0x4
 719 0086 97010000 		.4byte	.LASF11
 720 008a 03       		.byte	0x3
 721 008b 41       		.byte	0x41
 722 008c 90000000 		.4byte	0x90
 723 0090 03       		.uleb128 0x3
 724 0091 04       		.byte	0x4
 725 0092 07       		.byte	0x7
 726 0093 FF010000 		.4byte	.LASF12
 727 0097 04       		.uleb128 0x4
 728 0098 D1030000 		.4byte	.LASF13
 729 009c 03       		.byte	0x3
 730 009d 5B       		.byte	0x5b
 731 009e A2000000 		.4byte	0xa2
 732 00a2 03       		.uleb128 0x3
 733 00a3 08       		.byte	0x8
 734 00a4 07       		.byte	0x7
 735 00a5 86000000 		.4byte	.LASF14
 736 00a9 04       		.uleb128 0x4
 737 00aa 86050000 		.4byte	.LASF15
 738 00ae 04       		.byte	0x4
 739 00af 18       		.byte	0x18
 740 00b0 48000000 		.4byte	0x48
 741 00b4 04       		.uleb128 0x4
ARM GAS  /tmp/cc9cuD55.s 			page 14


 742 00b5 5B010000 		.4byte	.LASF16
 743 00b9 04       		.byte	0x4
 744 00ba 24       		.byte	0x24
 745 00bb 61000000 		.4byte	0x61
 746 00bf 04       		.uleb128 0x4
 747 00c0 12040000 		.4byte	.LASF17
 748 00c4 04       		.byte	0x4
 749 00c5 2C       		.byte	0x2c
 750 00c6 73000000 		.4byte	0x73
 751 00ca 04       		.uleb128 0x4
 752 00cb AE040000 		.4byte	.LASF18
 753 00cf 04       		.byte	0x4
 754 00d0 30       		.byte	0x30
 755 00d1 85000000 		.4byte	0x85
 756 00d5 04       		.uleb128 0x4
 757 00d6 6C000000 		.4byte	.LASF19
 758 00da 04       		.byte	0x4
 759 00db 3C       		.byte	0x3c
 760 00dc 97000000 		.4byte	0x97
 761 00e0 03       		.uleb128 0x3
 762 00e1 01       		.byte	0x1
 763 00e2 02       		.byte	0x2
 764 00e3 0C040000 		.4byte	.LASF20
 765 00e7 04       		.uleb128 0x4
 766 00e8 67020000 		.4byte	.LASF21
 767 00ec 05       		.byte	0x5
 768 00ed 25       		.byte	0x25
 769 00ee A9000000 		.4byte	0xa9
 770 00f2 04       		.uleb128 0x4
 771 00f3 47010000 		.4byte	.LASF22
 772 00f7 05       		.byte	0x5
 773 00f8 26       		.byte	0x26
 774 00f9 A9000000 		.4byte	0xa9
 775 00fd 04       		.uleb128 0x4
 776 00fe DC030000 		.4byte	.LASF23
 777 0102 05       		.byte	0x5
 778 0103 27       		.byte	0x27
 779 0104 A9000000 		.4byte	0xa9
 780 0108 04       		.uleb128 0x4
 781 0109 20010000 		.4byte	.LASF24
 782 010d 05       		.byte	0x5
 783 010e 28       		.byte	0x28
 784 010f A9000000 		.4byte	0xa9
 785 0113 04       		.uleb128 0x4
 786 0114 F6030000 		.4byte	.LASF25
 787 0118 05       		.byte	0x5
 788 0119 29       		.byte	0x29
 789 011a CA000000 		.4byte	0xca
 790 011e 04       		.uleb128 0x4
 791 011f 59020000 		.4byte	.LASF26
 792 0123 05       		.byte	0x5
 793 0124 2A       		.byte	0x2a
 794 0125 BF000000 		.4byte	0xbf
 795 0129 04       		.uleb128 0x4
 796 012a 7B020000 		.4byte	.LASF27
 797 012e 05       		.byte	0x5
 798 012f 2C       		.byte	0x2c
ARM GAS  /tmp/cc9cuD55.s 			page 15


 799 0130 CA000000 		.4byte	0xca
 800 0134 04       		.uleb128 0x4
 801 0135 07050000 		.4byte	.LASF28
 802 0139 05       		.byte	0x5
 803 013a 2E       		.byte	0x2e
 804 013b CA000000 		.4byte	0xca
 805 013f 05       		.uleb128 0x5
 806 0140 34010000 		.4byte	0x134
 807 0144 04       		.uleb128 0x4
 808 0145 86040000 		.4byte	.LASF29
 809 0149 06       		.byte	0x6
 810 014a 23       		.byte	0x23
 811 014b 4F010000 		.4byte	0x14f
 812 014f 06       		.uleb128 0x6
 813 0150 86040000 		.4byte	.LASF29
 814 0154 48       		.byte	0x48
 815 0155 07       		.byte	0x7
 816 0156 57       		.byte	0x57
 817 0157 4C020000 		.4byte	0x24c
 818 015b 07       		.uleb128 0x7
 819 015c 68040000 		.4byte	.LASF30
 820 0160 07       		.byte	0x7
 821 0161 58       		.byte	0x58
 822 0162 6D020000 		.4byte	0x26d
 823 0166 00       		.byte	0
 824 0167 07       		.uleb128 0x7
 825 0168 EF030000 		.4byte	.LASF31
 826 016c 07       		.byte	0x7
 827 016d 5A       		.byte	0x5a
 828 016e 6D020000 		.4byte	0x26d
 829 0172 04       		.byte	0x4
 830 0173 07       		.uleb128 0x7
 831 0174 C5000000 		.4byte	.LASF32
 832 0178 07       		.byte	0x7
 833 0179 5C       		.byte	0x5c
 834 017a 13010000 		.4byte	0x113
 835 017e 08       		.byte	0x8
 836 017f 07       		.uleb128 0x7
 837 0180 F5050000 		.4byte	.LASF33
 838 0184 07       		.byte	0x7
 839 0185 5D       		.byte	0x5d
 840 0186 32030000 		.4byte	0x332
 841 018a 0C       		.byte	0xc
 842 018b 07       		.uleb128 0x7
 843 018c 6E010000 		.4byte	.LASF34
 844 0190 07       		.byte	0x7
 845 0191 5F       		.byte	0x5f
 846 0192 6D020000 		.4byte	0x26d
 847 0196 10       		.byte	0x10
 848 0197 07       		.uleb128 0x7
 849 0198 87030000 		.4byte	.LASF35
 850 019c 07       		.byte	0x7
 851 019d 60       		.byte	0x60
 852 019e 6D020000 		.4byte	0x26d
 853 01a2 14       		.byte	0x14
 854 01a3 07       		.uleb128 0x7
 855 01a4 A2050000 		.4byte	.LASF36
ARM GAS  /tmp/cc9cuD55.s 			page 16


 856 01a8 07       		.byte	0x7
 857 01a9 67       		.byte	0x67
 858 01aa 21050000 		.4byte	0x521
 859 01ae 18       		.byte	0x18
 860 01af 07       		.uleb128 0x7
 861 01b0 3C040000 		.4byte	.LASF37
 862 01b4 07       		.byte	0x7
 863 01b5 72       		.byte	0x72
 864 01b6 F2000000 		.4byte	0xf2
 865 01ba 1C       		.byte	0x1c
 866 01bb 07       		.uleb128 0x7
 867 01bc 7E040000 		.4byte	.LASF38
 868 01c0 07       		.byte	0x7
 869 01c1 76       		.byte	0x76
 870 01c2 E7000000 		.4byte	0xe7
 871 01c6 1D       		.byte	0x1d
 872 01c7 07       		.uleb128 0x7
 873 01c8 6F050000 		.4byte	.LASF39
 874 01cc 07       		.byte	0x7
 875 01cd 7B       		.byte	0x7b
 876 01ce FD000000 		.4byte	0xfd
 877 01d2 1E       		.byte	0x1e
 878 01d3 07       		.uleb128 0x7
 879 01d4 44040000 		.4byte	.LASF40
 880 01d8 07       		.byte	0x7
 881 01d9 81       		.byte	0x81
 882 01da 08010000 		.4byte	0x108
 883 01de 1F       		.byte	0x1f
 884 01df 07       		.uleb128 0x7
 885 01e0 3D050000 		.4byte	.LASF41
 886 01e4 07       		.byte	0x7
 887 01e5 88       		.byte	0x88
 888 01e6 3F010000 		.4byte	0x13f
 889 01ea 20       		.byte	0x20
 890 01eb 08       		.uleb128 0x8
 891 01ec 705F7500 		.ascii	"p_u\000"
 892 01f0 07       		.byte	0x7
 893 01f1 AD       		.byte	0xad
 894 01f2 EC040000 		.4byte	0x4ec
 895 01f6 24       		.byte	0x24
 896 01f7 07       		.uleb128 0x7
 897 01f8 FB050000 		.4byte	.LASF42
 898 01fc 07       		.byte	0x7
 899 01fd B2       		.byte	0xb2
 900 01fe 93020000 		.4byte	0x293
 901 0202 28       		.byte	0x28
 902 0203 07       		.uleb128 0x7
 903 0204 4B050000 		.4byte	.LASF43
 904 0208 07       		.byte	0x7
 905 0209 B8       		.byte	0xb8
 906 020a 73020000 		.4byte	0x273
 907 020e 2C       		.byte	0x2c
 908 020f 07       		.uleb128 0x7
 909 0210 53000000 		.4byte	.LASF44
 910 0214 07       		.byte	0x7
 911 0215 BC       		.byte	0xbc
 912 0216 1E010000 		.4byte	0x11e
ARM GAS  /tmp/cc9cuD55.s 			page 17


 913 021a 34       		.byte	0x34
 914 021b 07       		.uleb128 0x7
 915 021c A3040000 		.4byte	.LASF45
 916 0220 07       		.byte	0x7
 917 0221 C2       		.byte	0xc2
 918 0222 29010000 		.4byte	0x129
 919 0226 38       		.byte	0x38
 920 0227 07       		.uleb128 0x7
 921 0228 28040000 		.4byte	.LASF46
 922 022c 07       		.byte	0x7
 923 022d C9       		.byte	0xc9
 924 022e 33050000 		.4byte	0x533
 925 0232 3C       		.byte	0x3c
 926 0233 07       		.uleb128 0x7
 927 0234 11050000 		.4byte	.LASF47
 928 0238 07       		.byte	0x7
 929 0239 CD       		.byte	0xcd
 930 023a 13010000 		.4byte	0x113
 931 023e 40       		.byte	0x40
 932 023f 07       		.uleb128 0x7
 933 0240 10010000 		.4byte	.LASF48
 934 0244 07       		.byte	0x7
 935 0245 D3       		.byte	0xd3
 936 0246 A9020000 		.4byte	0x2a9
 937 024a 44       		.byte	0x44
 938 024b 00       		.byte	0
 939 024c 09       		.uleb128 0x9
 940 024d 08       		.byte	0x8
 941 024e 06       		.byte	0x6
 942 024f 5A       		.byte	0x5a
 943 0250 6D020000 		.4byte	0x26d
 944 0254 07       		.uleb128 0x7
 945 0255 68040000 		.4byte	.LASF30
 946 0259 06       		.byte	0x6
 947 025a 5B       		.byte	0x5b
 948 025b 6D020000 		.4byte	0x26d
 949 025f 00       		.byte	0
 950 0260 07       		.uleb128 0x7
 951 0261 EF030000 		.4byte	.LASF31
 952 0265 06       		.byte	0x6
 953 0266 5D       		.byte	0x5d
 954 0267 6D020000 		.4byte	0x26d
 955 026b 04       		.byte	0x4
 956 026c 00       		.byte	0
 957 026d 0A       		.uleb128 0xa
 958 026e 04       		.byte	0x4
 959 026f 44010000 		.4byte	0x144
 960 0273 04       		.uleb128 0x4
 961 0274 95030000 		.4byte	.LASF49
 962 0278 06       		.byte	0x6
 963 0279 5F       		.byte	0x5f
 964 027a 4C020000 		.4byte	0x24c
 965 027e 09       		.uleb128 0x9
 966 027f 04       		.byte	0x4
 967 0280 06       		.byte	0x6
 968 0281 64       		.byte	0x64
 969 0282 93020000 		.4byte	0x293
ARM GAS  /tmp/cc9cuD55.s 			page 18


 970 0286 07       		.uleb128 0x7
 971 0287 68040000 		.4byte	.LASF30
 972 028b 06       		.byte	0x6
 973 028c 66       		.byte	0x66
 974 028d 6D020000 		.4byte	0x26d
 975 0291 00       		.byte	0
 976 0292 00       		.byte	0
 977 0293 04       		.uleb128 0x4
 978 0294 6F020000 		.4byte	.LASF50
 979 0298 06       		.byte	0x6
 980 0299 69       		.byte	0x69
 981 029a 7E020000 		.4byte	0x27e
 982 029e 04       		.uleb128 0x4
 983 029f A2010000 		.4byte	.LASF51
 984 02a3 08       		.byte	0x8
 985 02a4 DE       		.byte	0xde
 986 02a5 A9020000 		.4byte	0x2a9
 987 02a9 0B       		.uleb128 0xb
 988 02aa 04       		.byte	0x4
 989 02ab 04       		.uleb128 0x4
 990 02ac 8D020000 		.4byte	.LASF52
 991 02b0 08       		.byte	0x8
 992 02b1 E4       		.byte	0xe4
 993 02b2 D5000000 		.4byte	0xd5
 994 02b6 0C       		.uleb128 0xc
 995 02b7 44050000 		.4byte	.LASF53
 996 02bb 24       		.byte	0x24
 997 02bc 08       		.byte	0x8
 998 02bd 0501     		.2byte	0x105
 999 02bf 32030000 		.4byte	0x332
 1000 02c3 0D       		.uleb128 0xd
 1001 02c4 723400   		.ascii	"r4\000"
 1002 02c7 08       		.byte	0x8
 1003 02c8 1801     		.2byte	0x118
 1004 02ca 9E020000 		.4byte	0x29e
 1005 02ce 00       		.byte	0
 1006 02cf 0D       		.uleb128 0xd
 1007 02d0 723500   		.ascii	"r5\000"
 1008 02d3 08       		.byte	0x8
 1009 02d4 1901     		.2byte	0x119
 1010 02d6 9E020000 		.4byte	0x29e
 1011 02da 04       		.byte	0x4
 1012 02db 0D       		.uleb128 0xd
 1013 02dc 723600   		.ascii	"r6\000"
 1014 02df 08       		.byte	0x8
 1015 02e0 1A01     		.2byte	0x11a
 1016 02e2 9E020000 		.4byte	0x29e
 1017 02e6 08       		.byte	0x8
 1018 02e7 0D       		.uleb128 0xd
 1019 02e8 723700   		.ascii	"r7\000"
 1020 02eb 08       		.byte	0x8
 1021 02ec 1B01     		.2byte	0x11b
 1022 02ee 9E020000 		.4byte	0x29e
 1023 02f2 0C       		.byte	0xc
 1024 02f3 0D       		.uleb128 0xd
 1025 02f4 723800   		.ascii	"r8\000"
 1026 02f7 08       		.byte	0x8
ARM GAS  /tmp/cc9cuD55.s 			page 19


 1027 02f8 1C01     		.2byte	0x11c
 1028 02fa 9E020000 		.4byte	0x29e
 1029 02fe 10       		.byte	0x10
 1030 02ff 0D       		.uleb128 0xd
 1031 0300 723900   		.ascii	"r9\000"
 1032 0303 08       		.byte	0x8
 1033 0304 1D01     		.2byte	0x11d
 1034 0306 9E020000 		.4byte	0x29e
 1035 030a 14       		.byte	0x14
 1036 030b 0D       		.uleb128 0xd
 1037 030c 72313000 		.ascii	"r10\000"
 1038 0310 08       		.byte	0x8
 1039 0311 1E01     		.2byte	0x11e
 1040 0313 9E020000 		.4byte	0x29e
 1041 0317 18       		.byte	0x18
 1042 0318 0D       		.uleb128 0xd
 1043 0319 72313100 		.ascii	"r11\000"
 1044 031d 08       		.byte	0x8
 1045 031e 1F01     		.2byte	0x11f
 1046 0320 9E020000 		.4byte	0x29e
 1047 0324 1C       		.byte	0x1c
 1048 0325 0D       		.uleb128 0xd
 1049 0326 6C7200   		.ascii	"lr\000"
 1050 0329 08       		.byte	0x8
 1051 032a 2001     		.2byte	0x120
 1052 032c 9E020000 		.4byte	0x29e
 1053 0330 20       		.byte	0x20
 1054 0331 00       		.byte	0
 1055 0332 0C       		.uleb128 0xc
 1056 0333 31020000 		.4byte	.LASF54
 1057 0337 04       		.byte	0x4
 1058 0338 08       		.byte	0x8
 1059 0339 2A01     		.2byte	0x12a
 1060 033b 4D030000 		.4byte	0x34d
 1061 033f 0D       		.uleb128 0xd
 1062 0340 72313300 		.ascii	"r13\000"
 1063 0344 08       		.byte	0x8
 1064 0345 2B01     		.2byte	0x12b
 1065 0347 4D030000 		.4byte	0x34d
 1066 034b 00       		.byte	0
 1067 034c 00       		.byte	0
 1068 034d 0A       		.uleb128 0xa
 1069 034e 04       		.byte	0x4
 1070 034f B6020000 		.4byte	0x2b6
 1071 0353 03       		.uleb128 0x3
 1072 0354 04       		.byte	0x4
 1073 0355 07       		.byte	0x7
 1074 0356 47030000 		.4byte	.LASF55
 1075 035a 04       		.uleb128 0x4
 1076 035b 1A020000 		.4byte	.LASF56
 1077 035f 09       		.byte	0x9
 1078 0360 51       		.byte	0x51
 1079 0361 65030000 		.4byte	0x365
 1080 0365 0A       		.uleb128 0xa
 1081 0366 04       		.byte	0x4
 1082 0367 6B030000 		.4byte	0x36b
 1083 036b 0E       		.uleb128 0xe
ARM GAS  /tmp/cc9cuD55.s 			page 20


 1084 036c 76030000 		.4byte	0x376
 1085 0370 0F       		.uleb128 0xf
 1086 0371 A9020000 		.4byte	0x2a9
 1087 0375 00       		.byte	0
 1088 0376 04       		.uleb128 0x4
 1089 0377 CB040000 		.4byte	.LASF57
 1090 037b 09       		.byte	0x9
 1091 037c 56       		.byte	0x56
 1092 037d 81030000 		.4byte	0x381
 1093 0381 06       		.uleb128 0x6
 1094 0382 CB040000 		.4byte	.LASF57
 1095 0386 14       		.byte	0x14
 1096 0387 09       		.byte	0x9
 1097 0388 5D       		.byte	0x5d
 1098 0389 CA030000 		.4byte	0x3ca
 1099 038d 07       		.uleb128 0x7
 1100 038e F7010000 		.4byte	.LASF58
 1101 0392 09       		.byte	0x9
 1102 0393 5E       		.byte	0x5e
 1103 0394 CA030000 		.4byte	0x3ca
 1104 0398 00       		.byte	0
 1105 0399 07       		.uleb128 0x7
 1106 039a AB010000 		.4byte	.LASF59
 1107 039e 09       		.byte	0x9
 1108 039f 60       		.byte	0x60
 1109 03a0 CA030000 		.4byte	0x3ca
 1110 03a4 04       		.byte	0x4
 1111 03a5 07       		.uleb128 0x7
 1112 03a6 AC020000 		.4byte	.LASF60
 1113 03aa 09       		.byte	0x9
 1114 03ab 62       		.byte	0x62
 1115 03ac 34010000 		.4byte	0x134
 1116 03b0 08       		.byte	0x8
 1117 03b1 07       		.uleb128 0x7
 1118 03b2 64000000 		.4byte	.LASF61
 1119 03b6 09       		.byte	0x9
 1120 03b7 63       		.byte	0x63
 1121 03b8 5A030000 		.4byte	0x35a
 1122 03bc 0C       		.byte	0xc
 1123 03bd 07       		.uleb128 0x7
 1124 03be 56050000 		.4byte	.LASF62
 1125 03c2 09       		.byte	0x9
 1126 03c3 65       		.byte	0x65
 1127 03c4 A9020000 		.4byte	0x2a9
 1128 03c8 10       		.byte	0x10
 1129 03c9 00       		.byte	0
 1130 03ca 0A       		.uleb128 0xa
 1131 03cb 04       		.byte	0x4
 1132 03cc 76030000 		.4byte	0x376
 1133 03d0 09       		.uleb128 0x9
 1134 03d1 10       		.byte	0x10
 1135 03d2 09       		.byte	0x9
 1136 03d3 6F       		.byte	0x6f
 1137 03d4 09040000 		.4byte	0x409
 1138 03d8 07       		.uleb128 0x7
 1139 03d9 F7010000 		.4byte	.LASF58
 1140 03dd 09       		.byte	0x9
ARM GAS  /tmp/cc9cuD55.s 			page 21


 1141 03de 70       		.byte	0x70
 1142 03df CA030000 		.4byte	0x3ca
 1143 03e3 00       		.byte	0
 1144 03e4 07       		.uleb128 0x7
 1145 03e5 AB010000 		.4byte	.LASF59
 1146 03e9 09       		.byte	0x9
 1147 03ea 72       		.byte	0x72
 1148 03eb CA030000 		.4byte	0x3ca
 1149 03ef 04       		.byte	0x4
 1150 03f0 07       		.uleb128 0x7
 1151 03f1 AC020000 		.4byte	.LASF60
 1152 03f5 09       		.byte	0x9
 1153 03f6 74       		.byte	0x74
 1154 03f7 34010000 		.4byte	0x134
 1155 03fb 08       		.byte	0x8
 1156 03fc 07       		.uleb128 0x7
 1157 03fd BB050000 		.4byte	.LASF63
 1158 0401 09       		.byte	0x9
 1159 0402 75       		.byte	0x75
 1160 0403 3F010000 		.4byte	0x13f
 1161 0407 0C       		.byte	0xc
 1162 0408 00       		.byte	0
 1163 0409 04       		.uleb128 0x4
 1164 040a E6050000 		.4byte	.LASF64
 1165 040e 09       		.byte	0x9
 1166 040f 76       		.byte	0x76
 1167 0410 D0030000 		.4byte	0x3d0
 1168 0414 10       		.uleb128 0x10
 1169 0415 7F000000 		.4byte	.LASF72
 1170 0419 09       		.byte	0x9
 1171 041a EE       		.byte	0xee
 1172 041b 09040000 		.4byte	0x409
 1173 041f 09       		.uleb128 0x9
 1174 0420 1C       		.byte	0x1c
 1175 0421 0A       		.byte	0xa
 1176 0422 57       		.byte	0x57
 1177 0423 70040000 		.4byte	0x470
 1178 0427 07       		.uleb128 0x7
 1179 0428 C3040000 		.4byte	.LASF65
 1180 042c 0A       		.byte	0xa
 1181 042d 58       		.byte	0x58
 1182 042e 73020000 		.4byte	0x273
 1183 0432 00       		.byte	0
 1184 0433 07       		.uleb128 0x7
 1185 0434 5A040000 		.4byte	.LASF66
 1186 0438 0A       		.byte	0xa
 1187 0439 59       		.byte	0x59
 1188 043a 13010000 		.4byte	0x113
 1189 043e 08       		.byte	0x8
 1190 043f 07       		.uleb128 0x7
 1191 0440 8F030000 		.4byte	.LASF67
 1192 0444 0A       		.byte	0xa
 1193 0445 5B       		.byte	0x5b
 1194 0446 32030000 		.4byte	0x332
 1195 044a 0C       		.byte	0xc
 1196 044b 07       		.uleb128 0x7
 1197 044c 5F020000 		.4byte	.LASF68
ARM GAS  /tmp/cc9cuD55.s 			page 22


 1198 0450 0A       		.byte	0xa
 1199 0451 5E       		.byte	0x5e
 1200 0452 6D020000 		.4byte	0x26d
 1201 0456 10       		.byte	0x10
 1202 0457 07       		.uleb128 0x7
 1203 0458 B9030000 		.4byte	.LASF69
 1204 045c 0A       		.byte	0xa
 1205 045d 5F       		.byte	0x5f
 1206 045e 6D020000 		.4byte	0x26d
 1207 0462 14       		.byte	0x14
 1208 0463 07       		.uleb128 0x7
 1209 0464 AF030000 		.4byte	.LASF70
 1210 0468 0A       		.byte	0xa
 1211 0469 62       		.byte	0x62
 1212 046a 6D020000 		.4byte	0x26d
 1213 046e 18       		.byte	0x18
 1214 046f 00       		.byte	0
 1215 0470 04       		.uleb128 0x4
 1216 0471 76050000 		.4byte	.LASF71
 1217 0475 0A       		.byte	0xa
 1218 0476 64       		.byte	0x64
 1219 0477 1F040000 		.4byte	0x41f
 1220 047b 10       		.uleb128 0x10
 1221 047c 80050000 		.4byte	.LASF73
 1222 0480 0A       		.byte	0xa
 1223 0481 68       		.byte	0x68
 1224 0482 70040000 		.4byte	0x470
 1225 0486 06       		.uleb128 0x6
 1226 0487 87020000 		.4byte	.LASF74
 1227 048b 10       		.byte	0x10
 1228 048c 0B       		.byte	0xb
 1229 048d 25       		.byte	0x25
 1230 048e B7040000 		.4byte	0x4b7
 1231 0492 07       		.uleb128 0x7
 1232 0493 18010000 		.4byte	.LASF75
 1233 0497 0B       		.byte	0xb
 1234 0498 26       		.byte	0x26
 1235 0499 73020000 		.4byte	0x273
 1236 049d 00       		.byte	0
 1237 049e 07       		.uleb128 0x7
 1238 049f ED050000 		.4byte	.LASF76
 1239 04a3 0B       		.byte	0xb
 1240 04a4 28       		.byte	0x28
 1241 04a5 6D020000 		.4byte	0x26d
 1242 04a9 08       		.byte	0x8
 1243 04aa 07       		.uleb128 0x7
 1244 04ab 00050000 		.4byte	.LASF77
 1245 04af 0B       		.byte	0xb
 1246 04b0 2A       		.byte	0x2a
 1247 04b1 B7040000 		.4byte	0x4b7
 1248 04b5 0C       		.byte	0xc
 1249 04b6 00       		.byte	0
 1250 04b7 0A       		.uleb128 0xa
 1251 04b8 04       		.byte	0x4
 1252 04b9 86040000 		.4byte	0x486
 1253 04bd 04       		.uleb128 0x4
 1254 04be 87020000 		.4byte	.LASF74
ARM GAS  /tmp/cc9cuD55.s 			page 23


 1255 04c2 0B       		.byte	0xb
 1256 04c3 2C       		.byte	0x2c
 1257 04c4 86040000 		.4byte	0x486
 1258 04c8 06       		.uleb128 0x6
 1259 04c9 2A010000 		.4byte	.LASF78
 1260 04cd 08       		.byte	0x8
 1261 04ce 0C       		.byte	0xc
 1262 04cf 2F       		.byte	0x2f
 1263 04d0 E1040000 		.4byte	0x4e1
 1264 04d4 07       		.uleb128 0x7
 1265 04d5 8D040000 		.4byte	.LASF79
 1266 04d9 0C       		.byte	0xc
 1267 04da 30       		.byte	0x30
 1268 04db 73020000 		.4byte	0x273
 1269 04df 00       		.byte	0
 1270 04e0 00       		.byte	0
 1271 04e1 04       		.uleb128 0x4
 1272 04e2 2A010000 		.4byte	.LASF78
 1273 04e6 0C       		.byte	0xc
 1274 04e7 31       		.byte	0x31
 1275 04e8 C8040000 		.4byte	0x4c8
 1276 04ec 11       		.uleb128 0x11
 1277 04ed 04       		.byte	0x4
 1278 04ee 07       		.byte	0x7
 1279 04ef 8F       		.byte	0x8f
 1280 04f0 21050000 		.4byte	0x521
 1281 04f4 12       		.uleb128 0x12
 1282 04f5 68050000 		.4byte	.LASF80
 1283 04f9 07       		.byte	0x7
 1284 04fa 96       		.byte	0x96
 1285 04fb 1E010000 		.4byte	0x11e
 1286 04ff 12       		.uleb128 0x12
 1287 0500 AB000000 		.4byte	.LASF81
 1288 0504 07       		.byte	0x7
 1289 0505 9D       		.byte	0x9d
 1290 0506 1E010000 		.4byte	0x11e
 1291 050a 12       		.uleb128 0x12
 1292 050b 8E050000 		.4byte	.LASF82
 1293 050f 07       		.byte	0x7
 1294 0510 A4       		.byte	0xa4
 1295 0511 A9020000 		.4byte	0x2a9
 1296 0515 12       		.uleb128 0x12
 1297 0516 61040000 		.4byte	.LASF83
 1298 051a 07       		.byte	0x7
 1299 051b AB       		.byte	0xab
 1300 051c 29010000 		.4byte	0x129
 1301 0520 00       		.byte	0
 1302 0521 0A       		.uleb128 0xa
 1303 0522 04       		.byte	0x4
 1304 0523 2E050000 		.4byte	0x52e
 1305 0527 03       		.uleb128 0x3
 1306 0528 01       		.byte	0x1
 1307 0529 08       		.byte	0x8
 1308 052a D8040000 		.4byte	.LASF84
 1309 052e 13       		.uleb128 0x13
 1310 052f 27050000 		.4byte	0x527
 1311 0533 0A       		.uleb128 0xa
ARM GAS  /tmp/cc9cuD55.s 			page 24


 1312 0534 04       		.byte	0x4
 1313 0535 BD040000 		.4byte	0x4bd
 1314 0539 09       		.uleb128 0x9
 1315 053a 16       		.byte	0x16
 1316 053b 0D       		.byte	0xd
 1317 053c 25       		.byte	0x25
 1318 053d 1A060000 		.4byte	0x61a
 1319 0541 07       		.uleb128 0x7
 1320 0542 23020000 		.4byte	.LASF85
 1321 0546 0D       		.byte	0xd
 1322 0547 26       		.byte	0x26
 1323 0548 1A060000 		.4byte	0x61a
 1324 054c 00       		.byte	0
 1325 054d 07       		.uleb128 0x7
 1326 054e 98020000 		.4byte	.LASF86
 1327 0552 0D       		.byte	0xd
 1328 0553 27       		.byte	0x27
 1329 0554 A9000000 		.4byte	0xa9
 1330 0558 04       		.byte	0x4
 1331 0559 07       		.uleb128 0x7
 1332 055a A2030000 		.4byte	.LASF87
 1333 055e 0D       		.byte	0xd
 1334 055f 28       		.byte	0x28
 1335 0560 A9000000 		.4byte	0xa9
 1336 0564 05       		.byte	0x5
 1337 0565 07       		.uleb128 0x7
 1338 0566 DB050000 		.4byte	.LASF88
 1339 056a 0D       		.byte	0xd
 1340 056b 29       		.byte	0x29
 1341 056c B4000000 		.4byte	0xb4
 1342 0570 06       		.byte	0x6
 1343 0571 07       		.uleb128 0x7
 1344 0572 E4030000 		.4byte	.LASF89
 1345 0576 0D       		.byte	0xd
 1346 0577 2A       		.byte	0x2a
 1347 0578 A9000000 		.4byte	0xa9
 1348 057c 08       		.byte	0x8
 1349 057d 07       		.uleb128 0x7
 1350 057e 6F030000 		.4byte	.LASF90
 1351 0582 0D       		.byte	0xd
 1352 0583 2B       		.byte	0x2b
 1353 0584 A9000000 		.4byte	0xa9
 1354 0588 09       		.byte	0x9
 1355 0589 07       		.uleb128 0x7
 1356 058a 9D000000 		.4byte	.LASF91
 1357 058e 0D       		.byte	0xd
 1358 058f 2C       		.byte	0x2c
 1359 0590 A9000000 		.4byte	0xa9
 1360 0594 0A       		.byte	0xa
 1361 0595 07       		.uleb128 0x7
 1362 0596 B7040000 		.4byte	.LASF92
 1363 059a 0D       		.byte	0xd
 1364 059b 2D       		.byte	0x2d
 1365 059c A9000000 		.4byte	0xa9
 1366 05a0 0B       		.byte	0xb
 1367 05a1 07       		.uleb128 0x7
 1368 05a2 5D050000 		.4byte	.LASF93
ARM GAS  /tmp/cc9cuD55.s 			page 25


 1369 05a6 0D       		.byte	0xd
 1370 05a7 2E       		.byte	0x2e
 1371 05a8 A9000000 		.4byte	0xa9
 1372 05ac 0C       		.byte	0xc
 1373 05ad 07       		.uleb128 0x7
 1374 05ae 95050000 		.4byte	.LASF94
 1375 05b2 0D       		.byte	0xd
 1376 05b3 2F       		.byte	0x2f
 1377 05b4 A9000000 		.4byte	0xa9
 1378 05b8 0D       		.byte	0xd
 1379 05b9 07       		.uleb128 0x7
 1380 05ba 00000000 		.4byte	.LASF95
 1381 05be 0D       		.byte	0xd
 1382 05bf 30       		.byte	0x30
 1383 05c0 A9000000 		.4byte	0xa9
 1384 05c4 0E       		.byte	0xe
 1385 05c5 07       		.uleb128 0x7
 1386 05c6 7B030000 		.4byte	.LASF96
 1387 05ca 0D       		.byte	0xd
 1388 05cb 31       		.byte	0x31
 1389 05cc A9000000 		.4byte	0xa9
 1390 05d0 0F       		.byte	0xf
 1391 05d1 07       		.uleb128 0x7
 1392 05d2 F3000000 		.4byte	.LASF97
 1393 05d6 0D       		.byte	0xd
 1394 05d7 32       		.byte	0x32
 1395 05d8 A9000000 		.4byte	0xa9
 1396 05dc 10       		.byte	0x10
 1397 05dd 07       		.uleb128 0x7
 1398 05de CC000000 		.4byte	.LASF98
 1399 05e2 0D       		.byte	0xd
 1400 05e3 34       		.byte	0x34
 1401 05e4 A9000000 		.4byte	0xa9
 1402 05e8 11       		.byte	0x11
 1403 05e9 07       		.uleb128 0x7
 1404 05ea 03010000 		.4byte	.LASF99
 1405 05ee 0D       		.byte	0xd
 1406 05ef 35       		.byte	0x35
 1407 05f0 A9000000 		.4byte	0xa9
 1408 05f4 12       		.byte	0x12
 1409 05f5 07       		.uleb128 0x7
 1410 05f6 A0020000 		.4byte	.LASF100
 1411 05fa 0D       		.byte	0xd
 1412 05fb 36       		.byte	0x36
 1413 05fc A9000000 		.4byte	0xa9
 1414 0600 13       		.byte	0x13
 1415 0601 07       		.uleb128 0x7
 1416 0602 6F040000 		.4byte	.LASF101
 1417 0606 0D       		.byte	0xd
 1418 0607 37       		.byte	0x37
 1419 0608 A9000000 		.4byte	0xa9
 1420 060c 14       		.byte	0x14
 1421 060d 07       		.uleb128 0x7
 1422 060e 4E040000 		.4byte	.LASF102
 1423 0612 0D       		.byte	0xd
 1424 0613 39       		.byte	0x39
 1425 0614 A9000000 		.4byte	0xa9
ARM GAS  /tmp/cc9cuD55.s 			page 26


 1426 0618 15       		.byte	0x15
 1427 0619 00       		.byte	0
 1428 061a 14       		.uleb128 0x14
 1429 061b 27050000 		.4byte	0x527
 1430 061f 2A060000 		.4byte	0x62a
 1431 0623 15       		.uleb128 0x15
 1432 0624 53030000 		.4byte	0x353
 1433 0628 03       		.byte	0x3
 1434 0629 00       		.byte	0
 1435 062a 04       		.uleb128 0x4
 1436 062b 64010000 		.4byte	.LASF103
 1437 062f 0D       		.byte	0xd
 1438 0630 3A       		.byte	0x3a
 1439 0631 39050000 		.4byte	0x539
 1440 0635 13       		.uleb128 0x13
 1441 0636 2A060000 		.4byte	0x62a
 1442 063a 10       		.uleb128 0x10
 1443 063b 11020000 		.4byte	.LASF104
 1444 063f 0D       		.byte	0xd
 1445 0640 77       		.byte	0x77
 1446 0641 35060000 		.4byte	0x635
 1447 0645 14       		.uleb128 0x14
 1448 0646 AB020000 		.4byte	0x2ab
 1449 064a 55060000 		.4byte	0x655
 1450 064e 15       		.uleb128 0x15
 1451 064f 53030000 		.4byte	0x353
 1452 0653 17       		.byte	0x17
 1453 0654 00       		.byte	0
 1454 0655 10       		.uleb128 0x10
 1455 0656 76010000 		.4byte	.LASF105
 1456 065a 0E       		.byte	0xe
 1457 065b 82       		.byte	0x82
 1458 065c 45060000 		.4byte	0x645
 1459 0660 16       		.uleb128 0x16
 1460 0661 5C030000 		.4byte	.LASF107
 1461 0665 01       		.byte	0x1
 1462 0666 0701     		.2byte	0x107
 1463 0668 1E010000 		.4byte	0x11e
 1464 066c 00000000 		.4byte	.LFB15
 1465 0670 4C000000 		.4byte	.LFE15-.LFB15
 1466 0674 01       		.uleb128 0x1
 1467 0675 9C       		.byte	0x9c
 1468 0676 21070000 		.4byte	0x721
 1469 067a 17       		.uleb128 0x17
 1470 067b 637000   		.ascii	"cp\000"
 1471 067e 01       		.byte	0x1
 1472 067f 0701     		.2byte	0x107
 1473 0681 21070000 		.4byte	0x721
 1474 0685 00000000 		.4byte	.LLST21
 1475 0689 18       		.uleb128 0x18
 1476 068a AA030000 		.4byte	.LASF106
 1477 068e 01       		.byte	0x1
 1478 068f 0701     		.2byte	0x107
 1479 0691 34010000 		.4byte	0x134
 1480 0695 2C000000 		.4byte	.LLST22
 1481 0699 19       		.uleb128 0x19
 1482 069a 6D7000   		.ascii	"mp\000"
ARM GAS  /tmp/cc9cuD55.s 			page 27


 1483 069d 01       		.byte	0x1
 1484 069e 0801     		.2byte	0x108
 1485 06a0 33050000 		.4byte	0x533
 1486 06a4 58000000 		.4byte	.LLST23
 1487 06a8 19       		.uleb128 0x19
 1488 06a9 6D736700 		.ascii	"msg\000"
 1489 06ad 01       		.byte	0x1
 1490 06ae 0901     		.2byte	0x109
 1491 06b0 1E010000 		.4byte	0x11e
 1492 06b4 76000000 		.4byte	.LLST24
 1493 06b8 1A       		.uleb128 0x1a
 1494 06b9 F60A0000 		.4byte	0xaf6
 1495 06bd 16000000 		.4byte	.LBB46
 1496 06c1 50000000 		.4byte	.Ldebug_ranges0+0x50
 1497 06c5 01       		.byte	0x1
 1498 06c6 1301     		.2byte	0x113
 1499 06c8 EE060000 		.4byte	0x6ee
 1500 06cc 1B       		.uleb128 0x1b
 1501 06cd 0C0B0000 		.4byte	0xb0c
 1502 06d1 9F000000 		.4byte	.LLST25
 1503 06d5 1B       		.uleb128 0x1b
 1504 06d6 020B0000 		.4byte	0xb02
 1505 06da B2000000 		.4byte	.LLST26
 1506 06de 1C       		.uleb128 0x1c
 1507 06df 50000000 		.4byte	.Ldebug_ranges0+0x50
 1508 06e3 1D       		.uleb128 0x1d
 1509 06e4 170B0000 		.4byte	0xb17
 1510 06e8 C5000000 		.4byte	.LLST27
 1511 06ec 00       		.byte	0
 1512 06ed 00       		.byte	0
 1513 06ee 1E       		.uleb128 0x1e
 1514 06ef 0A000000 		.4byte	.LVL42
 1515 06f3 780B0000 		.4byte	0xb78
 1516 06f7 1F       		.uleb128 0x1f
 1517 06f8 36000000 		.4byte	.LVL48
 1518 06fc 830B0000 		.4byte	0xb83
 1519 0700 10070000 		.4byte	0x710
 1520 0704 20       		.uleb128 0x20
 1521 0705 01       		.uleb128 0x1
 1522 0706 50       		.byte	0x50
 1523 0707 01       		.uleb128 0x1
 1524 0708 35       		.byte	0x35
 1525 0709 20       		.uleb128 0x20
 1526 070a 01       		.uleb128 0x1
 1527 070b 51       		.byte	0x51
 1528 070c 02       		.uleb128 0x2
 1529 070d 77       		.byte	0x77
 1530 070e 00       		.sleb128 0
 1531 070f 00       		.byte	0
 1532 0710 21       		.uleb128 0x21
 1533 0711 42000000 		.4byte	.LVL51
 1534 0715 8E0B0000 		.4byte	0xb8e
 1535 0719 20       		.uleb128 0x20
 1536 071a 01       		.uleb128 0x1
 1537 071b 50       		.byte	0x50
 1538 071c 02       		.uleb128 0x2
 1539 071d 76       		.byte	0x76
ARM GAS  /tmp/cc9cuD55.s 			page 28


 1540 071e 00       		.sleb128 0
 1541 071f 00       		.byte	0
 1542 0720 00       		.byte	0
 1543 0721 0A       		.uleb128 0xa
 1544 0722 04       		.byte	0x4
 1545 0723 E1040000 		.4byte	0x4e1
 1546 0727 22       		.uleb128 0x22
 1547 0728 A9050000 		.4byte	.LASF108
 1548 072c 01       		.byte	0x1
 1549 072d E2       		.byte	0xe2
 1550 072e 1E010000 		.4byte	0x11e
 1551 0732 00000000 		.4byte	.LFB14
 1552 0736 14000000 		.4byte	.LFE14-.LFB14
 1553 073a 01       		.uleb128 0x1
 1554 073b 9C       		.byte	0x9c
 1555 073c B9070000 		.4byte	0x7b9
 1556 0740 23       		.uleb128 0x23
 1557 0741 637000   		.ascii	"cp\000"
 1558 0744 01       		.byte	0x1
 1559 0745 E2       		.byte	0xe2
 1560 0746 21070000 		.4byte	0x721
 1561 074a E3000000 		.4byte	.LLST28
 1562 074e 24       		.uleb128 0x24
 1563 074f AA030000 		.4byte	.LASF106
 1564 0753 01       		.byte	0x1
 1565 0754 E2       		.byte	0xe2
 1566 0755 34010000 		.4byte	0x134
 1567 0759 04010000 		.4byte	.LLST29
 1568 075d 25       		.uleb128 0x25
 1569 075e 6D736700 		.ascii	"msg\000"
 1570 0762 01       		.byte	0x1
 1571 0763 E3       		.byte	0xe3
 1572 0764 1E010000 		.4byte	0x11e
 1573 0768 01       		.uleb128 0x1
 1574 0769 50       		.byte	0x50
 1575 076a 26       		.uleb128 0x26
 1576 076b 02000000 		.4byte	.LBB52
 1577 076f 06000000 		.4byte	.LBE52-.LBB52
 1578 0773 85070000 		.4byte	0x785
 1579 0777 25       		.uleb128 0x25
 1580 0778 746D7000 		.ascii	"tmp\000"
 1581 077c 01       		.byte	0x1
 1582 077d E5       		.byte	0xe5
 1583 077e CA000000 		.4byte	0xca
 1584 0782 01       		.uleb128 0x1
 1585 0783 53       		.byte	0x53
 1586 0784 00       		.byte	0
 1587 0785 26       		.uleb128 0x26
 1588 0786 0C000000 		.4byte	.LBB53
 1589 078a 06000000 		.4byte	.LBE53-.LBB53
 1590 078e A0070000 		.4byte	0x7a0
 1591 0792 25       		.uleb128 0x25
 1592 0793 746D7000 		.ascii	"tmp\000"
 1593 0797 01       		.byte	0x1
 1594 0798 E7       		.byte	0xe7
 1595 0799 CA000000 		.4byte	0xca
 1596 079d 01       		.uleb128 0x1
ARM GAS  /tmp/cc9cuD55.s 			page 29


 1597 079e 53       		.byte	0x53
 1598 079f 00       		.byte	0
 1599 07a0 21       		.uleb128 0x21
 1600 07a1 0C000000 		.4byte	.LVL54
 1601 07a5 60060000 		.4byte	0x660
 1602 07a9 20       		.uleb128 0x20
 1603 07aa 01       		.uleb128 0x1
 1604 07ab 50       		.byte	0x50
 1605 07ac 03       		.uleb128 0x3
 1606 07ad F3       		.byte	0xf3
 1607 07ae 01       		.uleb128 0x1
 1608 07af 50       		.byte	0x50
 1609 07b0 20       		.uleb128 0x20
 1610 07b1 01       		.uleb128 0x1
 1611 07b2 51       		.byte	0x51
 1612 07b3 03       		.uleb128 0x3
 1613 07b4 F3       		.byte	0xf3
 1614 07b5 01       		.uleb128 0x1
 1615 07b6 51       		.byte	0x51
 1616 07b7 00       		.byte	0
 1617 07b8 00       		.byte	0
 1618 07b9 22       		.uleb128 0x22
 1619 07ba 3B010000 		.4byte	.LASF109
 1620 07be 01       		.byte	0x1
 1621 07bf B1       		.byte	0xb1
 1622 07c0 1E010000 		.4byte	0x11e
 1623 07c4 00000000 		.4byte	.LFB13
 1624 07c8 44000000 		.4byte	.LFE13-.LFB13
 1625 07cc 01       		.uleb128 0x1
 1626 07cd 9C       		.byte	0x9c
 1627 07ce 6E080000 		.4byte	0x86e
 1628 07d2 23       		.uleb128 0x23
 1629 07d3 637000   		.ascii	"cp\000"
 1630 07d6 01       		.byte	0x1
 1631 07d7 B1       		.byte	0xb1
 1632 07d8 21070000 		.4byte	0x721
 1633 07dc 25010000 		.4byte	.LLST13
 1634 07e0 27       		.uleb128 0x27
 1635 07e1 63747000 		.ascii	"ctp\000"
 1636 07e5 01       		.byte	0x1
 1637 07e6 B2       		.byte	0xb2
 1638 07e7 6D020000 		.4byte	0x26d
 1639 07eb 51010000 		.4byte	.LLST14
 1640 07ef 27       		.uleb128 0x27
 1641 07f0 6D7000   		.ascii	"mp\000"
 1642 07f3 01       		.byte	0x1
 1643 07f4 B3       		.byte	0xb3
 1644 07f5 33050000 		.4byte	0x533
 1645 07f9 64010000 		.4byte	.LLST15
 1646 07fd 27       		.uleb128 0x27
 1647 07fe 6D736700 		.ascii	"msg\000"
 1648 0802 01       		.byte	0x1
 1649 0803 B4       		.byte	0xb4
 1650 0804 1E010000 		.4byte	0x11e
 1651 0808 82010000 		.4byte	.LLST16
 1652 080c 28       		.uleb128 0x28
 1653 080d F60A0000 		.4byte	0xaf6
ARM GAS  /tmp/cc9cuD55.s 			page 30


 1654 0811 14000000 		.4byte	.LBB40
 1655 0815 38000000 		.4byte	.Ldebug_ranges0+0x38
 1656 0819 01       		.byte	0x1
 1657 081a BE       		.byte	0xbe
 1658 081b 41080000 		.4byte	0x841
 1659 081f 1B       		.uleb128 0x1b
 1660 0820 0C0B0000 		.4byte	0xb0c
 1661 0824 A0010000 		.4byte	.LLST17
 1662 0828 1B       		.uleb128 0x1b
 1663 0829 020B0000 		.4byte	0xb02
 1664 082d B3010000 		.4byte	.LLST18
 1665 0831 1C       		.uleb128 0x1c
 1666 0832 38000000 		.4byte	.Ldebug_ranges0+0x38
 1667 0836 1D       		.uleb128 0x1d
 1668 0837 170B0000 		.4byte	0xb17
 1669 083b C6010000 		.4byte	.LLST19
 1670 083f 00       		.byte	0
 1671 0840 00       		.byte	0
 1672 0841 1E       		.uleb128 0x1e
 1673 0842 0C000000 		.4byte	.LVL28
 1674 0846 780B0000 		.4byte	0xb78
 1675 084a 1F       		.uleb128 0x1f
 1676 084b 32000000 		.4byte	.LVL35
 1677 084f 990B0000 		.4byte	0xb99
 1678 0853 5D080000 		.4byte	0x85d
 1679 0857 20       		.uleb128 0x20
 1680 0858 01       		.uleb128 0x1
 1681 0859 50       		.byte	0x50
 1682 085a 01       		.uleb128 0x1
 1683 085b 35       		.byte	0x35
 1684 085c 00       		.byte	0
 1685 085d 21       		.uleb128 0x21
 1686 085e 3A000000 		.4byte	.LVL37
 1687 0862 8E0B0000 		.4byte	0xb8e
 1688 0866 20       		.uleb128 0x20
 1689 0867 01       		.uleb128 0x1
 1690 0868 50       		.byte	0x50
 1691 0869 02       		.uleb128 0x2
 1692 086a 76       		.byte	0x76
 1693 086b 00       		.sleb128 0
 1694 086c 00       		.byte	0
 1695 086d 00       		.byte	0
 1696 086e 22       		.uleb128 0x22
 1697 086f 32050000 		.4byte	.LASF110
 1698 0873 01       		.byte	0x1
 1699 0874 97       		.byte	0x97
 1700 0875 1E010000 		.4byte	0x11e
 1701 0879 00000000 		.4byte	.LFB12
 1702 087d 14000000 		.4byte	.LFE12-.LFB12
 1703 0881 01       		.uleb128 0x1
 1704 0882 9C       		.byte	0x9c
 1705 0883 EA080000 		.4byte	0x8ea
 1706 0887 23       		.uleb128 0x23
 1707 0888 637000   		.ascii	"cp\000"
 1708 088b 01       		.byte	0x1
 1709 088c 97       		.byte	0x97
 1710 088d 21070000 		.4byte	0x721
ARM GAS  /tmp/cc9cuD55.s 			page 31


 1711 0891 E4010000 		.4byte	.LLST20
 1712 0895 25       		.uleb128 0x25
 1713 0896 6D736700 		.ascii	"msg\000"
 1714 089a 01       		.byte	0x1
 1715 089b 98       		.byte	0x98
 1716 089c 1E010000 		.4byte	0x11e
 1717 08a0 01       		.uleb128 0x1
 1718 08a1 50       		.byte	0x50
 1719 08a2 26       		.uleb128 0x26
 1720 08a3 02000000 		.4byte	.LBB44
 1721 08a7 06000000 		.4byte	.LBE44-.LBB44
 1722 08ab BD080000 		.4byte	0x8bd
 1723 08af 25       		.uleb128 0x25
 1724 08b0 746D7000 		.ascii	"tmp\000"
 1725 08b4 01       		.byte	0x1
 1726 08b5 9A       		.byte	0x9a
 1727 08b6 CA000000 		.4byte	0xca
 1728 08ba 01       		.uleb128 0x1
 1729 08bb 53       		.byte	0x53
 1730 08bc 00       		.byte	0
 1731 08bd 26       		.uleb128 0x26
 1732 08be 0C000000 		.4byte	.LBB45
 1733 08c2 06000000 		.4byte	.LBE45-.LBB45
 1734 08c6 D8080000 		.4byte	0x8d8
 1735 08ca 25       		.uleb128 0x25
 1736 08cb 746D7000 		.ascii	"tmp\000"
 1737 08cf 01       		.byte	0x1
 1738 08d0 9C       		.byte	0x9c
 1739 08d1 CA000000 		.4byte	0xca
 1740 08d5 01       		.uleb128 0x1
 1741 08d6 53       		.byte	0x53
 1742 08d7 00       		.byte	0
 1743 08d8 21       		.uleb128 0x21
 1744 08d9 0C000000 		.4byte	.LVL40
 1745 08dd B9070000 		.4byte	0x7b9
 1746 08e1 20       		.uleb128 0x20
 1747 08e2 01       		.uleb128 0x1
 1748 08e3 50       		.byte	0x50
 1749 08e4 03       		.uleb128 0x3
 1750 08e5 F3       		.byte	0xf3
 1751 08e6 01       		.uleb128 0x1
 1752 08e7 50       		.byte	0x50
 1753 08e8 00       		.byte	0
 1754 08e9 00       		.byte	0
 1755 08ea 29       		.uleb128 0x29
 1756 08eb B4000000 		.4byte	.LASF125
 1757 08ef 01       		.byte	0x1
 1758 08f0 7A       		.byte	0x7a
 1759 08f1 01       		.byte	0x1
 1760 08f2 01090000 		.4byte	0x901
 1761 08f6 2A       		.uleb128 0x2a
 1762 08f7 637000   		.ascii	"cp\000"
 1763 08fa 01       		.byte	0x1
 1764 08fb 7A       		.byte	0x7a
 1765 08fc 21070000 		.4byte	0x721
 1766 0900 00       		.byte	0
 1767 0901 2B       		.uleb128 0x2b
ARM GAS  /tmp/cc9cuD55.s 			page 32


 1768 0902 C1030000 		.4byte	.LASF111
 1769 0906 01       		.byte	0x1
 1770 0907 67       		.byte	0x67
 1771 0908 00000000 		.4byte	.LFB10
 1772 090c 34000000 		.4byte	.LFE10-.LFB10
 1773 0910 01       		.uleb128 0x1
 1774 0911 9C       		.byte	0x9c
 1775 0912 BA090000 		.4byte	0x9ba
 1776 0916 23       		.uleb128 0x23
 1777 0917 637000   		.ascii	"cp\000"
 1778 091a 01       		.byte	0x1
 1779 091b 67       		.byte	0x67
 1780 091c 21070000 		.4byte	0x721
 1781 0920 05020000 		.4byte	.LLST6
 1782 0924 26       		.uleb128 0x26
 1783 0925 04000000 		.4byte	.LBB32
 1784 0929 06000000 		.4byte	.LBE32-.LBB32
 1785 092d 3F090000 		.4byte	0x93f
 1786 0931 25       		.uleb128 0x25
 1787 0932 746D7000 		.ascii	"tmp\000"
 1788 0936 01       		.byte	0x1
 1789 0937 69       		.byte	0x69
 1790 0938 CA000000 		.4byte	0xca
 1791 093c 01       		.uleb128 0x1
 1792 093d 53       		.byte	0x53
 1793 093e 00       		.byte	0
 1794 093f 26       		.uleb128 0x26
 1795 0940 2C000000 		.4byte	.LBB37
 1796 0944 06000000 		.4byte	.LBE37-.LBB37
 1797 0948 5A090000 		.4byte	0x95a
 1798 094c 25       		.uleb128 0x25
 1799 094d 746D7000 		.ascii	"tmp\000"
 1800 0951 01       		.byte	0x1
 1801 0952 6C       		.byte	0x6c
 1802 0953 CA000000 		.4byte	0xca
 1803 0957 01       		.uleb128 0x1
 1804 0958 53       		.byte	0x53
 1805 0959 00       		.byte	0
 1806 095a 2C       		.uleb128 0x2c
 1807 095b EA080000 		.4byte	0x8ea
 1808 095f 0A000000 		.4byte	.LBB33
 1809 0963 1E000000 		.4byte	.LBE33-.LBB33
 1810 0967 01       		.byte	0x1
 1811 0968 6A       		.byte	0x6a
 1812 0969 B0090000 		.4byte	0x9b0
 1813 096d 1B       		.uleb128 0x1b
 1814 096e F6080000 		.4byte	0x8f6
 1815 0972 23020000 		.4byte	.LLST7
 1816 0976 2C       		.uleb128 0x2c
 1817 0977 CA0A0000 		.4byte	0xaca
 1818 097b 16000000 		.4byte	.LBB35
 1819 097f 06000000 		.4byte	.LBE35-.LBB35
 1820 0983 01       		.byte	0x1
 1821 0984 83       		.byte	0x83
 1822 0985 A6090000 		.4byte	0x9a6
 1823 0989 1B       		.uleb128 0x1b
 1824 098a DA0A0000 		.4byte	0xada
ARM GAS  /tmp/cc9cuD55.s 			page 33


 1825 098e 41020000 		.4byte	.LLST8
 1826 0992 2D       		.uleb128 0x2d
 1827 0993 16000000 		.4byte	.LBB36
 1828 0997 06000000 		.4byte	.LBE36-.LBB36
 1829 099b 1D       		.uleb128 0x1d
 1830 099c E50A0000 		.4byte	0xae5
 1831 09a0 54020000 		.4byte	.LLST9
 1832 09a4 00       		.byte	0
 1833 09a5 00       		.byte	0
 1834 09a6 1E       		.uleb128 0x1e
 1835 09a7 20000000 		.4byte	.LVL18
 1836 09ab A40B0000 		.4byte	0xba4
 1837 09af 00       		.byte	0
 1838 09b0 1E       		.uleb128 0x1e
 1839 09b1 2C000000 		.4byte	.LVL20
 1840 09b5 AF0B0000 		.4byte	0xbaf
 1841 09b9 00       		.byte	0
 1842 09ba 2B       		.uleb128 0x2b
 1843 09bb FE030000 		.4byte	.LASF112
 1844 09bf 01       		.byte	0x1
 1845 09c0 57       		.byte	0x57
 1846 09c1 00000000 		.4byte	.LFB9
 1847 09c5 1E000000 		.4byte	.LFE9-.LFB9
 1848 09c9 01       		.uleb128 0x1
 1849 09ca 9C       		.byte	0x9c
 1850 09cb 130A0000 		.4byte	0xa13
 1851 09cf 23       		.uleb128 0x23
 1852 09d0 637000   		.ascii	"cp\000"
 1853 09d3 01       		.byte	0x1
 1854 09d4 57       		.byte	0x57
 1855 09d5 21070000 		.4byte	0x721
 1856 09d9 67020000 		.4byte	.LLST3
 1857 09dd 28       		.uleb128 0x28
 1858 09de CA0A0000 		.4byte	0xaca
 1859 09e2 0A000000 		.4byte	.LBB28
 1860 09e6 20000000 		.4byte	.Ldebug_ranges0+0x20
 1861 09ea 01       		.byte	0x1
 1862 09eb 5D       		.byte	0x5d
 1863 09ec 090A0000 		.4byte	0xa09
 1864 09f0 1B       		.uleb128 0x1b
 1865 09f1 DA0A0000 		.4byte	0xada
 1866 09f5 9E020000 		.4byte	.LLST4
 1867 09f9 1C       		.uleb128 0x1c
 1868 09fa 20000000 		.4byte	.Ldebug_ranges0+0x20
 1869 09fe 1D       		.uleb128 0x1d
 1870 09ff E50A0000 		.4byte	0xae5
 1871 0a03 BC020000 		.4byte	.LLST5
 1872 0a07 00       		.byte	0
 1873 0a08 00       		.byte	0
 1874 0a09 1E       		.uleb128 0x1e
 1875 0a0a 16000000 		.4byte	.LVL11
 1876 0a0e A40B0000 		.4byte	0xba4
 1877 0a12 00       		.byte	0
 1878 0a13 2B       		.uleb128 0x2b
 1879 0a14 D0010000 		.4byte	.LASF113
 1880 0a18 01       		.byte	0x1
 1881 0a19 42       		.byte	0x42
ARM GAS  /tmp/cc9cuD55.s 			page 34


 1882 0a1a 00000000 		.4byte	.LFB8
 1883 0a1e 2E000000 		.4byte	.LFE8-.LFB8
 1884 0a22 01       		.uleb128 0x1
 1885 0a23 9C       		.byte	0x9c
 1886 0a24 A80A0000 		.4byte	0xaa8
 1887 0a28 23       		.uleb128 0x23
 1888 0a29 637000   		.ascii	"cp\000"
 1889 0a2c 01       		.byte	0x1
 1890 0a2d 42       		.byte	0x42
 1891 0a2e 21070000 		.4byte	0x721
 1892 0a32 CF020000 		.4byte	.LLST0
 1893 0a36 26       		.uleb128 0x26
 1894 0a37 00000000 		.4byte	.LBB20
 1895 0a3b 06000000 		.4byte	.LBE20-.LBB20
 1896 0a3f 510A0000 		.4byte	0xa51
 1897 0a43 25       		.uleb128 0x25
 1898 0a44 746D7000 		.ascii	"tmp\000"
 1899 0a48 01       		.byte	0x1
 1900 0a49 46       		.byte	0x46
 1901 0a4a CA000000 		.4byte	0xca
 1902 0a4e 01       		.uleb128 0x1
 1903 0a4f 53       		.byte	0x53
 1904 0a50 00       		.byte	0
 1905 0a51 26       		.uleb128 0x26
 1906 0a52 1E000000 		.4byte	.LBB27
 1907 0a56 10000000 		.4byte	.LBE27-.LBB27
 1908 0a5a 6C0A0000 		.4byte	0xa6c
 1909 0a5e 25       		.uleb128 0x25
 1910 0a5f 746D7000 		.ascii	"tmp\000"
 1911 0a63 01       		.byte	0x1
 1912 0a64 49       		.byte	0x49
 1913 0a65 CA000000 		.4byte	0xca
 1914 0a69 01       		.uleb128 0x1
 1915 0a6a 53       		.byte	0x53
 1916 0a6b 00       		.byte	0
 1917 0a6c 28       		.uleb128 0x28
 1918 0a6d CA0A0000 		.4byte	0xaca
 1919 0a71 10000000 		.4byte	.LBB21
 1920 0a75 00000000 		.4byte	.Ldebug_ranges0+0
 1921 0a79 01       		.byte	0x1
 1922 0a7a 48       		.byte	0x48
 1923 0a7b 980A0000 		.4byte	0xa98
 1924 0a7f 1B       		.uleb128 0x1b
 1925 0a80 DA0A0000 		.4byte	0xada
 1926 0a84 06030000 		.4byte	.LLST1
 1927 0a88 1C       		.uleb128 0x1c
 1928 0a89 00000000 		.4byte	.Ldebug_ranges0+0
 1929 0a8d 1D       		.uleb128 0x1d
 1930 0a8e E50A0000 		.4byte	0xae5
 1931 0a92 24030000 		.4byte	.LLST2
 1932 0a96 00       		.byte	0
 1933 0a97 00       		.byte	0
 1934 0a98 21       		.uleb128 0x21
 1935 0a99 1E000000 		.4byte	.LVL5
 1936 0a9d BA0B0000 		.4byte	0xbba
 1937 0aa1 20       		.uleb128 0x20
 1938 0aa2 01       		.uleb128 0x1
ARM GAS  /tmp/cc9cuD55.s 			page 35


 1939 0aa3 51       		.byte	0x51
 1940 0aa4 01       		.uleb128 0x1
 1941 0aa5 30       		.byte	0x30
 1942 0aa6 00       		.byte	0
 1943 0aa7 00       		.byte	0
 1944 0aa8 2B       		.uleb128 0x2b
 1945 0aa9 59000000 		.4byte	.LASF114
 1946 0aad 01       		.byte	0x1
 1947 0aae 34       		.byte	0x34
 1948 0aaf 00000000 		.4byte	.LFB7
 1949 0ab3 06000000 		.4byte	.LFE7-.LFB7
 1950 0ab7 01       		.uleb128 0x1
 1951 0ab8 9C       		.byte	0x9c
 1952 0ab9 CA0A0000 		.4byte	0xaca
 1953 0abd 2E       		.uleb128 0x2e
 1954 0abe 637000   		.ascii	"cp\000"
 1955 0ac1 01       		.byte	0x1
 1956 0ac2 34       		.byte	0x34
 1957 0ac3 21070000 		.4byte	0x721
 1958 0ac7 01       		.uleb128 0x1
 1959 0ac8 50       		.byte	0x50
 1960 0ac9 00       		.byte	0
 1961 0aca 2F       		.uleb128 0x2f
 1962 0acb DD040000 		.4byte	.LASF126
 1963 0acf 02       		.byte	0x2
 1964 0ad0 34       		.byte	0x34
 1965 0ad1 6D020000 		.4byte	0x26d
 1966 0ad5 03       		.byte	0x3
 1967 0ad6 F00A0000 		.4byte	0xaf0
 1968 0ada 2A       		.uleb128 0x2a
 1969 0adb 74717000 		.ascii	"tqp\000"
 1970 0adf 02       		.byte	0x2
 1971 0ae0 34       		.byte	0x34
 1972 0ae1 F00A0000 		.4byte	0xaf0
 1973 0ae5 30       		.uleb128 0x30
 1974 0ae6 747000   		.ascii	"tp\000"
 1975 0ae9 02       		.byte	0x2
 1976 0aea 35       		.byte	0x35
 1977 0aeb 6D020000 		.4byte	0x26d
 1978 0aef 00       		.byte	0
 1979 0af0 0A       		.uleb128 0xa
 1980 0af1 04       		.byte	0x4
 1981 0af2 73020000 		.4byte	0x273
 1982 0af6 31       		.uleb128 0x31
 1983 0af7 26050000 		.4byte	.LASF127
 1984 0afb 02       		.byte	0x2
 1985 0afc 22       		.byte	0x22
 1986 0afd 03       		.byte	0x3
 1987 0afe 220B0000 		.4byte	0xb22
 1988 0b02 2A       		.uleb128 0x2a
 1989 0b03 747000   		.ascii	"tp\000"
 1990 0b06 02       		.byte	0x2
 1991 0b07 22       		.byte	0x22
 1992 0b08 6D020000 		.4byte	0x26d
 1993 0b0c 2A       		.uleb128 0x2a
 1994 0b0d 74717000 		.ascii	"tqp\000"
 1995 0b11 02       		.byte	0x2
ARM GAS  /tmp/cc9cuD55.s 			page 36


 1996 0b12 22       		.byte	0x22
 1997 0b13 F00A0000 		.4byte	0xaf0
 1998 0b17 30       		.uleb128 0x30
 1999 0b18 637000   		.ascii	"cp\000"
 2000 0b1b 02       		.byte	0x2
 2001 0b1c 24       		.byte	0x24
 2002 0b1d 6D020000 		.4byte	0x26d
 2003 0b21 00       		.byte	0
 2004 0b22 32       		.uleb128 0x32
 2005 0b23 EA080000 		.4byte	0x8ea
 2006 0b27 00000000 		.4byte	.LFB11
 2007 0b2b 22000000 		.4byte	.LFE11-.LFB11
 2008 0b2f 01       		.uleb128 0x1
 2009 0b30 9C       		.byte	0x9c
 2010 0b31 780B0000 		.4byte	0xb78
 2011 0b35 1B       		.uleb128 0x1b
 2012 0b36 F6080000 		.4byte	0x8f6
 2013 0b3a 37030000 		.4byte	.LLST10
 2014 0b3e 2C       		.uleb128 0x2c
 2015 0b3f CA0A0000 		.4byte	0xaca
 2016 0b43 0E000000 		.4byte	.LBB38
 2017 0b47 06000000 		.4byte	.LBE38-.LBB38
 2018 0b4b 01       		.byte	0x1
 2019 0b4c 83       		.byte	0x83
 2020 0b4d 6E0B0000 		.4byte	0xb6e
 2021 0b51 1B       		.uleb128 0x1b
 2022 0b52 DA0A0000 		.4byte	0xada
 2023 0b56 55030000 		.4byte	.LLST11
 2024 0b5a 2D       		.uleb128 0x2d
 2025 0b5b 0E000000 		.4byte	.LBB39
 2026 0b5f 06000000 		.4byte	.LBE39-.LBB39
 2027 0b63 1D       		.uleb128 0x1d
 2028 0b64 E50A0000 		.4byte	0xae5
 2029 0b68 68030000 		.4byte	.LLST12
 2030 0b6c 00       		.byte	0
 2031 0b6d 00       		.byte	0
 2032 0b6e 1E       		.uleb128 0x1e
 2033 0b6f 18000000 		.4byte	.LVL25
 2034 0b73 A40B0000 		.4byte	0xba4
 2035 0b77 00       		.byte	0
 2036 0b78 33       		.uleb128 0x33
 2037 0b79 DD010000 		.4byte	.LASF115
 2038 0b7d DD010000 		.4byte	.LASF115
 2039 0b81 0B       		.byte	0xb
 2040 0b82 37       		.byte	0x37
 2041 0b83 33       		.uleb128 0x33
 2042 0b84 C6050000 		.4byte	.LASF116
 2043 0b88 C6050000 		.4byte	.LASF116
 2044 0b8c 0A       		.byte	0xa
 2045 0b8d 8F       		.byte	0x8f
 2046 0b8e 33       		.uleb128 0x33
 2047 0b8f 50010000 		.4byte	.LASF117
 2048 0b93 50010000 		.4byte	.LASF117
 2049 0b97 0B       		.byte	0xb
 2050 0b98 33       		.byte	0x33
 2051 0b99 33       		.uleb128 0x33
 2052 0b9a 95040000 		.4byte	.LASF118
ARM GAS  /tmp/cc9cuD55.s 			page 37


 2053 0b9e 95040000 		.4byte	.LASF118
 2054 0ba2 0A       		.byte	0xa
 2055 0ba3 8C       		.byte	0x8c
 2056 0ba4 33       		.uleb128 0x33
 2057 0ba5 F4040000 		.4byte	.LASF119
 2058 0ba9 F4040000 		.4byte	.LASF119
 2059 0bad 0A       		.byte	0xa
 2060 0bae 89       		.byte	0x89
 2061 0baf 33       		.uleb128 0x33
 2062 0bb0 86010000 		.4byte	.LASF120
 2063 0bb4 86010000 		.4byte	.LASF120
 2064 0bb8 0A       		.byte	0xa
 2065 0bb9 95       		.byte	0x95
 2066 0bba 33       		.uleb128 0x33
 2067 0bbb 4C020000 		.4byte	.LASF121
 2068 0bbf 4C020000 		.4byte	.LASF121
 2069 0bc3 0A       		.byte	0xa
 2070 0bc4 92       		.byte	0x92
 2071 0bc5 00       		.byte	0
 2072              		.section	.debug_abbrev,"",%progbits
 2073              	.Ldebug_abbrev0:
 2074 0000 01       		.uleb128 0x1
 2075 0001 11       		.uleb128 0x11
 2076 0002 01       		.byte	0x1
 2077 0003 25       		.uleb128 0x25
 2078 0004 0E       		.uleb128 0xe
 2079 0005 13       		.uleb128 0x13
 2080 0006 0B       		.uleb128 0xb
 2081 0007 03       		.uleb128 0x3
 2082 0008 0E       		.uleb128 0xe
 2083 0009 1B       		.uleb128 0x1b
 2084 000a 0E       		.uleb128 0xe
 2085 000b 55       		.uleb128 0x55
 2086 000c 17       		.uleb128 0x17
 2087 000d 11       		.uleb128 0x11
 2088 000e 01       		.uleb128 0x1
 2089 000f 10       		.uleb128 0x10
 2090 0010 17       		.uleb128 0x17
 2091 0011 00       		.byte	0
 2092 0012 00       		.byte	0
 2093 0013 02       		.uleb128 0x2
 2094 0014 24       		.uleb128 0x24
 2095 0015 00       		.byte	0
 2096 0016 0B       		.uleb128 0xb
 2097 0017 0B       		.uleb128 0xb
 2098 0018 3E       		.uleb128 0x3e
 2099 0019 0B       		.uleb128 0xb
 2100 001a 03       		.uleb128 0x3
 2101 001b 08       		.uleb128 0x8
 2102 001c 00       		.byte	0
 2103 001d 00       		.byte	0
 2104 001e 03       		.uleb128 0x3
 2105 001f 24       		.uleb128 0x24
 2106 0020 00       		.byte	0
 2107 0021 0B       		.uleb128 0xb
 2108 0022 0B       		.uleb128 0xb
 2109 0023 3E       		.uleb128 0x3e
ARM GAS  /tmp/cc9cuD55.s 			page 38


 2110 0024 0B       		.uleb128 0xb
 2111 0025 03       		.uleb128 0x3
 2112 0026 0E       		.uleb128 0xe
 2113 0027 00       		.byte	0
 2114 0028 00       		.byte	0
 2115 0029 04       		.uleb128 0x4
 2116 002a 16       		.uleb128 0x16
 2117 002b 00       		.byte	0
 2118 002c 03       		.uleb128 0x3
 2119 002d 0E       		.uleb128 0xe
 2120 002e 3A       		.uleb128 0x3a
 2121 002f 0B       		.uleb128 0xb
 2122 0030 3B       		.uleb128 0x3b
 2123 0031 0B       		.uleb128 0xb
 2124 0032 49       		.uleb128 0x49
 2125 0033 13       		.uleb128 0x13
 2126 0034 00       		.byte	0
 2127 0035 00       		.byte	0
 2128 0036 05       		.uleb128 0x5
 2129 0037 35       		.uleb128 0x35
 2130 0038 00       		.byte	0
 2131 0039 49       		.uleb128 0x49
 2132 003a 13       		.uleb128 0x13
 2133 003b 00       		.byte	0
 2134 003c 00       		.byte	0
 2135 003d 06       		.uleb128 0x6
 2136 003e 13       		.uleb128 0x13
 2137 003f 01       		.byte	0x1
 2138 0040 03       		.uleb128 0x3
 2139 0041 0E       		.uleb128 0xe
 2140 0042 0B       		.uleb128 0xb
 2141 0043 0B       		.uleb128 0xb
 2142 0044 3A       		.uleb128 0x3a
 2143 0045 0B       		.uleb128 0xb
 2144 0046 3B       		.uleb128 0x3b
 2145 0047 0B       		.uleb128 0xb
 2146 0048 01       		.uleb128 0x1
 2147 0049 13       		.uleb128 0x13
 2148 004a 00       		.byte	0
 2149 004b 00       		.byte	0
 2150 004c 07       		.uleb128 0x7
 2151 004d 0D       		.uleb128 0xd
 2152 004e 00       		.byte	0
 2153 004f 03       		.uleb128 0x3
 2154 0050 0E       		.uleb128 0xe
 2155 0051 3A       		.uleb128 0x3a
 2156 0052 0B       		.uleb128 0xb
 2157 0053 3B       		.uleb128 0x3b
 2158 0054 0B       		.uleb128 0xb
 2159 0055 49       		.uleb128 0x49
 2160 0056 13       		.uleb128 0x13
 2161 0057 38       		.uleb128 0x38
 2162 0058 0B       		.uleb128 0xb
 2163 0059 00       		.byte	0
 2164 005a 00       		.byte	0
 2165 005b 08       		.uleb128 0x8
 2166 005c 0D       		.uleb128 0xd
ARM GAS  /tmp/cc9cuD55.s 			page 39


 2167 005d 00       		.byte	0
 2168 005e 03       		.uleb128 0x3
 2169 005f 08       		.uleb128 0x8
 2170 0060 3A       		.uleb128 0x3a
 2171 0061 0B       		.uleb128 0xb
 2172 0062 3B       		.uleb128 0x3b
 2173 0063 0B       		.uleb128 0xb
 2174 0064 49       		.uleb128 0x49
 2175 0065 13       		.uleb128 0x13
 2176 0066 38       		.uleb128 0x38
 2177 0067 0B       		.uleb128 0xb
 2178 0068 00       		.byte	0
 2179 0069 00       		.byte	0
 2180 006a 09       		.uleb128 0x9
 2181 006b 13       		.uleb128 0x13
 2182 006c 01       		.byte	0x1
 2183 006d 0B       		.uleb128 0xb
 2184 006e 0B       		.uleb128 0xb
 2185 006f 3A       		.uleb128 0x3a
 2186 0070 0B       		.uleb128 0xb
 2187 0071 3B       		.uleb128 0x3b
 2188 0072 0B       		.uleb128 0xb
 2189 0073 01       		.uleb128 0x1
 2190 0074 13       		.uleb128 0x13
 2191 0075 00       		.byte	0
 2192 0076 00       		.byte	0
 2193 0077 0A       		.uleb128 0xa
 2194 0078 0F       		.uleb128 0xf
 2195 0079 00       		.byte	0
 2196 007a 0B       		.uleb128 0xb
 2197 007b 0B       		.uleb128 0xb
 2198 007c 49       		.uleb128 0x49
 2199 007d 13       		.uleb128 0x13
 2200 007e 00       		.byte	0
 2201 007f 00       		.byte	0
 2202 0080 0B       		.uleb128 0xb
 2203 0081 0F       		.uleb128 0xf
 2204 0082 00       		.byte	0
 2205 0083 0B       		.uleb128 0xb
 2206 0084 0B       		.uleb128 0xb
 2207 0085 00       		.byte	0
 2208 0086 00       		.byte	0
 2209 0087 0C       		.uleb128 0xc
 2210 0088 13       		.uleb128 0x13
 2211 0089 01       		.byte	0x1
 2212 008a 03       		.uleb128 0x3
 2213 008b 0E       		.uleb128 0xe
 2214 008c 0B       		.uleb128 0xb
 2215 008d 0B       		.uleb128 0xb
 2216 008e 3A       		.uleb128 0x3a
 2217 008f 0B       		.uleb128 0xb
 2218 0090 3B       		.uleb128 0x3b
 2219 0091 05       		.uleb128 0x5
 2220 0092 01       		.uleb128 0x1
 2221 0093 13       		.uleb128 0x13
 2222 0094 00       		.byte	0
 2223 0095 00       		.byte	0
ARM GAS  /tmp/cc9cuD55.s 			page 40


 2224 0096 0D       		.uleb128 0xd
 2225 0097 0D       		.uleb128 0xd
 2226 0098 00       		.byte	0
 2227 0099 03       		.uleb128 0x3
 2228 009a 08       		.uleb128 0x8
 2229 009b 3A       		.uleb128 0x3a
 2230 009c 0B       		.uleb128 0xb
 2231 009d 3B       		.uleb128 0x3b
 2232 009e 05       		.uleb128 0x5
 2233 009f 49       		.uleb128 0x49
 2234 00a0 13       		.uleb128 0x13
 2235 00a1 38       		.uleb128 0x38
 2236 00a2 0B       		.uleb128 0xb
 2237 00a3 00       		.byte	0
 2238 00a4 00       		.byte	0
 2239 00a5 0E       		.uleb128 0xe
 2240 00a6 15       		.uleb128 0x15
 2241 00a7 01       		.byte	0x1
 2242 00a8 27       		.uleb128 0x27
 2243 00a9 19       		.uleb128 0x19
 2244 00aa 01       		.uleb128 0x1
 2245 00ab 13       		.uleb128 0x13
 2246 00ac 00       		.byte	0
 2247 00ad 00       		.byte	0
 2248 00ae 0F       		.uleb128 0xf
 2249 00af 05       		.uleb128 0x5
 2250 00b0 00       		.byte	0
 2251 00b1 49       		.uleb128 0x49
 2252 00b2 13       		.uleb128 0x13
 2253 00b3 00       		.byte	0
 2254 00b4 00       		.byte	0
 2255 00b5 10       		.uleb128 0x10
 2256 00b6 34       		.uleb128 0x34
 2257 00b7 00       		.byte	0
 2258 00b8 03       		.uleb128 0x3
 2259 00b9 0E       		.uleb128 0xe
 2260 00ba 3A       		.uleb128 0x3a
 2261 00bb 0B       		.uleb128 0xb
 2262 00bc 3B       		.uleb128 0x3b
 2263 00bd 0B       		.uleb128 0xb
 2264 00be 49       		.uleb128 0x49
 2265 00bf 13       		.uleb128 0x13
 2266 00c0 3F       		.uleb128 0x3f
 2267 00c1 19       		.uleb128 0x19
 2268 00c2 3C       		.uleb128 0x3c
 2269 00c3 19       		.uleb128 0x19
 2270 00c4 00       		.byte	0
 2271 00c5 00       		.byte	0
 2272 00c6 11       		.uleb128 0x11
 2273 00c7 17       		.uleb128 0x17
 2274 00c8 01       		.byte	0x1
 2275 00c9 0B       		.uleb128 0xb
 2276 00ca 0B       		.uleb128 0xb
 2277 00cb 3A       		.uleb128 0x3a
 2278 00cc 0B       		.uleb128 0xb
 2279 00cd 3B       		.uleb128 0x3b
 2280 00ce 0B       		.uleb128 0xb
ARM GAS  /tmp/cc9cuD55.s 			page 41


 2281 00cf 01       		.uleb128 0x1
 2282 00d0 13       		.uleb128 0x13
 2283 00d1 00       		.byte	0
 2284 00d2 00       		.byte	0
 2285 00d3 12       		.uleb128 0x12
 2286 00d4 0D       		.uleb128 0xd
 2287 00d5 00       		.byte	0
 2288 00d6 03       		.uleb128 0x3
 2289 00d7 0E       		.uleb128 0xe
 2290 00d8 3A       		.uleb128 0x3a
 2291 00d9 0B       		.uleb128 0xb
 2292 00da 3B       		.uleb128 0x3b
 2293 00db 0B       		.uleb128 0xb
 2294 00dc 49       		.uleb128 0x49
 2295 00dd 13       		.uleb128 0x13
 2296 00de 00       		.byte	0
 2297 00df 00       		.byte	0
 2298 00e0 13       		.uleb128 0x13
 2299 00e1 26       		.uleb128 0x26
 2300 00e2 00       		.byte	0
 2301 00e3 49       		.uleb128 0x49
 2302 00e4 13       		.uleb128 0x13
 2303 00e5 00       		.byte	0
 2304 00e6 00       		.byte	0
 2305 00e7 14       		.uleb128 0x14
 2306 00e8 01       		.uleb128 0x1
 2307 00e9 01       		.byte	0x1
 2308 00ea 49       		.uleb128 0x49
 2309 00eb 13       		.uleb128 0x13
 2310 00ec 01       		.uleb128 0x1
 2311 00ed 13       		.uleb128 0x13
 2312 00ee 00       		.byte	0
 2313 00ef 00       		.byte	0
 2314 00f0 15       		.uleb128 0x15
 2315 00f1 21       		.uleb128 0x21
 2316 00f2 00       		.byte	0
 2317 00f3 49       		.uleb128 0x49
 2318 00f4 13       		.uleb128 0x13
 2319 00f5 2F       		.uleb128 0x2f
 2320 00f6 0B       		.uleb128 0xb
 2321 00f7 00       		.byte	0
 2322 00f8 00       		.byte	0
 2323 00f9 16       		.uleb128 0x16
 2324 00fa 2E       		.uleb128 0x2e
 2325 00fb 01       		.byte	0x1
 2326 00fc 3F       		.uleb128 0x3f
 2327 00fd 19       		.uleb128 0x19
 2328 00fe 03       		.uleb128 0x3
 2329 00ff 0E       		.uleb128 0xe
 2330 0100 3A       		.uleb128 0x3a
 2331 0101 0B       		.uleb128 0xb
 2332 0102 3B       		.uleb128 0x3b
 2333 0103 05       		.uleb128 0x5
 2334 0104 27       		.uleb128 0x27
 2335 0105 19       		.uleb128 0x19
 2336 0106 49       		.uleb128 0x49
 2337 0107 13       		.uleb128 0x13
ARM GAS  /tmp/cc9cuD55.s 			page 42


 2338 0108 11       		.uleb128 0x11
 2339 0109 01       		.uleb128 0x1
 2340 010a 12       		.uleb128 0x12
 2341 010b 06       		.uleb128 0x6
 2342 010c 40       		.uleb128 0x40
 2343 010d 18       		.uleb128 0x18
 2344 010e 9742     		.uleb128 0x2117
 2345 0110 19       		.uleb128 0x19
 2346 0111 01       		.uleb128 0x1
 2347 0112 13       		.uleb128 0x13
 2348 0113 00       		.byte	0
 2349 0114 00       		.byte	0
 2350 0115 17       		.uleb128 0x17
 2351 0116 05       		.uleb128 0x5
 2352 0117 00       		.byte	0
 2353 0118 03       		.uleb128 0x3
 2354 0119 08       		.uleb128 0x8
 2355 011a 3A       		.uleb128 0x3a
 2356 011b 0B       		.uleb128 0xb
 2357 011c 3B       		.uleb128 0x3b
 2358 011d 05       		.uleb128 0x5
 2359 011e 49       		.uleb128 0x49
 2360 011f 13       		.uleb128 0x13
 2361 0120 02       		.uleb128 0x2
 2362 0121 17       		.uleb128 0x17
 2363 0122 00       		.byte	0
 2364 0123 00       		.byte	0
 2365 0124 18       		.uleb128 0x18
 2366 0125 05       		.uleb128 0x5
 2367 0126 00       		.byte	0
 2368 0127 03       		.uleb128 0x3
 2369 0128 0E       		.uleb128 0xe
 2370 0129 3A       		.uleb128 0x3a
 2371 012a 0B       		.uleb128 0xb
 2372 012b 3B       		.uleb128 0x3b
 2373 012c 05       		.uleb128 0x5
 2374 012d 49       		.uleb128 0x49
 2375 012e 13       		.uleb128 0x13
 2376 012f 02       		.uleb128 0x2
 2377 0130 17       		.uleb128 0x17
 2378 0131 00       		.byte	0
 2379 0132 00       		.byte	0
 2380 0133 19       		.uleb128 0x19
 2381 0134 34       		.uleb128 0x34
 2382 0135 00       		.byte	0
 2383 0136 03       		.uleb128 0x3
 2384 0137 08       		.uleb128 0x8
 2385 0138 3A       		.uleb128 0x3a
 2386 0139 0B       		.uleb128 0xb
 2387 013a 3B       		.uleb128 0x3b
 2388 013b 05       		.uleb128 0x5
 2389 013c 49       		.uleb128 0x49
 2390 013d 13       		.uleb128 0x13
 2391 013e 02       		.uleb128 0x2
 2392 013f 17       		.uleb128 0x17
 2393 0140 00       		.byte	0
 2394 0141 00       		.byte	0
ARM GAS  /tmp/cc9cuD55.s 			page 43


 2395 0142 1A       		.uleb128 0x1a
 2396 0143 1D       		.uleb128 0x1d
 2397 0144 01       		.byte	0x1
 2398 0145 31       		.uleb128 0x31
 2399 0146 13       		.uleb128 0x13
 2400 0147 52       		.uleb128 0x52
 2401 0148 01       		.uleb128 0x1
 2402 0149 55       		.uleb128 0x55
 2403 014a 17       		.uleb128 0x17
 2404 014b 58       		.uleb128 0x58
 2405 014c 0B       		.uleb128 0xb
 2406 014d 59       		.uleb128 0x59
 2407 014e 05       		.uleb128 0x5
 2408 014f 01       		.uleb128 0x1
 2409 0150 13       		.uleb128 0x13
 2410 0151 00       		.byte	0
 2411 0152 00       		.byte	0
 2412 0153 1B       		.uleb128 0x1b
 2413 0154 05       		.uleb128 0x5
 2414 0155 00       		.byte	0
 2415 0156 31       		.uleb128 0x31
 2416 0157 13       		.uleb128 0x13
 2417 0158 02       		.uleb128 0x2
 2418 0159 17       		.uleb128 0x17
 2419 015a 00       		.byte	0
 2420 015b 00       		.byte	0
 2421 015c 1C       		.uleb128 0x1c
 2422 015d 0B       		.uleb128 0xb
 2423 015e 01       		.byte	0x1
 2424 015f 55       		.uleb128 0x55
 2425 0160 17       		.uleb128 0x17
 2426 0161 00       		.byte	0
 2427 0162 00       		.byte	0
 2428 0163 1D       		.uleb128 0x1d
 2429 0164 34       		.uleb128 0x34
 2430 0165 00       		.byte	0
 2431 0166 31       		.uleb128 0x31
 2432 0167 13       		.uleb128 0x13
 2433 0168 02       		.uleb128 0x2
 2434 0169 17       		.uleb128 0x17
 2435 016a 00       		.byte	0
 2436 016b 00       		.byte	0
 2437 016c 1E       		.uleb128 0x1e
 2438 016d 898201   		.uleb128 0x4109
 2439 0170 00       		.byte	0
 2440 0171 11       		.uleb128 0x11
 2441 0172 01       		.uleb128 0x1
 2442 0173 31       		.uleb128 0x31
 2443 0174 13       		.uleb128 0x13
 2444 0175 00       		.byte	0
 2445 0176 00       		.byte	0
 2446 0177 1F       		.uleb128 0x1f
 2447 0178 898201   		.uleb128 0x4109
 2448 017b 01       		.byte	0x1
 2449 017c 11       		.uleb128 0x11
 2450 017d 01       		.uleb128 0x1
 2451 017e 31       		.uleb128 0x31
ARM GAS  /tmp/cc9cuD55.s 			page 44


 2452 017f 13       		.uleb128 0x13
 2453 0180 01       		.uleb128 0x1
 2454 0181 13       		.uleb128 0x13
 2455 0182 00       		.byte	0
 2456 0183 00       		.byte	0
 2457 0184 20       		.uleb128 0x20
 2458 0185 8A8201   		.uleb128 0x410a
 2459 0188 00       		.byte	0
 2460 0189 02       		.uleb128 0x2
 2461 018a 18       		.uleb128 0x18
 2462 018b 9142     		.uleb128 0x2111
 2463 018d 18       		.uleb128 0x18
 2464 018e 00       		.byte	0
 2465 018f 00       		.byte	0
 2466 0190 21       		.uleb128 0x21
 2467 0191 898201   		.uleb128 0x4109
 2468 0194 01       		.byte	0x1
 2469 0195 11       		.uleb128 0x11
 2470 0196 01       		.uleb128 0x1
 2471 0197 31       		.uleb128 0x31
 2472 0198 13       		.uleb128 0x13
 2473 0199 00       		.byte	0
 2474 019a 00       		.byte	0
 2475 019b 22       		.uleb128 0x22
 2476 019c 2E       		.uleb128 0x2e
 2477 019d 01       		.byte	0x1
 2478 019e 3F       		.uleb128 0x3f
 2479 019f 19       		.uleb128 0x19
 2480 01a0 03       		.uleb128 0x3
 2481 01a1 0E       		.uleb128 0xe
 2482 01a2 3A       		.uleb128 0x3a
 2483 01a3 0B       		.uleb128 0xb
 2484 01a4 3B       		.uleb128 0x3b
 2485 01a5 0B       		.uleb128 0xb
 2486 01a6 27       		.uleb128 0x27
 2487 01a7 19       		.uleb128 0x19
 2488 01a8 49       		.uleb128 0x49
 2489 01a9 13       		.uleb128 0x13
 2490 01aa 11       		.uleb128 0x11
 2491 01ab 01       		.uleb128 0x1
 2492 01ac 12       		.uleb128 0x12
 2493 01ad 06       		.uleb128 0x6
 2494 01ae 40       		.uleb128 0x40
 2495 01af 18       		.uleb128 0x18
 2496 01b0 9742     		.uleb128 0x2117
 2497 01b2 19       		.uleb128 0x19
 2498 01b3 01       		.uleb128 0x1
 2499 01b4 13       		.uleb128 0x13
 2500 01b5 00       		.byte	0
 2501 01b6 00       		.byte	0
 2502 01b7 23       		.uleb128 0x23
 2503 01b8 05       		.uleb128 0x5
 2504 01b9 00       		.byte	0
 2505 01ba 03       		.uleb128 0x3
 2506 01bb 08       		.uleb128 0x8
 2507 01bc 3A       		.uleb128 0x3a
 2508 01bd 0B       		.uleb128 0xb
ARM GAS  /tmp/cc9cuD55.s 			page 45


 2509 01be 3B       		.uleb128 0x3b
 2510 01bf 0B       		.uleb128 0xb
 2511 01c0 49       		.uleb128 0x49
 2512 01c1 13       		.uleb128 0x13
 2513 01c2 02       		.uleb128 0x2
 2514 01c3 17       		.uleb128 0x17
 2515 01c4 00       		.byte	0
 2516 01c5 00       		.byte	0
 2517 01c6 24       		.uleb128 0x24
 2518 01c7 05       		.uleb128 0x5
 2519 01c8 00       		.byte	0
 2520 01c9 03       		.uleb128 0x3
 2521 01ca 0E       		.uleb128 0xe
 2522 01cb 3A       		.uleb128 0x3a
 2523 01cc 0B       		.uleb128 0xb
 2524 01cd 3B       		.uleb128 0x3b
 2525 01ce 0B       		.uleb128 0xb
 2526 01cf 49       		.uleb128 0x49
 2527 01d0 13       		.uleb128 0x13
 2528 01d1 02       		.uleb128 0x2
 2529 01d2 17       		.uleb128 0x17
 2530 01d3 00       		.byte	0
 2531 01d4 00       		.byte	0
 2532 01d5 25       		.uleb128 0x25
 2533 01d6 34       		.uleb128 0x34
 2534 01d7 00       		.byte	0
 2535 01d8 03       		.uleb128 0x3
 2536 01d9 08       		.uleb128 0x8
 2537 01da 3A       		.uleb128 0x3a
 2538 01db 0B       		.uleb128 0xb
 2539 01dc 3B       		.uleb128 0x3b
 2540 01dd 0B       		.uleb128 0xb
 2541 01de 49       		.uleb128 0x49
 2542 01df 13       		.uleb128 0x13
 2543 01e0 02       		.uleb128 0x2
 2544 01e1 18       		.uleb128 0x18
 2545 01e2 00       		.byte	0
 2546 01e3 00       		.byte	0
 2547 01e4 26       		.uleb128 0x26
 2548 01e5 0B       		.uleb128 0xb
 2549 01e6 01       		.byte	0x1
 2550 01e7 11       		.uleb128 0x11
 2551 01e8 01       		.uleb128 0x1
 2552 01e9 12       		.uleb128 0x12
 2553 01ea 06       		.uleb128 0x6
 2554 01eb 01       		.uleb128 0x1
 2555 01ec 13       		.uleb128 0x13
 2556 01ed 00       		.byte	0
 2557 01ee 00       		.byte	0
 2558 01ef 27       		.uleb128 0x27
 2559 01f0 34       		.uleb128 0x34
 2560 01f1 00       		.byte	0
 2561 01f2 03       		.uleb128 0x3
 2562 01f3 08       		.uleb128 0x8
 2563 01f4 3A       		.uleb128 0x3a
 2564 01f5 0B       		.uleb128 0xb
 2565 01f6 3B       		.uleb128 0x3b
ARM GAS  /tmp/cc9cuD55.s 			page 46


 2566 01f7 0B       		.uleb128 0xb
 2567 01f8 49       		.uleb128 0x49
 2568 01f9 13       		.uleb128 0x13
 2569 01fa 02       		.uleb128 0x2
 2570 01fb 17       		.uleb128 0x17
 2571 01fc 00       		.byte	0
 2572 01fd 00       		.byte	0
 2573 01fe 28       		.uleb128 0x28
 2574 01ff 1D       		.uleb128 0x1d
 2575 0200 01       		.byte	0x1
 2576 0201 31       		.uleb128 0x31
 2577 0202 13       		.uleb128 0x13
 2578 0203 52       		.uleb128 0x52
 2579 0204 01       		.uleb128 0x1
 2580 0205 55       		.uleb128 0x55
 2581 0206 17       		.uleb128 0x17
 2582 0207 58       		.uleb128 0x58
 2583 0208 0B       		.uleb128 0xb
 2584 0209 59       		.uleb128 0x59
 2585 020a 0B       		.uleb128 0xb
 2586 020b 01       		.uleb128 0x1
 2587 020c 13       		.uleb128 0x13
 2588 020d 00       		.byte	0
 2589 020e 00       		.byte	0
 2590 020f 29       		.uleb128 0x29
 2591 0210 2E       		.uleb128 0x2e
 2592 0211 01       		.byte	0x1
 2593 0212 3F       		.uleb128 0x3f
 2594 0213 19       		.uleb128 0x19
 2595 0214 03       		.uleb128 0x3
 2596 0215 0E       		.uleb128 0xe
 2597 0216 3A       		.uleb128 0x3a
 2598 0217 0B       		.uleb128 0xb
 2599 0218 3B       		.uleb128 0x3b
 2600 0219 0B       		.uleb128 0xb
 2601 021a 27       		.uleb128 0x27
 2602 021b 19       		.uleb128 0x19
 2603 021c 20       		.uleb128 0x20
 2604 021d 0B       		.uleb128 0xb
 2605 021e 01       		.uleb128 0x1
 2606 021f 13       		.uleb128 0x13
 2607 0220 00       		.byte	0
 2608 0221 00       		.byte	0
 2609 0222 2A       		.uleb128 0x2a
 2610 0223 05       		.uleb128 0x5
 2611 0224 00       		.byte	0
 2612 0225 03       		.uleb128 0x3
 2613 0226 08       		.uleb128 0x8
 2614 0227 3A       		.uleb128 0x3a
 2615 0228 0B       		.uleb128 0xb
 2616 0229 3B       		.uleb128 0x3b
 2617 022a 0B       		.uleb128 0xb
 2618 022b 49       		.uleb128 0x49
 2619 022c 13       		.uleb128 0x13
 2620 022d 00       		.byte	0
 2621 022e 00       		.byte	0
 2622 022f 2B       		.uleb128 0x2b
ARM GAS  /tmp/cc9cuD55.s 			page 47


 2623 0230 2E       		.uleb128 0x2e
 2624 0231 01       		.byte	0x1
 2625 0232 3F       		.uleb128 0x3f
 2626 0233 19       		.uleb128 0x19
 2627 0234 03       		.uleb128 0x3
 2628 0235 0E       		.uleb128 0xe
 2629 0236 3A       		.uleb128 0x3a
 2630 0237 0B       		.uleb128 0xb
 2631 0238 3B       		.uleb128 0x3b
 2632 0239 0B       		.uleb128 0xb
 2633 023a 27       		.uleb128 0x27
 2634 023b 19       		.uleb128 0x19
 2635 023c 11       		.uleb128 0x11
 2636 023d 01       		.uleb128 0x1
 2637 023e 12       		.uleb128 0x12
 2638 023f 06       		.uleb128 0x6
 2639 0240 40       		.uleb128 0x40
 2640 0241 18       		.uleb128 0x18
 2641 0242 9742     		.uleb128 0x2117
 2642 0244 19       		.uleb128 0x19
 2643 0245 01       		.uleb128 0x1
 2644 0246 13       		.uleb128 0x13
 2645 0247 00       		.byte	0
 2646 0248 00       		.byte	0
 2647 0249 2C       		.uleb128 0x2c
 2648 024a 1D       		.uleb128 0x1d
 2649 024b 01       		.byte	0x1
 2650 024c 31       		.uleb128 0x31
 2651 024d 13       		.uleb128 0x13
 2652 024e 11       		.uleb128 0x11
 2653 024f 01       		.uleb128 0x1
 2654 0250 12       		.uleb128 0x12
 2655 0251 06       		.uleb128 0x6
 2656 0252 58       		.uleb128 0x58
 2657 0253 0B       		.uleb128 0xb
 2658 0254 59       		.uleb128 0x59
 2659 0255 0B       		.uleb128 0xb
 2660 0256 01       		.uleb128 0x1
 2661 0257 13       		.uleb128 0x13
 2662 0258 00       		.byte	0
 2663 0259 00       		.byte	0
 2664 025a 2D       		.uleb128 0x2d
 2665 025b 0B       		.uleb128 0xb
 2666 025c 01       		.byte	0x1
 2667 025d 11       		.uleb128 0x11
 2668 025e 01       		.uleb128 0x1
 2669 025f 12       		.uleb128 0x12
 2670 0260 06       		.uleb128 0x6
 2671 0261 00       		.byte	0
 2672 0262 00       		.byte	0
 2673 0263 2E       		.uleb128 0x2e
 2674 0264 05       		.uleb128 0x5
 2675 0265 00       		.byte	0
 2676 0266 03       		.uleb128 0x3
 2677 0267 08       		.uleb128 0x8
 2678 0268 3A       		.uleb128 0x3a
 2679 0269 0B       		.uleb128 0xb
ARM GAS  /tmp/cc9cuD55.s 			page 48


 2680 026a 3B       		.uleb128 0x3b
 2681 026b 0B       		.uleb128 0xb
 2682 026c 49       		.uleb128 0x49
 2683 026d 13       		.uleb128 0x13
 2684 026e 02       		.uleb128 0x2
 2685 026f 18       		.uleb128 0x18
 2686 0270 00       		.byte	0
 2687 0271 00       		.byte	0
 2688 0272 2F       		.uleb128 0x2f
 2689 0273 2E       		.uleb128 0x2e
 2690 0274 01       		.byte	0x1
 2691 0275 03       		.uleb128 0x3
 2692 0276 0E       		.uleb128 0xe
 2693 0277 3A       		.uleb128 0x3a
 2694 0278 0B       		.uleb128 0xb
 2695 0279 3B       		.uleb128 0x3b
 2696 027a 0B       		.uleb128 0xb
 2697 027b 27       		.uleb128 0x27
 2698 027c 19       		.uleb128 0x19
 2699 027d 49       		.uleb128 0x49
 2700 027e 13       		.uleb128 0x13
 2701 027f 20       		.uleb128 0x20
 2702 0280 0B       		.uleb128 0xb
 2703 0281 01       		.uleb128 0x1
 2704 0282 13       		.uleb128 0x13
 2705 0283 00       		.byte	0
 2706 0284 00       		.byte	0
 2707 0285 30       		.uleb128 0x30
 2708 0286 34       		.uleb128 0x34
 2709 0287 00       		.byte	0
 2710 0288 03       		.uleb128 0x3
 2711 0289 08       		.uleb128 0x8
 2712 028a 3A       		.uleb128 0x3a
 2713 028b 0B       		.uleb128 0xb
 2714 028c 3B       		.uleb128 0x3b
 2715 028d 0B       		.uleb128 0xb
 2716 028e 49       		.uleb128 0x49
 2717 028f 13       		.uleb128 0x13
 2718 0290 00       		.byte	0
 2719 0291 00       		.byte	0
 2720 0292 31       		.uleb128 0x31
 2721 0293 2E       		.uleb128 0x2e
 2722 0294 01       		.byte	0x1
 2723 0295 03       		.uleb128 0x3
 2724 0296 0E       		.uleb128 0xe
 2725 0297 3A       		.uleb128 0x3a
 2726 0298 0B       		.uleb128 0xb
 2727 0299 3B       		.uleb128 0x3b
 2728 029a 0B       		.uleb128 0xb
 2729 029b 27       		.uleb128 0x27
 2730 029c 19       		.uleb128 0x19
 2731 029d 20       		.uleb128 0x20
 2732 029e 0B       		.uleb128 0xb
 2733 029f 01       		.uleb128 0x1
 2734 02a0 13       		.uleb128 0x13
 2735 02a1 00       		.byte	0
 2736 02a2 00       		.byte	0
ARM GAS  /tmp/cc9cuD55.s 			page 49


 2737 02a3 32       		.uleb128 0x32
 2738 02a4 2E       		.uleb128 0x2e
 2739 02a5 01       		.byte	0x1
 2740 02a6 31       		.uleb128 0x31
 2741 02a7 13       		.uleb128 0x13
 2742 02a8 11       		.uleb128 0x11
 2743 02a9 01       		.uleb128 0x1
 2744 02aa 12       		.uleb128 0x12
 2745 02ab 06       		.uleb128 0x6
 2746 02ac 40       		.uleb128 0x40
 2747 02ad 18       		.uleb128 0x18
 2748 02ae 9742     		.uleb128 0x2117
 2749 02b0 19       		.uleb128 0x19
 2750 02b1 01       		.uleb128 0x1
 2751 02b2 13       		.uleb128 0x13
 2752 02b3 00       		.byte	0
 2753 02b4 00       		.byte	0
 2754 02b5 33       		.uleb128 0x33
 2755 02b6 2E       		.uleb128 0x2e
 2756 02b7 00       		.byte	0
 2757 02b8 3F       		.uleb128 0x3f
 2758 02b9 19       		.uleb128 0x19
 2759 02ba 3C       		.uleb128 0x3c
 2760 02bb 19       		.uleb128 0x19
 2761 02bc 6E       		.uleb128 0x6e
 2762 02bd 0E       		.uleb128 0xe
 2763 02be 03       		.uleb128 0x3
 2764 02bf 0E       		.uleb128 0xe
 2765 02c0 3A       		.uleb128 0x3a
 2766 02c1 0B       		.uleb128 0xb
 2767 02c2 3B       		.uleb128 0x3b
 2768 02c3 0B       		.uleb128 0xb
 2769 02c4 00       		.byte	0
 2770 02c5 00       		.byte	0
 2771 02c6 00       		.byte	0
 2772              		.section	.debug_loc,"",%progbits
 2773              	.Ldebug_loc0:
 2774              	.LLST21:
 2775 0000 00000000 		.4byte	.LVL41
 2776 0004 09000000 		.4byte	.LVL42-1
 2777 0008 0100     		.2byte	0x1
 2778 000a 50       		.byte	0x50
 2779 000b 09000000 		.4byte	.LVL42-1
 2780 000f 46000000 		.4byte	.LVL52
 2781 0013 0100     		.2byte	0x1
 2782 0015 55       		.byte	0x55
 2783 0016 46000000 		.4byte	.LVL52
 2784 001a 4C000000 		.4byte	.LFE15
 2785 001e 0400     		.2byte	0x4
 2786 0020 F3       		.byte	0xf3
 2787 0021 01       		.uleb128 0x1
 2788 0022 50       		.byte	0x50
 2789 0023 9F       		.byte	0x9f
 2790 0024 00000000 		.4byte	0
 2791 0028 00000000 		.4byte	0
 2792              	.LLST22:
 2793 002c 00000000 		.4byte	.LVL41
ARM GAS  /tmp/cc9cuD55.s 			page 50


 2794 0030 09000000 		.4byte	.LVL42-1
 2795 0034 0100     		.2byte	0x1
 2796 0036 51       		.byte	0x51
 2797 0037 09000000 		.4byte	.LVL42-1
 2798 003b 46000000 		.4byte	.LVL52
 2799 003f 0100     		.2byte	0x1
 2800 0041 57       		.byte	0x57
 2801 0042 46000000 		.4byte	.LVL52
 2802 0046 4C000000 		.4byte	.LFE15
 2803 004a 0400     		.2byte	0x4
 2804 004c F3       		.byte	0xf3
 2805 004d 01       		.uleb128 0x1
 2806 004e 51       		.byte	0x51
 2807 004f 9F       		.byte	0x9f
 2808 0050 00000000 		.4byte	0
 2809 0054 00000000 		.4byte	0
 2810              	.LLST23:
 2811 0058 0E000000 		.4byte	.LVL43
 2812 005c 16000000 		.4byte	.LVL45
 2813 0060 0100     		.2byte	0x1
 2814 0062 50       		.byte	0x50
 2815 0063 16000000 		.4byte	.LVL45
 2816 0067 46000000 		.4byte	.LVL52
 2817 006b 0100     		.2byte	0x1
 2818 006d 56       		.byte	0x56
 2819 006e 00000000 		.4byte	0
 2820 0072 00000000 		.4byte	0
 2821              	.LLST24:
 2822 0076 3A000000 		.4byte	.LVL49
 2823 007a 3E000000 		.4byte	.LVL50
 2824 007e 0100     		.2byte	0x1
 2825 0080 50       		.byte	0x50
 2826 0081 3E000000 		.4byte	.LVL50
 2827 0085 46000000 		.4byte	.LVL52
 2828 0089 0100     		.2byte	0x1
 2829 008b 54       		.byte	0x54
 2830 008c 46000000 		.4byte	.LVL52
 2831 0090 4C000000 		.4byte	.LFE15
 2832 0094 0100     		.2byte	0x1
 2833 0096 50       		.byte	0x50
 2834 0097 00000000 		.4byte	0
 2835 009b 00000000 		.4byte	0
 2836              	.LLST25:
 2837 009f 14000000 		.4byte	.LVL44
 2838 00a3 32000000 		.4byte	.LVL47
 2839 00a7 0100     		.2byte	0x1
 2840 00a9 55       		.byte	0x55
 2841 00aa 00000000 		.4byte	0
 2842 00ae 00000000 		.4byte	0
 2843              	.LLST26:
 2844 00b2 14000000 		.4byte	.LVL44
 2845 00b6 32000000 		.4byte	.LVL47
 2846 00ba 0100     		.2byte	0x1
 2847 00bc 54       		.byte	0x54
 2848 00bd 00000000 		.4byte	0
 2849 00c1 00000000 		.4byte	0
 2850              	.LLST27:
ARM GAS  /tmp/cc9cuD55.s 			page 51


 2851 00c5 14000000 		.4byte	.LVL44
 2852 00c9 16000000 		.4byte	.LVL45
 2853 00cd 0100     		.2byte	0x1
 2854 00cf 55       		.byte	0x55
 2855 00d0 16000000 		.4byte	.LVL45
 2856 00d4 32000000 		.4byte	.LVL47
 2857 00d8 0100     		.2byte	0x1
 2858 00da 53       		.byte	0x53
 2859 00db 00000000 		.4byte	0
 2860 00df 00000000 		.4byte	0
 2861              	.LLST28:
 2862 00e3 00000000 		.4byte	.LVL53
 2863 00e7 0B000000 		.4byte	.LVL54-1
 2864 00eb 0100     		.2byte	0x1
 2865 00ed 50       		.byte	0x50
 2866 00ee 0B000000 		.4byte	.LVL54-1
 2867 00f2 14000000 		.4byte	.LFE14
 2868 00f6 0400     		.2byte	0x4
 2869 00f8 F3       		.byte	0xf3
 2870 00f9 01       		.uleb128 0x1
 2871 00fa 50       		.byte	0x50
 2872 00fb 9F       		.byte	0x9f
 2873 00fc 00000000 		.4byte	0
 2874 0100 00000000 		.4byte	0
 2875              	.LLST29:
 2876 0104 00000000 		.4byte	.LVL53
 2877 0108 0B000000 		.4byte	.LVL54-1
 2878 010c 0100     		.2byte	0x1
 2879 010e 51       		.byte	0x51
 2880 010f 0B000000 		.4byte	.LVL54-1
 2881 0113 14000000 		.4byte	.LFE14
 2882 0117 0400     		.2byte	0x4
 2883 0119 F3       		.byte	0xf3
 2884 011a 01       		.uleb128 0x1
 2885 011b 51       		.byte	0x51
 2886 011c 9F       		.byte	0x9f
 2887 011d 00000000 		.4byte	0
 2888 0121 00000000 		.4byte	0
 2889              	.LLST13:
 2890 0125 00000000 		.4byte	.LVL26
 2891 0129 0B000000 		.4byte	.LVL28-1
 2892 012d 0100     		.2byte	0x1
 2893 012f 50       		.byte	0x50
 2894 0130 0B000000 		.4byte	.LVL28-1
 2895 0134 3E000000 		.4byte	.LVL38
 2896 0138 0100     		.2byte	0x1
 2897 013a 55       		.byte	0x55
 2898 013b 3E000000 		.4byte	.LVL38
 2899 013f 44000000 		.4byte	.LFE13
 2900 0143 0400     		.2byte	0x4
 2901 0145 F3       		.byte	0xf3
 2902 0146 01       		.uleb128 0x1
 2903 0147 50       		.byte	0x50
 2904 0148 9F       		.byte	0x9f
 2905 0149 00000000 		.4byte	0
 2906 014d 00000000 		.4byte	0
 2907              	.LLST14:
ARM GAS  /tmp/cc9cuD55.s 			page 52


 2908 0151 08000000 		.4byte	.LVL27
 2909 0155 34000000 		.4byte	.LVL36
 2910 0159 0100     		.2byte	0x1
 2911 015b 54       		.byte	0x54
 2912 015c 00000000 		.4byte	0
 2913 0160 00000000 		.4byte	0
 2914              	.LLST15:
 2915 0164 10000000 		.4byte	.LVL29
 2916 0168 26000000 		.4byte	.LVL33
 2917 016c 0100     		.2byte	0x1
 2918 016e 50       		.byte	0x50
 2919 016f 26000000 		.4byte	.LVL33
 2920 0173 3E000000 		.4byte	.LVL38
 2921 0177 0100     		.2byte	0x1
 2922 0179 56       		.byte	0x56
 2923 017a 00000000 		.4byte	0
 2924 017e 00000000 		.4byte	0
 2925              	.LLST16:
 2926 0182 34000000 		.4byte	.LVL36
 2927 0186 3E000000 		.4byte	.LVL38
 2928 018a 0100     		.2byte	0x1
 2929 018c 54       		.byte	0x54
 2930 018d 3E000000 		.4byte	.LVL38
 2931 0191 44000000 		.4byte	.LFE13
 2932 0195 0100     		.2byte	0x1
 2933 0197 50       		.byte	0x50
 2934 0198 00000000 		.4byte	0
 2935 019c 00000000 		.4byte	0
 2936              	.LLST17:
 2937 01a0 12000000 		.4byte	.LVL30
 2938 01a4 2E000000 		.4byte	.LVL34
 2939 01a8 0100     		.2byte	0x1
 2940 01aa 55       		.byte	0x55
 2941 01ab 00000000 		.4byte	0
 2942 01af 00000000 		.4byte	0
 2943              	.LLST18:
 2944 01b3 12000000 		.4byte	.LVL30
 2945 01b7 2E000000 		.4byte	.LVL34
 2946 01bb 0100     		.2byte	0x1
 2947 01bd 54       		.byte	0x54
 2948 01be 00000000 		.4byte	0
 2949 01c2 00000000 		.4byte	0
 2950              	.LLST19:
 2951 01c6 12000000 		.4byte	.LVL30
 2952 01ca 14000000 		.4byte	.LVL31
 2953 01ce 0100     		.2byte	0x1
 2954 01d0 55       		.byte	0x55
 2955 01d1 14000000 		.4byte	.LVL31
 2956 01d5 2E000000 		.4byte	.LVL34
 2957 01d9 0100     		.2byte	0x1
 2958 01db 53       		.byte	0x53
 2959 01dc 00000000 		.4byte	0
 2960 01e0 00000000 		.4byte	0
 2961              	.LLST20:
 2962 01e4 00000000 		.4byte	.LVL39
 2963 01e8 0B000000 		.4byte	.LVL40-1
 2964 01ec 0100     		.2byte	0x1
ARM GAS  /tmp/cc9cuD55.s 			page 53


 2965 01ee 50       		.byte	0x50
 2966 01ef 0B000000 		.4byte	.LVL40-1
 2967 01f3 14000000 		.4byte	.LFE12
 2968 01f7 0400     		.2byte	0x4
 2969 01f9 F3       		.byte	0xf3
 2970 01fa 01       		.uleb128 0x1
 2971 01fb 50       		.byte	0x50
 2972 01fc 9F       		.byte	0x9f
 2973 01fd 00000000 		.4byte	0
 2974 0201 00000000 		.4byte	0
 2975              	.LLST6:
 2976 0205 00000000 		.4byte	.LVL13
 2977 0209 0C000000 		.4byte	.LVL15
 2978 020d 0100     		.2byte	0x1
 2979 020f 50       		.byte	0x50
 2980 0210 0C000000 		.4byte	.LVL15
 2981 0214 34000000 		.4byte	.LFE10
 2982 0218 0100     		.2byte	0x1
 2983 021a 54       		.byte	0x54
 2984 021b 00000000 		.4byte	0
 2985 021f 00000000 		.4byte	0
 2986              	.LLST7:
 2987 0223 0A000000 		.4byte	.LVL14
 2988 0227 0C000000 		.4byte	.LVL15
 2989 022b 0100     		.2byte	0x1
 2990 022d 50       		.byte	0x50
 2991 022e 0C000000 		.4byte	.LVL15
 2992 0232 28000000 		.4byte	.LVL19
 2993 0236 0100     		.2byte	0x1
 2994 0238 54       		.byte	0x54
 2995 0239 00000000 		.4byte	0
 2996 023d 00000000 		.4byte	0
 2997              	.LLST8:
 2998 0241 16000000 		.4byte	.LVL16
 2999 0245 1C000000 		.4byte	.LVL17
 3000 0249 0100     		.2byte	0x1
 3001 024b 54       		.byte	0x54
 3002 024c 00000000 		.4byte	0
 3003 0250 00000000 		.4byte	0
 3004              	.LLST9:
 3005 0254 16000000 		.4byte	.LVL16
 3006 0258 1C000000 		.4byte	.LVL17
 3007 025c 0100     		.2byte	0x1
 3008 025e 50       		.byte	0x50
 3009 025f 00000000 		.4byte	0
 3010 0263 00000000 		.4byte	0
 3011              	.LLST3:
 3012 0267 00000000 		.4byte	.LVL7
 3013 026b 0E000000 		.4byte	.LVL9
 3014 026f 0100     		.2byte	0x1
 3015 0271 50       		.byte	0x50
 3016 0272 0E000000 		.4byte	.LVL9
 3017 0276 15000000 		.4byte	.LVL11-1
 3018 027a 0100     		.2byte	0x1
 3019 027c 53       		.byte	0x53
 3020 027d 15000000 		.4byte	.LVL11-1
 3021 0281 1C000000 		.4byte	.LVL12
ARM GAS  /tmp/cc9cuD55.s 			page 54


 3022 0285 0400     		.2byte	0x4
 3023 0287 F3       		.byte	0xf3
 3024 0288 01       		.uleb128 0x1
 3025 0289 50       		.byte	0x50
 3026 028a 9F       		.byte	0x9f
 3027 028b 1C000000 		.4byte	.LVL12
 3028 028f 1E000000 		.4byte	.LFE9
 3029 0293 0100     		.2byte	0x1
 3030 0295 50       		.byte	0x50
 3031 0296 00000000 		.4byte	0
 3032 029a 00000000 		.4byte	0
 3033              	.LLST4:
 3034 029e 0A000000 		.4byte	.LVL8
 3035 02a2 0E000000 		.4byte	.LVL9
 3036 02a6 0100     		.2byte	0x1
 3037 02a8 50       		.byte	0x50
 3038 02a9 0E000000 		.4byte	.LVL9
 3039 02ad 12000000 		.4byte	.LVL10
 3040 02b1 0100     		.2byte	0x1
 3041 02b3 53       		.byte	0x53
 3042 02b4 00000000 		.4byte	0
 3043 02b8 00000000 		.4byte	0
 3044              	.LLST5:
 3045 02bc 0A000000 		.4byte	.LVL8
 3046 02c0 12000000 		.4byte	.LVL10
 3047 02c4 0100     		.2byte	0x1
 3048 02c6 52       		.byte	0x52
 3049 02c7 00000000 		.4byte	0
 3050 02cb 00000000 		.4byte	0
 3051              	.LLST0:
 3052 02cf 00000000 		.4byte	.LVL1
 3053 02d3 14000000 		.4byte	.LVL3
 3054 02d7 0100     		.2byte	0x1
 3055 02d9 50       		.byte	0x50
 3056 02da 14000000 		.4byte	.LVL3
 3057 02de 1D000000 		.4byte	.LVL5-1
 3058 02e2 0100     		.2byte	0x1
 3059 02e4 53       		.byte	0x53
 3060 02e5 1D000000 		.4byte	.LVL5-1
 3061 02e9 26000000 		.4byte	.LVL6
 3062 02ed 0400     		.2byte	0x4
 3063 02ef F3       		.byte	0xf3
 3064 02f0 01       		.uleb128 0x1
 3065 02f1 50       		.byte	0x50
 3066 02f2 9F       		.byte	0x9f
 3067 02f3 26000000 		.4byte	.LVL6
 3068 02f7 2E000000 		.4byte	.LFE8
 3069 02fb 0100     		.2byte	0x1
 3070 02fd 50       		.byte	0x50
 3071 02fe 00000000 		.4byte	0
 3072 0302 00000000 		.4byte	0
 3073              	.LLST1:
 3074 0306 0E000000 		.4byte	.LVL2
 3075 030a 14000000 		.4byte	.LVL3
 3076 030e 0100     		.2byte	0x1
 3077 0310 50       		.byte	0x50
 3078 0311 14000000 		.4byte	.LVL3
ARM GAS  /tmp/cc9cuD55.s 			page 55


 3079 0315 1A000000 		.4byte	.LVL4
 3080 0319 0100     		.2byte	0x1
 3081 031b 53       		.byte	0x53
 3082 031c 00000000 		.4byte	0
 3083 0320 00000000 		.4byte	0
 3084              	.LLST2:
 3085 0324 0E000000 		.4byte	.LVL2
 3086 0328 1A000000 		.4byte	.LVL4
 3087 032c 0100     		.2byte	0x1
 3088 032e 52       		.byte	0x52
 3089 032f 00000000 		.4byte	0
 3090 0333 00000000 		.4byte	0
 3091              	.LLST10:
 3092 0337 00000000 		.4byte	.LVL21
 3093 033b 06000000 		.4byte	.LVL22
 3094 033f 0100     		.2byte	0x1
 3095 0341 50       		.byte	0x50
 3096 0342 06000000 		.4byte	.LVL22
 3097 0346 22000000 		.4byte	.LFE11
 3098 034a 0100     		.2byte	0x1
 3099 034c 54       		.byte	0x54
 3100 034d 00000000 		.4byte	0
 3101 0351 00000000 		.4byte	0
 3102              	.LLST11:
 3103 0355 0E000000 		.4byte	.LVL23
 3104 0359 14000000 		.4byte	.LVL24
 3105 035d 0100     		.2byte	0x1
 3106 035f 54       		.byte	0x54
 3107 0360 00000000 		.4byte	0
 3108 0364 00000000 		.4byte	0
 3109              	.LLST12:
 3110 0368 0E000000 		.4byte	.LVL23
 3111 036c 14000000 		.4byte	.LVL24
 3112 0370 0100     		.2byte	0x1
 3113 0372 50       		.byte	0x50
 3114 0373 00000000 		.4byte	0
 3115 0377 00000000 		.4byte	0
 3116              		.section	.debug_aranges,"",%progbits
 3117 0000 5C000000 		.4byte	0x5c
 3118 0004 0200     		.2byte	0x2
 3119 0006 00000000 		.4byte	.Ldebug_info0
 3120 000a 04       		.byte	0x4
 3121 000b 00       		.byte	0
 3122 000c 0000     		.2byte	0
 3123 000e 0000     		.2byte	0
 3124 0010 00000000 		.4byte	.LFB7
 3125 0014 06000000 		.4byte	.LFE7-.LFB7
 3126 0018 00000000 		.4byte	.LFB8
 3127 001c 2E000000 		.4byte	.LFE8-.LFB8
 3128 0020 00000000 		.4byte	.LFB9
 3129 0024 1E000000 		.4byte	.LFE9-.LFB9
 3130 0028 00000000 		.4byte	.LFB10
 3131 002c 34000000 		.4byte	.LFE10-.LFB10
 3132 0030 00000000 		.4byte	.LFB11
 3133 0034 22000000 		.4byte	.LFE11-.LFB11
 3134 0038 00000000 		.4byte	.LFB13
 3135 003c 44000000 		.4byte	.LFE13-.LFB13
ARM GAS  /tmp/cc9cuD55.s 			page 56


 3136 0040 00000000 		.4byte	.LFB12
 3137 0044 14000000 		.4byte	.LFE12-.LFB12
 3138 0048 00000000 		.4byte	.LFB15
 3139 004c 4C000000 		.4byte	.LFE15-.LFB15
 3140 0050 00000000 		.4byte	.LFB14
 3141 0054 14000000 		.4byte	.LFE14-.LFB14
 3142 0058 00000000 		.4byte	0
 3143 005c 00000000 		.4byte	0
 3144              		.section	.debug_ranges,"",%progbits
 3145              	.Ldebug_ranges0:
 3146 0000 10000000 		.4byte	.LBB21
 3147 0004 12000000 		.4byte	.LBE21
 3148 0008 14000000 		.4byte	.LBB25
 3149 000c 16000000 		.4byte	.LBE25
 3150 0010 18000000 		.4byte	.LBB26
 3151 0014 1A000000 		.4byte	.LBE26
 3152 0018 00000000 		.4byte	0
 3153 001c 00000000 		.4byte	0
 3154 0020 0A000000 		.4byte	.LBB28
 3155 0024 0C000000 		.4byte	.LBE28
 3156 0028 0E000000 		.4byte	.LBB31
 3157 002c 12000000 		.4byte	.LBE31
 3158 0030 00000000 		.4byte	0
 3159 0034 00000000 		.4byte	0
 3160 0038 14000000 		.4byte	.LBB40
 3161 003c 24000000 		.4byte	.LBE40
 3162 0040 26000000 		.4byte	.LBB43
 3163 0044 2E000000 		.4byte	.LBE43
 3164 0048 00000000 		.4byte	0
 3165 004c 00000000 		.4byte	0
 3166 0050 16000000 		.4byte	.LBB46
 3167 0054 26000000 		.4byte	.LBE46
 3168 0058 28000000 		.4byte	.LBB50
 3169 005c 2C000000 		.4byte	.LBE50
 3170 0060 2E000000 		.4byte	.LBB51
 3171 0064 32000000 		.4byte	.LBE51
 3172 0068 00000000 		.4byte	0
 3173 006c 00000000 		.4byte	0
 3174 0070 00000000 		.4byte	.LFB7
 3175 0074 06000000 		.4byte	.LFE7
 3176 0078 00000000 		.4byte	.LFB8
 3177 007c 2E000000 		.4byte	.LFE8
 3178 0080 00000000 		.4byte	.LFB9
 3179 0084 1E000000 		.4byte	.LFE9
 3180 0088 00000000 		.4byte	.LFB10
 3181 008c 34000000 		.4byte	.LFE10
 3182 0090 00000000 		.4byte	.LFB11
 3183 0094 22000000 		.4byte	.LFE11
 3184 0098 00000000 		.4byte	.LFB13
 3185 009c 44000000 		.4byte	.LFE13
 3186 00a0 00000000 		.4byte	.LFB12
 3187 00a4 14000000 		.4byte	.LFE12
 3188 00a8 00000000 		.4byte	.LFB15
 3189 00ac 4C000000 		.4byte	.LFE15
 3190 00b0 00000000 		.4byte	.LFB14
 3191 00b4 14000000 		.4byte	.LFE14
 3192 00b8 00000000 		.4byte	0
ARM GAS  /tmp/cc9cuD55.s 			page 57


 3193 00bc 00000000 		.4byte	0
 3194              		.section	.debug_line,"",%progbits
 3195              	.Ldebug_line0:
 3196 0000 A5020000 		.section	.debug_str,"MS",%progbits,1
 3196      02004601 
 3196      00000201 
 3196      FB0E0D00 
 3196      01010101 
 3197              	.LASF95:
 3198 0000 63665F6F 		.ascii	"cf_off_older\000"
 3198      66665F6F 
 3198      6C646572 
 3198      00
 3199              	.LASF124:
 3200 000d 2F686F6D 		.ascii	"/home/ekobayu/Arok-Gandring-Lokajaya/LPC/ChibiOS-RT"
 3200      652F656B 
 3200      6F626179 
 3200      752F4172 
 3200      6F6B2D47 
 3201 0040 2D4C5043 		.ascii	"-LPC/demos/LPC1766\000"
 3201      2F64656D 
 3201      6F732F4C 
 3201      50433137 
 3201      363600
 3202              	.LASF44:
 3203 0053 705F6D73 		.ascii	"p_msg\000"
 3203      6700
 3204              	.LASF114:
 3205 0059 6368436F 		.ascii	"chCondInit\000"
 3205      6E64496E 
 3205      697400
 3206              	.LASF61:
 3207 0064 76745F66 		.ascii	"vt_func\000"
 3207      756E6300 
 3208              	.LASF19:
 3209 006c 75696E74 		.ascii	"uint64_t\000"
 3209      36345F74 
 3209      00
 3210              	.LASF6:
 3211 0075 5F5F7569 		.ascii	"__uint8_t\000"
 3211      6E74385F 
 3211      7400
 3212              	.LASF72:
 3213 007f 76746C69 		.ascii	"vtlist\000"
 3213      737400
 3214              	.LASF14:
 3215 0086 6C6F6E67 		.ascii	"long long unsigned int\000"
 3215      206C6F6E 
 3215      6720756E 
 3215      7369676E 
 3215      65642069 
 3216              	.LASF91:
 3217 009d 63685F74 		.ascii	"ch_threadsize\000"
 3217      68726561 
 3217      6473697A 
 3217      6500
 3218              	.LASF81:
ARM GAS  /tmp/cc9cuD55.s 			page 58


 3219 00ab 65786974 		.ascii	"exitcode\000"
 3219      636F6465 
 3219      00
 3220              	.LASF125:
 3221 00b4 6368436F 		.ascii	"chCondBroadcastI\000"
 3221      6E644272 
 3221      6F616463 
 3221      61737449 
 3221      00
 3222              	.LASF32:
 3223 00c5 705F7072 		.ascii	"p_prio\000"
 3223      696F00
 3224              	.LASF98:
 3225 00cc 63665F6F 		.ascii	"cf_off_state\000"
 3225      66665F73 
 3225      74617465 
 3225      00
 3226              	.LASF1:
 3227 00d9 6C6F6E67 		.ascii	"long long int\000"
 3227      206C6F6E 
 3227      6720696E 
 3227      7400
 3228              	.LASF3:
 3229 00e7 7369676E 		.ascii	"signed char\000"
 3229      65642063 
 3229      68617200 
 3230              	.LASF97:
 3231 00f3 63665F6F 		.ascii	"cf_off_stklimit\000"
 3231      66665F73 
 3231      746B6C69 
 3231      6D697400 
 3232              	.LASF99:
 3233 0103 63665F6F 		.ascii	"cf_off_flags\000"
 3233      66665F66 
 3233      6C616773 
 3233      00
 3234              	.LASF48:
 3235 0110 705F6D70 		.ascii	"p_mpool\000"
 3235      6F6F6C00 
 3236              	.LASF75:
 3237 0118 6D5F7175 		.ascii	"m_queue\000"
 3237      65756500 
 3238              	.LASF24:
 3239 0120 74736C69 		.ascii	"tslices_t\000"
 3239      6365735F 
 3239      7400
 3240              	.LASF78:
 3241 012a 436F6E64 		.ascii	"CondVar\000"
 3241      56617200 
 3242              	.LASF10:
 3243 0132 6C6F6E67 		.ascii	"long int\000"
 3243      20696E74 
 3243      00
 3244              	.LASF109:
 3245 013b 6368436F 		.ascii	"chCondWaitS\000"
 3245      6E645761 
 3245      69745300 
ARM GAS  /tmp/cc9cuD55.s 			page 59


 3246              	.LASF22:
 3247 0147 74737461 		.ascii	"tstate_t\000"
 3247      74655F74 
 3247      00
 3248              	.LASF117:
 3249 0150 63684D74 		.ascii	"chMtxLockS\000"
 3249      784C6F63 
 3249      6B5300
 3250              	.LASF16:
 3251 015b 75696E74 		.ascii	"uint16_t\000"
 3251      31365F74 
 3251      00
 3252              	.LASF103:
 3253 0164 63686465 		.ascii	"chdebug_t\000"
 3253      6275675F 
 3253      7400
 3254              	.LASF34:
 3255 016e 705F6E65 		.ascii	"p_newer\000"
 3255      77657200 
 3256              	.LASF105:
 3257 0176 5F69646C 		.ascii	"_idle_thread_wa\000"
 3257      655F7468 
 3257      72656164 
 3257      5F776100 
 3258              	.LASF120:
 3259 0186 63685363 		.ascii	"chSchRescheduleS\000"
 3259      68526573 
 3259      63686564 
 3259      756C6553 
 3259      00
 3260              	.LASF11:
 3261 0197 5F5F7569 		.ascii	"__uint32_t\000"
 3261      6E743332 
 3261      5F7400
 3262              	.LASF51:
 3263 01a2 72656761 		.ascii	"regarm_t\000"
 3263      726D5F74 
 3263      00
 3264              	.LASF59:
 3265 01ab 76745F70 		.ascii	"vt_prev\000"
 3265      72657600 
 3266              	.LASF123:
 3267 01b3 2E2E2F2E 		.ascii	"../../os/kernel/src/chcond.c\000"
 3267      2E2F6F73 
 3267      2F6B6572 
 3267      6E656C2F 
 3267      7372632F 
 3268              	.LASF113:
 3269 01d0 6368436F 		.ascii	"chCondSignal\000"
 3269      6E645369 
 3269      676E616C 
 3269      00
 3270              	.LASF115:
 3271 01dd 63684D74 		.ascii	"chMtxUnlockS\000"
 3271      78556E6C 
 3271      6F636B53 
 3271      00
ARM GAS  /tmp/cc9cuD55.s 			page 60


 3272              	.LASF0:
 3273 01ea 756E7369 		.ascii	"unsigned int\000"
 3273      676E6564 
 3273      20696E74 
 3273      00
 3274              	.LASF58:
 3275 01f7 76745F6E 		.ascii	"vt_next\000"
 3275      65787400 
 3276              	.LASF12:
 3277 01ff 6C6F6E67 		.ascii	"long unsigned int\000"
 3277      20756E73 
 3277      69676E65 
 3277      6420696E 
 3277      7400
 3278              	.LASF104:
 3279 0211 63685F64 		.ascii	"ch_debug\000"
 3279      65627567 
 3279      00
 3280              	.LASF56:
 3281 021a 76746675 		.ascii	"vtfunc_t\000"
 3281      6E635F74 
 3281      00
 3282              	.LASF85:
 3283 0223 63685F69 		.ascii	"ch_identifier\000"
 3283      64656E74 
 3283      69666965 
 3283      7200
 3284              	.LASF54:
 3285 0231 636F6E74 		.ascii	"context\000"
 3285      65787400 
 3286              	.LASF8:
 3287 0239 73686F72 		.ascii	"short unsigned int\000"
 3287      7420756E 
 3287      7369676E 
 3287      65642069 
 3287      6E7400
 3288              	.LASF121:
 3289 024c 63685363 		.ascii	"chSchWakeupS\000"
 3289      6857616B 
 3289      65757053 
 3289      00
 3290              	.LASF26:
 3291 0259 6D73675F 		.ascii	"msg_t\000"
 3291      7400
 3292              	.LASF68:
 3293 025f 725F6E65 		.ascii	"r_newer\000"
 3293      77657200 
 3294              	.LASF21:
 3295 0267 746D6F64 		.ascii	"tmode_t\000"
 3295      655F7400 
 3296              	.LASF50:
 3297 026f 54687265 		.ascii	"ThreadsList\000"
 3297      6164734C 
 3297      69737400 
 3298              	.LASF27:
 3299 027b 6576656E 		.ascii	"eventmask_t\000"
 3299      746D6173 
ARM GAS  /tmp/cc9cuD55.s 			page 61


 3299      6B5F7400 
 3300              	.LASF74:
 3301 0287 4D757465 		.ascii	"Mutex\000"
 3301      7800
 3302              	.LASF52:
 3303 028d 73746B61 		.ascii	"stkalign_t\000"
 3303      6C69676E 
 3303      5F7400
 3304              	.LASF86:
 3305 0298 63685F7A 		.ascii	"ch_zero\000"
 3305      65726F00 
 3306              	.LASF100:
 3307 02a0 63665F6F 		.ascii	"cf_off_refs\000"
 3307      66665F72 
 3307      65667300 
 3308              	.LASF60:
 3309 02ac 76745F74 		.ascii	"vt_time\000"
 3309      696D6500 
 3310              	.LASF122:
 3311 02b4 474E5520 		.ascii	"GNU C11 6.3.1 20170620 -mcpu=cortex-m3 -mno-thumb-i"
 3311      43313120 
 3311      362E332E 
 3311      31203230 
 3311      31373036 
 3312 02e7 6E746572 		.ascii	"nterwork -mthumb -ggdb -O2 -fomit-frame-pointer -ff"
 3312      776F726B 
 3312      202D6D74 
 3312      68756D62 
 3312      202D6767 
 3313 031a 756E6374 		.ascii	"unction-sections -fdata-sections -fno-common\000"
 3313      696F6E2D 
 3313      73656374 
 3313      696F6E73 
 3313      202D6664 
 3314              	.LASF55:
 3315 0347 73697A65 		.ascii	"sizetype\000"
 3315      74797065 
 3315      00
 3316              	.LASF2:
 3317 0350 6C6F6E67 		.ascii	"long double\000"
 3317      20646F75 
 3317      626C6500 
 3318              	.LASF107:
 3319 035c 6368436F 		.ascii	"chCondWaitTimeoutS\000"
 3319      6E645761 
 3319      69745469 
 3319      6D656F75 
 3319      745300
 3320              	.LASF90:
 3321 036f 63685F74 		.ascii	"ch_timesize\000"
 3321      696D6573 
 3321      697A6500 
 3322              	.LASF96:
 3323 037b 63665F6F 		.ascii	"cf_off_name\000"
 3323      66665F6E 
 3323      616D6500 
 3324              	.LASF35:
ARM GAS  /tmp/cc9cuD55.s 			page 62


 3325 0387 705F6F6C 		.ascii	"p_older\000"
 3325      64657200 
 3326              	.LASF67:
 3327 038f 725F6374 		.ascii	"r_ctx\000"
 3327      7800
 3328              	.LASF49:
 3329 0395 54687265 		.ascii	"ThreadsQueue\000"
 3329      61647351 
 3329      75657565 
 3329      00
 3330              	.LASF87:
 3331 03a2 63685F73 		.ascii	"ch_size\000"
 3331      697A6500 
 3332              	.LASF106:
 3333 03aa 74696D65 		.ascii	"time\000"
 3333      00
 3334              	.LASF70:
 3335 03af 725F6375 		.ascii	"r_current\000"
 3335      7272656E 
 3335      7400
 3336              	.LASF69:
 3337 03b9 725F6F6C 		.ascii	"r_older\000"
 3337      64657200 
 3338              	.LASF111:
 3339 03c1 6368436F 		.ascii	"chCondBroadcast\000"
 3339      6E644272 
 3339      6F616463 
 3339      61737400 
 3340              	.LASF13:
 3341 03d1 5F5F7569 		.ascii	"__uint64_t\000"
 3341      6E743634 
 3341      5F7400
 3342              	.LASF23:
 3343 03dc 74726566 		.ascii	"trefs_t\000"
 3343      735F7400 
 3344              	.LASF89:
 3345 03e4 63685F70 		.ascii	"ch_ptrsize\000"
 3345      74727369 
 3345      7A6500
 3346              	.LASF31:
 3347 03ef 705F7072 		.ascii	"p_prev\000"
 3347      657600
 3348              	.LASF25:
 3349 03f6 74707269 		.ascii	"tprio_t\000"
 3349      6F5F7400 
 3350              	.LASF112:
 3351 03fe 6368436F 		.ascii	"chCondSignalI\000"
 3351      6E645369 
 3351      676E616C 
 3351      4900
 3352              	.LASF20:
 3353 040c 5F426F6F 		.ascii	"_Bool\000"
 3353      6C00
 3354              	.LASF17:
 3355 0412 696E7433 		.ascii	"int32_t\000"
 3355      325F7400 
 3356              	.LASF4:
ARM GAS  /tmp/cc9cuD55.s 			page 63


 3357 041a 756E7369 		.ascii	"unsigned char\000"
 3357      676E6564 
 3357      20636861 
 3357      7200
 3358              	.LASF46:
 3359 0428 705F6D74 		.ascii	"p_mtxlist\000"
 3359      786C6973 
 3359      7400
 3360              	.LASF5:
 3361 0432 73686F72 		.ascii	"short int\000"
 3361      7420696E 
 3361      7400
 3362              	.LASF37:
 3363 043c 705F7374 		.ascii	"p_state\000"
 3363      61746500 
 3364              	.LASF40:
 3365 0444 705F7072 		.ascii	"p_preempt\000"
 3365      65656D70 
 3365      7400
 3366              	.LASF102:
 3367 044e 63665F6F 		.ascii	"cf_off_time\000"
 3367      66665F74 
 3367      696D6500 
 3368              	.LASF66:
 3369 045a 725F7072 		.ascii	"r_prio\000"
 3369      696F00
 3370              	.LASF83:
 3371 0461 65776D61 		.ascii	"ewmask\000"
 3371      736B00
 3372              	.LASF30:
 3373 0468 705F6E65 		.ascii	"p_next\000"
 3373      787400
 3374              	.LASF101:
 3375 046f 63665F6F 		.ascii	"cf_off_preempt\000"
 3375      66665F70 
 3375      7265656D 
 3375      707400
 3376              	.LASF38:
 3377 047e 705F666C 		.ascii	"p_flags\000"
 3377      61677300 
 3378              	.LASF29:
 3379 0486 54687265 		.ascii	"Thread\000"
 3379      616400
 3380              	.LASF79:
 3381 048d 635F7175 		.ascii	"c_queue\000"
 3381      65756500 
 3382              	.LASF118:
 3383 0495 63685363 		.ascii	"chSchGoSleepS\000"
 3383      68476F53 
 3383      6C656570 
 3383      5300
 3384              	.LASF45:
 3385 04a3 705F6570 		.ascii	"p_epending\000"
 3385      656E6469 
 3385      6E6700
 3386              	.LASF18:
 3387 04ae 75696E74 		.ascii	"uint32_t\000"
ARM GAS  /tmp/cc9cuD55.s 			page 64


 3387      33325F74 
 3387      00
 3388              	.LASF92:
 3389 04b7 63665F6F 		.ascii	"cf_off_prio\000"
 3389      66665F70 
 3389      72696F00 
 3390              	.LASF65:
 3391 04c3 725F7175 		.ascii	"r_queue\000"
 3391      65756500 
 3392              	.LASF57:
 3393 04cb 56697274 		.ascii	"VirtualTimer\000"
 3393      75616C54 
 3393      696D6572 
 3393      00
 3394              	.LASF84:
 3395 04d8 63686172 		.ascii	"char\000"
 3395      00
 3396              	.LASF126:
 3397 04dd 6669666F 		.ascii	"fifo_remove\000"
 3397      5F72656D 
 3397      6F766500 
 3398              	.LASF7:
 3399 04e9 5F5F7569 		.ascii	"__uint16_t\000"
 3399      6E743136 
 3399      5F7400
 3400              	.LASF119:
 3401 04f4 63685363 		.ascii	"chSchReadyI\000"
 3401      68526561 
 3401      64794900 
 3402              	.LASF77:
 3403 0500 6D5F6E65 		.ascii	"m_next\000"
 3403      787400
 3404              	.LASF28:
 3405 0507 73797374 		.ascii	"systime_t\000"
 3405      696D655F 
 3405      7400
 3406              	.LASF47:
 3407 0511 705F7265 		.ascii	"p_realprio\000"
 3407      616C7072 
 3407      696F00
 3408              	.LASF9:
 3409 051c 5F5F696E 		.ascii	"__int32_t\000"
 3409      7433325F 
 3409      7400
 3410              	.LASF127:
 3411 0526 7072696F 		.ascii	"prio_insert\000"
 3411      5F696E73 
 3411      65727400 
 3412              	.LASF110:
 3413 0532 6368436F 		.ascii	"chCondWait\000"
 3413      6E645761 
 3413      697400
 3414              	.LASF41:
 3415 053d 705F7469 		.ascii	"p_time\000"
 3415      6D6500
 3416              	.LASF53:
 3417 0544 696E7463 		.ascii	"intctx\000"
ARM GAS  /tmp/cc9cuD55.s 			page 65


 3417      747800
 3418              	.LASF43:
 3419 054b 705F6D73 		.ascii	"p_msgqueue\000"
 3419      67717565 
 3419      756500
 3420              	.LASF62:
 3421 0556 76745F70 		.ascii	"vt_par\000"
 3421      617200
 3422              	.LASF93:
 3423 055d 63665F6F 		.ascii	"cf_off_ctx\000"
 3423      66665F63 
 3423      747800
 3424              	.LASF80:
 3425 0568 7264796D 		.ascii	"rdymsg\000"
 3425      736700
 3426              	.LASF39:
 3427 056f 705F7265 		.ascii	"p_refs\000"
 3427      667300
 3428              	.LASF71:
 3429 0576 52656164 		.ascii	"ReadyList\000"
 3429      794C6973 
 3429      7400
 3430              	.LASF73:
 3431 0580 726C6973 		.ascii	"rlist\000"
 3431      7400
 3432              	.LASF15:
 3433 0586 75696E74 		.ascii	"uint8_t\000"
 3433      385F7400 
 3434              	.LASF82:
 3435 058e 77746F62 		.ascii	"wtobjp\000"
 3435      6A7000
 3436              	.LASF94:
 3437 0595 63665F6F 		.ascii	"cf_off_newer\000"
 3437      66665F6E 
 3437      65776572 
 3437      00
 3438              	.LASF36:
 3439 05a2 705F6E61 		.ascii	"p_name\000"
 3439      6D6500
 3440              	.LASF108:
 3441 05a9 6368436F 		.ascii	"chCondWaitTimeout\000"
 3441      6E645761 
 3441      69745469 
 3441      6D656F75 
 3441      7400
 3442              	.LASF63:
 3443 05bb 76745F73 		.ascii	"vt_systime\000"
 3443      79737469 
 3443      6D6500
 3444              	.LASF116:
 3445 05c6 63685363 		.ascii	"chSchGoSleepTimeoutS\000"
 3445      68476F53 
 3445      6C656570 
 3445      54696D65 
 3445      6F757453 
 3446              	.LASF88:
 3447 05db 63685F76 		.ascii	"ch_version\000"
ARM GAS  /tmp/cc9cuD55.s 			page 66


 3447      65727369 
 3447      6F6E00
 3448              	.LASF64:
 3449 05e6 56544C69 		.ascii	"VTList\000"
 3449      737400
 3450              	.LASF76:
 3451 05ed 6D5F6F77 		.ascii	"m_owner\000"
 3451      6E657200 
 3452              	.LASF33:
 3453 05f5 705F6374 		.ascii	"p_ctx\000"
 3453      7800
 3454              	.LASF42:
 3455 05fb 705F7761 		.ascii	"p_waiting\000"
 3455      6974696E 
 3455      6700
 3456              		.ident	"GCC: (15:6.3.1+svn253039-1build1) 6.3.1 20170620"
ARM GAS  /tmp/cc9cuD55.s 			page 67


DEFINED SYMBOLS
                            *ABS*:0000000000000000 chcond.c
     /tmp/cc9cuD55.s:16     .text.chCondInit:0000000000000000 $t
     /tmp/cc9cuD55.s:24     .text.chCondInit:0000000000000000 chCondInit
     /tmp/cc9cuD55.s:41     .text.chCondSignal:0000000000000000 $t
     /tmp/cc9cuD55.s:49     .text.chCondSignal:0000000000000000 chCondSignal
     /tmp/cc9cuD55.s:133    .text.chCondSignalI:0000000000000000 $t
     /tmp/cc9cuD55.s:141    .text.chCondSignalI:0000000000000000 chCondSignalI
     /tmp/cc9cuD55.s:192    .text.chCondBroadcast:0000000000000000 $t
     /tmp/cc9cuD55.s:200    .text.chCondBroadcast:0000000000000000 chCondBroadcast
     /tmp/cc9cuD55.s:279    .text.chCondBroadcastI:0000000000000000 $t
     /tmp/cc9cuD55.s:287    .text.chCondBroadcastI:0000000000000000 chCondBroadcastI
     /tmp/cc9cuD55.s:334    .text.chCondWaitS:0000000000000000 $t
     /tmp/cc9cuD55.s:342    .text.chCondWaitS:0000000000000000 chCondWaitS
     /tmp/cc9cuD55.s:428    .text.chCondWaitS:0000000000000040 $d
     /tmp/cc9cuD55.s:433    .text.chCondWait:0000000000000000 $t
     /tmp/cc9cuD55.s:441    .text.chCondWait:0000000000000000 chCondWait
     /tmp/cc9cuD55.s:481    .text.chCondWaitTimeoutS:0000000000000000 $t
     /tmp/cc9cuD55.s:489    .text.chCondWaitTimeoutS:0000000000000000 chCondWaitTimeoutS
     /tmp/cc9cuD55.s:587    .text.chCondWaitTimeoutS:0000000000000048 $d
     /tmp/cc9cuD55.s:592    .text.chCondWaitTimeout:0000000000000000 $t
     /tmp/cc9cuD55.s:600    .text.chCondWaitTimeout:0000000000000000 chCondWaitTimeout
                     .debug_frame:0000000000000010 $d

UNDEFINED SYMBOLS
chSchWakeupS
chSchReadyI
chSchRescheduleS
chMtxUnlockS
chSchGoSleepS
chMtxLockS
rlist
chSchGoSleepTimeoutS
