ARM GAS  /tmp/ccD6BZAD.s 			page 1


   1              		.cpu cortex-m3
   2              		.eabi_attribute 20, 1
   3              		.eabi_attribute 21, 1
   4              		.eabi_attribute 23, 3
   5              		.eabi_attribute 24, 1
   6              		.eabi_attribute 25, 1
   7              		.eabi_attribute 26, 1
   8              		.eabi_attribute 30, 2
   9              		.eabi_attribute 34, 1
  10              		.eabi_attribute 18, 4
  11              		.file	"chmempools.c"
  12              		.text
  13              	.Ltext0:
  14              		.cfi_sections	.debug_frame
  15              		.section	.text.chPoolInit,"ax",%progbits
  16              		.align	1
  17              		.p2align 2,,3
  18              		.global	chPoolInit
  19              		.syntax unified
  20              		.thumb
  21              		.thumb_func
  22              		.fpu softvfp
  23              		.type	chPoolInit, %function
  24              	chPoolInit:
  25              	.LFB7:
  26              		.file 1 "../../os/kernel/src/chmempools.c"
  27              		.loc 1 55 0
  28              		.cfi_startproc
  29              		@ args = 0, pretend = 0, frame = 0
  30              		@ frame_needed = 0, uses_anonymous_args = 0
  31              		@ link register save eliminated.
  32              	.LVL0:
  33              		.loc 1 59 0
  34 0000 0023     		movs	r3, #0
  35              		.loc 1 60 0
  36 0002 4160     		str	r1, [r0, #4]
  37              		.loc 1 61 0
  38 0004 8260     		str	r2, [r0, #8]
  39              		.loc 1 59 0
  40 0006 0360     		str	r3, [r0]
  41 0008 7047     		bx	lr
  42              		.cfi_endproc
  43              	.LFE7:
  44              		.size	chPoolInit, .-chPoolInit
  45 000a 00BF     		.section	.text.chPoolLoadArray,"ax",%progbits
  46              		.align	1
  47              		.p2align 2,,3
  48              		.global	chPoolLoadArray
  49              		.syntax unified
  50              		.thumb
  51              		.thumb_func
  52              		.fpu softvfp
  53              		.type	chPoolLoadArray, %function
  54              	chPoolLoadArray:
  55              	.LFB8:
  56              		.loc 1 77 0
  57              		.cfi_startproc
ARM GAS  /tmp/ccD6BZAD.s 			page 2


  58              		@ args = 0, pretend = 0, frame = 0
  59              		@ frame_needed = 0, uses_anonymous_args = 0
  60              		@ link register save eliminated.
  61              	.LVL1:
  62              		.loc 1 81 0
  63 0000 72B1     		cbz	r2, .L10
  64              		.loc 1 77 0
  65 0002 10B4     		push	{r4}
  66              		.cfi_def_cfa_offset 4
  67              		.cfi_offset 4, -4
  68              	.LVL2:
  69              	.L4:
  70              	.LBB16:
  71              	.LBB17:
  72              		.loc 1 166 0
  73 0004 4023     		movs	r3, #64
  74              		.syntax unified
  75              	@ 166 "../../os/kernel/src/chmempools.c" 1
  76 0006 83F31188 		msr     BASEPRI, r3
  77              	@ 0 "" 2
  78              	.LVL3:
  79              		.thumb
  80              		.syntax unified
  81              	.LBE17:
  82              	.LBB18:
  83              	.LBB19:
  84              		.loc 1 148 0
  85 000a 0468     		ldr	r4, [r0]
  86              	.LBE19:
  87              	.LBE18:
  88              	.LBB21:
  89              		.loc 1 168 0
  90 000c 0023     		movs	r3, #0
  91              	.LBE21:
  92              	.LBB22:
  93              	.LBB20:
  94              		.loc 1 148 0
  95 000e 0C60     		str	r4, [r1]
  96              		.loc 1 149 0
  97 0010 0160     		str	r1, [r0]
  98              	.LVL4:
  99              	.LBE20:
 100              	.LBE22:
 101              	.LBB23:
 102              		.loc 1 168 0
 103              		.syntax unified
 104              	@ 168 "../../os/kernel/src/chmempools.c" 1
 105 0012 83F31188 		msr     BASEPRI, r3
 106              	@ 0 "" 2
 107              	.LVL5:
 108              		.thumb
 109              		.syntax unified
 110              	.LBE23:
 111              	.LBE16:
 112              		.loc 1 83 0
 113 0016 4368     		ldr	r3, [r0, #4]
 114              		.loc 1 81 0
ARM GAS  /tmp/ccD6BZAD.s 			page 3


 115 0018 013A     		subs	r2, r2, #1
 116              	.LVL6:
 117              		.loc 1 83 0
 118 001a 1944     		add	r1, r1, r3
 119              	.LVL7:
 120              		.loc 1 81 0
 121 001c F2D1     		bne	.L4
 122              		.loc 1 86 0
 123 001e 10BC     		pop	{r4}
 124              		.cfi_restore 4
 125              		.cfi_def_cfa_offset 0
 126              	.LVL8:
 127              	.L10:
 128 0020 7047     		bx	lr
 129              		.cfi_endproc
 130              	.LFE8:
 131              		.size	chPoolLoadArray, .-chPoolLoadArray
 132 0022 00BF     		.section	.text.chPoolAllocI,"ax",%progbits
 133              		.align	1
 134              		.p2align 2,,3
 135              		.global	chPoolAllocI
 136              		.syntax unified
 137              		.thumb
 138              		.thumb_func
 139              		.fpu softvfp
 140              		.type	chPoolAllocI, %function
 141              	chPoolAllocI:
 142              	.LFB9:
 143              		.loc 1 98 0
 144              		.cfi_startproc
 145              		@ args = 0, pretend = 0, frame = 0
 146              		@ frame_needed = 0, uses_anonymous_args = 0
 147              		@ link register save eliminated.
 148              	.LVL9:
 149              		.loc 1 104 0
 150 0000 0368     		ldr	r3, [r0]
 151              	.LVL10:
 152 0002 1BB1     		cbz	r3, .L14
 153              		.loc 1 105 0
 154 0004 1A68     		ldr	r2, [r3]
 155 0006 0260     		str	r2, [r0]
 156              	.L13:
 157              		.loc 1 109 0
 158 0008 1846     		mov	r0, r3
 159              	.LVL11:
 160 000a 7047     		bx	lr
 161              	.LVL12:
 162              	.L14:
 163              		.loc 1 106 0
 164 000c 8268     		ldr	r2, [r0, #8]
 165 000e 002A     		cmp	r2, #0
 166 0010 FAD0     		beq	.L13
 167              		.loc 1 107 0
 168 0012 4068     		ldr	r0, [r0, #4]
 169              	.LVL13:
 170 0014 1047     		bx	r2
 171              	.LVL14:
ARM GAS  /tmp/ccD6BZAD.s 			page 4


 172              		.cfi_endproc
 173              	.LFE9:
 174              		.size	chPoolAllocI, .-chPoolAllocI
 175 0016 00BF     		.section	.text.chPoolAlloc,"ax",%progbits
 176              		.align	1
 177              		.p2align 2,,3
 178              		.global	chPoolAlloc
 179              		.syntax unified
 180              		.thumb
 181              		.thumb_func
 182              		.fpu softvfp
 183              		.type	chPoolAlloc, %function
 184              	chPoolAlloc:
 185              	.LFB10:
 186              		.loc 1 121 0
 187              		.cfi_startproc
 188              		@ args = 0, pretend = 0, frame = 0
 189              		@ frame_needed = 0, uses_anonymous_args = 0
 190              	.LVL15:
 191 0000 08B5     		push	{r3, lr}
 192              		.cfi_def_cfa_offset 8
 193              		.cfi_offset 3, -8
 194              		.cfi_offset 14, -4
 195              		.loc 1 121 0
 196 0002 0246     		mov	r2, r0
 197              	.LBB24:
 198              		.loc 1 124 0
 199 0004 4023     		movs	r3, #64
 200              		.syntax unified
 201              	@ 124 "../../os/kernel/src/chmempools.c" 1
 202 0006 83F31188 		msr     BASEPRI, r3
 203              	@ 0 "" 2
 204              	.LVL16:
 205              		.thumb
 206              		.syntax unified
 207              	.LBE24:
 208              	.LBB25:
 209              	.LBB26:
 210              		.loc 1 104 0
 211 000a 0068     		ldr	r0, [r0]
 212              	.LVL17:
 213 000c 28B1     		cbz	r0, .L20
 214              		.loc 1 105 0
 215 000e 0368     		ldr	r3, [r0]
 216 0010 1360     		str	r3, [r2]
 217              	.L21:
 218              	.LVL18:
 219              	.LBE26:
 220              	.LBE25:
 221              	.LBB28:
 222              		.loc 1 126 0
 223 0012 0023     		movs	r3, #0
 224              		.syntax unified
 225              	@ 126 "../../os/kernel/src/chmempools.c" 1
 226 0014 83F31188 		msr     BASEPRI, r3
 227              	@ 0 "" 2
 228              		.thumb
ARM GAS  /tmp/ccD6BZAD.s 			page 5


 229              		.syntax unified
 230              	.LBE28:
 231              		.loc 1 128 0
 232 0018 08BD     		pop	{r3, pc}
 233              	.LVL19:
 234              	.L20:
 235              	.LBB29:
 236              	.LBB27:
 237              		.loc 1 106 0
 238 001a 9368     		ldr	r3, [r2, #8]
 239 001c 002B     		cmp	r3, #0
 240 001e F8D0     		beq	.L21
 241              		.loc 1 107 0
 242 0020 5068     		ldr	r0, [r2, #4]
 243              	.LVL20:
 244 0022 9847     		blx	r3
 245              	.LVL21:
 246              	.LBE27:
 247              	.LBE29:
 248              	.LBB30:
 249              		.loc 1 126 0
 250 0024 0023     		movs	r3, #0
 251              		.syntax unified
 252              	@ 126 "../../os/kernel/src/chmempools.c" 1
 253 0026 83F31188 		msr     BASEPRI, r3
 254              	@ 0 "" 2
 255              		.thumb
 256              		.syntax unified
 257              	.LBE30:
 258              		.loc 1 128 0
 259 002a 08BD     		pop	{r3, pc}
 260              		.cfi_endproc
 261              	.LFE10:
 262              		.size	chPoolAlloc, .-chPoolAlloc
 263              		.section	.text.chPoolFreeI,"ax",%progbits
 264              		.align	1
 265              		.p2align 2,,3
 266              		.global	chPoolFreeI
 267              		.syntax unified
 268              		.thumb
 269              		.thumb_func
 270              		.fpu softvfp
 271              		.type	chPoolFreeI, %function
 272              	chPoolFreeI:
 273              	.LFB11:
 274              		.loc 1 142 0
 275              		.cfi_startproc
 276              		@ args = 0, pretend = 0, frame = 0
 277              		@ frame_needed = 0, uses_anonymous_args = 0
 278              		@ link register save eliminated.
 279              	.LVL22:
 280              		.loc 1 148 0
 281 0000 0368     		ldr	r3, [r0]
 282 0002 0B60     		str	r3, [r1]
 283              		.loc 1 149 0
 284 0004 0160     		str	r1, [r0]
 285 0006 7047     		bx	lr
ARM GAS  /tmp/ccD6BZAD.s 			page 6


 286              		.cfi_endproc
 287              	.LFE11:
 288              		.size	chPoolFreeI, .-chPoolFreeI
 289              		.section	.text.chPoolFree,"ax",%progbits
 290              		.align	1
 291              		.p2align 2,,3
 292              		.global	chPoolFree
 293              		.syntax unified
 294              		.thumb
 295              		.thumb_func
 296              		.fpu softvfp
 297              		.type	chPoolFree, %function
 298              	chPoolFree:
 299              	.LFB12:
 300              		.loc 1 164 0
 301              		.cfi_startproc
 302              		@ args = 0, pretend = 0, frame = 0
 303              		@ frame_needed = 0, uses_anonymous_args = 0
 304              		@ link register save eliminated.
 305              	.LVL23:
 306              	.LBB31:
 307              		.loc 1 166 0
 308 0000 4023     		movs	r3, #64
 309              		.syntax unified
 310              	@ 166 "../../os/kernel/src/chmempools.c" 1
 311 0002 83F31188 		msr     BASEPRI, r3
 312              	@ 0 "" 2
 313              	.LVL24:
 314              		.thumb
 315              		.syntax unified
 316              	.LBE31:
 317              	.LBB32:
 318              	.LBB33:
 319              		.loc 1 148 0
 320 0006 0268     		ldr	r2, [r0]
 321              	.LBE33:
 322              	.LBE32:
 323              	.LBB35:
 324              		.loc 1 168 0
 325 0008 0023     		movs	r3, #0
 326              	.LBE35:
 327              	.LBB36:
 328              	.LBB34:
 329              		.loc 1 148 0
 330 000a 0A60     		str	r2, [r1]
 331              		.loc 1 149 0
 332 000c 0160     		str	r1, [r0]
 333              	.LVL25:
 334              	.LBE34:
 335              	.LBE36:
 336              	.LBB37:
 337              		.loc 1 168 0
 338              		.syntax unified
 339              	@ 168 "../../os/kernel/src/chmempools.c" 1
 340 000e 83F31188 		msr     BASEPRI, r3
 341              	@ 0 "" 2
 342              		.thumb
ARM GAS  /tmp/ccD6BZAD.s 			page 7


 343              		.syntax unified
 344 0012 7047     		bx	lr
 345              	.LBE37:
 346              		.cfi_endproc
 347              	.LFE12:
 348              		.size	chPoolFree, .-chPoolFree
 349              		.text
 350              	.Letext0:
 351              		.file 2 "/usr/lib/gcc/arm-none-eabi/6.3.1/include/stddef.h"
 352              		.file 3 "/usr/include/newlib/machine/_default_types.h"
 353              		.file 4 "/usr/include/newlib/sys/_stdint.h"
 354              		.file 5 "../../os/ports/GCC/ARMCMx/chtypes.h"
 355              		.file 6 "../../os/kernel/include/chlists.h"
 356              		.file 7 "../../os/kernel/include/chthreads.h"
 357              		.file 8 "../../os/ports/GCC/ARMCMx/chcore_v7m.h"
 358              		.file 9 "../../os/kernel/include/chvt.h"
 359              		.file 10 "../../os/kernel/include/chschd.h"
 360              		.file 11 "../../os/kernel/include/chmtx.h"
 361              		.file 12 "../../os/kernel/include/chmemcore.h"
 362              		.file 13 "../../os/kernel/include/chmempools.h"
 363              		.file 14 "../../os/kernel/include/chregistry.h"
 364              		.file 15 "../../os/kernel/include/ch.h"
 365              		.section	.debug_info,"",%progbits
 366              	.Ldebug_info0:
 367 0000 8E090000 		.4byte	0x98e
 368 0004 0400     		.2byte	0x4
 369 0006 00000000 		.4byte	.Ldebug_abbrev0
 370 000a 04       		.byte	0x4
 371 000b 01       		.uleb128 0x1
 372 000c 8D020000 		.4byte	.LASF119
 373 0010 0C       		.byte	0xc
 374 0011 A1040000 		.4byte	.LASF120
 375 0015 0D000000 		.4byte	.LASF121
 376 0019 90000000 		.4byte	.Ldebug_ranges0+0x90
 377 001d 00000000 		.4byte	0
 378 0021 00000000 		.4byte	.Ldebug_line0
 379 0025 02       		.uleb128 0x2
 380 0026 04       		.byte	0x4
 381 0027 05       		.byte	0x5
 382 0028 696E7400 		.ascii	"int\000"
 383 002c 03       		.uleb128 0x3
 384 002d 59000000 		.4byte	.LASF4
 385 0031 02       		.byte	0x2
 386 0032 D8       		.byte	0xd8
 387 0033 37000000 		.4byte	0x37
 388 0037 04       		.uleb128 0x4
 389 0038 04       		.byte	0x4
 390 0039 07       		.byte	0x7
 391 003a BE010000 		.4byte	.LASF0
 392 003e 04       		.uleb128 0x4
 393 003f 08       		.byte	0x8
 394 0040 05       		.byte	0x5
 395 0041 00010000 		.4byte	.LASF1
 396 0045 04       		.uleb128 0x4
 397 0046 08       		.byte	0x8
 398 0047 04       		.byte	0x4
 399 0048 29030000 		.4byte	.LASF2
ARM GAS  /tmp/ccD6BZAD.s 			page 8


 400 004c 04       		.uleb128 0x4
 401 004d 01       		.byte	0x1
 402 004e 06       		.byte	0x6
 403 004f 0E010000 		.4byte	.LASF3
 404 0053 03       		.uleb128 0x3
 405 0054 71000000 		.4byte	.LASF5
 406 0058 03       		.byte	0x3
 407 0059 1D       		.byte	0x1d
 408 005a 5E000000 		.4byte	0x5e
 409 005e 04       		.uleb128 0x4
 410 005f 01       		.byte	0x1
 411 0060 08       		.byte	0x8
 412 0061 ED030000 		.4byte	.LASF6
 413 0065 04       		.uleb128 0x4
 414 0066 02       		.byte	0x2
 415 0067 05       		.byte	0x5
 416 0068 05040000 		.4byte	.LASF7
 417 006c 03       		.uleb128 0x3
 418 006d C7040000 		.4byte	.LASF8
 419 0071 03       		.byte	0x3
 420 0072 2B       		.byte	0x2b
 421 0073 77000000 		.4byte	0x77
 422 0077 04       		.uleb128 0x4
 423 0078 02       		.byte	0x2
 424 0079 07       		.byte	0x7
 425 007a 1F020000 		.4byte	.LASF9
 426 007e 03       		.uleb128 0x3
 427 007f EE040000 		.4byte	.LASF10
 428 0083 03       		.byte	0x3
 429 0084 3F       		.byte	0x3f
 430 0085 89000000 		.4byte	0x89
 431 0089 04       		.uleb128 0x4
 432 008a 04       		.byte	0x4
 433 008b 05       		.byte	0x5
 434 008c 51010000 		.4byte	.LASF11
 435 0090 03       		.uleb128 0x3
 436 0091 96010000 		.4byte	.LASF12
 437 0095 03       		.byte	0x3
 438 0096 41       		.byte	0x41
 439 0097 9B000000 		.4byte	0x9b
 440 009b 04       		.uleb128 0x4
 441 009c 04       		.byte	0x4
 442 009d 07       		.byte	0x7
 443 009e D3010000 		.4byte	.LASF13
 444 00a2 03       		.uleb128 0x3
 445 00a3 AA030000 		.4byte	.LASF14
 446 00a7 03       		.byte	0x3
 447 00a8 5B       		.byte	0x5b
 448 00a9 AD000000 		.4byte	0xad
 449 00ad 04       		.uleb128 0x4
 450 00ae 08       		.byte	0x8
 451 00af 07       		.byte	0x7
 452 00b0 B3000000 		.4byte	.LASF15
 453 00b4 03       		.uleb128 0x3
 454 00b5 46050000 		.4byte	.LASF16
 455 00b9 04       		.byte	0x4
 456 00ba 18       		.byte	0x18
ARM GAS  /tmp/ccD6BZAD.s 			page 9


 457 00bb 53000000 		.4byte	0x53
 458 00bf 03       		.uleb128 0x3
 459 00c0 6B010000 		.4byte	.LASF17
 460 00c4 04       		.byte	0x4
 461 00c5 24       		.byte	0x24
 462 00c6 6C000000 		.4byte	0x6c
 463 00ca 03       		.uleb128 0x3
 464 00cb E5030000 		.4byte	.LASF18
 465 00cf 04       		.byte	0x4
 466 00d0 2C       		.byte	0x2c
 467 00d1 7E000000 		.4byte	0x7e
 468 00d5 03       		.uleb128 0x3
 469 00d6 84040000 		.4byte	.LASF19
 470 00da 04       		.byte	0x4
 471 00db 30       		.byte	0x30
 472 00dc 90000000 		.4byte	0x90
 473 00e0 03       		.uleb128 0x3
 474 00e1 68000000 		.4byte	.LASF20
 475 00e5 04       		.byte	0x4
 476 00e6 3C       		.byte	0x3c
 477 00e7 A2000000 		.4byte	0xa2
 478 00eb 04       		.uleb128 0x4
 479 00ec 01       		.byte	0x1
 480 00ed 02       		.byte	0x2
 481 00ee DF030000 		.4byte	.LASF21
 482 00f2 03       		.uleb128 0x3
 483 00f3 40020000 		.4byte	.LASF22
 484 00f7 05       		.byte	0x5
 485 00f8 25       		.byte	0x25
 486 00f9 B4000000 		.4byte	0xb4
 487 00fd 03       		.uleb128 0x3
 488 00fe 5A010000 		.4byte	.LASF23
 489 0102 05       		.byte	0x5
 490 0103 26       		.byte	0x26
 491 0104 B4000000 		.4byte	0xb4
 492 0108 03       		.uleb128 0x3
 493 0109 BD030000 		.4byte	.LASF24
 494 010d 05       		.byte	0x5
 495 010e 27       		.byte	0x27
 496 010f B4000000 		.4byte	0xb4
 497 0113 03       		.uleb128 0x3
 498 0114 47010000 		.4byte	.LASF25
 499 0118 05       		.byte	0x5
 500 0119 28       		.byte	0x28
 501 011a B4000000 		.4byte	0xb4
 502 011e 03       		.uleb128 0x3
 503 011f D7030000 		.4byte	.LASF26
 504 0123 05       		.byte	0x5
 505 0124 29       		.byte	0x29
 506 0125 D5000000 		.4byte	0xd5
 507 0129 03       		.uleb128 0x3
 508 012a 32020000 		.4byte	.LASF27
 509 012e 05       		.byte	0x5
 510 012f 2A       		.byte	0x2a
 511 0130 CA000000 		.4byte	0xca
 512 0134 03       		.uleb128 0x3
 513 0135 54020000 		.4byte	.LASF28
ARM GAS  /tmp/ccD6BZAD.s 			page 10


 514 0139 05       		.byte	0x5
 515 013a 2C       		.byte	0x2c
 516 013b D5000000 		.4byte	0xd5
 517 013f 03       		.uleb128 0x3
 518 0140 D9040000 		.4byte	.LASF29
 519 0144 05       		.byte	0x5
 520 0145 2E       		.byte	0x2e
 521 0146 D5000000 		.4byte	0xd5
 522 014a 05       		.uleb128 0x5
 523 014b 3F010000 		.4byte	0x13f
 524 014f 03       		.uleb128 0x3
 525 0150 65040000 		.4byte	.LASF30
 526 0154 06       		.byte	0x6
 527 0155 23       		.byte	0x23
 528 0156 5A010000 		.4byte	0x15a
 529 015a 06       		.uleb128 0x6
 530 015b 65040000 		.4byte	.LASF30
 531 015f 48       		.byte	0x48
 532 0160 07       		.byte	0x7
 533 0161 57       		.byte	0x57
 534 0162 57020000 		.4byte	0x257
 535 0166 07       		.uleb128 0x7
 536 0167 3B040000 		.4byte	.LASF31
 537 016b 07       		.byte	0x7
 538 016c 58       		.byte	0x58
 539 016d 78020000 		.4byte	0x278
 540 0171 00       		.byte	0
 541 0172 07       		.uleb128 0x7
 542 0173 D0030000 		.4byte	.LASF32
 543 0177 07       		.byte	0x7
 544 0178 5A       		.byte	0x5a
 545 0179 78020000 		.4byte	0x278
 546 017d 04       		.byte	0x4
 547 017e 07       		.uleb128 0x7
 548 017f EC000000 		.4byte	.LASF33
 549 0183 07       		.byte	0x7
 550 0184 5C       		.byte	0x5c
 551 0185 1E010000 		.4byte	0x11e
 552 0189 08       		.byte	0x8
 553 018a 07       		.uleb128 0x7
 554 018b 98050000 		.4byte	.LASF34
 555 018f 07       		.byte	0x7
 556 0190 5D       		.byte	0x5d
 557 0191 3D030000 		.4byte	0x33d
 558 0195 0C       		.byte	0xc
 559 0196 07       		.uleb128 0x7
 560 0197 7E010000 		.4byte	.LASF35
 561 019b 07       		.byte	0x7
 562 019c 5F       		.byte	0x5f
 563 019d 78020000 		.4byte	0x278
 564 01a1 10       		.byte	0x10
 565 01a2 07       		.uleb128 0x7
 566 01a3 66030000 		.4byte	.LASF36
 567 01a7 07       		.byte	0x7
 568 01a8 60       		.byte	0x60
 569 01a9 78020000 		.4byte	0x278
 570 01ad 14       		.byte	0x14
ARM GAS  /tmp/ccD6BZAD.s 			page 11


 571 01ae 07       		.uleb128 0x7
 572 01af 6C050000 		.4byte	.LASF37
 573 01b3 07       		.byte	0x7
 574 01b4 67       		.byte	0x67
 575 01b5 7F050000 		.4byte	0x57f
 576 01b9 18       		.byte	0x18
 577 01ba 07       		.uleb128 0x7
 578 01bb 0F040000 		.4byte	.LASF38
 579 01bf 07       		.byte	0x7
 580 01c0 72       		.byte	0x72
 581 01c1 FD000000 		.4byte	0xfd
 582 01c5 1C       		.byte	0x1c
 583 01c6 07       		.uleb128 0x7
 584 01c7 51040000 		.4byte	.LASF39
 585 01cb 07       		.byte	0x7
 586 01cc 76       		.byte	0x76
 587 01cd F2000000 		.4byte	0xf2
 588 01d1 1D       		.byte	0x1d
 589 01d2 07       		.uleb128 0x7
 590 01d3 2F050000 		.4byte	.LASF40
 591 01d7 07       		.byte	0x7
 592 01d8 7B       		.byte	0x7b
 593 01d9 08010000 		.4byte	0x108
 594 01dd 1E       		.byte	0x1e
 595 01de 07       		.uleb128 0x7
 596 01df 17040000 		.4byte	.LASF41
 597 01e3 07       		.byte	0x7
 598 01e4 81       		.byte	0x81
 599 01e5 13010000 		.4byte	0x113
 600 01e9 1F       		.byte	0x1f
 601 01ea 07       		.uleb128 0x7
 602 01eb F8040000 		.4byte	.LASF42
 603 01ef 07       		.byte	0x7
 604 01f0 88       		.byte	0x88
 605 01f1 4A010000 		.4byte	0x14a
 606 01f5 20       		.byte	0x20
 607 01f6 08       		.uleb128 0x8
 608 01f7 705F7500 		.ascii	"p_u\000"
 609 01fb 07       		.byte	0x7
 610 01fc AD       		.byte	0xad
 611 01fd 4A050000 		.4byte	0x54a
 612 0201 24       		.byte	0x24
 613 0202 07       		.uleb128 0x7
 614 0203 9E050000 		.4byte	.LASF43
 615 0207 07       		.byte	0x7
 616 0208 B2       		.byte	0xb2
 617 0209 9E020000 		.4byte	0x29e
 618 020d 28       		.byte	0x28
 619 020e 07       		.uleb128 0x7
 620 020f 06050000 		.4byte	.LASF44
 621 0213 07       		.byte	0x7
 622 0214 B8       		.byte	0xb8
 623 0215 7E020000 		.4byte	0x27e
 624 0219 2C       		.byte	0x2c
 625 021a 07       		.uleb128 0x7
 626 021b 53000000 		.4byte	.LASF45
 627 021f 07       		.byte	0x7
ARM GAS  /tmp/ccD6BZAD.s 			page 12


 628 0220 BC       		.byte	0xbc
 629 0221 29010000 		.4byte	0x129
 630 0225 34       		.byte	0x34
 631 0226 07       		.uleb128 0x7
 632 0227 79040000 		.4byte	.LASF46
 633 022b 07       		.byte	0x7
 634 022c C2       		.byte	0xc2
 635 022d 34010000 		.4byte	0x134
 636 0231 38       		.byte	0x38
 637 0232 07       		.uleb128 0x7
 638 0233 FB030000 		.4byte	.LASF47
 639 0237 07       		.byte	0x7
 640 0238 C9       		.byte	0xc9
 641 0239 91050000 		.4byte	0x591
 642 023d 3C       		.byte	0x3c
 643 023e 07       		.uleb128 0x7
 644 023f E3040000 		.4byte	.LASF48
 645 0243 07       		.byte	0x7
 646 0244 CD       		.byte	0xcd
 647 0245 1E010000 		.4byte	0x11e
 648 0249 40       		.byte	0x40
 649 024a 07       		.uleb128 0x7
 650 024b 37010000 		.4byte	.LASF49
 651 024f 07       		.byte	0x7
 652 0250 D3       		.byte	0xd3
 653 0251 B4020000 		.4byte	0x2b4
 654 0255 44       		.byte	0x44
 655 0256 00       		.byte	0
 656 0257 09       		.uleb128 0x9
 657 0258 08       		.byte	0x8
 658 0259 06       		.byte	0x6
 659 025a 5A       		.byte	0x5a
 660 025b 78020000 		.4byte	0x278
 661 025f 07       		.uleb128 0x7
 662 0260 3B040000 		.4byte	.LASF31
 663 0264 06       		.byte	0x6
 664 0265 5B       		.byte	0x5b
 665 0266 78020000 		.4byte	0x278
 666 026a 00       		.byte	0
 667 026b 07       		.uleb128 0x7
 668 026c D0030000 		.4byte	.LASF32
 669 0270 06       		.byte	0x6
 670 0271 5D       		.byte	0x5d
 671 0272 78020000 		.4byte	0x278
 672 0276 04       		.byte	0x4
 673 0277 00       		.byte	0
 674 0278 0A       		.uleb128 0xa
 675 0279 04       		.byte	0x4
 676 027a 4F010000 		.4byte	0x14f
 677 027e 03       		.uleb128 0x3
 678 027f 74030000 		.4byte	.LASF50
 679 0283 06       		.byte	0x6
 680 0284 5F       		.byte	0x5f
 681 0285 57020000 		.4byte	0x257
 682 0289 09       		.uleb128 0x9
 683 028a 04       		.byte	0x4
 684 028b 06       		.byte	0x6
ARM GAS  /tmp/ccD6BZAD.s 			page 13


 685 028c 64       		.byte	0x64
 686 028d 9E020000 		.4byte	0x29e
 687 0291 07       		.uleb128 0x7
 688 0292 3B040000 		.4byte	.LASF31
 689 0296 06       		.byte	0x6
 690 0297 66       		.byte	0x66
 691 0298 78020000 		.4byte	0x278
 692 029c 00       		.byte	0
 693 029d 00       		.byte	0
 694 029e 03       		.uleb128 0x3
 695 029f 48020000 		.4byte	.LASF51
 696 02a3 06       		.byte	0x6
 697 02a4 69       		.byte	0x69
 698 02a5 89020000 		.4byte	0x289
 699 02a9 03       		.uleb128 0x3
 700 02aa AD010000 		.4byte	.LASF52
 701 02ae 08       		.byte	0x8
 702 02af DE       		.byte	0xde
 703 02b0 B4020000 		.4byte	0x2b4
 704 02b4 0B       		.uleb128 0xb
 705 02b5 04       		.byte	0x4
 706 02b6 03       		.uleb128 0x3
 707 02b7 66020000 		.4byte	.LASF53
 708 02bb 08       		.byte	0x8
 709 02bc E4       		.byte	0xe4
 710 02bd E0000000 		.4byte	0xe0
 711 02c1 0C       		.uleb128 0xc
 712 02c2 FF040000 		.4byte	.LASF54
 713 02c6 24       		.byte	0x24
 714 02c7 08       		.byte	0x8
 715 02c8 0501     		.2byte	0x105
 716 02ca 3D030000 		.4byte	0x33d
 717 02ce 0D       		.uleb128 0xd
 718 02cf 723400   		.ascii	"r4\000"
 719 02d2 08       		.byte	0x8
 720 02d3 1801     		.2byte	0x118
 721 02d5 A9020000 		.4byte	0x2a9
 722 02d9 00       		.byte	0
 723 02da 0D       		.uleb128 0xd
 724 02db 723500   		.ascii	"r5\000"
 725 02de 08       		.byte	0x8
 726 02df 1901     		.2byte	0x119
 727 02e1 A9020000 		.4byte	0x2a9
 728 02e5 04       		.byte	0x4
 729 02e6 0D       		.uleb128 0xd
 730 02e7 723600   		.ascii	"r6\000"
 731 02ea 08       		.byte	0x8
 732 02eb 1A01     		.2byte	0x11a
 733 02ed A9020000 		.4byte	0x2a9
 734 02f1 08       		.byte	0x8
 735 02f2 0D       		.uleb128 0xd
 736 02f3 723700   		.ascii	"r7\000"
 737 02f6 08       		.byte	0x8
 738 02f7 1B01     		.2byte	0x11b
 739 02f9 A9020000 		.4byte	0x2a9
 740 02fd 0C       		.byte	0xc
 741 02fe 0D       		.uleb128 0xd
ARM GAS  /tmp/ccD6BZAD.s 			page 14


 742 02ff 723800   		.ascii	"r8\000"
 743 0302 08       		.byte	0x8
 744 0303 1C01     		.2byte	0x11c
 745 0305 A9020000 		.4byte	0x2a9
 746 0309 10       		.byte	0x10
 747 030a 0D       		.uleb128 0xd
 748 030b 723900   		.ascii	"r9\000"
 749 030e 08       		.byte	0x8
 750 030f 1D01     		.2byte	0x11d
 751 0311 A9020000 		.4byte	0x2a9
 752 0315 14       		.byte	0x14
 753 0316 0D       		.uleb128 0xd
 754 0317 72313000 		.ascii	"r10\000"
 755 031b 08       		.byte	0x8
 756 031c 1E01     		.2byte	0x11e
 757 031e A9020000 		.4byte	0x2a9
 758 0322 18       		.byte	0x18
 759 0323 0D       		.uleb128 0xd
 760 0324 72313100 		.ascii	"r11\000"
 761 0328 08       		.byte	0x8
 762 0329 1F01     		.2byte	0x11f
 763 032b A9020000 		.4byte	0x2a9
 764 032f 1C       		.byte	0x1c
 765 0330 0D       		.uleb128 0xd
 766 0331 6C7200   		.ascii	"lr\000"
 767 0334 08       		.byte	0x8
 768 0335 2001     		.2byte	0x120
 769 0337 A9020000 		.4byte	0x2a9
 770 033b 20       		.byte	0x20
 771 033c 00       		.byte	0
 772 033d 0C       		.uleb128 0xc
 773 033e 12020000 		.4byte	.LASF55
 774 0342 04       		.byte	0x4
 775 0343 08       		.byte	0x8
 776 0344 2A01     		.2byte	0x12a
 777 0346 58030000 		.4byte	0x358
 778 034a 0D       		.uleb128 0xd
 779 034b 72313300 		.ascii	"r13\000"
 780 034f 08       		.byte	0x8
 781 0350 2B01     		.2byte	0x12b
 782 0352 58030000 		.4byte	0x358
 783 0356 00       		.byte	0
 784 0357 00       		.byte	0
 785 0358 0A       		.uleb128 0xa
 786 0359 04       		.byte	0x4
 787 035a C1020000 		.4byte	0x2c1
 788 035e 04       		.uleb128 0x4
 789 035f 04       		.byte	0x4
 790 0360 07       		.byte	0x7
 791 0361 20030000 		.4byte	.LASF56
 792 0365 03       		.uleb128 0x3
 793 0366 EE010000 		.4byte	.LASF57
 794 036a 09       		.byte	0x9
 795 036b 51       		.byte	0x51
 796 036c 70030000 		.4byte	0x370
 797 0370 0A       		.uleb128 0xa
 798 0371 04       		.byte	0x4
ARM GAS  /tmp/ccD6BZAD.s 			page 15


 799 0372 76030000 		.4byte	0x376
 800 0376 0E       		.uleb128 0xe
 801 0377 81030000 		.4byte	0x381
 802 037b 0F       		.uleb128 0xf
 803 037c B4020000 		.4byte	0x2b4
 804 0380 00       		.byte	0
 805 0381 03       		.uleb128 0x3
 806 0382 05020000 		.4byte	.LASF58
 807 0386 09       		.byte	0x9
 808 0387 56       		.byte	0x56
 809 0388 8C030000 		.4byte	0x38c
 810 038c 06       		.uleb128 0x6
 811 038d 05020000 		.4byte	.LASF58
 812 0391 14       		.byte	0x14
 813 0392 09       		.byte	0x9
 814 0393 5D       		.byte	0x5d
 815 0394 D5030000 		.4byte	0x3d5
 816 0398 07       		.uleb128 0x7
 817 0399 CB010000 		.4byte	.LASF59
 818 039d 09       		.byte	0x9
 819 039e 5E       		.byte	0x5e
 820 039f D5030000 		.4byte	0x3d5
 821 03a3 00       		.byte	0
 822 03a4 07       		.uleb128 0x7
 823 03a5 B6010000 		.4byte	.LASF60
 824 03a9 09       		.byte	0x9
 825 03aa 60       		.byte	0x60
 826 03ab D5030000 		.4byte	0x3d5
 827 03af 04       		.byte	0x4
 828 03b0 07       		.uleb128 0x7
 829 03b1 85020000 		.4byte	.LASF61
 830 03b5 09       		.byte	0x9
 831 03b6 62       		.byte	0x62
 832 03b7 3F010000 		.4byte	0x13f
 833 03bb 08       		.byte	0x8
 834 03bc 07       		.uleb128 0x7
 835 03bd 60000000 		.4byte	.LASF62
 836 03c1 09       		.byte	0x9
 837 03c2 63       		.byte	0x63
 838 03c3 65030000 		.4byte	0x365
 839 03c7 0C       		.byte	0xc
 840 03c8 07       		.uleb128 0x7
 841 03c9 11050000 		.4byte	.LASF63
 842 03cd 09       		.byte	0x9
 843 03ce 65       		.byte	0x65
 844 03cf B4020000 		.4byte	0x2b4
 845 03d3 10       		.byte	0x10
 846 03d4 00       		.byte	0
 847 03d5 0A       		.uleb128 0xa
 848 03d6 04       		.byte	0x4
 849 03d7 81030000 		.4byte	0x381
 850 03db 09       		.uleb128 0x9
 851 03dc 10       		.byte	0x10
 852 03dd 09       		.byte	0x9
 853 03de 6F       		.byte	0x6f
 854 03df 14040000 		.4byte	0x414
 855 03e3 07       		.uleb128 0x7
ARM GAS  /tmp/ccD6BZAD.s 			page 16


 856 03e4 CB010000 		.4byte	.LASF59
 857 03e8 09       		.byte	0x9
 858 03e9 70       		.byte	0x70
 859 03ea D5030000 		.4byte	0x3d5
 860 03ee 00       		.byte	0
 861 03ef 07       		.uleb128 0x7
 862 03f0 B6010000 		.4byte	.LASF60
 863 03f4 09       		.byte	0x9
 864 03f5 72       		.byte	0x72
 865 03f6 D5030000 		.4byte	0x3d5
 866 03fa 04       		.byte	0x4
 867 03fb 07       		.uleb128 0x7
 868 03fc 85020000 		.4byte	.LASF61
 869 0400 09       		.byte	0x9
 870 0401 74       		.byte	0x74
 871 0402 3F010000 		.4byte	0x13f
 872 0406 08       		.byte	0x8
 873 0407 07       		.uleb128 0x7
 874 0408 73050000 		.4byte	.LASF64
 875 040c 09       		.byte	0x9
 876 040d 75       		.byte	0x75
 877 040e 4A010000 		.4byte	0x14a
 878 0412 0C       		.byte	0xc
 879 0413 00       		.byte	0
 880 0414 03       		.uleb128 0x3
 881 0415 89050000 		.4byte	.LASF65
 882 0419 09       		.byte	0x9
 883 041a 76       		.byte	0x76
 884 041b DB030000 		.4byte	0x3db
 885 041f 10       		.uleb128 0x10
 886 0420 7B000000 		.4byte	.LASF73
 887 0424 09       		.byte	0x9
 888 0425 EE       		.byte	0xee
 889 0426 14040000 		.4byte	0x414
 890 042a 09       		.uleb128 0x9
 891 042b 1C       		.byte	0x1c
 892 042c 0A       		.byte	0xa
 893 042d 57       		.byte	0x57
 894 042e 7B040000 		.4byte	0x47b
 895 0432 07       		.uleb128 0x7
 896 0433 99040000 		.4byte	.LASF66
 897 0437 0A       		.byte	0xa
 898 0438 58       		.byte	0x58
 899 0439 7E020000 		.4byte	0x27e
 900 043d 00       		.byte	0
 901 043e 07       		.uleb128 0x7
 902 043f 2D040000 		.4byte	.LASF67
 903 0443 0A       		.byte	0xa
 904 0444 59       		.byte	0x59
 905 0445 1E010000 		.4byte	0x11e
 906 0449 08       		.byte	0x8
 907 044a 07       		.uleb128 0x7
 908 044b 6E030000 		.4byte	.LASF68
 909 044f 0A       		.byte	0xa
 910 0450 5B       		.byte	0x5b
 911 0451 3D030000 		.4byte	0x33d
 912 0455 0C       		.byte	0xc
ARM GAS  /tmp/ccD6BZAD.s 			page 17


 913 0456 07       		.uleb128 0x7
 914 0457 38020000 		.4byte	.LASF69
 915 045b 0A       		.byte	0xa
 916 045c 5E       		.byte	0x5e
 917 045d 78020000 		.4byte	0x278
 918 0461 10       		.byte	0x10
 919 0462 07       		.uleb128 0x7
 920 0463 A2030000 		.4byte	.LASF70
 921 0467 0A       		.byte	0xa
 922 0468 5F       		.byte	0x5f
 923 0469 78020000 		.4byte	0x278
 924 046d 14       		.byte	0x14
 925 046e 07       		.uleb128 0x7
 926 046f 98030000 		.4byte	.LASF71
 927 0473 0A       		.byte	0xa
 928 0474 62       		.byte	0x62
 929 0475 78020000 		.4byte	0x278
 930 0479 18       		.byte	0x18
 931 047a 00       		.byte	0
 932 047b 03       		.uleb128 0x3
 933 047c 36050000 		.4byte	.LASF72
 934 0480 0A       		.byte	0xa
 935 0481 64       		.byte	0x64
 936 0482 2A040000 		.4byte	0x42a
 937 0486 10       		.uleb128 0x10
 938 0487 40050000 		.4byte	.LASF74
 939 048b 0A       		.byte	0xa
 940 048c 68       		.byte	0x68
 941 048d 7B040000 		.4byte	0x47b
 942 0491 06       		.uleb128 0x6
 943 0492 60020000 		.4byte	.LASF75
 944 0496 10       		.byte	0x10
 945 0497 0B       		.byte	0xb
 946 0498 25       		.byte	0x25
 947 0499 C2040000 		.4byte	0x4c2
 948 049d 07       		.uleb128 0x7
 949 049e 3F010000 		.4byte	.LASF76
 950 04a2 0B       		.byte	0xb
 951 04a3 26       		.byte	0x26
 952 04a4 7E020000 		.4byte	0x27e
 953 04a8 00       		.byte	0
 954 04a9 07       		.uleb128 0x7
 955 04aa 90050000 		.4byte	.LASF77
 956 04ae 0B       		.byte	0xb
 957 04af 28       		.byte	0x28
 958 04b0 78020000 		.4byte	0x278
 959 04b4 08       		.byte	0x8
 960 04b5 07       		.uleb128 0x7
 961 04b6 D2040000 		.4byte	.LASF78
 962 04ba 0B       		.byte	0xb
 963 04bb 2A       		.byte	0x2a
 964 04bc C2040000 		.4byte	0x4c2
 965 04c0 0C       		.byte	0xc
 966 04c1 00       		.byte	0
 967 04c2 0A       		.uleb128 0xa
 968 04c3 04       		.byte	0x4
 969 04c4 91040000 		.4byte	0x491
ARM GAS  /tmp/ccD6BZAD.s 			page 18


 970 04c8 03       		.uleb128 0x3
 971 04c9 60020000 		.4byte	.LASF75
 972 04cd 0B       		.byte	0xb
 973 04ce 2C       		.byte	0x2c
 974 04cf 91040000 		.4byte	0x491
 975 04d3 03       		.uleb128 0x3
 976 04d4 96000000 		.4byte	.LASF79
 977 04d8 0C       		.byte	0xc
 978 04d9 25       		.byte	0x25
 979 04da DE040000 		.4byte	0x4de
 980 04de 0A       		.uleb128 0xa
 981 04df 04       		.byte	0x4
 982 04e0 E4040000 		.4byte	0x4e4
 983 04e4 11       		.uleb128 0x11
 984 04e5 B4020000 		.4byte	0x2b4
 985 04e9 F3040000 		.4byte	0x4f3
 986 04ed 0F       		.uleb128 0xf
 987 04ee 2C000000 		.4byte	0x2c
 988 04f2 00       		.byte	0
 989 04f3 06       		.uleb128 0x6
 990 04f4 23050000 		.4byte	.LASF80
 991 04f8 04       		.byte	0x4
 992 04f9 0D       		.byte	0xd
 993 04fa 25       		.byte	0x25
 994 04fb 0C050000 		.4byte	0x50c
 995 04ff 07       		.uleb128 0x7
 996 0500 B5030000 		.4byte	.LASF81
 997 0504 0D       		.byte	0xd
 998 0505 26       		.byte	0x26
 999 0506 0C050000 		.4byte	0x50c
 1000 050a 00       		.byte	0
 1001 050b 00       		.byte	0
 1002 050c 0A       		.uleb128 0xa
 1003 050d 04       		.byte	0x4
 1004 050e F3040000 		.4byte	0x4f3
 1005 0512 09       		.uleb128 0x9
 1006 0513 0C       		.byte	0xc
 1007 0514 0D       		.byte	0xd
 1008 0515 2D       		.byte	0x2d
 1009 0516 3F050000 		.4byte	0x53f
 1010 051a 07       		.uleb128 0x7
 1011 051b 63010000 		.4byte	.LASF82
 1012 051f 0D       		.byte	0xd
 1013 0520 2E       		.byte	0x2e
 1014 0521 0C050000 		.4byte	0x50c
 1015 0525 00       		.byte	0
 1016 0526 07       		.uleb128 0x7
 1017 0527 81030000 		.4byte	.LASF83
 1018 052b 0D       		.byte	0xd
 1019 052c 2F       		.byte	0x2f
 1020 052d 2C000000 		.4byte	0x2c
 1021 0531 04       		.byte	0x4
 1022 0532 07       		.uleb128 0x7
 1023 0533 A1010000 		.4byte	.LASF84
 1024 0537 0D       		.byte	0xd
 1025 0538 31       		.byte	0x31
 1026 0539 D3040000 		.4byte	0x4d3
ARM GAS  /tmp/ccD6BZAD.s 			page 19


 1027 053d 08       		.byte	0x8
 1028 053e 00       		.byte	0
 1029 053f 03       		.uleb128 0x3
 1030 0540 8B000000 		.4byte	.LASF85
 1031 0544 0D       		.byte	0xd
 1032 0545 33       		.byte	0x33
 1033 0546 12050000 		.4byte	0x512
 1034 054a 12       		.uleb128 0x12
 1035 054b 04       		.byte	0x4
 1036 054c 07       		.byte	0x7
 1037 054d 8F       		.byte	0x8f
 1038 054e 7F050000 		.4byte	0x57f
 1039 0552 13       		.uleb128 0x13
 1040 0553 5E040000 		.4byte	.LASF86
 1041 0557 07       		.byte	0x7
 1042 0558 96       		.byte	0x96
 1043 0559 29010000 		.4byte	0x129
 1044 055d 13       		.uleb128 0x13
 1045 055e D8000000 		.4byte	.LASF87
 1046 0562 07       		.byte	0x7
 1047 0563 9D       		.byte	0x9d
 1048 0564 29010000 		.4byte	0x129
 1049 0568 13       		.uleb128 0x13
 1050 0569 65050000 		.4byte	.LASF88
 1051 056d 07       		.byte	0x7
 1052 056e A4       		.byte	0xa4
 1053 056f B4020000 		.4byte	0x2b4
 1054 0573 13       		.uleb128 0x13
 1055 0574 34040000 		.4byte	.LASF89
 1056 0578 07       		.byte	0x7
 1057 0579 AB       		.byte	0xab
 1058 057a 34010000 		.4byte	0x134
 1059 057e 00       		.byte	0
 1060 057f 0A       		.uleb128 0xa
 1061 0580 04       		.byte	0x4
 1062 0581 8C050000 		.4byte	0x58c
 1063 0585 04       		.uleb128 0x4
 1064 0586 01       		.byte	0x1
 1065 0587 08       		.byte	0x8
 1066 0588 C2040000 		.4byte	.LASF90
 1067 058c 14       		.uleb128 0x14
 1068 058d 85050000 		.4byte	0x585
 1069 0591 0A       		.uleb128 0xa
 1070 0592 04       		.byte	0x4
 1071 0593 C8040000 		.4byte	0x4c8
 1072 0597 09       		.uleb128 0x9
 1073 0598 16       		.byte	0x16
 1074 0599 0E       		.byte	0xe
 1075 059a 25       		.byte	0x25
 1076 059b 78060000 		.4byte	0x678
 1077 059f 07       		.uleb128 0x7
 1078 05a0 F7010000 		.4byte	.LASF91
 1079 05a4 0E       		.byte	0xe
 1080 05a5 26       		.byte	0x26
 1081 05a6 78060000 		.4byte	0x678
 1082 05aa 00       		.byte	0
 1083 05ab 07       		.uleb128 0x7
ARM GAS  /tmp/ccD6BZAD.s 			page 20


 1084 05ac 71020000 		.4byte	.LASF92
 1085 05b0 0E       		.byte	0xe
 1086 05b1 27       		.byte	0x27
 1087 05b2 B4000000 		.4byte	0xb4
 1088 05b6 04       		.byte	0x4
 1089 05b7 07       		.uleb128 0x7
 1090 05b8 90030000 		.4byte	.LASF93
 1091 05bc 0E       		.byte	0xe
 1092 05bd 28       		.byte	0x28
 1093 05be B4000000 		.4byte	0xb4
 1094 05c2 05       		.byte	0x5
 1095 05c3 07       		.uleb128 0x7
 1096 05c4 7E050000 		.4byte	.LASF94
 1097 05c8 0E       		.byte	0xe
 1098 05c9 29       		.byte	0x29
 1099 05ca BF000000 		.4byte	0xbf
 1100 05ce 06       		.byte	0x6
 1101 05cf 07       		.uleb128 0x7
 1102 05d0 C5030000 		.4byte	.LASF95
 1103 05d4 0E       		.byte	0xe
 1104 05d5 2A       		.byte	0x2a
 1105 05d6 B4000000 		.4byte	0xb4
 1106 05da 08       		.byte	0x8
 1107 05db 07       		.uleb128 0x7
 1108 05dc 35030000 		.4byte	.LASF96
 1109 05e0 0E       		.byte	0xe
 1110 05e1 2B       		.byte	0x2b
 1111 05e2 B4000000 		.4byte	0xb4
 1112 05e6 09       		.byte	0x9
 1113 05e7 07       		.uleb128 0x7
 1114 05e8 CA000000 		.4byte	.LASF97
 1115 05ec 0E       		.byte	0xe
 1116 05ed 2C       		.byte	0x2c
 1117 05ee B4000000 		.4byte	0xb4
 1118 05f2 0A       		.byte	0xa
 1119 05f3 07       		.uleb128 0x7
 1120 05f4 8D040000 		.4byte	.LASF98
 1121 05f8 0E       		.byte	0xe
 1122 05f9 2D       		.byte	0x2d
 1123 05fa B4000000 		.4byte	0xb4
 1124 05fe 0B       		.byte	0xb
 1125 05ff 07       		.uleb128 0x7
 1126 0600 18050000 		.4byte	.LASF99
 1127 0604 0E       		.byte	0xe
 1128 0605 2E       		.byte	0x2e
 1129 0606 B4000000 		.4byte	0xb4
 1130 060a 0C       		.byte	0xc
 1131 060b 07       		.uleb128 0x7
 1132 060c 6C040000 		.4byte	.LASF100
 1133 0610 0E       		.byte	0xe
 1134 0611 2F       		.byte	0x2f
 1135 0612 B4000000 		.4byte	0xb4
 1136 0616 0D       		.byte	0xd
 1137 0617 07       		.uleb128 0x7
 1138 0618 00000000 		.4byte	.LASF101
 1139 061c 0E       		.byte	0xe
 1140 061d 30       		.byte	0x30
ARM GAS  /tmp/ccD6BZAD.s 			page 21


 1141 061e B4000000 		.4byte	0xb4
 1142 0622 0E       		.byte	0xe
 1143 0623 07       		.uleb128 0x7
 1144 0624 5A030000 		.4byte	.LASF102
 1145 0628 0E       		.byte	0xe
 1146 0629 31       		.byte	0x31
 1147 062a B4000000 		.4byte	0xb4
 1148 062e 0F       		.byte	0xf
 1149 062f 07       		.uleb128 0x7
 1150 0630 1A010000 		.4byte	.LASF103
 1151 0634 0E       		.byte	0xe
 1152 0635 32       		.byte	0x32
 1153 0636 B4000000 		.4byte	0xb4
 1154 063a 10       		.byte	0x10
 1155 063b 07       		.uleb128 0x7
 1156 063c F3000000 		.4byte	.LASF104
 1157 0640 0E       		.byte	0xe
 1158 0641 34       		.byte	0x34
 1159 0642 B4000000 		.4byte	0xb4
 1160 0646 11       		.byte	0x11
 1161 0647 07       		.uleb128 0x7
 1162 0648 2A010000 		.4byte	.LASF105
 1163 064c 0E       		.byte	0xe
 1164 064d 35       		.byte	0x35
 1165 064e B4000000 		.4byte	0xb4
 1166 0652 12       		.byte	0x12
 1167 0653 07       		.uleb128 0x7
 1168 0654 79020000 		.4byte	.LASF106
 1169 0658 0E       		.byte	0xe
 1170 0659 36       		.byte	0x36
 1171 065a B4000000 		.4byte	0xb4
 1172 065e 13       		.byte	0x13
 1173 065f 07       		.uleb128 0x7
 1174 0660 42040000 		.4byte	.LASF107
 1175 0664 0E       		.byte	0xe
 1176 0665 37       		.byte	0x37
 1177 0666 B4000000 		.4byte	0xb4
 1178 066a 14       		.byte	0x14
 1179 066b 07       		.uleb128 0x7
 1180 066c 21040000 		.4byte	.LASF108
 1181 0670 0E       		.byte	0xe
 1182 0671 39       		.byte	0x39
 1183 0672 B4000000 		.4byte	0xb4
 1184 0676 15       		.byte	0x15
 1185 0677 00       		.byte	0
 1186 0678 15       		.uleb128 0x15
 1187 0679 85050000 		.4byte	0x585
 1188 067d 88060000 		.4byte	0x688
 1189 0681 16       		.uleb128 0x16
 1190 0682 5E030000 		.4byte	0x35e
 1191 0686 03       		.byte	0x3
 1192 0687 00       		.byte	0
 1193 0688 03       		.uleb128 0x3
 1194 0689 74010000 		.4byte	.LASF109
 1195 068d 0E       		.byte	0xe
 1196 068e 3A       		.byte	0x3a
 1197 068f 97050000 		.4byte	0x597
ARM GAS  /tmp/ccD6BZAD.s 			page 22


 1198 0693 14       		.uleb128 0x14
 1199 0694 88060000 		.4byte	0x688
 1200 0698 10       		.uleb128 0x10
 1201 0699 E5010000 		.4byte	.LASF110
 1202 069d 0E       		.byte	0xe
 1203 069e 77       		.byte	0x77
 1204 069f 93060000 		.4byte	0x693
 1205 06a3 15       		.uleb128 0x15
 1206 06a4 B6020000 		.4byte	0x2b6
 1207 06a8 B3060000 		.4byte	0x6b3
 1208 06ac 16       		.uleb128 0x16
 1209 06ad 5E030000 		.4byte	0x35e
 1210 06b1 17       		.byte	0x17
 1211 06b2 00       		.byte	0
 1212 06b3 10       		.uleb128 0x10
 1213 06b4 86010000 		.4byte	.LASF111
 1214 06b8 0F       		.byte	0xf
 1215 06b9 82       		.byte	0x82
 1216 06ba A3060000 		.4byte	0x6a3
 1217 06be 17       		.uleb128 0x17
 1218 06bf 5A050000 		.4byte	.LASF113
 1219 06c3 01       		.byte	0x1
 1220 06c4 A4       		.byte	0xa4
 1221 06c5 01       		.byte	0x1
 1222 06c6 FE060000 		.4byte	0x6fe
 1223 06ca 18       		.uleb128 0x18
 1224 06cb 6D7000   		.ascii	"mp\000"
 1225 06ce 01       		.byte	0x1
 1226 06cf A4       		.byte	0xa4
 1227 06d0 FE060000 		.4byte	0x6fe
 1228 06d4 19       		.uleb128 0x19
 1229 06d5 59040000 		.4byte	.LASF112
 1230 06d9 01       		.byte	0x1
 1231 06da A4       		.byte	0xa4
 1232 06db B4020000 		.4byte	0x2b4
 1233 06df 1A       		.uleb128 0x1a
 1234 06e0 F0060000 		.4byte	0x6f0
 1235 06e4 1B       		.uleb128 0x1b
 1236 06e5 746D7000 		.ascii	"tmp\000"
 1237 06e9 01       		.byte	0x1
 1238 06ea A6       		.byte	0xa6
 1239 06eb D5000000 		.4byte	0xd5
 1240 06ef 00       		.byte	0
 1241 06f0 1C       		.uleb128 0x1c
 1242 06f1 1B       		.uleb128 0x1b
 1243 06f2 746D7000 		.ascii	"tmp\000"
 1244 06f6 01       		.byte	0x1
 1245 06f7 A8       		.byte	0xa8
 1246 06f8 D5000000 		.4byte	0xd5
 1247 06fc 00       		.byte	0
 1248 06fd 00       		.byte	0
 1249 06fe 0A       		.uleb128 0xa
 1250 06ff 04       		.byte	0x4
 1251 0700 3F050000 		.4byte	0x53f
 1252 0704 17       		.uleb128 0x17
 1253 0705 4E030000 		.4byte	.LASF114
 1254 0709 01       		.byte	0x1
ARM GAS  /tmp/ccD6BZAD.s 			page 23


 1255 070a 8E       		.byte	0x8e
 1256 070b 01       		.byte	0x1
 1257 070c 31070000 		.4byte	0x731
 1258 0710 18       		.uleb128 0x18
 1259 0711 6D7000   		.ascii	"mp\000"
 1260 0714 01       		.byte	0x1
 1261 0715 8E       		.byte	0x8e
 1262 0716 FE060000 		.4byte	0x6fe
 1263 071a 19       		.uleb128 0x19
 1264 071b 59040000 		.4byte	.LASF112
 1265 071f 01       		.byte	0x1
 1266 0720 8E       		.byte	0x8e
 1267 0721 B4020000 		.4byte	0x2b4
 1268 0725 1B       		.uleb128 0x1b
 1269 0726 70687000 		.ascii	"php\000"
 1270 072a 01       		.byte	0x1
 1271 072b 8F       		.byte	0x8f
 1272 072c 0C050000 		.4byte	0x50c
 1273 0730 00       		.byte	0
 1274 0731 1D       		.uleb128 0x1d
 1275 0732 4E050000 		.4byte	.LASF122
 1276 0736 01       		.byte	0x1
 1277 0737 79       		.byte	0x79
 1278 0738 B4020000 		.4byte	0x2b4
 1279 073c 00000000 		.4byte	.LFB10
 1280 0740 2C000000 		.4byte	.LFE10-.LFB10
 1281 0744 01       		.uleb128 0x1
 1282 0745 9C       		.byte	0x9c
 1283 0746 BA070000 		.4byte	0x7ba
 1284 074a 1E       		.uleb128 0x1e
 1285 074b 6D7000   		.ascii	"mp\000"
 1286 074e 01       		.byte	0x1
 1287 074f 79       		.byte	0x79
 1288 0750 FE060000 		.4byte	0x6fe
 1289 0754 00000000 		.4byte	.LLST9
 1290 0758 1F       		.uleb128 0x1f
 1291 0759 59040000 		.4byte	.LASF112
 1292 075d 01       		.byte	0x1
 1293 075e 7A       		.byte	0x7a
 1294 075f B4020000 		.4byte	0x2b4
 1295 0763 20       		.uleb128 0x20
 1296 0764 04000000 		.4byte	.LBB24
 1297 0768 06000000 		.4byte	.LBE24-.LBB24
 1298 076c 7E070000 		.4byte	0x77e
 1299 0770 21       		.uleb128 0x21
 1300 0771 746D7000 		.ascii	"tmp\000"
 1301 0775 01       		.byte	0x1
 1302 0776 7C       		.byte	0x7c
 1303 0777 D5000000 		.4byte	0xd5
 1304 077b 01       		.uleb128 0x1
 1305 077c 53       		.byte	0x53
 1306 077d 00       		.byte	0
 1307 077e 22       		.uleb128 0x22
 1308 077f 48000000 		.4byte	.Ldebug_ranges0+0x48
 1309 0783 95070000 		.4byte	0x795
 1310 0787 21       		.uleb128 0x21
 1311 0788 746D7000 		.ascii	"tmp\000"
ARM GAS  /tmp/ccD6BZAD.s 			page 24


 1312 078c 01       		.byte	0x1
 1313 078d 7E       		.byte	0x7e
 1314 078e D5000000 		.4byte	0xd5
 1315 0792 01       		.uleb128 0x1
 1316 0793 53       		.byte	0x53
 1317 0794 00       		.byte	0
 1318 0795 23       		.uleb128 0x23
 1319 0796 BA070000 		.4byte	0x7ba
 1320 079a 0A000000 		.4byte	.LBB25
 1321 079e 30000000 		.4byte	.Ldebug_ranges0+0x30
 1322 07a2 01       		.byte	0x1
 1323 07a3 7D       		.byte	0x7d
 1324 07a4 24       		.uleb128 0x24
 1325 07a5 CA070000 		.4byte	0x7ca
 1326 07a9 2C000000 		.4byte	.LLST10
 1327 07ad 25       		.uleb128 0x25
 1328 07ae 30000000 		.4byte	.Ldebug_ranges0+0x30
 1329 07b2 26       		.uleb128 0x26
 1330 07b3 ED080000 		.4byte	0x8ed
 1331 07b7 00       		.byte	0
 1332 07b8 00       		.byte	0
 1333 07b9 00       		.byte	0
 1334 07ba 27       		.uleb128 0x27
 1335 07bb 41030000 		.4byte	.LASF123
 1336 07bf 01       		.byte	0x1
 1337 07c0 62       		.byte	0x62
 1338 07c1 B4020000 		.4byte	0x2b4
 1339 07c5 01       		.byte	0x1
 1340 07c6 E0070000 		.4byte	0x7e0
 1341 07ca 18       		.uleb128 0x18
 1342 07cb 6D7000   		.ascii	"mp\000"
 1343 07ce 01       		.byte	0x1
 1344 07cf 62       		.byte	0x62
 1345 07d0 FE060000 		.4byte	0x6fe
 1346 07d4 1F       		.uleb128 0x1f
 1347 07d5 59040000 		.4byte	.LASF112
 1348 07d9 01       		.byte	0x1
 1349 07da 63       		.byte	0x63
 1350 07db B4020000 		.4byte	0x2b4
 1351 07df 00       		.byte	0
 1352 07e0 28       		.uleb128 0x28
 1353 07e1 A3000000 		.4byte	.LASF115
 1354 07e5 01       		.byte	0x1
 1355 07e6 4D       		.byte	0x4d
 1356 07e7 00000000 		.4byte	.LFB8
 1357 07eb 22000000 		.4byte	.LFE8-.LFB8
 1358 07ef 01       		.uleb128 0x1
 1359 07f0 9C       		.byte	0x9c
 1360 07f1 95080000 		.4byte	0x895
 1361 07f5 29       		.uleb128 0x29
 1362 07f6 6D7000   		.ascii	"mp\000"
 1363 07f9 01       		.byte	0x1
 1364 07fa 4D       		.byte	0x4d
 1365 07fb FE060000 		.4byte	0x6fe
 1366 07ff 01       		.uleb128 0x1
 1367 0800 50       		.byte	0x50
 1368 0801 1E       		.uleb128 0x1e
ARM GAS  /tmp/ccD6BZAD.s 			page 25


 1369 0802 7000     		.ascii	"p\000"
 1370 0804 01       		.byte	0x1
 1371 0805 4D       		.byte	0x4d
 1372 0806 B4020000 		.4byte	0x2b4
 1373 080a 63000000 		.4byte	.LLST0
 1374 080e 1E       		.uleb128 0x1e
 1375 080f 6E00     		.ascii	"n\000"
 1376 0811 01       		.byte	0x1
 1377 0812 4D       		.byte	0x4d
 1378 0813 2C000000 		.4byte	0x2c
 1379 0817 81000000 		.4byte	.LLST1
 1380 081b 2A       		.uleb128 0x2a
 1381 081c BE060000 		.4byte	0x6be
 1382 0820 04000000 		.4byte	.LBB16
 1383 0824 12000000 		.4byte	.LBE16-.LBB16
 1384 0828 01       		.byte	0x1
 1385 0829 52       		.byte	0x52
 1386 082a 24       		.uleb128 0x24
 1387 082b D4060000 		.4byte	0x6d4
 1388 082f AC000000 		.4byte	.LLST2
 1389 0833 24       		.uleb128 0x24
 1390 0834 CA060000 		.4byte	0x6ca
 1391 0838 BF000000 		.4byte	.LLST3
 1392 083c 20       		.uleb128 0x20
 1393 083d 04000000 		.4byte	.LBB17
 1394 0841 06000000 		.4byte	.LBE17-.LBB17
 1395 0845 51080000 		.4byte	0x851
 1396 0849 2B       		.uleb128 0x2b
 1397 084a E4060000 		.4byte	0x6e4
 1398 084e 01       		.uleb128 0x1
 1399 084f 53       		.byte	0x53
 1400 0850 00       		.byte	0
 1401 0851 2C       		.uleb128 0x2c
 1402 0852 04070000 		.4byte	0x704
 1403 0856 0A000000 		.4byte	.LBB18
 1404 085a 00000000 		.4byte	.Ldebug_ranges0+0
 1405 085e 01       		.byte	0x1
 1406 085f A7       		.byte	0xa7
 1407 0860 86080000 		.4byte	0x886
 1408 0864 24       		.uleb128 0x24
 1409 0865 1A070000 		.4byte	0x71a
 1410 0869 D2000000 		.4byte	.LLST4
 1411 086d 24       		.uleb128 0x24
 1412 086e 10070000 		.4byte	0x710
 1413 0872 E5000000 		.4byte	.LLST5
 1414 0876 25       		.uleb128 0x25
 1415 0877 00000000 		.4byte	.Ldebug_ranges0+0
 1416 087b 2D       		.uleb128 0x2d
 1417 087c 25070000 		.4byte	0x725
 1418 0880 F8000000 		.4byte	.LLST6
 1419 0884 00       		.byte	0
 1420 0885 00       		.byte	0
 1421 0886 25       		.uleb128 0x25
 1422 0887 18000000 		.4byte	.Ldebug_ranges0+0x18
 1423 088b 2B       		.uleb128 0x2b
 1424 088c F1060000 		.4byte	0x6f1
 1425 0890 01       		.uleb128 0x1
ARM GAS  /tmp/ccD6BZAD.s 			page 26


 1426 0891 53       		.byte	0x53
 1427 0892 00       		.byte	0
 1428 0893 00       		.byte	0
 1429 0894 00       		.byte	0
 1430 0895 28       		.uleb128 0x28
 1431 0896 E1000000 		.4byte	.LASF116
 1432 089a 01       		.byte	0x1
 1433 089b 37       		.byte	0x37
 1434 089c 00000000 		.4byte	.LFB7
 1435 08a0 0A000000 		.4byte	.LFE7-.LFB7
 1436 08a4 01       		.uleb128 0x1
 1437 08a5 9C       		.byte	0x9c
 1438 08a6 D1080000 		.4byte	0x8d1
 1439 08aa 29       		.uleb128 0x29
 1440 08ab 6D7000   		.ascii	"mp\000"
 1441 08ae 01       		.byte	0x1
 1442 08af 37       		.byte	0x37
 1443 08b0 FE060000 		.4byte	0x6fe
 1444 08b4 01       		.uleb128 0x1
 1445 08b5 50       		.byte	0x50
 1446 08b6 2E       		.uleb128 0x2e
 1447 08b7 1A020000 		.4byte	.LASF117
 1448 08bb 01       		.byte	0x1
 1449 08bc 37       		.byte	0x37
 1450 08bd 2C000000 		.4byte	0x2c
 1451 08c1 01       		.uleb128 0x1
 1452 08c2 51       		.byte	0x51
 1453 08c3 2E       		.uleb128 0x2e
 1454 08c4 82000000 		.4byte	.LASF118
 1455 08c8 01       		.byte	0x1
 1456 08c9 37       		.byte	0x37
 1457 08ca D3040000 		.4byte	0x4d3
 1458 08ce 01       		.uleb128 0x1
 1459 08cf 52       		.byte	0x52
 1460 08d0 00       		.byte	0
 1461 08d1 2F       		.uleb128 0x2f
 1462 08d2 BA070000 		.4byte	0x7ba
 1463 08d6 00000000 		.4byte	.LFB9
 1464 08da 16000000 		.4byte	.LFE9-.LFB9
 1465 08de 01       		.uleb128 0x1
 1466 08df 9C       		.byte	0x9c
 1467 08e0 F7080000 		.4byte	0x8f7
 1468 08e4 24       		.uleb128 0x24
 1469 08e5 CA070000 		.4byte	0x7ca
 1470 08e9 17010000 		.4byte	.LLST7
 1471 08ed 2D       		.uleb128 0x2d
 1472 08ee D4070000 		.4byte	0x7d4
 1473 08f2 51010000 		.4byte	.LLST8
 1474 08f6 00       		.byte	0
 1475 08f7 30       		.uleb128 0x30
 1476 08f8 04070000 		.4byte	0x704
 1477 08fc 00000000 		.4byte	.LFB11
 1478 0900 08000000 		.4byte	.LFE11-.LFB11
 1479 0904 01       		.uleb128 0x1
 1480 0905 9C       		.byte	0x9c
 1481 0906 20090000 		.4byte	0x920
 1482 090a 31       		.uleb128 0x31
ARM GAS  /tmp/ccD6BZAD.s 			page 27


 1483 090b 10070000 		.4byte	0x710
 1484 090f 01       		.uleb128 0x1
 1485 0910 50       		.byte	0x50
 1486 0911 31       		.uleb128 0x31
 1487 0912 1A070000 		.4byte	0x71a
 1488 0916 01       		.uleb128 0x1
 1489 0917 51       		.byte	0x51
 1490 0918 2B       		.uleb128 0x2b
 1491 0919 25070000 		.4byte	0x725
 1492 091d 01       		.uleb128 0x1
 1493 091e 51       		.byte	0x51
 1494 091f 00       		.byte	0
 1495 0920 32       		.uleb128 0x32
 1496 0921 BE060000 		.4byte	0x6be
 1497 0925 00000000 		.4byte	.LFB12
 1498 0929 14000000 		.4byte	.LFE12-.LFB12
 1499 092d 01       		.uleb128 0x1
 1500 092e 9C       		.byte	0x9c
 1501 092f 31       		.uleb128 0x31
 1502 0930 CA060000 		.4byte	0x6ca
 1503 0934 01       		.uleb128 0x1
 1504 0935 50       		.byte	0x50
 1505 0936 31       		.uleb128 0x31
 1506 0937 D4060000 		.4byte	0x6d4
 1507 093b 01       		.uleb128 0x1
 1508 093c 51       		.byte	0x51
 1509 093d 20       		.uleb128 0x20
 1510 093e 00000000 		.4byte	.LBB31
 1511 0942 06000000 		.4byte	.LBE31-.LBB31
 1512 0946 52090000 		.4byte	0x952
 1513 094a 2B       		.uleb128 0x2b
 1514 094b E4060000 		.4byte	0x6e4
 1515 094f 01       		.uleb128 0x1
 1516 0950 53       		.byte	0x53
 1517 0951 00       		.byte	0
 1518 0952 2C       		.uleb128 0x2c
 1519 0953 04070000 		.4byte	0x704
 1520 0957 06000000 		.4byte	.LBB32
 1521 095b 60000000 		.4byte	.Ldebug_ranges0+0x60
 1522 095f 01       		.byte	0x1
 1523 0960 A7       		.byte	0xa7
 1524 0961 83090000 		.4byte	0x983
 1525 0965 24       		.uleb128 0x24
 1526 0966 1A070000 		.4byte	0x71a
 1527 096a 64010000 		.4byte	.LLST11
 1528 096e 24       		.uleb128 0x24
 1529 096f 10070000 		.4byte	0x710
 1530 0973 77010000 		.4byte	.LLST12
 1531 0977 25       		.uleb128 0x25
 1532 0978 60000000 		.4byte	.Ldebug_ranges0+0x60
 1533 097c 26       		.uleb128 0x26
 1534 097d 18090000 		.4byte	0x918
 1535 0981 00       		.byte	0
 1536 0982 00       		.byte	0
 1537 0983 25       		.uleb128 0x25
 1538 0984 78000000 		.4byte	.Ldebug_ranges0+0x78
 1539 0988 2B       		.uleb128 0x2b
ARM GAS  /tmp/ccD6BZAD.s 			page 28


 1540 0989 F1060000 		.4byte	0x6f1
 1541 098d 01       		.uleb128 0x1
 1542 098e 53       		.byte	0x53
 1543 098f 00       		.byte	0
 1544 0990 00       		.byte	0
 1545 0991 00       		.byte	0
 1546              		.section	.debug_abbrev,"",%progbits
 1547              	.Ldebug_abbrev0:
 1548 0000 01       		.uleb128 0x1
 1549 0001 11       		.uleb128 0x11
 1550 0002 01       		.byte	0x1
 1551 0003 25       		.uleb128 0x25
 1552 0004 0E       		.uleb128 0xe
 1553 0005 13       		.uleb128 0x13
 1554 0006 0B       		.uleb128 0xb
 1555 0007 03       		.uleb128 0x3
 1556 0008 0E       		.uleb128 0xe
 1557 0009 1B       		.uleb128 0x1b
 1558 000a 0E       		.uleb128 0xe
 1559 000b 55       		.uleb128 0x55
 1560 000c 17       		.uleb128 0x17
 1561 000d 11       		.uleb128 0x11
 1562 000e 01       		.uleb128 0x1
 1563 000f 10       		.uleb128 0x10
 1564 0010 17       		.uleb128 0x17
 1565 0011 00       		.byte	0
 1566 0012 00       		.byte	0
 1567 0013 02       		.uleb128 0x2
 1568 0014 24       		.uleb128 0x24
 1569 0015 00       		.byte	0
 1570 0016 0B       		.uleb128 0xb
 1571 0017 0B       		.uleb128 0xb
 1572 0018 3E       		.uleb128 0x3e
 1573 0019 0B       		.uleb128 0xb
 1574 001a 03       		.uleb128 0x3
 1575 001b 08       		.uleb128 0x8
 1576 001c 00       		.byte	0
 1577 001d 00       		.byte	0
 1578 001e 03       		.uleb128 0x3
 1579 001f 16       		.uleb128 0x16
 1580 0020 00       		.byte	0
 1581 0021 03       		.uleb128 0x3
 1582 0022 0E       		.uleb128 0xe
 1583 0023 3A       		.uleb128 0x3a
 1584 0024 0B       		.uleb128 0xb
 1585 0025 3B       		.uleb128 0x3b
 1586 0026 0B       		.uleb128 0xb
 1587 0027 49       		.uleb128 0x49
 1588 0028 13       		.uleb128 0x13
 1589 0029 00       		.byte	0
 1590 002a 00       		.byte	0
 1591 002b 04       		.uleb128 0x4
 1592 002c 24       		.uleb128 0x24
 1593 002d 00       		.byte	0
 1594 002e 0B       		.uleb128 0xb
 1595 002f 0B       		.uleb128 0xb
 1596 0030 3E       		.uleb128 0x3e
ARM GAS  /tmp/ccD6BZAD.s 			page 29


 1597 0031 0B       		.uleb128 0xb
 1598 0032 03       		.uleb128 0x3
 1599 0033 0E       		.uleb128 0xe
 1600 0034 00       		.byte	0
 1601 0035 00       		.byte	0
 1602 0036 05       		.uleb128 0x5
 1603 0037 35       		.uleb128 0x35
 1604 0038 00       		.byte	0
 1605 0039 49       		.uleb128 0x49
 1606 003a 13       		.uleb128 0x13
 1607 003b 00       		.byte	0
 1608 003c 00       		.byte	0
 1609 003d 06       		.uleb128 0x6
 1610 003e 13       		.uleb128 0x13
 1611 003f 01       		.byte	0x1
 1612 0040 03       		.uleb128 0x3
 1613 0041 0E       		.uleb128 0xe
 1614 0042 0B       		.uleb128 0xb
 1615 0043 0B       		.uleb128 0xb
 1616 0044 3A       		.uleb128 0x3a
 1617 0045 0B       		.uleb128 0xb
 1618 0046 3B       		.uleb128 0x3b
 1619 0047 0B       		.uleb128 0xb
 1620 0048 01       		.uleb128 0x1
 1621 0049 13       		.uleb128 0x13
 1622 004a 00       		.byte	0
 1623 004b 00       		.byte	0
 1624 004c 07       		.uleb128 0x7
 1625 004d 0D       		.uleb128 0xd
 1626 004e 00       		.byte	0
 1627 004f 03       		.uleb128 0x3
 1628 0050 0E       		.uleb128 0xe
 1629 0051 3A       		.uleb128 0x3a
 1630 0052 0B       		.uleb128 0xb
 1631 0053 3B       		.uleb128 0x3b
 1632 0054 0B       		.uleb128 0xb
 1633 0055 49       		.uleb128 0x49
 1634 0056 13       		.uleb128 0x13
 1635 0057 38       		.uleb128 0x38
 1636 0058 0B       		.uleb128 0xb
 1637 0059 00       		.byte	0
 1638 005a 00       		.byte	0
 1639 005b 08       		.uleb128 0x8
 1640 005c 0D       		.uleb128 0xd
 1641 005d 00       		.byte	0
 1642 005e 03       		.uleb128 0x3
 1643 005f 08       		.uleb128 0x8
 1644 0060 3A       		.uleb128 0x3a
 1645 0061 0B       		.uleb128 0xb
 1646 0062 3B       		.uleb128 0x3b
 1647 0063 0B       		.uleb128 0xb
 1648 0064 49       		.uleb128 0x49
 1649 0065 13       		.uleb128 0x13
 1650 0066 38       		.uleb128 0x38
 1651 0067 0B       		.uleb128 0xb
 1652 0068 00       		.byte	0
 1653 0069 00       		.byte	0
ARM GAS  /tmp/ccD6BZAD.s 			page 30


 1654 006a 09       		.uleb128 0x9
 1655 006b 13       		.uleb128 0x13
 1656 006c 01       		.byte	0x1
 1657 006d 0B       		.uleb128 0xb
 1658 006e 0B       		.uleb128 0xb
 1659 006f 3A       		.uleb128 0x3a
 1660 0070 0B       		.uleb128 0xb
 1661 0071 3B       		.uleb128 0x3b
 1662 0072 0B       		.uleb128 0xb
 1663 0073 01       		.uleb128 0x1
 1664 0074 13       		.uleb128 0x13
 1665 0075 00       		.byte	0
 1666 0076 00       		.byte	0
 1667 0077 0A       		.uleb128 0xa
 1668 0078 0F       		.uleb128 0xf
 1669 0079 00       		.byte	0
 1670 007a 0B       		.uleb128 0xb
 1671 007b 0B       		.uleb128 0xb
 1672 007c 49       		.uleb128 0x49
 1673 007d 13       		.uleb128 0x13
 1674 007e 00       		.byte	0
 1675 007f 00       		.byte	0
 1676 0080 0B       		.uleb128 0xb
 1677 0081 0F       		.uleb128 0xf
 1678 0082 00       		.byte	0
 1679 0083 0B       		.uleb128 0xb
 1680 0084 0B       		.uleb128 0xb
 1681 0085 00       		.byte	0
 1682 0086 00       		.byte	0
 1683 0087 0C       		.uleb128 0xc
 1684 0088 13       		.uleb128 0x13
 1685 0089 01       		.byte	0x1
 1686 008a 03       		.uleb128 0x3
 1687 008b 0E       		.uleb128 0xe
 1688 008c 0B       		.uleb128 0xb
 1689 008d 0B       		.uleb128 0xb
 1690 008e 3A       		.uleb128 0x3a
 1691 008f 0B       		.uleb128 0xb
 1692 0090 3B       		.uleb128 0x3b
 1693 0091 05       		.uleb128 0x5
 1694 0092 01       		.uleb128 0x1
 1695 0093 13       		.uleb128 0x13
 1696 0094 00       		.byte	0
 1697 0095 00       		.byte	0
 1698 0096 0D       		.uleb128 0xd
 1699 0097 0D       		.uleb128 0xd
 1700 0098 00       		.byte	0
 1701 0099 03       		.uleb128 0x3
 1702 009a 08       		.uleb128 0x8
 1703 009b 3A       		.uleb128 0x3a
 1704 009c 0B       		.uleb128 0xb
 1705 009d 3B       		.uleb128 0x3b
 1706 009e 05       		.uleb128 0x5
 1707 009f 49       		.uleb128 0x49
 1708 00a0 13       		.uleb128 0x13
 1709 00a1 38       		.uleb128 0x38
 1710 00a2 0B       		.uleb128 0xb
ARM GAS  /tmp/ccD6BZAD.s 			page 31


 1711 00a3 00       		.byte	0
 1712 00a4 00       		.byte	0
 1713 00a5 0E       		.uleb128 0xe
 1714 00a6 15       		.uleb128 0x15
 1715 00a7 01       		.byte	0x1
 1716 00a8 27       		.uleb128 0x27
 1717 00a9 19       		.uleb128 0x19
 1718 00aa 01       		.uleb128 0x1
 1719 00ab 13       		.uleb128 0x13
 1720 00ac 00       		.byte	0
 1721 00ad 00       		.byte	0
 1722 00ae 0F       		.uleb128 0xf
 1723 00af 05       		.uleb128 0x5
 1724 00b0 00       		.byte	0
 1725 00b1 49       		.uleb128 0x49
 1726 00b2 13       		.uleb128 0x13
 1727 00b3 00       		.byte	0
 1728 00b4 00       		.byte	0
 1729 00b5 10       		.uleb128 0x10
 1730 00b6 34       		.uleb128 0x34
 1731 00b7 00       		.byte	0
 1732 00b8 03       		.uleb128 0x3
 1733 00b9 0E       		.uleb128 0xe
 1734 00ba 3A       		.uleb128 0x3a
 1735 00bb 0B       		.uleb128 0xb
 1736 00bc 3B       		.uleb128 0x3b
 1737 00bd 0B       		.uleb128 0xb
 1738 00be 49       		.uleb128 0x49
 1739 00bf 13       		.uleb128 0x13
 1740 00c0 3F       		.uleb128 0x3f
 1741 00c1 19       		.uleb128 0x19
 1742 00c2 3C       		.uleb128 0x3c
 1743 00c3 19       		.uleb128 0x19
 1744 00c4 00       		.byte	0
 1745 00c5 00       		.byte	0
 1746 00c6 11       		.uleb128 0x11
 1747 00c7 15       		.uleb128 0x15
 1748 00c8 01       		.byte	0x1
 1749 00c9 27       		.uleb128 0x27
 1750 00ca 19       		.uleb128 0x19
 1751 00cb 49       		.uleb128 0x49
 1752 00cc 13       		.uleb128 0x13
 1753 00cd 01       		.uleb128 0x1
 1754 00ce 13       		.uleb128 0x13
 1755 00cf 00       		.byte	0
 1756 00d0 00       		.byte	0
 1757 00d1 12       		.uleb128 0x12
 1758 00d2 17       		.uleb128 0x17
 1759 00d3 01       		.byte	0x1
 1760 00d4 0B       		.uleb128 0xb
 1761 00d5 0B       		.uleb128 0xb
 1762 00d6 3A       		.uleb128 0x3a
 1763 00d7 0B       		.uleb128 0xb
 1764 00d8 3B       		.uleb128 0x3b
 1765 00d9 0B       		.uleb128 0xb
 1766 00da 01       		.uleb128 0x1
 1767 00db 13       		.uleb128 0x13
ARM GAS  /tmp/ccD6BZAD.s 			page 32


 1768 00dc 00       		.byte	0
 1769 00dd 00       		.byte	0
 1770 00de 13       		.uleb128 0x13
 1771 00df 0D       		.uleb128 0xd
 1772 00e0 00       		.byte	0
 1773 00e1 03       		.uleb128 0x3
 1774 00e2 0E       		.uleb128 0xe
 1775 00e3 3A       		.uleb128 0x3a
 1776 00e4 0B       		.uleb128 0xb
 1777 00e5 3B       		.uleb128 0x3b
 1778 00e6 0B       		.uleb128 0xb
 1779 00e7 49       		.uleb128 0x49
 1780 00e8 13       		.uleb128 0x13
 1781 00e9 00       		.byte	0
 1782 00ea 00       		.byte	0
 1783 00eb 14       		.uleb128 0x14
 1784 00ec 26       		.uleb128 0x26
 1785 00ed 00       		.byte	0
 1786 00ee 49       		.uleb128 0x49
 1787 00ef 13       		.uleb128 0x13
 1788 00f0 00       		.byte	0
 1789 00f1 00       		.byte	0
 1790 00f2 15       		.uleb128 0x15
 1791 00f3 01       		.uleb128 0x1
 1792 00f4 01       		.byte	0x1
 1793 00f5 49       		.uleb128 0x49
 1794 00f6 13       		.uleb128 0x13
 1795 00f7 01       		.uleb128 0x1
 1796 00f8 13       		.uleb128 0x13
 1797 00f9 00       		.byte	0
 1798 00fa 00       		.byte	0
 1799 00fb 16       		.uleb128 0x16
 1800 00fc 21       		.uleb128 0x21
 1801 00fd 00       		.byte	0
 1802 00fe 49       		.uleb128 0x49
 1803 00ff 13       		.uleb128 0x13
 1804 0100 2F       		.uleb128 0x2f
 1805 0101 0B       		.uleb128 0xb
 1806 0102 00       		.byte	0
 1807 0103 00       		.byte	0
 1808 0104 17       		.uleb128 0x17
 1809 0105 2E       		.uleb128 0x2e
 1810 0106 01       		.byte	0x1
 1811 0107 3F       		.uleb128 0x3f
 1812 0108 19       		.uleb128 0x19
 1813 0109 03       		.uleb128 0x3
 1814 010a 0E       		.uleb128 0xe
 1815 010b 3A       		.uleb128 0x3a
 1816 010c 0B       		.uleb128 0xb
 1817 010d 3B       		.uleb128 0x3b
 1818 010e 0B       		.uleb128 0xb
 1819 010f 27       		.uleb128 0x27
 1820 0110 19       		.uleb128 0x19
 1821 0111 20       		.uleb128 0x20
 1822 0112 0B       		.uleb128 0xb
 1823 0113 01       		.uleb128 0x1
 1824 0114 13       		.uleb128 0x13
ARM GAS  /tmp/ccD6BZAD.s 			page 33


 1825 0115 00       		.byte	0
 1826 0116 00       		.byte	0
 1827 0117 18       		.uleb128 0x18
 1828 0118 05       		.uleb128 0x5
 1829 0119 00       		.byte	0
 1830 011a 03       		.uleb128 0x3
 1831 011b 08       		.uleb128 0x8
 1832 011c 3A       		.uleb128 0x3a
 1833 011d 0B       		.uleb128 0xb
 1834 011e 3B       		.uleb128 0x3b
 1835 011f 0B       		.uleb128 0xb
 1836 0120 49       		.uleb128 0x49
 1837 0121 13       		.uleb128 0x13
 1838 0122 00       		.byte	0
 1839 0123 00       		.byte	0
 1840 0124 19       		.uleb128 0x19
 1841 0125 05       		.uleb128 0x5
 1842 0126 00       		.byte	0
 1843 0127 03       		.uleb128 0x3
 1844 0128 0E       		.uleb128 0xe
 1845 0129 3A       		.uleb128 0x3a
 1846 012a 0B       		.uleb128 0xb
 1847 012b 3B       		.uleb128 0x3b
 1848 012c 0B       		.uleb128 0xb
 1849 012d 49       		.uleb128 0x49
 1850 012e 13       		.uleb128 0x13
 1851 012f 00       		.byte	0
 1852 0130 00       		.byte	0
 1853 0131 1A       		.uleb128 0x1a
 1854 0132 0B       		.uleb128 0xb
 1855 0133 01       		.byte	0x1
 1856 0134 01       		.uleb128 0x1
 1857 0135 13       		.uleb128 0x13
 1858 0136 00       		.byte	0
 1859 0137 00       		.byte	0
 1860 0138 1B       		.uleb128 0x1b
 1861 0139 34       		.uleb128 0x34
 1862 013a 00       		.byte	0
 1863 013b 03       		.uleb128 0x3
 1864 013c 08       		.uleb128 0x8
 1865 013d 3A       		.uleb128 0x3a
 1866 013e 0B       		.uleb128 0xb
 1867 013f 3B       		.uleb128 0x3b
 1868 0140 0B       		.uleb128 0xb
 1869 0141 49       		.uleb128 0x49
 1870 0142 13       		.uleb128 0x13
 1871 0143 00       		.byte	0
 1872 0144 00       		.byte	0
 1873 0145 1C       		.uleb128 0x1c
 1874 0146 0B       		.uleb128 0xb
 1875 0147 01       		.byte	0x1
 1876 0148 00       		.byte	0
 1877 0149 00       		.byte	0
 1878 014a 1D       		.uleb128 0x1d
 1879 014b 2E       		.uleb128 0x2e
 1880 014c 01       		.byte	0x1
 1881 014d 3F       		.uleb128 0x3f
ARM GAS  /tmp/ccD6BZAD.s 			page 34


 1882 014e 19       		.uleb128 0x19
 1883 014f 03       		.uleb128 0x3
 1884 0150 0E       		.uleb128 0xe
 1885 0151 3A       		.uleb128 0x3a
 1886 0152 0B       		.uleb128 0xb
 1887 0153 3B       		.uleb128 0x3b
 1888 0154 0B       		.uleb128 0xb
 1889 0155 27       		.uleb128 0x27
 1890 0156 19       		.uleb128 0x19
 1891 0157 49       		.uleb128 0x49
 1892 0158 13       		.uleb128 0x13
 1893 0159 11       		.uleb128 0x11
 1894 015a 01       		.uleb128 0x1
 1895 015b 12       		.uleb128 0x12
 1896 015c 06       		.uleb128 0x6
 1897 015d 40       		.uleb128 0x40
 1898 015e 18       		.uleb128 0x18
 1899 015f 9642     		.uleb128 0x2116
 1900 0161 19       		.uleb128 0x19
 1901 0162 01       		.uleb128 0x1
 1902 0163 13       		.uleb128 0x13
 1903 0164 00       		.byte	0
 1904 0165 00       		.byte	0
 1905 0166 1E       		.uleb128 0x1e
 1906 0167 05       		.uleb128 0x5
 1907 0168 00       		.byte	0
 1908 0169 03       		.uleb128 0x3
 1909 016a 08       		.uleb128 0x8
 1910 016b 3A       		.uleb128 0x3a
 1911 016c 0B       		.uleb128 0xb
 1912 016d 3B       		.uleb128 0x3b
 1913 016e 0B       		.uleb128 0xb
 1914 016f 49       		.uleb128 0x49
 1915 0170 13       		.uleb128 0x13
 1916 0171 02       		.uleb128 0x2
 1917 0172 17       		.uleb128 0x17
 1918 0173 00       		.byte	0
 1919 0174 00       		.byte	0
 1920 0175 1F       		.uleb128 0x1f
 1921 0176 34       		.uleb128 0x34
 1922 0177 00       		.byte	0
 1923 0178 03       		.uleb128 0x3
 1924 0179 0E       		.uleb128 0xe
 1925 017a 3A       		.uleb128 0x3a
 1926 017b 0B       		.uleb128 0xb
 1927 017c 3B       		.uleb128 0x3b
 1928 017d 0B       		.uleb128 0xb
 1929 017e 49       		.uleb128 0x49
 1930 017f 13       		.uleb128 0x13
 1931 0180 00       		.byte	0
 1932 0181 00       		.byte	0
 1933 0182 20       		.uleb128 0x20
 1934 0183 0B       		.uleb128 0xb
 1935 0184 01       		.byte	0x1
 1936 0185 11       		.uleb128 0x11
 1937 0186 01       		.uleb128 0x1
 1938 0187 12       		.uleb128 0x12
ARM GAS  /tmp/ccD6BZAD.s 			page 35


 1939 0188 06       		.uleb128 0x6
 1940 0189 01       		.uleb128 0x1
 1941 018a 13       		.uleb128 0x13
 1942 018b 00       		.byte	0
 1943 018c 00       		.byte	0
 1944 018d 21       		.uleb128 0x21
 1945 018e 34       		.uleb128 0x34
 1946 018f 00       		.byte	0
 1947 0190 03       		.uleb128 0x3
 1948 0191 08       		.uleb128 0x8
 1949 0192 3A       		.uleb128 0x3a
 1950 0193 0B       		.uleb128 0xb
 1951 0194 3B       		.uleb128 0x3b
 1952 0195 0B       		.uleb128 0xb
 1953 0196 49       		.uleb128 0x49
 1954 0197 13       		.uleb128 0x13
 1955 0198 02       		.uleb128 0x2
 1956 0199 18       		.uleb128 0x18
 1957 019a 00       		.byte	0
 1958 019b 00       		.byte	0
 1959 019c 22       		.uleb128 0x22
 1960 019d 0B       		.uleb128 0xb
 1961 019e 01       		.byte	0x1
 1962 019f 55       		.uleb128 0x55
 1963 01a0 17       		.uleb128 0x17
 1964 01a1 01       		.uleb128 0x1
 1965 01a2 13       		.uleb128 0x13
 1966 01a3 00       		.byte	0
 1967 01a4 00       		.byte	0
 1968 01a5 23       		.uleb128 0x23
 1969 01a6 1D       		.uleb128 0x1d
 1970 01a7 01       		.byte	0x1
 1971 01a8 31       		.uleb128 0x31
 1972 01a9 13       		.uleb128 0x13
 1973 01aa 52       		.uleb128 0x52
 1974 01ab 01       		.uleb128 0x1
 1975 01ac 55       		.uleb128 0x55
 1976 01ad 17       		.uleb128 0x17
 1977 01ae 58       		.uleb128 0x58
 1978 01af 0B       		.uleb128 0xb
 1979 01b0 59       		.uleb128 0x59
 1980 01b1 0B       		.uleb128 0xb
 1981 01b2 00       		.byte	0
 1982 01b3 00       		.byte	0
 1983 01b4 24       		.uleb128 0x24
 1984 01b5 05       		.uleb128 0x5
 1985 01b6 00       		.byte	0
 1986 01b7 31       		.uleb128 0x31
 1987 01b8 13       		.uleb128 0x13
 1988 01b9 02       		.uleb128 0x2
 1989 01ba 17       		.uleb128 0x17
 1990 01bb 00       		.byte	0
 1991 01bc 00       		.byte	0
 1992 01bd 25       		.uleb128 0x25
 1993 01be 0B       		.uleb128 0xb
 1994 01bf 01       		.byte	0x1
 1995 01c0 55       		.uleb128 0x55
ARM GAS  /tmp/ccD6BZAD.s 			page 36


 1996 01c1 17       		.uleb128 0x17
 1997 01c2 00       		.byte	0
 1998 01c3 00       		.byte	0
 1999 01c4 26       		.uleb128 0x26
 2000 01c5 34       		.uleb128 0x34
 2001 01c6 00       		.byte	0
 2002 01c7 31       		.uleb128 0x31
 2003 01c8 13       		.uleb128 0x13
 2004 01c9 00       		.byte	0
 2005 01ca 00       		.byte	0
 2006 01cb 27       		.uleb128 0x27
 2007 01cc 2E       		.uleb128 0x2e
 2008 01cd 01       		.byte	0x1
 2009 01ce 3F       		.uleb128 0x3f
 2010 01cf 19       		.uleb128 0x19
 2011 01d0 03       		.uleb128 0x3
 2012 01d1 0E       		.uleb128 0xe
 2013 01d2 3A       		.uleb128 0x3a
 2014 01d3 0B       		.uleb128 0xb
 2015 01d4 3B       		.uleb128 0x3b
 2016 01d5 0B       		.uleb128 0xb
 2017 01d6 27       		.uleb128 0x27
 2018 01d7 19       		.uleb128 0x19
 2019 01d8 49       		.uleb128 0x49
 2020 01d9 13       		.uleb128 0x13
 2021 01da 20       		.uleb128 0x20
 2022 01db 0B       		.uleb128 0xb
 2023 01dc 01       		.uleb128 0x1
 2024 01dd 13       		.uleb128 0x13
 2025 01de 00       		.byte	0
 2026 01df 00       		.byte	0
 2027 01e0 28       		.uleb128 0x28
 2028 01e1 2E       		.uleb128 0x2e
 2029 01e2 01       		.byte	0x1
 2030 01e3 3F       		.uleb128 0x3f
 2031 01e4 19       		.uleb128 0x19
 2032 01e5 03       		.uleb128 0x3
 2033 01e6 0E       		.uleb128 0xe
 2034 01e7 3A       		.uleb128 0x3a
 2035 01e8 0B       		.uleb128 0xb
 2036 01e9 3B       		.uleb128 0x3b
 2037 01ea 0B       		.uleb128 0xb
 2038 01eb 27       		.uleb128 0x27
 2039 01ec 19       		.uleb128 0x19
 2040 01ed 11       		.uleb128 0x11
 2041 01ee 01       		.uleb128 0x1
 2042 01ef 12       		.uleb128 0x12
 2043 01f0 06       		.uleb128 0x6
 2044 01f1 40       		.uleb128 0x40
 2045 01f2 18       		.uleb128 0x18
 2046 01f3 9742     		.uleb128 0x2117
 2047 01f5 19       		.uleb128 0x19
 2048 01f6 01       		.uleb128 0x1
 2049 01f7 13       		.uleb128 0x13
 2050 01f8 00       		.byte	0
 2051 01f9 00       		.byte	0
 2052 01fa 29       		.uleb128 0x29
ARM GAS  /tmp/ccD6BZAD.s 			page 37


 2053 01fb 05       		.uleb128 0x5
 2054 01fc 00       		.byte	0
 2055 01fd 03       		.uleb128 0x3
 2056 01fe 08       		.uleb128 0x8
 2057 01ff 3A       		.uleb128 0x3a
 2058 0200 0B       		.uleb128 0xb
 2059 0201 3B       		.uleb128 0x3b
 2060 0202 0B       		.uleb128 0xb
 2061 0203 49       		.uleb128 0x49
 2062 0204 13       		.uleb128 0x13
 2063 0205 02       		.uleb128 0x2
 2064 0206 18       		.uleb128 0x18
 2065 0207 00       		.byte	0
 2066 0208 00       		.byte	0
 2067 0209 2A       		.uleb128 0x2a
 2068 020a 1D       		.uleb128 0x1d
 2069 020b 01       		.byte	0x1
 2070 020c 31       		.uleb128 0x31
 2071 020d 13       		.uleb128 0x13
 2072 020e 11       		.uleb128 0x11
 2073 020f 01       		.uleb128 0x1
 2074 0210 12       		.uleb128 0x12
 2075 0211 06       		.uleb128 0x6
 2076 0212 58       		.uleb128 0x58
 2077 0213 0B       		.uleb128 0xb
 2078 0214 59       		.uleb128 0x59
 2079 0215 0B       		.uleb128 0xb
 2080 0216 00       		.byte	0
 2081 0217 00       		.byte	0
 2082 0218 2B       		.uleb128 0x2b
 2083 0219 34       		.uleb128 0x34
 2084 021a 00       		.byte	0
 2085 021b 31       		.uleb128 0x31
 2086 021c 13       		.uleb128 0x13
 2087 021d 02       		.uleb128 0x2
 2088 021e 18       		.uleb128 0x18
 2089 021f 00       		.byte	0
 2090 0220 00       		.byte	0
 2091 0221 2C       		.uleb128 0x2c
 2092 0222 1D       		.uleb128 0x1d
 2093 0223 01       		.byte	0x1
 2094 0224 31       		.uleb128 0x31
 2095 0225 13       		.uleb128 0x13
 2096 0226 52       		.uleb128 0x52
 2097 0227 01       		.uleb128 0x1
 2098 0228 55       		.uleb128 0x55
 2099 0229 17       		.uleb128 0x17
 2100 022a 58       		.uleb128 0x58
 2101 022b 0B       		.uleb128 0xb
 2102 022c 59       		.uleb128 0x59
 2103 022d 0B       		.uleb128 0xb
 2104 022e 01       		.uleb128 0x1
 2105 022f 13       		.uleb128 0x13
 2106 0230 00       		.byte	0
 2107 0231 00       		.byte	0
 2108 0232 2D       		.uleb128 0x2d
 2109 0233 34       		.uleb128 0x34
ARM GAS  /tmp/ccD6BZAD.s 			page 38


 2110 0234 00       		.byte	0
 2111 0235 31       		.uleb128 0x31
 2112 0236 13       		.uleb128 0x13
 2113 0237 02       		.uleb128 0x2
 2114 0238 17       		.uleb128 0x17
 2115 0239 00       		.byte	0
 2116 023a 00       		.byte	0
 2117 023b 2E       		.uleb128 0x2e
 2118 023c 05       		.uleb128 0x5
 2119 023d 00       		.byte	0
 2120 023e 03       		.uleb128 0x3
 2121 023f 0E       		.uleb128 0xe
 2122 0240 3A       		.uleb128 0x3a
 2123 0241 0B       		.uleb128 0xb
 2124 0242 3B       		.uleb128 0x3b
 2125 0243 0B       		.uleb128 0xb
 2126 0244 49       		.uleb128 0x49
 2127 0245 13       		.uleb128 0x13
 2128 0246 02       		.uleb128 0x2
 2129 0247 18       		.uleb128 0x18
 2130 0248 00       		.byte	0
 2131 0249 00       		.byte	0
 2132 024a 2F       		.uleb128 0x2f
 2133 024b 2E       		.uleb128 0x2e
 2134 024c 01       		.byte	0x1
 2135 024d 31       		.uleb128 0x31
 2136 024e 13       		.uleb128 0x13
 2137 024f 11       		.uleb128 0x11
 2138 0250 01       		.uleb128 0x1
 2139 0251 12       		.uleb128 0x12
 2140 0252 06       		.uleb128 0x6
 2141 0253 40       		.uleb128 0x40
 2142 0254 18       		.uleb128 0x18
 2143 0255 01       		.uleb128 0x1
 2144 0256 13       		.uleb128 0x13
 2145 0257 00       		.byte	0
 2146 0258 00       		.byte	0
 2147 0259 30       		.uleb128 0x30
 2148 025a 2E       		.uleb128 0x2e
 2149 025b 01       		.byte	0x1
 2150 025c 31       		.uleb128 0x31
 2151 025d 13       		.uleb128 0x13
 2152 025e 11       		.uleb128 0x11
 2153 025f 01       		.uleb128 0x1
 2154 0260 12       		.uleb128 0x12
 2155 0261 06       		.uleb128 0x6
 2156 0262 40       		.uleb128 0x40
 2157 0263 18       		.uleb128 0x18
 2158 0264 9742     		.uleb128 0x2117
 2159 0266 19       		.uleb128 0x19
 2160 0267 01       		.uleb128 0x1
 2161 0268 13       		.uleb128 0x13
 2162 0269 00       		.byte	0
 2163 026a 00       		.byte	0
 2164 026b 31       		.uleb128 0x31
 2165 026c 05       		.uleb128 0x5
 2166 026d 00       		.byte	0
ARM GAS  /tmp/ccD6BZAD.s 			page 39


 2167 026e 31       		.uleb128 0x31
 2168 026f 13       		.uleb128 0x13
 2169 0270 02       		.uleb128 0x2
 2170 0271 18       		.uleb128 0x18
 2171 0272 00       		.byte	0
 2172 0273 00       		.byte	0
 2173 0274 32       		.uleb128 0x32
 2174 0275 2E       		.uleb128 0x2e
 2175 0276 01       		.byte	0x1
 2176 0277 31       		.uleb128 0x31
 2177 0278 13       		.uleb128 0x13
 2178 0279 11       		.uleb128 0x11
 2179 027a 01       		.uleb128 0x1
 2180 027b 12       		.uleb128 0x12
 2181 027c 06       		.uleb128 0x6
 2182 027d 40       		.uleb128 0x40
 2183 027e 18       		.uleb128 0x18
 2184 027f 9742     		.uleb128 0x2117
 2185 0281 19       		.uleb128 0x19
 2186 0282 00       		.byte	0
 2187 0283 00       		.byte	0
 2188 0284 00       		.byte	0
 2189              		.section	.debug_loc,"",%progbits
 2190              	.Ldebug_loc0:
 2191              	.LLST9:
 2192 0000 00000000 		.4byte	.LVL15
 2193 0004 0C000000 		.4byte	.LVL17
 2194 0008 0100     		.2byte	0x1
 2195 000a 50       		.byte	0x50
 2196 000b 0C000000 		.4byte	.LVL17
 2197 000f 23000000 		.4byte	.LVL21-1
 2198 0013 0100     		.2byte	0x1
 2199 0015 52       		.byte	0x52
 2200 0016 23000000 		.4byte	.LVL21-1
 2201 001a 2C000000 		.4byte	.LFE10
 2202 001e 0400     		.2byte	0x4
 2203 0020 F3       		.byte	0xf3
 2204 0021 01       		.uleb128 0x1
 2205 0022 50       		.byte	0x50
 2206 0023 9F       		.byte	0x9f
 2207 0024 00000000 		.4byte	0
 2208 0028 00000000 		.4byte	0
 2209              	.LLST10:
 2210 002c 0A000000 		.4byte	.LVL16
 2211 0030 0C000000 		.4byte	.LVL17
 2212 0034 0100     		.2byte	0x1
 2213 0036 50       		.byte	0x50
 2214 0037 0C000000 		.4byte	.LVL17
 2215 003b 12000000 		.4byte	.LVL18
 2216 003f 0100     		.2byte	0x1
 2217 0041 52       		.byte	0x52
 2218 0042 1A000000 		.4byte	.LVL19
 2219 0046 23000000 		.4byte	.LVL21-1
 2220 004a 0100     		.2byte	0x1
 2221 004c 52       		.byte	0x52
 2222 004d 23000000 		.4byte	.LVL21-1
 2223 0051 24000000 		.4byte	.LVL21
ARM GAS  /tmp/ccD6BZAD.s 			page 40


 2224 0055 0400     		.2byte	0x4
 2225 0057 F3       		.byte	0xf3
 2226 0058 01       		.uleb128 0x1
 2227 0059 50       		.byte	0x50
 2228 005a 9F       		.byte	0x9f
 2229 005b 00000000 		.4byte	0
 2230 005f 00000000 		.4byte	0
 2231              	.LLST0:
 2232 0063 00000000 		.4byte	.LVL1
 2233 0067 1C000000 		.4byte	.LVL7
 2234 006b 0100     		.2byte	0x1
 2235 006d 51       		.byte	0x51
 2236 006e 1C000000 		.4byte	.LVL7
 2237 0072 22000000 		.4byte	.LFE8
 2238 0076 0100     		.2byte	0x1
 2239 0078 51       		.byte	0x51
 2240 0079 00000000 		.4byte	0
 2241 007d 00000000 		.4byte	0
 2242              	.LLST1:
 2243 0081 00000000 		.4byte	.LVL1
 2244 0085 04000000 		.4byte	.LVL2
 2245 0089 0100     		.2byte	0x1
 2246 008b 52       		.byte	0x52
 2247 008c 04000000 		.4byte	.LVL2
 2248 0090 1A000000 		.4byte	.LVL6
 2249 0094 0100     		.2byte	0x1
 2250 0096 52       		.byte	0x52
 2251 0097 1A000000 		.4byte	.LVL6
 2252 009b 1C000000 		.4byte	.LVL7
 2253 009f 0300     		.2byte	0x3
 2254 00a1 72       		.byte	0x72
 2255 00a2 01       		.sleb128 1
 2256 00a3 9F       		.byte	0x9f
 2257 00a4 00000000 		.4byte	0
 2258 00a8 00000000 		.4byte	0
 2259              	.LLST2:
 2260 00ac 04000000 		.4byte	.LVL2
 2261 00b0 16000000 		.4byte	.LVL5
 2262 00b4 0100     		.2byte	0x1
 2263 00b6 51       		.byte	0x51
 2264 00b7 00000000 		.4byte	0
 2265 00bb 00000000 		.4byte	0
 2266              	.LLST3:
 2267 00bf 04000000 		.4byte	.LVL2
 2268 00c3 16000000 		.4byte	.LVL5
 2269 00c7 0100     		.2byte	0x1
 2270 00c9 50       		.byte	0x50
 2271 00ca 00000000 		.4byte	0
 2272 00ce 00000000 		.4byte	0
 2273              	.LLST4:
 2274 00d2 0A000000 		.4byte	.LVL3
 2275 00d6 12000000 		.4byte	.LVL4
 2276 00da 0100     		.2byte	0x1
 2277 00dc 51       		.byte	0x51
 2278 00dd 00000000 		.4byte	0
 2279 00e1 00000000 		.4byte	0
 2280              	.LLST5:
ARM GAS  /tmp/ccD6BZAD.s 			page 41


 2281 00e5 0A000000 		.4byte	.LVL3
 2282 00e9 12000000 		.4byte	.LVL4
 2283 00ed 0100     		.2byte	0x1
 2284 00ef 50       		.byte	0x50
 2285 00f0 00000000 		.4byte	0
 2286 00f4 00000000 		.4byte	0
 2287              	.LLST6:
 2288 00f8 0A000000 		.4byte	.LVL3
 2289 00fc 1C000000 		.4byte	.LVL7
 2290 0100 0100     		.2byte	0x1
 2291 0102 51       		.byte	0x51
 2292 0103 1C000000 		.4byte	.LVL7
 2293 0107 20000000 		.4byte	.LVL8
 2294 010b 0200     		.2byte	0x2
 2295 010d 70       		.byte	0x70
 2296 010e 00       		.sleb128 0
 2297 010f 00000000 		.4byte	0
 2298 0113 00000000 		.4byte	0
 2299              	.LLST7:
 2300 0117 00000000 		.4byte	.LVL9
 2301 011b 0A000000 		.4byte	.LVL11
 2302 011f 0100     		.2byte	0x1
 2303 0121 50       		.byte	0x50
 2304 0122 0A000000 		.4byte	.LVL11
 2305 0126 0C000000 		.4byte	.LVL12
 2306 012a 0400     		.2byte	0x4
 2307 012c F3       		.byte	0xf3
 2308 012d 01       		.uleb128 0x1
 2309 012e 50       		.byte	0x50
 2310 012f 9F       		.byte	0x9f
 2311 0130 0C000000 		.4byte	.LVL12
 2312 0134 14000000 		.4byte	.LVL13
 2313 0138 0100     		.2byte	0x1
 2314 013a 50       		.byte	0x50
 2315 013b 14000000 		.4byte	.LVL13
 2316 013f 16000000 		.4byte	.LFE9
 2317 0143 0400     		.2byte	0x4
 2318 0145 F3       		.byte	0xf3
 2319 0146 01       		.uleb128 0x1
 2320 0147 50       		.byte	0x50
 2321 0148 9F       		.byte	0x9f
 2322 0149 00000000 		.4byte	0
 2323 014d 00000000 		.4byte	0
 2324              	.LLST8:
 2325 0151 02000000 		.4byte	.LVL10
 2326 0155 15000000 		.4byte	.LVL14-1
 2327 0159 0100     		.2byte	0x1
 2328 015b 53       		.byte	0x53
 2329 015c 00000000 		.4byte	0
 2330 0160 00000000 		.4byte	0
 2331              	.LLST11:
 2332 0164 06000000 		.4byte	.LVL24
 2333 0168 0E000000 		.4byte	.LVL25
 2334 016c 0100     		.2byte	0x1
 2335 016e 51       		.byte	0x51
 2336 016f 00000000 		.4byte	0
 2337 0173 00000000 		.4byte	0
ARM GAS  /tmp/ccD6BZAD.s 			page 42


 2338              	.LLST12:
 2339 0177 06000000 		.4byte	.LVL24
 2340 017b 0E000000 		.4byte	.LVL25
 2341 017f 0100     		.2byte	0x1
 2342 0181 50       		.byte	0x50
 2343 0182 00000000 		.4byte	0
 2344 0186 00000000 		.4byte	0
 2345              		.section	.debug_aranges,"",%progbits
 2346 0000 44000000 		.4byte	0x44
 2347 0004 0200     		.2byte	0x2
 2348 0006 00000000 		.4byte	.Ldebug_info0
 2349 000a 04       		.byte	0x4
 2350 000b 00       		.byte	0
 2351 000c 0000     		.2byte	0
 2352 000e 0000     		.2byte	0
 2353 0010 00000000 		.4byte	.LFB7
 2354 0014 0A000000 		.4byte	.LFE7-.LFB7
 2355 0018 00000000 		.4byte	.LFB8
 2356 001c 22000000 		.4byte	.LFE8-.LFB8
 2357 0020 00000000 		.4byte	.LFB9
 2358 0024 16000000 		.4byte	.LFE9-.LFB9
 2359 0028 00000000 		.4byte	.LFB10
 2360 002c 2C000000 		.4byte	.LFE10-.LFB10
 2361 0030 00000000 		.4byte	.LFB11
 2362 0034 08000000 		.4byte	.LFE11-.LFB11
 2363 0038 00000000 		.4byte	.LFB12
 2364 003c 14000000 		.4byte	.LFE12-.LFB12
 2365 0040 00000000 		.4byte	0
 2366 0044 00000000 		.4byte	0
 2367              		.section	.debug_ranges,"",%progbits
 2368              	.Ldebug_ranges0:
 2369 0000 0A000000 		.4byte	.LBB18
 2370 0004 0C000000 		.4byte	.LBE18
 2371 0008 0E000000 		.4byte	.LBB22
 2372 000c 12000000 		.4byte	.LBE22
 2373 0010 00000000 		.4byte	0
 2374 0014 00000000 		.4byte	0
 2375 0018 0C000000 		.4byte	.LBB21
 2376 001c 0E000000 		.4byte	.LBE21
 2377 0020 12000000 		.4byte	.LBB23
 2378 0024 16000000 		.4byte	.LBE23
 2379 0028 00000000 		.4byte	0
 2380 002c 00000000 		.4byte	0
 2381 0030 0A000000 		.4byte	.LBB25
 2382 0034 12000000 		.4byte	.LBE25
 2383 0038 1A000000 		.4byte	.LBB29
 2384 003c 24000000 		.4byte	.LBE29
 2385 0040 00000000 		.4byte	0
 2386 0044 00000000 		.4byte	0
 2387 0048 12000000 		.4byte	.LBB28
 2388 004c 18000000 		.4byte	.LBE28
 2389 0050 24000000 		.4byte	.LBB30
 2390 0054 2A000000 		.4byte	.LBE30
 2391 0058 00000000 		.4byte	0
 2392 005c 00000000 		.4byte	0
 2393 0060 06000000 		.4byte	.LBB32
 2394 0064 08000000 		.4byte	.LBE32
ARM GAS  /tmp/ccD6BZAD.s 			page 43


 2395 0068 0A000000 		.4byte	.LBB36
 2396 006c 0E000000 		.4byte	.LBE36
 2397 0070 00000000 		.4byte	0
 2398 0074 00000000 		.4byte	0
 2399 0078 08000000 		.4byte	.LBB35
 2400 007c 0A000000 		.4byte	.LBE35
 2401 0080 0E000000 		.4byte	.LBB37
 2402 0084 14000000 		.4byte	.LBE37
 2403 0088 00000000 		.4byte	0
 2404 008c 00000000 		.4byte	0
 2405 0090 00000000 		.4byte	.LFB7
 2406 0094 0A000000 		.4byte	.LFE7
 2407 0098 00000000 		.4byte	.LFB8
 2408 009c 22000000 		.4byte	.LFE8
 2409 00a0 00000000 		.4byte	.LFB9
 2410 00a4 16000000 		.4byte	.LFE9
 2411 00a8 00000000 		.4byte	.LFB10
 2412 00ac 2C000000 		.4byte	.LFE10
 2413 00b0 00000000 		.4byte	.LFB11
 2414 00b4 08000000 		.4byte	.LFE11
 2415 00b8 00000000 		.4byte	.LFB12
 2416 00bc 14000000 		.4byte	.LFE12
 2417 00c0 00000000 		.4byte	0
 2418 00c4 00000000 		.4byte	0
 2419              		.section	.debug_line,"",%progbits
 2420              	.Ldebug_line0:
 2421 0000 2F020000 		.section	.debug_str,"MS",%progbits,1
 2421      02008401 
 2421      00000201 
 2421      FB0E0D00 
 2421      01010101 
 2422              	.LASF101:
 2423 0000 63665F6F 		.ascii	"cf_off_older\000"
 2423      66665F6F 
 2423      6C646572 
 2423      00
 2424              	.LASF121:
 2425 000d 2F686F6D 		.ascii	"/home/ekobayu/Arok-Gandring-Lokajaya/LPC/ChibiOS-RT"
 2425      652F656B 
 2425      6F626179 
 2425      752F4172 
 2425      6F6B2D47 
 2426 0040 2D4C5043 		.ascii	"-LPC/demos/LPC1766\000"
 2426      2F64656D 
 2426      6F732F4C 
 2426      50433137 
 2426      363600
 2427              	.LASF45:
 2428 0053 705F6D73 		.ascii	"p_msg\000"
 2428      6700
 2429              	.LASF4:
 2430 0059 73697A65 		.ascii	"size_t\000"
 2430      5F7400
 2431              	.LASF62:
 2432 0060 76745F66 		.ascii	"vt_func\000"
 2432      756E6300 
 2433              	.LASF20:
ARM GAS  /tmp/ccD6BZAD.s 			page 44


 2434 0068 75696E74 		.ascii	"uint64_t\000"
 2434      36345F74 
 2434      00
 2435              	.LASF5:
 2436 0071 5F5F7569 		.ascii	"__uint8_t\000"
 2436      6E74385F 
 2436      7400
 2437              	.LASF73:
 2438 007b 76746C69 		.ascii	"vtlist\000"
 2438      737400
 2439              	.LASF118:
 2440 0082 70726F76 		.ascii	"provider\000"
 2440      69646572 
 2440      00
 2441              	.LASF85:
 2442 008b 4D656D6F 		.ascii	"MemoryPool\000"
 2442      7279506F 
 2442      6F6C00
 2443              	.LASF79:
 2444 0096 6D656D67 		.ascii	"memgetfunc_t\000"
 2444      65746675 
 2444      6E635F74 
 2444      00
 2445              	.LASF115:
 2446 00a3 6368506F 		.ascii	"chPoolLoadArray\000"
 2446      6F6C4C6F 
 2446      61644172 
 2446      72617900 
 2447              	.LASF15:
 2448 00b3 6C6F6E67 		.ascii	"long long unsigned int\000"
 2448      206C6F6E 
 2448      6720756E 
 2448      7369676E 
 2448      65642069 
 2449              	.LASF97:
 2450 00ca 63685F74 		.ascii	"ch_threadsize\000"
 2450      68726561 
 2450      6473697A 
 2450      6500
 2451              	.LASF87:
 2452 00d8 65786974 		.ascii	"exitcode\000"
 2452      636F6465 
 2452      00
 2453              	.LASF116:
 2454 00e1 6368506F 		.ascii	"chPoolInit\000"
 2454      6F6C496E 
 2454      697400
 2455              	.LASF33:
 2456 00ec 705F7072 		.ascii	"p_prio\000"
 2456      696F00
 2457              	.LASF104:
 2458 00f3 63665F6F 		.ascii	"cf_off_state\000"
 2458      66665F73 
 2458      74617465 
 2458      00
 2459              	.LASF1:
 2460 0100 6C6F6E67 		.ascii	"long long int\000"
ARM GAS  /tmp/ccD6BZAD.s 			page 45


 2460      206C6F6E 
 2460      6720696E 
 2460      7400
 2461              	.LASF3:
 2462 010e 7369676E 		.ascii	"signed char\000"
 2462      65642063 
 2462      68617200 
 2463              	.LASF103:
 2464 011a 63665F6F 		.ascii	"cf_off_stklimit\000"
 2464      66665F73 
 2464      746B6C69 
 2464      6D697400 
 2465              	.LASF105:
 2466 012a 63665F6F 		.ascii	"cf_off_flags\000"
 2466      66665F66 
 2466      6C616773 
 2466      00
 2467              	.LASF49:
 2468 0137 705F6D70 		.ascii	"p_mpool\000"
 2468      6F6F6C00 
 2469              	.LASF76:
 2470 013f 6D5F7175 		.ascii	"m_queue\000"
 2470      65756500 
 2471              	.LASF25:
 2472 0147 74736C69 		.ascii	"tslices_t\000"
 2472      6365735F 
 2472      7400
 2473              	.LASF11:
 2474 0151 6C6F6E67 		.ascii	"long int\000"
 2474      20696E74 
 2474      00
 2475              	.LASF23:
 2476 015a 74737461 		.ascii	"tstate_t\000"
 2476      74655F74 
 2476      00
 2477              	.LASF82:
 2478 0163 6D705F6E 		.ascii	"mp_next\000"
 2478      65787400 
 2479              	.LASF17:
 2480 016b 75696E74 		.ascii	"uint16_t\000"
 2480      31365F74 
 2480      00
 2481              	.LASF109:
 2482 0174 63686465 		.ascii	"chdebug_t\000"
 2482      6275675F 
 2482      7400
 2483              	.LASF35:
 2484 017e 705F6E65 		.ascii	"p_newer\000"
 2484      77657200 
 2485              	.LASF111:
 2486 0186 5F69646C 		.ascii	"_idle_thread_wa\000"
 2486      655F7468 
 2486      72656164 
 2486      5F776100 
 2487              	.LASF12:
 2488 0196 5F5F7569 		.ascii	"__uint32_t\000"
 2488      6E743332 
ARM GAS  /tmp/ccD6BZAD.s 			page 46


 2488      5F7400
 2489              	.LASF84:
 2490 01a1 6D705F70 		.ascii	"mp_provider\000"
 2490      726F7669 
 2490      64657200 
 2491              	.LASF52:
 2492 01ad 72656761 		.ascii	"regarm_t\000"
 2492      726D5F74 
 2492      00
 2493              	.LASF60:
 2494 01b6 76745F70 		.ascii	"vt_prev\000"
 2494      72657600 
 2495              	.LASF0:
 2496 01be 756E7369 		.ascii	"unsigned int\000"
 2496      676E6564 
 2496      20696E74 
 2496      00
 2497              	.LASF59:
 2498 01cb 76745F6E 		.ascii	"vt_next\000"
 2498      65787400 
 2499              	.LASF13:
 2500 01d3 6C6F6E67 		.ascii	"long unsigned int\000"
 2500      20756E73 
 2500      69676E65 
 2500      6420696E 
 2500      7400
 2501              	.LASF110:
 2502 01e5 63685F64 		.ascii	"ch_debug\000"
 2502      65627567 
 2502      00
 2503              	.LASF57:
 2504 01ee 76746675 		.ascii	"vtfunc_t\000"
 2504      6E635F74 
 2504      00
 2505              	.LASF91:
 2506 01f7 63685F69 		.ascii	"ch_identifier\000"
 2506      64656E74 
 2506      69666965 
 2506      7200
 2507              	.LASF58:
 2508 0205 56697274 		.ascii	"VirtualTimer\000"
 2508      75616C54 
 2508      696D6572 
 2508      00
 2509              	.LASF55:
 2510 0212 636F6E74 		.ascii	"context\000"
 2510      65787400 
 2511              	.LASF117:
 2512 021a 73697A65 		.ascii	"size\000"
 2512      00
 2513              	.LASF9:
 2514 021f 73686F72 		.ascii	"short unsigned int\000"
 2514      7420756E 
 2514      7369676E 
 2514      65642069 
 2514      6E7400
 2515              	.LASF27:
ARM GAS  /tmp/ccD6BZAD.s 			page 47


 2516 0232 6D73675F 		.ascii	"msg_t\000"
 2516      7400
 2517              	.LASF69:
 2518 0238 725F6E65 		.ascii	"r_newer\000"
 2518      77657200 
 2519              	.LASF22:
 2520 0240 746D6F64 		.ascii	"tmode_t\000"
 2520      655F7400 
 2521              	.LASF51:
 2522 0248 54687265 		.ascii	"ThreadsList\000"
 2522      6164734C 
 2522      69737400 
 2523              	.LASF28:
 2524 0254 6576656E 		.ascii	"eventmask_t\000"
 2524      746D6173 
 2524      6B5F7400 
 2525              	.LASF75:
 2526 0260 4D757465 		.ascii	"Mutex\000"
 2526      7800
 2527              	.LASF53:
 2528 0266 73746B61 		.ascii	"stkalign_t\000"
 2528      6C69676E 
 2528      5F7400
 2529              	.LASF92:
 2530 0271 63685F7A 		.ascii	"ch_zero\000"
 2530      65726F00 
 2531              	.LASF106:
 2532 0279 63665F6F 		.ascii	"cf_off_refs\000"
 2532      66665F72 
 2532      65667300 
 2533              	.LASF61:
 2534 0285 76745F74 		.ascii	"vt_time\000"
 2534      696D6500 
 2535              	.LASF119:
 2536 028d 474E5520 		.ascii	"GNU C11 6.3.1 20170620 -mcpu=cortex-m3 -mno-thumb-i"
 2536      43313120 
 2536      362E332E 
 2536      31203230 
 2536      31373036 
 2537 02c0 6E746572 		.ascii	"nterwork -mthumb -ggdb -O2 -fomit-frame-pointer -ff"
 2537      776F726B 
 2537      202D6D74 
 2537      68756D62 
 2537      202D6767 
 2538 02f3 756E6374 		.ascii	"unction-sections -fdata-sections -fno-common\000"
 2538      696F6E2D 
 2538      73656374 
 2538      696F6E73 
 2538      202D6664 
 2539              	.LASF56:
 2540 0320 73697A65 		.ascii	"sizetype\000"
 2540      74797065 
 2540      00
 2541              	.LASF2:
 2542 0329 6C6F6E67 		.ascii	"long double\000"
 2542      20646F75 
 2542      626C6500 
ARM GAS  /tmp/ccD6BZAD.s 			page 48


 2543              	.LASF96:
 2544 0335 63685F74 		.ascii	"ch_timesize\000"
 2544      696D6573 
 2544      697A6500 
 2545              	.LASF123:
 2546 0341 6368506F 		.ascii	"chPoolAllocI\000"
 2546      6F6C416C 
 2546      6C6F6349 
 2546      00
 2547              	.LASF114:
 2548 034e 6368506F 		.ascii	"chPoolFreeI\000"
 2548      6F6C4672 
 2548      65654900 
 2549              	.LASF102:
 2550 035a 63665F6F 		.ascii	"cf_off_name\000"
 2550      66665F6E 
 2550      616D6500 
 2551              	.LASF36:
 2552 0366 705F6F6C 		.ascii	"p_older\000"
 2552      64657200 
 2553              	.LASF68:
 2554 036e 725F6374 		.ascii	"r_ctx\000"
 2554      7800
 2555              	.LASF50:
 2556 0374 54687265 		.ascii	"ThreadsQueue\000"
 2556      61647351 
 2556      75657565 
 2556      00
 2557              	.LASF83:
 2558 0381 6D705F6F 		.ascii	"mp_object_size\000"
 2558      626A6563 
 2558      745F7369 
 2558      7A6500
 2559              	.LASF93:
 2560 0390 63685F73 		.ascii	"ch_size\000"
 2560      697A6500 
 2561              	.LASF71:
 2562 0398 725F6375 		.ascii	"r_current\000"
 2562      7272656E 
 2562      7400
 2563              	.LASF70:
 2564 03a2 725F6F6C 		.ascii	"r_older\000"
 2564      64657200 
 2565              	.LASF14:
 2566 03aa 5F5F7569 		.ascii	"__uint64_t\000"
 2566      6E743634 
 2566      5F7400
 2567              	.LASF81:
 2568 03b5 70685F6E 		.ascii	"ph_next\000"
 2568      65787400 
 2569              	.LASF24:
 2570 03bd 74726566 		.ascii	"trefs_t\000"
 2570      735F7400 
 2571              	.LASF95:
 2572 03c5 63685F70 		.ascii	"ch_ptrsize\000"
 2572      74727369 
 2572      7A6500
ARM GAS  /tmp/ccD6BZAD.s 			page 49


 2573              	.LASF32:
 2574 03d0 705F7072 		.ascii	"p_prev\000"
 2574      657600
 2575              	.LASF26:
 2576 03d7 74707269 		.ascii	"tprio_t\000"
 2576      6F5F7400 
 2577              	.LASF21:
 2578 03df 5F426F6F 		.ascii	"_Bool\000"
 2578      6C00
 2579              	.LASF18:
 2580 03e5 696E7433 		.ascii	"int32_t\000"
 2580      325F7400 
 2581              	.LASF6:
 2582 03ed 756E7369 		.ascii	"unsigned char\000"
 2582      676E6564 
 2582      20636861 
 2582      7200
 2583              	.LASF47:
 2584 03fb 705F6D74 		.ascii	"p_mtxlist\000"
 2584      786C6973 
 2584      7400
 2585              	.LASF7:
 2586 0405 73686F72 		.ascii	"short int\000"
 2586      7420696E 
 2586      7400
 2587              	.LASF38:
 2588 040f 705F7374 		.ascii	"p_state\000"
 2588      61746500 
 2589              	.LASF41:
 2590 0417 705F7072 		.ascii	"p_preempt\000"
 2590      65656D70 
 2590      7400
 2591              	.LASF108:
 2592 0421 63665F6F 		.ascii	"cf_off_time\000"
 2592      66665F74 
 2592      696D6500 
 2593              	.LASF67:
 2594 042d 725F7072 		.ascii	"r_prio\000"
 2594      696F00
 2595              	.LASF89:
 2596 0434 65776D61 		.ascii	"ewmask\000"
 2596      736B00
 2597              	.LASF31:
 2598 043b 705F6E65 		.ascii	"p_next\000"
 2598      787400
 2599              	.LASF107:
 2600 0442 63665F6F 		.ascii	"cf_off_preempt\000"
 2600      66665F70 
 2600      7265656D 
 2600      707400
 2601              	.LASF39:
 2602 0451 705F666C 		.ascii	"p_flags\000"
 2602      61677300 
 2603              	.LASF112:
 2604 0459 6F626A70 		.ascii	"objp\000"
 2604      00
 2605              	.LASF86:
ARM GAS  /tmp/ccD6BZAD.s 			page 50


 2606 045e 7264796D 		.ascii	"rdymsg\000"
 2606      736700
 2607              	.LASF30:
 2608 0465 54687265 		.ascii	"Thread\000"
 2608      616400
 2609              	.LASF100:
 2610 046c 63665F6F 		.ascii	"cf_off_newer\000"
 2610      66665F6E 
 2610      65776572 
 2610      00
 2611              	.LASF46:
 2612 0479 705F6570 		.ascii	"p_epending\000"
 2612      656E6469 
 2612      6E6700
 2613              	.LASF19:
 2614 0484 75696E74 		.ascii	"uint32_t\000"
 2614      33325F74 
 2614      00
 2615              	.LASF98:
 2616 048d 63665F6F 		.ascii	"cf_off_prio\000"
 2616      66665F70 
 2616      72696F00 
 2617              	.LASF66:
 2618 0499 725F7175 		.ascii	"r_queue\000"
 2618      65756500 
 2619              	.LASF120:
 2620 04a1 2E2E2F2E 		.ascii	"../../os/kernel/src/chmempools.c\000"
 2620      2E2F6F73 
 2620      2F6B6572 
 2620      6E656C2F 
 2620      7372632F 
 2621              	.LASF90:
 2622 04c2 63686172 		.ascii	"char\000"
 2622      00
 2623              	.LASF8:
 2624 04c7 5F5F7569 		.ascii	"__uint16_t\000"
 2624      6E743136 
 2624      5F7400
 2625              	.LASF78:
 2626 04d2 6D5F6E65 		.ascii	"m_next\000"
 2626      787400
 2627              	.LASF29:
 2628 04d9 73797374 		.ascii	"systime_t\000"
 2628      696D655F 
 2628      7400
 2629              	.LASF48:
 2630 04e3 705F7265 		.ascii	"p_realprio\000"
 2630      616C7072 
 2630      696F00
 2631              	.LASF10:
 2632 04ee 5F5F696E 		.ascii	"__int32_t\000"
 2632      7433325F 
 2632      7400
 2633              	.LASF42:
 2634 04f8 705F7469 		.ascii	"p_time\000"
 2634      6D6500
 2635              	.LASF54:
ARM GAS  /tmp/ccD6BZAD.s 			page 51


 2636 04ff 696E7463 		.ascii	"intctx\000"
 2636      747800
 2637              	.LASF44:
 2638 0506 705F6D73 		.ascii	"p_msgqueue\000"
 2638      67717565 
 2638      756500
 2639              	.LASF63:
 2640 0511 76745F70 		.ascii	"vt_par\000"
 2640      617200
 2641              	.LASF99:
 2642 0518 63665F6F 		.ascii	"cf_off_ctx\000"
 2642      66665F63 
 2642      747800
 2643              	.LASF80:
 2644 0523 706F6F6C 		.ascii	"pool_header\000"
 2644      5F686561 
 2644      64657200 
 2645              	.LASF40:
 2646 052f 705F7265 		.ascii	"p_refs\000"
 2646      667300
 2647              	.LASF72:
 2648 0536 52656164 		.ascii	"ReadyList\000"
 2648      794C6973 
 2648      7400
 2649              	.LASF74:
 2650 0540 726C6973 		.ascii	"rlist\000"
 2650      7400
 2651              	.LASF16:
 2652 0546 75696E74 		.ascii	"uint8_t\000"
 2652      385F7400 
 2653              	.LASF122:
 2654 054e 6368506F 		.ascii	"chPoolAlloc\000"
 2654      6F6C416C 
 2654      6C6F6300 
 2655              	.LASF113:
 2656 055a 6368506F 		.ascii	"chPoolFree\000"
 2656      6F6C4672 
 2656      656500
 2657              	.LASF88:
 2658 0565 77746F62 		.ascii	"wtobjp\000"
 2658      6A7000
 2659              	.LASF37:
 2660 056c 705F6E61 		.ascii	"p_name\000"
 2660      6D6500
 2661              	.LASF64:
 2662 0573 76745F73 		.ascii	"vt_systime\000"
 2662      79737469 
 2662      6D6500
 2663              	.LASF94:
 2664 057e 63685F76 		.ascii	"ch_version\000"
 2664      65727369 
 2664      6F6E00
 2665              	.LASF65:
 2666 0589 56544C69 		.ascii	"VTList\000"
 2666      737400
 2667              	.LASF77:
 2668 0590 6D5F6F77 		.ascii	"m_owner\000"
ARM GAS  /tmp/ccD6BZAD.s 			page 52


 2668      6E657200 
 2669              	.LASF34:
 2670 0598 705F6374 		.ascii	"p_ctx\000"
 2670      7800
 2671              	.LASF43:
 2672 059e 705F7761 		.ascii	"p_waiting\000"
 2672      6974696E 
 2672      6700
 2673              		.ident	"GCC: (15:6.3.1+svn253039-1build1) 6.3.1 20170620"
ARM GAS  /tmp/ccD6BZAD.s 			page 53


DEFINED SYMBOLS
                            *ABS*:0000000000000000 chmempools.c
     /tmp/ccD6BZAD.s:16     .text.chPoolInit:0000000000000000 $t
     /tmp/ccD6BZAD.s:24     .text.chPoolInit:0000000000000000 chPoolInit
     /tmp/ccD6BZAD.s:46     .text.chPoolLoadArray:0000000000000000 $t
     /tmp/ccD6BZAD.s:54     .text.chPoolLoadArray:0000000000000000 chPoolLoadArray
     /tmp/ccD6BZAD.s:133    .text.chPoolAllocI:0000000000000000 $t
     /tmp/ccD6BZAD.s:141    .text.chPoolAllocI:0000000000000000 chPoolAllocI
     /tmp/ccD6BZAD.s:176    .text.chPoolAlloc:0000000000000000 $t
     /tmp/ccD6BZAD.s:184    .text.chPoolAlloc:0000000000000000 chPoolAlloc
     /tmp/ccD6BZAD.s:264    .text.chPoolFreeI:0000000000000000 $t
     /tmp/ccD6BZAD.s:272    .text.chPoolFreeI:0000000000000000 chPoolFreeI
     /tmp/ccD6BZAD.s:290    .text.chPoolFree:0000000000000000 $t
     /tmp/ccD6BZAD.s:298    .text.chPoolFree:0000000000000000 chPoolFree
                     .debug_frame:0000000000000010 $d

NO UNDEFINED SYMBOLS
