ARM GAS  /tmp/cc2rBQHw.s 			page 1


   1              		.cpu cortex-m3
   2              		.eabi_attribute 20, 1
   3              		.eabi_attribute 21, 1
   4              		.eabi_attribute 23, 3
   5              		.eabi_attribute 24, 1
   6              		.eabi_attribute 25, 1
   7              		.eabi_attribute 26, 1
   8              		.eabi_attribute 30, 2
   9              		.eabi_attribute 34, 1
  10              		.eabi_attribute 18, 4
  11              		.file	"chmemcore.c"
  12              		.text
  13              	.Ltext0:
  14              		.cfi_sections	.debug_frame
  15              		.section	.text._core_init,"ax",%progbits
  16              		.align	1
  17              		.p2align 2,,3
  18              		.global	_core_init
  19              		.syntax unified
  20              		.thumb
  21              		.thumb_func
  22              		.fpu softvfp
  23              		.type	_core_init, %function
  24              	_core_init:
  25              	.LFB7:
  26              		.file 1 "../../os/kernel/src/chmemcore.c"
  27              		.loc 1 59 0
  28              		.cfi_startproc
  29              		@ args = 0, pretend = 0, frame = 0
  30              		@ frame_needed = 0, uses_anonymous_args = 0
  31              		@ link register save eliminated.
  32              		.loc 1 63 0
  33 0000 054A     		ldr	r2, .L2
  34              		.loc 1 64 0
  35 0002 064B     		ldr	r3, .L2+4
  36              		.loc 1 63 0
  37 0004 0648     		ldr	r0, .L2+8
  38              		.loc 1 64 0
  39 0006 0749     		ldr	r1, .L2+12
  40              		.loc 1 63 0
  41 0008 22F00702 		bic	r2, r2, #7
  42              		.loc 1 64 0
  43 000c 23F00703 		bic	r3, r3, #7
  44              		.loc 1 63 0
  45 0010 0260     		str	r2, [r0]
  46              		.loc 1 64 0
  47 0012 0B60     		str	r3, [r1]
  48 0014 7047     		bx	lr
  49              	.L3:
  50 0016 00BF     		.align	2
  51              	.L2:
  52 0018 07000000 		.word	__heap_base__+7
  53 001c 00000000 		.word	__heap_end__
  54 0020 00000000 		.word	.LANCHOR0
  55 0024 00000000 		.word	.LANCHOR1
  56              		.cfi_endproc
  57              	.LFE7:
ARM GAS  /tmp/cc2rBQHw.s 			page 2


  58              		.size	_core_init, .-_core_init
  59              		.section	.text.chCoreAlloc,"ax",%progbits
  60              		.align	1
  61              		.p2align 2,,3
  62              		.global	chCoreAlloc
  63              		.syntax unified
  64              		.thumb
  65              		.thumb_func
  66              		.fpu softvfp
  67              		.type	chCoreAlloc, %function
  68              	chCoreAlloc:
  69              	.LFB8:
  70              		.loc 1 84 0
  71              		.cfi_startproc
  72              		@ args = 0, pretend = 0, frame = 0
  73              		@ frame_needed = 0, uses_anonymous_args = 0
  74              		@ link register save eliminated.
  75              	.LVL0:
  76 0000 10B4     		push	{r4}
  77              		.cfi_def_cfa_offset 4
  78              		.cfi_offset 4, -4
  79              	.LBB6:
  80              		.loc 1 87 0
  81 0002 4023     		movs	r3, #64
  82              		.syntax unified
  83              	@ 87 "../../os/kernel/src/chmemcore.c" 1
  84 0004 83F31188 		msr     BASEPRI, r3
  85              	@ 0 "" 2
  86              	.LVL1:
  87              		.thumb
  88              		.syntax unified
  89              	.LBE6:
  90              	.LBB7:
  91              	.LBB8:
  92              		.loc 1 111 0
  93 0008 094C     		ldr	r4, .L9
  94 000a 0A4B     		ldr	r3, .L9+4
  95 000c 2268     		ldr	r2, [r4]
  96 000e 1968     		ldr	r1, [r3]
  97              		.loc 1 110 0
  98 0010 C31D     		adds	r3, r0, #7
  99 0012 23F00703 		bic	r3, r3, #7
 100              	.LVL2:
 101              		.loc 1 111 0
 102 0016 891A     		subs	r1, r1, r2
 103 0018 8B42     		cmp	r3, r1
 104              	.LVL3:
 105              		.loc 1 114 0
 106 001a 9DBF     		ittte	ls
 107 001c 9B18     		addls	r3, r3, r2
 108              	.LVL4:
 109 001e 2360     		strls	r3, [r4]
 110              		.loc 1 115 0
 111 0020 1046     		movls	r0, r2
 112              	.LVL5:
 113              		.loc 1 112 0
 114 0022 0020     		movhi	r0, #0
ARM GAS  /tmp/cc2rBQHw.s 			page 3


 115              	.LVL6:
 116              	.LBE8:
 117              	.LBE7:
 118              	.LBB9:
 119              		.loc 1 89 0
 120 0024 0023     		movs	r3, #0
 121              		.syntax unified
 122              	@ 89 "../../os/kernel/src/chmemcore.c" 1
 123 0026 83F31188 		msr     BASEPRI, r3
 124              	@ 0 "" 2
 125              		.thumb
 126              		.syntax unified
 127              	.LBE9:
 128              		.loc 1 91 0
 129 002a 10BC     		pop	{r4}
 130              		.cfi_restore 4
 131              		.cfi_def_cfa_offset 0
 132 002c 7047     		bx	lr
 133              	.L10:
 134 002e 00BF     		.align	2
 135              	.L9:
 136 0030 00000000 		.word	.LANCHOR0
 137 0034 00000000 		.word	.LANCHOR1
 138              		.cfi_endproc
 139              	.LFE8:
 140              		.size	chCoreAlloc, .-chCoreAlloc
 141              		.section	.text.chCoreAllocI,"ax",%progbits
 142              		.align	1
 143              		.p2align 2,,3
 144              		.global	chCoreAllocI
 145              		.syntax unified
 146              		.thumb
 147              		.thumb_func
 148              		.fpu softvfp
 149              		.type	chCoreAllocI, %function
 150              	chCoreAllocI:
 151              	.LFB9:
 152              		.loc 1 105 0
 153              		.cfi_startproc
 154              		@ args = 0, pretend = 0, frame = 0
 155              		@ frame_needed = 0, uses_anonymous_args = 0
 156              		@ link register save eliminated.
 157              	.LVL7:
 158 0000 10B4     		push	{r4}
 159              		.cfi_def_cfa_offset 4
 160              		.cfi_offset 4, -4
 161              		.loc 1 111 0
 162 0002 084B     		ldr	r3, .L15
 163 0004 084C     		ldr	r4, .L15+4
 164 0006 1968     		ldr	r1, [r3]
 165 0008 2268     		ldr	r2, [r4]
 166              		.loc 1 110 0
 167 000a C31D     		adds	r3, r0, #7
 168 000c 23F00703 		bic	r3, r3, #7
 169              	.LVL8:
 170              		.loc 1 111 0
 171 0010 891A     		subs	r1, r1, r2
ARM GAS  /tmp/cc2rBQHw.s 			page 4


 172 0012 8B42     		cmp	r3, r1
 173              	.LVL9:
 174              		.loc 1 114 0
 175 0014 9DBF     		ittte	ls
 176 0016 9B18     		addls	r3, r3, r2
 177              	.LVL10:
 178 0018 2360     		strls	r3, [r4]
 179              		.loc 1 115 0
 180 001a 1046     		movls	r0, r2
 181              	.LVL11:
 182              		.loc 1 112 0
 183 001c 0020     		movhi	r0, #0
 184              		.loc 1 116 0
 185 001e 10BC     		pop	{r4}
 186              		.cfi_restore 4
 187              		.cfi_def_cfa_offset 0
 188 0020 7047     		bx	lr
 189              	.L16:
 190 0022 00BF     		.align	2
 191              	.L15:
 192 0024 00000000 		.word	.LANCHOR1
 193 0028 00000000 		.word	.LANCHOR0
 194              		.cfi_endproc
 195              	.LFE9:
 196              		.size	chCoreAllocI, .-chCoreAllocI
 197              		.section	.text.chCoreStatus,"ax",%progbits
 198              		.align	1
 199              		.p2align 2,,3
 200              		.global	chCoreStatus
 201              		.syntax unified
 202              		.thumb
 203              		.thumb_func
 204              		.fpu softvfp
 205              		.type	chCoreStatus, %function
 206              	chCoreStatus:
 207              	.LFB10:
 208              		.loc 1 125 0
 209              		.cfi_startproc
 210              		@ args = 0, pretend = 0, frame = 0
 211              		@ frame_needed = 0, uses_anonymous_args = 0
 212              		@ link register save eliminated.
 213              		.loc 1 127 0
 214 0000 024A     		ldr	r2, .L18
 215 0002 034B     		ldr	r3, .L18+4
 216 0004 1068     		ldr	r0, [r2]
 217 0006 1B68     		ldr	r3, [r3]
 218              		.loc 1 128 0
 219 0008 C01A     		subs	r0, r0, r3
 220 000a 7047     		bx	lr
 221              	.L19:
 222              		.align	2
 223              	.L18:
 224 000c 00000000 		.word	.LANCHOR1
 225 0010 00000000 		.word	.LANCHOR0
 226              		.cfi_endproc
 227              	.LFE10:
 228              		.size	chCoreStatus, .-chCoreStatus
ARM GAS  /tmp/cc2rBQHw.s 			page 5


 229              		.section	.bss.endmem,"aw",%nobits
 230              		.align	2
 231              		.set	.LANCHOR1,. + 0
 232              		.type	endmem, %object
 233              		.size	endmem, 4
 234              	endmem:
 235 0000 00000000 		.space	4
 236              		.section	.bss.nextmem,"aw",%nobits
 237              		.align	2
 238              		.set	.LANCHOR0,. + 0
 239              		.type	nextmem, %object
 240              		.size	nextmem, 4
 241              	nextmem:
 242 0000 00000000 		.space	4
 243              		.text
 244              	.Letext0:
 245              		.file 2 "/usr/lib/gcc/arm-none-eabi/6.3.1/include/stddef.h"
 246              		.file 3 "/usr/include/newlib/machine/_default_types.h"
 247              		.file 4 "/usr/include/newlib/sys/_stdint.h"
 248              		.file 5 "../../os/ports/GCC/ARMCMx/chtypes.h"
 249              		.file 6 "../../os/kernel/include/chlists.h"
 250              		.file 7 "../../os/kernel/include/chthreads.h"
 251              		.file 8 "../../os/ports/GCC/ARMCMx/chcore_v7m.h"
 252              		.file 9 "../../os/kernel/include/chvt.h"
 253              		.file 10 "../../os/kernel/include/chschd.h"
 254              		.file 11 "../../os/kernel/include/chmtx.h"
 255              		.file 12 "../../os/kernel/include/chregistry.h"
 256              		.file 13 "../../os/kernel/include/ch.h"