ARM GAS  /tmp/ccD6BZAD.s 			page 1


   1              		.cpu cortex-m3
   2              		.eabi_attribute 20, 1
   3              		.eabi_attribute 21, 1
   4              		.eabi_attribute 23, 3
   5              		.eabi_attribute 24, 1
   6              		.eabi_attribute 25, 1
   7              		.eabi_attribute 26, 1
   8              		.eabi_attribute 30, 2
   9              		.eabi_attribute 34, 1
  10              		.eabi_attribute 18, 4
  11              		.file	"chmempools.c"
  12              		.text
  13              	.Ltext0:
  14              		.cfi_sections	.debug_frame
  15              		.section	.text.chPoolInit,"ax",%progbits
  16              		.align	1
  17              		.p2align 2,,3
  18              		.global	chPoolInit
  19              		.syntax unified
  20              		.thumb
  21              		.thumb_func
  22              		.fpu softvfp
  23              		.type	chPoolInit, %function
  24              	chPoolInit:
  25              	.LFB7:
  26              		.file 1 "../../os/kernel/src/chmempools.c"
  27              		.loc 1 55 0
  28              		.cfi_startproc
  29              		@ args = 0, pretend = 0, frame = 0
  30              		@ frame_needed = 0, uses_anonymous_args = 0
  31              		@ link register save eliminated.
  32              	.LVL0:
  33              		.loc 1 59 0
  34 0000 0023     		movs	r3, #0
  35              		.loc 1 60 0
  36 0002 4160     		str	r1, [r0, #4]
  37              		.loc 1 61 0
  38 0004 8260     		str	r2, [r0, #8]
  39              		.loc 1 59 0
  40 0006 0360     		str	r3, [r0]
  41 0008 7047     		bx	lr
  42              		.cfi_endproc
  43              	.LFE7:
  44              		.size	chPoolInit, .-chPoolInit
  45 000a 00BF     		.section	.text.chPoolLoadArray,"ax",%progbits
  46              		.align	1
  47              		.p2align 2,,3
  48              		.global	chPoolLoadArray
  49              		.syntax unified
  50              		.thumb
  51              		.thumb_func
  52              		.fpu softvfp
  53              		.type	chPoolLoadArray, %function
  54              	chPoolLoadArray:
  55              	.LFB8:
  56              		.loc 1 77 0
  57              		.cfi_startproc
ARM GAS  /tmp/ccD6BZAD.s 			page 2


  58              		@ args = 0, pretend = 0, frame = 0
  59              		@ frame_needed = 0, uses_anonymous_args = 0
  60              		@ link register save eliminated.
  61              	.LVL1:
  62              		.loc 1 81 0
  63 0000 72B1     		cbz	r2, .L10
  64              		.loc 1 77 0
  65 0002 10B4     		push	{r4}
  66              		.cfi_def_cfa_offset 4
  67              		.cfi_offset 4, -4
  68              	.LVL2:
  69              	.L4:
  70              	.LBB16:
  71              	.LBB17:
  72              		.loc 1 166 0
  73 0004 4023     		movs	r3, #64
  74              		.syntax unified
  75              	@ 166 "../../os/kernel/src/chmempools.c" 1
  76 0006 83F31188 		msr     BASEPRI, r3
  77              	@ 0 "" 2
  78              	.LVL3:
  79              		.thumb
  80              		.syntax unified
  81              	.LBE17:
  82              	.LBB18:
  83              	.LBB19:
  84              		.loc 1 148 0
  85 000a 0468     		ldr	r4, [r0]
  86              	.LBE19:
  87              	.LBE18:
  88              	.LBB21:
  89              		.loc 1 168 0
  90 000c 0023     		movs	r3, #0
  91              	.LBE21:
  92              	.LBB22:
  93              	.LBB20:
  94              		.loc 1 148 0
  95 000e 0C60     		str	r4, [r1]
  96              		.loc 1 149 0
  97 0010 0160     		str	r1, [r0]
  98              	.LVL4:
  99              	.LBE20:
 100              	.LBE22:
 101              	.LBB23:
 102              		.loc 1 168 0
 103              		.syntax unified
 104              	@ 168 "../../os/kernel/src/chmempools.c" 1
 105 0012 83F31188 		msr     BASEPRI, r3
 106              	@ 0 "" 2
 107              	.LVL5:
 108              		.thumb
 109              		.syntax unified
 110              	.LBE23:
 111              	.LBE16:
 112              		.loc 1 83 0
 113 0016 4368     		ldr	r3, [r0, #4]
 114              		.loc 1 81 0
ARM GAS  /tmp/ccD6BZAD.s 			page 3


 115 0018 013A     		subs	r2, r2, #1
 116              	.LVL6:
 117              		.loc 1 83 0
 118 001a 1944     		add	r1, r1, r3
 119              	.LVL7:
 120              		.loc 1 81 0
 121 001c F2D1     		bne	.L4
 122              		.loc 1 86 0
 123 001e 10BC     		pop	{r4}
 124              		.cfi_restore 4
 125              		.cfi_def_cfa_offset 0
 126              	.LVL8:
 127              	.L10:
 128 0020 7047     		bx	lr
 129              		.cfi_endproc
 130              	.LFE8:
 131              		.size	chPoolLoadArray, .-chPoolLoadArray
 132 0022 00BF     		.section	.text.chPoolAllocI,"ax",%progbits
 133              		.align	1
 134              		.p2align 2,,3
 135              		.global	chPoolAllocI
 136              		.syntax unified
 137              		.thumb
 138              		.thumb_func
 139              		.fpu softvfp
 140              		.type	chPoolAllocI, %function
 141              	chPoolAllocI:
 142              	.LFB9:
 143              		.loc 1 98 0
 144              		.cfi_startproc
 145              		@ args = 0, pretend = 0, frame = 0
 146              		@ frame_needed = 0, uses_anonymous_args = 0
 147              		@ link register save eliminated.
 148              	.LVL9:
 149              		.loc 1 104 0
 150 0000 0368     		ldr	r3, [r0]
 151              	.LVL10:
 152 0002 1BB1     		cbz	r3, .L14
 153              		.loc 1 105 0
 154 0004 1A68     		ldr	r2, [r3]
 155 0006 0260     		str	r2, [r0]
 156              	.L13:
 157              		.loc 1 109 0
 158 0008 1846     		mov	r0, r3
 159              	.LVL11:
 160 000a 7047     		bx	lr
 161              	.LVL12:
 162              	.L14:
 163              		.loc 1 106 0
 164 000c 8268     		ldr	r2, [r0, #8]
 165 000e 002A     		cmp	r2, #0
 166 0010 FAD0     		beq	.L13
 167              		.loc 1 107 0
 168 0012 4068     		ldr	r0, [r0, #4]
 169              	.LVL13:
 170 0014 1047     		bx	r2
 171              	.LVL14:
ARM GAS  /tmp/ccD6BZAD.s 			page 4


 172              		.cfi_endproc
 173              	.LFE9:
 174              		.size	chPoolAllocI, .-chPoolAllocI
 175 0016 00BF     		.section	.text.chPoolAlloc,"ax",%progbits
 176              		.align	1
 177              		.p2align 2,,3
 178              		.global	chPoolAlloc
 179              		.syntax unified
 180              		.thumb
 181              		.thumb_func
 182              		.fpu softvfp
 183              		.type	chPoolAlloc, %function
 184              	chPoolAlloc:
 185              	.LFB10:
 186              		.loc 1 121 0
 187              		.cfi_startproc
 188              		@ args = 0, pretend = 0, frame = 0
 189              		@ frame_needed = 0, uses_anonymous_args = 0
 190              	.LVL15:
 191 0000 08B5     		push	{r3, lr}
 192              		.cfi_def_cfa_offset 8
 193              		.cfi_offset 3, -8
 194              		.cfi_offset 14, -4
 195              		.loc 1 121 0
 196 0002 0246     		mov	r2, r0
 197              	.LBB24:
 198              		.loc 1 124 0
 199 0004 4023     		movs	r3, #64
 200              		.syntax unified
 201              	@ 124 "../../os/kernel/src/chmempools.c" 1
 202 0006 83F31188 		msr     BASEPRI, r3
 203              	@ 0 "" 2
 204              	.LVL16:
 205              		.thumb
 206              		.syntax unified
 207              	.LBE24:
 208              	.LBB25:
 209              	.LBB26:
 210              		.loc 1 104 0
 211 000a 0068     		ldr	r0, [r0]
 212              	.LVL17:
 213 000c 28B1     		cbz	r0, .L20
 214              		.loc 1 105 0
 215 000e 0368     		ldr	r3, [r0]
 216 0010 1360     		str	r3, [r2]
 217              	.L21:
 218              	.LVL18:
 219              	.LBE26:
 220              	.LBE25:
 221              	.LBB28:
 222              		.loc 1 126 0
 223 0012 0023     		movs	r3, #0
 224              		.syntax unified
 225              	@ 126 "../../os/kernel/src/chmempools.c" 1
 226 0014 83F31188 		msr     BASEPRI, r3
 227              	@ 0 "" 2
 228              		.thumb
ARM GAS  /tmp/ccD6BZAD.s 			page 5


 229              		.syntax unified
 230              	.LBE28:
 231              		.loc 1 128 0
 232 0018 08BD     		pop	{r3, pc}
 233              	.LVL19:
 234              	.L20:
 235              	.LBB29:
 236              	.LBB27:
 237              		.loc 1 106 0
 238 001a 9368     		ldr	r3, [r2, #8]
 239 001c 002B     		cmp	r3, #0
 240 001e F8D0     		beq	.L21
 241              		.loc 1 107 0
 242 0020 5068     		ldr	r0, [r2, #4]
 243              	.LVL20:
 244 0022 9847     		blx	r3
 245              	.LVL21:
 246              	.LBE27:
 247              	.LBE29:
 248              	.LBB30:
 249              		.loc 1 126 0
 250 0024 0023     		movs	r3, #0
 251              		.syntax unified
 252              	@ 126 "../../os/kernel/src/chmempools.c" 1
 253 0026 83F31188 		msr     BASEPRI, r3
 254              	@ 0 "" 2
 255              		.thumb
 256              		.syntax unified
 257              	.LBE30:
 258              		.loc 1 128 0
 259 002a 08BD     		pop	{r3, pc}
 260              		.cfi_endproc
 261              	.LFE10:
 262              		.size	chPoolAlloc, .-chPoolAlloc
 263              		.section	.text.chPoolFreeI,"ax",%progbits
 264              		.align	1
 265              		.p2align 2,,3
 266              		.global	chPoolFreeI
 267              		.syntax unified
 268              		.thumb
 269              		.thumb_func
 270              		.fpu softvfp
 271              		.type	chPoolFreeI, %function
 272              	chPoolFreeI:
 273              	.LFB11:
 274              		.loc 1 142 0
 275              		.cfi_startproc
 276              		@ args = 0, pretend = 0, frame = 0
 277              		@ frame_needed = 0, uses_anonymous_args = 0
 278              		@ link register save eliminated.
 279              	.LVL22:
 280              		.loc 1 148 0
 281 0000 0368     		ldr	r3, [r0]
 282 0002 0B60     		str	r3, [r1]
 283              		.loc 1 149 0
 284 0004 0160     		str	r1, [r0]
 285 0006 7047     		bx	lr
ARM GAS  /tmp/ccD6BZAD.s 			page 6


 286              		.cfi_endproc
 287              	.LFE11:
 288              		.size	chPoolFreeI, .-chPoolFreeI
 289              		.section	.text.chPoolFree,"ax",%progbits
 290              		.align	1
 291              		.p2align 2,,3
 292              		.global	chPoolFree
 293              		.syntax unified
 294              		.thumb
 295              		.thumb_func
 296              		.fpu softvfp
 297              		.type	chPoolFree, %function
 298              	chPoolFree:
 299              	.LFB12:
 300              		.loc 1 164 0
 301              		.cfi_startproc
 302              		@ args = 0, pretend = 0, frame = 0
 303              		@ frame_needed = 0, uses_anonymous_args = 0
 304              		@ link register save eliminated.
 305              	.LVL23:
 306              	.LBB31:
 307              		.loc 1 166 0
 308 0000 4023     		movs	r3, #64
 309              		.syntax unified
 310              	@ 166 "../../os/kernel/src/chmempools.c" 1
 311 0002 83F31188 		msr     BASEPRI, r3
 312              	@ 0 "" 2
 313              	.LVL24:
 314              		.thumb
 315              		.syntax unified
 316              	.LBE31:
 317              	.LBB32:
 318              	.LBB33:
 319              		.loc 1 148 0
 320 0006 0268     		ldr	r2, [r0]
 321              	.LBE33:
 322              	.LBE32:
 323              	.LBB35:
 324              		.loc 1 168 0
 325 0008 0023     		movs	r3, #0
 326              	.LBE35:
 327              	.LBB36:
 328              	.LBB34:
 329              		.loc 1 148 0
 330 000a 0A60     		str	r2, [r1]
 331              		.loc 1 149 0
 332 000c 0160     		str	r1, [r0]
 333              	.LVL25:
 334              	.LBE34:
 335              	.LBE36:
 336              	.LBB37:
 337              		.loc 1 168 0
 338              		.syntax unified
 339              	@ 168 "../../os/kernel/src/chmempools.c" 1
 340 000e 83F31188 		msr     BASEPRI, r3
 341              	@ 0 "" 2
 342              		.thumb
ARM GAS  /tmp/ccD6BZAD.s 			page 7


 343              		.syntax unified
 344 0012 7047     		bx	lr
 345              	.LBE37:
 346              		.cfi_endproc
 347              	.LFE12:
 348              		.size	chPoolFree, .-chPoolFree
 349              		.text
 350              	.Letext0:
 351              		.file 2 "/usr/lib/gcc/arm-none-eabi/6.3.1/include/stddef.h"
 352              		.file 3 "/usr/include/newlib/machine/_default_types.h"
 353              		.file 4 "/usr/include/newlib/sys/_stdint.h"
 354              		.file 5 "../../os/ports/GCC/ARMCMx/chtypes.h"
 355              		.file 6 "../../os/kernel/include/chlists.h"
 356              		.file 7 "../../os/kernel/include/chthreads.h"
 357              		.file 8 "../../os/ports/GCC/ARMCMx/chcore_v7m.h"
 358              		.file 9 "../../os/kernel/include/chvt.h"
 359              		.file 10 "../../os/kernel/include/chschd.h"
 360              		.file 11 "../../os/kernel/include/chmtx.h"
 361              		.file 12 "../../os/kernel/include/chmemcore.h"
 362              		.file 13 "../../os/kernel/include/chmempools.h"
 363              		.file 14 "../../os/kernel/include/chregistry.h"
 364              		.file 15 "../../os/kernel/include/ch.h"