ARM GAS  /tmp/ccL45xPJ.s 			page 1


   1              		.cpu cortex-m3
   2              		.eabi_attribute 20, 1
   3              		.eabi_attribute 21, 1
   4              		.eabi_attribute 23, 3
   5              		.eabi_attribute 24, 1
   6              		.eabi_attribute 25, 1
   7              		.eabi_attribute 26, 1
   8              		.eabi_attribute 30, 2
   9              		.eabi_attribute 34, 1
  10              		.eabi_attribute 18, 4
  11              		.file	"chmsg.c"
  12              		.text
  13              	.Ltext0:
  14              		.cfi_sections	.debug_frame
  15              		.section	.text.chMsgSend,"ax",%progbits
  16              		.align	1
  17              		.p2align 2,,3
  18              		.global	chMsgSend
  19              		.syntax unified
  20              		.thumb
  21              		.thumb_func
  22              		.fpu softvfp
  23              		.type	chMsgSend, %function
  24              	chMsgSend:
  25              	.LFB7:
  26              		.file 1 "../../os/kernel/src/chmsg.c"
  27              		.loc 1 68 0
  28              		.cfi_startproc
  29              		@ args = 0, pretend = 0, frame = 0
  30              		@ frame_needed = 0, uses_anonymous_args = 0
  31              	.LVL0:
  32 0000 38B5     		push	{r3, r4, r5, lr}
  33              		.cfi_def_cfa_offset 16
  34              		.cfi_offset 3, -16
  35              		.cfi_offset 4, -12
  36              		.cfi_offset 5, -8
  37              		.cfi_offset 14, -4
  38              		.loc 1 69 0
  39 0002 0E4B     		ldr	r3, .L6
  40 0004 9C69     		ldr	r4, [r3, #24]
  41              	.LVL1:
  42              	.LBB10:
  43              		.loc 1 73 0
  44 0006 4023     		movs	r3, #64
  45              		.syntax unified
  46              	@ 73 "../../os/kernel/src/chmsg.c" 1
  47 0008 83F31188 		msr     BASEPRI, r3
  48              	@ 0 "" 2
  49              		.thumb
  50              		.syntax unified
  51              	.LBE10:
  52              		.loc 1 75 0
  53 000c 00F12C05 		add	r5, r0, #44
  54 0010 6562     		str	r5, [r4, #36]
  55              	.LVL2:
  56              	.LBB11:
  57              	.LBB12:
ARM GAS  /tmp/ccL45xPJ.s 			page 2


  58              		.file 2 "../../os/kernel/include/chinline.h"
  59              		.loc 2 48 0
  60 0012 036B     		ldr	r3, [r0, #48]
  61              	.LBE12:
  62              	.LBE11:
  63              		.loc 1 74 0
  64 0014 6163     		str	r1, [r4, #52]
  65              	.LBB14:
  66              	.LBB13:
  67              		.loc 2 47 0
  68 0016 2560     		str	r5, [r4]
  69              		.loc 2 48 0
  70 0018 6360     		str	r3, [r4, #4]
  71              		.loc 2 49 0
  72 001a 0463     		str	r4, [r0, #48]
  73 001c 1C60     		str	r4, [r3]
  74              	.LVL3:
  75              	.LBE13:
  76              	.LBE14:
  77              		.loc 1 77 0
  78 001e 037F     		ldrb	r3, [r0, #28]	@ zero_extendqisi2
  79 0020 0C2B     		cmp	r3, #12
  80 0022 07D0     		beq	.L5
  81              	.LVL4:
  82              	.L2:
  83              		.loc 1 79 0
  84 0024 0A20     		movs	r0, #10
  85 0026 FFF7FEFF 		bl	chSchGoSleepS
  86              	.LVL5:
  87              		.loc 1 80 0
  88 002a 606A     		ldr	r0, [r4, #36]
  89              	.LVL6:
  90              	.LBB15:
  91              		.loc 1 81 0
  92 002c 0023     		movs	r3, #0
  93              		.syntax unified
  94              	@ 81 "../../os/kernel/src/chmsg.c" 1
  95 002e 83F31188 		msr     BASEPRI, r3
  96              	@ 0 "" 2
  97              		.thumb
  98              		.syntax unified
  99              	.LBE15:
 100              		.loc 1 83 0
 101 0032 38BD     		pop	{r3, r4, r5, pc}
 102              	.LVL7:
 103              	.L5:
 104              		.loc 1 78 0
 105 0034 FFF7FEFF 		bl	chSchReadyI
 106              	.LVL8:
 107 0038 F4E7     		b	.L2
 108              	.L7:
 109 003a 00BF     		.align	2
 110              	.L6:
 111 003c 00000000 		.word	rlist
 112              		.cfi_endproc
 113              	.LFE7:
 114              		.size	chMsgSend, .-chMsgSend
ARM GAS  /tmp/ccL45xPJ.s 			page 3


 115              		.section	.text.chMsgWait,"ax",%progbits
 116              		.align	1
 117              		.p2align 2,,3
 118              		.global	chMsgWait
 119              		.syntax unified
 120              		.thumb
 121              		.thumb_func
 122              		.fpu softvfp
 123              		.type	chMsgWait, %function
 124              	chMsgWait:
 125              	.LFB8:
 126              		.loc 1 99 0
 127              		.cfi_startproc
 128              		@ args = 0, pretend = 0, frame = 0
 129              		@ frame_needed = 0, uses_anonymous_args = 0
 130 0000 38B5     		push	{r3, r4, r5, lr}
 131              		.cfi_def_cfa_offset 16
 132              		.cfi_offset 3, -16
 133              		.cfi_offset 4, -12
 134              		.cfi_offset 5, -8
 135              		.cfi_offset 14, -4
 136              	.LBB16:
 137              		.loc 1 102 0
 138 0002 4023     		movs	r3, #64
 139              		.syntax unified
 140              	@ 102 "../../os/kernel/src/chmsg.c" 1
 141 0004 83F31188 		msr     BASEPRI, r3
 142              	@ 0 "" 2
 143              		.thumb
 144              		.syntax unified
 145              	.LBE16:
 146              		.loc 1 103 0
 147 0008 0B4C     		ldr	r4, .L12
 148 000a A169     		ldr	r1, [r4, #24]
 149 000c 0A46     		mov	r2, r1
 150 000e 52F82C0F 		ldr	r0, [r2, #44]!
 151 0012 9042     		cmp	r0, r2
 152 0014 08D0     		beq	.L11
 153              	.L9:
 154              	.LVL9:
 155              		.loc 1 106 0
 156 0016 0B25     		movs	r5, #11
 157              	.LBB17:
 158              	.LBB18:
 159              		.loc 2 55 0
 160 0018 0468     		ldr	r4, [r0]
 161              	.LBE18:
 162              	.LBE17:
 163              	.LBB20:
 164              		.loc 1 107 0
 165 001a 0023     		movs	r3, #0
 166              	.LBE20:
 167              	.LBB21:
 168              	.LBB19:
 169              		.loc 2 55 0
 170 001c CC62     		str	r4, [r1, #44]
 171              	.LVL10:
ARM GAS  /tmp/ccL45xPJ.s 			page 4


 172 001e 6260     		str	r2, [r4, #4]
 173              	.LVL11:
 174              	.LBE19:
 175              	.LBE21:
 176              		.loc 1 106 0
 177 0020 0577     		strb	r5, [r0, #28]
 178              	.LBB22:
 179              		.loc 1 107 0
 180              		.syntax unified
 181              	@ 107 "../../os/kernel/src/chmsg.c" 1
 182 0022 83F31188 		msr     BASEPRI, r3
 183              	@ 0 "" 2
 184              		.thumb
 185              		.syntax unified
 186              	.LBE22:
 187              		.loc 1 109 0
 188 0026 38BD     		pop	{r3, r4, r5, pc}
 189              	.L11:
 190              		.loc 1 104 0
 191 0028 0C20     		movs	r0, #12
 192 002a FFF7FEFF 		bl	chSchGoSleepS
 193              	.LVL12:
 194 002e A169     		ldr	r1, [r4, #24]
 195 0030 C86A     		ldr	r0, [r1, #44]
 196 0032 01F12C02 		add	r2, r1, #44
 197 0036 EEE7     		b	.L9
 198              	.L13:
 199              		.align	2
 200              	.L12:
 201 0038 00000000 		.word	rlist
 202              		.cfi_endproc
 203              	.LFE8:
 204              		.size	chMsgWait, .-chMsgWait
 205              		.section	.text.chMsgRelease,"ax",%progbits
 206              		.align	1
 207              		.p2align 2,,3
 208              		.global	chMsgRelease
 209              		.syntax unified
 210              		.thumb
 211              		.thumb_func
 212              		.fpu softvfp
 213              		.type	chMsgRelease, %function
 214              	chMsgRelease:
 215              	.LFB9:
 216              		.loc 1 121 0
 217              		.cfi_startproc
 218              		@ args = 0, pretend = 0, frame = 0
 219              		@ frame_needed = 0, uses_anonymous_args = 0
 220              	.LVL13:
 221 0000 08B5     		push	{r3, lr}
 222              		.cfi_def_cfa_offset 8
 223              		.cfi_offset 3, -8
 224              		.cfi_offset 14, -4
 225              	.LBB23:
 226              		.loc 1 123 0
 227 0002 4023     		movs	r3, #64
 228              		.syntax unified
ARM GAS  /tmp/ccL45xPJ.s 			page 5


 229              	@ 123 "../../os/kernel/src/chmsg.c" 1
 230 0004 83F31188 		msr     BASEPRI, r3
 231              	@ 0 "" 2
 232              		.thumb
 233              		.syntax unified
 234              	.LBE23:
 235              		.loc 1 126 0
 236 0008 FFF7FEFF 		bl	chSchWakeupS
 237              	.LVL14:
 238              	.LBB24:
 239              		.loc 1 127 0
 240 000c 0023     		movs	r3, #0
 241              		.syntax unified
 242              	@ 127 "../../os/kernel/src/chmsg.c" 1
 243 000e 83F31188 		msr     BASEPRI, r3
 244              	@ 0 "" 2
 245              		.thumb
 246              		.syntax unified
 247 0012 08BD     		pop	{r3, pc}
 248              	.LBE24:
 249              		.cfi_endproc
 250              	.LFE9:
 251              		.size	chMsgRelease, .-chMsgRelease
 252              		.text
 253              	.Letext0:
 254              		.file 3 "/usr/include/newlib/machine/_default_types.h"
 255              		.file 4 "/usr/include/newlib/sys/_stdint.h"
 256              		.file 5 "../../os/ports/GCC/ARMCMx/chtypes.h"
 257              		.file 6 "../../os/kernel/include/chlists.h"
 258              		.file 7 "../../os/kernel/include/chthreads.h"
 259              		.file 8 "../../os/ports/GCC/ARMCMx/chcore_v7m.h"
 260              		.file 9 "../../os/kernel/include/chvt.h"
 261              		.file 10 "../../os/kernel/include/chschd.h"
 262              		.file 11 "../../os/kernel/include/chmtx.h"
 263              		.file 12 "../../os/kernel/include/chregistry.h"
 264              		.file 13 "../../os/kernel/include/ch.h"