ARM GAS  /tmp/cc0l40Q6.s 			page 1


   1              		.cpu cortex-m3
   2              		.eabi_attribute 20, 1
   3              		.eabi_attribute 21, 1
   4              		.eabi_attribute 23, 3
   5              		.eabi_attribute 24, 1
   6              		.eabi_attribute 25, 1
   7              		.eabi_attribute 26, 1
   8              		.eabi_attribute 30, 2
   9              		.eabi_attribute 34, 1
  10              		.eabi_attribute 18, 4
  11              		.file	"chprintf.c"
  12              		.text
  13              	.Ltext0:
  14              		.cfi_sections	.debug_frame
  15              		.section	.text.chprintf,"ax",%progbits
  16              		.align	1
  17              		.p2align 2,,3
  18              		.global	chprintf
  19              		.syntax unified
  20              		.thumb
  21              		.thumb_func
  22              		.fpu softvfp
  23              		.type	chprintf, %function
  24              	chprintf:
  25              	.LFB9:
  26              		.file 1 "../../os/various/chprintf.c"
  27              		.loc 1 108 0
  28              		.cfi_startproc
  29              		@ args = 4, pretend = 12, frame = 24
  30              		@ frame_needed = 0, uses_anonymous_args = 1
  31              	.LVL0:
  32 0000 0EB4     		push	{r1, r2, r3}
  33              		.cfi_def_cfa_offset 12
  34              		.cfi_offset 1, -12
  35              		.cfi_offset 2, -8
  36              		.cfi_offset 3, -4
  37 0002 2DE9F04F 		push	{r4, r5, r6, r7, r8, r9, r10, fp, lr}
  38              		.cfi_def_cfa_offset 48
  39              		.cfi_offset 4, -48
  40              		.cfi_offset 5, -44
  41              		.cfi_offset 6, -40
  42              		.cfi_offset 7, -36
  43              		.cfi_offset 8, -32
  44              		.cfi_offset 9, -28
  45              		.cfi_offset 10, -24
  46              		.cfi_offset 11, -20
  47              		.cfi_offset 14, -16
  48 0006 8146     		mov	r9, r0
  49 0008 86B0     		sub	sp, sp, #24
  50              		.cfi_def_cfa_offset 72
  51              		.loc 1 108 0
  52 000a 0FAB     		add	r3, sp, #60
  53 000c 53F8048B 		ldr	r8, [r3], #4
  54              	.LBB12:
  55              	.LBB13:
  56              	.LBB14:
  57              		.loc 1 53 0
ARM GAS  /tmp/cc0l40Q6.s 			page 2


  58 0010 C04E     		ldr	r6, .L115
  59              	.LBE14:
  60              	.LBE13:
  61              	.LBE12:
  62              		.loc 1 121 0
  63 0012 0293     		str	r3, [sp, #8]
  64              	.LBB17:
  65              	.LBB18:
  66              	.LBB19:
  67              		.loc 1 51 0
  68 0014 0DF11707 		add	r7, sp, #23
  69              	.LVL1:
  70              	.L2:
  71              	.LBE19:
  72              	.LBE18:
  73              	.LBE17:
  74              		.loc 1 123 0
  75 0018 98F80010 		ldrb	r1, [r8]	@ zero_extendqisi2
  76 001c 08F10103 		add	r3, r8, #1
  77              	.LVL2:
  78              		.loc 1 124 0
  79 0020 69B1     		cbz	r1, .L96
  80              	.L105:
  81              		.loc 1 128 0
  82 0022 2529     		cmp	r1, #37
  83 0024 10D0     		beq	.L4
  84              		.loc 1 123 0
  85 0026 9846     		mov	r8, r3
  86              		.loc 1 129 0
  87 0028 D9F80020 		ldr	r2, [r9]
  88 002c 4846     		mov	r0, r9
  89 002e 9268     		ldr	r2, [r2, #8]
  90 0030 9047     		blx	r2
  91              	.LVL3:
  92              		.loc 1 123 0
  93 0032 98F80010 		ldrb	r1, [r8]	@ zero_extendqisi2
  94 0036 08F10103 		add	r3, r8, #1
  95              	.LVL4:
  96              		.loc 1 124 0
  97 003a 0029     		cmp	r1, #0
  98 003c F1D1     		bne	.L105
  99              	.L96:
 100              		.loc 1 261 0
 101 003e 06B0     		add	sp, sp, #24
 102              		.cfi_remember_state
 103              		.cfi_def_cfa_offset 48
 104              		@ sp needed
 105 0040 BDE8F04F 		pop	{r4, r5, r6, r7, r8, r9, r10, fp, lr}
 106              		.cfi_restore 14
 107              		.cfi_restore 11
 108              		.cfi_restore 10
 109              		.cfi_restore 9
 110              		.cfi_restore 8
 111              		.cfi_restore 7
 112              		.cfi_restore 6
 113              		.cfi_restore 5
 114              		.cfi_restore 4
ARM GAS  /tmp/cc0l40Q6.s 			page 3


 115              		.cfi_def_cfa_offset 12
 116              	.LVL5:
 117 0044 03B0     		add	sp, sp, #12
 118              		.cfi_restore 3
 119              		.cfi_restore 2
 120              		.cfi_restore 1
 121              		.cfi_def_cfa_offset 0
 122 0046 7047     		bx	lr
 123              	.LVL6:
 124              	.L4:
 125              		.cfi_restore_state
 126              		.loc 1 135 0
 127 0048 98F80120 		ldrb	r2, [r8, #1]	@ zero_extendqisi2
 128 004c 2D2A     		cmp	r2, #45
 129 004e 03BF     		ittte	eq
 130 0050 98F80220 		ldrbeq	r2, [r8, #2]	@ zero_extendqisi2
 131              		.loc 1 136 0
 132 0054 08F10203 		addeq	r3, r8, #2
 133              	.LVL7:
 134              		.loc 1 137 0
 135 0058 4FF0010E 		moveq	lr, #1
 136              		.loc 1 134 0
 137 005c 4FF0000E 		movne	lr, #0
 138              	.LVL8:
 139              		.loc 1 140 0
 140 0060 2E2A     		cmp	r2, #46
 141 0062 00F05981 		beq	.L7
 142              		.loc 1 140 0 is_stmt 0 discriminator 1
 143 0066 302A     		cmp	r2, #48
 144 0068 00F05681 		beq	.L7
 145              		.loc 1 139 0 is_stmt 1
 146 006c 2025     		movs	r5, #32
 147              	.LVL9:
 148              	.L8:
 149              		.loc 1 142 0
 150 006e 4FF0000C 		mov	ip, #0
 151 0072 0298     		ldr	r0, [sp, #8]
 152              		.loc 1 144 0
 153 0074 6446     		mov	r4, ip
 154 0076 591C     		adds	r1, r3, #1
 155              	.LVL10:
 156 0078 07E0     		b	.L11
 157              	.LVL11:
 158              	.L106:
 159              		.loc 1 150 0
 160 007a 4FF0010C 		mov	ip, #1
 161 007e 0378     		ldrb	r3, [r0]	@ zero_extendqisi2
 162              	.LVL12:
 163 0080 0430     		adds	r0, r0, #4
 164              	.LVL13:
 165              	.L9:
 166 0082 11F8012B 		ldrb	r2, [r1], #1	@ zero_extendqisi2
 167              	.LVL14:
 168              		.loc 1 153 0
 169 0086 03EB4A04 		add	r4, r3, r10, lsl #1
 170              	.LVL15:
 171              	.L11:
ARM GAS  /tmp/cc0l40Q6.s 			page 4


 172              		.loc 1 147 0
 173 008a A2F13003 		sub	r3, r2, #48
 174 008e DBB2     		uxtb	r3, r3
 175 0090 092B     		cmp	r3, #9
 176              		.loc 1 146 0
 177 0092 8846     		mov	r8, r1
 178              	.LVL16:
 179              		.loc 1 153 0
 180 0094 04EB840A 		add	r10, r4, r4, lsl #2
 181              		.loc 1 147 0
 182 0098 F3D9     		bls	.L9
 183              		.loc 1 149 0
 184 009a 2A2A     		cmp	r2, #42
 185 009c EDD0     		beq	.L106
 186 009e BCF1000F 		cmp	ip, #0
 187 00a2 40F0FC81 		bne	.L107
 188              	.LVL17:
 189              	.L12:
 190              		.loc 1 156 0
 191 00a6 2E2A     		cmp	r2, #46
 192 00a8 00F03A81 		beq	.L108
 193              		.loc 1 155 0
 194 00ac 0021     		movs	r1, #0
 195              	.LVL18:
 196              	.L13:
 197              		.loc 1 170 0
 198 00ae 02F0DF03 		and	r3, r2, #223
 199 00b2 4C2B     		cmp	r3, #76
 200 00b4 00F0B780 		beq	.L109
 201              		.loc 1 176 0
 202 00b8 A2F14103 		sub	r3, r2, #65
 203              		.loc 1 179 0
 204 00bc A2F14400 		sub	r0, r2, #68
 205              		.loc 1 176 0
 206 00c0 DBB2     		uxtb	r3, r3
 207              	.LVL19:
 208              		.loc 1 179 0
 209 00c2 3428     		cmp	r0, #52
 210 00c4 00F2A280 		bhi	.L20
 211 00c8 DFE810F0 		tbh	[pc, r0, lsl #1]
 212              	.L22:
 213 00cc 8201     		.2byte	(.L21-.L22)/2
 214 00ce A000     		.2byte	(.L20-.L22)/2
 215 00d0 A000     		.2byte	(.L20-.L22)/2
 216 00d2 A000     		.2byte	(.L20-.L22)/2
 217 00d4 A000     		.2byte	(.L20-.L22)/2
 218 00d6 8201     		.2byte	(.L21-.L22)/2
 219 00d8 A000     		.2byte	(.L20-.L22)/2
 220 00da A000     		.2byte	(.L20-.L22)/2
 221 00dc A000     		.2byte	(.L20-.L22)/2
 222 00de A000     		.2byte	(.L20-.L22)/2
 223 00e0 A000     		.2byte	(.L20-.L22)/2
 224 00e2 7F01     		.2byte	(.L23-.L22)/2
 225 00e4 A000     		.2byte	(.L20-.L22)/2
 226 00e6 A000     		.2byte	(.L20-.L22)/2
 227 00e8 A000     		.2byte	(.L20-.L22)/2
 228 00ea A000     		.2byte	(.L20-.L22)/2
ARM GAS  /tmp/cc0l40Q6.s 			page 5


 229 00ec A000     		.2byte	(.L20-.L22)/2
 230 00ee 5101     		.2byte	(.L66-.L22)/2
 231 00f0 A000     		.2byte	(.L20-.L22)/2
 232 00f2 A000     		.2byte	(.L20-.L22)/2
 233 00f4 AE01     		.2byte	(.L25-.L22)/2
 234 00f6 A000     		.2byte	(.L20-.L22)/2
 235 00f8 A000     		.2byte	(.L20-.L22)/2
 236 00fa A000     		.2byte	(.L20-.L22)/2
 237 00fc A000     		.2byte	(.L20-.L22)/2
 238 00fe A000     		.2byte	(.L20-.L22)/2
 239 0100 A000     		.2byte	(.L20-.L22)/2
 240 0102 A000     		.2byte	(.L20-.L22)/2
 241 0104 A000     		.2byte	(.L20-.L22)/2
 242 0106 A000     		.2byte	(.L20-.L22)/2
 243 0108 A000     		.2byte	(.L20-.L22)/2
 244 010a 8800     		.2byte	(.L26-.L22)/2
 245 010c 8201     		.2byte	(.L21-.L22)/2
 246 010e A000     		.2byte	(.L20-.L22)/2
 247 0110 A000     		.2byte	(.L20-.L22)/2
 248 0112 A000     		.2byte	(.L20-.L22)/2
 249 0114 A000     		.2byte	(.L20-.L22)/2
 250 0116 8201     		.2byte	(.L21-.L22)/2
 251 0118 A000     		.2byte	(.L20-.L22)/2
 252 011a A000     		.2byte	(.L20-.L22)/2
 253 011c A000     		.2byte	(.L20-.L22)/2
 254 011e A000     		.2byte	(.L20-.L22)/2
 255 0120 A000     		.2byte	(.L20-.L22)/2
 256 0122 7F01     		.2byte	(.L23-.L22)/2
 257 0124 A000     		.2byte	(.L20-.L22)/2
 258 0126 A000     		.2byte	(.L20-.L22)/2
 259 0128 A000     		.2byte	(.L20-.L22)/2
 260 012a 3500     		.2byte	(.L27-.L22)/2
 261 012c A000     		.2byte	(.L20-.L22)/2
 262 012e 5101     		.2byte	(.L66-.L22)/2
 263 0130 A000     		.2byte	(.L20-.L22)/2
 264 0132 A000     		.2byte	(.L20-.L22)/2
 265 0134 AE01     		.2byte	(.L25-.L22)/2
 266              	.LVL20:
 267              		.p2align 1
 268              	.L27:
 269              		.loc 1 186 0
 270 0136 029B     		ldr	r3, [sp, #8]
 271 0138 D3F800A0 		ldr	r10, [r3]
 272              	.LVL21:
 273 013c 0433     		adds	r3, r3, #4
 274 013e 0293     		str	r3, [sp, #8]
 275 0140 BAF1000F 		cmp	r10, #0
 276 0144 00F0A181 		beq	.L29
 277              	.LVL22:
 278              		.loc 1 190 0
 279 0148 9AF80030 		ldrb	r3, [r10]	@ zero_extendqisi2
 280              		.loc 1 188 0
 281 014c 0029     		cmp	r1, #0
 282 014e 40F09981 		bne	.L110
 283              	.LVL23:
 284              		.loc 1 190 0
 285 0152 002B     		cmp	r3, #0
ARM GAS  /tmp/cc0l40Q6.s 			page 6


 286 0154 00F09F81 		beq	.L67
 287 0158 47F6FE73 		movw	r3, #32766
 288              	.LVL24:
 289              	.L59:
 290              		.loc 1 190 0 is_stmt 0 discriminator 4
 291 015c 5146     		mov	r1, r10
 292 015e 01E0     		b	.L33
 293              	.LVL25:
 294              	.L111:
 295              		.loc 1 190 0 discriminator 3
 296 0160 013B     		subs	r3, r3, #1
 297              	.LVL26:
 298 0162 03D4     		bmi	.L101
 299              	.LVL27:
 300              	.L33:
 301              		.loc 1 190 0 discriminator 4
 302 0164 11F8012F 		ldrb	r2, [r1, #1]!	@ zero_extendqisi2
 303              	.LVL28:
 304 0168 002A     		cmp	r2, #0
 305 016a F9D1     		bne	.L111
 306              	.LVL29:
 307              	.L101:
 308 016c A1EB0A01 		sub	r1, r1, r10
 309              	.LVL30:
 310              		.loc 1 240 0 is_stmt 1
 311 0170 641A     		subs	r4, r4, r1
 312              	.LVL31:
 313 0172 01F1FF3B 		add	fp, r1, #-1
 314              		.loc 1 185 0
 315 0176 4FF02005 		mov	r5, #32
 316              	.LVL32:
 317              		.loc 1 240 0
 318 017a 3DD4     		bmi	.L112
 319              	.LVL33:
 320              	.L31:
 321              		.loc 1 242 0
 322 017c BEF1000F 		cmp	lr, #0
 323 0180 4DD1     		bne	.L50
 324 0182 6342     		negs	r3, r4
 325              	.LVL34:
 326              		.loc 1 244 0
 327 0184 002C     		cmp	r4, #0
 328 0186 49D0     		beq	.L70
 329              		.loc 1 245 0
 330 0188 9AF80010 		ldrb	r1, [r10]	@ zero_extendqisi2
 331 018c 2D29     		cmp	r1, #45
 332 018e 00F04E81 		beq	.L113
 333              	.LVL35:
 334              	.L51:
 335              		.loc 1 190 0 discriminator 1
 336 0192 1C46     		mov	r4, r3
 337              	.LVL36:
 338              	.L52:
 339              		.loc 1 250 0 discriminator 1
 340 0194 D9F80030 		ldr	r3, [r9]
 341 0198 2946     		mov	r1, r5
 342 019a 9B68     		ldr	r3, [r3, #8]
ARM GAS  /tmp/cc0l40Q6.s 			page 7


 343 019c 4846     		mov	r0, r9
 344 019e 9847     		blx	r3
 345              	.LVL37:
 346              		.loc 1 251 0 discriminator 1
 347 01a0 0134     		adds	r4, r4, #1
 348              	.LVL38:
 349 01a2 F7D1     		bne	.L52
 350              	.LVL39:
 351              		.loc 1 253 0
 352 01a4 BBF1000F 		cmp	fp, #0
 353 01a8 FFF636AF 		blt	.L2
 354              	.LVL40:
 355              	.L56:
 356              		.loc 1 254 0
 357 01ac D9F80030 		ldr	r3, [r9]
 358              		.loc 1 253 0
 359 01b0 0BF1FF3B 		add	fp, fp, #-1
 360              	.LVL41:
 361              		.loc 1 254 0
 362 01b4 9B68     		ldr	r3, [r3, #8]
 363 01b6 1AF8011B 		ldrb	r1, [r10], #1	@ zero_extendqisi2
 364              	.LVL42:
 365 01ba 4846     		mov	r0, r9
 366 01bc 9847     		blx	r3
 367              	.LVL43:
 368              		.loc 1 253 0
 369 01be BBF1FF3F 		cmp	fp, #-1
 370 01c2 F3D1     		bne	.L56
 371              	.LVL44:
 372              	.L55:
 373              		.loc 1 256 0
 374 01c4 002C     		cmp	r4, #0
 375 01c6 3FF427AF 		beq	.L2
 376              	.L57:
 377              		.loc 1 257 0
 378 01ca D9F80030 		ldr	r3, [r9]
 379 01ce 2946     		mov	r1, r5
 380 01d0 9B68     		ldr	r3, [r3, #8]
 381 01d2 4846     		mov	r0, r9
 382 01d4 9847     		blx	r3
 383              	.LVL45:
 384              		.loc 1 256 0
 385 01d6 013C     		subs	r4, r4, #1
 386              	.LVL46:
 387 01d8 F7D1     		bne	.L57
 388 01da 1DE7     		b	.L2
 389              	.LVL47:
 390              	.L26:
 391              		.loc 1 183 0
 392 01dc 4FF0000B 		mov	fp, #0
 393 01e0 0121     		movs	r1, #1
 394              	.LVL48:
 395              		.loc 1 181 0
 396 01e2 2025     		movs	r5, #32
 397              		.loc 1 182 0
 398 01e4 029B     		ldr	r3, [sp, #8]
 399 01e6 0DF1180A 		add	r10, sp, #24
ARM GAS  /tmp/cc0l40Q6.s 			page 8


 400 01ea 1A68     		ldr	r2, [r3]
 401              	.LVL49:
 402 01ec 0433     		adds	r3, r3, #4
 403 01ee 0293     		str	r3, [sp, #8]
 404 01f0 0AF80C2D 		strb	r2, [r10, #-12]!
 405              	.LVL50:
 406              	.L28:
 407              		.loc 1 240 0
 408 01f4 641A     		subs	r4, r4, r1
 409              	.LVL51:
 410 01f6 C1D5     		bpl	.L31
 411              	.LVL52:
 412              	.L112:
 413              		.loc 1 242 0
 414 01f8 BEF1000F 		cmp	lr, #0
 415 01fc 40F0B080 		bne	.L48
 416              		.loc 1 253 0
 417 0200 BBF1000F 		cmp	fp, #0
 418 0204 A8BF     		it	ge
 419 0206 7446     		movge	r4, lr
 420 0208 D0DA     		bge	.L56
 421 020a 05E7     		b	.L2
 422              	.LVL53:
 423              	.L20:
 424              		.loc 1 236 0
 425 020c 0DF1180A 		add	r10, sp, #24
 426              		.loc 1 237 0
 427 0210 4FF0000B 		mov	fp, #0
 428 0214 0121     		movs	r1, #1
 429              	.LVL54:
 430              		.loc 1 236 0
 431 0216 0AF80C2D 		strb	r2, [r10, #-12]!
 432              		.loc 1 237 0
 433 021a EBE7     		b	.L28
 434              	.LVL55:
 435              	.L70:
 436 021c 1C46     		mov	r4, r3
 437              	.LVL56:
 438              	.L50:
 439              		.loc 1 253 0
 440 021e BBF1000F 		cmp	fp, #0
 441 0222 C3DA     		bge	.L56
 442 0224 CEE7     		b	.L55
 443              	.LVL57:
 444              	.L109:
 445              		.loc 1 172 0
 446 0226 98F80030 		ldrb	r3, [r8]	@ zero_extendqisi2
 447 022a 13B1     		cbz	r3, .L19
 448              		.loc 1 173 0
 449 022c 1A46     		mov	r2, r3
 450              	.LVL58:
 451 022e 08F10108 		add	r8, r8, #1
 452              	.LVL59:
 453              	.L19:
 454              		.loc 1 179 0
 455 0232 A2F14403 		sub	r3, r2, #68
 456 0236 342B     		cmp	r3, #52
ARM GAS  /tmp/cc0l40Q6.s 			page 9


 457 0238 E8D8     		bhi	.L20
 458 023a 01A0     		adr	r0, .L60
 459 023c 50F823F0 		ldr	pc, [r0, r3, lsl #2]
 460              		.p2align 2
 461              	.L60:
 462 0240 5B040000 		.word	.L35+1
 463 0244 0D020000 		.word	.L20+1
 464 0248 0D020000 		.word	.L20+1
 465 024c 0D020000 		.word	.L20+1
 466 0250 0D020000 		.word	.L20+1
 467 0254 5B040000 		.word	.L35+1
 468 0258 0D020000 		.word	.L20+1
 469 025c 0D020000 		.word	.L20+1
 470 0260 0D020000 		.word	.L20+1
 471 0264 0D020000 		.word	.L20+1
 472 0268 0D020000 		.word	.L20+1
 473 026c 4D040000 		.word	.L75+1
 474 0270 0D020000 		.word	.L20+1
 475 0274 0D020000 		.word	.L20+1
 476 0278 0D020000 		.word	.L20+1
 477 027c 0D020000 		.word	.L20+1
 478 0280 0D020000 		.word	.L20+1
 479 0284 79040000 		.word	.L61+1
 480 0288 0D020000 		.word	.L20+1
 481 028c 0D020000 		.word	.L20+1
 482 0290 7F040000 		.word	.L62+1
 483 0294 0D020000 		.word	.L20+1
 484 0298 0D020000 		.word	.L20+1
 485 029c 0D020000 		.word	.L20+1
 486 02a0 0D020000 		.word	.L20+1
 487 02a4 0D020000 		.word	.L20+1
 488 02a8 0D020000 		.word	.L20+1
 489 02ac 0D020000 		.word	.L20+1
 490 02b0 0D020000 		.word	.L20+1
 491 02b4 0D020000 		.word	.L20+1
 492 02b8 0D020000 		.word	.L20+1
 493 02bc DD010000 		.word	.L26+1
 494 02c0 5B040000 		.word	.L35+1
 495 02c4 0D020000 		.word	.L20+1
 496 02c8 0D020000 		.word	.L20+1
 497 02cc 0D020000 		.word	.L20+1
 498 02d0 0D020000 		.word	.L20+1
 499 02d4 5B040000 		.word	.L35+1
 500 02d8 0D020000 		.word	.L20+1
 501 02dc 0D020000 		.word	.L20+1
 502 02e0 0D020000 		.word	.L20+1
 503 02e4 0D020000 		.word	.L20+1
 504 02e8 0D020000 		.word	.L20+1
 505 02ec 4D040000 		.word	.L75+1
 506 02f0 0D020000 		.word	.L20+1
 507 02f4 0D020000 		.word	.L20+1
 508 02f8 0D020000 		.word	.L20+1
 509 02fc 37010000 		.word	.L27+1
 510 0300 0D020000 		.word	.L20+1
 511 0304 79040000 		.word	.L61+1
 512 0308 0D020000 		.word	.L20+1
 513 030c 0D020000 		.word	.L20+1
ARM GAS  /tmp/cc0l40Q6.s 			page 10


 514 0310 7F040000 		.word	.L62+1
 515              		.p2align 1
 516              	.L116:
 517              		.align	2
 518              	.L115:
 519 0314 CDCCCCCC 		.word	-858993459
 520              	.LVL60:
 521              	.L7:
 522 0318 5A78     		ldrb	r2, [r3, #1]	@ zero_extendqisi2
 523              		.loc 1 142 0
 524 031a 3025     		movs	r5, #48
 525              		.loc 1 141 0
 526 031c 0133     		adds	r3, r3, #1
 527              	.LVL61:
 528 031e A6E6     		b	.L8
 529              	.LVL62:
 530              	.L108:
 531              		.loc 1 156 0
 532 0320 4FF0000A 		mov	r10, #0
 533 0324 DDF808C0 		ldr	ip, [sp, #8]
 534 0328 5146     		mov	r1, r10
 535              	.LVL63:
 536 032a 07E0     		b	.L17
 537              	.LVL64:
 538              	.L15:
 539              		.loc 1 162 0
 540 032c 4FF0010A 		mov	r10, #1
 541 0330 9CF80030 		ldrb	r3, [ip]	@ zero_extendqisi2
 542              	.LVL65:
 543 0334 0CF1040C 		add	ip, ip, #4
 544              	.LVL66:
 545              	.L14:
 546              		.loc 1 166 0
 547 0338 03EB4001 		add	r1, r3, r0, lsl #1
 548              	.LVL67:
 549              	.L17:
 550              		.loc 1 158 0
 551 033c 18F8012B 		ldrb	r2, [r8], #1	@ zero_extendqisi2
 552              	.LVL68:
 553              		.loc 1 165 0
 554 0340 01EB8100 		add	r0, r1, r1, lsl #2
 555              		.loc 1 159 0
 556 0344 A2F13003 		sub	r3, r2, #48
 557 0348 DBB2     		uxtb	r3, r3
 558 034a 092B     		cmp	r3, #9
 559 034c F4D9     		bls	.L14
 560              		.loc 1 161 0
 561 034e 2A2A     		cmp	r2, #42
 562 0350 ECD0     		beq	.L15
 563 0352 BAF1000F 		cmp	r10, #0
 564 0356 3FF4AAAE 		beq	.L13
 565 035a CDF808C0 		str	ip, [sp, #8]
 566 035e A6E6     		b	.L13
 567              	.LVL69:
 568              	.L48:
 569              		.loc 1 253 0
 570 0360 BBF1000F 		cmp	fp, #0
ARM GAS  /tmp/cc0l40Q6.s 			page 11


 571              		.loc 1 241 0
 572 0364 A8BF     		it	ge
 573 0366 0024     		movge	r4, #0
 574              		.loc 1 253 0
 575 0368 BFF620AF 		bge	.L56
 576 036c 54E6     		b	.L2
 577              	.LVL70:
 578              	.L66:
 579              		.loc 1 179 0
 580 036e 4FF00A0C 		mov	ip, #10
 581              	.L24:
 582              	.LVL71:
 583              		.loc 1 229 0
 584 0372 192B     		cmp	r3, #25
 585 0374 6CD9     		bls	.L42
 586              		.loc 1 232 0
 587 0376 029B     		ldr	r3, [sp, #8]
 588              	.LVL72:
 589 0378 191D     		adds	r1, r3, #4
 590              	.LVL73:
 591 037a 1A68     		ldr	r2, [r3]
 592              	.LVL74:
 593 037c 0291     		str	r1, [sp, #8]
 594              	.LVL75:
 595              	.L43:
 596              	.LBB22:
 597              	.LBB21:
 598              	.LBB20:
 599              		.loc 1 51 0
 600 037e 3946     		mov	r1, r7
 601 0380 00E0     		b	.L45
 602              	.LVL76:
 603              	.L69:
 604              		.loc 1 59 0
 605 0382 5946     		mov	r1, fp
 606              	.LVL77:
 607              	.L45:
 608              		.loc 1 53 0
 609 0384 B2FBFCF0 		udiv	r0, r2, ip
 610 0388 0CFB1022 		mls	r2, ip, r0, r2
 611              	.LVL78:
 612              		.loc 1 54 0
 613 038c 02F13003 		add	r3, r2, #48
 614              	.LVL79:
 615              		.loc 1 55 0
 616 0390 392B     		cmp	r3, #57
 617              		.loc 1 56 0
 618 0392 C8BF     		it	gt
 619 0394 02F13703 		addgt	r3, r2, #55
 620              	.LVL80:
 621              		.loc 1 57 0
 622 0398 DBB2     		uxtb	r3, r3
 623              	.LVL81:
 624 039a 01F8013C 		strb	r3, [r1, #-1]
 625 039e 01F1FF3B 		add	fp, r1, #-1
 626              	.LVL82:
 627              		.loc 1 58 0
ARM GAS  /tmp/cc0l40Q6.s 			page 12


 628 03a2 0246     		mov	r2, r0
 629              	.LVL83:
 630              		.loc 1 59 0
 631 03a4 0028     		cmp	r0, #0
 632 03a6 ECD1     		bne	.L69
 633              		.loc 1 61 0
 634 03a8 0DF10C0A 		add	r10, sp, #12
 635              	.LVL84:
 636 03ac 0A46     		mov	r2, r1
 637 03ae A7EB0B01 		sub	r1, r7, fp
 638              	.LVL85:
 639 03b2 5046     		mov	r0, r10
 640              	.LVL86:
 641 03b4 8B44     		add	fp, fp, r1
 642              	.LVL87:
 643 03b6 01E0     		b	.L47
 644              	.LVL88:
 645              	.L46:
 646 03b8 12F8013B 		ldrb	r3, [r2], #1	@ zero_extendqisi2
 647              	.LVL89:
 648              	.L47:
 649              		.loc 1 64 0
 650 03bc 9345     		cmp	fp, r2
 651              		.loc 1 63 0
 652 03be 00F8013B 		strb	r3, [r0], #1
 653              	.LVL90:
 654              		.loc 1 64 0
 655 03c2 F9D1     		bne	.L46
 656 03c4 01F1FF3B 		add	fp, r1, #-1
 657 03c8 14E7     		b	.L28
 658              	.LVL91:
 659              	.L23:
 660              	.LBE20:
 661              	.LBE21:
 662              	.LBE22:
 663              		.loc 1 179 0
 664 03ca 4FF0080C 		mov	ip, #8
 665 03ce D0E7     		b	.L24
 666              	.L21:
 667              		.loc 1 197 0
 668 03d0 192B     		cmp	r3, #25
 669 03d2 42D9     		bls	.L35
 670              		.loc 1 200 0
 671 03d4 029B     		ldr	r3, [sp, #8]
 672              	.LVL92:
 673 03d6 1A68     		ldr	r2, [r3]
 674              	.LVL93:
 675 03d8 191D     		adds	r1, r3, #4
 676              	.LVL94:
 677              		.loc 1 201 0
 678 03da 002A     		cmp	r2, #0
 679              		.loc 1 200 0
 680 03dc 0291     		str	r1, [sp, #8]
 681              	.LVL95:
 682              		.loc 1 201 0
 683 03de 42DB     		blt	.L114
 684              	.LVL96:
ARM GAS  /tmp/cc0l40Q6.s 			page 13


 685              	.L68:
 686              		.loc 1 132 0
 687 03e0 0DF10C0A 		add	r10, sp, #12
 688              	.LVL97:
 689 03e4 D446     		mov	ip, r10
 690              	.LVL98:
 691              	.L37:
 692              	.LBB23:
 693              	.LBB16:
 694              	.LBB15:
 695              		.loc 1 51 0
 696 03e6 0CF10B0B 		add	fp, ip, #11
 697              	.LVL99:
 698 03ea 5946     		mov	r1, fp
 699              	.LVL100:
 700              	.L38:
 701              		.loc 1 53 0
 702 03ec A6FB0203 		umull	r0, r3, r6, r2
 703 03f0 DB08     		lsrs	r3, r3, #3
 704 03f2 1846     		mov	r0, r3
 705 03f4 03EB8303 		add	r3, r3, r3, lsl #2
 706 03f8 A2EB4303 		sub	r3, r2, r3, lsl #1
 707              	.LVL101:
 708              		.loc 1 54 0
 709 03fc 3033     		adds	r3, r3, #48
 710              	.LVL102:
 711              		.loc 1 57 0
 712 03fe DBB2     		uxtb	r3, r3
 713              	.LVL103:
 714 0400 01F8013D 		strb	r3, [r1, #-1]!
 715              	.LVL104:
 716              		.loc 1 59 0
 717 0404 0246     		mov	r2, r0
 718              	.LVL105:
 719 0406 0028     		cmp	r0, #0
 720 0408 F0D1     		bne	.L38
 721              	.LVL106:
 722              		.loc 1 61 0
 723 040a ABEB0102 		sub	r2, fp, r1
 724 040e 6244     		add	r2, r2, ip
 725 0410 01E0     		b	.L40
 726              	.LVL107:
 727              	.L39:
 728 0412 11F8013F 		ldrb	r3, [r1, #1]!	@ zero_extendqisi2
 729              	.LVL108:
 730              	.L40:
 731              		.loc 1 63 0
 732 0416 0CF8013B 		strb	r3, [ip], #1
 733              	.LVL109:
 734              		.loc 1 64 0
 735 041a 6245     		cmp	r2, ip
 736 041c F9D1     		bne	.L39
 737 041e A2EB0A01 		sub	r1, r2, r10
 738 0422 01F1FF3B 		add	fp, r1, #-1
 739              	.LVL110:
 740 0426 E5E6     		b	.L28
 741              	.LVL111:
ARM GAS  /tmp/cc0l40Q6.s 			page 14


 742              	.L25:
 743              	.LBE15:
 744              	.LBE16:
 745              	.LBE23:
 746              		.loc 1 179 0
 747 0428 4FF0100C 		mov	ip, #16
 748 042c A1E7     		b	.L24
 749              	.LVL112:
 750              	.L113:
 751              		.loc 1 245 0 discriminator 1
 752 042e 302D     		cmp	r5, #48
 753 0430 7FF4AFAE 		bne	.L51
 754              		.loc 1 246 0
 755 0434 D9F80020 		ldr	r2, [r9]
 756 0438 4846     		mov	r0, r9
 757 043a 9268     		ldr	r2, [r2, #8]
 758 043c 0193     		str	r3, [sp, #4]
 759 043e 0AF1010A 		add	r10, r10, #1
 760              	.LVL113:
 761 0442 9047     		blx	r2
 762              	.LVL114:
 763 0444 0BF1FF3B 		add	fp, fp, #-1
 764 0448 019B     		ldr	r3, [sp, #4]
 765 044a A2E6     		b	.L51
 766              	.LVL115:
 767              	.L75:
 768              		.loc 1 179 0
 769 044c 4FF0080C 		mov	ip, #8
 770              	.LVL116:
 771              	.L42:
 772              		.loc 1 230 0
 773 0450 029B     		ldr	r3, [sp, #8]
 774 0452 1A1D     		adds	r2, r3, #4
 775 0454 0292     		str	r2, [sp, #8]
 776 0456 1A68     		ldr	r2, [r3]
 777              	.LVL117:
 778 0458 91E7     		b	.L43
 779              	.LVL118:
 780              	.L35:
 781              		.loc 1 198 0
 782 045a 029B     		ldr	r3, [sp, #8]
 783 045c 1A1D     		adds	r2, r3, #4
 784              	.LVL119:
 785 045e 0292     		str	r2, [sp, #8]
 786 0460 1A68     		ldr	r2, [r3]
 787              	.LVL120:
 788              		.loc 1 201 0
 789 0462 002A     		cmp	r2, #0
 790 0464 BCDA     		bge	.L68
 791              	.LVL121:
 792              	.L114:
 793              		.loc 1 202 0
 794 0466 2D23     		movs	r3, #45
 795              		.loc 1 203 0
 796 0468 5242     		negs	r2, r2
 797              	.LVL122:
 798              		.loc 1 202 0
ARM GAS  /tmp/cc0l40Q6.s 			page 15


 799 046a 8DF80C30 		strb	r3, [sp, #12]
 800 046e 0DF10D0C 		add	ip, sp, #13
 801              	.LVL123:
 802 0472 0DF10C0A 		add	r10, sp, #12
 803              	.LVL124:
 804 0476 B6E7     		b	.L37
 805              	.LVL125:
 806              	.L61:
 807              		.loc 1 179 0
 808 0478 4FF00A0C 		mov	ip, #10
 809 047c E8E7     		b	.L42
 810              	.L62:
 811 047e 4FF0100C 		mov	ip, #16
 812 0482 E5E7     		b	.L42
 813              	.LVL126:
 814              	.L110:
 815              		.loc 1 190 0 discriminator 1
 816 0484 3BB1     		cbz	r3, .L67
 817              	.LVL127:
 818              	.L58:
 819              		.loc 1 190 0 is_stmt 0
 820 0486 4B1E     		subs	r3, r1, #1
 821              	.LVL128:
 822 0488 68E6     		b	.L59
 823              	.LVL129:
 824              	.L29:
 825              		.loc 1 188 0 is_stmt 1
 826 048a 09B9     		cbnz	r1, .L100
 827              		.loc 1 189 0
 828 048c 47F6FF71 		movw	r1, #32767
 829              	.LVL130:
 830              	.L100:
 831              		.loc 1 187 0
 832 0490 DFF810A0 		ldr	r10, .L117
 833 0494 F7E7     		b	.L58
 834              	.LVL131:
 835              	.L67:
 836              		.loc 1 190 0
 837 0496 4FF0FF3B 		mov	fp, #-1
 838 049a 2025     		movs	r5, #32
 839 049c 6EE6     		b	.L31
 840              	.LVL132:
 841              	.L107:
 842 049e 0290     		str	r0, [sp, #8]
 843              	.LVL133:
 844 04a0 01E6     		b	.L12
 845              	.L118:
 846 04a2 00BF     		.align	2
 847              	.L117:
 848 04a4 00000000 		.word	.LC0
 849              		.cfi_endproc
 850              	.LFE9:
 851              		.size	chprintf, .-chprintf
 852              		.section	.rodata.chprintf.str1.4,"aMS",%progbits,1
 853              		.align	2
 854              	.LC0:
 855 0000 286E756C 		.ascii	"(null)\000"
ARM GAS  /tmp/cc0l40Q6.s 			page 16


 855      6C2900
 856              		.text
 857              	.Letext0:
 858              		.file 2 "/usr/lib/gcc/arm-none-eabi/6.3.1/include/stdarg.h"
 859              		.file 3 "/usr/lib/gcc/arm-none-eabi/6.3.1/include/stddef.h"
 860              		.file 4 "/usr/include/newlib/machine/_default_types.h"
 861              		.file 5 "/usr/include/newlib/sys/_stdint.h"
 862              		.file 6 "../../os/ports/GCC/ARMCMx/chtypes.h"
 863              		.file 7 "../../os/kernel/include/chlists.h"
 864              		.file 8 "<built-in>"
 865              		.file 9 "../../os/kernel/include/chthreads.h"
 866              		.file 10 "../../os/ports/GCC/ARMCMx/chcore_v7m.h"
 867              		.file 11 "../../os/kernel/include/chvt.h"
 868              		.file 12 "../../os/kernel/include/chschd.h"
 869              		.file 13 "../../os/kernel/include/chmtx.h"
 870              		.file 14 "../../os/kernel/include/chregistry.h"
 871              		.file 15 "../../os/kernel/include/chstreams.h"
 872              		.file 16 "../../os/kernel/include/ch.h"