ARM GAS  /tmp/cc1K7B5g.s 			page 1


   1              		.cpu cortex-m3
   2              		.eabi_attribute 20, 1
   3              		.eabi_attribute 21, 1
   4              		.eabi_attribute 23, 3
   5              		.eabi_attribute 24, 1
   6              		.eabi_attribute 25, 1
   7              		.eabi_attribute 26, 1
   8              		.eabi_attribute 30, 2
   9              		.eabi_attribute 34, 1
  10              		.eabi_attribute 18, 4
  11              		.file	"chsem.c"
  12              		.text
  13              	.Ltext0:
  14              		.cfi_sections	.debug_frame
  15              		.section	.text.chSemInit,"ax",%progbits
  16              		.align	1
  17              		.p2align 2,,3
  18              		.global	chSemInit
  19              		.syntax unified
  20              		.thumb
  21              		.thumb_func
  22              		.fpu softvfp
  23              		.type	chSemInit, %function
  24              	chSemInit:
  25              	.LFB7:
  26              		.file 1 "../../os/kernel/src/chsem.c"
  27              		.loc 1 79 0
  28              		.cfi_startproc
  29              		@ args = 0, pretend = 0, frame = 0
  30              		@ frame_needed = 0, uses_anonymous_args = 0
  31              		@ link register save eliminated.
  32              	.LVL0:
  33              		.loc 1 83 0
  34 0000 4060     		str	r0, [r0, #4]
  35 0002 0060     		str	r0, [r0]
  36              		.loc 1 84 0
  37 0004 8160     		str	r1, [r0, #8]
  38 0006 7047     		bx	lr
  39              		.cfi_endproc
  40              	.LFE7:
  41              		.size	chSemInit, .-chSemInit
  42              		.section	.text.chSemResetI,"ax",%progbits
  43              		.align	1
  44              		.p2align 2,,3
  45              		.global	chSemResetI
  46              		.syntax unified
  47              		.thumb
  48              		.thumb_func
  49              		.fpu softvfp
  50              		.type	chSemResetI, %function
  51              	chSemResetI:
  52              	.LFB9:
  53              		.loc 1 129 0
  54              		.cfi_startproc
  55              		@ args = 0, pretend = 0, frame = 0
  56              		@ frame_needed = 0, uses_anonymous_args = 0
  57              	.LVL1:
ARM GAS  /tmp/cc1K7B5g.s 			page 2


  58 0000 70B5     		push	{r4, r5, r6, lr}
  59              		.cfi_def_cfa_offset 16
  60              		.cfi_offset 4, -16
  61              		.cfi_offset 5, -12
  62              		.cfi_offset 6, -8
  63              		.cfi_offset 14, -4
  64              		.loc 1 134 0
  65 0002 8568     		ldr	r5, [r0, #8]
  66              	.LVL2:
  67              		.loc 1 140 0
  68 0004 8160     		str	r1, [r0, #8]
  69              		.loc 1 141 0
  70 0006 0135     		adds	r5, r5, #1
  71              	.LVL3:
  72 0008 002D     		cmp	r5, #0
  73 000a 0CDC     		bgt	.L2
  74 000c 0446     		mov	r4, r0
  75              		.loc 1 142 0
  76 000e 6FF00106 		mvn	r6, #1
  77              	.LVL4:
  78              	.L4:
  79              	.LBB36:
  80              	.LBB37:
  81              		.file 2 "../../os/kernel/include/chinline.h"
  82              		.loc 2 60 0
  83 0012 6068     		ldr	r0, [r4, #4]
  84              	.LVL5:
  85              	.LBE37:
  86              	.LBE36:
  87              		.loc 1 141 0
  88 0014 0135     		adds	r5, r5, #1
  89              	.LVL6:
  90              	.LBB39:
  91              	.LBB38:
  92              		.loc 2 62 0
  93 0016 4368     		ldr	r3, [r0, #4]
  94 0018 6360     		str	r3, [r4, #4]
  95 001a 1C60     		str	r4, [r3]
  96              	.LVL7:
  97              	.LBE38:
  98              	.LBE39:
  99              		.loc 1 142 0
 100 001c FFF7FEFF 		bl	chSchReadyI
 101              	.LVL8:
 102              		.loc 1 141 0
 103 0020 012D     		cmp	r5, #1
 104              		.loc 1 142 0
 105 0022 4662     		str	r6, [r0, #36]
 106              	.LVL9:
 107              		.loc 1 141 0
 108 0024 F5D1     		bne	.L4
 109              	.LVL10:
 110              	.L2:
 111 0026 70BD     		pop	{r4, r5, r6, pc}
 112              		.cfi_endproc
 113              	.LFE9:
 114              		.size	chSemResetI, .-chSemResetI
ARM GAS  /tmp/cc1K7B5g.s 			page 3


 115              		.section	.text.chSemReset,"ax",%progbits
 116              		.align	1
 117              		.p2align 2,,3
 118              		.global	chSemReset
 119              		.syntax unified
 120              		.thumb
 121              		.thumb_func
 122              		.fpu softvfp
 123              		.type	chSemReset, %function
 124              	chSemReset:
 125              	.LFB8:
 126              		.loc 1 102 0
 127              		.cfi_startproc
 128              		@ args = 0, pretend = 0, frame = 0
 129              		@ frame_needed = 0, uses_anonymous_args = 0
 130              	.LVL11:
 131 0000 08B5     		push	{r3, lr}
 132              		.cfi_def_cfa_offset 8
 133              		.cfi_offset 3, -8
 134              		.cfi_offset 14, -4
 135              	.LBB40:
 136              		.loc 1 104 0
 137 0002 4023     		movs	r3, #64
 138              		.syntax unified
 139              	@ 104 "../../os/kernel/src/chsem.c" 1
 140 0004 83F31188 		msr     BASEPRI, r3
 141              	@ 0 "" 2
 142              		.thumb
 143              		.syntax unified
 144              	.LBE40:
 145              		.loc 1 105 0
 146 0008 FFF7FEFF 		bl	chSemResetI
 147              	.LVL12:
 148              		.loc 1 106 0
 149 000c FFF7FEFF 		bl	chSchRescheduleS
 150              	.LVL13:
 151              	.LBB41:
 152              		.loc 1 107 0
 153 0010 0023     		movs	r3, #0
 154              		.syntax unified
 155              	@ 107 "../../os/kernel/src/chsem.c" 1
 156 0012 83F31188 		msr     BASEPRI, r3
 157              	@ 0 "" 2
 158              		.thumb
 159              		.syntax unified
 160 0016 08BD     		pop	{r3, pc}
 161              	.LBE41:
 162              		.cfi_endproc
 163              	.LFE8:
 164              		.size	chSemReset, .-chSemReset
 165              		.section	.text.chSemWait,"ax",%progbits
 166              		.align	1
 167              		.p2align 2,,3
 168              		.global	chSemWait
 169              		.syntax unified
 170              		.thumb
 171              		.thumb_func
ARM GAS  /tmp/cc1K7B5g.s 			page 4


 172              		.fpu softvfp
 173              		.type	chSemWait, %function
 174              	chSemWait:
 175              	.LFB10:
 176              		.loc 1 157 0
 177              		.cfi_startproc
 178              		@ args = 0, pretend = 0, frame = 0
 179              		@ frame_needed = 0, uses_anonymous_args = 0
 180              	.LVL14:
 181              	.LBB50:
 182              		.loc 1 160 0
 183 0000 4023     		movs	r3, #64
 184              		.syntax unified
 185              	@ 160 "../../os/kernel/src/chsem.c" 1
 186 0002 83F31188 		msr     BASEPRI, r3
 187              	@ 0 "" 2
 188              	.LVL15:
 189              		.thumb
 190              		.syntax unified
 191              	.LBE50:
 192              	.LBB51:
 193              	.LBB52:
 194              		.loc 1 187 0
 195 0006 8368     		ldr	r3, [r0, #8]
 196 0008 013B     		subs	r3, r3, #1
 197 000a 002B     		cmp	r3, #0
 198 000c 8360     		str	r3, [r0, #8]
 199 000e 04DB     		blt	.L18
 200              		.loc 1 193 0
 201 0010 0020     		movs	r0, #0
 202              	.LVL16:
 203              	.LBE52:
 204              	.LBE51:
 205              	.LBB58:
 206              		.loc 1 162 0
 207 0012 0023     		movs	r3, #0
 208              		.syntax unified
 209              	@ 162 "../../os/kernel/src/chsem.c" 1
 210 0014 83F31188 		msr     BASEPRI, r3
 211              	@ 0 "" 2
 212              		.thumb
 213              		.syntax unified
 214              	.LBE58:
 215              		.loc 1 164 0
 216 0018 7047     		bx	lr
 217              	.LVL17:
 218              	.L18:
 219 001a 0346     		mov	r3, r0
 220              	.LVL18:
 221              		.loc 1 157 0
 222 001c 10B5     		push	{r4, lr}
 223              		.cfi_def_cfa_offset 8
 224              		.cfi_offset 4, -8
 225              		.cfi_offset 14, -4
 226              	.LBB59:
 227              	.LBB57:
 228              	.LBB53:
ARM GAS  /tmp/cc1K7B5g.s 			page 5


 229              	.LBB54:
 230              		.loc 1 188 0
 231 001e 084C     		ldr	r4, .L19
 232              		.loc 1 190 0
 233 0020 0320     		movs	r0, #3
 234              	.LVL19:
 235              		.loc 1 188 0
 236 0022 A269     		ldr	r2, [r4, #24]
 237 0024 5362     		str	r3, [r2, #36]
 238              	.LVL20:
 239              	.LBB55:
 240              	.LBB56:
 241              		.loc 2 48 0
 242 0026 5968     		ldr	r1, [r3, #4]
 243              		.loc 2 47 0
 244 0028 1360     		str	r3, [r2]
 245              		.loc 2 48 0
 246 002a 5160     		str	r1, [r2, #4]
 247              		.loc 2 49 0
 248 002c 5A60     		str	r2, [r3, #4]
 249 002e 0A60     		str	r2, [r1]
 250              	.LVL21:
 251              	.LBE56:
 252              	.LBE55:
 253              		.loc 1 190 0
 254 0030 FFF7FEFF 		bl	chSchGoSleepS
 255              	.LVL22:
 256              		.loc 1 191 0
 257 0034 A369     		ldr	r3, [r4, #24]
 258 0036 586A     		ldr	r0, [r3, #36]
 259              	.LVL23:
 260              	.LBE54:
 261              	.LBE53:
 262              	.LBE57:
 263              	.LBE59:
 264              	.LBB60:
 265              		.loc 1 162 0
 266 0038 0023     		movs	r3, #0
 267              		.syntax unified
 268              	@ 162 "../../os/kernel/src/chsem.c" 1
 269 003a 83F31188 		msr     BASEPRI, r3
 270              	@ 0 "" 2
 271              		.thumb
 272              		.syntax unified
 273              	.LBE60:
 274              		.loc 1 164 0
 275 003e 10BD     		pop	{r4, pc}
 276              	.L20:
 277              		.align	2
 278              	.L19:
 279 0040 00000000 		.word	rlist
 280              		.cfi_endproc
 281              	.LFE10:
 282              		.size	chSemWait, .-chSemWait
 283              		.section	.text.chSemWaitS,"ax",%progbits
 284              		.align	1
 285              		.p2align 2,,3
ARM GAS  /tmp/cc1K7B5g.s 			page 6


 286              		.global	chSemWaitS
 287              		.syntax unified
 288              		.thumb
 289              		.thumb_func
 290              		.fpu softvfp
 291              		.type	chSemWaitS, %function
 292              	chSemWaitS:
 293              	.LFB11:
 294              		.loc 1 178 0
 295              		.cfi_startproc
 296              		@ args = 0, pretend = 0, frame = 0
 297              		@ frame_needed = 0, uses_anonymous_args = 0
 298              	.LVL24:
 299              		.loc 1 187 0
 300 0000 8368     		ldr	r3, [r0, #8]
 301 0002 013B     		subs	r3, r3, #1
 302 0004 002B     		cmp	r3, #0
 303 0006 8360     		str	r3, [r0, #8]
 304 0008 01DB     		blt	.L28
 305              		.loc 1 193 0
 306 000a 0020     		movs	r0, #0
 307              	.LVL25:
 308 000c 7047     		bx	lr
 309              	.LVL26:
 310              	.L28:
 311 000e 0346     		mov	r3, r0
 312              	.LVL27:
 313              		.loc 1 178 0
 314 0010 10B5     		push	{r4, lr}
 315              		.cfi_def_cfa_offset 8
 316              		.cfi_offset 4, -8
 317              		.cfi_offset 14, -4
 318              	.LBB65:
 319              	.LBB66:
 320              		.loc 1 188 0
 321 0012 074C     		ldr	r4, .L29
 322              		.loc 1 190 0
 323 0014 0320     		movs	r0, #3
 324              	.LVL28:
 325              		.loc 1 188 0
 326 0016 A269     		ldr	r2, [r4, #24]
 327 0018 5362     		str	r3, [r2, #36]
 328              	.LVL29:
 329              	.LBB67:
 330              	.LBB68:
 331              		.loc 2 48 0
 332 001a 5968     		ldr	r1, [r3, #4]
 333              		.loc 2 47 0
 334 001c 1360     		str	r3, [r2]
 335              		.loc 2 48 0
 336 001e 5160     		str	r1, [r2, #4]
 337              		.loc 2 49 0
 338 0020 5A60     		str	r2, [r3, #4]
 339 0022 0A60     		str	r2, [r1]
 340              	.LVL30:
 341              	.LBE68:
 342              	.LBE67:
ARM GAS  /tmp/cc1K7B5g.s 			page 7


 343              		.loc 1 190 0
 344 0024 FFF7FEFF 		bl	chSchGoSleepS
 345              	.LVL31:
 346              		.loc 1 191 0
 347 0028 A369     		ldr	r3, [r4, #24]
 348 002a 586A     		ldr	r0, [r3, #36]
 349              	.LVL32:
 350 002c 10BD     		pop	{r4, pc}
 351              	.L30:
 352 002e 00BF     		.align	2
 353              	.L29:
 354 0030 00000000 		.word	rlist
 355              	.LBE66:
 356              	.LBE65:
 357              		.cfi_endproc
 358              	.LFE11:
 359              		.size	chSemWaitS, .-chSemWaitS
 360              		.section	.text.chSemWaitTimeout,"ax",%progbits
 361              		.align	1
 362              		.p2align 2,,3
 363              		.global	chSemWaitTimeout
 364              		.syntax unified
 365              		.thumb
 366              		.thumb_func
 367              		.fpu softvfp
 368              		.type	chSemWaitTimeout, %function
 369              	chSemWaitTimeout:
 370              	.LFB12:
 371              		.loc 1 215 0
 372              		.cfi_startproc
 373              		@ args = 0, pretend = 0, frame = 0
 374              		@ frame_needed = 0, uses_anonymous_args = 0
 375              	.LVL33:
 376              	.LBB77:
 377              		.loc 1 218 0
 378 0000 4023     		movs	r3, #64
 379              		.syntax unified
 380              	@ 218 "../../os/kernel/src/chsem.c" 1
 381 0002 83F31188 		msr     BASEPRI, r3
 382              	@ 0 "" 2
 383              	.LVL34:
 384              		.thumb
 385              		.syntax unified
 386              	.LBE77:
 387              	.LBB78:
 388              	.LBB79:
 389              		.loc 1 247 0
 390 0006 8268     		ldr	r2, [r0, #8]
 391              		.loc 1 252 0
 392 0008 531E     		subs	r3, r2, #1
 393 000a 002B     		cmp	r3, #0
 394 000c 8360     		str	r3, [r0, #8]
 395 000e 04DB     		blt	.L39
 396              		.loc 1 261 0
 397 0010 0020     		movs	r0, #0
 398              	.LVL35:
 399              	.LBE79:
ARM GAS  /tmp/cc1K7B5g.s 			page 8


 400              	.LBE78:
 401              	.LBB86:
 402              		.loc 1 220 0
 403 0012 0023     		movs	r3, #0
 404              		.syntax unified
 405              	@ 220 "../../os/kernel/src/chsem.c" 1
 406 0014 83F31188 		msr     BASEPRI, r3
 407              	@ 0 "" 2
 408              		.thumb
 409              		.syntax unified
 410              	.LBE86:
 411              		.loc 1 222 0
 412 0018 7047     		bx	lr
 413              	.LVL36:
 414              	.L39:
 415              		.loc 1 215 0
 416 001a 10B5     		push	{r4, lr}
 417              		.cfi_def_cfa_offset 8
 418              		.cfi_offset 4, -8
 419              		.cfi_offset 14, -4
 420              	.LBB87:
 421              	.LBB84:
 422              		.loc 1 253 0
 423 001c 79B1     		cbz	r1, .L40
 424 001e 0346     		mov	r3, r0
 425              	.LVL37:
 426              	.LBB80:
 427              	.LBB81:
 428              		.loc 1 257 0
 429 0020 094A     		ldr	r2, .L41
 430              		.loc 1 259 0
 431 0022 0320     		movs	r0, #3
 432              	.LVL38:
 433              		.loc 1 257 0
 434 0024 9269     		ldr	r2, [r2, #24]
 435 0026 5362     		str	r3, [r2, #36]
 436              	.LVL39:
 437              	.LBB82:
 438              	.LBB83:
 439              		.loc 2 48 0
 440 0028 5C68     		ldr	r4, [r3, #4]
 441 002a 82E81800 		stm	r2, {r3, r4}
 442              		.loc 2 49 0
 443 002e 5A60     		str	r2, [r3, #4]
 444 0030 2260     		str	r2, [r4]
 445              	.LVL40:
 446              	.LBE83:
 447              	.LBE82:
 448              		.loc 1 259 0
 449 0032 FFF7FEFF 		bl	chSchGoSleepTimeoutS
 450              	.LVL41:
 451              	.L32:
 452              	.LBE81:
 453              	.LBE80:
 454              	.LBE84:
 455              	.LBE87:
 456              	.LBB88:
ARM GAS  /tmp/cc1K7B5g.s 			page 9


 457              		.loc 1 220 0
 458 0036 0023     		movs	r3, #0
 459              		.syntax unified
 460              	@ 220 "../../os/kernel/src/chsem.c" 1
 461 0038 83F31188 		msr     BASEPRI, r3
 462              	@ 0 "" 2
 463              		.thumb
 464              		.syntax unified
 465              	.LBE88:
 466              		.loc 1 222 0
 467 003c 10BD     		pop	{r4, pc}
 468              	.LVL42:
 469              	.L40:
 470              	.LBB89:
 471              	.LBB85:
 472              		.loc 1 254 0
 473 003e 8260     		str	r2, [r0, #8]
 474              		.loc 1 255 0
 475 0040 4FF0FF30 		mov	r0, #-1
 476              	.LVL43:
 477 0044 F7E7     		b	.L32
 478              	.L42:
 479 0046 00BF     		.align	2
 480              	.L41:
 481 0048 00000000 		.word	rlist
 482              	.LBE85:
 483              	.LBE89:
 484              		.cfi_endproc
 485              	.LFE12:
 486              		.size	chSemWaitTimeout, .-chSemWaitTimeout
 487              		.section	.text.chSemWaitTimeoutS,"ax",%progbits
 488              		.align	1
 489              		.p2align 2,,3
 490              		.global	chSemWaitTimeoutS
 491              		.syntax unified
 492              		.thumb
 493              		.thumb_func
 494              		.fpu softvfp
 495              		.type	chSemWaitTimeoutS, %function
 496              	chSemWaitTimeoutS:
 497              	.LFB13:
 498              		.loc 1 243 0
 499              		.cfi_startproc
 500              		@ args = 0, pretend = 0, frame = 0
 501              		@ frame_needed = 0, uses_anonymous_args = 0
 502              		@ link register save eliminated.
 503              	.LVL44:
 504 0000 0346     		mov	r3, r0
 505              		.loc 1 247 0
 506 0002 8068     		ldr	r0, [r0, #8]
 507              	.LVL45:
 508              		.loc 1 252 0
 509 0004 421E     		subs	r2, r0, #1
 510 0006 002A     		cmp	r2, #0
 511 0008 9A60     		str	r2, [r3, #8]
 512 000a 01DB     		blt	.L51
 513              		.loc 1 261 0
ARM GAS  /tmp/cc1K7B5g.s 			page 10


 514 000c 0020     		movs	r0, #0
 515 000e 7047     		bx	lr
 516              	.L51:
 517              		.loc 1 243 0
 518 0010 10B4     		push	{r4}
 519              		.cfi_def_cfa_offset 4
 520              		.cfi_offset 4, -4
 521              		.loc 1 253 0
 522 0012 59B1     		cbz	r1, .L52
 523              	.LVL46:
 524              	.LBB94:
 525              	.LBB95:
 526              		.loc 1 257 0
 527 0014 084A     		ldr	r2, .L53
 528              		.loc 1 259 0
 529 0016 0320     		movs	r0, #3
 530              		.loc 1 257 0
 531 0018 9269     		ldr	r2, [r2, #24]
 532 001a 5362     		str	r3, [r2, #36]
 533              	.LVL47:
 534              	.LBB96:
 535              	.LBB97:
 536              		.loc 2 48 0
 537 001c 5C68     		ldr	r4, [r3, #4]
 538 001e 82E81800 		stm	r2, {r3, r4}
 539              		.loc 2 49 0
 540 0022 5A60     		str	r2, [r3, #4]
 541 0024 2260     		str	r2, [r4]
 542              	.LVL48:
 543              	.LBE97:
 544              	.LBE96:
 545              	.LBE95:
 546              	.LBE94:
 547              		.loc 1 262 0
 548 0026 10BC     		pop	{r4}
 549              		.cfi_remember_state
 550              		.cfi_restore 4
 551              		.cfi_def_cfa_offset 0
 552              	.LBB99:
 553              	.LBB98:
 554              		.loc 1 259 0
 555 0028 FFF7FEBF 		b	chSchGoSleepTimeoutS
 556              	.LVL49:
 557              	.L52:
 558              		.cfi_restore_state
 559              	.LBE98:
 560              	.LBE99:
 561              		.loc 1 254 0
 562 002c 9860     		str	r0, [r3, #8]
 563              		.loc 1 262 0
 564 002e 10BC     		pop	{r4}
 565              		.cfi_restore 4
 566              		.cfi_def_cfa_offset 0
 567              		.loc 1 255 0
 568 0030 4FF0FF30 		mov	r0, #-1
 569              		.loc 1 262 0
 570 0034 7047     		bx	lr
ARM GAS  /tmp/cc1K7B5g.s 			page 11


 571              	.L54:
 572 0036 00BF     		.align	2
 573              	.L53:
 574 0038 00000000 		.word	rlist
 575              		.cfi_endproc
 576              	.LFE13:
 577              		.size	chSemWaitTimeoutS, .-chSemWaitTimeoutS
 578              		.section	.text.chSemSignal,"ax",%progbits
 579              		.align	1
 580              		.p2align 2,,3
 581              		.global	chSemSignal
 582              		.syntax unified
 583              		.thumb
 584              		.thumb_func
 585              		.fpu softvfp
 586              		.type	chSemSignal, %function
 587              	chSemSignal:
 588              	.LFB14:
 589              		.loc 1 271 0
 590              		.cfi_startproc
 591              		@ args = 0, pretend = 0, frame = 0
 592              		@ frame_needed = 0, uses_anonymous_args = 0
 593              	.LVL50:
 594 0000 08B5     		push	{r3, lr}
 595              		.cfi_def_cfa_offset 8
 596              		.cfi_offset 3, -8
 597              		.cfi_offset 14, -4
 598              	.LBB100:
 599              		.loc 1 279 0
 600 0002 4023     		movs	r3, #64
 601              		.syntax unified
 602              	@ 279 "../../os/kernel/src/chsem.c" 1
 603 0004 83F31188 		msr     BASEPRI, r3
 604              	@ 0 "" 2
 605              		.thumb
 606              		.syntax unified
 607              	.LBE100:
 608              		.loc 1 280 0
 609 0008 8368     		ldr	r3, [r0, #8]
 610 000a 0133     		adds	r3, r3, #1
 611 000c 002B     		cmp	r3, #0
 612 000e 8360     		str	r3, [r0, #8]
 613 0010 03DD     		ble	.L58
 614              	.LBB101:
 615              		.loc 1 282 0
 616 0012 0023     		movs	r3, #0
 617              		.syntax unified
 618              	@ 282 "../../os/kernel/src/chsem.c" 1
 619 0014 83F31188 		msr     BASEPRI, r3
 620              	@ 0 "" 2
 621              		.thumb
 622              		.syntax unified
 623 0018 08BD     		pop	{r3, pc}
 624              	.L58:
 625 001a 0346     		mov	r3, r0
 626              	.LVL51:
 627              	.LBE101:
ARM GAS  /tmp/cc1K7B5g.s 			page 12


 628              	.LBB102:
 629              	.LBB103:
 630              		.loc 2 53 0
 631 001c 0068     		ldr	r0, [r0]
 632              	.LVL52:
 633              	.LBE103:
 634              	.LBE102:
 635              		.loc 1 281 0
 636 001e 0021     		movs	r1, #0
 637              	.LBB105:
 638              	.LBB104:
 639              		.loc 2 55 0
 640 0020 0268     		ldr	r2, [r0]
 641 0022 1A60     		str	r2, [r3]
 642 0024 5360     		str	r3, [r2, #4]
 643              	.LVL53:
 644              	.LBE104:
 645              	.LBE105:
 646              		.loc 1 281 0
 647 0026 FFF7FEFF 		bl	chSchWakeupS
 648              	.LVL54:
 649              	.LBB106:
 650              		.loc 1 282 0
 651 002a 0023     		movs	r3, #0
 652              		.syntax unified
 653              	@ 282 "../../os/kernel/src/chsem.c" 1
 654 002c 83F31188 		msr     BASEPRI, r3
 655              	@ 0 "" 2
 656              		.thumb
 657              		.syntax unified
 658 0030 08BD     		pop	{r3, pc}
 659              	.LBE106:
 660              		.cfi_endproc
 661              	.LFE14:
 662              		.size	chSemSignal, .-chSemSignal
 663 0032 00BF     		.section	.text.chSemSignalI,"ax",%progbits
 664              		.align	1
 665              		.p2align 2,,3
 666              		.global	chSemSignalI
 667              		.syntax unified
 668              		.thumb
 669              		.thumb_func
 670              		.fpu softvfp
 671              		.type	chSemSignalI, %function
 672              	chSemSignalI:
 673              	.LFB15:
 674              		.loc 1 296 0
 675              		.cfi_startproc
 676              		@ args = 0, pretend = 0, frame = 0
 677              		@ frame_needed = 0, uses_anonymous_args = 0
 678              		@ link register save eliminated.
 679              	.LVL55:
 680              		.loc 1 305 0
 681 0000 8368     		ldr	r3, [r0, #8]
 682 0002 0133     		adds	r3, r3, #1
 683 0004 002B     		cmp	r3, #0
 684 0006 8360     		str	r3, [r0, #8]
ARM GAS  /tmp/cc1K7B5g.s 			page 13


 685 0008 00DD     		ble	.L64
 686 000a 7047     		bx	lr
 687              	.L64:
 688              		.loc 1 296 0
 689 000c 10B4     		push	{r4}
 690              		.cfi_def_cfa_offset 4
 691              		.cfi_offset 4, -4
 692 000e 0246     		mov	r2, r0
 693              	.LVL56:
 694              	.LBB107:
 695              		.loc 1 309 0
 696 0010 0024     		movs	r4, #0
 697              	.LBB108:
 698              	.LBB109:
 699              		.loc 2 53 0
 700 0012 0368     		ldr	r3, [r0]
 701              	.LVL57:
 702              		.loc 2 55 0
 703 0014 1968     		ldr	r1, [r3]
 704              	.LBE109:
 705              	.LBE108:
 706              		.loc 1 310 0
 707 0016 1846     		mov	r0, r3
 708              	.LVL58:
 709              	.LBB111:
 710              	.LBB110:
 711              		.loc 2 55 0
 712 0018 1160     		str	r1, [r2]
 713 001a 4A60     		str	r2, [r1, #4]
 714              	.LVL59:
 715              	.LBE110:
 716              	.LBE111:
 717              		.loc 1 309 0
 718 001c 5C62     		str	r4, [r3, #36]
 719              	.LBE107:
 720              		.loc 1 312 0
 721 001e 10BC     		pop	{r4}
 722              		.cfi_restore 4
 723              		.cfi_def_cfa_offset 0
 724              	.LBB112:
 725              		.loc 1 310 0
 726 0020 FFF7FEBF 		b	chSchReadyI
 727              	.LVL60:
 728              	.LBE112:
 729              		.cfi_endproc
 730              	.LFE15:
 731              		.size	chSemSignalI, .-chSemSignalI
 732              		.section	.text.chSemAddCounterI,"ax",%progbits
 733              		.align	1
 734              		.p2align 2,,3
 735              		.global	chSemAddCounterI
 736              		.syntax unified
 737              		.thumb
 738              		.thumb_func
 739              		.fpu softvfp
 740              		.type	chSemAddCounterI, %function
 741              	chSemAddCounterI:
ARM GAS  /tmp/cc1K7B5g.s 			page 14


 742              	.LFB16:
 743              		.loc 1 327 0
 744              		.cfi_startproc
 745              		@ args = 0, pretend = 0, frame = 0
 746              		@ frame_needed = 0, uses_anonymous_args = 0
 747              	.LVL61:
 748 0000 70B5     		push	{r4, r5, r6, lr}
 749              		.cfi_def_cfa_offset 16
 750              		.cfi_offset 4, -16
 751              		.cfi_offset 5, -12
 752              		.cfi_offset 6, -8
 753              		.cfi_offset 14, -4
 754              		.loc 1 336 0
 755 0002 0C1E     		subs	r4, r1, #0
 756 0004 12DD     		ble	.L65
 757 0006 0546     		mov	r5, r0
 758              		.loc 1 338 0
 759 0008 0026     		movs	r6, #0
 760 000a 01E0     		b	.L68
 761              	.LVL62:
 762              	.L67:
 763              		.loc 1 336 0
 764 000c 013C     		subs	r4, r4, #1
 765              	.LVL63:
 766 000e 0DD0     		beq	.L65
 767              	.LVL64:
 768              	.L68:
 769              		.loc 1 337 0
 770 0010 AB68     		ldr	r3, [r5, #8]
 771 0012 0133     		adds	r3, r3, #1
 772 0014 002B     		cmp	r3, #0
 773 0016 AB60     		str	r3, [r5, #8]
 774 0018 F8DC     		bgt	.L67
 775              	.LVL65:
 776              	.LBB113:
 777              	.LBB114:
 778              		.loc 2 53 0
 779 001a 2868     		ldr	r0, [r5]
 780              	.LVL66:
 781              		.loc 2 55 0
 782 001c 0368     		ldr	r3, [r0]
 783 001e 2B60     		str	r3, [r5]
 784 0020 5D60     		str	r5, [r3, #4]
 785              	.LVL67:
 786              	.LBE114:
 787              	.LBE113:
 788              		.loc 1 338 0
 789 0022 FFF7FEFF 		bl	chSchReadyI
 790              	.LVL68:
 791              		.loc 1 336 0
 792 0026 013C     		subs	r4, r4, #1
 793              	.LVL69:
 794              		.loc 1 338 0
 795 0028 4662     		str	r6, [r0, #36]
 796              	.LVL70:
 797              		.loc 1 336 0
 798 002a F1D1     		bne	.L68
ARM GAS  /tmp/cc1K7B5g.s 			page 15


 799              	.LVL71:
 800              	.L65:
 801 002c 70BD     		pop	{r4, r5, r6, pc}
 802              		.cfi_endproc
 803              	.LFE16:
 804              		.size	chSemAddCounterI, .-chSemAddCounterI
 805 002e 00BF     		.section	.text.chSemSignalWait,"ax",%progbits
 806              		.align	1
 807              		.p2align 2,,3
 808              		.global	chSemSignalWait
 809              		.syntax unified
 810              		.thumb
 811              		.thumb_func
 812              		.fpu softvfp
 813              		.type	chSemSignalWait, %function
 814              	chSemSignalWait:
 815              	.LFB17:
 816              		.loc 1 359 0
 817              		.cfi_startproc
 818              		@ args = 0, pretend = 0, frame = 8
 819              		@ frame_needed = 0, uses_anonymous_args = 0
 820              	.LVL72:
 821 0000 10B5     		push	{r4, lr}
 822              		.cfi_def_cfa_offset 8
 823              		.cfi_offset 4, -8
 824              		.cfi_offset 14, -4
 825              	.LBB115:
 826              		.loc 1 372 0
 827 0002 4023     		movs	r3, #64
 828              	.LBE115:
 829              		.loc 1 359 0
 830 0004 82B0     		sub	sp, sp, #8
 831              		.cfi_def_cfa_offset 16
 832              	.LBB116:
 833              		.loc 1 372 0
 834              		.syntax unified
 835              	@ 372 "../../os/kernel/src/chsem.c" 1
 836 0006 83F31188 		msr     BASEPRI, r3
 837              	@ 0 "" 2
 838              		.thumb
 839              		.syntax unified
 840              	.LBE116:
 841              		.loc 1 373 0
 842 000a 8368     		ldr	r3, [r0, #8]
 843 000c 0133     		adds	r3, r3, #1
 844 000e 002B     		cmp	r3, #0
 845 0010 8360     		str	r3, [r0, #8]
 846 0012 1DDD     		ble	.L77
 847              	.LVL73:
 848              	.L73:
 849              		.loc 1 375 0
 850 0014 8B68     		ldr	r3, [r1, #8]
 851 0016 013B     		subs	r3, r3, #1
 852 0018 002B     		cmp	r3, #0
 853 001a 8B60     		str	r3, [r1, #8]
 854 001c 07DB     		blt	.L78
 855              		.loc 1 383 0
ARM GAS  /tmp/cc1K7B5g.s 			page 16


 856 001e FFF7FEFF 		bl	chSchRescheduleS
 857              	.LVL74:
 858              		.loc 1 384 0
 859 0022 0020     		movs	r0, #0
 860              	.LVL75:
 861              	.LBB117:
 862              		.loc 1 386 0
 863 0024 0023     		movs	r3, #0
 864              		.syntax unified
 865              	@ 386 "../../os/kernel/src/chsem.c" 1
 866 0026 83F31188 		msr     BASEPRI, r3
 867              	@ 0 "" 2
 868              		.thumb
 869              		.syntax unified
 870              	.LBE117:
 871              		.loc 1 388 0
 872 002a 02B0     		add	sp, sp, #8
 873              		.cfi_remember_state
 874              		.cfi_def_cfa_offset 8
 875              		@ sp needed
 876 002c 10BD     		pop	{r4, pc}
 877              	.LVL76:
 878              	.L78:
 879              		.cfi_restore_state
 880              	.LBB118:
 881              		.loc 1 376 0
 882 002e 0E4A     		ldr	r2, .L79
 883              	.LBB119:
 884              	.LBB120:
 885              		.loc 2 48 0
 886 0030 4B68     		ldr	r3, [r1, #4]
 887              	.LBE120:
 888              	.LBE119:
 889              		.loc 1 376 0
 890 0032 9469     		ldr	r4, [r2, #24]
 891              	.LVL77:
 892              		.loc 1 379 0
 893 0034 0320     		movs	r0, #3
 894              	.LBB122:
 895              	.LBB121:
 896              		.loc 2 48 0
 897 0036 84E80A00 		stm	r4, {r1, r3}
 898              		.loc 2 49 0
 899 003a 4C60     		str	r4, [r1, #4]
 900 003c 1C60     		str	r4, [r3]
 901              	.LVL78:
 902              	.LBE121:
 903              	.LBE122:
 904              		.loc 1 378 0
 905 003e 6162     		str	r1, [r4, #36]
 906              		.loc 1 379 0
 907 0040 FFF7FEFF 		bl	chSchGoSleepS
 908              	.LVL79:
 909              		.loc 1 380 0
 910 0044 606A     		ldr	r0, [r4, #36]
 911              	.LVL80:
 912              	.LBE118:
ARM GAS  /tmp/cc1K7B5g.s 			page 17


 913              	.LBB123:
 914              		.loc 1 386 0
 915 0046 0023     		movs	r3, #0
 916              		.syntax unified
 917              	@ 386 "../../os/kernel/src/chsem.c" 1
 918 0048 83F31188 		msr     BASEPRI, r3
 919              	@ 0 "" 2
 920              		.thumb
 921              		.syntax unified
 922              	.LBE123:
 923              		.loc 1 388 0
 924 004c 02B0     		add	sp, sp, #8
 925              		.cfi_remember_state
 926              		.cfi_def_cfa_offset 8
 927              		@ sp needed
 928 004e 10BD     		pop	{r4, pc}
 929              	.LVL81:
 930              	.L77:
 931              		.cfi_restore_state
 932 0050 0246     		mov	r2, r0
 933              	.LBB124:
 934              	.LBB125:
 935              		.loc 2 53 0
 936 0052 0068     		ldr	r0, [r0]
 937              	.LVL82:
 938 0054 0191     		str	r1, [sp, #4]
 939              	.LVL83:
 940              		.loc 2 55 0
 941 0056 0368     		ldr	r3, [r0]
 942 0058 1360     		str	r3, [r2]
 943 005a 5A60     		str	r2, [r3, #4]
 944              	.LVL84:
 945              	.LBE125:
 946              	.LBE124:
 947              		.loc 1 374 0
 948 005c FFF7FEFF 		bl	chSchReadyI
 949              	.LVL85:
 950 0060 0023     		movs	r3, #0
 951 0062 0199     		ldr	r1, [sp, #4]
 952 0064 4362     		str	r3, [r0, #36]
 953 0066 D5E7     		b	.L73
 954              	.L80:
 955              		.align	2
 956              	.L79:
 957 0068 00000000 		.word	rlist
 958              		.cfi_endproc
 959              	.LFE17:
 960              		.size	chSemSignalWait, .-chSemSignalWait
 961              		.text
 962              	.Letext0:
 963              		.file 3 "/usr/include/newlib/machine/_default_types.h"
 964              		.file 4 "/usr/include/newlib/sys/_stdint.h"
 965              		.file 5 "../../os/ports/GCC/ARMCMx/chtypes.h"
 966              		.file 6 "../../os/kernel/include/chlists.h"
 967              		.file 7 "../../os/kernel/include/chthreads.h"
 968              		.file 8 "../../os/ports/GCC/ARMCMx/chcore_v7m.h"
 969              		.file 9 "../../os/kernel/include/chvt.h"
ARM GAS  /tmp/cc1K7B5g.s 			page 18


 970              		.file 10 "../../os/kernel/include/chschd.h"
 971              		.file 11 "../../os/kernel/include/chsem.h"
 972              		.file 12 "../../os/kernel/include/chmtx.h"
 973              		.file 13 "../../os/kernel/include/chregistry.h"
 974              		.file 14 "../../os/kernel/include/ch.h"