ARM GAS  /tmp/cc34Z630.s 			page 1


   1              		.cpu cortex-m3
   2              		.eabi_attribute 20, 1
   3              		.eabi_attribute 21, 1
   4              		.eabi_attribute 23, 3
   5              		.eabi_attribute 24, 1
   6              		.eabi_attribute 25, 1
   7              		.eabi_attribute 26, 1
   8              		.eabi_attribute 30, 2
   9              		.eabi_attribute 34, 1
  10              		.eabi_attribute 18, 4
  11              		.file	"chthreads.c"
  12              		.text
  13              	.Ltext0:
  14              		.cfi_sections	.debug_frame
  15              		.section	.text._thread_init,"ax",%progbits
  16              		.align	1
  17              		.p2align 2,,3
  18              		.global	_thread_init
  19              		.syntax unified
  20              		.thumb
  21              		.thumb_func
  22              		.fpu softvfp
  23              		.type	_thread_init, %function
  24              	_thread_init:
  25              	.LFB7:
  26              		.file 1 "../../os/kernel/src/chthreads.c"
  27              		.loc 1 69 0
  28              		.cfi_startproc
  29              		@ args = 0, pretend = 0, frame = 0
  30              		@ frame_needed = 0, uses_anonymous_args = 0
  31              	.LVL0:
  32 0000 F0B5     		push	{r4, r5, r6, r7, lr}
  33              		.cfi_def_cfa_offset 20
  34              		.cfi_offset 4, -20
  35              		.cfi_offset 5, -16
  36              		.cfi_offset 6, -12
  37              		.cfi_offset 7, -8
  38              		.cfi_offset 14, -4
  39              		.loc 1 73 0
  40 0002 0022     		movs	r2, #0
  41              		.loc 1 72 0
  42 0004 4FF0020E 		mov	lr, #2
  43              		.loc 1 75 0
  44 0008 1427     		movs	r7, #20
  45              		.loc 1 88 0
  46 000a 0126     		movs	r6, #1
  47              		.loc 1 92 0
  48 000c 0C4C     		ldr	r4, .L3
  49              		.loc 1 71 0
  50 000e 8160     		str	r1, [r0, #8]
  51              		.loc 1 92 0
  52 0010 6569     		ldr	r5, [r4, #20]
  53              		.loc 1 78 0
  54 0012 0164     		str	r1, [r0, #64]
  55              		.loc 1 92 0
  56 0014 0461     		str	r4, [r0, #16]
  57 0016 4561     		str	r5, [r0, #20]
ARM GAS  /tmp/cc34Z630.s 			page 2


  58              		.loc 1 98 0
  59 0018 00F12C01 		add	r1, r0, #44
  60              	.LVL1:
  61              		.loc 1 92 0
  62 001c 6061     		str	r0, [r4, #20]
  63              		.loc 1 95 0
  64 001e 00F12804 		add	r4, r0, #40
  65              		.loc 1 72 0
  66 0022 80F81CE0 		strb	lr, [r0, #28]
  67              		.loc 1 75 0
  68 0026 C777     		strb	r7, [r0, #31]
  69              		.loc 1 88 0
  70 0028 8677     		strb	r6, [r0, #30]
  71              		.loc 1 73 0
  72 002a 4277     		strb	r2, [r0, #29]
  73              		.loc 1 79 0
  74 002c C263     		str	r2, [r0, #60]
  75              		.loc 1 82 0
  76 002e 8263     		str	r2, [r0, #56]
  77              		.loc 1 85 0
  78 0030 0262     		str	r2, [r0, #32]
  79              		.loc 1 91 0
  80 0032 8261     		str	r2, [r0, #24]
  81              		.loc 1 92 0
  82 0034 2861     		str	r0, [r5, #16]
  83              		.loc 1 95 0
  84 0036 8462     		str	r4, [r0, #40]
  85              		.loc 1 98 0
  86 0038 0163     		str	r1, [r0, #48]
  87 003a C162     		str	r1, [r0, #44]
  88              		.loc 1 107 0
  89 003c F0BD     		pop	{r4, r5, r6, r7, pc}
  90              	.L4:
  91 003e 00BF     		.align	2
  92              	.L3:
  93 0040 00000000 		.word	rlist
  94              		.cfi_endproc
  95              	.LFE7:
  96              		.size	_thread_init, .-_thread_init
  97              		.section	.text.chThdCreateI,"ax",%progbits
  98              		.align	1
  99              		.p2align 2,,3
 100              		.global	chThdCreateI
 101              		.syntax unified
 102              		.thumb
 103              		.thumb_func
 104              		.fpu softvfp
 105              		.type	chThdCreateI, %function
 106              	chThdCreateI:
 107              	.LFB8:
 108              		.loc 1 151 0
 109              		.cfi_startproc
 110              		@ args = 4, pretend = 0, frame = 0
 111              		@ frame_needed = 0, uses_anonymous_args = 0
 112              	.LVL2:
 113 0000 2DE9F041 		push	{r4, r5, r6, r7, r8, lr}
 114              		.cfi_def_cfa_offset 24
ARM GAS  /tmp/cc34Z630.s 			page 3


 115              		.cfi_offset 4, -24
 116              		.cfi_offset 5, -20
 117              		.cfi_offset 6, -16
 118              		.cfi_offset 7, -12
 119              		.cfi_offset 8, -8
 120              		.cfi_offset 14, -4
 121              	.LBB16:
 122              	.LBB17:
 123              		.loc 1 75 0
 124 0004 4FF0140C 		mov	ip, #20
 125              		.loc 1 73 0
 126 0008 0025     		movs	r5, #0
 127              		.loc 1 72 0
 128 000a 4FF00208 		mov	r8, #2
 129              		.loc 1 88 0
 130 000e 4FF0010E 		mov	lr, #1
 131              	.LBE17:
 132              	.LBE16:
 133              		.loc 1 160 0
 134 0012 2439     		subs	r1, r1, #36
 135              	.LVL3:
 136 0014 4718     		adds	r7, r0, r1
 137 0016 C760     		str	r7, [r0, #12]
 138 0018 4350     		str	r3, [r0, r1]
 139              		.loc 1 151 0
 140 001a 069B     		ldr	r3, [sp, #24]
 141              	.LVL4:
 142              	.LBB21:
 143              	.LBB18:
 144              		.loc 1 92 0
 145 001c 0F4E     		ldr	r6, .L7
 146              	.LBE18:
 147              	.LBE21:
 148              		.loc 1 160 0
 149 001e 7B60     		str	r3, [r7, #4]
 150 0020 0F4B     		ldr	r3, .L7+4
 151              	.LBB22:
 152              	.LBB19:
 153              		.loc 1 95 0
 154 0022 00F12801 		add	r1, r0, #40
 155              	.LVL5:
 156              	.LBE19:
 157              	.LBE22:
 158              		.loc 1 160 0
 159 0026 3B62     		str	r3, [r7, #32]
 160              	.LVL6:
 161              	.LBB23:
 162              	.LBB20:
 163              		.loc 1 71 0
 164 0028 8260     		str	r2, [r0, #8]
 165              		.loc 1 78 0
 166 002a 0264     		str	r2, [r0, #64]
 167              		.loc 1 92 0
 168 002c 7269     		ldr	r2, [r6, #20]
 169              	.LVL7:
 170              		.loc 1 98 0
 171 002e 00F12C03 		add	r3, r0, #44
ARM GAS  /tmp/cc34Z630.s 			page 4


 172              		.loc 1 92 0
 173 0032 0661     		str	r6, [r0, #16]
 174 0034 4261     		str	r2, [r0, #20]
 175              		.loc 1 72 0
 176 0036 80F81C80 		strb	r8, [r0, #28]
 177              	.LVL8:
 178              		.loc 1 75 0
 179 003a 80F81FC0 		strb	ip, [r0, #31]
 180              		.loc 1 88 0
 181 003e 80F81EE0 		strb	lr, [r0, #30]
 182              		.loc 1 73 0
 183 0042 4577     		strb	r5, [r0, #29]
 184              		.loc 1 92 0
 185 0044 7061     		str	r0, [r6, #20]
 186              		.loc 1 79 0
 187 0046 C563     		str	r5, [r0, #60]
 188              		.loc 1 82 0
 189 0048 8563     		str	r5, [r0, #56]
 190              		.loc 1 85 0
 191 004a 0562     		str	r5, [r0, #32]
 192              		.loc 1 91 0
 193 004c 8561     		str	r5, [r0, #24]
 194              		.loc 1 92 0
 195 004e 1061     		str	r0, [r2, #16]
 196              		.loc 1 95 0
 197 0050 8162     		str	r1, [r0, #40]
 198              		.loc 1 98 0
 199 0052 0363     		str	r3, [r0, #48]
 200 0054 C362     		str	r3, [r0, #44]
 201              	.LVL9:
 202              	.LBE20:
 203              	.LBE23:
 204              		.loc 1 162 0
 205 0056 BDE8F081 		pop	{r4, r5, r6, r7, r8, pc}
 206              	.LVL10:
 207              	.L8:
 208 005a 00BF     		.align	2
 209              	.L7:
 210 005c 00000000 		.word	rlist
 211 0060 00000000 		.word	_port_thread_start
 212              		.cfi_endproc
 213              	.LFE8:
 214              		.size	chThdCreateI, .-chThdCreateI
 215              		.section	.text.chThdCreateStatic,"ax",%progbits
 216              		.align	1
 217              		.p2align 2,,3
 218              		.global	chThdCreateStatic
 219              		.syntax unified
 220              		.thumb
 221              		.thumb_func
 222              		.fpu softvfp
 223              		.type	chThdCreateStatic, %function
 224              	chThdCreateStatic:
 225              	.LFB9:
 226              		.loc 1 181 0
 227              		.cfi_startproc
 228              		@ args = 4, pretend = 0, frame = 0
ARM GAS  /tmp/cc34Z630.s 			page 5


 229              		@ frame_needed = 0, uses_anonymous_args = 0
 230              	.LVL11:
 231 0000 2DE9F042 		push	{r4, r5, r6, r7, r9, lr}
 232              		.cfi_def_cfa_offset 24
 233              		.cfi_offset 4, -24
 234              		.cfi_offset 5, -20
 235              		.cfi_offset 6, -16
 236              		.cfi_offset 7, -12
 237              		.cfi_offset 9, -8
 238              		.cfi_offset 14, -4
 239              		.loc 1 181 0
 240 0004 1E46     		mov	r6, r3
 241 0006 0446     		mov	r4, r0
 242              	.LBB24:
 243              		.loc 1 192 0
 244 0008 4023     		movs	r3, #64
 245              	.LVL12:
 246              		.syntax unified
 247              	@ 192 "../../os/kernel/src/chthreads.c" 1
 248 000a 83F31188 		msr     BASEPRI, r3
 249              	@ 0 "" 2
 250              	.LVL13:
 251              		.thumb
 252              		.syntax unified
 253              	.LBE24:
 254              	.LBB25:
 255              	.LBB26:
 256              	.LBB27:
 257              	.LBB28:
 258              		.loc 1 73 0
 259 000e 0025     		movs	r5, #0
 260              		.loc 1 75 0
 261 0010 4FF0140C 		mov	ip, #20
 262              		.loc 1 88 0
 263 0014 4FF0010E 		mov	lr, #1
 264              		.loc 1 72 0
 265 0018 4FF00209 		mov	r9, #2
 266              	.LBE28:
 267              	.LBE27:
 268              		.loc 1 160 0
 269 001c 2439     		subs	r1, r1, #36
 270              	.LVL14:
 271 001e 4718     		adds	r7, r0, r1
 272 0020 C760     		str	r7, [r0, #12]
 273 0022 4650     		str	r6, [r0, r1]
 274 0024 0699     		ldr	r1, [sp, #24]
 275              	.LVL15:
 276              	.LBB33:
 277              	.LBB29:
 278              		.loc 1 92 0
 279 0026 134B     		ldr	r3, .L11
 280              	.LBE29:
 281              	.LBE33:
 282              		.loc 1 160 0
 283 0028 7960     		str	r1, [r7, #4]
 284 002a 1349     		ldr	r1, .L11+4
 285              	.LBB34:
ARM GAS  /tmp/cc34Z630.s 			page 6


 286              	.LBB30:
 287              		.loc 1 92 0
 288 002c 5E69     		ldr	r6, [r3, #20]
 289              	.LVL16:
 290              	.LBE30:
 291              	.LBE34:
 292              		.loc 1 160 0
 293 002e 3962     		str	r1, [r7, #32]
 294              	.LVL17:
 295              	.LBB35:
 296              	.LBB31:
 297              		.loc 1 71 0
 298 0030 8260     		str	r2, [r0, #8]
 299              		.loc 1 78 0
 300 0032 0264     		str	r2, [r0, #64]
 301              		.loc 1 95 0
 302 0034 00F12807 		add	r7, r0, #40
 303              	.LVL18:
 304              		.loc 1 98 0
 305 0038 00F12C02 		add	r2, r0, #44
 306              	.LVL19:
 307              		.loc 1 92 0
 308 003c 0361     		str	r3, [r0, #16]
 309 003e 4661     		str	r6, [r0, #20]
 310              		.loc 1 72 0
 311 0040 80F81C90 		strb	r9, [r0, #28]
 312              	.LVL20:
 313              		.loc 1 92 0
 314 0044 5861     		str	r0, [r3, #20]
 315              		.loc 1 75 0
 316 0046 80F81FC0 		strb	ip, [r0, #31]
 317              		.loc 1 88 0
 318 004a 80F81EE0 		strb	lr, [r0, #30]
 319              		.loc 1 73 0
 320 004e 4577     		strb	r5, [r0, #29]
 321              		.loc 1 79 0
 322 0050 C563     		str	r5, [r0, #60]
 323              		.loc 1 82 0
 324 0052 8563     		str	r5, [r0, #56]
 325              		.loc 1 85 0
 326 0054 0562     		str	r5, [r0, #32]
 327              		.loc 1 91 0
 328 0056 8561     		str	r5, [r0, #24]
 329              	.LBE31:
 330              	.LBE35:
 331              	.LBE26:
 332              	.LBE25:
 333              		.loc 1 193 0
 334 0058 2946     		mov	r1, r5
 335              	.LBB38:
 336              	.LBB37:
 337              	.LBB36:
 338              	.LBB32:
 339              		.loc 1 92 0
 340 005a 3061     		str	r0, [r6, #16]
 341              		.loc 1 95 0
 342 005c 8762     		str	r7, [r0, #40]
ARM GAS  /tmp/cc34Z630.s 			page 7


 343              		.loc 1 98 0
 344 005e 0263     		str	r2, [r0, #48]
 345 0060 C262     		str	r2, [r0, #44]
 346              	.LVL21:
 347              	.LBE32:
 348              	.LBE36:
 349              	.LBE37:
 350              	.LBE38:
 351              		.loc 1 193 0
 352 0062 FFF7FEFF 		bl	chSchWakeupS
 353              	.LVL22:
 354              	.LBB39:
 355              		.loc 1 194 0
 356 0066 2B46     		mov	r3, r5
 357              		.syntax unified
 358              	@ 194 "../../os/kernel/src/chthreads.c" 1
 359 0068 83F31188 		msr     BASEPRI, r3
 360              	@ 0 "" 2
 361              		.thumb
 362              		.syntax unified
 363              	.LBE39:
 364              		.loc 1 196 0
 365 006c 2046     		mov	r0, r4
 366 006e BDE8F082 		pop	{r4, r5, r6, r7, r9, pc}
 367              	.LVL23:
 368              	.L12:
 369 0072 00BF     		.align	2
 370              	.L11:
 371 0074 00000000 		.word	rlist
 372 0078 00000000 		.word	_port_thread_start
 373              		.cfi_endproc
 374              	.LFE9:
 375              		.size	chThdCreateStatic, .-chThdCreateStatic
 376              		.section	.text.chThdSetPriority,"ax",%progbits
 377              		.align	1
 378              		.p2align 2,,3
 379              		.global	chThdSetPriority
 380              		.syntax unified
 381              		.thumb
 382              		.thumb_func
 383              		.fpu softvfp
 384              		.type	chThdSetPriority, %function
 385              	chThdSetPriority:
 386              	.LFB10:
 387              		.loc 1 210 0
 388              		.cfi_startproc
 389              		@ args = 0, pretend = 0, frame = 0
 390              		@ frame_needed = 0, uses_anonymous_args = 0
 391              	.LVL24:
 392 0000 10B5     		push	{r4, lr}
 393              		.cfi_def_cfa_offset 8
 394              		.cfi_offset 4, -8
 395              		.cfi_offset 14, -4
 396              	.LBB40:
 397              		.loc 1 215 0
 398 0002 4023     		movs	r3, #64
 399              		.syntax unified
ARM GAS  /tmp/cc34Z630.s 			page 8


 400              	@ 215 "../../os/kernel/src/chthreads.c" 1
 401 0004 83F31188 		msr     BASEPRI, r3
 402              	@ 0 "" 2
 403              		.thumb
 404              		.syntax unified
 405              	.LBE40:
 406              		.loc 1 217 0
 407 0008 084B     		ldr	r3, .L18
 408 000a 9B69     		ldr	r3, [r3, #24]
 409 000c 1C6C     		ldr	r4, [r3, #64]
 410              	.LVL25:
 411              		.loc 1 218 0
 412 000e 9968     		ldr	r1, [r3, #8]
 413 0010 8C42     		cmp	r4, r1
 414 0012 01D0     		beq	.L14
 415              		.loc 1 218 0 is_stmt 0 discriminator 1
 416 0014 8142     		cmp	r1, r0
 417 0016 00D2     		bcs	.L15
 418              	.L14:
 419              		.loc 1 219 0 is_stmt 1
 420 0018 9860     		str	r0, [r3, #8]
 421              	.L15:
 422              		.loc 1 220 0
 423 001a 1864     		str	r0, [r3, #64]
 424              		.loc 1 225 0
 425 001c FFF7FEFF 		bl	chSchRescheduleS
 426              	.LVL26:
 427              	.LBB41:
 428              		.loc 1 226 0
 429 0020 0023     		movs	r3, #0
 430              		.syntax unified
 431              	@ 226 "../../os/kernel/src/chthreads.c" 1
 432 0022 83F31188 		msr     BASEPRI, r3
 433              	@ 0 "" 2
 434              		.thumb
 435              		.syntax unified
 436              	.LBE41:
 437              		.loc 1 228 0
 438 0026 2046     		mov	r0, r4
 439 0028 10BD     		pop	{r4, pc}
 440              	.LVL27:
 441              	.L19:
 442 002a 00BF     		.align	2
 443              	.L18:
 444 002c 00000000 		.word	rlist
 445              		.cfi_endproc
 446              	.LFE10:
 447              		.size	chThdSetPriority, .-chThdSetPriority
 448              		.section	.text.chThdResume,"ax",%progbits
 449              		.align	1
 450              		.p2align 2,,3
 451              		.global	chThdResume
 452              		.syntax unified
 453              		.thumb
 454              		.thumb_func
 455              		.fpu softvfp
 456              		.type	chThdResume, %function
ARM GAS  /tmp/cc34Z630.s 			page 9


 457              	chThdResume:
 458              	.LFB11:
 459              		.loc 1 243 0
 460              		.cfi_startproc
 461              		@ args = 0, pretend = 0, frame = 0
 462              		@ frame_needed = 0, uses_anonymous_args = 0
 463              	.LVL28:
 464 0000 10B5     		push	{r4, lr}
 465              		.cfi_def_cfa_offset 8
 466              		.cfi_offset 4, -8
 467              		.cfi_offset 14, -4
 468              	.LBB42:
 469              		.loc 1 245 0
 470 0002 4023     		movs	r3, #64
 471              	.LBE42:
 472              		.loc 1 243 0
 473 0004 0446     		mov	r4, r0
 474              	.LBB43:
 475              		.loc 1 245 0
 476              		.syntax unified
 477              	@ 245 "../../os/kernel/src/chthreads.c" 1
 478 0006 83F31188 		msr     BASEPRI, r3
 479              	@ 0 "" 2
 480              		.thumb
 481              		.syntax unified
 482              	.LBE43:
 483              		.loc 1 249 0
 484 000a 0021     		movs	r1, #0
 485 000c FFF7FEFF 		bl	chSchWakeupS
 486              	.LVL29:
 487              	.LBB44:
 488              		.loc 1 250 0
 489 0010 0023     		movs	r3, #0
 490              		.syntax unified
 491              	@ 250 "../../os/kernel/src/chthreads.c" 1
 492 0012 83F31188 		msr     BASEPRI, r3
 493              	@ 0 "" 2
 494              		.thumb
 495              		.syntax unified
 496              	.LBE44:
 497              		.loc 1 252 0
 498 0016 2046     		mov	r0, r4
 499 0018 10BD     		pop	{r4, pc}
 500              		.cfi_endproc
 501              	.LFE11:
 502              		.size	chThdResume, .-chThdResume
 503 001a 00BF     		.section	.text.chThdTerminate,"ax",%progbits
 504              		.align	1
 505              		.p2align 2,,3
 506              		.global	chThdTerminate
 507              		.syntax unified
 508              		.thumb
 509              		.thumb_func
 510              		.fpu softvfp
 511              		.type	chThdTerminate, %function
 512              	chThdTerminate:
 513              	.LFB12:
ARM GAS  /tmp/cc34Z630.s 			page 10


 514              		.loc 1 266 0
 515              		.cfi_startproc
 516              		@ args = 0, pretend = 0, frame = 0
 517              		@ frame_needed = 0, uses_anonymous_args = 0
 518              		@ link register save eliminated.
 519              	.LVL30:
 520              	.LBB45:
 521              		.loc 1 268 0
 522 0000 4023     		movs	r3, #64
 523              		.syntax unified
 524              	@ 268 "../../os/kernel/src/chthreads.c" 1
 525 0002 83F31188 		msr     BASEPRI, r3
 526              	@ 0 "" 2
 527              		.thumb
 528              		.syntax unified
 529              	.LBE45:
 530              		.loc 1 269 0
 531 0006 427F     		ldrb	r2, [r0, #29]	@ zero_extendqisi2
 532              	.LBB46:
 533              		.loc 1 270 0
 534 0008 0023     		movs	r3, #0
 535              	.LBE46:
 536              		.loc 1 269 0
 537 000a 42F00402 		orr	r2, r2, #4
 538 000e 4277     		strb	r2, [r0, #29]
 539              	.LBB47:
 540              		.loc 1 270 0
 541              		.syntax unified
 542              	@ 270 "../../os/kernel/src/chthreads.c" 1
 543 0010 83F31188 		msr     BASEPRI, r3
 544              	@ 0 "" 2
 545              		.thumb
 546              		.syntax unified
 547 0014 7047     		bx	lr
 548              	.LBE47:
 549              		.cfi_endproc
 550              	.LFE12:
 551              		.size	chThdTerminate, .-chThdTerminate
 552 0016 00BF     		.section	.text.chThdSleep,"ax",%progbits
 553              		.align	1
 554              		.p2align 2,,3
 555              		.global	chThdSleep
 556              		.syntax unified
 557              		.thumb
 558              		.thumb_func
 559              		.fpu softvfp
 560              		.type	chThdSleep, %function
 561              	chThdSleep:
 562              	.LFB13:
 563              		.loc 1 285 0
 564              		.cfi_startproc
 565              		@ args = 0, pretend = 0, frame = 0
 566              		@ frame_needed = 0, uses_anonymous_args = 0
 567              	.LVL31:
 568 0000 08B5     		push	{r3, lr}
 569              		.cfi_def_cfa_offset 8
 570              		.cfi_offset 3, -8
ARM GAS  /tmp/cc34Z630.s 			page 11


 571              		.cfi_offset 14, -4
 572              		.loc 1 285 0
 573 0002 0146     		mov	r1, r0
 574              	.LBB48:
 575              		.loc 1 289 0
 576 0004 4023     		movs	r3, #64
 577              		.syntax unified
 578              	@ 289 "../../os/kernel/src/chthreads.c" 1
 579 0006 83F31188 		msr     BASEPRI, r3
 580              	@ 0 "" 2
 581              		.thumb
 582              		.syntax unified
 583              	.LBE48:
 584              		.loc 1 290 0
 585 000a 0620     		movs	r0, #6
 586              	.LVL32:
 587 000c FFF7FEFF 		bl	chSchGoSleepTimeoutS
 588              	.LVL33:
 589              	.LBB49:
 590              		.loc 1 291 0
 591 0010 0023     		movs	r3, #0
 592              		.syntax unified
 593              	@ 291 "../../os/kernel/src/chthreads.c" 1
 594 0012 83F31188 		msr     BASEPRI, r3
 595              	@ 0 "" 2
 596              		.thumb
 597              		.syntax unified
 598 0016 08BD     		pop	{r3, pc}
 599              	.LBE49:
 600              		.cfi_endproc
 601              	.LFE13:
 602              		.size	chThdSleep, .-chThdSleep
 603              		.section	.text.chThdSleepUntil,"ax",%progbits
 604              		.align	1
 605              		.p2align 2,,3
 606              		.global	chThdSleepUntil
 607              		.syntax unified
 608              		.thumb
 609              		.thumb_func
 610              		.fpu softvfp
 611              		.type	chThdSleepUntil, %function
 612              	chThdSleepUntil:
 613              	.LFB14:
 614              		.loc 1 302 0
 615              		.cfi_startproc
 616              		@ args = 0, pretend = 0, frame = 0
 617              		@ frame_needed = 0, uses_anonymous_args = 0
 618              	.LVL34:
 619 0000 08B5     		push	{r3, lr}
 620              		.cfi_def_cfa_offset 8
 621              		.cfi_offset 3, -8
 622              		.cfi_offset 14, -4
 623              	.LBB50:
 624              		.loc 1 304 0
 625 0002 4023     		movs	r3, #64
 626              		.syntax unified
 627              	@ 304 "../../os/kernel/src/chthreads.c" 1
ARM GAS  /tmp/cc34Z630.s 			page 12


 628 0004 83F31188 		msr     BASEPRI, r3
 629              	@ 0 "" 2
 630              		.thumb
 631              		.syntax unified
 632              	.LBE50:
 633              		.loc 1 305 0
 634 0008 054B     		ldr	r3, .L31
 635 000a D968     		ldr	r1, [r3, #12]
 636              	.LVL35:
 637 000c 411A     		subs	r1, r0, r1
 638              	.LVL36:
 639 000e 02D0     		beq	.L26
 640              		.loc 1 306 0
 641 0010 0620     		movs	r0, #6
 642 0012 FFF7FEFF 		bl	chSchGoSleepTimeoutS
 643              	.LVL37:
 644              	.L26:
 645              	.LBB51:
 646              		.loc 1 307 0
 647 0016 0023     		movs	r3, #0
 648              		.syntax unified
 649              	@ 307 "../../os/kernel/src/chthreads.c" 1
 650 0018 83F31188 		msr     BASEPRI, r3
 651              	@ 0 "" 2
 652              		.thumb
 653              		.syntax unified
 654 001c 08BD     		pop	{r3, pc}
 655              	.L32:
 656 001e 00BF     		.align	2
 657              	.L31:
 658 0020 00000000 		.word	vtlist
 659              	.LBE51:
 660              		.cfi_endproc
 661              	.LFE14:
 662              		.size	chThdSleepUntil, .-chThdSleepUntil
 663              		.section	.text.chThdYield,"ax",%progbits
 664              		.align	1
 665              		.p2align 2,,3
 666              		.global	chThdYield
 667              		.syntax unified
 668              		.thumb
 669              		.thumb_func
 670              		.fpu softvfp
 671              		.type	chThdYield, %function
 672              	chThdYield:
 673              	.LFB15:
 674              		.loc 1 317 0
 675              		.cfi_startproc
 676              		@ args = 0, pretend = 0, frame = 0
 677              		@ frame_needed = 0, uses_anonymous_args = 0
 678 0000 08B5     		push	{r3, lr}
 679              		.cfi_def_cfa_offset 8
 680              		.cfi_offset 3, -8
 681              		.cfi_offset 14, -4
 682              	.LBB52:
 683              		.loc 1 319 0
 684 0002 4023     		movs	r3, #64
ARM GAS  /tmp/cc34Z630.s 			page 13


 685              		.syntax unified
 686              	@ 319 "../../os/kernel/src/chthreads.c" 1
 687 0004 83F31188 		msr     BASEPRI, r3
 688              	@ 0 "" 2
 689              		.thumb
 690              		.syntax unified
 691              	.LBE52:
 692              		.loc 1 320 0
 693 0008 064B     		ldr	r3, .L36
 694 000a 1A68     		ldr	r2, [r3]
 695 000c 9B69     		ldr	r3, [r3, #24]
 696 000e 9268     		ldr	r2, [r2, #8]
 697 0010 9B68     		ldr	r3, [r3, #8]
 698 0012 9A42     		cmp	r2, r3
 699 0014 01D3     		bcc	.L34
 700              		.loc 1 320 0 is_stmt 0 discriminator 1
 701 0016 FFF7FEFF 		bl	chSchDoRescheduleBehind
 702              	.LVL38:
 703              	.L34:
 704              	.LBB53:
 705              		.loc 1 321 0 is_stmt 1
 706 001a 0023     		movs	r3, #0
 707              		.syntax unified
 708              	@ 321 "../../os/kernel/src/chthreads.c" 1
 709 001c 83F31188 		msr     BASEPRI, r3
 710              	@ 0 "" 2
 711              		.thumb
 712              		.syntax unified
 713 0020 08BD     		pop	{r3, pc}
 714              	.L37:
 715 0022 00BF     		.align	2
 716              	.L36:
 717 0024 00000000 		.word	rlist
 718              	.LBE53:
 719              		.cfi_endproc
 720              	.LFE15:
 721              		.size	chThdYield, .-chThdYield
 722              		.section	.text.chThdExitS,"ax",%progbits
 723              		.align	1
 724              		.p2align 2,,3
 725              		.global	chThdExitS
 726              		.syntax unified
 727              		.thumb
 728              		.thumb_func
 729              		.fpu softvfp
 730              		.type	chThdExitS, %function
 731              	chThdExitS:
 732              	.LFB17:
 733              		.loc 1 359 0
 734              		.cfi_startproc
 735              		@ args = 0, pretend = 0, frame = 0
 736              		@ frame_needed = 0, uses_anonymous_args = 0
 737              	.LVL39:
 738 0000 38B5     		push	{r3, r4, r5, lr}
 739              		.cfi_def_cfa_offset 16
 740              		.cfi_offset 3, -16
 741              		.cfi_offset 4, -12
ARM GAS  /tmp/cc34Z630.s 			page 14


 742              		.cfi_offset 5, -8
 743              		.cfi_offset 14, -4
 744              		.loc 1 360 0
 745 0002 0E4B     		ldr	r3, .L46
 746 0004 9C69     		ldr	r4, [r3, #24]
 747              	.LVL40:
 748              		.loc 1 367 0
 749 0006 2546     		mov	r5, r4
 750              		.loc 1 362 0
 751 0008 6062     		str	r0, [r4, #36]
 752              		.loc 1 367 0
 753 000a 55F8280F 		ldr	r0, [r5, #40]!
 754              	.LVL41:
 755 000e A842     		cmp	r0, r5
 756 0010 06D0     		beq	.L43
 757              	.LVL42:
 758              	.L42:
 759              	.LBB54:
 760              	.LBB55:
 761              		.file 2 "../../os/kernel/include/chinline.h"
 762              		.loc 2 82 0
 763 0012 0368     		ldr	r3, [r0]
 764 0014 A362     		str	r3, [r4, #40]
 765              	.LVL43:
 766              	.LBE55:
 767              	.LBE54:
 768              		.loc 1 368 0
 769 0016 FFF7FEFF 		bl	chSchReadyI
 770              	.LVL44:
 771              		.loc 1 367 0
 772 001a A06A     		ldr	r0, [r4, #40]
 773 001c A842     		cmp	r0, r5
 774 001e F8D1     		bne	.L42
 775              	.L43:
 776              		.loc 1 373 0
 777 0020 637F     		ldrb	r3, [r4, #29]	@ zero_extendqisi2
 778 0022 9B07     		lsls	r3, r3, #30
 779 0024 04D1     		bne	.L41
 780              		.loc 1 374 0
 781 0026 2269     		ldr	r2, [r4, #16]
 782 0028 6369     		ldr	r3, [r4, #20]
 783 002a 1A61     		str	r2, [r3, #16]
 784 002c 2269     		ldr	r2, [r4, #16]
 785 002e 5361     		str	r3, [r2, #20]
 786              	.L41:
 787              		.loc 1 376 0
 788 0030 0E20     		movs	r0, #14
 789              		.loc 1 379 0
 790 0032 BDE83840 		pop	{r3, r4, r5, lr}
 791              		.cfi_restore 14
 792              		.cfi_restore 5
 793              		.cfi_restore 4
 794              		.cfi_restore 3
 795              		.cfi_def_cfa_offset 0
 796              	.LVL45:
 797              		.loc 1 376 0
 798 0036 FFF7FEBF 		b	chSchGoSleepS
ARM GAS  /tmp/cc34Z630.s 			page 15


 799              	.LVL46:
 800              	.L47:
 801 003a 00BF     		.align	2
 802              	.L46:
 803 003c 00000000 		.word	rlist
 804              		.cfi_endproc
 805              	.LFE17:
 806              		.size	chThdExitS, .-chThdExitS
 807              		.section	.text.chThdExit,"ax",%progbits
 808              		.align	1
 809              		.p2align 2,,3
 810              		.global	chThdExit
 811              		.syntax unified
 812              		.thumb
 813              		.thumb_func
 814              		.fpu softvfp
 815              		.type	chThdExit, %function
 816              	chThdExit:
 817              	.LFB16:
 818              		.loc 1 338 0
 819              		.cfi_startproc
 820              		@ args = 0, pretend = 0, frame = 0
 821              		@ frame_needed = 0, uses_anonymous_args = 0
 822              		@ link register save eliminated.
 823              	.LVL47:
 824              	.LBB56:
 825              		.loc 1 340 0
 826 0000 4023     		movs	r3, #64
 827              		.syntax unified
 828              	@ 340 "../../os/kernel/src/chthreads.c" 1
 829 0002 83F31188 		msr     BASEPRI, r3
 830              	@ 0 "" 2
 831              		.thumb
 832              		.syntax unified
 833              	.LBE56:
 834              		.loc 1 341 0
 835 0006 FFF7FEBF 		b	chThdExitS
 836              	.LVL48:
 837              		.cfi_endproc
 838              	.LFE16:
 839              		.size	chThdExit, .-chThdExit
 840 000a 00BF     		.section	.text.chThdWait,"ax",%progbits
 841              		.align	1
 842              		.p2align 2,,3
 843              		.global	chThdWait
 844              		.syntax unified
 845              		.thumb
 846              		.thumb_func
 847              		.fpu softvfp
 848              		.type	chThdWait, %function
 849              	chThdWait:
 850              	.LFB18:
 851              		.loc 1 413 0
 852              		.cfi_startproc
 853              		@ args = 0, pretend = 0, frame = 0
 854              		@ frame_needed = 0, uses_anonymous_args = 0
 855              	.LVL49:
ARM GAS  /tmp/cc34Z630.s 			page 16


 856 0000 38B5     		push	{r3, r4, r5, lr}
 857              		.cfi_def_cfa_offset 16
 858              		.cfi_offset 3, -16
 859              		.cfi_offset 4, -12
 860              		.cfi_offset 5, -8
 861              		.cfi_offset 14, -4
 862              		.loc 1 413 0
 863 0002 0446     		mov	r4, r0
 864              	.LBB57:
 865              		.loc 1 418 0
 866 0004 4023     		movs	r3, #64
 867              		.syntax unified
 868              	@ 418 "../../os/kernel/src/chthreads.c" 1
 869 0006 83F31188 		msr     BASEPRI, r3
 870              	@ 0 "" 2
 871              		.thumb
 872              		.syntax unified
 873              	.LBE57:
 874              		.loc 1 423 0
 875 000a 037F     		ldrb	r3, [r0, #28]	@ zero_extendqisi2
 876 000c 0E2B     		cmp	r3, #14
 877 000e 07D0     		beq	.L50
 878              		.loc 1 419 0
 879 0010 084B     		ldr	r3, .L55
 880              	.LBB58:
 881              	.LBB59:
 882              		.loc 2 75 0
 883 0012 826A     		ldr	r2, [r0, #40]
 884              	.LBE59:
 885              	.LBE58:
 886              		.loc 1 419 0
 887 0014 9B69     		ldr	r3, [r3, #24]
 888              	.LVL50:
 889              		.loc 1 425 0
 890 0016 0720     		movs	r0, #7
 891              	.LVL51:
 892              	.LBB61:
 893              	.LBB60:
 894              		.loc 2 75 0
 895 0018 1A60     		str	r2, [r3]
 896              		.loc 2 76 0
 897 001a A362     		str	r3, [r4, #40]
 898              	.LVL52:
 899              	.LBE60:
 900              	.LBE61:
 901              		.loc 1 425 0
 902 001c FFF7FEFF 		bl	chSchGoSleepS
 903              	.LVL53:
 904              	.L50:
 905              		.loc 1 427 0
 906 0020 656A     		ldr	r5, [r4, #36]
 907              	.LVL54:
 908              	.LBB62:
 909              		.loc 1 428 0
 910 0022 0023     		movs	r3, #0
 911              		.syntax unified
 912              	@ 428 "../../os/kernel/src/chthreads.c" 1
ARM GAS  /tmp/cc34Z630.s 			page 17


 913 0024 83F31188 		msr     BASEPRI, r3
 914              	@ 0 "" 2
 915              		.thumb
 916              		.syntax unified
 917              	.LBE62:
 918              		.loc 1 430 0
 919 0028 2046     		mov	r0, r4
 920 002a FFF7FEFF 		bl	chThdRelease
 921              	.LVL55:
 922              		.loc 1 433 0
 923 002e 2846     		mov	r0, r5
 924 0030 38BD     		pop	{r3, r4, r5, pc}
 925              	.LVL56:
 926              	.L56:
 927 0032 00BF     		.align	2
 928              	.L55:
 929 0034 00000000 		.word	rlist
 930              		.cfi_endproc
 931              	.LFE18:
 932              		.size	chThdWait, .-chThdWait
 933              		.text
 934              	.Letext0:
 935              		.file 3 "/usr/lib/gcc/arm-none-eabi/6.3.1/include/stddef.h"
 936              		.file 4 "/usr/include/newlib/machine/_default_types.h"
 937              		.file 5 "/usr/include/newlib/sys/_stdint.h"
 938              		.file 6 "../../os/ports/GCC/ARMCMx/chtypes.h"
 939              		.file 7 "../../os/kernel/include/chlists.h"
 940              		.file 8 "../../os/kernel/include/chthreads.h"
 941              		.file 9 "../../os/ports/GCC/ARMCMx/chcore_v7m.h"
 942              		.file 10 "../../os/kernel/include/chvt.h"
 943              		.file 11 "../../os/kernel/include/chschd.h"
 944              		.file 12 "../../os/kernel/include/chmtx.h"
 945              		.file 13 "../../os/kernel/include/chregistry.h"
 946              		.file 14 "../../os/kernel/include/ch.h"
 947              		.file 15 "../../os/kernel/include/chdynamic.h"