ARM GAS  /tmp/cc34Z630.s 			page 1


   1              		.cpu cortex-m3
   2              		.eabi_attribute 20, 1
   3              		.eabi_attribute 21, 1
   4              		.eabi_attribute 23, 3
   5              		.eabi_attribute 24, 1
   6              		.eabi_attribute 25, 1
   7              		.eabi_attribute 26, 1
   8              		.eabi_attribute 30, 2
   9              		.eabi_attribute 34, 1
  10              		.eabi_attribute 18, 4
  11              		.file	"chthreads.c"
  12              		.text
  13              	.Ltext0:
  14              		.cfi_sections	.debug_frame
  15              		.section	.text._thread_init,"ax",%progbits
  16              		.align	1
  17              		.p2align 2,,3
  18              		.global	_thread_init
  19              		.syntax unified
  20              		.thumb
  21              		.thumb_func
  22              		.fpu softvfp
  23              		.type	_thread_init, %function
  24              	_thread_init:
  25              	.LFB7:
  26              		.file 1 "../../os/kernel/src/chthreads.c"
  27              		.loc 1 69 0
  28              		.cfi_startproc
  29              		@ args = 0, pretend = 0, frame = 0
  30              		@ frame_needed = 0, uses_anonymous_args = 0
  31              	.LVL0:
  32 0000 F0B5     		push	{r4, r5, r6, r7, lr}
  33              		.cfi_def_cfa_offset 20
  34              		.cfi_offset 4, -20
  35              		.cfi_offset 5, -16
  36              		.cfi_offset 6, -12
  37              		.cfi_offset 7, -8
  38              		.cfi_offset 14, -4
  39              		.loc 1 73 0
  40 0002 0022     		movs	r2, #0
  41              		.loc 1 72 0
  42 0004 4FF0020E 		mov	lr, #2
  43              		.loc 1 75 0
  44 0008 1427     		movs	r7, #20
  45              		.loc 1 88 0
  46 000a 0126     		movs	r6, #1
  47              		.loc 1 92 0
  48 000c 0C4C     		ldr	r4, .L3
  49              		.loc 1 71 0
  50 000e 8160     		str	r1, [r0, #8]
  51              		.loc 1 92 0
  52 0010 6569     		ldr	r5, [r4, #20]
  53              		.loc 1 78 0
  54 0012 0164     		str	r1, [r0, #64]
  55              		.loc 1 92 0
  56 0014 0461     		str	r4, [r0, #16]
  57 0016 4561     		str	r5, [r0, #20]
ARM GAS  /tmp/cc34Z630.s 			page 2


  58              		.loc 1 98 0
  59 0018 00F12C01 		add	r1, r0, #44
  60              	.LVL1:
  61              		.loc 1 92 0
  62 001c 6061     		str	r0, [r4, #20]
  63              		.loc 1 95 0
  64 001e 00F12804 		add	r4, r0, #40
  65              		.loc 1 72 0
  66 0022 80F81CE0 		strb	lr, [r0, #28]
  67              		.loc 1 75 0
  68 0026 C777     		strb	r7, [r0, #31]
  69              		.loc 1 88 0
  70 0028 8677     		strb	r6, [r0, #30]
  71              		.loc 1 73 0
  72 002a 4277     		strb	r2, [r0, #29]
  73              		.loc 1 79 0
  74 002c C263     		str	r2, [r0, #60]
  75              		.loc 1 82 0
  76 002e 8263     		str	r2, [r0, #56]
  77              		.loc 1 85 0
  78 0030 0262     		str	r2, [r0, #32]
  79              		.loc 1 91 0
  80 0032 8261     		str	r2, [r0, #24]
  81              		.loc 1 92 0
  82 0034 2861     		str	r0, [r5, #16]
  83              		.loc 1 95 0
  84 0036 8462     		str	r4, [r0, #40]
  85              		.loc 1 98 0
  86 0038 0163     		str	r1, [r0, #48]
  87 003a C162     		str	r1, [r0, #44]
  88              		.loc 1 107 0
  89 003c F0BD     		pop	{r4, r5, r6, r7, pc}
  90              	.L4:
  91 003e 00BF     		.align	2
  92              	.L3:
  93 0040 00000000 		.word	rlist
  94              		.cfi_endproc
  95              	.LFE7:
  96              		.size	_thread_init, .-_thread_init
  97              		.section	.text.chThdCreateI,"ax",%progbits
  98              		.align	1
  99              		.p2align 2,,3
 100              		.global	chThdCreateI
 101              		.syntax unified
 102              		.thumb
 103              		.thumb_func
 104              		.fpu softvfp
 105              		.type	chThdCreateI, %function
 106              	chThdCreateI:
 107              	.LFB8:
 108              		.loc 1 151 0
 109              		.cfi_startproc
 110              		@ args = 4, pretend = 0, frame = 0
 111              		@ frame_needed = 0, uses_anonymous_args = 0
 112              	.LVL2:
 113 0000 2DE9F041 		push	{r4, r5, r6, r7, r8, lr}
 114              		.cfi_def_cfa_offset 24
ARM GAS  /tmp/cc34Z630.s 			page 3


 115              		.cfi_offset 4, -24
 116              		.cfi_offset 5, -20
 117              		.cfi_offset 6, -16
 118              		.cfi_offset 7, -12
 119              		.cfi_offset 8, -8
 120              		.cfi_offset 14, -4
 121              	.LBB16:
 122              	.LBB17:
 123              		.loc 1 75 0
 124 0004 4FF0140C 		mov	ip, #20
 125              		.loc 1 73 0
 126 0008 0025     		movs	r5, #0
 127              		.loc 1 72 0
 128 000a 4FF00208 		mov	r8, #2
 129              		.loc 1 88 0
 130 000e 4FF0010E 		mov	lr, #1
 131              	.LBE17:
 132              	.LBE16:
 133              		.loc 1 160 0
 134 0012 2439     		subs	r1, r1, #36
 135              	.LVL3:
 136 0014 4718     		adds	r7, r0, r1
 137 0016 C760     		str	r7, [r0, #12]
 138 0018 4350     		str	r3, [r0, r1]
 139              		.loc 1 151 0
 140 001a 069B     		ldr	r3, [sp, #24]
 141              	.LVL4:
 142              	.LBB21:
 143              	.LBB18:
 144              		.loc 1 92 0
 145 001c 0F4E     		ldr	r6, .L7
 146              	.LBE18:
 147              	.LBE21:
 148              		.loc 1 160 0
 149 001e 7B60     		str	r3, [r7, #4]
 150 0020 0F4B     		ldr	r3, .L7+4
 151              	.LBB22:
 152              	.LBB19:
 153              		.loc 1 95 0
 154 0022 00F12801 		add	r1, r0, #40
 155              	.LVL5:
 156              	.LBE19:
 157              	.LBE22:
 158              		.loc 1 160 0
 159 0026 3B62     		str	r3, [r7, #32]
 160              	.LVL6:
 161              	.LBB23:
 162              	.LBB20:
 163              		.loc 1 71 0
 164 0028 8260     		str	r2, [r0, #8]
 165              		.loc 1 78 0
 166 002a 0264     		str	r2, [r0, #64]
 167              		.loc 1 92 0
 168 002c 7269     		ldr	r2, [r6, #20]
 169              	.LVL7:
 170              		.loc 1 98 0
 171 002e 00F12C03 		add	r3, r0, #44
ARM GAS  /tmp/cc34Z630.s 			page 4


 172              		.loc 1 92 0
 173 0032 0661     		str	r6, [r0, #16]
 174 0034 4261     		str	r2, [r0, #20]
 175              		.loc 1 72 0
 176 0036 80F81C80 		strb	r8, [r0, #28]
 177              	.LVL8:
 178              		.loc 1 75 0
 179 003a 80F81FC0 		strb	ip, [r0, #31]
 180              		.loc 1 88 0
 181 003e 80F81EE0 		strb	lr, [r0, #30]
 182              		.loc 1 73 0
 183 0042 4577     		strb	r5, [r0, #29]
 184              		.loc 1 92 0
 185 0044 7061     		str	r0, [r6, #20]
 186              		.loc 1 79 0
 187 0046 C563     		str	r5, [r0, #60]
 188              		.loc 1 82 0
 189 0048 8563     		str	r5, [r0, #56]
 190              		.loc 1 85 0
 191 004a 0562     		str	r5, [r0, #32]
 192              		.loc 1 91 0
 193 004c 8561     		str	r5, [r0, #24]
 194              		.loc 1 92 0
 195 004e 1061     		str	r0, [r2, #16]
 196              		.loc 1 95 0
 197 0050 8162     		str	r1, [r0, #40]
 198              		.loc 1 98 0
 199 0052 0363     		str	r3, [r0, #48]
 200 0054 C362     		str	r3, [r0, #44]
 201              	.LVL9:
 202              	.LBE20:
 203              	.LBE23:
 204              		.loc 1 162 0
 205 0056 BDE8F081 		pop	{r4, r5, r6, r7, r8, pc}
 206              	.LVL10:
 207              	.L8:
 208 005a 00BF     		.align	2
 209              	.L7:
 210 005c 00000000 		.word	rlist
 211 0060 00000000 		.word	_port_thread_start
 212              		.cfi_endproc
 213              	.LFE8:
 214              		.size	chThdCreateI, .-chThdCreateI
 215              		.section	.text.chThdCreateStatic,"ax",%progbits
 216              		.align	1
 217              		.p2align 2,,3
 218              		.global	chThdCreateStatic
 219              		.syntax unified
 220              		.thumb
 221              		.thumb_func
 222              		.fpu softvfp
 223              		.type	chThdCreateStatic, %function
 224              	chThdCreateStatic:
 225              	.LFB9:
 226              		.loc 1 181 0
 227              		.cfi_startproc
 228              		@ args = 4, pretend = 0, frame = 0
ARM GAS  /tmp/cc34Z630.s 			page 5


 229              		@ frame_needed = 0, uses_anonymous_args = 0
 230              	.LVL11:
 231 0000 2DE9F042 		push	{r4, r5, r6, r7, r9, lr}
 232              		.cfi_def_cfa_offset 24
 233              		.cfi_offset 4, -24
 234              		.cfi_offset 5, -20
 235              		.cfi_offset 6, -16
 236              		.cfi_offset 7, -12
 237              		.cfi_offset 9, -8
 238              		.cfi_offset 14, -4
 239              		.loc 1 181 0
 240 0004 1E46     		mov	r6, r3
 241 0006 0446     		mov	r4, r0
 242              	.LBB24:
 243              		.loc 1 192 0
 244 0008 4023     		movs	r3, #64
 245              	.LVL12:
 246              		.syntax unified
 247              	@ 192 "../../os/kernel/src/chthreads.c" 1
 248 000a 83F31188 		msr     BASEPRI, r3
 249              	@ 0 "" 2
 250              	.LVL13:
 251              		.thumb
 252              		.syntax unified
 253              	.LBE24:
 254              	.LBB25:
 255              	.LBB26:
 256              	.LBB27:
 257              	.LBB28:
 258              		.loc 1 73 0
 259 000e 0025     		movs	r5, #0
 260              		.loc 1 75 0
 261 0010 4FF0140C 		mov	ip, #20
 262              		.loc 1 88 0
 263 0014 4FF0010E 		mov	lr, #1
 264              		.loc 1 72 0
 265 0018 4FF00209 		mov	r9, #2
 266              	.LBE28:
 267              	.LBE27:
 268              		.loc 1 160 0
 269 001c 2439     		subs	r1, r1, #36
 270              	.LVL14:
 271 001e 4718     		adds	r7, r0, r1
 272 0020 C760     		str	r7, [r0, #12]
 273 0022 4650     		str	r6, [r0, r1]
 274 0024 0699     		ldr	r1, [sp, #24]
 275              	.LVL15:
 276              	.LBB33:
 277              	.LBB29:
 278              		.loc 1 92 0
 279 0026 134B     		ldr	r3, .L11
 280              	.LBE29:
 281              	.LBE33:
 282              		.loc 1 160 0
 283 0028 7960     		str	r1, [r7, #4]
 284 002a 1349     		ldr	r1, .L11+4
 285              	.LBB34:
ARM GAS  /tmp/cc34Z630.s 			page 6


 286              	.LBB30:
 287              		.loc 1 92 0
 288 002c 5E69     		ldr	r6, [r3, #20]
 289              	.LVL16:
 290              	.LBE30:
 291              	.LBE34:
 292              		.loc 1 160 0
 293 002e 3962     		str	r1, [r7, #32]
 294              	.LVL17:
 295              	.LBB35:
 296              	.LBB31:
 297              		.loc 1 71 0
 298 0030 8260     		str	r2, [r0, #8]
 299              		.loc 1 78 0
 300 0032 0264     		str	r2, [r0, #64]
 301              		.loc 1 95 0
 302 0034 00F12807 		add	r7, r0, #40
 303              	.LVL18:
 304              		.loc 1 98 0
 305 0038 00F12C02 		add	r2, r0, #44
 306              	.LVL19:
 307              		.loc 1 92 0
 308 003c 0361     		str	r3, [r0, #16]
 309 003e 4661     		str	r6, [r0, #20]
 310              		.loc 1 72 0
 311 0040 80F81C90 		strb	r9, [r0, #28]
 312              	.LVL20:
 313              		.loc 1 92 0
 314 0044 5861     		str	r0, [r3, #20]
 315              		.loc 1 75 0
 316 0046 80F81FC0 		strb	ip, [r0, #31]
 317              		.loc 1 88 0
 318 004a 80F81EE0 		strb	lr, [r0, #30]
 319              		.loc 1 73 0
 320 004e 4577     		strb	r5, [r0, #29]
 321              		.loc 1 79 0
 322 0050 C563     		str	r5, [r0, #60]
 323              		.loc 1 82 0
 324 0052 8563     		str	r5, [r0, #56]
 325              		.loc 1 85 0
 326 0054 0562     		str	r5, [r0, #32]
 327              		.loc 1 91 0
 328 0056 8561     		str	r5, [r0, #24]
 329              	.LBE31:
 330              	.LBE35:
 331              	.LBE26:
 332              	.LBE25:
 333              		.loc 1 193 0
 334 0058 2946     		mov	r1, r5
 335              	.LBB38:
 336              	.LBB37:
 337              	.LBB36:
 338              	.LBB32:
 339              		.loc 1 92 0
 340 005a 3061     		str	r0, [r6, #16]
 341              		.loc 1 95 0
 342 005c 8762     		str	r7, [r0, #40]
ARM GAS  /tmp/cc34Z630.s 			page 7


 343              		.loc 1 98 0
 344 005e 0263     		str	r2, [r0, #48]
 345 0060 C262     		str	r2, [r0, #44]
 346              	.LVL21:
 347              	.LBE32:
 348              	.LBE36:
 349              	.LBE37:
 350              	.LBE38:
 351              		.loc 1 193 0
 352 0062 FFF7FEFF 		bl	chSchWakeupS
 353              	.LVL22:
 354              	.LBB39:
 355              		.loc 1 194 0
 356 0066 2B46     		mov	r3, r5
 357              		.syntax unified
 358              	@ 194 "../../os/kernel/src/chthreads.c" 1
 359 0068 83F31188 		msr     BASEPRI, r3
 360              	@ 0 "" 2
 361              		.thumb
 362              		.syntax unified
 363              	.LBE39:
 364              		.loc 1 196 0
 365 006c 2046     		mov	r0, r4
 366 006e BDE8F082 		pop	{r4, r5, r6, r7, r9, pc}
 367              	.LVL23:
 368              	.L12:
 369 0072 00BF     		.align	2
 370              	.L11:
 371 0074 00000000 		.word	rlist
 372 0078 00000000 		.word	_port_thread_start
 373              		.cfi_endproc
 374              	.LFE9:
 375              		.size	chThdCreateStatic, .-chThdCreateStatic
 376              		.section	.text.chThdSetPriority,"ax",%progbits
 377              		.align	1
 378              		.p2align 2,,3
 379              		.global	chThdSetPriority
 380              		.syntax unified
 381              		.thumb
 382              		.thumb_func
 383              		.fpu softvfp
 384              		.type	chThdSetPriority, %function
 385              	chThdSetPriority:
 386              	.LFB10:
 387              		.loc 1 210 0
 388              		.cfi_startproc
 389              		@ args = 0, pretend = 0, frame = 0
 390              		@ frame_needed = 0, uses_anonymous_args = 0
 391              	.LVL24:
 392 0000 10B5     		push	{r4, lr}
 393              		.cfi_def_cfa_offset 8
 394              		.cfi_offset 4, -8
 395              		.cfi_offset 14, -4
 396              	.LBB40:
 397              		.loc 1 215 0
 398 0002 4023     		movs	r3, #64
 399              		.syntax unified
ARM GAS  /tmp/cc34Z630.s 			page 8


 400              	@ 215 "../../os/kernel/src/chthreads.c" 1
 401 0004 83F31188 		msr     BASEPRI, r3
 402              	@ 0 "" 2
 403              		.thumb
 404              		.syntax unified
 405              	.LBE40:
 406              		.loc 1 217 0
 407 0008 084B     		ldr	r3, .L18
 408 000a 9B69     		ldr	r3, [r3, #24]
 409 000c 1C6C     		ldr	r4, [r3, #64]
 410              	.LVL25:
 411              		.loc 1 218 0
 412 000e 9968     		ldr	r1, [r3, #8]
 413 0010 8C42     		cmp	r4, r1
 414 0012 01D0     		beq	.L14
 415              		.loc 1 218 0 is_stmt 0 discriminator 1
 416 0014 8142     		cmp	r1, r0
 417 0016 00D2     		bcs	.L15
 418              	.L14:
 419              		.loc 1 219 0 is_stmt 1
 420 0018 9860     		str	r0, [r3, #8]
 421              	.L15:
 422              		.loc 1 220 0
 423 001a 1864     		str	r0, [r3, #64]
 424              		.loc 1 225 0
 425 001c FFF7FEFF 		bl	chSchRescheduleS
 426              	.LVL26:
 427              	.LBB41:
 428              		.loc 1 226 0
 429 0020 0023     		movs	r3, #0
 430              		.syntax unified
 431              	@ 226 "../../os/kernel/src/chthreads.c" 1
 432 0022 83F31188 		msr     BASEPRI, r3
 433              	@ 0 "" 2
 434              		.thumb
 435              		.syntax unified
 436              	.LBE41:
 437              		.loc 1 228 0
 438 0026 2046     		mov	r0, r4
 439 0028 10BD     		pop	{r4, pc}
 440              	.LVL27:
 441              	.L19:
 442 002a 00BF     		.align	2
 443              	.L18:
 444 002c 00000000 		.word	rlist
 445              		.cfi_endproc
 446              	.LFE10:
 447              		.size	chThdSetPriority, .-chThdSetPriority
 448              		.section	.text.chThdResume,"ax",%progbits
 449              		.align	1
 450              		.p2align 2,,3
 451              		.global	chThdResume
 452              		.syntax unified
 453              		.thumb
 454              		.thumb_func
 455              		.fpu softvfp
 456              		.type	chThdResume, %function
ARM GAS  /tmp/cc34Z630.s 			page 9


 457              	chThdResume:
 458              	.LFB11:
 459              		.loc 1 243 0
 460              		.cfi_startproc
 461              		@ args = 0, pretend = 0, frame = 0
 462              		@ frame_needed = 0, uses_anonymous_args = 0
 463              	.LVL28:
 464 0000 10B5     		push	{r4, lr}
 465              		.cfi_def_cfa_offset 8
 466              		.cfi_offset 4, -8
 467              		.cfi_offset 14, -4
 468              	.LBB42:
 469              		.loc 1 245 0
 470 0002 4023     		movs	r3, #64
 471              	.LBE42:
 472              		.loc 1 243 0
 473 0004 0446     		mov	r4, r0
 474              	.LBB43:
 475              		.loc 1 245 0
 476              		.syntax unified
 477              	@ 245 "../../os/kernel/src/chthreads.c" 1
 478 0006 83F31188 		msr     BASEPRI, r3
 479              	@ 0 "" 2
 480              		.thumb
 481              		.syntax unified
 482              	.LBE43:
 483              		.loc 1 249 0
 484 000a 0021     		movs	r1, #0
 485 000c FFF7FEFF 		bl	chSchWakeupS
 486              	.LVL29:
 487              	.LBB44:
 488              		.loc 1 250 0
 489 0010 0023     		movs	r3, #0
 490              		.syntax unified
 491              	@ 250 "../../os/kernel/src/chthreads.c" 1
 492 0012 83F31188 		msr     BASEPRI, r3
 493              	@ 0 "" 2
 494              		.thumb
 495              		.syntax unified
 496              	.LBE44:
 497              		.loc 1 252 0
 498 0016 2046     		mov	r0, r4
 499 0018 10BD     		pop	{r4, pc}
 500              		.cfi_endproc
 501              	.LFE11:
 502              		.size	chThdResume, .-chThdResume
 503 001a 00BF     		.section	.text.chThdTerminate,"ax",%progbits
 504              		.align	1
 505              		.p2align 2,,3
 506              		.global	chThdTerminate
 507              		.syntax unified
 508              		.thumb
 509              		.thumb_func
 510              		.fpu softvfp
 511              		.type	chThdTerminate, %function
 512              	chThdTerminate:
 513              	.LFB12:
ARM GAS  /tmp/cc34Z630.s 			page 10


 514              		.loc 1 266 0
 515              		.cfi_startproc
 516              		@ args = 0, pretend = 0, frame = 0
 517              		@ frame_needed = 0, uses_anonymous_args = 0
 518              		@ link register save eliminated.
 519              	.LVL30:
 520              	.LBB45:
 521              		.loc 1 268 0
 522 0000 4023     		movs	r3, #64
 523              		.syntax unified
 524              	@ 268 "../../os/kernel/src/chthreads.c" 1
 525 0002 83F31188 		msr     BASEPRI, r3
 526              	@ 0 "" 2
 527              		.thumb
 528              		.syntax unified
 529              	.LBE45:
 530              		.loc 1 269 0
 531 0006 427F     		ldrb	r2, [r0, #29]	@ zero_extendqisi2
 532              	.LBB46:
 533              		.loc 1 270 0
 534 0008 0023     		movs	r3, #0
 535              	.LBE46:
 536              		.loc 1 269 0
 537 000a 42F00402 		orr	r2, r2, #4
 538 000e 4277     		strb	r2, [r0, #29]
 539              	.LBB47:
 540              		.loc 1 270 0
 541              		.syntax unified
 542              	@ 270 "../../os/kernel/src/chthreads.c" 1
 543 0010 83F31188 		msr     BASEPRI, r3
 544              	@ 0 "" 2
 545              		.thumb
 546              		.syntax unified
 547 0014 7047     		bx	lr
 548              	.LBE47:
 549              		.cfi_endproc
 550              	.LFE12:
 551              		.size	chThdTerminate, .-chThdTerminate
 552 0016 00BF     		.section	.text.chThdSleep,"ax",%progbits
 553              		.align	1
 554              		.p2align 2,,3
 555              		.global	chThdSleep
 556              		.syntax unified
 557              		.thumb
 558              		.thumb_func
 559              		.fpu softvfp
 560              		.type	chThdSleep, %function
 561              	chThdSleep:
 562              	.LFB13:
 563              		.loc 1 285 0
 564              		.cfi_startproc
 565              		@ args = 0, pretend = 0, frame = 0
 566              		@ frame_needed = 0, uses_anonymous_args = 0
 567              	.LVL31:
 568 0000 08B5     		push	{r3, lr}
 569              		.cfi_def_cfa_offset 8
 570              		.cfi_offset 3, -8
ARM GAS  /tmp/cc34Z630.s 			page 11


 571              		.cfi_offset 14, -4
 572              		.loc 1 285 0
 573 0002 0146     		mov	r1, r0
 574              	.LBB48:
 575              		.loc 1 289 0
 576 0004 4023     		movs	r3, #64
 577              		.syntax unified
 578              	@ 289 "../../os/kernel/src/chthreads.c" 1
 579 0006 83F31188 		msr     BASEPRI, r3
 580              	@ 0 "" 2
 581              		.thumb
 582              		.syntax unified
 583              	.LBE48:
 584              		.loc 1 290 0
 585 000a 0620     		movs	r0, #6
 586              	.LVL32:
 587 000c FFF7FEFF 		bl	chSchGoSleepTimeoutS
 588              	.LVL33:
 589              	.LBB49:
 590              		.loc 1 291 0
 591 0010 0023     		movs	r3, #0
 592              		.syntax unified
 593              	@ 291 "../../os/kernel/src/chthreads.c" 1
 594 0012 83F31188 		msr     BASEPRI, r3
 595              	@ 0 "" 2
 596              		.thumb
 597              		.syntax unified
 598 0016 08BD     		pop	{r3, pc}
 599              	.LBE49:
 600              		.cfi_endproc
 601              	.LFE13:
 602              		.size	chThdSleep, .-chThdSleep
 603              		.section	.text.chThdSleepUntil,"ax",%progbits
 604              		.align	1
 605              		.p2align 2,,3
 606              		.global	chThdSleepUntil
 607              		.syntax unified
 608              		.thumb
 609              		.thumb_func
 610              		.fpu softvfp
 611              		.type	chThdSleepUntil, %function
 612              	chThdSleepUntil:
 613              	.LFB14:
 614              		.loc 1 302 0
 615              		.cfi_startproc
 616              		@ args = 0, pretend = 0, frame = 0
 617              		@ frame_needed = 0, uses_anonymous_args = 0
 618              	.LVL34:
 619 0000 08B5     		push	{r3, lr}
 620              		.cfi_def_cfa_offset 8
 621              		.cfi_offset 3, -8
 622              		.cfi_offset 14, -4
 623              	.LBB50:
 624              		.loc 1 304 0
 625 0002 4023     		movs	r3, #64
 626              		.syntax unified
 627              	@ 304 "../../os/kernel/src/chthreads.c" 1
ARM GAS  /tmp/cc34Z630.s 			page 12


 628 0004 83F31188 		msr     BASEPRI, r3
 629              	@ 0 "" 2
 630              		.thumb
 631              		.syntax unified
 632              	.LBE50:
 633              		.loc 1 305 0
 634 0008 054B     		ldr	r3, .L31
 635 000a D968     		ldr	r1, [r3, #12]
 636              	.LVL35:
 637 000c 411A     		subs	r1, r0, r1
 638              	.LVL36:
 639 000e 02D0     		beq	.L26
 640              		.loc 1 306 0
 641 0010 0620     		movs	r0, #6
 642 0012 FFF7FEFF 		bl	chSchGoSleepTimeoutS
 643              	.LVL37:
 644              	.L26:
 645              	.LBB51:
 646              		.loc 1 307 0
 647 0016 0023     		movs	r3, #0
 648              		.syntax unified
 649              	@ 307 "../../os/kernel/src/chthreads.c" 1
 650 0018 83F31188 		msr     BASEPRI, r3
 651              	@ 0 "" 2
 652              		.thumb
 653              		.syntax unified
 654 001c 08BD     		pop	{r3, pc}
 655              	.L32:
 656 001e 00BF     		.align	2
 657              	.L31:
 658 0020 00000000 		.word	vtlist
 659              	.LBE51:
 660              		.cfi_endproc
 661              	.LFE14:
 662              		.size	chThdSleepUntil, .-chThdSleepUntil
 663              		.section	.text.chThdYield,"ax",%progbits
 664              		.align	1
 665              		.p2align 2,,3
 666              		.global	chThdYield
 667              		.syntax unified
 668              		.thumb
 669              		.thumb_func
 670              		.fpu softvfp
 671              		.type	chThdYield, %function
 672              	chThdYield:
 673              	.LFB15:
 674              		.loc 1 317 0
 675              		.cfi_startproc
 676              		@ args = 0, pretend = 0, frame = 0
 677              		@ frame_needed = 0, uses_anonymous_args = 0
 678 0000 08B5     		push	{r3, lr}
 679              		.cfi_def_cfa_offset 8
 680              		.cfi_offset 3, -8
 681              		.cfi_offset 14, -4
 682              	.LBB52:
 683              		.loc 1 319 0
 684 0002 4023     		movs	r3, #64
ARM GAS  /tmp/cc34Z630.s 			page 13


 685              		.syntax unified
 686              	@ 319 "../../os/kernel/src/chthreads.c" 1
 687 0004 83F31188 		msr     BASEPRI, r3
 688              	@ 0 "" 2
 689              		.thumb
 690              		.syntax unified
 691              	.LBE52:
 692              		.loc 1 320 0
 693 0008 064B     		ldr	r3, .L36
 694 000a 1A68     		ldr	r2, [r3]
 695 000c 9B69     		ldr	r3, [r3, #24]
 696 000e 9268     		ldr	r2, [r2, #8]
 697 0010 9B68     		ldr	r3, [r3, #8]
 698 0012 9A42     		cmp	r2, r3
 699 0014 01D3     		bcc	.L34
 700              		.loc 1 320 0 is_stmt 0 discriminator 1
 701 0016 FFF7FEFF 		bl	chSchDoRescheduleBehind
 702              	.LVL38:
 703              	.L34:
 704              	.LBB53:
 705              		.loc 1 321 0 is_stmt 1
 706 001a 0023     		movs	r3, #0
 707              		.syntax unified
 708              	@ 321 "../../os/kernel/src/chthreads.c" 1
 709 001c 83F31188 		msr     BASEPRI, r3
 710              	@ 0 "" 2
 711              		.thumb
 712              		.syntax unified
 713 0020 08BD     		pop	{r3, pc}
 714              	.L37:
 715 0022 00BF     		.align	2
 716              	.L36:
 717 0024 00000000 		.word	rlist
 718              	.LBE53:
 719              		.cfi_endproc
 720              	.LFE15:
 721              		.size	chThdYield, .-chThdYield
 722              		.section	.text.chThdExitS,"ax",%progbits
 723              		.align	1
 724              		.p2align 2,,3
 725              		.global	chThdExitS
 726              		.syntax unified
 727              		.thumb
 728              		.thumb_func
 729              		.fpu softvfp
 730              		.type	chThdExitS, %function
 731              	chThdExitS:
 732              	.LFB17:
 733              		.loc 1 359 0
 734              		.cfi_startproc
 735              		@ args = 0, pretend = 0, frame = 0
 736              		@ frame_needed = 0, uses_anonymous_args = 0
 737              	.LVL39:
 738 0000 38B5     		push	{r3, r4, r5, lr}
 739              		.cfi_def_cfa_offset 16
 740              		.cfi_offset 3, -16
 741              		.cfi_offset 4, -12
ARM GAS  /tmp/cc34Z630.s 			page 14


 742              		.cfi_offset 5, -8
 743              		.cfi_offset 14, -4
 744              		.loc 1 360 0
 745 0002 0E4B     		ldr	r3, .L46
 746 0004 9C69     		ldr	r4, [r3, #24]
 747              	.LVL40:
 748              		.loc 1 367 0
 749 0006 2546     		mov	r5, r4
 750              		.loc 1 362 0
 751 0008 6062     		str	r0, [r4, #36]
 752              		.loc 1 367 0
 753 000a 55F8280F 		ldr	r0, [r5, #40]!
 754              	.LVL41:
 755 000e A842     		cmp	r0, r5
 756 0010 06D0     		beq	.L43
 757              	.LVL42:
 758              	.L42:
 759              	.LBB54:
 760              	.LBB55:
 761              		.file 2 "../../os/kernel/include/chinline.h"
 762              		.loc 2 82 0
 763 0012 0368     		ldr	r3, [r0]
 764 0014 A362     		str	r3, [r4, #40]
 765              	.LVL43:
 766              	.LBE55:
 767              	.LBE54:
 768              		.loc 1 368 0
 769 0016 FFF7FEFF 		bl	chSchReadyI
 770              	.LVL44:
 771              		.loc 1 367 0
 772 001a A06A     		ldr	r0, [r4, #40]
 773 001c A842     		cmp	r0, r5
 774 001e F8D1     		bne	.L42
 775              	.L43:
 776              		.loc 1 373 0
 777 0020 637F     		ldrb	r3, [r4, #29]	@ zero_extendqisi2
 778 0022 9B07     		lsls	r3, r3, #30
 779 0024 04D1     		bne	.L41
 780              		.loc 1 374 0
 781 0026 2269     		ldr	r2, [r4, #16]
 782 0028 6369     		ldr	r3, [r4, #20]
 783 002a 1A61     		str	r2, [r3, #16]
 784 002c 2269     		ldr	r2, [r4, #16]
 785 002e 5361     		str	r3, [r2, #20]
 786              	.L41:
 787              		.loc 1 376 0
 788 0030 0E20     		movs	r0, #14
 789              		.loc 1 379 0
 790 0032 BDE83840 		pop	{r3, r4, r5, lr}
 791              		.cfi_restore 14
 792              		.cfi_restore 5
 793              		.cfi_restore 4
 794              		.cfi_restore 3
 795              		.cfi_def_cfa_offset 0
 796              	.LVL45:
 797              		.loc 1 376 0
 798 0036 FFF7FEBF 		b	chSchGoSleepS
ARM GAS  /tmp/cc34Z630.s 			page 15


 799              	.LVL46:
 800              	.L47:
 801 003a 00BF     		.align	2
 802              	.L46:
 803 003c 00000000 		.word	rlist
 804              		.cfi_endproc
 805              	.LFE17:
 806              		.size	chThdExitS, .-chThdExitS
 807              		.section	.text.chThdExit,"ax",%progbits
 808              		.align	1
 809              		.p2align 2,,3
 810              		.global	chThdExit
 811              		.syntax unified
 812              		.thumb
 813              		.thumb_func
 814              		.fpu softvfp
 815              		.type	chThdExit, %function
 816              	chThdExit:
 817              	.LFB16:
 818              		.loc 1 338 0
 819              		.cfi_startproc
 820              		@ args = 0, pretend = 0, frame = 0
 821              		@ frame_needed = 0, uses_anonymous_args = 0
 822              		@ link register save eliminated.
 823              	.LVL47:
 824              	.LBB56:
 825              		.loc 1 340 0
 826 0000 4023     		movs	r3, #64
 827              		.syntax unified
 828              	@ 340 "../../os/kernel/src/chthreads.c" 1
 829 0002 83F31188 		msr     BASEPRI, r3
 830              	@ 0 "" 2
 831              		.thumb
 832              		.syntax unified
 833              	.LBE56:
 834              		.loc 1 341 0
 835 0006 FFF7FEBF 		b	chThdExitS
 836              	.LVL48:
 837              		.cfi_endproc
 838              	.LFE16:
 839              		.size	chThdExit, .-chThdExit
 840 000a 00BF     		.section	.text.chThdWait,"ax",%progbits
 841              		.align	1
 842              		.p2align 2,,3
 843              		.global	chThdWait
 844              		.syntax unified
 845              		.thumb
 846              		.thumb_func
 847              		.fpu softvfp
 848              		.type	chThdWait, %function
 849              	chThdWait:
 850              	.LFB18:
 851              		.loc 1 413 0
 852              		.cfi_startproc
 853              		@ args = 0, pretend = 0, frame = 0
 854              		@ frame_needed = 0, uses_anonymous_args = 0
 855              	.LVL49:
ARM GAS  /tmp/cc34Z630.s 			page 16


 856 0000 38B5     		push	{r3, r4, r5, lr}
 857              		.cfi_def_cfa_offset 16
 858              		.cfi_offset 3, -16
 859              		.cfi_offset 4, -12
 860              		.cfi_offset 5, -8
 861              		.cfi_offset 14, -4
 862              		.loc 1 413 0
 863 0002 0446     		mov	r4, r0
 864              	.LBB57:
 865              		.loc 1 418 0
 866 0004 4023     		movs	r3, #64
 867              		.syntax unified
 868              	@ 418 "../../os/kernel/src/chthreads.c" 1
 869 0006 83F31188 		msr     BASEPRI, r3
 870              	@ 0 "" 2
 871              		.thumb
 872              		.syntax unified
 873              	.LBE57:
 874              		.loc 1 423 0
 875 000a 037F     		ldrb	r3, [r0, #28]	@ zero_extendqisi2
 876 000c 0E2B     		cmp	r3, #14
 877 000e 07D0     		beq	.L50
 878              		.loc 1 419 0
 879 0010 084B     		ldr	r3, .L55
 880              	.LBB58:
 881              	.LBB59:
 882              		.loc 2 75 0
 883 0012 826A     		ldr	r2, [r0, #40]
 884              	.LBE59:
 885              	.LBE58:
 886              		.loc 1 419 0
 887 0014 9B69     		ldr	r3, [r3, #24]
 888              	.LVL50:
 889              		.loc 1 425 0
 890 0016 0720     		movs	r0, #7
 891              	.LVL51:
 892              	.LBB61:
 893              	.LBB60:
 894              		.loc 2 75 0
 895 0018 1A60     		str	r2, [r3]
 896              		.loc 2 76 0
 897 001a A362     		str	r3, [r4, #40]
 898              	.LVL52:
 899              	.LBE60:
 900              	.LBE61:
 901              		.loc 1 425 0
 902 001c FFF7FEFF 		bl	chSchGoSleepS
 903              	.LVL53:
 904              	.L50:
 905              		.loc 1 427 0
 906 0020 656A     		ldr	r5, [r4, #36]
 907              	.LVL54:
 908              	.LBB62:
 909              		.loc 1 428 0
 910 0022 0023     		movs	r3, #0
 911              		.syntax unified
 912              	@ 428 "../../os/kernel/src/chthreads.c" 1
ARM GAS  /tmp/cc34Z630.s 			page 17


 913 0024 83F31188 		msr     BASEPRI, r3
 914              	@ 0 "" 2
 915              		.thumb
 916              		.syntax unified
 917              	.LBE62:
 918              		.loc 1 430 0
 919 0028 2046     		mov	r0, r4
 920 002a FFF7FEFF 		bl	chThdRelease
 921              	.LVL55:
 922              		.loc 1 433 0
 923 002e 2846     		mov	r0, r5
 924 0030 38BD     		pop	{r3, r4, r5, pc}
 925              	.LVL56:
 926              	.L56:
 927 0032 00BF     		.align	2
 928              	.L55:
 929 0034 00000000 		.word	rlist
 930              		.cfi_endproc
 931              	.LFE18:
 932              		.size	chThdWait, .-chThdWait
 933              		.text
 934              	.Letext0:
 935              		.file 3 "/usr/lib/gcc/arm-none-eabi/6.3.1/include/stddef.h"
 936              		.file 4 "/usr/include/newlib/machine/_default_types.h"
 937              		.file 5 "/usr/include/newlib/sys/_stdint.h"
 938              		.file 6 "../../os/ports/GCC/ARMCMx/chtypes.h"
 939              		.file 7 "../../os/kernel/include/chlists.h"
 940              		.file 8 "../../os/kernel/include/chthreads.h"
 941              		.file 9 "../../os/ports/GCC/ARMCMx/chcore_v7m.h"
 942              		.file 10 "../../os/kernel/include/chvt.h"
 943              		.file 11 "../../os/kernel/include/chschd.h"
 944              		.file 12 "../../os/kernel/include/chmtx.h"
 945              		.file 13 "../../os/kernel/include/chregistry.h"
 946              		.file 14 "../../os/kernel/include/ch.h"
 947              		.file 15 "../../os/kernel/include/chdynamic.h"
 948              		.section	.debug_info,"",%progbits
 949              	.Ldebug_info0:
 950 0000 2A0D0000 		.4byte	0xd2a
 951 0004 0400     		.2byte	0x4
 952 0006 00000000 		.4byte	.Ldebug_abbrev0
 953 000a 04       		.byte	0x4
 954 000b 01       		.uleb128 0x1
 955 000c D8020000 		.4byte	.LASF130
 956 0010 0C       		.byte	0xc
 957 0011 D0050000 		.4byte	.LASF131
 958 0015 15000000 		.4byte	.LASF132
 959 0019 B8000000 		.4byte	.Ldebug_ranges0+0xb8
 960 001d 00000000 		.4byte	0
 961 0021 00000000 		.4byte	.Ldebug_line0
 962 0025 02       		.uleb128 0x2
 963 0026 04       		.byte	0x4
 964 0027 05       		.byte	0x5
 965 0028 696E7400 		.ascii	"int\000"
 966 002c 03       		.uleb128 0x3
 967 002d 61000000 		.4byte	.LASF4
 968 0031 03       		.byte	0x3
 969 0032 D8       		.byte	0xd8
ARM GAS  /tmp/cc34Z630.s 			page 18


 970 0033 37000000 		.4byte	0x37
 971 0037 04       		.uleb128 0x4
 972 0038 04       		.byte	0x4
 973 0039 07       		.byte	0x7
 974 003a CB010000 		.4byte	.LASF0
 975 003e 04       		.uleb128 0x4
 976 003f 08       		.byte	0x8
 977 0040 05       		.byte	0x5
 978 0041 DC000000 		.4byte	.LASF1
 979 0045 04       		.uleb128 0x4
 980 0046 08       		.byte	0x8
 981 0047 04       		.byte	0x4
 982 0048 74030000 		.4byte	.LASF2
 983 004c 04       		.uleb128 0x4
 984 004d 01       		.byte	0x1
 985 004e 06       		.byte	0x6
 986 004f EA000000 		.4byte	.LASF3
 987 0053 03       		.uleb128 0x3
 988 0054 7E000000 		.4byte	.LASF5
 989 0058 04       		.byte	0x4
 990 0059 1D       		.byte	0x1d
 991 005a 5E000000 		.4byte	0x5e
 992 005e 04       		.uleb128 0x4
 993 005f 01       		.byte	0x1
 994 0060 08       		.byte	0x8
 995 0061 4D040000 		.4byte	.LASF6
 996 0065 04       		.uleb128 0x4
 997 0066 02       		.byte	0x2
 998 0067 05       		.byte	0x5
 999 0068 65040000 		.4byte	.LASF7
 1000 006c 03       		.uleb128 0x3
 1001 006d 2D050000 		.4byte	.LASF8
 1002 0071 04       		.byte	0x4
 1003 0072 2B       		.byte	0x2b
 1004 0073 77000000 		.4byte	0x77
 1005 0077 04       		.uleb128 0x4
 1006 0078 02       		.byte	0x2
 1007 0079 07       		.byte	0x7
 1008 007a 2C020000 		.4byte	.LASF9
 1009 007e 03       		.uleb128 0x3
 1010 007f 60050000 		.4byte	.LASF10
 1011 0083 04       		.byte	0x4
 1012 0084 3F       		.byte	0x3f
 1013 0085 89000000 		.4byte	0x89
 1014 0089 04       		.uleb128 0x4
 1015 008a 04       		.byte	0x4
 1016 008b 05       		.byte	0x5
 1017 008c 44010000 		.4byte	.LASF11
 1018 0090 03       		.uleb128 0x3
 1019 0091 9E010000 		.4byte	.LASF12
 1020 0095 04       		.byte	0x4
 1021 0096 41       		.byte	0x41
 1022 0097 9B000000 		.4byte	0x9b
 1023 009b 04       		.uleb128 0x4
 1024 009c 04       		.byte	0x4
 1025 009d 07       		.byte	0x7
 1026 009e ED010000 		.4byte	.LASF13
ARM GAS  /tmp/cc34Z630.s 			page 19


 1027 00a2 03       		.uleb128 0x3
 1028 00a3 12040000 		.4byte	.LASF14
 1029 00a7 04       		.byte	0x4
 1030 00a8 5B       		.byte	0x5b
 1031 00a9 AD000000 		.4byte	0xad
 1032 00ad 04       		.uleb128 0x4
 1033 00ae 08       		.byte	0x8
 1034 00af 07       		.byte	0x7
 1035 00b0 9A000000 		.4byte	.LASF15
 1036 00b4 03       		.uleb128 0x3
 1037 00b5 C8050000 		.4byte	.LASF16
 1038 00b9 05       		.byte	0x5
 1039 00ba 18       		.byte	0x18
 1040 00bb 53000000 		.4byte	0x53
 1041 00bf 03       		.uleb128 0x3
 1042 00c0 56010000 		.4byte	.LASF17
 1043 00c4 05       		.byte	0x5
 1044 00c5 24       		.byte	0x24
 1045 00c6 6C000000 		.4byte	0x6c
 1046 00ca 03       		.uleb128 0x3
 1047 00cb 45040000 		.4byte	.LASF18
 1048 00cf 05       		.byte	0x5
 1049 00d0 2C       		.byte	0x2c
 1050 00d1 7E000000 		.4byte	0x7e
 1051 00d5 03       		.uleb128 0x3
 1052 00d6 FE040000 		.4byte	.LASF19
 1053 00da 05       		.byte	0x5
 1054 00db 30       		.byte	0x30
 1055 00dc 90000000 		.4byte	0x90
 1056 00e0 03       		.uleb128 0x3
 1057 00e1 75000000 		.4byte	.LASF20
 1058 00e5 05       		.byte	0x5
 1059 00e6 3C       		.byte	0x3c
 1060 00e7 A2000000 		.4byte	0xa2
 1061 00eb 04       		.uleb128 0x4
 1062 00ec 01       		.byte	0x1
 1063 00ed 02       		.byte	0x2
 1064 00ee 3F040000 		.4byte	.LASF21
 1065 00f2 03       		.uleb128 0x3
 1066 00f3 62020000 		.4byte	.LASF22
 1067 00f7 06       		.byte	0x6
 1068 00f8 25       		.byte	0x25
 1069 00f9 B4000000 		.4byte	0xb4
 1070 00fd 03       		.uleb128 0x3
 1071 00fe 4D010000 		.4byte	.LASF23
 1072 0102 06       		.byte	0x6
 1073 0103 26       		.byte	0x26
 1074 0104 B4000000 		.4byte	0xb4
 1075 0108 03       		.uleb128 0x3
 1076 0109 1D040000 		.4byte	.LASF24
 1077 010d 06       		.byte	0x6
 1078 010e 27       		.byte	0x27
 1079 010f B4000000 		.4byte	0xb4
 1080 0113 03       		.uleb128 0x3
 1081 0114 2D010000 		.4byte	.LASF25
 1082 0118 06       		.byte	0x6
 1083 0119 28       		.byte	0x28
ARM GAS  /tmp/cc34Z630.s 			page 20


 1084 011a B4000000 		.4byte	0xb4
 1085 011e 03       		.uleb128 0x3
 1086 011f 37040000 		.4byte	.LASF26
 1087 0123 06       		.byte	0x6
 1088 0124 29       		.byte	0x29
 1089 0125 D5000000 		.4byte	0xd5
 1090 0129 03       		.uleb128 0x3
 1091 012a 4C020000 		.4byte	.LASF27
 1092 012e 06       		.byte	0x6
 1093 012f 2A       		.byte	0x2a
 1094 0130 CA000000 		.4byte	0xca
 1095 0134 03       		.uleb128 0x3
 1096 0135 85020000 		.4byte	.LASF28
 1097 0139 06       		.byte	0x6
 1098 013a 2C       		.byte	0x2c
 1099 013b D5000000 		.4byte	0xd5
 1100 013f 03       		.uleb128 0x3
 1101 0140 4B050000 		.4byte	.LASF29
 1102 0144 06       		.byte	0x6
 1103 0145 2E       		.byte	0x2e
 1104 0146 D5000000 		.4byte	0xd5
 1105 014a 05       		.uleb128 0x5
 1106 014b 3F010000 		.4byte	0x13f
 1107 014f 03       		.uleb128 0x3
 1108 0150 C6040000 		.4byte	.LASF30
 1109 0154 07       		.byte	0x7
 1110 0155 23       		.byte	0x23
 1111 0156 5A010000 		.4byte	0x15a
 1112 015a 06       		.uleb128 0x6
 1113 015b C6040000 		.4byte	.LASF30
 1114 015f 48       		.byte	0x48
 1115 0160 08       		.byte	0x8
 1116 0161 57       		.byte	0x57
 1117 0162 57020000 		.4byte	0x257
 1118 0166 07       		.uleb128 0x7
 1119 0167 9B040000 		.4byte	.LASF31
 1120 016b 08       		.byte	0x8
 1121 016c 58       		.byte	0x58
 1122 016d 78020000 		.4byte	0x278
 1123 0171 00       		.byte	0
 1124 0172 07       		.uleb128 0x7
 1125 0173 30040000 		.4byte	.LASF32
 1126 0177 08       		.byte	0x8
 1127 0178 5A       		.byte	0x5a
 1128 0179 78020000 		.4byte	0x278
 1129 017d 04       		.byte	0x4
 1130 017e 07       		.uleb128 0x7
 1131 017f C8000000 		.4byte	.LASF33
 1132 0183 08       		.byte	0x8
 1133 0184 5C       		.byte	0x5c
 1134 0185 1E010000 		.4byte	0x11e
 1135 0189 08       		.byte	0x8
 1136 018a 07       		.uleb128 0x7
 1137 018b 38060000 		.4byte	.LASF34
 1138 018f 08       		.byte	0x8
 1139 0190 5D       		.byte	0x5d
 1140 0191 3D030000 		.4byte	0x33d
ARM GAS  /tmp/cc34Z630.s 			page 21


 1141 0195 0C       		.byte	0xc
 1142 0196 07       		.uleb128 0x7
 1143 0197 69010000 		.4byte	.LASF35
 1144 019b 08       		.byte	0x8
 1145 019c 5F       		.byte	0x5f
 1146 019d 78020000 		.4byte	0x278
 1147 01a1 10       		.byte	0x10
 1148 01a2 07       		.uleb128 0x7
 1149 01a3 BC030000 		.4byte	.LASF36
 1150 01a7 08       		.byte	0x8
 1151 01a8 60       		.byte	0x60
 1152 01a9 78020000 		.4byte	0x278
 1153 01ad 14       		.byte	0x14
 1154 01ae 07       		.uleb128 0x7
 1155 01af F7050000 		.4byte	.LASF37
 1156 01b3 08       		.byte	0x8
 1157 01b4 67       		.byte	0x67
 1158 01b5 08050000 		.4byte	0x508
 1159 01b9 18       		.byte	0x18
 1160 01ba 07       		.uleb128 0x7
 1161 01bb 6F040000 		.4byte	.LASF38
 1162 01bf 08       		.byte	0x8
 1163 01c0 72       		.byte	0x72
 1164 01c1 FD000000 		.4byte	0xfd
 1165 01c5 1C       		.byte	0x1c
 1166 01c6 07       		.uleb128 0x7
 1167 01c7 B1040000 		.4byte	.LASF39
 1168 01cb 08       		.byte	0x8
 1169 01cc 76       		.byte	0x76
 1170 01cd F2000000 		.4byte	0xf2
 1171 01d1 1D       		.byte	0x1d
 1172 01d2 07       		.uleb128 0x7
 1173 01d3 B1050000 		.4byte	.LASF40
 1174 01d7 08       		.byte	0x8
 1175 01d8 7B       		.byte	0x7b
 1176 01d9 08010000 		.4byte	0x108
 1177 01dd 1E       		.byte	0x1e
 1178 01de 07       		.uleb128 0x7
 1179 01df 77040000 		.4byte	.LASF41
 1180 01e3 08       		.byte	0x8
 1181 01e4 81       		.byte	0x81
 1182 01e5 13010000 		.4byte	0x113
 1183 01e9 1F       		.byte	0x1f
 1184 01ea 07       		.uleb128 0x7
 1185 01eb 75050000 		.4byte	.LASF42
 1186 01ef 08       		.byte	0x8
 1187 01f0 88       		.byte	0x88
 1188 01f1 4A010000 		.4byte	0x14a
 1189 01f5 20       		.byte	0x20
 1190 01f6 08       		.uleb128 0x8
 1191 01f7 705F7500 		.ascii	"p_u\000"
 1192 01fb 08       		.byte	0x8
 1193 01fc AD       		.byte	0xad
 1194 01fd D3040000 		.4byte	0x4d3
 1195 0201 24       		.byte	0x24
 1196 0202 07       		.uleb128 0x7
 1197 0203 3E060000 		.4byte	.LASF43
ARM GAS  /tmp/cc34Z630.s 			page 22


 1198 0207 08       		.byte	0x8
 1199 0208 B2       		.byte	0xb2
 1200 0209 9E020000 		.4byte	0x29e
 1201 020d 28       		.byte	0x28
 1202 020e 07       		.uleb128 0x7
 1203 020f 83050000 		.4byte	.LASF44
 1204 0213 08       		.byte	0x8
 1205 0214 B8       		.byte	0xb8
 1206 0215 7E020000 		.4byte	0x27e
 1207 0219 2C       		.byte	0x2c
 1208 021a 07       		.uleb128 0x7
 1209 021b 5B000000 		.4byte	.LASF45
 1210 021f 08       		.byte	0x8
 1211 0220 BC       		.byte	0xbc
 1212 0221 29010000 		.4byte	0x129
 1213 0225 34       		.byte	0x34
 1214 0226 07       		.uleb128 0x7
 1215 0227 E8040000 		.4byte	.LASF46
 1216 022b 08       		.byte	0x8
 1217 022c C2       		.byte	0xc2
 1218 022d 34010000 		.4byte	0x134
 1219 0231 38       		.byte	0x38
 1220 0232 07       		.uleb128 0x7
 1221 0233 5B040000 		.4byte	.LASF47
 1222 0237 08       		.byte	0x8
 1223 0238 C9       		.byte	0xc9
 1224 0239 1A050000 		.4byte	0x51a
 1225 023d 3C       		.byte	0x3c
 1226 023e 07       		.uleb128 0x7
 1227 023f 55050000 		.4byte	.LASF48
 1228 0243 08       		.byte	0x8
 1229 0244 CD       		.byte	0xcd
 1230 0245 1E010000 		.4byte	0x11e
 1231 0249 40       		.byte	0x40
 1232 024a 07       		.uleb128 0x7
 1233 024b 1D010000 		.4byte	.LASF49
 1234 024f 08       		.byte	0x8
 1235 0250 D3       		.byte	0xd3
 1236 0251 B4020000 		.4byte	0x2b4
 1237 0255 44       		.byte	0x44
 1238 0256 00       		.byte	0
 1239 0257 09       		.uleb128 0x9
 1240 0258 08       		.byte	0x8
 1241 0259 07       		.byte	0x7
 1242 025a 5A       		.byte	0x5a
 1243 025b 78020000 		.4byte	0x278
 1244 025f 07       		.uleb128 0x7
 1245 0260 9B040000 		.4byte	.LASF31
 1246 0264 07       		.byte	0x7
 1247 0265 5B       		.byte	0x5b
 1248 0266 78020000 		.4byte	0x278
 1249 026a 00       		.byte	0
 1250 026b 07       		.uleb128 0x7
 1251 026c 30040000 		.4byte	.LASF32
 1252 0270 07       		.byte	0x7
 1253 0271 5D       		.byte	0x5d
 1254 0272 78020000 		.4byte	0x278
ARM GAS  /tmp/cc34Z630.s 			page 23


 1255 0276 04       		.byte	0x4
 1256 0277 00       		.byte	0
 1257 0278 0A       		.uleb128 0xa
 1258 0279 04       		.byte	0x4
 1259 027a 4F010000 		.4byte	0x14f
 1260 027e 03       		.uleb128 0x3
 1261 027f CA030000 		.4byte	.LASF50
 1262 0283 07       		.byte	0x7
 1263 0284 5F       		.byte	0x5f
 1264 0285 57020000 		.4byte	0x257
 1265 0289 09       		.uleb128 0x9
 1266 028a 04       		.byte	0x4
 1267 028b 07       		.byte	0x7
 1268 028c 64       		.byte	0x64
 1269 028d 9E020000 		.4byte	0x29e
 1270 0291 07       		.uleb128 0x7
 1271 0292 9B040000 		.4byte	.LASF31
 1272 0296 07       		.byte	0x7
 1273 0297 66       		.byte	0x66
 1274 0298 78020000 		.4byte	0x278
 1275 029c 00       		.byte	0
 1276 029d 00       		.byte	0
 1277 029e 03       		.uleb128 0x3
 1278 029f 79020000 		.4byte	.LASF51
 1279 02a3 07       		.byte	0x7
 1280 02a4 69       		.byte	0x69
 1281 02a5 89020000 		.4byte	0x289
 1282 02a9 03       		.uleb128 0x3
 1283 02aa A9010000 		.4byte	.LASF52
 1284 02ae 09       		.byte	0x9
 1285 02af DE       		.byte	0xde
 1286 02b0 B4020000 		.4byte	0x2b4
 1287 02b4 0B       		.uleb128 0xb
 1288 02b5 04       		.byte	0x4
 1289 02b6 03       		.uleb128 0x3
 1290 02b7 9F020000 		.4byte	.LASF53
 1291 02bb 09       		.byte	0x9
 1292 02bc E4       		.byte	0xe4
 1293 02bd E0000000 		.4byte	0xe0
 1294 02c1 0C       		.uleb128 0xc
 1295 02c2 7C050000 		.4byte	.LASF54
 1296 02c6 24       		.byte	0x24
 1297 02c7 09       		.byte	0x9
 1298 02c8 0501     		.2byte	0x105
 1299 02ca 3D030000 		.4byte	0x33d
 1300 02ce 0D       		.uleb128 0xd
 1301 02cf 723400   		.ascii	"r4\000"
 1302 02d2 09       		.byte	0x9
 1303 02d3 1801     		.2byte	0x118
 1304 02d5 A9020000 		.4byte	0x2a9
 1305 02d9 00       		.byte	0
 1306 02da 0D       		.uleb128 0xd
 1307 02db 723500   		.ascii	"r5\000"
 1308 02de 09       		.byte	0x9
 1309 02df 1901     		.2byte	0x119
 1310 02e1 A9020000 		.4byte	0x2a9
 1311 02e5 04       		.byte	0x4
ARM GAS  /tmp/cc34Z630.s 			page 24


 1312 02e6 0D       		.uleb128 0xd
 1313 02e7 723600   		.ascii	"r6\000"
 1314 02ea 09       		.byte	0x9
 1315 02eb 1A01     		.2byte	0x11a
 1316 02ed A9020000 		.4byte	0x2a9
 1317 02f1 08       		.byte	0x8
 1318 02f2 0D       		.uleb128 0xd
 1319 02f3 723700   		.ascii	"r7\000"
 1320 02f6 09       		.byte	0x9
 1321 02f7 1B01     		.2byte	0x11b
 1322 02f9 A9020000 		.4byte	0x2a9
 1323 02fd 0C       		.byte	0xc
 1324 02fe 0D       		.uleb128 0xd
 1325 02ff 723800   		.ascii	"r8\000"
 1326 0302 09       		.byte	0x9
 1327 0303 1C01     		.2byte	0x11c
 1328 0305 A9020000 		.4byte	0x2a9
 1329 0309 10       		.byte	0x10
 1330 030a 0D       		.uleb128 0xd
 1331 030b 723900   		.ascii	"r9\000"
 1332 030e 09       		.byte	0x9
 1333 030f 1D01     		.2byte	0x11d
 1334 0311 A9020000 		.4byte	0x2a9
 1335 0315 14       		.byte	0x14
 1336 0316 0D       		.uleb128 0xd
 1337 0317 72313000 		.ascii	"r10\000"
 1338 031b 09       		.byte	0x9
 1339 031c 1E01     		.2byte	0x11e
 1340 031e A9020000 		.4byte	0x2a9
 1341 0322 18       		.byte	0x18
 1342 0323 0D       		.uleb128 0xd
 1343 0324 72313100 		.ascii	"r11\000"
 1344 0328 09       		.byte	0x9
 1345 0329 1F01     		.2byte	0x11f
 1346 032b A9020000 		.4byte	0x2a9
 1347 032f 1C       		.byte	0x1c
 1348 0330 0D       		.uleb128 0xd
 1349 0331 6C7200   		.ascii	"lr\000"
 1350 0334 09       		.byte	0x9
 1351 0335 2001     		.2byte	0x120
 1352 0337 A9020000 		.4byte	0x2a9
 1353 033b 20       		.byte	0x20
 1354 033c 00       		.byte	0
 1355 033d 0C       		.uleb128 0xc
 1356 033e 1F020000 		.4byte	.LASF55
 1357 0342 04       		.byte	0x4
 1358 0343 09       		.byte	0x9
 1359 0344 2A01     		.2byte	0x12a
 1360 0346 58030000 		.4byte	0x358
 1361 034a 0D       		.uleb128 0xd
 1362 034b 72313300 		.ascii	"r13\000"
 1363 034f 09       		.byte	0x9
 1364 0350 2B01     		.2byte	0x12b
 1365 0352 58030000 		.4byte	0x358
 1366 0356 00       		.byte	0
 1367 0357 00       		.byte	0
 1368 0358 0A       		.uleb128 0xa
ARM GAS  /tmp/cc34Z630.s 			page 25


 1369 0359 04       		.byte	0x4
 1370 035a C1020000 		.4byte	0x2c1
 1371 035e 04       		.uleb128 0x4
 1372 035f 04       		.byte	0x4
 1373 0360 07       		.byte	0x7
 1374 0361 6B030000 		.4byte	.LASF56
 1375 0365 03       		.uleb128 0x3
 1376 0366 08020000 		.4byte	.LASF57
 1377 036a 0A       		.byte	0xa
 1378 036b 51       		.byte	0x51
 1379 036c 70030000 		.4byte	0x370
 1380 0370 0A       		.uleb128 0xa
 1381 0371 04       		.byte	0x4
 1382 0372 76030000 		.4byte	0x376
 1383 0376 0E       		.uleb128 0xe
 1384 0377 81030000 		.4byte	0x381
 1385 037b 0F       		.uleb128 0xf
 1386 037c B4020000 		.4byte	0x2b4
 1387 0380 00       		.byte	0
 1388 0381 03       		.uleb128 0x3
 1389 0382 1B050000 		.4byte	.LASF58
 1390 0386 0A       		.byte	0xa
 1391 0387 56       		.byte	0x56
 1392 0388 8C030000 		.4byte	0x38c
 1393 038c 06       		.uleb128 0x6
 1394 038d 1B050000 		.4byte	.LASF58
 1395 0391 14       		.byte	0x14
 1396 0392 0A       		.byte	0xa
 1397 0393 5D       		.byte	0x5d
 1398 0394 D5030000 		.4byte	0x3d5
 1399 0398 07       		.uleb128 0x7
 1400 0399 E5010000 		.4byte	.LASF59
 1401 039d 0A       		.byte	0xa
 1402 039e 5E       		.byte	0x5e
 1403 039f D5030000 		.4byte	0x3d5
 1404 03a3 00       		.byte	0
 1405 03a4 07       		.uleb128 0x7
 1406 03a5 B2010000 		.4byte	.LASF60
 1407 03a9 0A       		.byte	0xa
 1408 03aa 60       		.byte	0x60
 1409 03ab D5030000 		.4byte	0x3d5
 1410 03af 04       		.byte	0x4
 1411 03b0 07       		.uleb128 0x7
 1412 03b1 D0020000 		.4byte	.LASF61
 1413 03b5 0A       		.byte	0xa
 1414 03b6 62       		.byte	0x62
 1415 03b7 3F010000 		.4byte	0x13f
 1416 03bb 08       		.byte	0x8
 1417 03bc 07       		.uleb128 0x7
 1418 03bd 6D000000 		.4byte	.LASF62
 1419 03c1 0A       		.byte	0xa
 1420 03c2 63       		.byte	0x63
 1421 03c3 65030000 		.4byte	0x365
 1422 03c7 0C       		.byte	0xc
 1423 03c8 07       		.uleb128 0x7
 1424 03c9 98050000 		.4byte	.LASF63
 1425 03cd 0A       		.byte	0xa
ARM GAS  /tmp/cc34Z630.s 			page 26


 1426 03ce 65       		.byte	0x65
 1427 03cf B4020000 		.4byte	0x2b4
 1428 03d3 10       		.byte	0x10
 1429 03d4 00       		.byte	0
 1430 03d5 0A       		.uleb128 0xa
 1431 03d6 04       		.byte	0x4
 1432 03d7 81030000 		.4byte	0x381
 1433 03db 09       		.uleb128 0x9
 1434 03dc 10       		.byte	0x10
 1435 03dd 0A       		.byte	0xa
 1436 03de 6F       		.byte	0x6f
 1437 03df 14040000 		.4byte	0x414
 1438 03e3 07       		.uleb128 0x7
 1439 03e4 E5010000 		.4byte	.LASF59
 1440 03e8 0A       		.byte	0xa
 1441 03e9 70       		.byte	0x70
 1442 03ea D5030000 		.4byte	0x3d5
 1443 03ee 00       		.byte	0
 1444 03ef 07       		.uleb128 0x7
 1445 03f0 B2010000 		.4byte	.LASF60
 1446 03f4 0A       		.byte	0xa
 1447 03f5 72       		.byte	0x72
 1448 03f6 D5030000 		.4byte	0x3d5
 1449 03fa 04       		.byte	0x4
 1450 03fb 07       		.uleb128 0x7
 1451 03fc D0020000 		.4byte	.LASF61
 1452 0400 0A       		.byte	0xa
 1453 0401 74       		.byte	0x74
 1454 0402 3F010000 		.4byte	0x13f
 1455 0406 08       		.byte	0x8
 1456 0407 07       		.uleb128 0x7
 1457 0408 FE050000 		.4byte	.LASF64
 1458 040c 0A       		.byte	0xa
 1459 040d 75       		.byte	0x75
 1460 040e 4A010000 		.4byte	0x14a
 1461 0412 0C       		.byte	0xc
 1462 0413 00       		.byte	0
 1463 0414 03       		.uleb128 0x3
 1464 0415 29060000 		.4byte	.LASF65
 1465 0419 0A       		.byte	0xa
 1466 041a 76       		.byte	0x76
 1467 041b DB030000 		.4byte	0x3db
 1468 041f 10       		.uleb128 0x10
 1469 0420 88000000 		.4byte	.LASF73
 1470 0424 0A       		.byte	0xa
 1471 0425 EE       		.byte	0xee
 1472 0426 14040000 		.4byte	0x414
 1473 042a 09       		.uleb128 0x9
 1474 042b 1C       		.byte	0x1c
 1475 042c 0B       		.byte	0xb
 1476 042d 57       		.byte	0x57
 1477 042e 7B040000 		.4byte	0x47b
 1478 0432 07       		.uleb128 0x7
 1479 0433 13050000 		.4byte	.LASF66
 1480 0437 0B       		.byte	0xb
 1481 0438 58       		.byte	0x58
 1482 0439 7E020000 		.4byte	0x27e
ARM GAS  /tmp/cc34Z630.s 			page 27


 1483 043d 00       		.byte	0
 1484 043e 07       		.uleb128 0x7
 1485 043f 8D040000 		.4byte	.LASF67
 1486 0443 0B       		.byte	0xb
 1487 0444 59       		.byte	0x59
 1488 0445 1E010000 		.4byte	0x11e
 1489 0449 08       		.byte	0x8
 1490 044a 07       		.uleb128 0x7
 1491 044b C4030000 		.4byte	.LASF68
 1492 044f 0B       		.byte	0xb
 1493 0450 5B       		.byte	0x5b
 1494 0451 3D030000 		.4byte	0x33d
 1495 0455 0C       		.byte	0xc
 1496 0456 07       		.uleb128 0x7
 1497 0457 52020000 		.4byte	.LASF69
 1498 045b 0B       		.byte	0xb
 1499 045c 5E       		.byte	0x5e
 1500 045d 78020000 		.4byte	0x278
 1501 0461 10       		.byte	0x10
 1502 0462 07       		.uleb128 0x7
 1503 0463 FA030000 		.4byte	.LASF70
 1504 0467 0B       		.byte	0xb
 1505 0468 5F       		.byte	0x5f
 1506 0469 78020000 		.4byte	0x278
 1507 046d 14       		.byte	0x14
 1508 046e 07       		.uleb128 0x7
 1509 046f F0030000 		.4byte	.LASF71
 1510 0473 0B       		.byte	0xb
 1511 0474 62       		.byte	0x62
 1512 0475 78020000 		.4byte	0x278
 1513 0479 18       		.byte	0x18
 1514 047a 00       		.byte	0
 1515 047b 03       		.uleb128 0x3
 1516 047c B8050000 		.4byte	.LASF72
 1517 0480 0B       		.byte	0xb
 1518 0481 64       		.byte	0x64
 1519 0482 2A040000 		.4byte	0x42a
 1520 0486 10       		.uleb128 0x10
 1521 0487 C2050000 		.4byte	.LASF74
 1522 048b 0B       		.byte	0xb
 1523 048c 68       		.byte	0x68
 1524 048d 7B040000 		.4byte	0x47b
 1525 0491 06       		.uleb128 0x6
 1526 0492 91020000 		.4byte	.LASF75
 1527 0496 10       		.byte	0x10
 1528 0497 0C       		.byte	0xc
 1529 0498 25       		.byte	0x25
 1530 0499 C2040000 		.4byte	0x4c2
 1531 049d 07       		.uleb128 0x7
 1532 049e 25010000 		.4byte	.LASF76
 1533 04a2 0C       		.byte	0xc
 1534 04a3 26       		.byte	0x26
 1535 04a4 7E020000 		.4byte	0x27e
 1536 04a8 00       		.byte	0
 1537 04a9 07       		.uleb128 0x7
 1538 04aa 30060000 		.4byte	.LASF77
 1539 04ae 0C       		.byte	0xc
ARM GAS  /tmp/cc34Z630.s 			page 28


 1540 04af 28       		.byte	0x28
 1541 04b0 78020000 		.4byte	0x278
 1542 04b4 08       		.byte	0x8
 1543 04b5 07       		.uleb128 0x7
 1544 04b6 44050000 		.4byte	.LASF78
 1545 04ba 0C       		.byte	0xc
 1546 04bb 2A       		.byte	0x2a
 1547 04bc C2040000 		.4byte	0x4c2
 1548 04c0 0C       		.byte	0xc
 1549 04c1 00       		.byte	0
 1550 04c2 0A       		.uleb128 0xa
 1551 04c3 04       		.byte	0x4
 1552 04c4 91040000 		.4byte	0x491
 1553 04c8 03       		.uleb128 0x3
 1554 04c9 91020000 		.4byte	.LASF75
 1555 04cd 0C       		.byte	0xc
 1556 04ce 2C       		.byte	0x2c
 1557 04cf 91040000 		.4byte	0x491
 1558 04d3 11       		.uleb128 0x11
 1559 04d4 04       		.byte	0x4
 1560 04d5 08       		.byte	0x8
 1561 04d6 8F       		.byte	0x8f
 1562 04d7 08050000 		.4byte	0x508
 1563 04db 12       		.uleb128 0x12
 1564 04dc AA050000 		.4byte	.LASF79
 1565 04e0 08       		.byte	0x8
 1566 04e1 96       		.byte	0x96
 1567 04e2 29010000 		.4byte	0x129
 1568 04e6 12       		.uleb128 0x12
 1569 04e7 BF000000 		.4byte	.LASF80
 1570 04eb 08       		.byte	0x8
 1571 04ec 9D       		.byte	0x9d
 1572 04ed 29010000 		.4byte	0x129
 1573 04f1 12       		.uleb128 0x12
 1574 04f2 F0050000 		.4byte	.LASF81
 1575 04f6 08       		.byte	0x8
 1576 04f7 A4       		.byte	0xa4
 1577 04f8 B4020000 		.4byte	0x2b4
 1578 04fc 12       		.uleb128 0x12
 1579 04fd 94040000 		.4byte	.LASF82
 1580 0501 08       		.byte	0x8
 1581 0502 AB       		.byte	0xab
 1582 0503 34010000 		.4byte	0x134
 1583 0507 00       		.byte	0
 1584 0508 0A       		.uleb128 0xa
 1585 0509 04       		.byte	0x4
 1586 050a 15050000 		.4byte	0x515
 1587 050e 04       		.uleb128 0x4
 1588 050f 01       		.byte	0x1
 1589 0510 08       		.byte	0x8
 1590 0511 28050000 		.4byte	.LASF83
 1591 0515 13       		.uleb128 0x13
 1592 0516 0E050000 		.4byte	0x50e
 1593 051a 0A       		.uleb128 0xa
 1594 051b 04       		.byte	0x4
 1595 051c C8040000 		.4byte	0x4c8
 1596 0520 03       		.uleb128 0x3
ARM GAS  /tmp/cc34Z630.s 			page 29


 1597 0521 00000000 		.4byte	.LASF84
 1598 0525 08       		.byte	0x8
 1599 0526 DE       		.byte	0xde
 1600 0527 2B050000 		.4byte	0x52b
 1601 052b 0A       		.uleb128 0xa
 1602 052c 04       		.byte	0x4
 1603 052d 31050000 		.4byte	0x531
 1604 0531 14       		.uleb128 0x14
 1605 0532 29010000 		.4byte	0x129
 1606 0536 40050000 		.4byte	0x540
 1607 053a 0F       		.uleb128 0xf
 1608 053b B4020000 		.4byte	0x2b4
 1609 053f 00       		.byte	0
 1610 0540 09       		.uleb128 0x9
 1611 0541 16       		.byte	0x16
 1612 0542 0D       		.byte	0xd
 1613 0543 25       		.byte	0x25
 1614 0544 21060000 		.4byte	0x621
 1615 0548 07       		.uleb128 0x7
 1616 0549 11020000 		.4byte	.LASF85
 1617 054d 0D       		.byte	0xd
 1618 054e 26       		.byte	0x26
 1619 054f 21060000 		.4byte	0x621
 1620 0553 00       		.byte	0
 1621 0554 07       		.uleb128 0x7
 1622 0555 BC020000 		.4byte	.LASF86
 1623 0559 0D       		.byte	0xd
 1624 055a 27       		.byte	0x27
 1625 055b B4000000 		.4byte	0xb4
 1626 055f 04       		.byte	0x4
 1627 0560 07       		.uleb128 0x7
 1628 0561 D7030000 		.4byte	.LASF87
 1629 0565 0D       		.byte	0xd
 1630 0566 28       		.byte	0x28
 1631 0567 B4000000 		.4byte	0xb4
 1632 056b 05       		.byte	0x5
 1633 056c 07       		.uleb128 0x7
 1634 056d 1E060000 		.4byte	.LASF88
 1635 0571 0D       		.byte	0xd
 1636 0572 29       		.byte	0x29
 1637 0573 BF000000 		.4byte	0xbf
 1638 0577 06       		.byte	0x6
 1639 0578 07       		.uleb128 0x7
 1640 0579 25040000 		.4byte	.LASF89
 1641 057d 0D       		.byte	0xd
 1642 057e 2A       		.byte	0x2a
 1643 057f B4000000 		.4byte	0xb4
 1644 0583 08       		.byte	0x8
 1645 0584 07       		.uleb128 0x7
 1646 0585 80030000 		.4byte	.LASF90
 1647 0589 0D       		.byte	0xd
 1648 058a 2B       		.byte	0x2b
 1649 058b B4000000 		.4byte	0xb4
 1650 058f 09       		.byte	0x9
 1651 0590 07       		.uleb128 0x7
 1652 0591 B1000000 		.4byte	.LASF91
 1653 0595 0D       		.byte	0xd
ARM GAS  /tmp/cc34Z630.s 			page 30


 1654 0596 2C       		.byte	0x2c
 1655 0597 B4000000 		.4byte	0xb4
 1656 059b 0A       		.byte	0xa
 1657 059c 07       		.uleb128 0x7
 1658 059d 07050000 		.4byte	.LASF92
 1659 05a1 0D       		.byte	0xd
 1660 05a2 2D       		.byte	0x2d
 1661 05a3 B4000000 		.4byte	0xb4
 1662 05a7 0B       		.byte	0xb
 1663 05a8 07       		.uleb128 0x7
 1664 05a9 9F050000 		.4byte	.LASF93
 1665 05ad 0D       		.byte	0xd
 1666 05ae 2E       		.byte	0x2e
 1667 05af B4000000 		.4byte	0xb4
 1668 05b3 0C       		.byte	0xc
 1669 05b4 07       		.uleb128 0x7
 1670 05b5 CD040000 		.4byte	.LASF94
 1671 05b9 0D       		.byte	0xd
 1672 05ba 2F       		.byte	0x2f
 1673 05bb B4000000 		.4byte	0xb4
 1674 05bf 0D       		.byte	0xd
 1675 05c0 07       		.uleb128 0x7
 1676 05c1 08000000 		.4byte	.LASF95
 1677 05c5 0D       		.byte	0xd
 1678 05c6 30       		.byte	0x30
 1679 05c7 B4000000 		.4byte	0xb4
 1680 05cb 0E       		.byte	0xe
 1681 05cc 07       		.uleb128 0x7
 1682 05cd B0030000 		.4byte	.LASF96
 1683 05d1 0D       		.byte	0xd
 1684 05d2 31       		.byte	0x31
 1685 05d3 B4000000 		.4byte	0xb4
 1686 05d7 0F       		.byte	0xf
 1687 05d8 07       		.uleb128 0x7
 1688 05d9 00010000 		.4byte	.LASF97
 1689 05dd 0D       		.byte	0xd
 1690 05de 32       		.byte	0x32
 1691 05df B4000000 		.4byte	0xb4
 1692 05e3 10       		.byte	0x10
 1693 05e4 07       		.uleb128 0x7
 1694 05e5 CF000000 		.4byte	.LASF98
 1695 05e9 0D       		.byte	0xd
 1696 05ea 34       		.byte	0x34
 1697 05eb B4000000 		.4byte	0xb4
 1698 05ef 11       		.byte	0x11
 1699 05f0 07       		.uleb128 0x7
 1700 05f1 10010000 		.4byte	.LASF99
 1701 05f5 0D       		.byte	0xd
 1702 05f6 35       		.byte	0x35
 1703 05f7 B4000000 		.4byte	0xb4
 1704 05fb 12       		.byte	0x12
 1705 05fc 07       		.uleb128 0x7
 1706 05fd C4020000 		.4byte	.LASF100
 1707 0601 0D       		.byte	0xd
 1708 0602 36       		.byte	0x36
 1709 0603 B4000000 		.4byte	0xb4
 1710 0607 13       		.byte	0x13
ARM GAS  /tmp/cc34Z630.s 			page 31


 1711 0608 07       		.uleb128 0x7
 1712 0609 A2040000 		.4byte	.LASF101
 1713 060d 0D       		.byte	0xd
 1714 060e 37       		.byte	0x37
 1715 060f B4000000 		.4byte	0xb4
 1716 0613 14       		.byte	0x14
 1717 0614 07       		.uleb128 0x7
 1718 0615 81040000 		.4byte	.LASF102
 1719 0619 0D       		.byte	0xd
 1720 061a 39       		.byte	0x39
 1721 061b B4000000 		.4byte	0xb4
 1722 061f 15       		.byte	0x15
 1723 0620 00       		.byte	0
 1724 0621 15       		.uleb128 0x15
 1725 0622 0E050000 		.4byte	0x50e
 1726 0626 31060000 		.4byte	0x631
 1727 062a 16       		.uleb128 0x16
 1728 062b 5E030000 		.4byte	0x35e
 1729 062f 03       		.byte	0x3
 1730 0630 00       		.byte	0
 1731 0631 03       		.uleb128 0x3
 1732 0632 5F010000 		.4byte	.LASF103
 1733 0636 0D       		.byte	0xd
 1734 0637 3A       		.byte	0x3a
 1735 0638 40050000 		.4byte	0x540
 1736 063c 13       		.uleb128 0x13
 1737 063d 31060000 		.4byte	0x631
 1738 0641 10       		.uleb128 0x10
 1739 0642 FF010000 		.4byte	.LASF104
 1740 0646 0D       		.byte	0xd
 1741 0647 77       		.byte	0x77
 1742 0648 3C060000 		.4byte	0x63c
 1743 064c 15       		.uleb128 0x15
 1744 064d B6020000 		.4byte	0x2b6
 1745 0651 5C060000 		.4byte	0x65c
 1746 0655 16       		.uleb128 0x16
 1747 0656 5E030000 		.4byte	0x35e
 1748 065a 17       		.byte	0x17
 1749 065b 00       		.byte	0
 1750 065c 10       		.uleb128 0x10
 1751 065d 71010000 		.4byte	.LASF105
 1752 0661 0E       		.byte	0xe
 1753 0662 82       		.byte	0x82
 1754 0663 4C060000 		.4byte	0x64c
 1755 0667 17       		.uleb128 0x17
 1756 0668 8E050000 		.4byte	.LASF113
 1757 066c 01       		.byte	0x1
 1758 066d 9D01     		.2byte	0x19d
 1759 066f 29010000 		.4byte	0x129
 1760 0673 00000000 		.4byte	.LFB18
 1761 0677 38000000 		.4byte	.LFE18-.LFB18
 1762 067b 01       		.uleb128 0x1
 1763 067c 9C       		.byte	0x9c
 1764 067d 1F070000 		.4byte	0x71f
 1765 0681 18       		.uleb128 0x18
 1766 0682 747000   		.ascii	"tp\000"
 1767 0685 01       		.byte	0x1
ARM GAS  /tmp/cc34Z630.s 			page 32


 1768 0686 9D01     		.2byte	0x19d
 1769 0688 78020000 		.4byte	0x278
 1770 068c 00000000 		.4byte	.LLST29
 1771 0690 19       		.uleb128 0x19
 1772 0691 6D736700 		.ascii	"msg\000"
 1773 0695 01       		.byte	0x1
 1774 0696 9E01     		.2byte	0x19e
 1775 0698 29010000 		.4byte	0x129
 1776 069c 2C000000 		.4byte	.LLST30
 1777 06a0 1A       		.uleb128 0x1a
 1778 06a1 04000000 		.4byte	.LBB57
 1779 06a5 06000000 		.4byte	.LBE57-.LBB57
 1780 06a9 BC060000 		.4byte	0x6bc
 1781 06ad 1B       		.uleb128 0x1b
 1782 06ae 746D7000 		.ascii	"tmp\000"
 1783 06b2 01       		.byte	0x1
 1784 06b3 A201     		.2byte	0x1a2
 1785 06b5 D5000000 		.4byte	0xd5
 1786 06b9 01       		.uleb128 0x1
 1787 06ba 53       		.byte	0x53
 1788 06bb 00       		.byte	0
 1789 06bc 1A       		.uleb128 0x1a
 1790 06bd 22000000 		.4byte	.LBB62
 1791 06c1 06000000 		.4byte	.LBE62-.LBB62
 1792 06c5 D8060000 		.4byte	0x6d8
 1793 06c9 1B       		.uleb128 0x1b
 1794 06ca 746D7000 		.ascii	"tmp\000"
 1795 06ce 01       		.byte	0x1
 1796 06cf AC01     		.2byte	0x1ac
 1797 06d1 D5000000 		.4byte	0xd5
 1798 06d5 01       		.uleb128 0x1
 1799 06d6 53       		.byte	0x53
 1800 06d7 00       		.byte	0
 1801 06d8 1C       		.uleb128 0x1c
 1802 06d9 320C0000 		.4byte	0xc32
 1803 06dd 12000000 		.4byte	.LBB58
 1804 06e1 A0000000 		.4byte	.Ldebug_ranges0+0xa0
 1805 06e5 01       		.byte	0x1
 1806 06e6 A801     		.2byte	0x1a8
 1807 06e8 FB060000 		.4byte	0x6fb
 1808 06ec 1D       		.uleb128 0x1d
 1809 06ed 480C0000 		.4byte	0xc48
 1810 06f1 4A000000 		.4byte	.LLST31
 1811 06f5 1E       		.uleb128 0x1e
 1812 06f6 3E0C0000 		.4byte	0xc3e
 1813 06fa 00       		.byte	0
 1814 06fb 1F       		.uleb128 0x1f
 1815 06fc 20000000 		.4byte	.LVL53
 1816 0700 E00C0000 		.4byte	0xce0
 1817 0704 0E070000 		.4byte	0x70e
 1818 0708 20       		.uleb128 0x20
 1819 0709 01       		.uleb128 0x1
 1820 070a 50       		.byte	0x50
 1821 070b 01       		.uleb128 0x1
 1822 070c 37       		.byte	0x37
 1823 070d 00       		.byte	0
 1824 070e 21       		.uleb128 0x21
ARM GAS  /tmp/cc34Z630.s 			page 33


 1825 070f 2E000000 		.4byte	.LVL55
 1826 0713 EB0C0000 		.4byte	0xceb
 1827 0717 20       		.uleb128 0x20
 1828 0718 01       		.uleb128 0x1
 1829 0719 50       		.byte	0x50
 1830 071a 02       		.uleb128 0x2
 1831 071b 74       		.byte	0x74
 1832 071c 00       		.sleb128 0
 1833 071d 00       		.byte	0
 1834 071e 00       		.byte	0
 1835 071f 22       		.uleb128 0x22
 1836 0720 8F000000 		.4byte	.LASF106
 1837 0724 01       		.byte	0x1
 1838 0725 6701     		.2byte	0x167
 1839 0727 00000000 		.4byte	.LFB17
 1840 072b 40000000 		.4byte	.LFE17-.LFB17
 1841 072f 01       		.uleb128 0x1
 1842 0730 9C       		.byte	0x9c
 1843 0731 9E070000 		.4byte	0x79e
 1844 0735 18       		.uleb128 0x18
 1845 0736 6D736700 		.ascii	"msg\000"
 1846 073a 01       		.byte	0x1
 1847 073b 6701     		.2byte	0x167
 1848 073d 29010000 		.4byte	0x129
 1849 0741 6C000000 		.4byte	.LLST24
 1850 0745 19       		.uleb128 0x19
 1851 0746 747000   		.ascii	"tp\000"
 1852 0749 01       		.byte	0x1
 1853 074a 6801     		.2byte	0x168
 1854 074c 78020000 		.4byte	0x278
 1855 0750 99000000 		.4byte	.LLST25
 1856 0754 23       		.uleb128 0x23
 1857 0755 060C0000 		.4byte	0xc06
 1858 0759 12000000 		.4byte	.LBB54
 1859 075d 04000000 		.4byte	.LBE54-.LBB54
 1860 0761 01       		.byte	0x1
 1861 0762 7001     		.2byte	0x170
 1862 0764 85070000 		.4byte	0x785
 1863 0768 1D       		.uleb128 0x1d
 1864 0769 160C0000 		.4byte	0xc16
 1865 076d AC000000 		.4byte	.LLST26
 1866 0771 24       		.uleb128 0x24
 1867 0772 12000000 		.4byte	.LBB55
 1868 0776 04000000 		.4byte	.LBE55-.LBB55
 1869 077a 25       		.uleb128 0x25
 1870 077b 210C0000 		.4byte	0xc21
 1871 077f BF000000 		.4byte	.LLST27
 1872 0783 00       		.byte	0
 1873 0784 00       		.byte	0
 1874 0785 26       		.uleb128 0x26
 1875 0786 1A000000 		.4byte	.LVL44
 1876 078a F60C0000 		.4byte	0xcf6
 1877 078e 27       		.uleb128 0x27
 1878 078f 3A000000 		.4byte	.LVL46
 1879 0793 E00C0000 		.4byte	0xce0
 1880 0797 20       		.uleb128 0x20
 1881 0798 01       		.uleb128 0x1
ARM GAS  /tmp/cc34Z630.s 			page 34


 1882 0799 50       		.byte	0x50
 1883 079a 01       		.uleb128 0x1
 1884 079b 3E       		.byte	0x3e
 1885 079c 00       		.byte	0
 1886 079d 00       		.byte	0
 1887 079e 22       		.uleb128 0x22
 1888 079f F6000000 		.4byte	.LASF107
 1889 07a3 01       		.byte	0x1
 1890 07a4 5201     		.2byte	0x152
 1891 07a6 00000000 		.4byte	.LFB16
 1892 07aa 0A000000 		.4byte	.LFE16-.LFB16
 1893 07ae 01       		.uleb128 0x1
 1894 07af 9C       		.byte	0x9c
 1895 07b0 F2070000 		.4byte	0x7f2
 1896 07b4 18       		.uleb128 0x18
 1897 07b5 6D736700 		.ascii	"msg\000"
 1898 07b9 01       		.byte	0x1
 1899 07ba 5201     		.2byte	0x152
 1900 07bc 29010000 		.4byte	0x129
 1901 07c0 D2000000 		.4byte	.LLST28
 1902 07c4 1A       		.uleb128 0x1a
 1903 07c5 00000000 		.4byte	.LBB56
 1904 07c9 06000000 		.4byte	.LBE56-.LBB56
 1905 07cd E0070000 		.4byte	0x7e0
 1906 07d1 1B       		.uleb128 0x1b
 1907 07d2 746D7000 		.ascii	"tmp\000"
 1908 07d6 01       		.byte	0x1
 1909 07d7 5401     		.2byte	0x154
 1910 07d9 D5000000 		.4byte	0xd5
 1911 07dd 01       		.uleb128 0x1
 1912 07de 53       		.byte	0x53
 1913 07df 00       		.byte	0
 1914 07e0 27       		.uleb128 0x27
 1915 07e1 0A000000 		.4byte	.LVL48
 1916 07e5 1F070000 		.4byte	0x71f
 1917 07e9 20       		.uleb128 0x20
 1918 07ea 01       		.uleb128 0x1
 1919 07eb 50       		.byte	0x50
 1920 07ec 03       		.uleb128 0x3
 1921 07ed F3       		.byte	0xf3
 1922 07ee 01       		.uleb128 0x1
 1923 07ef 50       		.byte	0x50
 1924 07f0 00       		.byte	0
 1925 07f1 00       		.byte	0
 1926 07f2 22       		.uleb128 0x22
 1927 07f3 6A050000 		.4byte	.LASF108
 1928 07f7 01       		.byte	0x1
 1929 07f8 3D01     		.2byte	0x13d
 1930 07fa 00000000 		.4byte	.LFB15
 1931 07fe 28000000 		.4byte	.LFE15-.LFB15
 1932 0802 01       		.uleb128 0x1
 1933 0803 9C       		.byte	0x9c
 1934 0804 4A080000 		.4byte	0x84a
 1935 0808 1A       		.uleb128 0x1a
 1936 0809 02000000 		.4byte	.LBB52
 1937 080d 06000000 		.4byte	.LBE52-.LBB52
 1938 0811 24080000 		.4byte	0x824
ARM GAS  /tmp/cc34Z630.s 			page 35


 1939 0815 1B       		.uleb128 0x1b
 1940 0816 746D7000 		.ascii	"tmp\000"
 1941 081a 01       		.byte	0x1
 1942 081b 3F01     		.2byte	0x13f
 1943 081d D5000000 		.4byte	0xd5
 1944 0821 01       		.uleb128 0x1
 1945 0822 53       		.byte	0x53
 1946 0823 00       		.byte	0
 1947 0824 1A       		.uleb128 0x1a
 1948 0825 1A000000 		.4byte	.LBB53
 1949 0829 0E000000 		.4byte	.LBE53-.LBB53
 1950 082d 40080000 		.4byte	0x840
 1951 0831 1B       		.uleb128 0x1b
 1952 0832 746D7000 		.ascii	"tmp\000"
 1953 0836 01       		.byte	0x1
 1954 0837 4101     		.2byte	0x141
 1955 0839 D5000000 		.4byte	0xd5
 1956 083d 01       		.uleb128 0x1
 1957 083e 53       		.byte	0x53
 1958 083f 00       		.byte	0
 1959 0840 26       		.uleb128 0x26
 1960 0841 1A000000 		.4byte	.LVL38
 1961 0845 010D0000 		.4byte	0xd01
 1962 0849 00       		.byte	0
 1963 084a 22       		.uleb128 0x22
 1964 084b 02040000 		.4byte	.LASF109
 1965 084f 01       		.byte	0x1
 1966 0850 2E01     		.2byte	0x12e
 1967 0852 00000000 		.4byte	.LFB14
 1968 0856 24000000 		.4byte	.LFE14-.LFB14
 1969 085a 01       		.uleb128 0x1
 1970 085b 9C       		.byte	0x9c
 1971 085c B8080000 		.4byte	0x8b8
 1972 0860 28       		.uleb128 0x28
 1973 0861 DF030000 		.4byte	.LASF110
 1974 0865 01       		.byte	0x1
 1975 0866 2E01     		.2byte	0x12e
 1976 0868 3F010000 		.4byte	0x13f
 1977 086c F3000000 		.4byte	.LLST23
 1978 0870 1A       		.uleb128 0x1a
 1979 0871 02000000 		.4byte	.LBB50
 1980 0875 06000000 		.4byte	.LBE50-.LBB50
 1981 0879 8C080000 		.4byte	0x88c
 1982 087d 1B       		.uleb128 0x1b
 1983 087e 746D7000 		.ascii	"tmp\000"
 1984 0882 01       		.byte	0x1
 1985 0883 3001     		.2byte	0x130
 1986 0885 D5000000 		.4byte	0xd5
 1987 0889 01       		.uleb128 0x1
 1988 088a 53       		.byte	0x53
 1989 088b 00       		.byte	0
 1990 088c 1A       		.uleb128 0x1a
 1991 088d 16000000 		.4byte	.LBB51
 1992 0891 0E000000 		.4byte	.LBE51-.LBB51
 1993 0895 A8080000 		.4byte	0x8a8
 1994 0899 1B       		.uleb128 0x1b
 1995 089a 746D7000 		.ascii	"tmp\000"
ARM GAS  /tmp/cc34Z630.s 			page 36


 1996 089e 01       		.byte	0x1
 1997 089f 3301     		.2byte	0x133
 1998 08a1 D5000000 		.4byte	0xd5
 1999 08a5 01       		.uleb128 0x1
 2000 08a6 53       		.byte	0x53
 2001 08a7 00       		.byte	0
 2002 08a8 21       		.uleb128 0x21
 2003 08a9 16000000 		.4byte	.LVL37
 2004 08ad 0C0D0000 		.4byte	0xd0c
 2005 08b1 20       		.uleb128 0x20
 2006 08b2 01       		.uleb128 0x1
 2007 08b3 50       		.byte	0x50
 2008 08b4 01       		.uleb128 0x1
 2009 08b5 36       		.byte	0x36
 2010 08b6 00       		.byte	0
 2011 08b7 00       		.byte	0
 2012 08b8 22       		.uleb128 0x22
 2013 08b9 F3040000 		.4byte	.LASF111
 2014 08bd 01       		.byte	0x1
 2015 08be 1D01     		.2byte	0x11d
 2016 08c0 00000000 		.4byte	.LFB13
 2017 08c4 18000000 		.4byte	.LFE13-.LFB13
 2018 08c8 01       		.uleb128 0x1
 2019 08c9 9C       		.byte	0x9c
 2020 08ca 2D090000 		.4byte	0x92d
 2021 08ce 28       		.uleb128 0x28
 2022 08cf DF030000 		.4byte	.LASF110
 2023 08d3 01       		.byte	0x1
 2024 08d4 1D01     		.2byte	0x11d
 2025 08d6 3F010000 		.4byte	0x13f
 2026 08da 21010000 		.4byte	.LLST22
 2027 08de 1A       		.uleb128 0x1a
 2028 08df 04000000 		.4byte	.LBB48
 2029 08e3 06000000 		.4byte	.LBE48-.LBB48
 2030 08e7 FA080000 		.4byte	0x8fa
 2031 08eb 1B       		.uleb128 0x1b
 2032 08ec 746D7000 		.ascii	"tmp\000"
 2033 08f0 01       		.byte	0x1
 2034 08f1 2101     		.2byte	0x121
 2035 08f3 D5000000 		.4byte	0xd5
 2036 08f7 01       		.uleb128 0x1
 2037 08f8 53       		.byte	0x53
 2038 08f9 00       		.byte	0
 2039 08fa 1A       		.uleb128 0x1a
 2040 08fb 10000000 		.4byte	.LBB49
 2041 08ff 08000000 		.4byte	.LBE49-.LBB49
 2042 0903 16090000 		.4byte	0x916
 2043 0907 1B       		.uleb128 0x1b
 2044 0908 746D7000 		.ascii	"tmp\000"
 2045 090c 01       		.byte	0x1
 2046 090d 2301     		.2byte	0x123
 2047 090f D5000000 		.4byte	0xd5
 2048 0913 01       		.uleb128 0x1
 2049 0914 53       		.byte	0x53
 2050 0915 00       		.byte	0
 2051 0916 21       		.uleb128 0x21
 2052 0917 10000000 		.4byte	.LVL33
ARM GAS  /tmp/cc34Z630.s 			page 37


 2053 091b 0C0D0000 		.4byte	0xd0c
 2054 091f 20       		.uleb128 0x20
 2055 0920 01       		.uleb128 0x1
 2056 0921 50       		.byte	0x50
 2057 0922 01       		.uleb128 0x1
 2058 0923 36       		.byte	0x36
 2059 0924 20       		.uleb128 0x20
 2060 0925 01       		.uleb128 0x1
 2061 0926 51       		.byte	0x51
 2062 0927 03       		.uleb128 0x3
 2063 0928 F3       		.byte	0xf3
 2064 0929 01       		.uleb128 0x1
 2065 092a 50       		.byte	0x50
 2066 092b 00       		.byte	0
 2067 092c 00       		.byte	0
 2068 092d 22       		.uleb128 0x22
 2069 092e 6A020000 		.4byte	.LASF112
 2070 0932 01       		.byte	0x1
 2071 0933 0A01     		.2byte	0x10a
 2072 0935 00000000 		.4byte	.LFB12
 2073 0939 16000000 		.4byte	.LFE12-.LFB12
 2074 093d 01       		.uleb128 0x1
 2075 093e 9C       		.byte	0x9c
 2076 093f 81090000 		.4byte	0x981
 2077 0943 29       		.uleb128 0x29
 2078 0944 747000   		.ascii	"tp\000"
 2079 0947 01       		.byte	0x1
 2080 0948 0A01     		.2byte	0x10a
 2081 094a 78020000 		.4byte	0x278
 2082 094e 01       		.uleb128 0x1
 2083 094f 50       		.byte	0x50
 2084 0950 1A       		.uleb128 0x1a
 2085 0951 00000000 		.4byte	.LBB45
 2086 0955 06000000 		.4byte	.LBE45-.LBB45
 2087 0959 6C090000 		.4byte	0x96c
 2088 095d 1B       		.uleb128 0x1b
 2089 095e 746D7000 		.ascii	"tmp\000"
 2090 0962 01       		.byte	0x1
 2091 0963 0C01     		.2byte	0x10c
 2092 0965 D5000000 		.4byte	0xd5
 2093 0969 01       		.uleb128 0x1
 2094 096a 53       		.byte	0x53
 2095 096b 00       		.byte	0
 2096 096c 2A       		.uleb128 0x2a
 2097 096d 88000000 		.4byte	.Ldebug_ranges0+0x88
 2098 0971 1B       		.uleb128 0x1b
 2099 0972 746D7000 		.ascii	"tmp\000"
 2100 0976 01       		.byte	0x1
 2101 0977 0E01     		.2byte	0x10e
 2102 0979 D5000000 		.4byte	0xd5
 2103 097d 01       		.uleb128 0x1
 2104 097e 53       		.byte	0x53
 2105 097f 00       		.byte	0
 2106 0980 00       		.byte	0
 2107 0981 2B       		.uleb128 0x2b
 2108 0982 8C030000 		.4byte	.LASF114
 2109 0986 01       		.byte	0x1
ARM GAS  /tmp/cc34Z630.s 			page 38


 2110 0987 F3       		.byte	0xf3
 2111 0988 78020000 		.4byte	0x278
 2112 098c 00000000 		.4byte	.LFB11
 2113 0990 1A000000 		.4byte	.LFE11-.LFB11
 2114 0994 01       		.uleb128 0x1
 2115 0995 9C       		.byte	0x9c
 2116 0996 F0090000 		.4byte	0x9f0
 2117 099a 2C       		.uleb128 0x2c
 2118 099b 747000   		.ascii	"tp\000"
 2119 099e 01       		.byte	0x1
 2120 099f F3       		.byte	0xf3
 2121 09a0 78020000 		.4byte	0x278
 2122 09a4 4D010000 		.4byte	.LLST21
 2123 09a8 2D       		.uleb128 0x2d
 2124 09a9 70000000 		.4byte	.Ldebug_ranges0+0x70
 2125 09ad BF090000 		.4byte	0x9bf
 2126 09b1 2E       		.uleb128 0x2e
 2127 09b2 746D7000 		.ascii	"tmp\000"
 2128 09b6 01       		.byte	0x1
 2129 09b7 F5       		.byte	0xf5
 2130 09b8 D5000000 		.4byte	0xd5
 2131 09bc 01       		.uleb128 0x1
 2132 09bd 53       		.byte	0x53
 2133 09be 00       		.byte	0
 2134 09bf 1A       		.uleb128 0x1a
 2135 09c0 10000000 		.4byte	.LBB44
 2136 09c4 06000000 		.4byte	.LBE44-.LBB44
 2137 09c8 DA090000 		.4byte	0x9da
 2138 09cc 2E       		.uleb128 0x2e
 2139 09cd 746D7000 		.ascii	"tmp\000"
 2140 09d1 01       		.byte	0x1
 2141 09d2 FA       		.byte	0xfa
 2142 09d3 D5000000 		.4byte	0xd5
 2143 09d7 01       		.uleb128 0x1
 2144 09d8 53       		.byte	0x53
 2145 09d9 00       		.byte	0
 2146 09da 21       		.uleb128 0x21
 2147 09db 10000000 		.4byte	.LVL29
 2148 09df 170D0000 		.4byte	0xd17
 2149 09e3 20       		.uleb128 0x20
 2150 09e4 01       		.uleb128 0x1
 2151 09e5 50       		.byte	0x50
 2152 09e6 02       		.uleb128 0x2
 2153 09e7 74       		.byte	0x74
 2154 09e8 00       		.sleb128 0
 2155 09e9 20       		.uleb128 0x20
 2156 09ea 01       		.uleb128 0x1
 2157 09eb 51       		.byte	0x51
 2158 09ec 01       		.uleb128 0x1
 2159 09ed 30       		.byte	0x30
 2160 09ee 00       		.byte	0
 2161 09ef 00       		.byte	0
 2162 09f0 2B       		.uleb128 0x2b
 2163 09f1 BA010000 		.4byte	.LASF115
 2164 09f5 01       		.byte	0x1
 2165 09f6 D2       		.byte	0xd2
 2166 09f7 1E010000 		.4byte	0x11e
ARM GAS  /tmp/cc34Z630.s 			page 39


 2167 09fb 00000000 		.4byte	.LFB10
 2168 09ff 30000000 		.4byte	.LFE10-.LFB10
 2169 0a03 01       		.uleb128 0x1
 2170 0a04 9C       		.byte	0x9c
 2171 0a05 670A0000 		.4byte	0xa67
 2172 0a09 2F       		.uleb128 0x2f
 2173 0a0a 5A020000 		.4byte	.LASF116
 2174 0a0e 01       		.byte	0x1
 2175 0a0f D2       		.byte	0xd2
 2176 0a10 1E010000 		.4byte	0x11e
 2177 0a14 6B010000 		.4byte	.LLST19
 2178 0a18 30       		.uleb128 0x30
 2179 0a19 97020000 		.4byte	.LASF117
 2180 0a1d 01       		.byte	0x1
 2181 0a1e D3       		.byte	0xd3
 2182 0a1f 1E010000 		.4byte	0x11e
 2183 0a23 8C010000 		.4byte	.LLST20
 2184 0a27 1A       		.uleb128 0x1a
 2185 0a28 02000000 		.4byte	.LBB40
 2186 0a2c 06000000 		.4byte	.LBE40-.LBB40
 2187 0a30 420A0000 		.4byte	0xa42
 2188 0a34 2E       		.uleb128 0x2e
 2189 0a35 746D7000 		.ascii	"tmp\000"
 2190 0a39 01       		.byte	0x1
 2191 0a3a D7       		.byte	0xd7
 2192 0a3b D5000000 		.4byte	0xd5
 2193 0a3f 01       		.uleb128 0x1
 2194 0a40 53       		.byte	0x53
 2195 0a41 00       		.byte	0
 2196 0a42 1A       		.uleb128 0x1a
 2197 0a43 20000000 		.4byte	.LBB41
 2198 0a47 06000000 		.4byte	.LBE41-.LBB41
 2199 0a4b 5D0A0000 		.4byte	0xa5d
 2200 0a4f 2E       		.uleb128 0x2e
 2201 0a50 746D7000 		.ascii	"tmp\000"
 2202 0a54 01       		.byte	0x1
 2203 0a55 E2       		.byte	0xe2
 2204 0a56 D5000000 		.4byte	0xd5
 2205 0a5a 01       		.uleb128 0x1
 2206 0a5b 53       		.byte	0x53
 2207 0a5c 00       		.byte	0
 2208 0a5d 26       		.uleb128 0x26
 2209 0a5e 20000000 		.4byte	.LVL26
 2210 0a62 220D0000 		.4byte	0xd22
 2211 0a66 00       		.byte	0
 2212 0a67 2B       		.uleb128 0x2b
 2213 0a68 AA020000 		.4byte	.LASF118
 2214 0a6c 01       		.byte	0x1
 2215 0a6d B4       		.byte	0xb4
 2216 0a6e 78020000 		.4byte	0x278
 2217 0a72 00000000 		.4byte	.LFB9
 2218 0a76 7C000000 		.4byte	.LFE9-.LFB9
 2219 0a7a 01       		.uleb128 0x1
 2220 0a7b 9C       		.byte	0x9c
 2221 0a7c 8F0B0000 		.4byte	0xb8f
 2222 0a80 2C       		.uleb128 0x2c
 2223 0a81 77737000 		.ascii	"wsp\000"
ARM GAS  /tmp/cc34Z630.s 			page 40


 2224 0a85 01       		.byte	0x1
 2225 0a86 B4       		.byte	0xb4
 2226 0a87 B4020000 		.4byte	0x2b4
 2227 0a8b AA010000 		.4byte	.LLST7
 2228 0a8f 2F       		.uleb128 0x2f
 2229 0a90 27020000 		.4byte	.LASF119
 2230 0a94 01       		.byte	0x1
 2231 0a95 B4       		.byte	0xb4
 2232 0a96 2C000000 		.4byte	0x2c
 2233 0a9a D3010000 		.4byte	.LLST8
 2234 0a9e 2F       		.uleb128 0x2f
 2235 0a9f 68000000 		.4byte	.LASF120
 2236 0aa3 01       		.byte	0x1
 2237 0aa4 B5       		.byte	0xb5
 2238 0aa5 1E010000 		.4byte	0x11e
 2239 0aa9 01020000 		.4byte	.LLST9
 2240 0aad 2C       		.uleb128 0x2c
 2241 0aae 706600   		.ascii	"pf\000"
 2242 0ab1 01       		.byte	0x1
 2243 0ab2 B5       		.byte	0xb5
 2244 0ab3 20050000 		.4byte	0x520
 2245 0ab7 2E020000 		.4byte	.LLST10
 2246 0abb 2C       		.uleb128 0x2c
 2247 0abc 61726700 		.ascii	"arg\000"
 2248 0ac0 01       		.byte	0x1
 2249 0ac1 B5       		.byte	0xb5
 2250 0ac2 B4020000 		.4byte	0x2b4
 2251 0ac6 73020000 		.4byte	.LLST11
 2252 0aca 31       		.uleb128 0x31
 2253 0acb 747000   		.ascii	"tp\000"
 2254 0ace 01       		.byte	0x1
 2255 0acf B6       		.byte	0xb6
 2256 0ad0 78020000 		.4byte	0x278
 2257 0ad4 1A       		.uleb128 0x1a
 2258 0ad5 08000000 		.4byte	.LBB24
 2259 0ad9 06000000 		.4byte	.LBE24-.LBB24
 2260 0add EF0A0000 		.4byte	0xaef
 2261 0ae1 2E       		.uleb128 0x2e
 2262 0ae2 746D7000 		.ascii	"tmp\000"
 2263 0ae6 01       		.byte	0x1
 2264 0ae7 C0       		.byte	0xc0
 2265 0ae8 D5000000 		.4byte	0xd5
 2266 0aec 01       		.uleb128 0x1
 2267 0aed 53       		.byte	0x53
 2268 0aee 00       		.byte	0
 2269 0aef 1A       		.uleb128 0x1a
 2270 0af0 66000000 		.4byte	.LBB39
 2271 0af4 06000000 		.4byte	.LBE39-.LBB39
 2272 0af8 0A0B0000 		.4byte	0xb0a
 2273 0afc 2E       		.uleb128 0x2e
 2274 0afd 746D7000 		.ascii	"tmp\000"
 2275 0b01 01       		.byte	0x1
 2276 0b02 C2       		.byte	0xc2
 2277 0b03 D5000000 		.4byte	0xd5
 2278 0b07 01       		.uleb128 0x1
 2279 0b08 53       		.byte	0x53
 2280 0b09 00       		.byte	0
ARM GAS  /tmp/cc34Z630.s 			page 41


 2281 0b0a 32       		.uleb128 0x32
 2282 0b0b 8F0B0000 		.4byte	0xb8f
 2283 0b0f 0E000000 		.4byte	.LBB25
 2284 0b13 28000000 		.4byte	.Ldebug_ranges0+0x28
 2285 0b17 01       		.byte	0x1
 2286 0b18 C1       		.byte	0xc1
 2287 0b19 780B0000 		.4byte	0xb78
 2288 0b1d 1D       		.uleb128 0x1d
 2289 0b1e CA0B0000 		.4byte	0xbca
 2290 0b22 93020000 		.4byte	.LLST12
 2291 0b26 1D       		.uleb128 0x1d
 2292 0b27 C00B0000 		.4byte	0xbc0
 2293 0b2b A7020000 		.4byte	.LLST13
 2294 0b2f 1D       		.uleb128 0x1d
 2295 0b30 B50B0000 		.4byte	0xbb5
 2296 0b34 E1020000 		.4byte	.LLST14
 2297 0b38 1D       		.uleb128 0x1d
 2298 0b39 AA0B0000 		.4byte	0xbaa
 2299 0b3d 00030000 		.4byte	.LLST15
 2300 0b41 1D       		.uleb128 0x1d
 2301 0b42 9F0B0000 		.4byte	0xb9f
 2302 0b46 2E030000 		.4byte	.LLST16
 2303 0b4a 2A       		.uleb128 0x2a
 2304 0b4b 28000000 		.4byte	.Ldebug_ranges0+0x28
 2305 0b4f 33       		.uleb128 0x33
 2306 0b50 B60C0000 		.4byte	0xcb6
 2307 0b54 34       		.uleb128 0x34
 2308 0b55 E00B0000 		.4byte	0xbe0
 2309 0b59 0E000000 		.4byte	.LBB27
 2310 0b5d 40000000 		.4byte	.Ldebug_ranges0+0x40
 2311 0b61 01       		.byte	0x1
 2312 0b62 A1       		.byte	0xa1
 2313 0b63 1D       		.uleb128 0x1d
 2314 0b64 FA0B0000 		.4byte	0xbfa
 2315 0b68 41030000 		.4byte	.LLST17
 2316 0b6c 1D       		.uleb128 0x1d
 2317 0b6d F00B0000 		.4byte	0xbf0
 2318 0b71 60030000 		.4byte	.LLST18
 2319 0b75 00       		.byte	0
 2320 0b76 00       		.byte	0
 2321 0b77 00       		.byte	0
 2322 0b78 21       		.uleb128 0x21
 2323 0b79 66000000 		.4byte	.LVL22
 2324 0b7d 170D0000 		.4byte	0xd17
 2325 0b81 20       		.uleb128 0x20
 2326 0b82 01       		.uleb128 0x1
 2327 0b83 50       		.byte	0x50
 2328 0b84 02       		.uleb128 0x2
 2329 0b85 74       		.byte	0x74
 2330 0b86 00       		.sleb128 0
 2331 0b87 20       		.uleb128 0x20
 2332 0b88 01       		.uleb128 0x1
 2333 0b89 51       		.byte	0x51
 2334 0b8a 02       		.uleb128 0x2
 2335 0b8b 75       		.byte	0x75
 2336 0b8c 00       		.sleb128 0
 2337 0b8d 00       		.byte	0
ARM GAS  /tmp/cc34Z630.s 			page 42


 2338 0b8e 00       		.byte	0
 2339 0b8f 35       		.uleb128 0x35
 2340 0b90 37010000 		.4byte	.LASF121
 2341 0b94 01       		.byte	0x1
 2342 0b95 96       		.byte	0x96
 2343 0b96 78020000 		.4byte	0x278
 2344 0b9a 01       		.byte	0x1
 2345 0b9b E00B0000 		.4byte	0xbe0
 2346 0b9f 36       		.uleb128 0x36
 2347 0ba0 77737000 		.ascii	"wsp\000"
 2348 0ba4 01       		.byte	0x1
 2349 0ba5 96       		.byte	0x96
 2350 0ba6 B4020000 		.4byte	0x2b4
 2351 0baa 37       		.uleb128 0x37
 2352 0bab 27020000 		.4byte	.LASF119
 2353 0baf 01       		.byte	0x1
 2354 0bb0 96       		.byte	0x96
 2355 0bb1 2C000000 		.4byte	0x2c
 2356 0bb5 37       		.uleb128 0x37
 2357 0bb6 68000000 		.4byte	.LASF120
 2358 0bba 01       		.byte	0x1
 2359 0bbb 97       		.byte	0x97
 2360 0bbc 1E010000 		.4byte	0x11e
 2361 0bc0 36       		.uleb128 0x36
 2362 0bc1 706600   		.ascii	"pf\000"
 2363 0bc4 01       		.byte	0x1
 2364 0bc5 97       		.byte	0x97
 2365 0bc6 20050000 		.4byte	0x520
 2366 0bca 36       		.uleb128 0x36
 2367 0bcb 61726700 		.ascii	"arg\000"
 2368 0bcf 01       		.byte	0x1
 2369 0bd0 97       		.byte	0x97
 2370 0bd1 B4020000 		.4byte	0x2b4
 2371 0bd5 31       		.uleb128 0x31
 2372 0bd6 747000   		.ascii	"tp\000"
 2373 0bd9 01       		.byte	0x1
 2374 0bda 99       		.byte	0x99
 2375 0bdb 78020000 		.4byte	0x278
 2376 0bdf 00       		.byte	0
 2377 0be0 35       		.uleb128 0x35
 2378 0be1 D8010000 		.4byte	.LASF122
 2379 0be5 01       		.byte	0x1
 2380 0be6 45       		.byte	0x45
 2381 0be7 78020000 		.4byte	0x278
 2382 0beb 01       		.byte	0x1
 2383 0bec 060C0000 		.4byte	0xc06
 2384 0bf0 36       		.uleb128 0x36
 2385 0bf1 747000   		.ascii	"tp\000"
 2386 0bf4 01       		.byte	0x1
 2387 0bf5 45       		.byte	0x45
 2388 0bf6 78020000 		.4byte	0x278
 2389 0bfa 37       		.uleb128 0x37
 2390 0bfb 68000000 		.4byte	.LASF120
 2391 0bff 01       		.byte	0x1
 2392 0c00 45       		.byte	0x45
 2393 0c01 1E010000 		.4byte	0x11e
 2394 0c05 00       		.byte	0
ARM GAS  /tmp/cc34Z630.s 			page 43


 2395 0c06 38       		.uleb128 0x38
 2396 0c07 81010000 		.4byte	.LASF133
 2397 0c0b 02       		.byte	0x2
 2398 0c0c 4F       		.byte	0x4f
 2399 0c0d 78020000 		.4byte	0x278
 2400 0c11 03       		.byte	0x3
 2401 0c12 2C0C0000 		.4byte	0xc2c
 2402 0c16 36       		.uleb128 0x36
 2403 0c17 746C7000 		.ascii	"tlp\000"
 2404 0c1b 02       		.byte	0x2
 2405 0c1c 4F       		.byte	0x4f
 2406 0c1d 2C0C0000 		.4byte	0xc2c
 2407 0c21 31       		.uleb128 0x31
 2408 0c22 747000   		.ascii	"tp\000"
 2409 0c25 02       		.byte	0x2
 2410 0c26 51       		.byte	0x51
 2411 0c27 78020000 		.4byte	0x278
 2412 0c2b 00       		.byte	0
 2413 0c2c 0A       		.uleb128 0xa
 2414 0c2d 04       		.byte	0x4
 2415 0c2e 9E020000 		.4byte	0x29e
 2416 0c32 39       		.uleb128 0x39
 2417 0c33 E4030000 		.4byte	.LASF134
 2418 0c37 02       		.byte	0x2
 2419 0c38 49       		.byte	0x49
 2420 0c39 03       		.byte	0x3
 2421 0c3a 540C0000 		.4byte	0xc54
 2422 0c3e 36       		.uleb128 0x36
 2423 0c3f 747000   		.ascii	"tp\000"
 2424 0c42 02       		.byte	0x2
 2425 0c43 49       		.byte	0x49
 2426 0c44 78020000 		.4byte	0x278
 2427 0c48 36       		.uleb128 0x36
 2428 0c49 746C7000 		.ascii	"tlp\000"
 2429 0c4d 02       		.byte	0x2
 2430 0c4e 49       		.byte	0x49
 2431 0c4f 2C0C0000 		.4byte	0xc2c
 2432 0c53 00       		.byte	0
 2433 0c54 3A       		.uleb128 0x3a
 2434 0c55 E00B0000 		.4byte	0xbe0
 2435 0c59 00000000 		.4byte	.LFB7
 2436 0c5d 44000000 		.4byte	.LFE7-.LFB7
 2437 0c61 01       		.uleb128 0x1
 2438 0c62 9C       		.byte	0x9c
 2439 0c63 780C0000 		.4byte	0xc78
 2440 0c67 3B       		.uleb128 0x3b
 2441 0c68 F00B0000 		.4byte	0xbf0
 2442 0c6c 01       		.uleb128 0x1
 2443 0c6d 50       		.byte	0x50
 2444 0c6e 1D       		.uleb128 0x1d
 2445 0c6f FA0B0000 		.4byte	0xbfa
 2446 0c73 73030000 		.4byte	.LLST0
 2447 0c77 00       		.byte	0
 2448 0c78 3A       		.uleb128 0x3a
 2449 0c79 8F0B0000 		.4byte	0xb8f
 2450 0c7d 00000000 		.4byte	.LFB8
 2451 0c81 64000000 		.4byte	.LFE8-.LFB8
ARM GAS  /tmp/cc34Z630.s 			page 44


 2452 0c85 01       		.uleb128 0x1
 2453 0c86 9C       		.byte	0x9c
 2454 0c87 E00C0000 		.4byte	0xce0
 2455 0c8b 3B       		.uleb128 0x3b
 2456 0c8c 9F0B0000 		.4byte	0xb9f
 2457 0c90 01       		.uleb128 0x1
 2458 0c91 50       		.byte	0x50
 2459 0c92 1D       		.uleb128 0x1d
 2460 0c93 AA0B0000 		.4byte	0xbaa
 2461 0c97 92030000 		.4byte	.LLST1
 2462 0c9b 1D       		.uleb128 0x1d
 2463 0c9c B50B0000 		.4byte	0xbb5
 2464 0ca0 C0030000 		.4byte	.LLST2
 2465 0ca4 1D       		.uleb128 0x1d
 2466 0ca5 C00B0000 		.4byte	0xbc0
 2467 0ca9 DF030000 		.4byte	.LLST3
 2468 0cad 1D       		.uleb128 0x1d
 2469 0cae CA0B0000 		.4byte	0xbca
 2470 0cb2 0C040000 		.4byte	.LLST4
 2471 0cb6 3C       		.uleb128 0x3c
 2472 0cb7 D50B0000 		.4byte	0xbd5
 2473 0cbb 01       		.uleb128 0x1
 2474 0cbc 50       		.byte	0x50
 2475 0cbd 34       		.uleb128 0x34
 2476 0cbe E00B0000 		.4byte	0xbe0
 2477 0cc2 04000000 		.4byte	.LBB16
 2478 0cc6 00000000 		.4byte	.Ldebug_ranges0+0
 2479 0cca 01       		.byte	0x1
 2480 0ccb A1       		.byte	0xa1
 2481 0ccc 1D       		.uleb128 0x1d
 2482 0ccd FA0B0000 		.4byte	0xbfa
 2483 0cd1 2C040000 		.4byte	.LLST5
 2484 0cd5 1D       		.uleb128 0x1d
 2485 0cd6 F00B0000 		.4byte	0xbf0
 2486 0cda 4B040000 		.4byte	.LLST6
 2487 0cde 00       		.byte	0
 2488 0cdf 00       		.byte	0
 2489 0ce0 3D       		.uleb128 0x3d
 2490 0ce1 DA040000 		.4byte	.LASF123
 2491 0ce5 DA040000 		.4byte	.LASF123
 2492 0ce9 0B       		.byte	0xb
 2493 0cea 8C       		.byte	0x8c
 2494 0ceb 3D       		.uleb128 0x3d
 2495 0cec B9040000 		.4byte	.LASF124
 2496 0cf0 B9040000 		.4byte	.LASF124
 2497 0cf4 0F       		.byte	0xf
 2498 0cf5 33       		.byte	0x33
 2499 0cf6 3D       		.uleb128 0x3d
 2500 0cf7 38050000 		.4byte	.LASF125
 2501 0cfb 38050000 		.4byte	.LASF125
 2502 0cff 0B       		.byte	0xb
 2503 0d00 89       		.byte	0x89
 2504 0d01 3D       		.uleb128 0x3d
 2505 0d02 98030000 		.4byte	.LASF126
 2506 0d06 98030000 		.4byte	.LASF126
 2507 0d0a 0B       		.byte	0xb
 2508 0d0b 9B       		.byte	0x9b
ARM GAS  /tmp/cc34Z630.s 			page 45


 2509 0d0c 3D       		.uleb128 0x3d
 2510 0d0d 09060000 		.4byte	.LASF127
 2511 0d11 09060000 		.4byte	.LASF127
 2512 0d15 0B       		.byte	0xb
 2513 0d16 8F       		.byte	0x8f
 2514 0d17 3D       		.uleb128 0x3d
 2515 0d18 3F020000 		.4byte	.LASF128
 2516 0d1c 3F020000 		.4byte	.LASF128
 2517 0d20 0B       		.byte	0xb
 2518 0d21 92       		.byte	0x92
 2519 0d22 3D       		.uleb128 0x3d
 2520 0d23 8D010000 		.4byte	.LASF129
 2521 0d27 8D010000 		.4byte	.LASF129
 2522 0d2b 0B       		.byte	0xb
 2523 0d2c 95       		.byte	0x95
 2524 0d2d 00       		.byte	0
 2525              		.section	.debug_abbrev,"",%progbits
 2526              	.Ldebug_abbrev0:
 2527 0000 01       		.uleb128 0x1
 2528 0001 11       		.uleb128 0x11
 2529 0002 01       		.byte	0x1
 2530 0003 25       		.uleb128 0x25
 2531 0004 0E       		.uleb128 0xe
 2532 0005 13       		.uleb128 0x13
 2533 0006 0B       		.uleb128 0xb
 2534 0007 03       		.uleb128 0x3
 2535 0008 0E       		.uleb128 0xe
 2536 0009 1B       		.uleb128 0x1b
 2537 000a 0E       		.uleb128 0xe
 2538 000b 55       		.uleb128 0x55
 2539 000c 17       		.uleb128 0x17
 2540 000d 11       		.uleb128 0x11
 2541 000e 01       		.uleb128 0x1
 2542 000f 10       		.uleb128 0x10
 2543 0010 17       		.uleb128 0x17
 2544 0011 00       		.byte	0
 2545 0012 00       		.byte	0
 2546 0013 02       		.uleb128 0x2
 2547 0014 24       		.uleb128 0x24
 2548 0015 00       		.byte	0
 2549 0016 0B       		.uleb128 0xb
 2550 0017 0B       		.uleb128 0xb
 2551 0018 3E       		.uleb128 0x3e
 2552 0019 0B       		.uleb128 0xb
 2553 001a 03       		.uleb128 0x3
 2554 001b 08       		.uleb128 0x8
 2555 001c 00       		.byte	0
 2556 001d 00       		.byte	0
 2557 001e 03       		.uleb128 0x3
 2558 001f 16       		.uleb128 0x16
 2559 0020 00       		.byte	0
 2560 0021 03       		.uleb128 0x3
 2561 0022 0E       		.uleb128 0xe
 2562 0023 3A       		.uleb128 0x3a
 2563 0024 0B       		.uleb128 0xb
 2564 0025 3B       		.uleb128 0x3b
 2565 0026 0B       		.uleb128 0xb
ARM GAS  /tmp/cc34Z630.s 			page 46


 2566 0027 49       		.uleb128 0x49
 2567 0028 13       		.uleb128 0x13
 2568 0029 00       		.byte	0
 2569 002a 00       		.byte	0
 2570 002b 04       		.uleb128 0x4
 2571 002c 24       		.uleb128 0x24
 2572 002d 00       		.byte	0
 2573 002e 0B       		.uleb128 0xb
 2574 002f 0B       		.uleb128 0xb
 2575 0030 3E       		.uleb128 0x3e
 2576 0031 0B       		.uleb128 0xb
 2577 0032 03       		.uleb128 0x3
 2578 0033 0E       		.uleb128 0xe
 2579 0034 00       		.byte	0
 2580 0035 00       		.byte	0
 2581 0036 05       		.uleb128 0x5
 2582 0037 35       		.uleb128 0x35
 2583 0038 00       		.byte	0
 2584 0039 49       		.uleb128 0x49
 2585 003a 13       		.uleb128 0x13
 2586 003b 00       		.byte	0
 2587 003c 00       		.byte	0
 2588 003d 06       		.uleb128 0x6
 2589 003e 13       		.uleb128 0x13
 2590 003f 01       		.byte	0x1
 2591 0040 03       		.uleb128 0x3
 2592 0041 0E       		.uleb128 0xe
 2593 0042 0B       		.uleb128 0xb
 2594 0043 0B       		.uleb128 0xb
 2595 0044 3A       		.uleb128 0x3a
 2596 0045 0B       		.uleb128 0xb
 2597 0046 3B       		.uleb128 0x3b
 2598 0047 0B       		.uleb128 0xb
 2599 0048 01       		.uleb128 0x1
 2600 0049 13       		.uleb128 0x13
 2601 004a 00       		.byte	0
 2602 004b 00       		.byte	0
 2603 004c 07       		.uleb128 0x7
 2604 004d 0D       		.uleb128 0xd
 2605 004e 00       		.byte	0
 2606 004f 03       		.uleb128 0x3
 2607 0050 0E       		.uleb128 0xe
 2608 0051 3A       		.uleb128 0x3a
 2609 0052 0B       		.uleb128 0xb
 2610 0053 3B       		.uleb128 0x3b
 2611 0054 0B       		.uleb128 0xb
 2612 0055 49       		.uleb128 0x49
 2613 0056 13       		.uleb128 0x13
 2614 0057 38       		.uleb128 0x38
 2615 0058 0B       		.uleb128 0xb
 2616 0059 00       		.byte	0
 2617 005a 00       		.byte	0
 2618 005b 08       		.uleb128 0x8
 2619 005c 0D       		.uleb128 0xd
 2620 005d 00       		.byte	0
 2621 005e 03       		.uleb128 0x3
 2622 005f 08       		.uleb128 0x8
ARM GAS  /tmp/cc34Z630.s 			page 47


 2623 0060 3A       		.uleb128 0x3a
 2624 0061 0B       		.uleb128 0xb
 2625 0062 3B       		.uleb128 0x3b
 2626 0063 0B       		.uleb128 0xb
 2627 0064 49       		.uleb128 0x49
 2628 0065 13       		.uleb128 0x13
 2629 0066 38       		.uleb128 0x38
 2630 0067 0B       		.uleb128 0xb
 2631 0068 00       		.byte	0
 2632 0069 00       		.byte	0
 2633 006a 09       		.uleb128 0x9
 2634 006b 13       		.uleb128 0x13
 2635 006c 01       		.byte	0x1
 2636 006d 0B       		.uleb128 0xb
 2637 006e 0B       		.uleb128 0xb
 2638 006f 3A       		.uleb128 0x3a
 2639 0070 0B       		.uleb128 0xb
 2640 0071 3B       		.uleb128 0x3b
 2641 0072 0B       		.uleb128 0xb
 2642 0073 01       		.uleb128 0x1
 2643 0074 13       		.uleb128 0x13
 2644 0075 00       		.byte	0
 2645 0076 00       		.byte	0
 2646 0077 0A       		.uleb128 0xa
 2647 0078 0F       		.uleb128 0xf
 2648 0079 00       		.byte	0
 2649 007a 0B       		.uleb128 0xb
 2650 007b 0B       		.uleb128 0xb
 2651 007c 49       		.uleb128 0x49
 2652 007d 13       		.uleb128 0x13
 2653 007e 00       		.byte	0
 2654 007f 00       		.byte	0
 2655 0080 0B       		.uleb128 0xb
 2656 0081 0F       		.uleb128 0xf
 2657 0082 00       		.byte	0
 2658 0083 0B       		.uleb128 0xb
 2659 0084 0B       		.uleb128 0xb
 2660 0085 00       		.byte	0
 2661 0086 00       		.byte	0
 2662 0087 0C       		.uleb128 0xc
 2663 0088 13       		.uleb128 0x13
 2664 0089 01       		.byte	0x1
 2665 008a 03       		.uleb128 0x3
 2666 008b 0E       		.uleb128 0xe
 2667 008c 0B       		.uleb128 0xb
 2668 008d 0B       		.uleb128 0xb
 2669 008e 3A       		.uleb128 0x3a
 2670 008f 0B       		.uleb128 0xb
 2671 0090 3B       		.uleb128 0x3b
 2672 0091 05       		.uleb128 0x5
 2673 0092 01       		.uleb128 0x1
 2674 0093 13       		.uleb128 0x13
 2675 0094 00       		.byte	0
 2676 0095 00       		.byte	0
 2677 0096 0D       		.uleb128 0xd
 2678 0097 0D       		.uleb128 0xd
 2679 0098 00       		.byte	0
ARM GAS  /tmp/cc34Z630.s 			page 48


 2680 0099 03       		.uleb128 0x3
 2681 009a 08       		.uleb128 0x8
 2682 009b 3A       		.uleb128 0x3a
 2683 009c 0B       		.uleb128 0xb
 2684 009d 3B       		.uleb128 0x3b
 2685 009e 05       		.uleb128 0x5
 2686 009f 49       		.uleb128 0x49
 2687 00a0 13       		.uleb128 0x13
 2688 00a1 38       		.uleb128 0x38
 2689 00a2 0B       		.uleb128 0xb
 2690 00a3 00       		.byte	0
 2691 00a4 00       		.byte	0
 2692 00a5 0E       		.uleb128 0xe
 2693 00a6 15       		.uleb128 0x15
 2694 00a7 01       		.byte	0x1
 2695 00a8 27       		.uleb128 0x27
 2696 00a9 19       		.uleb128 0x19
 2697 00aa 01       		.uleb128 0x1
 2698 00ab 13       		.uleb128 0x13
 2699 00ac 00       		.byte	0
 2700 00ad 00       		.byte	0
 2701 00ae 0F       		.uleb128 0xf
 2702 00af 05       		.uleb128 0x5
 2703 00b0 00       		.byte	0
 2704 00b1 49       		.uleb128 0x49
 2705 00b2 13       		.uleb128 0x13
 2706 00b3 00       		.byte	0
 2707 00b4 00       		.byte	0
 2708 00b5 10       		.uleb128 0x10
 2709 00b6 34       		.uleb128 0x34
 2710 00b7 00       		.byte	0
 2711 00b8 03       		.uleb128 0x3
 2712 00b9 0E       		.uleb128 0xe
 2713 00ba 3A       		.uleb128 0x3a
 2714 00bb 0B       		.uleb128 0xb
 2715 00bc 3B       		.uleb128 0x3b
 2716 00bd 0B       		.uleb128 0xb
 2717 00be 49       		.uleb128 0x49
 2718 00bf 13       		.uleb128 0x13
 2719 00c0 3F       		.uleb128 0x3f
 2720 00c1 19       		.uleb128 0x19
 2721 00c2 3C       		.uleb128 0x3c
 2722 00c3 19       		.uleb128 0x19
 2723 00c4 00       		.byte	0
 2724 00c5 00       		.byte	0
 2725 00c6 11       		.uleb128 0x11
 2726 00c7 17       		.uleb128 0x17
 2727 00c8 01       		.byte	0x1
 2728 00c9 0B       		.uleb128 0xb
 2729 00ca 0B       		.uleb128 0xb
 2730 00cb 3A       		.uleb128 0x3a
 2731 00cc 0B       		.uleb128 0xb
 2732 00cd 3B       		.uleb128 0x3b
 2733 00ce 0B       		.uleb128 0xb
 2734 00cf 01       		.uleb128 0x1
 2735 00d0 13       		.uleb128 0x13
 2736 00d1 00       		.byte	0
ARM GAS  /tmp/cc34Z630.s 			page 49


 2737 00d2 00       		.byte	0
 2738 00d3 12       		.uleb128 0x12
 2739 00d4 0D       		.uleb128 0xd
 2740 00d5 00       		.byte	0
 2741 00d6 03       		.uleb128 0x3
 2742 00d7 0E       		.uleb128 0xe
 2743 00d8 3A       		.uleb128 0x3a
 2744 00d9 0B       		.uleb128 0xb
 2745 00da 3B       		.uleb128 0x3b
 2746 00db 0B       		.uleb128 0xb
 2747 00dc 49       		.uleb128 0x49
 2748 00dd 13       		.uleb128 0x13
 2749 00de 00       		.byte	0
 2750 00df 00       		.byte	0
 2751 00e0 13       		.uleb128 0x13
 2752 00e1 26       		.uleb128 0x26
 2753 00e2 00       		.byte	0
 2754 00e3 49       		.uleb128 0x49
 2755 00e4 13       		.uleb128 0x13
 2756 00e5 00       		.byte	0
 2757 00e6 00       		.byte	0
 2758 00e7 14       		.uleb128 0x14
 2759 00e8 15       		.uleb128 0x15
 2760 00e9 01       		.byte	0x1
 2761 00ea 27       		.uleb128 0x27
 2762 00eb 19       		.uleb128 0x19
 2763 00ec 49       		.uleb128 0x49
 2764 00ed 13       		.uleb128 0x13
 2765 00ee 01       		.uleb128 0x1
 2766 00ef 13       		.uleb128 0x13
 2767 00f0 00       		.byte	0
 2768 00f1 00       		.byte	0
 2769 00f2 15       		.uleb128 0x15
 2770 00f3 01       		.uleb128 0x1
 2771 00f4 01       		.byte	0x1
 2772 00f5 49       		.uleb128 0x49
 2773 00f6 13       		.uleb128 0x13
 2774 00f7 01       		.uleb128 0x1
 2775 00f8 13       		.uleb128 0x13
 2776 00f9 00       		.byte	0
 2777 00fa 00       		.byte	0
 2778 00fb 16       		.uleb128 0x16
 2779 00fc 21       		.uleb128 0x21
 2780 00fd 00       		.byte	0
 2781 00fe 49       		.uleb128 0x49
 2782 00ff 13       		.uleb128 0x13
 2783 0100 2F       		.uleb128 0x2f
 2784 0101 0B       		.uleb128 0xb
 2785 0102 00       		.byte	0
 2786 0103 00       		.byte	0
 2787 0104 17       		.uleb128 0x17
 2788 0105 2E       		.uleb128 0x2e
 2789 0106 01       		.byte	0x1
 2790 0107 3F       		.uleb128 0x3f
 2791 0108 19       		.uleb128 0x19
 2792 0109 03       		.uleb128 0x3
 2793 010a 0E       		.uleb128 0xe
ARM GAS  /tmp/cc34Z630.s 			page 50


 2794 010b 3A       		.uleb128 0x3a
 2795 010c 0B       		.uleb128 0xb
 2796 010d 3B       		.uleb128 0x3b
 2797 010e 05       		.uleb128 0x5
 2798 010f 27       		.uleb128 0x27
 2799 0110 19       		.uleb128 0x19
 2800 0111 49       		.uleb128 0x49
 2801 0112 13       		.uleb128 0x13
 2802 0113 11       		.uleb128 0x11
 2803 0114 01       		.uleb128 0x1
 2804 0115 12       		.uleb128 0x12
 2805 0116 06       		.uleb128 0x6
 2806 0117 40       		.uleb128 0x40
 2807 0118 18       		.uleb128 0x18
 2808 0119 9742     		.uleb128 0x2117
 2809 011b 19       		.uleb128 0x19
 2810 011c 01       		.uleb128 0x1
 2811 011d 13       		.uleb128 0x13
 2812 011e 00       		.byte	0
 2813 011f 00       		.byte	0
 2814 0120 18       		.uleb128 0x18
 2815 0121 05       		.uleb128 0x5
 2816 0122 00       		.byte	0
 2817 0123 03       		.uleb128 0x3
 2818 0124 08       		.uleb128 0x8
 2819 0125 3A       		.uleb128 0x3a
 2820 0126 0B       		.uleb128 0xb
 2821 0127 3B       		.uleb128 0x3b
 2822 0128 05       		.uleb128 0x5
 2823 0129 49       		.uleb128 0x49
 2824 012a 13       		.uleb128 0x13
 2825 012b 02       		.uleb128 0x2
 2826 012c 17       		.uleb128 0x17
 2827 012d 00       		.byte	0
 2828 012e 00       		.byte	0
 2829 012f 19       		.uleb128 0x19
 2830 0130 34       		.uleb128 0x34
 2831 0131 00       		.byte	0
 2832 0132 03       		.uleb128 0x3
 2833 0133 08       		.uleb128 0x8
 2834 0134 3A       		.uleb128 0x3a
 2835 0135 0B       		.uleb128 0xb
 2836 0136 3B       		.uleb128 0x3b
 2837 0137 05       		.uleb128 0x5
 2838 0138 49       		.uleb128 0x49
 2839 0139 13       		.uleb128 0x13
 2840 013a 02       		.uleb128 0x2
 2841 013b 17       		.uleb128 0x17
 2842 013c 00       		.byte	0
 2843 013d 00       		.byte	0
 2844 013e 1A       		.uleb128 0x1a
 2845 013f 0B       		.uleb128 0xb
 2846 0140 01       		.byte	0x1
 2847 0141 11       		.uleb128 0x11
 2848 0142 01       		.uleb128 0x1
 2849 0143 12       		.uleb128 0x12
 2850 0144 06       		.uleb128 0x6
ARM GAS  /tmp/cc34Z630.s 			page 51


 2851 0145 01       		.uleb128 0x1
 2852 0146 13       		.uleb128 0x13
 2853 0147 00       		.byte	0
 2854 0148 00       		.byte	0
 2855 0149 1B       		.uleb128 0x1b
 2856 014a 34       		.uleb128 0x34
 2857 014b 00       		.byte	0
 2858 014c 03       		.uleb128 0x3
 2859 014d 08       		.uleb128 0x8
 2860 014e 3A       		.uleb128 0x3a
 2861 014f 0B       		.uleb128 0xb
 2862 0150 3B       		.uleb128 0x3b
 2863 0151 05       		.uleb128 0x5
 2864 0152 49       		.uleb128 0x49
 2865 0153 13       		.uleb128 0x13
 2866 0154 02       		.uleb128 0x2
 2867 0155 18       		.uleb128 0x18
 2868 0156 00       		.byte	0
 2869 0157 00       		.byte	0
 2870 0158 1C       		.uleb128 0x1c
 2871 0159 1D       		.uleb128 0x1d
 2872 015a 01       		.byte	0x1
 2873 015b 31       		.uleb128 0x31
 2874 015c 13       		.uleb128 0x13
 2875 015d 52       		.uleb128 0x52
 2876 015e 01       		.uleb128 0x1
 2877 015f 55       		.uleb128 0x55
 2878 0160 17       		.uleb128 0x17
 2879 0161 58       		.uleb128 0x58
 2880 0162 0B       		.uleb128 0xb
 2881 0163 59       		.uleb128 0x59
 2882 0164 05       		.uleb128 0x5
 2883 0165 01       		.uleb128 0x1
 2884 0166 13       		.uleb128 0x13
 2885 0167 00       		.byte	0
 2886 0168 00       		.byte	0
 2887 0169 1D       		.uleb128 0x1d
 2888 016a 05       		.uleb128 0x5
 2889 016b 00       		.byte	0
 2890 016c 31       		.uleb128 0x31
 2891 016d 13       		.uleb128 0x13
 2892 016e 02       		.uleb128 0x2
 2893 016f 17       		.uleb128 0x17
 2894 0170 00       		.byte	0
 2895 0171 00       		.byte	0
 2896 0172 1E       		.uleb128 0x1e
 2897 0173 05       		.uleb128 0x5
 2898 0174 00       		.byte	0
 2899 0175 31       		.uleb128 0x31
 2900 0176 13       		.uleb128 0x13
 2901 0177 00       		.byte	0
 2902 0178 00       		.byte	0
 2903 0179 1F       		.uleb128 0x1f
 2904 017a 898201   		.uleb128 0x4109
 2905 017d 01       		.byte	0x1
 2906 017e 11       		.uleb128 0x11
 2907 017f 01       		.uleb128 0x1
ARM GAS  /tmp/cc34Z630.s 			page 52


 2908 0180 31       		.uleb128 0x31
 2909 0181 13       		.uleb128 0x13
 2910 0182 01       		.uleb128 0x1
 2911 0183 13       		.uleb128 0x13
 2912 0184 00       		.byte	0
 2913 0185 00       		.byte	0
 2914 0186 20       		.uleb128 0x20
 2915 0187 8A8201   		.uleb128 0x410a
 2916 018a 00       		.byte	0
 2917 018b 02       		.uleb128 0x2
 2918 018c 18       		.uleb128 0x18
 2919 018d 9142     		.uleb128 0x2111
 2920 018f 18       		.uleb128 0x18
 2921 0190 00       		.byte	0
 2922 0191 00       		.byte	0
 2923 0192 21       		.uleb128 0x21
 2924 0193 898201   		.uleb128 0x4109
 2925 0196 01       		.byte	0x1
 2926 0197 11       		.uleb128 0x11
 2927 0198 01       		.uleb128 0x1
 2928 0199 31       		.uleb128 0x31
 2929 019a 13       		.uleb128 0x13
 2930 019b 00       		.byte	0
 2931 019c 00       		.byte	0
 2932 019d 22       		.uleb128 0x22
 2933 019e 2E       		.uleb128 0x2e
 2934 019f 01       		.byte	0x1
 2935 01a0 3F       		.uleb128 0x3f
 2936 01a1 19       		.uleb128 0x19
 2937 01a2 03       		.uleb128 0x3
 2938 01a3 0E       		.uleb128 0xe
 2939 01a4 3A       		.uleb128 0x3a
 2940 01a5 0B       		.uleb128 0xb
 2941 01a6 3B       		.uleb128 0x3b
 2942 01a7 05       		.uleb128 0x5
 2943 01a8 27       		.uleb128 0x27
 2944 01a9 19       		.uleb128 0x19
 2945 01aa 11       		.uleb128 0x11
 2946 01ab 01       		.uleb128 0x1
 2947 01ac 12       		.uleb128 0x12
 2948 01ad 06       		.uleb128 0x6
 2949 01ae 40       		.uleb128 0x40
 2950 01af 18       		.uleb128 0x18
 2951 01b0 9742     		.uleb128 0x2117
 2952 01b2 19       		.uleb128 0x19
 2953 01b3 01       		.uleb128 0x1
 2954 01b4 13       		.uleb128 0x13
 2955 01b5 00       		.byte	0
 2956 01b6 00       		.byte	0
 2957 01b7 23       		.uleb128 0x23
 2958 01b8 1D       		.uleb128 0x1d
 2959 01b9 01       		.byte	0x1
 2960 01ba 31       		.uleb128 0x31
 2961 01bb 13       		.uleb128 0x13
 2962 01bc 11       		.uleb128 0x11
 2963 01bd 01       		.uleb128 0x1
 2964 01be 12       		.uleb128 0x12
ARM GAS  /tmp/cc34Z630.s 			page 53


 2965 01bf 06       		.uleb128 0x6
 2966 01c0 58       		.uleb128 0x58
 2967 01c1 0B       		.uleb128 0xb
 2968 01c2 59       		.uleb128 0x59
 2969 01c3 05       		.uleb128 0x5
 2970 01c4 01       		.uleb128 0x1
 2971 01c5 13       		.uleb128 0x13
 2972 01c6 00       		.byte	0
 2973 01c7 00       		.byte	0
 2974 01c8 24       		.uleb128 0x24
 2975 01c9 0B       		.uleb128 0xb
 2976 01ca 01       		.byte	0x1
 2977 01cb 11       		.uleb128 0x11
 2978 01cc 01       		.uleb128 0x1
 2979 01cd 12       		.uleb128 0x12
 2980 01ce 06       		.uleb128 0x6
 2981 01cf 00       		.byte	0
 2982 01d0 00       		.byte	0
 2983 01d1 25       		.uleb128 0x25
 2984 01d2 34       		.uleb128 0x34
 2985 01d3 00       		.byte	0
 2986 01d4 31       		.uleb128 0x31
 2987 01d5 13       		.uleb128 0x13
 2988 01d6 02       		.uleb128 0x2
 2989 01d7 17       		.uleb128 0x17
 2990 01d8 00       		.byte	0
 2991 01d9 00       		.byte	0
 2992 01da 26       		.uleb128 0x26
 2993 01db 898201   		.uleb128 0x4109
 2994 01de 00       		.byte	0
 2995 01df 11       		.uleb128 0x11
 2996 01e0 01       		.uleb128 0x1
 2997 01e1 31       		.uleb128 0x31
 2998 01e2 13       		.uleb128 0x13
 2999 01e3 00       		.byte	0
 3000 01e4 00       		.byte	0
 3001 01e5 27       		.uleb128 0x27
 3002 01e6 898201   		.uleb128 0x4109
 3003 01e9 01       		.byte	0x1
 3004 01ea 11       		.uleb128 0x11
 3005 01eb 01       		.uleb128 0x1
 3006 01ec 9542     		.uleb128 0x2115
 3007 01ee 19       		.uleb128 0x19
 3008 01ef 31       		.uleb128 0x31
 3009 01f0 13       		.uleb128 0x13
 3010 01f1 00       		.byte	0
 3011 01f2 00       		.byte	0
 3012 01f3 28       		.uleb128 0x28
 3013 01f4 05       		.uleb128 0x5
 3014 01f5 00       		.byte	0
 3015 01f6 03       		.uleb128 0x3
 3016 01f7 0E       		.uleb128 0xe
 3017 01f8 3A       		.uleb128 0x3a
 3018 01f9 0B       		.uleb128 0xb
 3019 01fa 3B       		.uleb128 0x3b
 3020 01fb 05       		.uleb128 0x5
 3021 01fc 49       		.uleb128 0x49
ARM GAS  /tmp/cc34Z630.s 			page 54


 3022 01fd 13       		.uleb128 0x13
 3023 01fe 02       		.uleb128 0x2
 3024 01ff 17       		.uleb128 0x17
 3025 0200 00       		.byte	0
 3026 0201 00       		.byte	0
 3027 0202 29       		.uleb128 0x29
 3028 0203 05       		.uleb128 0x5
 3029 0204 00       		.byte	0
 3030 0205 03       		.uleb128 0x3
 3031 0206 08       		.uleb128 0x8
 3032 0207 3A       		.uleb128 0x3a
 3033 0208 0B       		.uleb128 0xb
 3034 0209 3B       		.uleb128 0x3b
 3035 020a 05       		.uleb128 0x5
 3036 020b 49       		.uleb128 0x49
 3037 020c 13       		.uleb128 0x13
 3038 020d 02       		.uleb128 0x2
 3039 020e 18       		.uleb128 0x18
 3040 020f 00       		.byte	0
 3041 0210 00       		.byte	0
 3042 0211 2A       		.uleb128 0x2a
 3043 0212 0B       		.uleb128 0xb
 3044 0213 01       		.byte	0x1
 3045 0214 55       		.uleb128 0x55
 3046 0215 17       		.uleb128 0x17
 3047 0216 00       		.byte	0
 3048 0217 00       		.byte	0
 3049 0218 2B       		.uleb128 0x2b
 3050 0219 2E       		.uleb128 0x2e
 3051 021a 01       		.byte	0x1
 3052 021b 3F       		.uleb128 0x3f
 3053 021c 19       		.uleb128 0x19
 3054 021d 03       		.uleb128 0x3
 3055 021e 0E       		.uleb128 0xe
 3056 021f 3A       		.uleb128 0x3a
 3057 0220 0B       		.uleb128 0xb
 3058 0221 3B       		.uleb128 0x3b
 3059 0222 0B       		.uleb128 0xb
 3060 0223 27       		.uleb128 0x27
 3061 0224 19       		.uleb128 0x19
 3062 0225 49       		.uleb128 0x49
 3063 0226 13       		.uleb128 0x13
 3064 0227 11       		.uleb128 0x11
 3065 0228 01       		.uleb128 0x1
 3066 0229 12       		.uleb128 0x12
 3067 022a 06       		.uleb128 0x6
 3068 022b 40       		.uleb128 0x40
 3069 022c 18       		.uleb128 0x18
 3070 022d 9742     		.uleb128 0x2117
 3071 022f 19       		.uleb128 0x19
 3072 0230 01       		.uleb128 0x1
 3073 0231 13       		.uleb128 0x13
 3074 0232 00       		.byte	0
 3075 0233 00       		.byte	0
 3076 0234 2C       		.uleb128 0x2c
 3077 0235 05       		.uleb128 0x5
 3078 0236 00       		.byte	0
ARM GAS  /tmp/cc34Z630.s 			page 55


 3079 0237 03       		.uleb128 0x3
 3080 0238 08       		.uleb128 0x8
 3081 0239 3A       		.uleb128 0x3a
 3082 023a 0B       		.uleb128 0xb
 3083 023b 3B       		.uleb128 0x3b
 3084 023c 0B       		.uleb128 0xb
 3085 023d 49       		.uleb128 0x49
 3086 023e 13       		.uleb128 0x13
 3087 023f 02       		.uleb128 0x2
 3088 0240 17       		.uleb128 0x17
 3089 0241 00       		.byte	0
 3090 0242 00       		.byte	0
 3091 0243 2D       		.uleb128 0x2d
 3092 0244 0B       		.uleb128 0xb
 3093 0245 01       		.byte	0x1
 3094 0246 55       		.uleb128 0x55
 3095 0247 17       		.uleb128 0x17
 3096 0248 01       		.uleb128 0x1
 3097 0249 13       		.uleb128 0x13
 3098 024a 00       		.byte	0
 3099 024b 00       		.byte	0
 3100 024c 2E       		.uleb128 0x2e
 3101 024d 34       		.uleb128 0x34
 3102 024e 00       		.byte	0
 3103 024f 03       		.uleb128 0x3
 3104 0250 08       		.uleb128 0x8
 3105 0251 3A       		.uleb128 0x3a
 3106 0252 0B       		.uleb128 0xb
 3107 0253 3B       		.uleb128 0x3b
 3108 0254 0B       		.uleb128 0xb
 3109 0255 49       		.uleb128 0x49
 3110 0256 13       		.uleb128 0x13
 3111 0257 02       		.uleb128 0x2
 3112 0258 18       		.uleb128 0x18
 3113 0259 00       		.byte	0
 3114 025a 00       		.byte	0
 3115 025b 2F       		.uleb128 0x2f
 3116 025c 05       		.uleb128 0x5
 3117 025d 00       		.byte	0
 3118 025e 03       		.uleb128 0x3
 3119 025f 0E       		.uleb128 0xe
 3120 0260 3A       		.uleb128 0x3a
 3121 0261 0B       		.uleb128 0xb
 3122 0262 3B       		.uleb128 0x3b
 3123 0263 0B       		.uleb128 0xb
 3124 0264 49       		.uleb128 0x49
 3125 0265 13       		.uleb128 0x13
 3126 0266 02       		.uleb128 0x2
 3127 0267 17       		.uleb128 0x17
 3128 0268 00       		.byte	0
 3129 0269 00       		.byte	0
 3130 026a 30       		.uleb128 0x30
 3131 026b 34       		.uleb128 0x34
 3132 026c 00       		.byte	0
 3133 026d 03       		.uleb128 0x3
 3134 026e 0E       		.uleb128 0xe
 3135 026f 3A       		.uleb128 0x3a
ARM GAS  /tmp/cc34Z630.s 			page 56


 3136 0270 0B       		.uleb128 0xb
 3137 0271 3B       		.uleb128 0x3b
 3138 0272 0B       		.uleb128 0xb
 3139 0273 49       		.uleb128 0x49
 3140 0274 13       		.uleb128 0x13
 3141 0275 02       		.uleb128 0x2
 3142 0276 17       		.uleb128 0x17
 3143 0277 00       		.byte	0
 3144 0278 00       		.byte	0
 3145 0279 31       		.uleb128 0x31
 3146 027a 34       		.uleb128 0x34
 3147 027b 00       		.byte	0
 3148 027c 03       		.uleb128 0x3
 3149 027d 08       		.uleb128 0x8
 3150 027e 3A       		.uleb128 0x3a
 3151 027f 0B       		.uleb128 0xb
 3152 0280 3B       		.uleb128 0x3b
 3153 0281 0B       		.uleb128 0xb
 3154 0282 49       		.uleb128 0x49
 3155 0283 13       		.uleb128 0x13
 3156 0284 00       		.byte	0
 3157 0285 00       		.byte	0
 3158 0286 32       		.uleb128 0x32
 3159 0287 1D       		.uleb128 0x1d
 3160 0288 01       		.byte	0x1
 3161 0289 31       		.uleb128 0x31
 3162 028a 13       		.uleb128 0x13
 3163 028b 52       		.uleb128 0x52
 3164 028c 01       		.uleb128 0x1
 3165 028d 55       		.uleb128 0x55
 3166 028e 17       		.uleb128 0x17
 3167 028f 58       		.uleb128 0x58
 3168 0290 0B       		.uleb128 0xb
 3169 0291 59       		.uleb128 0x59
 3170 0292 0B       		.uleb128 0xb
 3171 0293 01       		.uleb128 0x1
 3172 0294 13       		.uleb128 0x13
 3173 0295 00       		.byte	0
 3174 0296 00       		.byte	0
 3175 0297 33       		.uleb128 0x33
 3176 0298 34       		.uleb128 0x34
 3177 0299 00       		.byte	0
 3178 029a 31       		.uleb128 0x31
 3179 029b 13       		.uleb128 0x13
 3180 029c 00       		.byte	0
 3181 029d 00       		.byte	0
 3182 029e 34       		.uleb128 0x34
 3183 029f 1D       		.uleb128 0x1d
 3184 02a0 01       		.byte	0x1
 3185 02a1 31       		.uleb128 0x31
 3186 02a2 13       		.uleb128 0x13
 3187 02a3 52       		.uleb128 0x52
 3188 02a4 01       		.uleb128 0x1
 3189 02a5 55       		.uleb128 0x55
 3190 02a6 17       		.uleb128 0x17
 3191 02a7 58       		.uleb128 0x58
 3192 02a8 0B       		.uleb128 0xb
ARM GAS  /tmp/cc34Z630.s 			page 57


 3193 02a9 59       		.uleb128 0x59
 3194 02aa 0B       		.uleb128 0xb
 3195 02ab 00       		.byte	0
 3196 02ac 00       		.byte	0
 3197 02ad 35       		.uleb128 0x35
 3198 02ae 2E       		.uleb128 0x2e
 3199 02af 01       		.byte	0x1
 3200 02b0 3F       		.uleb128 0x3f
 3201 02b1 19       		.uleb128 0x19
 3202 02b2 03       		.uleb128 0x3
 3203 02b3 0E       		.uleb128 0xe
 3204 02b4 3A       		.uleb128 0x3a
 3205 02b5 0B       		.uleb128 0xb
 3206 02b6 3B       		.uleb128 0x3b
 3207 02b7 0B       		.uleb128 0xb
 3208 02b8 27       		.uleb128 0x27
 3209 02b9 19       		.uleb128 0x19
 3210 02ba 49       		.uleb128 0x49
 3211 02bb 13       		.uleb128 0x13
 3212 02bc 20       		.uleb128 0x20
 3213 02bd 0B       		.uleb128 0xb
 3214 02be 01       		.uleb128 0x1
 3215 02bf 13       		.uleb128 0x13
 3216 02c0 00       		.byte	0
 3217 02c1 00       		.byte	0
 3218 02c2 36       		.uleb128 0x36
 3219 02c3 05       		.uleb128 0x5
 3220 02c4 00       		.byte	0
 3221 02c5 03       		.uleb128 0x3
 3222 02c6 08       		.uleb128 0x8
 3223 02c7 3A       		.uleb128 0x3a
 3224 02c8 0B       		.uleb128 0xb
 3225 02c9 3B       		.uleb128 0x3b
 3226 02ca 0B       		.uleb128 0xb
 3227 02cb 49       		.uleb128 0x49
 3228 02cc 13       		.uleb128 0x13
 3229 02cd 00       		.byte	0
 3230 02ce 00       		.byte	0
 3231 02cf 37       		.uleb128 0x37
 3232 02d0 05       		.uleb128 0x5
 3233 02d1 00       		.byte	0
 3234 02d2 03       		.uleb128 0x3
 3235 02d3 0E       		.uleb128 0xe
 3236 02d4 3A       		.uleb128 0x3a
 3237 02d5 0B       		.uleb128 0xb
 3238 02d6 3B       		.uleb128 0x3b
 3239 02d7 0B       		.uleb128 0xb
 3240 02d8 49       		.uleb128 0x49
 3241 02d9 13       		.uleb128 0x13
 3242 02da 00       		.byte	0
 3243 02db 00       		.byte	0
 3244 02dc 38       		.uleb128 0x38
 3245 02dd 2E       		.uleb128 0x2e
 3246 02de 01       		.byte	0x1
 3247 02df 03       		.uleb128 0x3
 3248 02e0 0E       		.uleb128 0xe
 3249 02e1 3A       		.uleb128 0x3a
ARM GAS  /tmp/cc34Z630.s 			page 58


 3250 02e2 0B       		.uleb128 0xb
 3251 02e3 3B       		.uleb128 0x3b
 3252 02e4 0B       		.uleb128 0xb
 3253 02e5 27       		.uleb128 0x27
 3254 02e6 19       		.uleb128 0x19
 3255 02e7 49       		.uleb128 0x49
 3256 02e8 13       		.uleb128 0x13
 3257 02e9 20       		.uleb128 0x20
 3258 02ea 0B       		.uleb128 0xb
 3259 02eb 01       		.uleb128 0x1
 3260 02ec 13       		.uleb128 0x13
 3261 02ed 00       		.byte	0
 3262 02ee 00       		.byte	0
 3263 02ef 39       		.uleb128 0x39
 3264 02f0 2E       		.uleb128 0x2e
 3265 02f1 01       		.byte	0x1
 3266 02f2 03       		.uleb128 0x3
 3267 02f3 0E       		.uleb128 0xe
 3268 02f4 3A       		.uleb128 0x3a
 3269 02f5 0B       		.uleb128 0xb
 3270 02f6 3B       		.uleb128 0x3b
 3271 02f7 0B       		.uleb128 0xb
 3272 02f8 27       		.uleb128 0x27
 3273 02f9 19       		.uleb128 0x19
 3274 02fa 20       		.uleb128 0x20
 3275 02fb 0B       		.uleb128 0xb
 3276 02fc 01       		.uleb128 0x1
 3277 02fd 13       		.uleb128 0x13
 3278 02fe 00       		.byte	0
 3279 02ff 00       		.byte	0
 3280 0300 3A       		.uleb128 0x3a
 3281 0301 2E       		.uleb128 0x2e
 3282 0302 01       		.byte	0x1
 3283 0303 31       		.uleb128 0x31
 3284 0304 13       		.uleb128 0x13
 3285 0305 11       		.uleb128 0x11
 3286 0306 01       		.uleb128 0x1
 3287 0307 12       		.uleb128 0x12
 3288 0308 06       		.uleb128 0x6
 3289 0309 40       		.uleb128 0x40
 3290 030a 18       		.uleb128 0x18
 3291 030b 9742     		.uleb128 0x2117
 3292 030d 19       		.uleb128 0x19
 3293 030e 01       		.uleb128 0x1
 3294 030f 13       		.uleb128 0x13
 3295 0310 00       		.byte	0
 3296 0311 00       		.byte	0
 3297 0312 3B       		.uleb128 0x3b
 3298 0313 05       		.uleb128 0x5
 3299 0314 00       		.byte	0
 3300 0315 31       		.uleb128 0x31
 3301 0316 13       		.uleb128 0x13
 3302 0317 02       		.uleb128 0x2
 3303 0318 18       		.uleb128 0x18
 3304 0319 00       		.byte	0
 3305 031a 00       		.byte	0
 3306 031b 3C       		.uleb128 0x3c
ARM GAS  /tmp/cc34Z630.s 			page 59


 3307 031c 34       		.uleb128 0x34
 3308 031d 00       		.byte	0
 3309 031e 31       		.uleb128 0x31
 3310 031f 13       		.uleb128 0x13
 3311 0320 02       		.uleb128 0x2
 3312 0321 18       		.uleb128 0x18
 3313 0322 00       		.byte	0
 3314 0323 00       		.byte	0
 3315 0324 3D       		.uleb128 0x3d
 3316 0325 2E       		.uleb128 0x2e
 3317 0326 00       		.byte	0
 3318 0327 3F       		.uleb128 0x3f
 3319 0328 19       		.uleb128 0x19
 3320 0329 3C       		.uleb128 0x3c
 3321 032a 19       		.uleb128 0x19
 3322 032b 6E       		.uleb128 0x6e
 3323 032c 0E       		.uleb128 0xe
 3324 032d 03       		.uleb128 0x3
 3325 032e 0E       		.uleb128 0xe
 3326 032f 3A       		.uleb128 0x3a
 3327 0330 0B       		.uleb128 0xb
 3328 0331 3B       		.uleb128 0x3b
 3329 0332 0B       		.uleb128 0xb
 3330 0333 00       		.byte	0
 3331 0334 00       		.byte	0
 3332 0335 00       		.byte	0
 3333              		.section	.debug_loc,"",%progbits
 3334              	.Ldebug_loc0:
 3335              	.LLST29:
 3336 0000 00000000 		.4byte	.LVL49
 3337 0004 18000000 		.4byte	.LVL51
 3338 0008 0100     		.2byte	0x1
 3339 000a 50       		.byte	0x50
 3340 000b 18000000 		.4byte	.LVL51
 3341 000f 32000000 		.4byte	.LVL56
 3342 0013 0100     		.2byte	0x1
 3343 0015 54       		.byte	0x54
 3344 0016 32000000 		.4byte	.LVL56
 3345 001a 38000000 		.4byte	.LFE18
 3346 001e 0400     		.2byte	0x4
 3347 0020 F3       		.byte	0xf3
 3348 0021 01       		.uleb128 0x1
 3349 0022 50       		.byte	0x50
 3350 0023 9F       		.byte	0x9f
 3351 0024 00000000 		.4byte	0
 3352 0028 00000000 		.4byte	0
 3353              	.LLST30:
 3354 002c 22000000 		.4byte	.LVL54
 3355 0030 32000000 		.4byte	.LVL56
 3356 0034 0100     		.2byte	0x1
 3357 0036 55       		.byte	0x55
 3358 0037 32000000 		.4byte	.LVL56
 3359 003b 38000000 		.4byte	.LFE18
 3360 003f 0100     		.2byte	0x1
 3361 0041 50       		.byte	0x50
 3362 0042 00000000 		.4byte	0
 3363 0046 00000000 		.4byte	0
ARM GAS  /tmp/cc34Z630.s 			page 60


 3364              	.LLST31:
 3365 004a 16000000 		.4byte	.LVL50
 3366 004e 18000000 		.4byte	.LVL51
 3367 0052 0300     		.2byte	0x3
 3368 0054 70       		.byte	0x70
 3369 0055 28       		.sleb128 40
 3370 0056 9F       		.byte	0x9f
 3371 0057 18000000 		.4byte	.LVL51
 3372 005b 1C000000 		.4byte	.LVL52
 3373 005f 0300     		.2byte	0x3
 3374 0061 74       		.byte	0x74
 3375 0062 28       		.sleb128 40
 3376 0063 9F       		.byte	0x9f
 3377 0064 00000000 		.4byte	0
 3378 0068 00000000 		.4byte	0
 3379              	.LLST24:
 3380 006c 00000000 		.4byte	.LVL39
 3381 0070 0E000000 		.4byte	.LVL41
 3382 0074 0100     		.2byte	0x1
 3383 0076 50       		.byte	0x50
 3384 0077 0E000000 		.4byte	.LVL41
 3385 007b 12000000 		.4byte	.LVL42
 3386 007f 0200     		.2byte	0x2
 3387 0081 74       		.byte	0x74
 3388 0082 24       		.sleb128 36
 3389 0083 12000000 		.4byte	.LVL42
 3390 0087 40000000 		.4byte	.LFE17
 3391 008b 0400     		.2byte	0x4
 3392 008d F3       		.byte	0xf3
 3393 008e 01       		.uleb128 0x1
 3394 008f 50       		.byte	0x50
 3395 0090 9F       		.byte	0x9f
 3396 0091 00000000 		.4byte	0
 3397 0095 00000000 		.4byte	0
 3398              	.LLST25:
 3399 0099 06000000 		.4byte	.LVL40
 3400 009d 36000000 		.4byte	.LVL45
 3401 00a1 0100     		.2byte	0x1
 3402 00a3 54       		.byte	0x54
 3403 00a4 00000000 		.4byte	0
 3404 00a8 00000000 		.4byte	0
 3405              	.LLST26:
 3406 00ac 12000000 		.4byte	.LVL42
 3407 00b0 16000000 		.4byte	.LVL43
 3408 00b4 0100     		.2byte	0x1
 3409 00b6 55       		.byte	0x55
 3410 00b7 00000000 		.4byte	0
 3411 00bb 00000000 		.4byte	0
 3412              	.LLST27:
 3413 00bf 12000000 		.4byte	.LVL42
 3414 00c3 16000000 		.4byte	.LVL43
 3415 00c7 0100     		.2byte	0x1
 3416 00c9 50       		.byte	0x50
 3417 00ca 00000000 		.4byte	0
 3418 00ce 00000000 		.4byte	0
 3419              	.LLST28:
 3420 00d2 00000000 		.4byte	.LVL47
ARM GAS  /tmp/cc34Z630.s 			page 61


 3421 00d6 09000000 		.4byte	.LVL48-1
 3422 00da 0100     		.2byte	0x1
 3423 00dc 50       		.byte	0x50
 3424 00dd 09000000 		.4byte	.LVL48-1
 3425 00e1 0A000000 		.4byte	.LFE16
 3426 00e5 0400     		.2byte	0x4
 3427 00e7 F3       		.byte	0xf3
 3428 00e8 01       		.uleb128 0x1
 3429 00e9 50       		.byte	0x50
 3430 00ea 9F       		.byte	0x9f
 3431 00eb 00000000 		.4byte	0
 3432 00ef 00000000 		.4byte	0
 3433              	.LLST23:
 3434 00f3 00000000 		.4byte	.LVL34
 3435 00f7 0C000000 		.4byte	.LVL35
 3436 00fb 0100     		.2byte	0x1
 3437 00fd 50       		.byte	0x50
 3438 00fe 0C000000 		.4byte	.LVL35
 3439 0102 0E000000 		.4byte	.LVL36
 3440 0106 0600     		.2byte	0x6
 3441 0108 70       		.byte	0x70
 3442 0109 00       		.sleb128 0
 3443 010a 71       		.byte	0x71
 3444 010b 00       		.sleb128 0
 3445 010c 1C       		.byte	0x1c
 3446 010d 9F       		.byte	0x9f
 3447 010e 0E000000 		.4byte	.LVL36
 3448 0112 15000000 		.4byte	.LVL37-1
 3449 0116 0100     		.2byte	0x1
 3450 0118 51       		.byte	0x51
 3451 0119 00000000 		.4byte	0
 3452 011d 00000000 		.4byte	0
 3453              	.LLST22:
 3454 0121 00000000 		.4byte	.LVL31
 3455 0125 0C000000 		.4byte	.LVL32
 3456 0129 0100     		.2byte	0x1
 3457 012b 50       		.byte	0x50
 3458 012c 0C000000 		.4byte	.LVL32
 3459 0130 0F000000 		.4byte	.LVL33-1
 3460 0134 0100     		.2byte	0x1
 3461 0136 51       		.byte	0x51
 3462 0137 0F000000 		.4byte	.LVL33-1
 3463 013b 18000000 		.4byte	.LFE13
 3464 013f 0400     		.2byte	0x4
 3465 0141 F3       		.byte	0xf3
 3466 0142 01       		.uleb128 0x1
 3467 0143 50       		.byte	0x50
 3468 0144 9F       		.byte	0x9f
 3469 0145 00000000 		.4byte	0
 3470 0149 00000000 		.4byte	0
 3471              	.LLST21:
 3472 014d 00000000 		.4byte	.LVL28
 3473 0151 0F000000 		.4byte	.LVL29-1
 3474 0155 0100     		.2byte	0x1
 3475 0157 50       		.byte	0x50
 3476 0158 0F000000 		.4byte	.LVL29-1
 3477 015c 1A000000 		.4byte	.LFE11
ARM GAS  /tmp/cc34Z630.s 			page 62


 3478 0160 0100     		.2byte	0x1
 3479 0162 54       		.byte	0x54
 3480 0163 00000000 		.4byte	0
 3481 0167 00000000 		.4byte	0
 3482              	.LLST19:
 3483 016b 00000000 		.4byte	.LVL24
 3484 016f 1F000000 		.4byte	.LVL26-1
 3485 0173 0100     		.2byte	0x1
 3486 0175 50       		.byte	0x50
 3487 0176 1F000000 		.4byte	.LVL26-1
 3488 017a 30000000 		.4byte	.LFE10
 3489 017e 0400     		.2byte	0x4
 3490 0180 F3       		.byte	0xf3
 3491 0181 01       		.uleb128 0x1
 3492 0182 50       		.byte	0x50
 3493 0183 9F       		.byte	0x9f
 3494 0184 00000000 		.4byte	0
 3495 0188 00000000 		.4byte	0
 3496              	.LLST20:
 3497 018c 0E000000 		.4byte	.LVL25
 3498 0190 2A000000 		.4byte	.LVL27
 3499 0194 0100     		.2byte	0x1
 3500 0196 54       		.byte	0x54
 3501 0197 2A000000 		.4byte	.LVL27
 3502 019b 30000000 		.4byte	.LFE10
 3503 019f 0100     		.2byte	0x1
 3504 01a1 50       		.byte	0x50
 3505 01a2 00000000 		.4byte	0
 3506 01a6 00000000 		.4byte	0
 3507              	.LLST7:
 3508 01aa 00000000 		.4byte	.LVL11
 3509 01ae 65000000 		.4byte	.LVL22-1
 3510 01b2 0100     		.2byte	0x1
 3511 01b4 50       		.byte	0x50
 3512 01b5 65000000 		.4byte	.LVL22-1
 3513 01b9 72000000 		.4byte	.LVL23
 3514 01bd 0100     		.2byte	0x1
 3515 01bf 54       		.byte	0x54
 3516 01c0 72000000 		.4byte	.LVL23
 3517 01c4 7C000000 		.4byte	.LFE9
 3518 01c8 0100     		.2byte	0x1
 3519 01ca 50       		.byte	0x50
 3520 01cb 00000000 		.4byte	0
 3521 01cf 00000000 		.4byte	0
 3522              	.LLST8:
 3523 01d3 00000000 		.4byte	.LVL11
 3524 01d7 1E000000 		.4byte	.LVL14
 3525 01db 0100     		.2byte	0x1
 3526 01dd 51       		.byte	0x51
 3527 01de 1E000000 		.4byte	.LVL14
 3528 01e2 26000000 		.4byte	.LVL15
 3529 01e6 0300     		.2byte	0x3
 3530 01e8 71       		.byte	0x71
 3531 01e9 24       		.sleb128 36
 3532 01ea 9F       		.byte	0x9f
 3533 01eb 26000000 		.4byte	.LVL15
 3534 01ef 7C000000 		.4byte	.LFE9
ARM GAS  /tmp/cc34Z630.s 			page 63


 3535 01f3 0400     		.2byte	0x4
 3536 01f5 F3       		.byte	0xf3
 3537 01f6 01       		.uleb128 0x1
 3538 01f7 51       		.byte	0x51
 3539 01f8 9F       		.byte	0x9f
 3540 01f9 00000000 		.4byte	0
 3541 01fd 00000000 		.4byte	0
 3542              	.LLST9:
 3543 0201 00000000 		.4byte	.LVL11
 3544 0205 3C000000 		.4byte	.LVL19
 3545 0209 0100     		.2byte	0x1
 3546 020b 52       		.byte	0x52
 3547 020c 3C000000 		.4byte	.LVL19
 3548 0210 65000000 		.4byte	.LVL22-1
 3549 0214 0200     		.2byte	0x2
 3550 0216 70       		.byte	0x70
 3551 0217 08       		.sleb128 8
 3552 0218 65000000 		.4byte	.LVL22-1
 3553 021c 7C000000 		.4byte	.LFE9
 3554 0220 0400     		.2byte	0x4
 3555 0222 F3       		.byte	0xf3
 3556 0223 01       		.uleb128 0x1
 3557 0224 52       		.byte	0x52
 3558 0225 9F       		.byte	0x9f
 3559 0226 00000000 		.4byte	0
 3560 022a 00000000 		.4byte	0
 3561              	.LLST10:
 3562 022e 00000000 		.4byte	.LVL11
 3563 0232 0A000000 		.4byte	.LVL12
 3564 0236 0100     		.2byte	0x1
 3565 0238 53       		.byte	0x53
 3566 0239 0A000000 		.4byte	.LVL12
 3567 023d 2E000000 		.4byte	.LVL16
 3568 0241 0100     		.2byte	0x1
 3569 0243 56       		.byte	0x56
 3570 0244 2E000000 		.4byte	.LVL16
 3571 0248 38000000 		.4byte	.LVL18
 3572 024c 0200     		.2byte	0x2
 3573 024e 77       		.byte	0x77
 3574 024f 00       		.sleb128 0
 3575 0250 38000000 		.4byte	.LVL18
 3576 0254 44000000 		.4byte	.LVL20
 3577 0258 0300     		.2byte	0x3
 3578 025a 70       		.byte	0x70
 3579 025b 0C       		.sleb128 12
 3580 025c 06       		.byte	0x6
 3581 025d 44000000 		.4byte	.LVL20
 3582 0261 7C000000 		.4byte	.LFE9
 3583 0265 0400     		.2byte	0x4
 3584 0267 F3       		.byte	0xf3
 3585 0268 01       		.uleb128 0x1
 3586 0269 53       		.byte	0x53
 3587 026a 9F       		.byte	0x9f
 3588 026b 00000000 		.4byte	0
 3589 026f 00000000 		.4byte	0
 3590              	.LLST11:
 3591 0273 00000000 		.4byte	.LVL11
ARM GAS  /tmp/cc34Z630.s 			page 64


 3592 0277 72000000 		.4byte	.LVL23
 3593 027b 0200     		.2byte	0x2
 3594 027d 91       		.byte	0x91
 3595 027e 00       		.sleb128 0
 3596 027f 72000000 		.4byte	.LVL23
 3597 0283 7C000000 		.4byte	.LFE9
 3598 0287 0200     		.2byte	0x2
 3599 0289 7D       		.byte	0x7d
 3600 028a 00       		.sleb128 0
 3601 028b 00000000 		.4byte	0
 3602 028f 00000000 		.4byte	0
 3603              	.LLST12:
 3604 0293 0E000000 		.4byte	.LVL13
 3605 0297 62000000 		.4byte	.LVL21
 3606 029b 0200     		.2byte	0x2
 3607 029d 91       		.byte	0x91
 3608 029e 00       		.sleb128 0
 3609 029f 00000000 		.4byte	0
 3610 02a3 00000000 		.4byte	0
 3611              	.LLST13:
 3612 02a7 0E000000 		.4byte	.LVL13
 3613 02ab 2E000000 		.4byte	.LVL16
 3614 02af 0100     		.2byte	0x1
 3615 02b1 56       		.byte	0x56
 3616 02b2 2E000000 		.4byte	.LVL16
 3617 02b6 38000000 		.4byte	.LVL18
 3618 02ba 0200     		.2byte	0x2
 3619 02bc 77       		.byte	0x77
 3620 02bd 00       		.sleb128 0
 3621 02be 38000000 		.4byte	.LVL18
 3622 02c2 44000000 		.4byte	.LVL20
 3623 02c6 0300     		.2byte	0x3
 3624 02c8 70       		.byte	0x70
 3625 02c9 0C       		.sleb128 12
 3626 02ca 06       		.byte	0x6
 3627 02cb 44000000 		.4byte	.LVL20
 3628 02cf 62000000 		.4byte	.LVL21
 3629 02d3 0400     		.2byte	0x4
 3630 02d5 F3       		.byte	0xf3
 3631 02d6 01       		.uleb128 0x1
 3632 02d7 53       		.byte	0x53
 3633 02d8 9F       		.byte	0x9f
 3634 02d9 00000000 		.4byte	0
 3635 02dd 00000000 		.4byte	0
 3636              	.LLST14:
 3637 02e1 0E000000 		.4byte	.LVL13
 3638 02e5 3C000000 		.4byte	.LVL19
 3639 02e9 0100     		.2byte	0x1
 3640 02eb 52       		.byte	0x52
 3641 02ec 3C000000 		.4byte	.LVL19
 3642 02f0 62000000 		.4byte	.LVL21
 3643 02f4 0200     		.2byte	0x2
 3644 02f6 70       		.byte	0x70
 3645 02f7 08       		.sleb128 8
 3646 02f8 00000000 		.4byte	0
 3647 02fc 00000000 		.4byte	0
 3648              	.LLST15:
ARM GAS  /tmp/cc34Z630.s 			page 65


 3649 0300 0E000000 		.4byte	.LVL13
 3650 0304 1E000000 		.4byte	.LVL14
 3651 0308 0100     		.2byte	0x1
 3652 030a 51       		.byte	0x51
 3653 030b 1E000000 		.4byte	.LVL14
 3654 030f 26000000 		.4byte	.LVL15
 3655 0313 0300     		.2byte	0x3
 3656 0315 71       		.byte	0x71
 3657 0316 24       		.sleb128 36
 3658 0317 9F       		.byte	0x9f
 3659 0318 26000000 		.4byte	.LVL15
 3660 031c 62000000 		.4byte	.LVL21
 3661 0320 0400     		.2byte	0x4
 3662 0322 F3       		.byte	0xf3
 3663 0323 01       		.uleb128 0x1
 3664 0324 51       		.byte	0x51
 3665 0325 9F       		.byte	0x9f
 3666 0326 00000000 		.4byte	0
 3667 032a 00000000 		.4byte	0
 3668              	.LLST16:
 3669 032e 0E000000 		.4byte	.LVL13
 3670 0332 62000000 		.4byte	.LVL21
 3671 0336 0100     		.2byte	0x1
 3672 0338 50       		.byte	0x50
 3673 0339 00000000 		.4byte	0
 3674 033d 00000000 		.4byte	0
 3675              	.LLST17:
 3676 0341 30000000 		.4byte	.LVL17
 3677 0345 3C000000 		.4byte	.LVL19
 3678 0349 0100     		.2byte	0x1
 3679 034b 52       		.byte	0x52
 3680 034c 3C000000 		.4byte	.LVL19
 3681 0350 62000000 		.4byte	.LVL21
 3682 0354 0200     		.2byte	0x2
 3683 0356 70       		.byte	0x70
 3684 0357 08       		.sleb128 8
 3685 0358 00000000 		.4byte	0
 3686 035c 00000000 		.4byte	0
 3687              	.LLST18:
 3688 0360 30000000 		.4byte	.LVL17
 3689 0364 62000000 		.4byte	.LVL21
 3690 0368 0100     		.2byte	0x1
 3691 036a 50       		.byte	0x50
 3692 036b 00000000 		.4byte	0
 3693 036f 00000000 		.4byte	0
 3694              	.LLST0:
 3695 0373 00000000 		.4byte	.LVL0
 3696 0377 1C000000 		.4byte	.LVL1
 3697 037b 0100     		.2byte	0x1
 3698 037d 51       		.byte	0x51
 3699 037e 1C000000 		.4byte	.LVL1
 3700 0382 44000000 		.4byte	.LFE7
 3701 0386 0200     		.2byte	0x2
 3702 0388 70       		.byte	0x70
 3703 0389 08       		.sleb128 8
 3704 038a 00000000 		.4byte	0
 3705 038e 00000000 		.4byte	0
ARM GAS  /tmp/cc34Z630.s 			page 66


 3706              	.LLST1:
 3707 0392 00000000 		.4byte	.LVL2
 3708 0396 14000000 		.4byte	.LVL3
 3709 039a 0100     		.2byte	0x1
 3710 039c 51       		.byte	0x51
 3711 039d 14000000 		.4byte	.LVL3
 3712 03a1 26000000 		.4byte	.LVL5
 3713 03a5 0300     		.2byte	0x3
 3714 03a7 71       		.byte	0x71
 3715 03a8 24       		.sleb128 36
 3716 03a9 9F       		.byte	0x9f
 3717 03aa 26000000 		.4byte	.LVL5
 3718 03ae 64000000 		.4byte	.LFE8
 3719 03b2 0400     		.2byte	0x4
 3720 03b4 F3       		.byte	0xf3
 3721 03b5 01       		.uleb128 0x1
 3722 03b6 51       		.byte	0x51
 3723 03b7 9F       		.byte	0x9f
 3724 03b8 00000000 		.4byte	0
 3725 03bc 00000000 		.4byte	0
 3726              	.LLST2:
 3727 03c0 00000000 		.4byte	.LVL2
 3728 03c4 2E000000 		.4byte	.LVL7
 3729 03c8 0100     		.2byte	0x1
 3730 03ca 52       		.byte	0x52
 3731 03cb 2E000000 		.4byte	.LVL7
 3732 03cf 64000000 		.4byte	.LFE8
 3733 03d3 0200     		.2byte	0x2
 3734 03d5 70       		.byte	0x70
 3735 03d6 08       		.sleb128 8
 3736 03d7 00000000 		.4byte	0
 3737 03db 00000000 		.4byte	0
 3738              	.LLST3:
 3739 03df 00000000 		.4byte	.LVL2
 3740 03e3 1C000000 		.4byte	.LVL4
 3741 03e7 0100     		.2byte	0x1
 3742 03e9 53       		.byte	0x53
 3743 03ea 1C000000 		.4byte	.LVL4
 3744 03ee 3A000000 		.4byte	.LVL8
 3745 03f2 0200     		.2byte	0x2
 3746 03f4 77       		.byte	0x77
 3747 03f5 00       		.sleb128 0
 3748 03f6 3A000000 		.4byte	.LVL8
 3749 03fa 64000000 		.4byte	.LFE8
 3750 03fe 0400     		.2byte	0x4
 3751 0400 F3       		.byte	0xf3
 3752 0401 01       		.uleb128 0x1
 3753 0402 53       		.byte	0x53
 3754 0403 9F       		.byte	0x9f
 3755 0404 00000000 		.4byte	0
 3756 0408 00000000 		.4byte	0
 3757              	.LLST4:
 3758 040c 00000000 		.4byte	.LVL2
 3759 0410 5A000000 		.4byte	.LVL10
 3760 0414 0200     		.2byte	0x2
 3761 0416 91       		.byte	0x91
 3762 0417 00       		.sleb128 0
ARM GAS  /tmp/cc34Z630.s 			page 67


 3763 0418 5A000000 		.4byte	.LVL10
 3764 041c 64000000 		.4byte	.LFE8
 3765 0420 0200     		.2byte	0x2
 3766 0422 7D       		.byte	0x7d
 3767 0423 00       		.sleb128 0
 3768 0424 00000000 		.4byte	0
 3769 0428 00000000 		.4byte	0
 3770              	.LLST5:
 3771 042c 28000000 		.4byte	.LVL6
 3772 0430 2E000000 		.4byte	.LVL7
 3773 0434 0100     		.2byte	0x1
 3774 0436 52       		.byte	0x52
 3775 0437 2E000000 		.4byte	.LVL7
 3776 043b 56000000 		.4byte	.LVL9
 3777 043f 0200     		.2byte	0x2
 3778 0441 70       		.byte	0x70
 3779 0442 08       		.sleb128 8
 3780 0443 00000000 		.4byte	0
 3781 0447 00000000 		.4byte	0
 3782              	.LLST6:
 3783 044b 28000000 		.4byte	.LVL6
 3784 044f 56000000 		.4byte	.LVL9
 3785 0453 0100     		.2byte	0x1
 3786 0455 50       		.byte	0x50
 3787 0456 00000000 		.4byte	0
 3788 045a 00000000 		.4byte	0
 3789              		.section	.debug_aranges,"",%progbits
 3790 0000 74000000 		.4byte	0x74
 3791 0004 0200     		.2byte	0x2
 3792 0006 00000000 		.4byte	.Ldebug_info0
 3793 000a 04       		.byte	0x4
 3794 000b 00       		.byte	0
 3795 000c 0000     		.2byte	0
 3796 000e 0000     		.2byte	0
 3797 0010 00000000 		.4byte	.LFB7
 3798 0014 44000000 		.4byte	.LFE7-.LFB7
 3799 0018 00000000 		.4byte	.LFB8
 3800 001c 64000000 		.4byte	.LFE8-.LFB8
 3801 0020 00000000 		.4byte	.LFB9
 3802 0024 7C000000 		.4byte	.LFE9-.LFB9
 3803 0028 00000000 		.4byte	.LFB10
 3804 002c 30000000 		.4byte	.LFE10-.LFB10
 3805 0030 00000000 		.4byte	.LFB11
 3806 0034 1A000000 		.4byte	.LFE11-.LFB11
 3807 0038 00000000 		.4byte	.LFB12
 3808 003c 16000000 		.4byte	.LFE12-.LFB12
 3809 0040 00000000 		.4byte	.LFB13
 3810 0044 18000000 		.4byte	.LFE13-.LFB13
 3811 0048 00000000 		.4byte	.LFB14
 3812 004c 24000000 		.4byte	.LFE14-.LFB14
 3813 0050 00000000 		.4byte	.LFB15
 3814 0054 28000000 		.4byte	.LFE15-.LFB15
 3815 0058 00000000 		.4byte	.LFB17
 3816 005c 40000000 		.4byte	.LFE17-.LFB17
 3817 0060 00000000 		.4byte	.LFB16
 3818 0064 0A000000 		.4byte	.LFE16-.LFB16
 3819 0068 00000000 		.4byte	.LFB18
ARM GAS  /tmp/cc34Z630.s 			page 68


 3820 006c 38000000 		.4byte	.LFE18-.LFB18
 3821 0070 00000000 		.4byte	0
 3822 0074 00000000 		.4byte	0
 3823              		.section	.debug_ranges,"",%progbits
 3824              	.Ldebug_ranges0:
 3825 0000 04000000 		.4byte	.LBB16
 3826 0004 12000000 		.4byte	.LBE16
 3827 0008 1C000000 		.4byte	.LBB21
 3828 000c 1E000000 		.4byte	.LBE21
 3829 0010 22000000 		.4byte	.LBB22
 3830 0014 26000000 		.4byte	.LBE22
 3831 0018 28000000 		.4byte	.LBB23
 3832 001c 56000000 		.4byte	.LBE23
 3833 0020 00000000 		.4byte	0
 3834 0024 00000000 		.4byte	0
 3835 0028 0E000000 		.4byte	.LBB25
 3836 002c 58000000 		.4byte	.LBE25
 3837 0030 5A000000 		.4byte	.LBB38
 3838 0034 62000000 		.4byte	.LBE38
 3839 0038 00000000 		.4byte	0
 3840 003c 00000000 		.4byte	0
 3841 0040 0E000000 		.4byte	.LBB27
 3842 0044 1C000000 		.4byte	.LBE27
 3843 0048 26000000 		.4byte	.LBB33
 3844 004c 28000000 		.4byte	.LBE33
 3845 0050 2C000000 		.4byte	.LBB34
 3846 0054 2E000000 		.4byte	.LBE34
 3847 0058 30000000 		.4byte	.LBB35
 3848 005c 58000000 		.4byte	.LBE35
 3849 0060 5A000000 		.4byte	.LBB36
 3850 0064 62000000 		.4byte	.LBE36
 3851 0068 00000000 		.4byte	0
 3852 006c 00000000 		.4byte	0
 3853 0070 02000000 		.4byte	.LBB42
 3854 0074 04000000 		.4byte	.LBE42
 3855 0078 06000000 		.4byte	.LBB43
 3856 007c 0A000000 		.4byte	.LBE43
 3857 0080 00000000 		.4byte	0
 3858 0084 00000000 		.4byte	0
 3859 0088 08000000 		.4byte	.LBB46
 3860 008c 0A000000 		.4byte	.LBE46
 3861 0090 10000000 		.4byte	.LBB47
 3862 0094 16000000 		.4byte	.LBE47
 3863 0098 00000000 		.4byte	0
 3864 009c 00000000 		.4byte	0
 3865 00a0 12000000 		.4byte	.LBB58
 3866 00a4 14000000 		.4byte	.LBE58
 3867 00a8 18000000 		.4byte	.LBB61
 3868 00ac 1C000000 		.4byte	.LBE61
 3869 00b0 00000000 		.4byte	0
 3870 00b4 00000000 		.4byte	0
 3871 00b8 00000000 		.4byte	.LFB7
 3872 00bc 44000000 		.4byte	.LFE7
 3873 00c0 00000000 		.4byte	.LFB8
 3874 00c4 64000000 		.4byte	.LFE8
 3875 00c8 00000000 		.4byte	.LFB9
 3876 00cc 7C000000 		.4byte	.LFE9
ARM GAS  /tmp/cc34Z630.s 			page 69


 3877 00d0 00000000 		.4byte	.LFB10
 3878 00d4 30000000 		.4byte	.LFE10
 3879 00d8 00000000 		.4byte	.LFB11
 3880 00dc 1A000000 		.4byte	.LFE11
 3881 00e0 00000000 		.4byte	.LFB12
 3882 00e4 16000000 		.4byte	.LFE12
 3883 00e8 00000000 		.4byte	.LFB13
 3884 00ec 18000000 		.4byte	.LFE13
 3885 00f0 00000000 		.4byte	.LFB14
 3886 00f4 24000000 		.4byte	.LFE14
 3887 00f8 00000000 		.4byte	.LFB15
 3888 00fc 28000000 		.4byte	.LFE15
 3889 0100 00000000 		.4byte	.LFB17
 3890 0104 40000000 		.4byte	.LFE17
 3891 0108 00000000 		.4byte	.LFB16
 3892 010c 0A000000 		.4byte	.LFE16
 3893 0110 00000000 		.4byte	.LFB18
 3894 0114 38000000 		.4byte	.LFE18
 3895 0118 00000000 		.4byte	0
 3896 011c 00000000 		.4byte	0
 3897              		.section	.debug_line,"",%progbits
 3898              	.Ldebug_line0:
 3899 0000 70030000 		.section	.debug_str,"MS",%progbits,1
 3899      02008101 
 3899      00000201 
 3899      FB0E0D00 
 3899      01010101 
 3900              	.LASF84:
 3901 0000 7466756E 		.ascii	"tfunc_t\000"
 3901      635F7400 
 3902              	.LASF95:
 3903 0008 63665F6F 		.ascii	"cf_off_older\000"
 3903      66665F6F 
 3903      6C646572 
 3903      00
 3904              	.LASF132:
 3905 0015 2F686F6D 		.ascii	"/home/ekobayu/Arok-Gandring-Lokajaya/LPC/ChibiOS-RT"
 3905      652F656B 
 3905      6F626179 
 3905      752F4172 
 3905      6F6B2D47 
 3906 0048 2D4C5043 		.ascii	"-LPC/demos/LPC1766\000"
 3906      2F64656D 
 3906      6F732F4C 
 3906      50433137 
 3906      363600
 3907              	.LASF45:
 3908 005b 705F6D73 		.ascii	"p_msg\000"
 3908      6700
 3909              	.LASF4:
 3910 0061 73697A65 		.ascii	"size_t\000"
 3910      5F7400
 3911              	.LASF120:
 3912 0068 7072696F 		.ascii	"prio\000"
 3912      00
 3913              	.LASF62:
 3914 006d 76745F66 		.ascii	"vt_func\000"
ARM GAS  /tmp/cc34Z630.s 			page 70


 3914      756E6300 
 3915              	.LASF20:
 3916 0075 75696E74 		.ascii	"uint64_t\000"
 3916      36345F74 
 3916      00
 3917              	.LASF5:
 3918 007e 5F5F7569 		.ascii	"__uint8_t\000"
 3918      6E74385F 
 3918      7400
 3919              	.LASF73:
 3920 0088 76746C69 		.ascii	"vtlist\000"
 3920      737400
 3921              	.LASF106:
 3922 008f 63685468 		.ascii	"chThdExitS\000"
 3922      64457869 
 3922      745300
 3923              	.LASF15:
 3924 009a 6C6F6E67 		.ascii	"long long unsigned int\000"
 3924      206C6F6E 
 3924      6720756E 
 3924      7369676E 
 3924      65642069 
 3925              	.LASF91:
 3926 00b1 63685F74 		.ascii	"ch_threadsize\000"
 3926      68726561 
 3926      6473697A 
 3926      6500
 3927              	.LASF80:
 3928 00bf 65786974 		.ascii	"exitcode\000"
 3928      636F6465 
 3928      00
 3929              	.LASF33:
 3930 00c8 705F7072 		.ascii	"p_prio\000"
 3930      696F00
 3931              	.LASF98:
 3932 00cf 63665F6F 		.ascii	"cf_off_state\000"
 3932      66665F73 
 3932      74617465 
 3932      00
 3933              	.LASF1:
 3934 00dc 6C6F6E67 		.ascii	"long long int\000"
 3934      206C6F6E 
 3934      6720696E 
 3934      7400
 3935              	.LASF3:
 3936 00ea 7369676E 		.ascii	"signed char\000"
 3936      65642063 
 3936      68617200 
 3937              	.LASF107:
 3938 00f6 63685468 		.ascii	"chThdExit\000"
 3938      64457869 
 3938      7400
 3939              	.LASF97:
 3940 0100 63665F6F 		.ascii	"cf_off_stklimit\000"
 3940      66665F73 
 3940      746B6C69 
 3940      6D697400 
ARM GAS  /tmp/cc34Z630.s 			page 71


 3941              	.LASF99:
 3942 0110 63665F6F 		.ascii	"cf_off_flags\000"
 3942      66665F66 
 3942      6C616773 
 3942      00
 3943              	.LASF49:
 3944 011d 705F6D70 		.ascii	"p_mpool\000"
 3944      6F6F6C00 
 3945              	.LASF76:
 3946 0125 6D5F7175 		.ascii	"m_queue\000"
 3946      65756500 
 3947              	.LASF25:
 3948 012d 74736C69 		.ascii	"tslices_t\000"
 3948      6365735F 
 3948      7400
 3949              	.LASF121:
 3950 0137 63685468 		.ascii	"chThdCreateI\000"
 3950      64437265 
 3950      61746549 
 3950      00
 3951              	.LASF11:
 3952 0144 6C6F6E67 		.ascii	"long int\000"
 3952      20696E74 
 3952      00
 3953              	.LASF23:
 3954 014d 74737461 		.ascii	"tstate_t\000"
 3954      74655F74 
 3954      00
 3955              	.LASF17:
 3956 0156 75696E74 		.ascii	"uint16_t\000"
 3956      31365F74 
 3956      00
 3957              	.LASF103:
 3958 015f 63686465 		.ascii	"chdebug_t\000"
 3958      6275675F 
 3958      7400
 3959              	.LASF35:
 3960 0169 705F6E65 		.ascii	"p_newer\000"
 3960      77657200 
 3961              	.LASF105:
 3962 0171 5F69646C 		.ascii	"_idle_thread_wa\000"
 3962      655F7468 
 3962      72656164 
 3962      5F776100 
 3963              	.LASF133:
 3964 0181 6C697374 		.ascii	"list_remove\000"
 3964      5F72656D 
 3964      6F766500 
 3965              	.LASF129:
 3966 018d 63685363 		.ascii	"chSchRescheduleS\000"
 3966      68526573 
 3966      63686564 
 3966      756C6553 
 3966      00
 3967              	.LASF12:
 3968 019e 5F5F7569 		.ascii	"__uint32_t\000"
 3968      6E743332 
ARM GAS  /tmp/cc34Z630.s 			page 72


 3968      5F7400
 3969              	.LASF52:
 3970 01a9 72656761 		.ascii	"regarm_t\000"
 3970      726D5F74 
 3970      00
 3971              	.LASF60:
 3972 01b2 76745F70 		.ascii	"vt_prev\000"
 3972      72657600 
 3973              	.LASF115:
 3974 01ba 63685468 		.ascii	"chThdSetPriority\000"
 3974      64536574 
 3974      5072696F 
 3974      72697479 
 3974      00
 3975              	.LASF0:
 3976 01cb 756E7369 		.ascii	"unsigned int\000"
 3976      676E6564 
 3976      20696E74 
 3976      00
 3977              	.LASF122:
 3978 01d8 5F746872 		.ascii	"_thread_init\000"
 3978      6561645F 
 3978      696E6974 
 3978      00
 3979              	.LASF59:
 3980 01e5 76745F6E 		.ascii	"vt_next\000"
 3980      65787400 
 3981              	.LASF13:
 3982 01ed 6C6F6E67 		.ascii	"long unsigned int\000"
 3982      20756E73 
 3982      69676E65 
 3982      6420696E 
 3982      7400
 3983              	.LASF104:
 3984 01ff 63685F64 		.ascii	"ch_debug\000"
 3984      65627567 
 3984      00
 3985              	.LASF57:
 3986 0208 76746675 		.ascii	"vtfunc_t\000"
 3986      6E635F74 
 3986      00
 3987              	.LASF85:
 3988 0211 63685F69 		.ascii	"ch_identifier\000"
 3988      64656E74 
 3988      69666965 
 3988      7200
 3989              	.LASF55:
 3990 021f 636F6E74 		.ascii	"context\000"
 3990      65787400 
 3991              	.LASF119:
 3992 0227 73697A65 		.ascii	"size\000"
 3992      00
 3993              	.LASF9:
 3994 022c 73686F72 		.ascii	"short unsigned int\000"
 3994      7420756E 
 3994      7369676E 
 3994      65642069 
ARM GAS  /tmp/cc34Z630.s 			page 73


 3994      6E7400
 3995              	.LASF128:
 3996 023f 63685363 		.ascii	"chSchWakeupS\000"
 3996      6857616B 
 3996      65757053 
 3996      00
 3997              	.LASF27:
 3998 024c 6D73675F 		.ascii	"msg_t\000"
 3998      7400
 3999              	.LASF69:
 4000 0252 725F6E65 		.ascii	"r_newer\000"
 4000      77657200 
 4001              	.LASF116:
 4002 025a 6E657770 		.ascii	"newprio\000"
 4002      72696F00 
 4003              	.LASF22:
 4004 0262 746D6F64 		.ascii	"tmode_t\000"
 4004      655F7400 
 4005              	.LASF112:
 4006 026a 63685468 		.ascii	"chThdTerminate\000"
 4006      64546572 
 4006      6D696E61 
 4006      746500
 4007              	.LASF51:
 4008 0279 54687265 		.ascii	"ThreadsList\000"
 4008      6164734C 
 4008      69737400 
 4009              	.LASF28:
 4010 0285 6576656E 		.ascii	"eventmask_t\000"
 4010      746D6173 
 4010      6B5F7400 
 4011              	.LASF75:
 4012 0291 4D757465 		.ascii	"Mutex\000"
 4012      7800
 4013              	.LASF117:
 4014 0297 6F6C6470 		.ascii	"oldprio\000"
 4014      72696F00 
 4015              	.LASF53:
 4016 029f 73746B61 		.ascii	"stkalign_t\000"
 4016      6C69676E 
 4016      5F7400
 4017              	.LASF118:
 4018 02aa 63685468 		.ascii	"chThdCreateStatic\000"
 4018      64437265 
 4018      61746553 
 4018      74617469 
 4018      6300
 4019              	.LASF86:
 4020 02bc 63685F7A 		.ascii	"ch_zero\000"
 4020      65726F00 
 4021              	.LASF100:
 4022 02c4 63665F6F 		.ascii	"cf_off_refs\000"
 4022      66665F72 
 4022      65667300 
 4023              	.LASF61:
 4024 02d0 76745F74 		.ascii	"vt_time\000"
 4024      696D6500 
ARM GAS  /tmp/cc34Z630.s 			page 74


 4025              	.LASF130:
 4026 02d8 474E5520 		.ascii	"GNU C11 6.3.1 20170620 -mcpu=cortex-m3 -mno-thumb-i"
 4026      43313120 
 4026      362E332E 
 4026      31203230 
 4026      31373036 
 4027 030b 6E746572 		.ascii	"nterwork -mthumb -ggdb -O2 -fomit-frame-pointer -ff"
 4027      776F726B 
 4027      202D6D74 
 4027      68756D62 
 4027      202D6767 
 4028 033e 756E6374 		.ascii	"unction-sections -fdata-sections -fno-common\000"
 4028      696F6E2D 
 4028      73656374 
 4028      696F6E73 
 4028      202D6664 
 4029              	.LASF56:
 4030 036b 73697A65 		.ascii	"sizetype\000"
 4030      74797065 
 4030      00
 4031              	.LASF2:
 4032 0374 6C6F6E67 		.ascii	"long double\000"
 4032      20646F75 
 4032      626C6500 
 4033              	.LASF90:
 4034 0380 63685F74 		.ascii	"ch_timesize\000"
 4034      696D6573 
 4034      697A6500 
 4035              	.LASF114:
 4036 038c 63685468 		.ascii	"chThdResume\000"
 4036      64526573 
 4036      756D6500 
 4037              	.LASF126:
 4038 0398 63685363 		.ascii	"chSchDoRescheduleBehind\000"
 4038      68446F52 
 4038      65736368 
 4038      6564756C 
 4038      65426568 
 4039              	.LASF96:
 4040 03b0 63665F6F 		.ascii	"cf_off_name\000"
 4040      66665F6E 
 4040      616D6500 
 4041              	.LASF36:
 4042 03bc 705F6F6C 		.ascii	"p_older\000"
 4042      64657200 
 4043              	.LASF68:
 4044 03c4 725F6374 		.ascii	"r_ctx\000"
 4044      7800
 4045              	.LASF50:
 4046 03ca 54687265 		.ascii	"ThreadsQueue\000"
 4046      61647351 
 4046      75657565 
 4046      00
 4047              	.LASF87:
 4048 03d7 63685F73 		.ascii	"ch_size\000"
 4048      697A6500 
 4049              	.LASF110:
ARM GAS  /tmp/cc34Z630.s 			page 75


 4050 03df 74696D65 		.ascii	"time\000"
 4050      00
 4051              	.LASF134:
 4052 03e4 6C697374 		.ascii	"list_insert\000"
 4052      5F696E73 
 4052      65727400 
 4053              	.LASF71:
 4054 03f0 725F6375 		.ascii	"r_current\000"
 4054      7272656E 
 4054      7400
 4055              	.LASF70:
 4056 03fa 725F6F6C 		.ascii	"r_older\000"
 4056      64657200 
 4057              	.LASF109:
 4058 0402 63685468 		.ascii	"chThdSleepUntil\000"
 4058      64536C65 
 4058      6570556E 
 4058      74696C00 
 4059              	.LASF14:
 4060 0412 5F5F7569 		.ascii	"__uint64_t\000"
 4060      6E743634 
 4060      5F7400
 4061              	.LASF24:
 4062 041d 74726566 		.ascii	"trefs_t\000"
 4062      735F7400 
 4063              	.LASF89:
 4064 0425 63685F70 		.ascii	"ch_ptrsize\000"
 4064      74727369 
 4064      7A6500
 4065              	.LASF32:
 4066 0430 705F7072 		.ascii	"p_prev\000"
 4066      657600
 4067              	.LASF26:
 4068 0437 74707269 		.ascii	"tprio_t\000"
 4068      6F5F7400 
 4069              	.LASF21:
 4070 043f 5F426F6F 		.ascii	"_Bool\000"
 4070      6C00
 4071              	.LASF18:
 4072 0445 696E7433 		.ascii	"int32_t\000"
 4072      325F7400 
 4073              	.LASF6:
 4074 044d 756E7369 		.ascii	"unsigned char\000"
 4074      676E6564 
 4074      20636861 
 4074      7200
 4075              	.LASF47:
 4076 045b 705F6D74 		.ascii	"p_mtxlist\000"
 4076      786C6973 
 4076      7400
 4077              	.LASF7:
 4078 0465 73686F72 		.ascii	"short int\000"
 4078      7420696E 
 4078      7400
 4079              	.LASF38:
 4080 046f 705F7374 		.ascii	"p_state\000"
 4080      61746500 
ARM GAS  /tmp/cc34Z630.s 			page 76


 4081              	.LASF41:
 4082 0477 705F7072 		.ascii	"p_preempt\000"
 4082      65656D70 
 4082      7400
 4083              	.LASF102:
 4084 0481 63665F6F 		.ascii	"cf_off_time\000"
 4084      66665F74 
 4084      696D6500 
 4085              	.LASF67:
 4086 048d 725F7072 		.ascii	"r_prio\000"
 4086      696F00
 4087              	.LASF82:
 4088 0494 65776D61 		.ascii	"ewmask\000"
 4088      736B00
 4089              	.LASF31:
 4090 049b 705F6E65 		.ascii	"p_next\000"
 4090      787400
 4091              	.LASF101:
 4092 04a2 63665F6F 		.ascii	"cf_off_preempt\000"
 4092      66665F70 
 4092      7265656D 
 4092      707400
 4093              	.LASF39:
 4094 04b1 705F666C 		.ascii	"p_flags\000"
 4094      61677300 
 4095              	.LASF124:
 4096 04b9 63685468 		.ascii	"chThdRelease\000"
 4096      6452656C 
 4096      65617365 
 4096      00
 4097              	.LASF30:
 4098 04c6 54687265 		.ascii	"Thread\000"
 4098      616400
 4099              	.LASF94:
 4100 04cd 63665F6F 		.ascii	"cf_off_newer\000"
 4100      66665F6E 
 4100      65776572 
 4100      00
 4101              	.LASF123:
 4102 04da 63685363 		.ascii	"chSchGoSleepS\000"
 4102      68476F53 
 4102      6C656570 
 4102      5300
 4103              	.LASF46:
 4104 04e8 705F6570 		.ascii	"p_epending\000"
 4104      656E6469 
 4104      6E6700
 4105              	.LASF111:
 4106 04f3 63685468 		.ascii	"chThdSleep\000"
 4106      64536C65 
 4106      657000
 4107              	.LASF19:
 4108 04fe 75696E74 		.ascii	"uint32_t\000"
 4108      33325F74 
 4108      00
 4109              	.LASF92:
 4110 0507 63665F6F 		.ascii	"cf_off_prio\000"
ARM GAS  /tmp/cc34Z630.s 			page 77


 4110      66665F70 
 4110      72696F00 
 4111              	.LASF66:
 4112 0513 725F7175 		.ascii	"r_queue\000"
 4112      65756500 
 4113              	.LASF58:
 4114 051b 56697274 		.ascii	"VirtualTimer\000"
 4114      75616C54 
 4114      696D6572 
 4114      00
 4115              	.LASF83:
 4116 0528 63686172 		.ascii	"char\000"
 4116      00
 4117              	.LASF8:
 4118 052d 5F5F7569 		.ascii	"__uint16_t\000"
 4118      6E743136 
 4118      5F7400
 4119              	.LASF125:
 4120 0538 63685363 		.ascii	"chSchReadyI\000"
 4120      68526561 
 4120      64794900 
 4121              	.LASF78:
 4122 0544 6D5F6E65 		.ascii	"m_next\000"
 4122      787400
 4123              	.LASF29:
 4124 054b 73797374 		.ascii	"systime_t\000"
 4124      696D655F 
 4124      7400
 4125              	.LASF48:
 4126 0555 705F7265 		.ascii	"p_realprio\000"
 4126      616C7072 
 4126      696F00
 4127              	.LASF10:
 4128 0560 5F5F696E 		.ascii	"__int32_t\000"
 4128      7433325F 
 4128      7400
 4129              	.LASF108:
 4130 056a 63685468 		.ascii	"chThdYield\000"
 4130      64596965 
 4130      6C6400
 4131              	.LASF42:
 4132 0575 705F7469 		.ascii	"p_time\000"
 4132      6D6500
 4133              	.LASF54:
 4134 057c 696E7463 		.ascii	"intctx\000"
 4134      747800
 4135              	.LASF44:
 4136 0583 705F6D73 		.ascii	"p_msgqueue\000"
 4136      67717565 
 4136      756500
 4137              	.LASF113:
 4138 058e 63685468 		.ascii	"chThdWait\000"
 4138      64576169 
 4138      7400
 4139              	.LASF63:
 4140 0598 76745F70 		.ascii	"vt_par\000"
 4140      617200
ARM GAS  /tmp/cc34Z630.s 			page 78


 4141              	.LASF93:
 4142 059f 63665F6F 		.ascii	"cf_off_ctx\000"
 4142      66665F63 
 4142      747800
 4143              	.LASF79:
 4144 05aa 7264796D 		.ascii	"rdymsg\000"
 4144      736700
 4145              	.LASF40:
 4146 05b1 705F7265 		.ascii	"p_refs\000"
 4146      667300
 4147              	.LASF72:
 4148 05b8 52656164 		.ascii	"ReadyList\000"
 4148      794C6973 
 4148      7400
 4149              	.LASF74:
 4150 05c2 726C6973 		.ascii	"rlist\000"
 4150      7400
 4151              	.LASF16:
 4152 05c8 75696E74 		.ascii	"uint8_t\000"
 4152      385F7400 
 4153              	.LASF131:
 4154 05d0 2E2E2F2E 		.ascii	"../../os/kernel/src/chthreads.c\000"
 4154      2E2F6F73 
 4154      2F6B6572 
 4154      6E656C2F 
 4154      7372632F 
 4155              	.LASF81:
 4156 05f0 77746F62 		.ascii	"wtobjp\000"
 4156      6A7000
 4157              	.LASF37:
 4158 05f7 705F6E61 		.ascii	"p_name\000"
 4158      6D6500
 4159              	.LASF64:
 4160 05fe 76745F73 		.ascii	"vt_systime\000"
 4160      79737469 
 4160      6D6500
 4161              	.LASF127:
 4162 0609 63685363 		.ascii	"chSchGoSleepTimeoutS\000"
 4162      68476F53 
 4162      6C656570 
 4162      54696D65 
 4162      6F757453 
 4163              	.LASF88:
 4164 061e 63685F76 		.ascii	"ch_version\000"
 4164      65727369 
 4164      6F6E00
 4165              	.LASF65:
 4166 0629 56544C69 		.ascii	"VTList\000"
 4166      737400
 4167              	.LASF77:
 4168 0630 6D5F6F77 		.ascii	"m_owner\000"
 4168      6E657200 
 4169              	.LASF34:
 4170 0638 705F6374 		.ascii	"p_ctx\000"
 4170      7800
 4171              	.LASF43:
 4172 063e 705F7761 		.ascii	"p_waiting\000"
ARM GAS  /tmp/cc34Z630.s 			page 79


 4172      6974696E 
 4172      6700
 4173              		.ident	"GCC: (15:6.3.1+svn253039-1build1) 6.3.1 20170620"
ARM GAS  /tmp/cc34Z630.s 			page 80


DEFINED SYMBOLS
                            *ABS*:0000000000000000 chthreads.c
     /tmp/cc34Z630.s:16     .text._thread_init:0000000000000000 $t
     /tmp/cc34Z630.s:24     .text._thread_init:0000000000000000 _thread_init
     /tmp/cc34Z630.s:93     .text._thread_init:0000000000000040 $d
     /tmp/cc34Z630.s:98     .text.chThdCreateI:0000000000000000 $t
     /tmp/cc34Z630.s:106    .text.chThdCreateI:0000000000000000 chThdCreateI
     /tmp/cc34Z630.s:210    .text.chThdCreateI:000000000000005c $d
     /tmp/cc34Z630.s:216    .text.chThdCreateStatic:0000000000000000 $t
     /tmp/cc34Z630.s:224    .text.chThdCreateStatic:0000000000000000 chThdCreateStatic
     /tmp/cc34Z630.s:371    .text.chThdCreateStatic:0000000000000074 $d
     /tmp/cc34Z630.s:377    .text.chThdSetPriority:0000000000000000 $t
     /tmp/cc34Z630.s:385    .text.chThdSetPriority:0000000000000000 chThdSetPriority
     /tmp/cc34Z630.s:444    .text.chThdSetPriority:000000000000002c $d
     /tmp/cc34Z630.s:449    .text.chThdResume:0000000000000000 $t
     /tmp/cc34Z630.s:457    .text.chThdResume:0000000000000000 chThdResume
     /tmp/cc34Z630.s:504    .text.chThdTerminate:0000000000000000 $t
     /tmp/cc34Z630.s:512    .text.chThdTerminate:0000000000000000 chThdTerminate
     /tmp/cc34Z630.s:553    .text.chThdSleep:0000000000000000 $t
     /tmp/cc34Z630.s:561    .text.chThdSleep:0000000000000000 chThdSleep
     /tmp/cc34Z630.s:604    .text.chThdSleepUntil:0000000000000000 $t
     /tmp/cc34Z630.s:612    .text.chThdSleepUntil:0000000000000000 chThdSleepUntil
     /tmp/cc34Z630.s:658    .text.chThdSleepUntil:0000000000000020 $d
     /tmp/cc34Z630.s:664    .text.chThdYield:0000000000000000 $t
     /tmp/cc34Z630.s:672    .text.chThdYield:0000000000000000 chThdYield
     /tmp/cc34Z630.s:717    .text.chThdYield:0000000000000024 $d
     /tmp/cc34Z630.s:723    .text.chThdExitS:0000000000000000 $t
     /tmp/cc34Z630.s:731    .text.chThdExitS:0000000000000000 chThdExitS
     /tmp/cc34Z630.s:803    .text.chThdExitS:000000000000003c $d
     /tmp/cc34Z630.s:808    .text.chThdExit:0000000000000000 $t
     /tmp/cc34Z630.s:816    .text.chThdExit:0000000000000000 chThdExit
     /tmp/cc34Z630.s:841    .text.chThdWait:0000000000000000 $t
     /tmp/cc34Z630.s:849    .text.chThdWait:0000000000000000 chThdWait
     /tmp/cc34Z630.s:929    .text.chThdWait:0000000000000034 $d
                     .debug_frame:0000000000000010 $d

UNDEFINED SYMBOLS
rlist
_port_thread_start
chSchWakeupS
chSchRescheduleS
chSchGoSleepTimeoutS
vtlist
chSchDoRescheduleBehind
chSchReadyI
chSchGoSleepS
chThdRelease
