ARM GAS  /tmp/ccH5YtAd.s 			page 1


   1              		.cpu cortex-m3
   2              		.eabi_attribute 20, 1
   3              		.eabi_attribute 21, 1
   4              		.eabi_attribute 23, 3
   5              		.eabi_attribute 24, 1
   6              		.eabi_attribute 25, 1
   7              		.eabi_attribute 26, 1
   8              		.eabi_attribute 30, 2
   9              		.eabi_attribute 34, 1
  10              		.eabi_attribute 18, 4
  11              		.file	"gpt.c"
  12              		.text
  13              	.Ltext0:
  14              		.cfi_sections	.debug_frame
  15              		.section	.text.gptInit,"ax",%progbits
  16              		.align	1
  17              		.p2align 2,,3
  18              		.global	gptInit
  19              		.syntax unified
  20              		.thumb
  21              		.thumb_func
  22              		.fpu softvfp
  23              		.type	gptInit, %function
  24              	gptInit:
  25              	.LFB63:
  26              		.file 1 "../../os/hal/src/gpt.c"
  27              		.loc 1 61 0
  28              		.cfi_startproc
  29              		@ args = 0, pretend = 0, frame = 0
  30              		@ frame_needed = 0, uses_anonymous_args = 0
  31              		@ link register save eliminated.
  32              		.loc 1 63 0
  33 0000 FFF7FEBF 		b	gpt_lld_init
  34              	.LVL0:
  35              		.cfi_endproc
  36              	.LFE63:
  37              		.size	gptInit, .-gptInit
  38              		.section	.text.gptObjectInit,"ax",%progbits
  39              		.align	1
  40              		.p2align 2,,3
  41              		.global	gptObjectInit
  42              		.syntax unified
  43              		.thumb
  44              		.thumb_func
  45              		.fpu softvfp
  46              		.type	gptObjectInit, %function
  47              	gptObjectInit:
  48              	.LFB64:
  49              		.loc 1 73 0
  50              		.cfi_startproc
  51              		@ args = 0, pretend = 0, frame = 0
  52              		@ frame_needed = 0, uses_anonymous_args = 0
  53              		@ link register save eliminated.
  54              	.LVL1:
  55              		.loc 1 75 0
  56 0000 0122     		movs	r2, #1
  57              		.loc 1 76 0
ARM GAS  /tmp/ccH5YtAd.s 			page 2


  58 0002 0023     		movs	r3, #0
  59              		.loc 1 75 0
  60 0004 0270     		strb	r2, [r0]
  61              		.loc 1 76 0
  62 0006 4360     		str	r3, [r0, #4]
  63 0008 7047     		bx	lr
  64              		.cfi_endproc
  65              	.LFE64:
  66              		.size	gptObjectInit, .-gptObjectInit
  67 000a 00BF     		.section	.text.gptStart,"ax",%progbits
  68              		.align	1
  69              		.p2align 2,,3
  70              		.global	gptStart
  71              		.syntax unified
  72              		.thumb
  73              		.thumb_func
  74              		.fpu softvfp
  75              		.type	gptStart, %function
  76              	gptStart:
  77              	.LFB65:
  78              		.loc 1 87 0
  79              		.cfi_startproc
  80              		@ args = 0, pretend = 0, frame = 0
  81              		@ frame_needed = 0, uses_anonymous_args = 0
  82              	.LVL2:
  83 0000 10B5     		push	{r4, lr}
  84              		.cfi_def_cfa_offset 8
  85              		.cfi_offset 4, -8
  86              		.cfi_offset 14, -4
  87              	.LBB14:
  88              		.loc 1 91 0
  89 0002 4023     		movs	r3, #64
  90              	.LBE14:
  91              		.loc 1 87 0
  92 0004 0446     		mov	r4, r0
  93              	.LBB15:
  94              		.loc 1 91 0
  95              		.syntax unified
  96              	@ 91 "../../os/hal/src/gpt.c" 1
  97 0006 83F31188 		msr     BASEPRI, r3
  98              	@ 0 "" 2
  99              		.thumb
 100              		.syntax unified
 101              	.LBE15:
 102              		.loc 1 94 0
 103 000a 4160     		str	r1, [r0, #4]
 104              		.loc 1 95 0
 105 000c FFF7FEFF 		bl	gpt_lld_start
 106              	.LVL3:
 107              		.loc 1 96 0
 108 0010 0222     		movs	r2, #2
 109              	.LBB16:
 110              		.loc 1 97 0
 111 0012 0023     		movs	r3, #0
 112              	.LBE16:
 113              		.loc 1 96 0
 114 0014 2270     		strb	r2, [r4]
ARM GAS  /tmp/ccH5YtAd.s 			page 3


 115              	.LBB17:
 116              		.loc 1 97 0
 117              		.syntax unified
 118              	@ 97 "../../os/hal/src/gpt.c" 1
 119 0016 83F31188 		msr     BASEPRI, r3
 120              	@ 0 "" 2
 121              		.thumb
 122              		.syntax unified
 123 001a 10BD     		pop	{r4, pc}
 124              	.LBE17:
 125              		.cfi_endproc
 126              	.LFE65:
 127              		.size	gptStart, .-gptStart
 128              		.section	.text.gptStop,"ax",%progbits
 129              		.align	1
 130              		.p2align 2,,3
 131              		.global	gptStop
 132              		.syntax unified
 133              		.thumb
 134              		.thumb_func
 135              		.fpu softvfp
 136              		.type	gptStop, %function
 137              	gptStop:
 138              	.LFB66:
 139              		.loc 1 107 0
 140              		.cfi_startproc
 141              		@ args = 0, pretend = 0, frame = 0
 142              		@ frame_needed = 0, uses_anonymous_args = 0
 143              	.LVL4:
 144 0000 10B5     		push	{r4, lr}
 145              		.cfi_def_cfa_offset 8
 146              		.cfi_offset 4, -8
 147              		.cfi_offset 14, -4
 148              	.LBB18:
 149              		.loc 1 111 0
 150 0002 4023     		movs	r3, #64
 151              	.LBE18:
 152              		.loc 1 107 0
 153 0004 0446     		mov	r4, r0
 154              	.LBB19:
 155              		.loc 1 111 0
 156              		.syntax unified
 157              	@ 111 "../../os/hal/src/gpt.c" 1
 158 0006 83F31188 		msr     BASEPRI, r3
 159              	@ 0 "" 2
 160              		.thumb
 161              		.syntax unified
 162              	.LBE19:
 163              		.loc 1 114 0
 164 000a FFF7FEFF 		bl	gpt_lld_stop
 165              	.LVL5:
 166              		.loc 1 115 0
 167 000e 0122     		movs	r2, #1
 168              	.LBB20:
 169              		.loc 1 116 0
 170 0010 0023     		movs	r3, #0
 171              	.LBE20:
ARM GAS  /tmp/ccH5YtAd.s 			page 4


 172              		.loc 1 115 0
 173 0012 2270     		strb	r2, [r4]
 174              	.LBB21:
 175              		.loc 1 116 0
 176              		.syntax unified
 177              	@ 116 "../../os/hal/src/gpt.c" 1
 178 0014 83F31188 		msr     BASEPRI, r3
 179              	@ 0 "" 2
 180              		.thumb
 181              		.syntax unified
 182 0018 10BD     		pop	{r4, pc}
 183              	.LBE21:
 184              		.cfi_endproc
 185              	.LFE66:
 186              		.size	gptStop, .-gptStop
 187 001a 00BF     		.section	.text.gptChangeInterval,"ax",%progbits
 188              		.align	1
 189              		.p2align 2,,3
 190              		.global	gptChangeInterval
 191              		.syntax unified
 192              		.thumb
 193              		.thumb_func
 194              		.fpu softvfp
 195              		.type	gptChangeInterval, %function
 196              	gptChangeInterval:
 197              	.LFB67:
 198              		.loc 1 132 0
 199              		.cfi_startproc
 200              		@ args = 0, pretend = 0, frame = 0
 201              		@ frame_needed = 0, uses_anonymous_args = 0
 202              	.LVL6:
 203 0000 08B5     		push	{r3, lr}
 204              		.cfi_def_cfa_offset 8
 205              		.cfi_offset 3, -8
 206              		.cfi_offset 14, -4
 207              	.LBB22:
 208              		.loc 1 136 0
 209 0002 4023     		movs	r3, #64
 210              		.syntax unified
 211              	@ 136 "../../os/hal/src/gpt.c" 1
 212 0004 83F31188 		msr     BASEPRI, r3
 213              	@ 0 "" 2
 214              		.thumb
 215              		.syntax unified
 216              	.LBE22:
 217              	.LBB23:
 218              		.loc 1 139 0
 219 0008 FFF7FEFF 		bl	gpt_lld_change_interval
 220              	.LVL7:
 221              	.LBE23:
 222              	.LBB24:
 223              		.loc 1 140 0
 224 000c 0023     		movs	r3, #0
 225              		.syntax unified
 226              	@ 140 "../../os/hal/src/gpt.c" 1
 227 000e 83F31188 		msr     BASEPRI, r3
 228              	@ 0 "" 2
ARM GAS  /tmp/ccH5YtAd.s 			page 5


 229              		.thumb
 230              		.syntax unified
 231 0012 08BD     		pop	{r3, pc}
 232              	.LBE24:
 233              		.cfi_endproc
 234              	.LFE67:
 235              		.size	gptChangeInterval, .-gptChangeInterval
 236              		.section	.text.gptStartContinuous,"ax",%progbits
 237              		.align	1
 238              		.p2align 2,,3
 239              		.global	gptStartContinuous
 240              		.syntax unified
 241              		.thumb
 242              		.thumb_func
 243              		.fpu softvfp
 244              		.type	gptStartContinuous, %function
 245              	gptStartContinuous:
 246              	.LFB68:
 247              		.loc 1 151 0
 248              		.cfi_startproc
 249              		@ args = 0, pretend = 0, frame = 0
 250              		@ frame_needed = 0, uses_anonymous_args = 0
 251              	.LVL8:
 252 0000 08B5     		push	{r3, lr}
 253              		.cfi_def_cfa_offset 8
 254              		.cfi_offset 3, -8
 255              		.cfi_offset 14, -4
 256              	.LBB25:
 257              		.loc 1 153 0
 258 0002 4023     		movs	r3, #64
 259              		.syntax unified
 260              	@ 153 "../../os/hal/src/gpt.c" 1
 261 0004 83F31188 		msr     BASEPRI, r3
 262              	@ 0 "" 2
 263              	.LVL9:
 264              		.thumb
 265              		.syntax unified
 266              	.LBE25:
 267              	.LBB26:
 268              	.LBB27:
 269              		.loc 1 173 0
 270 0008 0323     		movs	r3, #3
 271 000a 0370     		strb	r3, [r0]
 272              		.loc 1 174 0
 273 000c FFF7FEFF 		bl	gpt_lld_start_timer
 274              	.LVL10:
 275              	.LBE27:
 276              	.LBE26:
 277              	.LBB28:
 278              		.loc 1 155 0
 279 0010 0023     		movs	r3, #0
 280              		.syntax unified
 281              	@ 155 "../../os/hal/src/gpt.c" 1
 282 0012 83F31188 		msr     BASEPRI, r3
 283              	@ 0 "" 2
 284              		.thumb
 285              		.syntax unified
ARM GAS  /tmp/ccH5YtAd.s 			page 6


 286 0016 08BD     		pop	{r3, pc}
 287              	.LBE28:
 288              		.cfi_endproc
 289              	.LFE68:
 290              		.size	gptStartContinuous, .-gptStartContinuous
 291              		.section	.text.gptStartContinuousI,"ax",%progbits
 292              		.align	1
 293              		.p2align 2,,3
 294              		.global	gptStartContinuousI
 295              		.syntax unified
 296              		.thumb
 297              		.thumb_func
 298              		.fpu softvfp
 299              		.type	gptStartContinuousI, %function
 300              	gptStartContinuousI:
 301              	.LFB69:
 302              		.loc 1 166 0
 303              		.cfi_startproc
 304              		@ args = 0, pretend = 0, frame = 0
 305              		@ frame_needed = 0, uses_anonymous_args = 0
 306              		@ link register save eliminated.
 307              	.LVL11:
 308              		.loc 1 173 0
 309 0000 0323     		movs	r3, #3
 310 0002 0370     		strb	r3, [r0]
 311              		.loc 1 174 0
 312 0004 FFF7FEBF 		b	gpt_lld_start_timer
 313              	.LVL12:
 314              		.cfi_endproc
 315              	.LFE69:
 316              		.size	gptStartContinuousI, .-gptStartContinuousI
 317              		.section	.text.gptStartOneShot,"ax",%progbits
 318              		.align	1
 319              		.p2align 2,,3
 320              		.global	gptStartOneShot
 321              		.syntax unified
 322              		.thumb
 323              		.thumb_func
 324              		.fpu softvfp
 325              		.type	gptStartOneShot, %function
 326              	gptStartOneShot:
 327              	.LFB70:
 328              		.loc 1 185 0
 329              		.cfi_startproc
 330              		@ args = 0, pretend = 0, frame = 0
 331              		@ frame_needed = 0, uses_anonymous_args = 0
 332              	.LVL13:
 333 0000 08B5     		push	{r3, lr}
 334              		.cfi_def_cfa_offset 8
 335              		.cfi_offset 3, -8
 336              		.cfi_offset 14, -4
 337              	.LBB29:
 338              		.loc 1 187 0
 339 0002 4023     		movs	r3, #64
 340              		.syntax unified
 341              	@ 187 "../../os/hal/src/gpt.c" 1
 342 0004 83F31188 		msr     BASEPRI, r3
ARM GAS  /tmp/ccH5YtAd.s 			page 7


 343              	@ 0 "" 2
 344              	.LVL14:
 345              		.thumb
 346              		.syntax unified
 347              	.LBE29:
 348              	.LBB30:
 349              	.LBB31:
 350              		.loc 1 207 0
 351 0008 0423     		movs	r3, #4
 352 000a 0370     		strb	r3, [r0]
 353              		.loc 1 208 0
 354 000c FFF7FEFF 		bl	gpt_lld_start_timer
 355              	.LVL15:
 356              	.LBE31:
 357              	.LBE30:
 358              	.LBB32:
 359              		.loc 1 189 0
 360 0010 0023     		movs	r3, #0
 361              		.syntax unified
 362              	@ 189 "../../os/hal/src/gpt.c" 1
 363 0012 83F31188 		msr     BASEPRI, r3
 364              	@ 0 "" 2
 365              		.thumb
 366              		.syntax unified
 367 0016 08BD     		pop	{r3, pc}
 368              	.LBE32:
 369              		.cfi_endproc
 370              	.LFE70:
 371              		.size	gptStartOneShot, .-gptStartOneShot
 372              		.section	.text.gptStartOneShotI,"ax",%progbits
 373              		.align	1
 374              		.p2align 2,,3
 375              		.global	gptStartOneShotI
 376              		.syntax unified
 377              		.thumb
 378              		.thumb_func
 379              		.fpu softvfp
 380              		.type	gptStartOneShotI, %function
 381              	gptStartOneShotI:
 382              	.LFB71:
 383              		.loc 1 200 0
 384              		.cfi_startproc
 385              		@ args = 0, pretend = 0, frame = 0
 386              		@ frame_needed = 0, uses_anonymous_args = 0
 387              		@ link register save eliminated.
 388              	.LVL16:
 389              		.loc 1 207 0
 390 0000 0423     		movs	r3, #4
 391 0002 0370     		strb	r3, [r0]
 392              		.loc 1 208 0
 393 0004 FFF7FEBF 		b	gpt_lld_start_timer
 394              	.LVL17:
 395              		.cfi_endproc
 396              	.LFE71:
 397              		.size	gptStartOneShotI, .-gptStartOneShotI
 398              		.section	.text.gptStopTimer,"ax",%progbits
 399              		.align	1
ARM GAS  /tmp/ccH5YtAd.s 			page 8


 400              		.p2align 2,,3
 401              		.global	gptStopTimer
 402              		.syntax unified
 403              		.thumb
 404              		.thumb_func
 405              		.fpu softvfp
 406              		.type	gptStopTimer, %function
 407              	gptStopTimer:
 408              	.LFB72:
 409              		.loc 1 218 0
 410              		.cfi_startproc
 411              		@ args = 0, pretend = 0, frame = 0
 412              		@ frame_needed = 0, uses_anonymous_args = 0
 413              	.LVL18:
 414 0000 08B5     		push	{r3, lr}
 415              		.cfi_def_cfa_offset 8
 416              		.cfi_offset 3, -8
 417              		.cfi_offset 14, -4
 418              	.LBB33:
 419              		.loc 1 220 0
 420 0002 4023     		movs	r3, #64
 421              		.syntax unified
 422              	@ 220 "../../os/hal/src/gpt.c" 1
 423 0004 83F31188 		msr     BASEPRI, r3
 424              	@ 0 "" 2
 425              	.LVL19:
 426              		.thumb
 427              		.syntax unified
 428              	.LBE33:
 429              	.LBB34:
 430              	.LBB35:
 431              		.loc 1 240 0
 432 0008 0223     		movs	r3, #2
 433 000a 0370     		strb	r3, [r0]
 434              		.loc 1 241 0
 435 000c FFF7FEFF 		bl	gpt_lld_stop_timer
 436              	.LVL20:
 437              	.LBE35:
 438              	.LBE34:
 439              	.LBB36:
 440              		.loc 1 222 0
 441 0010 0023     		movs	r3, #0
 442              		.syntax unified
 443              	@ 222 "../../os/hal/src/gpt.c" 1
 444 0012 83F31188 		msr     BASEPRI, r3
 445              	@ 0 "" 2
 446              		.thumb
 447              		.syntax unified
 448 0016 08BD     		pop	{r3, pc}
 449              	.LBE36:
 450              		.cfi_endproc
 451              	.LFE72:
 452              		.size	gptStopTimer, .-gptStopTimer
 453              		.section	.text.gptStopTimerI,"ax",%progbits
 454              		.align	1
 455              		.p2align 2,,3
 456              		.global	gptStopTimerI
ARM GAS  /tmp/ccH5YtAd.s 			page 9


 457              		.syntax unified
 458              		.thumb
 459              		.thumb_func
 460              		.fpu softvfp
 461              		.type	gptStopTimerI, %function
 462              	gptStopTimerI:
 463              	.LFB73:
 464              		.loc 1 232 0
 465              		.cfi_startproc
 466              		@ args = 0, pretend = 0, frame = 0
 467              		@ frame_needed = 0, uses_anonymous_args = 0
 468              		@ link register save eliminated.
 469              	.LVL21:
 470              		.loc 1 240 0
 471 0000 0223     		movs	r3, #2
 472 0002 0370     		strb	r3, [r0]
 473              		.loc 1 241 0
 474 0004 FFF7FEBF 		b	gpt_lld_stop_timer
 475              	.LVL22:
 476              		.cfi_endproc
 477              	.LFE73:
 478              		.size	gptStopTimerI, .-gptStopTimerI
 479              		.section	.text.gptPolledDelay,"ax",%progbits
 480              		.align	1
 481              		.p2align 2,,3
 482              		.global	gptPolledDelay
 483              		.syntax unified
 484              		.thumb
 485              		.thumb_func
 486              		.fpu softvfp
 487              		.type	gptPolledDelay, %function
 488              	gptPolledDelay:
 489              	.LFB74:
 490              		.loc 1 256 0
 491              		.cfi_startproc
 492              		@ args = 0, pretend = 0, frame = 0
 493              		@ frame_needed = 0, uses_anonymous_args = 0
 494              	.LVL23:
 495              		.loc 1 261 0
 496 0000 0423     		movs	r3, #4
 497              		.loc 1 256 0
 498 0002 10B5     		push	{r4, lr}
 499              		.cfi_def_cfa_offset 8
 500              		.cfi_offset 4, -8
 501              		.cfi_offset 14, -4
 502              		.loc 1 261 0
 503 0004 0370     		strb	r3, [r0]
 504              		.loc 1 256 0
 505 0006 0446     		mov	r4, r0
 506              		.loc 1 262 0
 507 0008 FFF7FEFF 		bl	gpt_lld_polled_delay
 508              	.LVL24:
 509              		.loc 1 263 0
 510 000c 0223     		movs	r3, #2
 511 000e 2370     		strb	r3, [r4]
 512 0010 10BD     		pop	{r4, pc}
 513              		.cfi_endproc
ARM GAS  /tmp/ccH5YtAd.s 			page 10


 514              	.LFE74:
 515              		.size	gptPolledDelay, .-gptPolledDelay
 516 0012 00BF     		.text
 517              	.Letext0:
 518              		.file 2 "/usr/lib/gcc/arm-none-eabi/6.3.1/include/stddef.h"
 519              		.file 3 "/usr/include/newlib/machine/_default_types.h"
 520              		.file 4 "/usr/include/newlib/sys/_stdint.h"
 521              		.file 5 "../../os/ports/GCC/ARMCMx/chtypes.h"
 522              		.file 6 "../../os/kernel/include/chlists.h"
 523              		.file 7 "../../os/kernel/include/chthreads.h"
 524              		.file 8 "../../os/ports/GCC/ARMCMx/chcore_v7m.h"
 525              		.file 9 "../../os/kernel/include/chvt.h"
 526              		.file 10 "../../os/kernel/include/chschd.h"
 527              		.file 11 "../../os/kernel/include/chmtx.h"
 528              		.file 12 "../../os/kernel/include/chevents.h"
 529              		.file 13 "../../os/kernel/include/chregistry.h"
 530              		.file 14 "../../os/kernel/include/chqueues.h"
 531              		.file 15 "../../os/kernel/include/ch.h"
 532              		.file 16 "../../os/ports/common/ARMCMx/CMSIS/include/core_cm3.h"
 533              		.file 17 "../../os/hal/platforms/LPC17xx/system_LPC17xx.h"
 534              		.file 18 "../../os/hal/platforms/LPC17xx/LPC17xx.h"
 535              		.file 19 "../../os/hal/platforms/LPC17xx/lpc17xx_dma.h"
 536              		.file 20 "../../os/hal/platforms/LPC17xx/pal_lld.h"
 537              		.file 21 "../../os/hal/include/gpt.h"
 538              		.file 22 "../../os/hal/platforms/LPC17xx/gpt_lld.h"
 539              		.file 23 "../../os/hal/include/serial.h"
 540              		.file 24 "../../os/hal/platforms/LPC17xx/serial_lld.h"