ARM GAS  /tmp/ccH5YtAd.s 			page 1


   1              		.cpu cortex-m3
   2              		.eabi_attribute 20, 1
   3              		.eabi_attribute 21, 1
   4              		.eabi_attribute 23, 3
   5              		.eabi_attribute 24, 1
   6              		.eabi_attribute 25, 1
   7              		.eabi_attribute 26, 1
   8              		.eabi_attribute 30, 2
   9              		.eabi_attribute 34, 1
  10              		.eabi_attribute 18, 4
  11              		.file	"gpt.c"
  12              		.text
  13              	.Ltext0:
  14              		.cfi_sections	.debug_frame
  15              		.section	.text.gptInit,"ax",%progbits
  16              		.align	1
  17              		.p2align 2,,3
  18              		.global	gptInit
  19              		.syntax unified
  20              		.thumb
  21              		.thumb_func
  22              		.fpu softvfp
  23              		.type	gptInit, %function
  24              	gptInit:
  25              	.LFB63:
  26              		.file 1 "../../os/hal/src/gpt.c"
  27              		.loc 1 61 0
  28              		.cfi_startproc
  29              		@ args = 0, pretend = 0, frame = 0
  30              		@ frame_needed = 0, uses_anonymous_args = 0
  31              		@ link register save eliminated.
  32              		.loc 1 63 0
  33 0000 FFF7FEBF 		b	gpt_lld_init
  34              	.LVL0:
  35              		.cfi_endproc
  36              	.LFE63:
  37              		.size	gptInit, .-gptInit
  38              		.section	.text.gptObjectInit,"ax",%progbits
  39              		.align	1
  40              		.p2align 2,,3
  41              		.global	gptObjectInit
  42              		.syntax unified
  43              		.thumb
  44              		.thumb_func
  45              		.fpu softvfp
  46              		.type	gptObjectInit, %function
  47              	gptObjectInit:
  48              	.LFB64:
  49              		.loc 1 73 0
  50              		.cfi_startproc
  51              		@ args = 0, pretend = 0, frame = 0
  52              		@ frame_needed = 0, uses_anonymous_args = 0
  53              		@ link register save eliminated.
  54              	.LVL1:
  55              		.loc 1 75 0
  56 0000 0122     		movs	r2, #1
  57              		.loc 1 76 0
ARM GAS  /tmp/ccH5YtAd.s 			page 2


  58 0002 0023     		movs	r3, #0
  59              		.loc 1 75 0
  60 0004 0270     		strb	r2, [r0]
  61              		.loc 1 76 0
  62 0006 4360     		str	r3, [r0, #4]
  63 0008 7047     		bx	lr
  64              		.cfi_endproc
  65              	.LFE64:
  66              		.size	gptObjectInit, .-gptObjectInit
  67 000a 00BF     		.section	.text.gptStart,"ax",%progbits
  68              		.align	1
  69              		.p2align 2,,3
  70              		.global	gptStart
  71              		.syntax unified
  72              		.thumb
  73              		.thumb_func
  74              		.fpu softvfp
  75              		.type	gptStart, %function
  76              	gptStart:
  77              	.LFB65:
  78              		.loc 1 87 0
  79              		.cfi_startproc
  80              		@ args = 0, pretend = 0, frame = 0
  81              		@ frame_needed = 0, uses_anonymous_args = 0
  82              	.LVL2:
  83 0000 10B5     		push	{r4, lr}
  84              		.cfi_def_cfa_offset 8
  85              		.cfi_offset 4, -8
  86              		.cfi_offset 14, -4
  87              	.LBB14:
  88              		.loc 1 91 0
  89 0002 4023     		movs	r3, #64
  90              	.LBE14:
  91              		.loc 1 87 0
  92 0004 0446     		mov	r4, r0
  93              	.LBB15:
  94              		.loc 1 91 0
  95              		.syntax unified
  96              	@ 91 "../../os/hal/src/gpt.c" 1
  97 0006 83F31188 		msr     BASEPRI, r3
  98              	@ 0 "" 2
  99              		.thumb
 100              		.syntax unified
 101              	.LBE15:
 102              		.loc 1 94 0
 103 000a 4160     		str	r1, [r0, #4]
 104              		.loc 1 95 0
 105 000c FFF7FEFF 		bl	gpt_lld_start
 106              	.LVL3:
 107              		.loc 1 96 0
 108 0010 0222     		movs	r2, #2
 109              	.LBB16:
 110              		.loc 1 97 0
 111 0012 0023     		movs	r3, #0
 112              	.LBE16:
 113              		.loc 1 96 0
 114 0014 2270     		strb	r2, [r4]
ARM GAS  /tmp/ccH5YtAd.s 			page 3


 115              	.LBB17:
 116              		.loc 1 97 0
 117              		.syntax unified
 118              	@ 97 "../../os/hal/src/gpt.c" 1
 119 0016 83F31188 		msr     BASEPRI, r3
 120              	@ 0 "" 2
 121              		.thumb
 122              		.syntax unified
 123 001a 10BD     		pop	{r4, pc}
 124              	.LBE17:
 125              		.cfi_endproc
 126              	.LFE65:
 127              		.size	gptStart, .-gptStart
 128              		.section	.text.gptStop,"ax",%progbits
 129              		.align	1
 130              		.p2align 2,,3
 131              		.global	gptStop
 132              		.syntax unified
 133              		.thumb
 134              		.thumb_func
 135              		.fpu softvfp
 136              		.type	gptStop, %function
 137              	gptStop:
 138              	.LFB66:
 139              		.loc 1 107 0
 140              		.cfi_startproc
 141              		@ args = 0, pretend = 0, frame = 0
 142              		@ frame_needed = 0, uses_anonymous_args = 0
 143              	.LVL4:
 144 0000 10B5     		push	{r4, lr}
 145              		.cfi_def_cfa_offset 8
 146              		.cfi_offset 4, -8
 147              		.cfi_offset 14, -4
 148              	.LBB18:
 149              		.loc 1 111 0
 150 0002 4023     		movs	r3, #64
 151              	.LBE18:
 152              		.loc 1 107 0
 153 0004 0446     		mov	r4, r0
 154              	.LBB19:
 155              		.loc 1 111 0
 156              		.syntax unified
 157              	@ 111 "../../os/hal/src/gpt.c" 1
 158 0006 83F31188 		msr     BASEPRI, r3
 159              	@ 0 "" 2
 160              		.thumb
 161              		.syntax unified
 162              	.LBE19:
 163              		.loc 1 114 0
 164 000a FFF7FEFF 		bl	gpt_lld_stop
 165              	.LVL5:
 166              		.loc 1 115 0
 167 000e 0122     		movs	r2, #1
 168              	.LBB20:
 169              		.loc 1 116 0
 170 0010 0023     		movs	r3, #0
 171              	.LBE20:
ARM GAS  /tmp/ccH5YtAd.s 			page 4


 172              		.loc 1 115 0
 173 0012 2270     		strb	r2, [r4]
 174              	.LBB21:
 175              		.loc 1 116 0
 176              		.syntax unified
 177              	@ 116 "../../os/hal/src/gpt.c" 1
 178 0014 83F31188 		msr     BASEPRI, r3
 179              	@ 0 "" 2
 180              		.thumb
 181              		.syntax unified
 182 0018 10BD     		pop	{r4, pc}
 183              	.LBE21:
 184              		.cfi_endproc
 185              	.LFE66:
 186              		.size	gptStop, .-gptStop
 187 001a 00BF     		.section	.text.gptChangeInterval,"ax",%progbits
 188              		.align	1
 189              		.p2align 2,,3
 190              		.global	gptChangeInterval
 191              		.syntax unified
 192              		.thumb
 193              		.thumb_func
 194              		.fpu softvfp
 195              		.type	gptChangeInterval, %function
 196              	gptChangeInterval:
 197              	.LFB67:
 198              		.loc 1 132 0
 199              		.cfi_startproc
 200              		@ args = 0, pretend = 0, frame = 0
 201              		@ frame_needed = 0, uses_anonymous_args = 0
 202              	.LVL6:
 203 0000 08B5     		push	{r3, lr}
 204              		.cfi_def_cfa_offset 8
 205              		.cfi_offset 3, -8
 206              		.cfi_offset 14, -4
 207              	.LBB22:
 208              		.loc 1 136 0
 209 0002 4023     		movs	r3, #64
 210              		.syntax unified
 211              	@ 136 "../../os/hal/src/gpt.c" 1
 212 0004 83F31188 		msr     BASEPRI, r3
 213              	@ 0 "" 2
 214              		.thumb
 215              		.syntax unified
 216              	.LBE22:
 217              	.LBB23:
 218              		.loc 1 139 0
 219 0008 FFF7FEFF 		bl	gpt_lld_change_interval
 220              	.LVL7:
 221              	.LBE23:
 222              	.LBB24:
 223              		.loc 1 140 0
 224 000c 0023     		movs	r3, #0
 225              		.syntax unified
 226              	@ 140 "../../os/hal/src/gpt.c" 1
 227 000e 83F31188 		msr     BASEPRI, r3
 228              	@ 0 "" 2
ARM GAS  /tmp/ccH5YtAd.s 			page 5


 229              		.thumb
 230              		.syntax unified
 231 0012 08BD     		pop	{r3, pc}
 232              	.LBE24:
 233              		.cfi_endproc
 234              	.LFE67:
 235              		.size	gptChangeInterval, .-gptChangeInterval
 236              		.section	.text.gptStartContinuous,"ax",%progbits
 237              		.align	1
 238              		.p2align 2,,3
 239              		.global	gptStartContinuous
 240              		.syntax unified
 241              		.thumb
 242              		.thumb_func
 243              		.fpu softvfp
 244              		.type	gptStartContinuous, %function
 245              	gptStartContinuous:
 246              	.LFB68:
 247              		.loc 1 151 0
 248              		.cfi_startproc
 249              		@ args = 0, pretend = 0, frame = 0
 250              		@ frame_needed = 0, uses_anonymous_args = 0
 251              	.LVL8:
 252 0000 08B5     		push	{r3, lr}
 253              		.cfi_def_cfa_offset 8
 254              		.cfi_offset 3, -8
 255              		.cfi_offset 14, -4
 256              	.LBB25:
 257              		.loc 1 153 0
 258 0002 4023     		movs	r3, #64
 259              		.syntax unified
 260              	@ 153 "../../os/hal/src/gpt.c" 1
 261 0004 83F31188 		msr     BASEPRI, r3
 262              	@ 0 "" 2
 263              	.LVL9:
 264              		.thumb
 265              		.syntax unified
 266              	.LBE25:
 267              	.LBB26:
 268              	.LBB27:
 269              		.loc 1 173 0
 270 0008 0323     		movs	r3, #3
 271 000a 0370     		strb	r3, [r0]
 272              		.loc 1 174 0
 273 000c FFF7FEFF 		bl	gpt_lld_start_timer
 274              	.LVL10:
 275              	.LBE27:
 276              	.LBE26:
 277              	.LBB28:
 278              		.loc 1 155 0
 279 0010 0023     		movs	r3, #0
 280              		.syntax unified
 281              	@ 155 "../../os/hal/src/gpt.c" 1
 282 0012 83F31188 		msr     BASEPRI, r3
 283              	@ 0 "" 2
 284              		.thumb
 285              		.syntax unified
ARM GAS  /tmp/ccH5YtAd.s 			page 6


 286 0016 08BD     		pop	{r3, pc}
 287              	.LBE28:
 288              		.cfi_endproc
 289              	.LFE68:
 290              		.size	gptStartContinuous, .-gptStartContinuous
 291              		.section	.text.gptStartContinuousI,"ax",%progbits
 292              		.align	1
 293              		.p2align 2,,3
 294              		.global	gptStartContinuousI
 295              		.syntax unified
 296              		.thumb
 297              		.thumb_func
 298              		.fpu softvfp
 299              		.type	gptStartContinuousI, %function
 300              	gptStartContinuousI:
 301              	.LFB69:
 302              		.loc 1 166 0
 303              		.cfi_startproc
 304              		@ args = 0, pretend = 0, frame = 0
 305              		@ frame_needed = 0, uses_anonymous_args = 0
 306              		@ link register save eliminated.
 307              	.LVL11:
 308              		.loc 1 173 0
 309 0000 0323     		movs	r3, #3
 310 0002 0370     		strb	r3, [r0]
 311              		.loc 1 174 0
 312 0004 FFF7FEBF 		b	gpt_lld_start_timer
 313              	.LVL12:
 314              		.cfi_endproc
 315              	.LFE69:
 316              		.size	gptStartContinuousI, .-gptStartContinuousI
 317              		.section	.text.gptStartOneShot,"ax",%progbits
 318              		.align	1
 319              		.p2align 2,,3
 320              		.global	gptStartOneShot
 321              		.syntax unified
 322              		.thumb
 323              		.thumb_func
 324              		.fpu softvfp
 325              		.type	gptStartOneShot, %function
 326              	gptStartOneShot:
 327              	.LFB70:
 328              		.loc 1 185 0
 329              		.cfi_startproc
 330              		@ args = 0, pretend = 0, frame = 0
 331              		@ frame_needed = 0, uses_anonymous_args = 0
 332              	.LVL13:
 333 0000 08B5     		push	{r3, lr}
 334              		.cfi_def_cfa_offset 8
 335              		.cfi_offset 3, -8
 336              		.cfi_offset 14, -4
 337              	.LBB29:
 338              		.loc 1 187 0
 339 0002 4023     		movs	r3, #64
 340              		.syntax unified
 341              	@ 187 "../../os/hal/src/gpt.c" 1
 342 0004 83F31188 		msr     BASEPRI, r3
ARM GAS  /tmp/ccH5YtAd.s 			page 7


 343              	@ 0 "" 2
 344              	.LVL14:
 345              		.thumb
 346              		.syntax unified
 347              	.LBE29:
 348              	.LBB30:
 349              	.LBB31:
 350              		.loc 1 207 0
 351 0008 0423     		movs	r3, #4
 352 000a 0370     		strb	r3, [r0]
 353              		.loc 1 208 0
 354 000c FFF7FEFF 		bl	gpt_lld_start_timer
 355              	.LVL15:
 356              	.LBE31:
 357              	.LBE30:
 358              	.LBB32:
 359              		.loc 1 189 0
 360 0010 0023     		movs	r3, #0
 361              		.syntax unified
 362              	@ 189 "../../os/hal/src/gpt.c" 1
 363 0012 83F31188 		msr     BASEPRI, r3
 364              	@ 0 "" 2
 365              		.thumb
 366              		.syntax unified
 367 0016 08BD     		pop	{r3, pc}
 368              	.LBE32:
 369              		.cfi_endproc
 370              	.LFE70:
 371              		.size	gptStartOneShot, .-gptStartOneShot
 372              		.section	.text.gptStartOneShotI,"ax",%progbits
 373              		.align	1
 374              		.p2align 2,,3
 375              		.global	gptStartOneShotI
 376              		.syntax unified
 377              		.thumb
 378              		.thumb_func
 379              		.fpu softvfp
 380              		.type	gptStartOneShotI, %function
 381              	gptStartOneShotI:
 382              	.LFB71:
 383              		.loc 1 200 0
 384              		.cfi_startproc
 385              		@ args = 0, pretend = 0, frame = 0
 386              		@ frame_needed = 0, uses_anonymous_args = 0
 387              		@ link register save eliminated.
 388              	.LVL16:
 389              		.loc 1 207 0
 390 0000 0423     		movs	r3, #4
 391 0002 0370     		strb	r3, [r0]
 392              		.loc 1 208 0
 393 0004 FFF7FEBF 		b	gpt_lld_start_timer
 394              	.LVL17:
 395              		.cfi_endproc
 396              	.LFE71:
 397              		.size	gptStartOneShotI, .-gptStartOneShotI
 398              		.section	.text.gptStopTimer,"ax",%progbits
 399              		.align	1
ARM GAS  /tmp/ccH5YtAd.s 			page 8


 400              		.p2align 2,,3
 401              		.global	gptStopTimer
 402              		.syntax unified
 403              		.thumb
 404              		.thumb_func
 405              		.fpu softvfp
 406              		.type	gptStopTimer, %function
 407              	gptStopTimer:
 408              	.LFB72:
 409              		.loc 1 218 0
 410              		.cfi_startproc
 411              		@ args = 0, pretend = 0, frame = 0
 412              		@ frame_needed = 0, uses_anonymous_args = 0
 413              	.LVL18:
 414 0000 08B5     		push	{r3, lr}
 415              		.cfi_def_cfa_offset 8
 416              		.cfi_offset 3, -8
 417              		.cfi_offset 14, -4
 418              	.LBB33:
 419              		.loc 1 220 0
 420 0002 4023     		movs	r3, #64
 421              		.syntax unified
 422              	@ 220 "../../os/hal/src/gpt.c" 1
 423 0004 83F31188 		msr     BASEPRI, r3
 424              	@ 0 "" 2
 425              	.LVL19:
 426              		.thumb
 427              		.syntax unified
 428              	.LBE33:
 429              	.LBB34:
 430              	.LBB35:
 431              		.loc 1 240 0
 432 0008 0223     		movs	r3, #2
 433 000a 0370     		strb	r3, [r0]
 434              		.loc 1 241 0
 435 000c FFF7FEFF 		bl	gpt_lld_stop_timer
 436              	.LVL20:
 437              	.LBE35:
 438              	.LBE34:
 439              	.LBB36:
 440              		.loc 1 222 0
 441 0010 0023     		movs	r3, #0
 442              		.syntax unified
 443              	@ 222 "../../os/hal/src/gpt.c" 1
 444 0012 83F31188 		msr     BASEPRI, r3
 445              	@ 0 "" 2
 446              		.thumb
 447              		.syntax unified
 448 0016 08BD     		pop	{r3, pc}
 449              	.LBE36:
 450              		.cfi_endproc
 451              	.LFE72:
 452              		.size	gptStopTimer, .-gptStopTimer
 453              		.section	.text.gptStopTimerI,"ax",%progbits
 454              		.align	1
 455              		.p2align 2,,3
 456              		.global	gptStopTimerI
ARM GAS  /tmp/ccH5YtAd.s 			page 9


 457              		.syntax unified
 458              		.thumb
 459              		.thumb_func
 460              		.fpu softvfp
 461              		.type	gptStopTimerI, %function
 462              	gptStopTimerI:
 463              	.LFB73:
 464              		.loc 1 232 0
 465              		.cfi_startproc
 466              		@ args = 0, pretend = 0, frame = 0
 467              		@ frame_needed = 0, uses_anonymous_args = 0
 468              		@ link register save eliminated.
 469              	.LVL21:
 470              		.loc 1 240 0
 471 0000 0223     		movs	r3, #2
 472 0002 0370     		strb	r3, [r0]
 473              		.loc 1 241 0
 474 0004 FFF7FEBF 		b	gpt_lld_stop_timer
 475              	.LVL22:
 476              		.cfi_endproc
 477              	.LFE73:
 478              		.size	gptStopTimerI, .-gptStopTimerI
 479              		.section	.text.gptPolledDelay,"ax",%progbits
 480              		.align	1
 481              		.p2align 2,,3
 482              		.global	gptPolledDelay
 483              		.syntax unified
 484              		.thumb
 485              		.thumb_func
 486              		.fpu softvfp
 487              		.type	gptPolledDelay, %function
 488              	gptPolledDelay:
 489              	.LFB74:
 490              		.loc 1 256 0
 491              		.cfi_startproc
 492              		@ args = 0, pretend = 0, frame = 0
 493              		@ frame_needed = 0, uses_anonymous_args = 0
 494              	.LVL23:
 495              		.loc 1 261 0
 496 0000 0423     		movs	r3, #4
 497              		.loc 1 256 0
 498 0002 10B5     		push	{r4, lr}
 499              		.cfi_def_cfa_offset 8
 500              		.cfi_offset 4, -8
 501              		.cfi_offset 14, -4
 502              		.loc 1 261 0
 503 0004 0370     		strb	r3, [r0]
 504              		.loc 1 256 0
 505 0006 0446     		mov	r4, r0
 506              		.loc 1 262 0
 507 0008 FFF7FEFF 		bl	gpt_lld_polled_delay
 508              	.LVL24:
 509              		.loc 1 263 0
 510 000c 0223     		movs	r3, #2
 511 000e 2370     		strb	r3, [r4]
 512 0010 10BD     		pop	{r4, pc}
 513              		.cfi_endproc
ARM GAS  /tmp/ccH5YtAd.s 			page 10


 514              	.LFE74:
 515              		.size	gptPolledDelay, .-gptPolledDelay
 516 0012 00BF     		.text
 517              	.Letext0:
 518              		.file 2 "/usr/lib/gcc/arm-none-eabi/6.3.1/include/stddef.h"
 519              		.file 3 "/usr/include/newlib/machine/_default_types.h"
 520              		.file 4 "/usr/include/newlib/sys/_stdint.h"
 521              		.file 5 "../../os/ports/GCC/ARMCMx/chtypes.h"
 522              		.file 6 "../../os/kernel/include/chlists.h"
 523              		.file 7 "../../os/kernel/include/chthreads.h"
 524              		.file 8 "../../os/ports/GCC/ARMCMx/chcore_v7m.h"
 525              		.file 9 "../../os/kernel/include/chvt.h"
 526              		.file 10 "../../os/kernel/include/chschd.h"
 527              		.file 11 "../../os/kernel/include/chmtx.h"
 528              		.file 12 "../../os/kernel/include/chevents.h"
 529              		.file 13 "../../os/kernel/include/chregistry.h"
 530              		.file 14 "../../os/kernel/include/chqueues.h"
 531              		.file 15 "../../os/kernel/include/ch.h"
 532              		.file 16 "../../os/ports/common/ARMCMx/CMSIS/include/core_cm3.h"
 533              		.file 17 "../../os/hal/platforms/LPC17xx/system_LPC17xx.h"
 534              		.file 18 "../../os/hal/platforms/LPC17xx/LPC17xx.h"
 535              		.file 19 "../../os/hal/platforms/LPC17xx/lpc17xx_dma.h"
 536              		.file 20 "../../os/hal/platforms/LPC17xx/pal_lld.h"
 537              		.file 21 "../../os/hal/include/gpt.h"
 538              		.file 22 "../../os/hal/platforms/LPC17xx/gpt_lld.h"
 539              		.file 23 "../../os/hal/include/serial.h"
 540              		.file 24 "../../os/hal/platforms/LPC17xx/serial_lld.h"
 541              		.section	.debug_info,"",%progbits
 542              	.Ldebug_info0:
 543 0000 44130000 		.4byte	0x1344
 544 0004 0400     		.2byte	0x4
 545 0006 00000000 		.4byte	.Ldebug_abbrev0
 546 000a 04       		.byte	0x4
 547 000b 01       		.uleb128 0x1
 548 000c 38050000 		.4byte	.LASF201
 549 0010 0C       		.byte	0xc
 550 0011 D4010000 		.4byte	.LASF202
 551 0015 3E060000 		.4byte	.LASF203
 552 0019 60000000 		.4byte	.Ldebug_ranges0+0x60
 553 001d 00000000 		.4byte	0
 554 0021 00000000 		.4byte	.Ldebug_line0
 555 0025 02       		.uleb128 0x2
 556 0026 04       		.byte	0x4
 557 0027 05       		.byte	0x5
 558 0028 696E7400 		.ascii	"int\000"
 559 002c 03       		.uleb128 0x3
 560 002d 00000000 		.4byte	.LASF4
 561 0031 02       		.byte	0x2
 562 0032 D8       		.byte	0xd8
 563 0033 37000000 		.4byte	0x37
 564 0037 04       		.uleb128 0x4
 565 0038 04       		.byte	0x4
 566 0039 07       		.byte	0x7
 567 003a 00050000 		.4byte	.LASF0
 568 003e 04       		.uleb128 0x4
 569 003f 08       		.byte	0x8
 570 0040 05       		.byte	0x5
ARM GAS  /tmp/ccH5YtAd.s 			page 11


 571 0041 4C040000 		.4byte	.LASF1
 572 0045 04       		.uleb128 0x4
 573 0046 08       		.byte	0x8
 574 0047 04       		.byte	0x4
 575 0048 06060000 		.4byte	.LASF2
 576 004c 04       		.uleb128 0x4
 577 004d 01       		.byte	0x1
 578 004e 06       		.byte	0x6
 579 004f 26020000 		.4byte	.LASF3
 580 0053 03       		.uleb128 0x3
 581 0054 26010000 		.4byte	.LASF5
 582 0058 03       		.byte	0x3
 583 0059 1D       		.byte	0x1d
 584 005a 5E000000 		.4byte	0x5e
 585 005e 04       		.uleb128 0x4
 586 005f 01       		.byte	0x1
 587 0060 08       		.byte	0x8
 588 0061 6C020000 		.4byte	.LASF6
 589 0065 04       		.uleb128 0x4
 590 0066 02       		.byte	0x2
 591 0067 05       		.byte	0x5
 592 0068 89070000 		.4byte	.LASF7
 593 006c 03       		.uleb128 0x3
 594 006d C2020000 		.4byte	.LASF8
 595 0071 03       		.byte	0x3
 596 0072 2B       		.byte	0x2b
 597 0073 77000000 		.4byte	0x77
 598 0077 04       		.uleb128 0x4
 599 0078 02       		.byte	0x2
 600 0079 07       		.byte	0x7
 601 007a 6C080000 		.4byte	.LASF9
 602 007e 03       		.uleb128 0x3
 603 007f 9C080000 		.4byte	.LASF10
 604 0083 03       		.byte	0x3
 605 0084 3F       		.byte	0x3f
 606 0085 89000000 		.4byte	0x89
 607 0089 04       		.uleb128 0x4
 608 008a 04       		.byte	0x4
 609 008b 05       		.byte	0x5
 610 008c 87010000 		.4byte	.LASF11
 611 0090 03       		.uleb128 0x3
 612 0091 3B040000 		.4byte	.LASF12
 613 0095 03       		.byte	0x3
 614 0096 41       		.byte	0x41
 615 0097 9B000000 		.4byte	0x9b
 616 009b 04       		.uleb128 0x4
 617 009c 04       		.byte	0x4
 618 009d 07       		.byte	0x7
 619 009e 8E030000 		.4byte	.LASF13
 620 00a2 03       		.uleb128 0x3
 621 00a3 83030000 		.4byte	.LASF14
 622 00a7 03       		.byte	0x3
 623 00a8 5B       		.byte	0x5b
 624 00a9 AD000000 		.4byte	0xad
 625 00ad 04       		.uleb128 0x4
 626 00ae 08       		.byte	0x8
 627 00af 07       		.byte	0x7
ARM GAS  /tmp/ccH5YtAd.s 			page 12


 628 00b0 84060000 		.4byte	.LASF15
 629 00b4 03       		.uleb128 0x3
 630 00b5 3C020000 		.4byte	.LASF16
 631 00b9 04       		.byte	0x4
 632 00ba 18       		.byte	0x18
 633 00bb 53000000 		.4byte	0x53
 634 00bf 05       		.uleb128 0x5
 635 00c0 B4000000 		.4byte	0xb4
 636 00c4 03       		.uleb128 0x3
 637 00c5 A3060000 		.4byte	.LASF17
 638 00c9 04       		.byte	0x4
 639 00ca 24       		.byte	0x24
 640 00cb 6C000000 		.4byte	0x6c
 641 00cf 03       		.uleb128 0x3
 642 00d0 64000000 		.4byte	.LASF18
 643 00d4 04       		.byte	0x4
 644 00d5 2C       		.byte	0x2c
 645 00d6 7E000000 		.4byte	0x7e
 646 00da 06       		.uleb128 0x6
 647 00db CF000000 		.4byte	0xcf
 648 00df 03       		.uleb128 0x3
 649 00e0 39080000 		.4byte	.LASF19
 650 00e4 04       		.byte	0x4
 651 00e5 30       		.byte	0x30
 652 00e6 90000000 		.4byte	0x90
 653 00ea 06       		.uleb128 0x6
 654 00eb DF000000 		.4byte	0xdf
 655 00ef 05       		.uleb128 0x5
 656 00f0 EA000000 		.4byte	0xea
 657 00f4 03       		.uleb128 0x3
 658 00f5 93070000 		.4byte	.LASF20
 659 00f9 04       		.byte	0x4
 660 00fa 3C       		.byte	0x3c
 661 00fb A2000000 		.4byte	0xa2
 662 00ff 04       		.uleb128 0x4
 663 0100 01       		.byte	0x1
 664 0101 02       		.byte	0x2
 665 0102 9B020000 		.4byte	.LASF21
 666 0106 03       		.uleb128 0x3
 667 0107 41070000 		.4byte	.LASF22
 668 010b 05       		.byte	0x5
 669 010c 25       		.byte	0x25
 670 010d B4000000 		.4byte	0xb4
 671 0111 03       		.uleb128 0x3
 672 0112 CB010000 		.4byte	.LASF23
 673 0116 05       		.byte	0x5
 674 0117 26       		.byte	0x26
 675 0118 B4000000 		.4byte	0xb4
 676 011c 03       		.uleb128 0x3
 677 011d 13080000 		.4byte	.LASF24
 678 0121 05       		.byte	0x5
 679 0122 27       		.byte	0x27
 680 0123 B4000000 		.4byte	0xb4
 681 0127 03       		.uleb128 0x3
 682 0128 D2060000 		.4byte	.LASF25
 683 012c 05       		.byte	0x5
 684 012d 28       		.byte	0x28
ARM GAS  /tmp/ccH5YtAd.s 			page 13


 685 012e B4000000 		.4byte	0xb4
 686 0132 03       		.uleb128 0x3
 687 0133 3A000000 		.4byte	.LASF26
 688 0137 05       		.byte	0x5
 689 0138 29       		.byte	0x29
 690 0139 DF000000 		.4byte	0xdf
 691 013d 03       		.uleb128 0x3
 692 013e AC060000 		.4byte	.LASF27
 693 0142 05       		.byte	0x5
 694 0143 2A       		.byte	0x2a
 695 0144 CF000000 		.4byte	0xcf
 696 0148 03       		.uleb128 0x3
 697 0149 44020000 		.4byte	.LASF28
 698 014d 05       		.byte	0x5
 699 014e 2C       		.byte	0x2c
 700 014f DF000000 		.4byte	0xdf
 701 0153 03       		.uleb128 0x3
 702 0154 D7050000 		.4byte	.LASF29
 703 0158 05       		.byte	0x5
 704 0159 2D       		.byte	0x2d
 705 015a DF000000 		.4byte	0xdf
 706 015e 03       		.uleb128 0x3
 707 015f 1C000000 		.4byte	.LASF30
 708 0163 05       		.byte	0x5
 709 0164 2E       		.byte	0x2e
 710 0165 DF000000 		.4byte	0xdf
 711 0169 06       		.uleb128 0x6
 712 016a 5E010000 		.4byte	0x15e
 713 016e 03       		.uleb128 0x3
 714 016f FD070000 		.4byte	.LASF31
 715 0173 06       		.byte	0x6
 716 0174 23       		.byte	0x23
 717 0175 79010000 		.4byte	0x179
 718 0179 07       		.uleb128 0x7
 719 017a FD070000 		.4byte	.LASF31
 720 017e 48       		.byte	0x48
 721 017f 07       		.byte	0x7
 722 0180 57       		.byte	0x57
 723 0181 76020000 		.4byte	0x276
 724 0185 08       		.uleb128 0x8
 725 0186 90010000 		.4byte	.LASF32
 726 018a 07       		.byte	0x7
 727 018b 58       		.byte	0x58
 728 018c 97020000 		.4byte	0x297
 729 0190 00       		.byte	0
 730 0191 08       		.uleb128 0x8
 731 0192 AC010000 		.4byte	.LASF33
 732 0196 07       		.byte	0x7
 733 0197 5A       		.byte	0x5a
 734 0198 97020000 		.4byte	0x297
 735 019c 04       		.byte	0x4
 736 019d 08       		.uleb128 0x8
 737 019e BB020000 		.4byte	.LASF34
 738 01a2 07       		.byte	0x7
 739 01a3 5C       		.byte	0x5c
 740 01a4 32010000 		.4byte	0x132
 741 01a8 08       		.byte	0x8
ARM GAS  /tmp/ccH5YtAd.s 			page 14


 742 01a9 08       		.uleb128 0x8
 743 01aa 34000000 		.4byte	.LASF35
 744 01ae 07       		.byte	0x7
 745 01af 5D       		.byte	0x5d
 746 01b0 5C030000 		.4byte	0x35c
 747 01b4 0C       		.byte	0xc
 748 01b5 08       		.uleb128 0x8
 749 01b6 7F010000 		.4byte	.LASF36
 750 01ba 07       		.byte	0x7
 751 01bb 5F       		.byte	0x5f
 752 01bc 97020000 		.4byte	0x297
 753 01c0 10       		.byte	0x10
 754 01c1 08       		.uleb128 0x8
 755 01c2 9B060000 		.4byte	.LASF37
 756 01c6 07       		.byte	0x7
 757 01c7 60       		.byte	0x60
 758 01c8 97020000 		.4byte	0x297
 759 01cc 14       		.byte	0x14
 760 01cd 08       		.uleb128 0x8
 761 01ce C0080000 		.4byte	.LASF38
 762 01d2 07       		.byte	0x7
 763 01d3 67       		.byte	0x67
 764 01d4 99050000 		.4byte	0x599
 765 01d8 18       		.byte	0x18
 766 01d9 08       		.uleb128 0x8
 767 01da 09090000 		.4byte	.LASF39
 768 01de 07       		.byte	0x7
 769 01df 72       		.byte	0x72
 770 01e0 11010000 		.4byte	0x111
 771 01e4 1C       		.byte	0x1c
 772 01e5 08       		.uleb128 0x8
 773 01e6 E9040000 		.4byte	.LASF40
 774 01ea 07       		.byte	0x7
 775 01eb 76       		.byte	0x76
 776 01ec 06010000 		.4byte	0x106
 777 01f0 1D       		.byte	0x1d
 778 01f1 08       		.uleb128 0x8
 779 01f2 25050000 		.4byte	.LASF41
 780 01f6 07       		.byte	0x7
 781 01f7 7B       		.byte	0x7b
 782 01f8 1C010000 		.4byte	0x11c
 783 01fc 1E       		.byte	0x1e
 784 01fd 08       		.uleb128 0x8
 785 01fe 32020000 		.4byte	.LASF42
 786 0202 07       		.byte	0x7
 787 0203 81       		.byte	0x81
 788 0204 27010000 		.4byte	0x127
 789 0208 1F       		.byte	0x1f
 790 0209 08       		.uleb128 0x8
 791 020a E3050000 		.4byte	.LASF43
 792 020e 07       		.byte	0x7
 793 020f 88       		.byte	0x88
 794 0210 69010000 		.4byte	0x169
 795 0214 20       		.byte	0x20
 796 0215 09       		.uleb128 0x9
 797 0216 705F7500 		.ascii	"p_u\000"
 798 021a 07       		.byte	0x7
ARM GAS  /tmp/ccH5YtAd.s 			page 15


 799 021b AD       		.byte	0xad
 800 021c 64050000 		.4byte	0x564
 801 0220 24       		.byte	0x24
 802 0221 08       		.uleb128 0x8
 803 0222 D9040000 		.4byte	.LASF44
 804 0226 07       		.byte	0x7
 805 0227 B2       		.byte	0xb2
 806 0228 BD020000 		.4byte	0x2bd
 807 022c 28       		.byte	0x28
 808 022d 08       		.uleb128 0x8
 809 022e 53000000 		.4byte	.LASF45
 810 0232 07       		.byte	0x7
 811 0233 B8       		.byte	0xb8
 812 0234 9D020000 		.4byte	0x29d
 813 0238 2C       		.byte	0x2c
 814 0239 08       		.uleb128 0x8
 815 023a F7080000 		.4byte	.LASF46
 816 023e 07       		.byte	0x7
 817 023f BC       		.byte	0xbc
 818 0240 3D010000 		.4byte	0x13d
 819 0244 34       		.byte	0x34
 820 0245 08       		.uleb128 0x8
 821 0246 51030000 		.4byte	.LASF47
 822 024a 07       		.byte	0x7
 823 024b C2       		.byte	0xc2
 824 024c 48010000 		.4byte	0x148
 825 0250 38       		.byte	0x38
 826 0251 08       		.uleb128 0x8
 827 0252 EB010000 		.4byte	.LASF48
 828 0256 07       		.byte	0x7
 829 0257 C9       		.byte	0xc9
 830 0258 AB050000 		.4byte	0x5ab
 831 025c 3C       		.byte	0x3c
 832 025d 08       		.uleb128 0x8
 833 025e 27060000 		.4byte	.LASF49
 834 0262 07       		.byte	0x7
 835 0263 CD       		.byte	0xcd
 836 0264 32010000 		.4byte	0x132
 837 0268 40       		.byte	0x40
 838 0269 08       		.uleb128 0x8
 839 026a 1D050000 		.4byte	.LASF50
 840 026e 07       		.byte	0x7
 841 026f D3       		.byte	0xd3
 842 0270 D3020000 		.4byte	0x2d3
 843 0274 44       		.byte	0x44
 844 0275 00       		.byte	0
 845 0276 0A       		.uleb128 0xa
 846 0277 08       		.byte	0x8
 847 0278 06       		.byte	0x6
 848 0279 5A       		.byte	0x5a
 849 027a 97020000 		.4byte	0x297
 850 027e 08       		.uleb128 0x8
 851 027f 90010000 		.4byte	.LASF32
 852 0283 06       		.byte	0x6
 853 0284 5B       		.byte	0x5b
 854 0285 97020000 		.4byte	0x297
 855 0289 00       		.byte	0
ARM GAS  /tmp/ccH5YtAd.s 			page 16


 856 028a 08       		.uleb128 0x8
 857 028b AC010000 		.4byte	.LASF33
 858 028f 06       		.byte	0x6
 859 0290 5D       		.byte	0x5d
 860 0291 97020000 		.4byte	0x297
 861 0295 04       		.byte	0x4
 862 0296 00       		.byte	0
 863 0297 0B       		.uleb128 0xb
 864 0298 04       		.byte	0x4
 865 0299 6E010000 		.4byte	0x16e
 866 029d 03       		.uleb128 0x3
 867 029e 4F080000 		.4byte	.LASF51
 868 02a2 06       		.byte	0x6
 869 02a3 5F       		.byte	0x5f
 870 02a4 76020000 		.4byte	0x276
 871 02a8 0A       		.uleb128 0xa
 872 02a9 04       		.byte	0x4
 873 02aa 06       		.byte	0x6
 874 02ab 64       		.byte	0x64
 875 02ac BD020000 		.4byte	0x2bd
 876 02b0 08       		.uleb128 0x8
 877 02b1 90010000 		.4byte	.LASF32
 878 02b5 06       		.byte	0x6
 879 02b6 66       		.byte	0x66
 880 02b7 97020000 		.4byte	0x297
 881 02bb 00       		.byte	0
 882 02bc 00       		.byte	0
 883 02bd 03       		.uleb128 0x3
 884 02be CB050000 		.4byte	.LASF52
 885 02c2 06       		.byte	0x6
 886 02c3 69       		.byte	0x69
 887 02c4 A8020000 		.4byte	0x2a8
 888 02c8 03       		.uleb128 0x3
 889 02c9 0A020000 		.4byte	.LASF53
 890 02cd 08       		.byte	0x8
 891 02ce DE       		.byte	0xde
 892 02cf D3020000 		.4byte	0x2d3
 893 02d3 0C       		.uleb128 0xc
 894 02d4 04       		.byte	0x4
 895 02d5 03       		.uleb128 0x3
 896 02d6 00030000 		.4byte	.LASF54
 897 02da 08       		.byte	0x8
 898 02db E4       		.byte	0xe4
 899 02dc F4000000 		.4byte	0xf4
 900 02e0 0D       		.uleb128 0xd
 901 02e1 4A030000 		.4byte	.LASF55
 902 02e5 24       		.byte	0x24
 903 02e6 08       		.byte	0x8
 904 02e7 0501     		.2byte	0x105
 905 02e9 5C030000 		.4byte	0x35c
 906 02ed 0E       		.uleb128 0xe
 907 02ee 723400   		.ascii	"r4\000"
 908 02f1 08       		.byte	0x8
 909 02f2 1801     		.2byte	0x118
 910 02f4 C8020000 		.4byte	0x2c8
 911 02f8 00       		.byte	0
 912 02f9 0E       		.uleb128 0xe
ARM GAS  /tmp/ccH5YtAd.s 			page 17


 913 02fa 723500   		.ascii	"r5\000"
 914 02fd 08       		.byte	0x8
 915 02fe 1901     		.2byte	0x119
 916 0300 C8020000 		.4byte	0x2c8
 917 0304 04       		.byte	0x4
 918 0305 0E       		.uleb128 0xe
 919 0306 723600   		.ascii	"r6\000"
 920 0309 08       		.byte	0x8
 921 030a 1A01     		.2byte	0x11a
 922 030c C8020000 		.4byte	0x2c8
 923 0310 08       		.byte	0x8
 924 0311 0E       		.uleb128 0xe
 925 0312 723700   		.ascii	"r7\000"
 926 0315 08       		.byte	0x8
 927 0316 1B01     		.2byte	0x11b
 928 0318 C8020000 		.4byte	0x2c8
 929 031c 0C       		.byte	0xc
 930 031d 0E       		.uleb128 0xe
 931 031e 723800   		.ascii	"r8\000"
 932 0321 08       		.byte	0x8
 933 0322 1C01     		.2byte	0x11c
 934 0324 C8020000 		.4byte	0x2c8
 935 0328 10       		.byte	0x10
 936 0329 0E       		.uleb128 0xe
 937 032a 723900   		.ascii	"r9\000"
 938 032d 08       		.byte	0x8
 939 032e 1D01     		.2byte	0x11d
 940 0330 C8020000 		.4byte	0x2c8
 941 0334 14       		.byte	0x14
 942 0335 0E       		.uleb128 0xe
 943 0336 72313000 		.ascii	"r10\000"
 944 033a 08       		.byte	0x8
 945 033b 1E01     		.2byte	0x11e
 946 033d C8020000 		.4byte	0x2c8
 947 0341 18       		.byte	0x18
 948 0342 0E       		.uleb128 0xe
 949 0343 72313100 		.ascii	"r11\000"
 950 0347 08       		.byte	0x8
 951 0348 1F01     		.2byte	0x11f
 952 034a C8020000 		.4byte	0x2c8
 953 034e 1C       		.byte	0x1c
 954 034f 0E       		.uleb128 0xe
 955 0350 6C7200   		.ascii	"lr\000"
 956 0353 08       		.byte	0x8
 957 0354 2001     		.2byte	0x120
 958 0356 C8020000 		.4byte	0x2c8
 959 035a 20       		.byte	0x20
 960 035b 00       		.byte	0
 961 035c 0D       		.uleb128 0xd
 962 035d 50020000 		.4byte	.LASF56
 963 0361 04       		.byte	0x4
 964 0362 08       		.byte	0x8
 965 0363 2A01     		.2byte	0x12a
 966 0365 77030000 		.4byte	0x377
 967 0369 0E       		.uleb128 0xe
 968 036a 72313300 		.ascii	"r13\000"
 969 036e 08       		.byte	0x8
ARM GAS  /tmp/ccH5YtAd.s 			page 18


 970 036f 2B01     		.2byte	0x12b
 971 0371 77030000 		.4byte	0x377
 972 0375 00       		.byte	0
 973 0376 00       		.byte	0
 974 0377 0B       		.uleb128 0xb
 975 0378 04       		.byte	0x4
 976 0379 E0020000 		.4byte	0x2e0
 977 037d 04       		.uleb128 0x4
 978 037e 04       		.byte	0x4
 979 037f 07       		.byte	0x7
 980 0380 07000000 		.4byte	.LASF57
 981 0384 03       		.uleb128 0x3
 982 0385 7E000000 		.4byte	.LASF58
 983 0389 09       		.byte	0x9
 984 038a 51       		.byte	0x51
 985 038b 8F030000 		.4byte	0x38f
 986 038f 0B       		.uleb128 0xb
 987 0390 04       		.byte	0x4
 988 0391 95030000 		.4byte	0x395
 989 0395 0F       		.uleb128 0xf
 990 0396 A0030000 		.4byte	0x3a0
 991 039a 10       		.uleb128 0x10
 992 039b D3020000 		.4byte	0x2d3
 993 039f 00       		.byte	0
 994 03a0 03       		.uleb128 0x3
 995 03a1 42080000 		.4byte	.LASF59
 996 03a5 09       		.byte	0x9
 997 03a6 56       		.byte	0x56
 998 03a7 AB030000 		.4byte	0x3ab
 999 03ab 07       		.uleb128 0x7
 1000 03ac 42080000 		.4byte	.LASF59
 1001 03b0 14       		.byte	0x14
 1002 03b1 09       		.byte	0x9
 1003 03b2 5D       		.byte	0x5d
 1004 03b3 F4030000 		.4byte	0x3f4
 1005 03b7 08       		.uleb128 0x8
 1006 03b8 77040000 		.4byte	.LASF60
 1007 03bc 09       		.byte	0x9
 1008 03bd 5E       		.byte	0x5e
 1009 03be F4030000 		.4byte	0x3f4
 1010 03c2 00       		.byte	0
 1011 03c3 08       		.uleb128 0x8
 1012 03c4 81020000 		.4byte	.LASF61
 1013 03c8 09       		.byte	0x9
 1014 03c9 60       		.byte	0x60
 1015 03ca F4030000 		.4byte	0x3f4
 1016 03ce 04       		.byte	0x4
 1017 03cf 08       		.uleb128 0x8
 1018 03d0 C7080000 		.4byte	.LASF62
 1019 03d4 09       		.byte	0x9
 1020 03d5 62       		.byte	0x62
 1021 03d6 5E010000 		.4byte	0x15e
 1022 03da 08       		.byte	0x8
 1023 03db 08       		.uleb128 0x8
 1024 03dc 42030000 		.4byte	.LASF63
 1025 03e0 09       		.byte	0x9
 1026 03e1 63       		.byte	0x63
ARM GAS  /tmp/ccH5YtAd.s 			page 19


 1027 03e2 84030000 		.4byte	0x384
 1028 03e6 0C       		.byte	0xc
 1029 03e7 08       		.uleb128 0x8
 1030 03e8 16010000 		.4byte	.LASF64
 1031 03ec 09       		.byte	0x9
 1032 03ed 65       		.byte	0x65
 1033 03ee D3020000 		.4byte	0x2d3
 1034 03f2 10       		.byte	0x10
 1035 03f3 00       		.byte	0
 1036 03f4 0B       		.uleb128 0xb
 1037 03f5 04       		.byte	0x4
 1038 03f6 A0030000 		.4byte	0x3a0
 1039 03fa 0A       		.uleb128 0xa
 1040 03fb 10       		.byte	0x10
 1041 03fc 09       		.byte	0x9
 1042 03fd 6F       		.byte	0x6f
 1043 03fe 33040000 		.4byte	0x433
 1044 0402 08       		.uleb128 0x8
 1045 0403 77040000 		.4byte	.LASF60
 1046 0407 09       		.byte	0x9
 1047 0408 70       		.byte	0x70
 1048 0409 F4030000 		.4byte	0x3f4
 1049 040d 00       		.byte	0
 1050 040e 08       		.uleb128 0x8
 1051 040f 81020000 		.4byte	.LASF61
 1052 0413 09       		.byte	0x9
 1053 0414 72       		.byte	0x72
 1054 0415 F4030000 		.4byte	0x3f4
 1055 0419 04       		.byte	0x4
 1056 041a 08       		.uleb128 0x8
 1057 041b C7080000 		.4byte	.LASF62
 1058 041f 09       		.byte	0x9
 1059 0420 74       		.byte	0x74
 1060 0421 5E010000 		.4byte	0x15e
 1061 0425 08       		.byte	0x8
 1062 0426 08       		.uleb128 0x8
 1063 0427 5F070000 		.4byte	.LASF65
 1064 042b 09       		.byte	0x9
 1065 042c 75       		.byte	0x75
 1066 042d 69010000 		.4byte	0x169
 1067 0431 0C       		.byte	0xc
 1068 0432 00       		.byte	0
 1069 0433 03       		.uleb128 0x3
 1070 0434 FF060000 		.4byte	.LASF66
 1071 0438 09       		.byte	0x9
 1072 0439 76       		.byte	0x76
 1073 043a FA030000 		.4byte	0x3fa
 1074 043e 11       		.uleb128 0x11
 1075 043f 04080000 		.4byte	.LASF74
 1076 0443 09       		.byte	0x9
 1077 0444 EE       		.byte	0xee
 1078 0445 33040000 		.4byte	0x433
 1079 0449 0A       		.uleb128 0xa
 1080 044a 1C       		.byte	0x1c
 1081 044b 0A       		.byte	0xa
 1082 044c 57       		.byte	0x57
 1083 044d 9A040000 		.4byte	0x49a
ARM GAS  /tmp/ccH5YtAd.s 			page 20


 1084 0451 08       		.uleb128 0x8
 1085 0452 1C070000 		.4byte	.LASF67
 1086 0456 0A       		.byte	0xa
 1087 0457 58       		.byte	0x58
 1088 0458 9D020000 		.4byte	0x29d
 1089 045c 00       		.byte	0
 1090 045d 08       		.uleb128 0x8
 1091 045e CA070000 		.4byte	.LASF68
 1092 0462 0A       		.byte	0xa
 1093 0463 59       		.byte	0x59
 1094 0464 32010000 		.4byte	0x132
 1095 0468 08       		.byte	0x8
 1096 0469 08       		.uleb128 0x8
 1097 046a 5E000000 		.4byte	.LASF69
 1098 046e 0A       		.byte	0xa
 1099 046f 5B       		.byte	0x5b
 1100 0470 5C030000 		.4byte	0x35c
 1101 0474 0C       		.byte	0xc
 1102 0475 08       		.uleb128 0x8
 1103 0476 89020000 		.4byte	.LASF70
 1104 047a 0A       		.byte	0xa
 1105 047b 5E       		.byte	0x5e
 1106 047c 97020000 		.4byte	0x297
 1107 0480 10       		.byte	0x10
 1108 0481 08       		.uleb128 0x8
 1109 0482 73070000 		.4byte	.LASF71
 1110 0486 0A       		.byte	0xa
 1111 0487 5F       		.byte	0x5f
 1112 0488 97020000 		.4byte	0x297
 1113 048c 14       		.byte	0x14
 1114 048d 08       		.uleb128 0x8
 1115 048e F5060000 		.4byte	.LASF72
 1116 0492 0A       		.byte	0xa
 1117 0493 62       		.byte	0x62
 1118 0494 97020000 		.4byte	0x297
 1119 0498 18       		.byte	0x18
 1120 0499 00       		.byte	0
 1121 049a 03       		.uleb128 0x3
 1122 049b B6080000 		.4byte	.LASF73
 1123 049f 0A       		.byte	0xa
 1124 04a0 64       		.byte	0x64
 1125 04a1 49040000 		.4byte	0x449
 1126 04a5 11       		.uleb128 0x11
 1127 04a6 3B070000 		.4byte	.LASF75
 1128 04aa 0A       		.byte	0xa
 1129 04ab 68       		.byte	0x68
 1130 04ac 9A040000 		.4byte	0x49a
 1131 04b0 07       		.uleb128 0x7
 1132 04b1 46040000 		.4byte	.LASF76
 1133 04b5 10       		.byte	0x10
 1134 04b6 0B       		.byte	0xb
 1135 04b7 25       		.byte	0x25
 1136 04b8 E1040000 		.4byte	0x4e1
 1137 04bc 08       		.uleb128 0x8
 1138 04bd 65040000 		.4byte	.LASF77
 1139 04c1 0B       		.byte	0xb
 1140 04c2 26       		.byte	0x26
ARM GAS  /tmp/ccH5YtAd.s 			page 21


 1141 04c3 9D020000 		.4byte	0x29d
 1142 04c7 00       		.byte	0
 1143 04c8 08       		.uleb128 0x8
 1144 04c9 0E010000 		.4byte	.LASF78
 1145 04cd 0B       		.byte	0xb
 1146 04ce 28       		.byte	0x28
 1147 04cf 97020000 		.4byte	0x297
 1148 04d3 08       		.byte	0x8
 1149 04d4 08       		.uleb128 0x8
 1150 04d5 D4080000 		.4byte	.LASF79
 1151 04d9 0B       		.byte	0xb
 1152 04da 2A       		.byte	0x2a
 1153 04db E1040000 		.4byte	0x4e1
 1154 04df 0C       		.byte	0xc
 1155 04e0 00       		.byte	0
 1156 04e1 0B       		.uleb128 0xb
 1157 04e2 04       		.byte	0x4
 1158 04e3 B0040000 		.4byte	0x4b0
 1159 04e7 03       		.uleb128 0x3
 1160 04e8 46040000 		.4byte	.LASF76
 1161 04ec 0B       		.byte	0xb
 1162 04ed 2C       		.byte	0x2c
 1163 04ee B0040000 		.4byte	0x4b0
 1164 04f2 03       		.uleb128 0x3
 1165 04f3 2B080000 		.4byte	.LASF80
 1166 04f7 0C       		.byte	0xc
 1167 04f8 25       		.byte	0x25
 1168 04f9 FD040000 		.4byte	0x4fd
 1169 04fd 07       		.uleb128 0x7
 1170 04fe 2B080000 		.4byte	.LASF80
 1171 0502 10       		.byte	0x10
 1172 0503 0C       		.byte	0xc
 1173 0504 2A       		.byte	0x2a
 1174 0505 3A050000 		.4byte	0x53a
 1175 0509 08       		.uleb128 0x8
 1176 050a C2030000 		.4byte	.LASF81
 1177 050e 0C       		.byte	0xc
 1178 050f 2B       		.byte	0x2b
 1179 0510 3A050000 		.4byte	0x53a
 1180 0514 00       		.byte	0
 1181 0515 08       		.uleb128 0x8
 1182 0516 FD080000 		.4byte	.LASF82
 1183 051a 0C       		.byte	0xc
 1184 051b 2E       		.byte	0x2e
 1185 051c 97020000 		.4byte	0x297
 1186 0520 04       		.byte	0x4
 1187 0521 08       		.uleb128 0x8
 1188 0522 AE080000 		.4byte	.LASF83
 1189 0526 0C       		.byte	0xc
 1190 0527 30       		.byte	0x30
 1191 0528 48010000 		.4byte	0x148
 1192 052c 08       		.byte	0x8
 1193 052d 08       		.uleb128 0x8
 1194 052e B7000000 		.4byte	.LASF84
 1195 0532 0C       		.byte	0xc
 1196 0533 33       		.byte	0x33
 1197 0534 53010000 		.4byte	0x153
ARM GAS  /tmp/ccH5YtAd.s 			page 22


 1198 0538 0C       		.byte	0xc
 1199 0539 00       		.byte	0
 1200 053a 0B       		.uleb128 0xb
 1201 053b 04       		.byte	0x4
 1202 053c F2040000 		.4byte	0x4f2
 1203 0540 07       		.uleb128 0x7
 1204 0541 77030000 		.4byte	.LASF85
 1205 0545 04       		.byte	0x4
 1206 0546 0C       		.byte	0xc
 1207 0547 3A       		.byte	0x3a
 1208 0548 59050000 		.4byte	0x559
 1209 054c 08       		.uleb128 0x8
 1210 054d 5C030000 		.4byte	.LASF86
 1211 0551 0C       		.byte	0xc
 1212 0552 3B       		.byte	0x3b
 1213 0553 3A050000 		.4byte	0x53a
 1214 0557 00       		.byte	0
 1215 0558 00       		.byte	0
 1216 0559 03       		.uleb128 0x3
 1217 055a 77030000 		.4byte	.LASF85
 1218 055e 0C       		.byte	0xc
 1219 055f 3E       		.byte	0x3e
 1220 0560 40050000 		.4byte	0x540
 1221 0564 12       		.uleb128 0x12
 1222 0565 04       		.byte	0x4
 1223 0566 07       		.byte	0x7
 1224 0567 8F       		.byte	0x8f
 1225 0568 99050000 		.4byte	0x599
 1226 056c 13       		.uleb128 0x13
 1227 056d 5C080000 		.4byte	.LASF87
 1228 0571 07       		.byte	0x7
 1229 0572 96       		.byte	0x96
 1230 0573 3D010000 		.4byte	0x13d
 1231 0577 13       		.uleb128 0x13
 1232 0578 1D010000 		.4byte	.LASF88
 1233 057c 07       		.byte	0x7
 1234 057d 9D       		.byte	0x9d
 1235 057e 3D010000 		.4byte	0x13d
 1236 0582 13       		.uleb128 0x13
 1237 0583 DA020000 		.4byte	.LASF89
 1238 0587 07       		.byte	0x7
 1239 0588 A4       		.byte	0xa4
 1240 0589 D3020000 		.4byte	0x2d3
 1241 058d 13       		.uleb128 0x13
 1242 058e 40010000 		.4byte	.LASF90
 1243 0592 07       		.byte	0x7
 1244 0593 AB       		.byte	0xab
 1245 0594 48010000 		.4byte	0x148
 1246 0598 00       		.byte	0
 1247 0599 0B       		.uleb128 0xb
 1248 059a 04       		.byte	0x4
 1249 059b A6050000 		.4byte	0x5a6
 1250 059f 04       		.uleb128 0x4
 1251 05a0 01       		.byte	0x1
 1252 05a1 08       		.byte	0x8
 1253 05a2 AB020000 		.4byte	.LASF91
 1254 05a6 05       		.uleb128 0x5
ARM GAS  /tmp/ccH5YtAd.s 			page 23


 1255 05a7 9F050000 		.4byte	0x59f
 1256 05ab 0B       		.uleb128 0xb
 1257 05ac 04       		.byte	0x4
 1258 05ad E7040000 		.4byte	0x4e7
 1259 05b1 0B       		.uleb128 0xb
 1260 05b2 04       		.byte	0x4
 1261 05b3 B7050000 		.4byte	0x5b7
 1262 05b7 14       		.uleb128 0x14
 1263 05b8 3D010000 		.4byte	0x13d
 1264 05bc C6050000 		.4byte	0x5c6
 1265 05c0 10       		.uleb128 0x10
 1266 05c1 D3020000 		.4byte	0x2d3
 1267 05c5 00       		.byte	0
 1268 05c6 0A       		.uleb128 0xa
 1269 05c7 16       		.byte	0x16
 1270 05c8 0D       		.byte	0xd
 1271 05c9 25       		.byte	0x25
 1272 05ca A7060000 		.4byte	0x6a7
 1273 05ce 08       		.uleb128 0x8
 1274 05cf 26000000 		.4byte	.LASF92
 1275 05d3 0D       		.byte	0xd
 1276 05d4 26       		.byte	0x26
 1277 05d5 A7060000 		.4byte	0x6a7
 1278 05d9 00       		.byte	0
 1279 05da 08       		.uleb128 0x8
 1280 05db A0030000 		.4byte	.LASF93
 1281 05df 0D       		.byte	0xd
 1282 05e0 27       		.byte	0x27
 1283 05e1 B4000000 		.4byte	0xb4
 1284 05e5 04       		.byte	0x4
 1285 05e6 08       		.uleb128 0x8
 1286 05e7 94080000 		.4byte	.LASF94
 1287 05eb 0D       		.byte	0xd
 1288 05ec 28       		.byte	0x28
 1289 05ed B4000000 		.4byte	0xb4
 1290 05f1 05       		.byte	0x5
 1291 05f2 08       		.uleb128 0x8
 1292 05f3 5A040000 		.4byte	.LASF95
 1293 05f7 0D       		.byte	0xd
 1294 05f8 29       		.byte	0x29
 1295 05f9 C4000000 		.4byte	0xc4
 1296 05fd 06       		.byte	0x6
 1297 05fe 08       		.uleb128 0x8
 1298 05ff FA000000 		.4byte	.LASF96
 1299 0603 0D       		.byte	0xd
 1300 0604 2A       		.byte	0x2a
 1301 0605 B4000000 		.4byte	0xb4
 1302 0609 08       		.byte	0x8
 1303 060a 08       		.uleb128 0x8
 1304 060b 2C050000 		.4byte	.LASF97
 1305 060f 0D       		.byte	0xd
 1306 0610 2B       		.byte	0x2b
 1307 0611 B4000000 		.4byte	0xb4
 1308 0615 09       		.byte	0x9
 1309 0616 08       		.uleb128 0x8
 1310 0617 47010000 		.4byte	.LASF98
 1311 061b 0D       		.byte	0xd
ARM GAS  /tmp/ccH5YtAd.s 			page 24


 1312 061c 2C       		.byte	0x2c
 1313 061d B4000000 		.4byte	0xb4
 1314 0621 0A       		.byte	0xa
 1315 0622 08       		.uleb128 0x8
 1316 0623 17030000 		.4byte	.LASF99
 1317 0627 0D       		.byte	0xd
 1318 0628 2D       		.byte	0x2d
 1319 0629 B4000000 		.4byte	0xb4
 1320 062d 0B       		.byte	0xb
 1321 062e 08       		.uleb128 0x8
 1322 062f 73000000 		.4byte	.LASF100
 1323 0633 0D       		.byte	0xd
 1324 0634 2E       		.byte	0x2e
 1325 0635 B4000000 		.4byte	0xb4
 1326 0639 0C       		.byte	0xc
 1327 063a 08       		.uleb128 0x8
 1328 063b EE020000 		.4byte	.LASF101
 1329 063f 0D       		.byte	0xd
 1330 0640 2F       		.byte	0x2f
 1331 0641 B4000000 		.4byte	0xb4
 1332 0645 0D       		.byte	0xd
 1333 0646 08       		.uleb128 0x8
 1334 0647 E6070000 		.4byte	.LASF102
 1335 064b 0D       		.byte	0xd
 1336 064c 30       		.byte	0x30
 1337 064d B4000000 		.4byte	0xb4
 1338 0651 0E       		.byte	0xe
 1339 0652 08       		.uleb128 0x8
 1340 0653 10000000 		.4byte	.LASF103
 1341 0657 0D       		.byte	0xd
 1342 0658 31       		.byte	0x31
 1343 0659 B4000000 		.4byte	0xb4
 1344 065d 0F       		.byte	0xf
 1345 065e 08       		.uleb128 0x8
 1346 065f 0D050000 		.4byte	.LASF104
 1347 0663 0D       		.byte	0xd
 1348 0664 32       		.byte	0x32
 1349 0665 B4000000 		.4byte	0xb4
 1350 0669 10       		.byte	0x10
 1351 066a 08       		.uleb128 0x8
 1352 066b 9F010000 		.4byte	.LASF105
 1353 066f 0D       		.byte	0xd
 1354 0670 34       		.byte	0x34
 1355 0671 B4000000 		.4byte	0xb4
 1356 0675 11       		.byte	0x11
 1357 0676 08       		.uleb128 0x8
 1358 0677 C5060000 		.4byte	.LASF106
 1359 067b 0D       		.byte	0xd
 1360 067c 35       		.byte	0x35
 1361 067d B4000000 		.4byte	0xb4
 1362 0681 12       		.byte	0x12
 1363 0682 08       		.uleb128 0x8
 1364 0683 EA050000 		.4byte	.LASF107
 1365 0687 0D       		.byte	0xd
 1366 0688 36       		.byte	0x36
 1367 0689 B4000000 		.4byte	0xb4
 1368 068d 13       		.byte	0x13
ARM GAS  /tmp/ccH5YtAd.s 			page 25


 1369 068e 08       		.uleb128 0x8
 1370 068f 2C040000 		.4byte	.LASF108
 1371 0693 0D       		.byte	0xd
 1372 0694 37       		.byte	0x37
 1373 0695 B4000000 		.4byte	0xb4
 1374 0699 14       		.byte	0x14
 1375 069a 08       		.uleb128 0x8
 1376 069b 32060000 		.4byte	.LASF109
 1377 069f 0D       		.byte	0xd
 1378 06a0 39       		.byte	0x39
 1379 06a1 B4000000 		.4byte	0xb4
 1380 06a5 15       		.byte	0x15
 1381 06a6 00       		.byte	0
 1382 06a7 15       		.uleb128 0x15
 1383 06a8 9F050000 		.4byte	0x59f
 1384 06ac B7060000 		.4byte	0x6b7
 1385 06b0 16       		.uleb128 0x16
 1386 06b1 7D030000 		.4byte	0x37d
 1387 06b5 03       		.byte	0x3
 1388 06b6 00       		.byte	0
 1389 06b7 03       		.uleb128 0x3
 1390 06b8 7F080000 		.4byte	.LASF110
 1391 06bc 0D       		.byte	0xd
 1392 06bd 3A       		.byte	0x3a
 1393 06be C6050000 		.4byte	0x5c6
 1394 06c2 05       		.uleb128 0x5
 1395 06c3 B7060000 		.4byte	0x6b7
 1396 06c7 11       		.uleb128 0x11
 1397 06c8 4A000000 		.4byte	.LASF111
 1398 06cc 0D       		.byte	0xd
 1399 06cd 77       		.byte	0x77
 1400 06ce C2060000 		.4byte	0x6c2
 1401 06d2 03       		.uleb128 0x3
 1402 06d3 CD020000 		.4byte	.LASF112
 1403 06d7 0E       		.byte	0xe
 1404 06d8 30       		.byte	0x30
 1405 06d9 DD060000 		.4byte	0x6dd
 1406 06dd 07       		.uleb128 0x7
 1407 06de CD020000 		.4byte	.LASF112
 1408 06e2 24       		.byte	0x24
 1409 06e3 0E       		.byte	0xe
 1410 06e4 3E       		.byte	0x3e
 1411 06e5 4A070000 		.4byte	0x74a
 1412 06e9 08       		.uleb128 0x8
 1413 06ea 31070000 		.4byte	.LASF113
 1414 06ee 0E       		.byte	0xe
 1415 06ef 3F       		.byte	0x3f
 1416 06f0 9D020000 		.4byte	0x29d
 1417 06f4 00       		.byte	0
 1418 06f5 08       		.uleb128 0x8
 1419 06f6 64030000 		.4byte	.LASF114
 1420 06fa 0E       		.byte	0xe
 1421 06fb 40       		.byte	0x40
 1422 06fc 2C000000 		.4byte	0x2c
 1423 0700 08       		.byte	0x8
 1424 0701 08       		.uleb128 0x8
 1425 0702 64010000 		.4byte	.LASF115
ARM GAS  /tmp/ccH5YtAd.s 			page 26


 1426 0706 0E       		.byte	0xe
 1427 0707 41       		.byte	0x41
 1428 0708 6C070000 		.4byte	0x76c
 1429 070c 0C       		.byte	0xc
 1430 070d 08       		.uleb128 0x8
 1431 070e 30010000 		.4byte	.LASF116
 1432 0712 0E       		.byte	0xe
 1433 0713 42       		.byte	0x42
 1434 0714 6C070000 		.4byte	0x76c
 1435 0718 10       		.byte	0x10
 1436 0719 08       		.uleb128 0x8
 1437 071a CA030000 		.4byte	.LASF117
 1438 071e 0E       		.byte	0xe
 1439 071f 44       		.byte	0x44
 1440 0720 6C070000 		.4byte	0x76c
 1441 0724 14       		.byte	0x14
 1442 0725 08       		.uleb128 0x8
 1443 0726 97010000 		.4byte	.LASF118
 1444 072a 0E       		.byte	0xe
 1445 072b 45       		.byte	0x45
 1446 072c 6C070000 		.4byte	0x76c
 1447 0730 18       		.byte	0x18
 1448 0731 08       		.uleb128 0x8
 1449 0732 76010000 		.4byte	.LASF119
 1450 0736 0E       		.byte	0xe
 1451 0737 46       		.byte	0x46
 1452 0738 4A070000 		.4byte	0x74a
 1453 073c 1C       		.byte	0x1c
 1454 073d 08       		.uleb128 0x8
 1455 073e 7A020000 		.4byte	.LASF120
 1456 0742 0E       		.byte	0xe
 1457 0743 47       		.byte	0x47
 1458 0744 D3020000 		.4byte	0x2d3
 1459 0748 20       		.byte	0x20
 1460 0749 00       		.byte	0
 1461 074a 03       		.uleb128 0x3
 1462 074b C3040000 		.4byte	.LASF121
 1463 074f 0E       		.byte	0xe
 1464 0750 33       		.byte	0x33
 1465 0751 55070000 		.4byte	0x755
 1466 0755 0B       		.uleb128 0xb
 1467 0756 04       		.byte	0x4
 1468 0757 5B070000 		.4byte	0x75b
 1469 075b 0F       		.uleb128 0xf
 1470 075c 66070000 		.4byte	0x766
 1471 0760 10       		.uleb128 0x10
 1472 0761 66070000 		.4byte	0x766
 1473 0765 00       		.byte	0
 1474 0766 0B       		.uleb128 0xb
 1475 0767 04       		.byte	0x4
 1476 0768 D2060000 		.4byte	0x6d2
 1477 076c 0B       		.uleb128 0xb
 1478 076d 04       		.byte	0x4
 1479 076e B4000000 		.4byte	0xb4
 1480 0772 03       		.uleb128 0x3
 1481 0773 89080000 		.4byte	.LASF122
 1482 0777 0E       		.byte	0xe
ARM GAS  /tmp/ccH5YtAd.s 			page 27


 1483 0778 7B       		.byte	0x7b
 1484 0779 D2060000 		.4byte	0x6d2
 1485 077d 03       		.uleb128 0x3
 1486 077e 0B030000 		.4byte	.LASF123
 1487 0782 0E       		.byte	0xe
 1488 0783 EE       		.byte	0xee
 1489 0784 D2060000 		.4byte	0x6d2
 1490 0788 14       		.uleb128 0x14
 1491 0789 2C000000 		.4byte	0x2c
 1492 078d A1070000 		.4byte	0x7a1
 1493 0791 10       		.uleb128 0x10
 1494 0792 D3020000 		.4byte	0x2d3
 1495 0796 10       		.uleb128 0x10
 1496 0797 A1070000 		.4byte	0x7a1
 1497 079b 10       		.uleb128 0x10
 1498 079c 2C000000 		.4byte	0x2c
 1499 07a0 00       		.byte	0
 1500 07a1 0B       		.uleb128 0xb
 1501 07a2 04       		.byte	0x4
 1502 07a3 BF000000 		.4byte	0xbf
 1503 07a7 0B       		.uleb128 0xb
 1504 07a8 04       		.byte	0x4
 1505 07a9 88070000 		.4byte	0x788
 1506 07ad 14       		.uleb128 0x14
 1507 07ae 2C000000 		.4byte	0x2c
 1508 07b2 C6070000 		.4byte	0x7c6
 1509 07b6 10       		.uleb128 0x10
 1510 07b7 D3020000 		.4byte	0x2d3
 1511 07bb 10       		.uleb128 0x10
 1512 07bc 6C070000 		.4byte	0x76c
 1513 07c0 10       		.uleb128 0x10
 1514 07c1 2C000000 		.4byte	0x2c
 1515 07c5 00       		.byte	0
 1516 07c6 0B       		.uleb128 0xb
 1517 07c7 04       		.byte	0x4
 1518 07c8 AD070000 		.4byte	0x7ad
 1519 07cc 14       		.uleb128 0x14
 1520 07cd 3D010000 		.4byte	0x13d
 1521 07d1 E0070000 		.4byte	0x7e0
 1522 07d5 10       		.uleb128 0x10
 1523 07d6 D3020000 		.4byte	0x2d3
 1524 07da 10       		.uleb128 0x10
 1525 07db B4000000 		.4byte	0xb4
 1526 07df 00       		.byte	0
 1527 07e0 0B       		.uleb128 0xb
 1528 07e1 04       		.byte	0x4
 1529 07e2 CC070000 		.4byte	0x7cc
 1530 07e6 15       		.uleb128 0x15
 1531 07e7 D5020000 		.4byte	0x2d5
 1532 07eb F6070000 		.4byte	0x7f6
 1533 07ef 16       		.uleb128 0x16
 1534 07f0 7D030000 		.4byte	0x37d
 1535 07f4 17       		.byte	0x17
 1536 07f5 00       		.byte	0
 1537 07f6 11       		.uleb128 0x11
 1538 07f7 1B080000 		.4byte	.LASF124
 1539 07fb 0F       		.byte	0xf
ARM GAS  /tmp/ccH5YtAd.s 			page 28


 1540 07fc 82       		.byte	0x82
 1541 07fd E6070000 		.4byte	0x7e6
 1542 0801 15       		.uleb128 0x15
 1543 0802 DF000000 		.4byte	0xdf
 1544 0806 11080000 		.4byte	0x811
 1545 080a 16       		.uleb128 0x16
 1546 080b 7D030000 		.4byte	0x37d
 1547 080f 01       		.byte	0x1
 1548 0810 00       		.byte	0
 1549 0811 17       		.uleb128 0x17
 1550 0812 94040000 		.4byte	.LASF125
 1551 0816 10       		.byte	0x10
 1552 0817 0706     		.2byte	0x607
 1553 0819 DA000000 		.4byte	0xda
 1554 081d 11       		.uleb128 0x11
 1555 081e A8030000 		.4byte	.LASF126
 1556 0822 11       		.byte	0x11
 1557 0823 23       		.byte	0x23
 1558 0824 DF000000 		.4byte	0xdf
 1559 0828 15       		.uleb128 0x15
 1560 0829 DF000000 		.4byte	0xdf
 1561 082d 38080000 		.4byte	0x838
 1562 0831 16       		.uleb128 0x16
 1563 0832 7D030000 		.4byte	0x37d
 1564 0836 0B       		.byte	0xb
 1565 0837 00       		.byte	0
 1566 0838 18       		.uleb128 0x18
 1567 0839 74       		.byte	0x74
 1568 083a 12       		.byte	0x12
 1569 083b 1C01     		.2byte	0x11c
 1570 083d 1B090000 		.4byte	0x91b
 1571 0841 0E       		.uleb128 0xe
 1572 0842 495200   		.ascii	"IR\000"
 1573 0845 12       		.byte	0x12
 1574 0846 1E01     		.2byte	0x11e
 1575 0848 EA000000 		.4byte	0xea
 1576 084c 00       		.byte	0
 1577 084d 0E       		.uleb128 0xe
 1578 084e 54435200 		.ascii	"TCR\000"
 1579 0852 12       		.byte	0x12
 1580 0853 1F01     		.2byte	0x11f
 1581 0855 EA000000 		.4byte	0xea
 1582 0859 04       		.byte	0x4
 1583 085a 0E       		.uleb128 0xe
 1584 085b 544300   		.ascii	"TC\000"
 1585 085e 12       		.byte	0x12
 1586 085f 2001     		.2byte	0x120
 1587 0861 EA000000 		.4byte	0xea
 1588 0865 08       		.byte	0x8
 1589 0866 0E       		.uleb128 0xe
 1590 0867 505200   		.ascii	"PR\000"
 1591 086a 12       		.byte	0x12
 1592 086b 2101     		.2byte	0x121
 1593 086d EA000000 		.4byte	0xea
 1594 0871 0C       		.byte	0xc
 1595 0872 0E       		.uleb128 0xe
 1596 0873 504300   		.ascii	"PC\000"
ARM GAS  /tmp/ccH5YtAd.s 			page 29


 1597 0876 12       		.byte	0x12
 1598 0877 2201     		.2byte	0x122
 1599 0879 EA000000 		.4byte	0xea
 1600 087d 10       		.byte	0x10
 1601 087e 0E       		.uleb128 0xe
 1602 087f 4D435200 		.ascii	"MCR\000"
 1603 0883 12       		.byte	0x12
 1604 0884 2301     		.2byte	0x123
 1605 0886 EA000000 		.4byte	0xea
 1606 088a 14       		.byte	0x14
 1607 088b 0E       		.uleb128 0xe
 1608 088c 4D523000 		.ascii	"MR0\000"
 1609 0890 12       		.byte	0x12
 1610 0891 2401     		.2byte	0x124
 1611 0893 EA000000 		.4byte	0xea
 1612 0897 18       		.byte	0x18
 1613 0898 0E       		.uleb128 0xe
 1614 0899 4D523100 		.ascii	"MR1\000"
 1615 089d 12       		.byte	0x12
 1616 089e 2501     		.2byte	0x125
 1617 08a0 EA000000 		.4byte	0xea
 1618 08a4 1C       		.byte	0x1c
 1619 08a5 0E       		.uleb128 0xe
 1620 08a6 4D523200 		.ascii	"MR2\000"
 1621 08aa 12       		.byte	0x12
 1622 08ab 2601     		.2byte	0x126
 1623 08ad EA000000 		.4byte	0xea
 1624 08b1 20       		.byte	0x20
 1625 08b2 0E       		.uleb128 0xe
 1626 08b3 4D523300 		.ascii	"MR3\000"
 1627 08b7 12       		.byte	0x12
 1628 08b8 2701     		.2byte	0x127
 1629 08ba EA000000 		.4byte	0xea
 1630 08be 24       		.byte	0x24
 1631 08bf 0E       		.uleb128 0xe
 1632 08c0 43435200 		.ascii	"CCR\000"
 1633 08c4 12       		.byte	0x12
 1634 08c5 2801     		.2byte	0x128
 1635 08c7 EA000000 		.4byte	0xea
 1636 08cb 28       		.byte	0x28
 1637 08cc 0E       		.uleb128 0xe
 1638 08cd 43523000 		.ascii	"CR0\000"
 1639 08d1 12       		.byte	0x12
 1640 08d2 2901     		.2byte	0x129
 1641 08d4 EF000000 		.4byte	0xef
 1642 08d8 2C       		.byte	0x2c
 1643 08d9 0E       		.uleb128 0xe
 1644 08da 43523100 		.ascii	"CR1\000"
 1645 08de 12       		.byte	0x12
 1646 08df 2A01     		.2byte	0x12a
 1647 08e1 EF000000 		.4byte	0xef
 1648 08e5 30       		.byte	0x30
 1649 08e6 19       		.uleb128 0x19
 1650 08e7 58020000 		.4byte	.LASF127
 1651 08eb 12       		.byte	0x12
 1652 08ec 2B01     		.2byte	0x12b
 1653 08ee 01080000 		.4byte	0x801
ARM GAS  /tmp/ccH5YtAd.s 			page 30


 1654 08f2 34       		.byte	0x34
 1655 08f3 0E       		.uleb128 0xe
 1656 08f4 454D5200 		.ascii	"EMR\000"
 1657 08f8 12       		.byte	0x12
 1658 08f9 2C01     		.2byte	0x12c
 1659 08fb EA000000 		.4byte	0xea
 1660 08ff 3C       		.byte	0x3c
 1661 0900 19       		.uleb128 0x19
 1662 0901 62020000 		.4byte	.LASF128
 1663 0905 12       		.byte	0x12
 1664 0906 2D01     		.2byte	0x12d
 1665 0908 28080000 		.4byte	0x828
 1666 090c 40       		.byte	0x40
 1667 090d 19       		.uleb128 0x19
 1668 090e B2000000 		.4byte	.LASF129
 1669 0912 12       		.byte	0x12
 1670 0913 2E01     		.2byte	0x12e
 1671 0915 EA000000 		.4byte	0xea
 1672 0919 70       		.byte	0x70
 1673 091a 00       		.byte	0
 1674 091b 1A       		.uleb128 0x1a
 1675 091c F6050000 		.4byte	.LASF130
 1676 0920 12       		.byte	0x12
 1677 0921 2F01     		.2byte	0x12f
 1678 0923 38080000 		.4byte	0x838
 1679 0927 1B       		.uleb128 0x1b
 1680 0928 04       		.byte	0x4
 1681 0929 12       		.byte	0x12
 1682 092a 5201     		.2byte	0x152
 1683 092c 55090000 		.4byte	0x955
 1684 0930 1C       		.uleb128 0x1c
 1685 0931 52425200 		.ascii	"RBR\000"
 1686 0935 12       		.byte	0x12
 1687 0936 5301     		.2byte	0x153
 1688 0938 EF000000 		.4byte	0xef
 1689 093c 1C       		.uleb128 0x1c
 1690 093d 54485200 		.ascii	"THR\000"
 1691 0941 12       		.byte	0x12
 1692 0942 5401     		.2byte	0x154
 1693 0944 EA000000 		.4byte	0xea
 1694 0948 1C       		.uleb128 0x1c
 1695 0949 444C4C00 		.ascii	"DLL\000"
 1696 094d 12       		.byte	0x12
 1697 094e 5501     		.2byte	0x155
 1698 0950 EA000000 		.4byte	0xea
 1699 0954 00       		.byte	0
 1700 0955 1B       		.uleb128 0x1b
 1701 0956 04       		.byte	0x4
 1702 0957 12       		.byte	0x12
 1703 0958 5701     		.2byte	0x157
 1704 095a 77090000 		.4byte	0x977
 1705 095e 1C       		.uleb128 0x1c
 1706 095f 444C4D00 		.ascii	"DLM\000"
 1707 0963 12       		.byte	0x12
 1708 0964 5801     		.2byte	0x158
 1709 0966 EA000000 		.4byte	0xea
 1710 096a 1C       		.uleb128 0x1c
ARM GAS  /tmp/ccH5YtAd.s 			page 31


 1711 096b 49455200 		.ascii	"IER\000"
 1712 096f 12       		.byte	0x12
 1713 0970 5901     		.2byte	0x159
 1714 0972 EA000000 		.4byte	0xea
 1715 0976 00       		.byte	0
 1716 0977 1B       		.uleb128 0x1b
 1717 0978 04       		.byte	0x4
 1718 0979 12       		.byte	0x12
 1719 097a 5B01     		.2byte	0x15b
 1720 097c 99090000 		.4byte	0x999
 1721 0980 1C       		.uleb128 0x1c
 1722 0981 49495200 		.ascii	"IIR\000"
 1723 0985 12       		.byte	0x12
 1724 0986 5C01     		.2byte	0x15c
 1725 0988 EF000000 		.4byte	0xef
 1726 098c 1C       		.uleb128 0x1c
 1727 098d 46435200 		.ascii	"FCR\000"
 1728 0991 12       		.byte	0x12
 1729 0992 5D01     		.2byte	0x15d
 1730 0994 EA000000 		.4byte	0xea
 1731 0998 00       		.byte	0
 1732 0999 18       		.uleb128 0x18
 1733 099a 34       		.byte	0x34
 1734 099b 12       		.byte	0x12
 1735 099c 5001     		.2byte	0x150
 1736 099e 370A0000 		.4byte	0xa37
 1737 09a2 1D       		.uleb128 0x1d
 1738 09a3 27090000 		.4byte	0x927
 1739 09a7 00       		.byte	0
 1740 09a8 1D       		.uleb128 0x1d
 1741 09a9 55090000 		.4byte	0x955
 1742 09ad 04       		.byte	0x4
 1743 09ae 1D       		.uleb128 0x1d
 1744 09af 77090000 		.4byte	0x977
 1745 09b3 08       		.byte	0x8
 1746 09b4 0E       		.uleb128 0xe
 1747 09b5 4C435200 		.ascii	"LCR\000"
 1748 09b9 12       		.byte	0x12
 1749 09ba 5F01     		.2byte	0x15f
 1750 09bc EA000000 		.4byte	0xea
 1751 09c0 0C       		.byte	0xc
 1752 09c1 19       		.uleb128 0x19
 1753 09c2 58020000 		.4byte	.LASF127
 1754 09c6 12       		.byte	0x12
 1755 09c7 6001     		.2byte	0x160
 1756 09c9 DF000000 		.4byte	0xdf
 1757 09cd 10       		.byte	0x10
 1758 09ce 0E       		.uleb128 0xe
 1759 09cf 4C535200 		.ascii	"LSR\000"
 1760 09d3 12       		.byte	0x12
 1761 09d4 6101     		.2byte	0x161
 1762 09d6 EF000000 		.4byte	0xef
 1763 09da 14       		.byte	0x14
 1764 09db 19       		.uleb128 0x19
 1765 09dc 62020000 		.4byte	.LASF128
 1766 09e0 12       		.byte	0x12
 1767 09e1 6201     		.2byte	0x162
ARM GAS  /tmp/ccH5YtAd.s 			page 32


 1768 09e3 DF000000 		.4byte	0xdf
 1769 09e7 18       		.byte	0x18
 1770 09e8 0E       		.uleb128 0xe
 1771 09e9 53435200 		.ascii	"SCR\000"
 1772 09ed 12       		.byte	0x12
 1773 09ee 6301     		.2byte	0x163
 1774 09f0 EA000000 		.4byte	0xea
 1775 09f4 1C       		.byte	0x1c
 1776 09f5 0E       		.uleb128 0xe
 1777 09f6 41435200 		.ascii	"ACR\000"
 1778 09fa 12       		.byte	0x12
 1779 09fb 6401     		.2byte	0x164
 1780 09fd EA000000 		.4byte	0xea
 1781 0a01 20       		.byte	0x20
 1782 0a02 0E       		.uleb128 0xe
 1783 0a03 49435200 		.ascii	"ICR\000"
 1784 0a07 12       		.byte	0x12
 1785 0a08 6501     		.2byte	0x165
 1786 0a0a EA000000 		.4byte	0xea
 1787 0a0e 24       		.byte	0x24
 1788 0a0f 0E       		.uleb128 0xe
 1789 0a10 46445200 		.ascii	"FDR\000"
 1790 0a14 12       		.byte	0x12
 1791 0a15 6601     		.2byte	0x166
 1792 0a17 EA000000 		.4byte	0xea
 1793 0a1b 28       		.byte	0x28
 1794 0a1c 19       		.uleb128 0x19
 1795 0a1d A1020000 		.4byte	.LASF131
 1796 0a21 12       		.byte	0x12
 1797 0a22 6701     		.2byte	0x167
 1798 0a24 DF000000 		.4byte	0xdf
 1799 0a28 2C       		.byte	0x2c
 1800 0a29 0E       		.uleb128 0xe
 1801 0a2a 54455200 		.ascii	"TER\000"
 1802 0a2e 12       		.byte	0x12
 1803 0a2f 6801     		.2byte	0x168
 1804 0a31 EA000000 		.4byte	0xea
 1805 0a35 30       		.byte	0x30
 1806 0a36 00       		.byte	0
 1807 0a37 1A       		.uleb128 0x1a
 1808 0a38 06070000 		.4byte	.LASF132
 1809 0a3c 12       		.byte	0x12
 1810 0a3d 6901     		.2byte	0x169
 1811 0a3f 99090000 		.4byte	0x999
 1812 0a43 18       		.uleb128 0x18
 1813 0a44 14       		.byte	0x14
 1814 0a45 12       		.byte	0x12
 1815 0a46 B402     		.2byte	0x2b4
 1816 0a48 8E0A0000 		.4byte	0xa8e
 1817 0a4c 19       		.uleb128 0x19
 1818 0a4d 6D010000 		.4byte	.LASF133
 1819 0a51 12       		.byte	0x12
 1820 0a52 B602     		.2byte	0x2b6
 1821 0a54 EA000000 		.4byte	0xea
 1822 0a58 00       		.byte	0
 1823 0a59 19       		.uleb128 0x19
 1824 0a5a 36010000 		.4byte	.LASF134
ARM GAS  /tmp/ccH5YtAd.s 			page 33


 1825 0a5e 12       		.byte	0x12
 1826 0a5f B702     		.2byte	0x2b7
 1827 0a61 EA000000 		.4byte	0xea
 1828 0a65 04       		.byte	0x4
 1829 0a66 19       		.uleb128 0x19
 1830 0a67 17070000 		.4byte	.LASF135
 1831 0a6b 12       		.byte	0x12
 1832 0a6c B802     		.2byte	0x2b8
 1833 0a6e EA000000 		.4byte	0xea
 1834 0a72 08       		.byte	0x8
 1835 0a73 19       		.uleb128 0x19
 1836 0a74 6E030000 		.4byte	.LASF136
 1837 0a78 12       		.byte	0x12
 1838 0a79 B902     		.2byte	0x2b9
 1839 0a7b EA000000 		.4byte	0xea
 1840 0a7f 0C       		.byte	0xc
 1841 0a80 19       		.uleb128 0x19
 1842 0a81 0B080000 		.4byte	.LASF137
 1843 0a85 12       		.byte	0x12
 1844 0a86 BA02     		.2byte	0x2ba
 1845 0a88 EA000000 		.4byte	0xea
 1846 0a8c 10       		.byte	0x10
 1847 0a8d 00       		.byte	0
 1848 0a8e 1A       		.uleb128 0x1a
 1849 0a8f 98000000 		.4byte	.LASF138
 1850 0a93 12       		.byte	0x12
 1851 0a94 BB02     		.2byte	0x2bb
 1852 0a96 430A0000 		.4byte	0xa43
 1853 0a9a 15       		.uleb128 0x15
 1854 0a9b A50A0000 		.4byte	0xaa5
 1855 0a9f A50A0000 		.4byte	0xaa5
 1856 0aa3 1E       		.uleb128 0x1e
 1857 0aa4 00       		.byte	0
 1858 0aa5 0B       		.uleb128 0xb
 1859 0aa6 04       		.byte	0x4
 1860 0aa7 8E0A0000 		.4byte	0xa8e
 1861 0aab 17       		.uleb128 0x17
 1862 0aac D2030000 		.4byte	.LASF139
 1863 0ab0 13       		.byte	0x13
 1864 0ab1 9501     		.2byte	0x195
 1865 0ab3 9A0A0000 		.4byte	0xa9a
 1866 0ab7 14       		.uleb128 0x14
 1867 0ab8 3D010000 		.4byte	0x13d
 1868 0abc D00A0000 		.4byte	0xad0
 1869 0ac0 10       		.uleb128 0x10
 1870 0ac1 D3020000 		.4byte	0x2d3
 1871 0ac5 10       		.uleb128 0x10
 1872 0ac6 B4000000 		.4byte	0xb4
 1873 0aca 10       		.uleb128 0x10
 1874 0acb 5E010000 		.4byte	0x15e
 1875 0acf 00       		.byte	0
 1876 0ad0 0B       		.uleb128 0xb
 1877 0ad1 04       		.byte	0x4
 1878 0ad2 B70A0000 		.4byte	0xab7
 1879 0ad6 14       		.uleb128 0x14
 1880 0ad7 3D010000 		.4byte	0x13d
 1881 0adb EA0A0000 		.4byte	0xaea
ARM GAS  /tmp/ccH5YtAd.s 			page 34


 1882 0adf 10       		.uleb128 0x10
 1883 0ae0 D3020000 		.4byte	0x2d3
 1884 0ae4 10       		.uleb128 0x10
 1885 0ae5 5E010000 		.4byte	0x15e
 1886 0ae9 00       		.byte	0
 1887 0aea 0B       		.uleb128 0xb
 1888 0aeb 04       		.byte	0x4
 1889 0aec D60A0000 		.4byte	0xad6
 1890 0af0 14       		.uleb128 0x14
 1891 0af1 2C000000 		.4byte	0x2c
 1892 0af5 0E0B0000 		.4byte	0xb0e
 1893 0af9 10       		.uleb128 0x10
 1894 0afa D3020000 		.4byte	0x2d3
 1895 0afe 10       		.uleb128 0x10
 1896 0aff A1070000 		.4byte	0x7a1
 1897 0b03 10       		.uleb128 0x10
 1898 0b04 2C000000 		.4byte	0x2c
 1899 0b08 10       		.uleb128 0x10
 1900 0b09 5E010000 		.4byte	0x15e
 1901 0b0d 00       		.byte	0
 1902 0b0e 0B       		.uleb128 0xb
 1903 0b0f 04       		.byte	0x4
 1904 0b10 F00A0000 		.4byte	0xaf0
 1905 0b14 14       		.uleb128 0x14
 1906 0b15 2C000000 		.4byte	0x2c
 1907 0b19 320B0000 		.4byte	0xb32
 1908 0b1d 10       		.uleb128 0x10
 1909 0b1e D3020000 		.4byte	0x2d3
 1910 0b22 10       		.uleb128 0x10
 1911 0b23 6C070000 		.4byte	0x76c
 1912 0b27 10       		.uleb128 0x10
 1913 0b28 2C000000 		.4byte	0x2c
 1914 0b2c 10       		.uleb128 0x10
 1915 0b2d 5E010000 		.4byte	0x15e
 1916 0b31 00       		.byte	0
 1917 0b32 0B       		.uleb128 0xb
 1918 0b33 04       		.byte	0x4
 1919 0b34 140B0000 		.4byte	0xb14
 1920 0b38 0A       		.uleb128 0xa
 1921 0b39 08       		.byte	0x8
 1922 0b3a 14       		.byte	0x14
 1923 0b3b 2E       		.byte	0x2e
 1924 0b3c 590B0000 		.4byte	0xb59
 1925 0b40 08       		.uleb128 0x8
 1926 0b41 CF080000 		.4byte	.LASF140
 1927 0b45 14       		.byte	0x14
 1928 0b46 30       		.byte	0x30
 1929 0b47 DF000000 		.4byte	0xdf
 1930 0b4b 00       		.byte	0
 1931 0b4c 09       		.uleb128 0x9
 1932 0b4d 64697200 		.ascii	"dir\000"
 1933 0b51 14       		.byte	0x14
 1934 0b52 32       		.byte	0x32
 1935 0b53 DF000000 		.4byte	0xdf
 1936 0b57 04       		.byte	0x4
 1937 0b58 00       		.byte	0
 1938 0b59 03       		.uleb128 0x3
ARM GAS  /tmp/ccH5YtAd.s 			page 35


 1939 0b5a D1070000 		.4byte	.LASF141
 1940 0b5e 14       		.byte	0x14
 1941 0b5f 33       		.byte	0x33
 1942 0b60 380B0000 		.4byte	0xb38
 1943 0b64 0A       		.uleb128 0xa
 1944 0b65 28       		.byte	0x28
 1945 0b66 14       		.byte	0x14
 1946 0b67 41       		.byte	0x41
 1947 0b68 A40B0000 		.4byte	0xba4
 1948 0b6c 09       		.uleb128 0x9
 1949 0b6d 503000   		.ascii	"P0\000"
 1950 0b70 14       		.byte	0x14
 1951 0b71 43       		.byte	0x43
 1952 0b72 590B0000 		.4byte	0xb59
 1953 0b76 00       		.byte	0
 1954 0b77 09       		.uleb128 0x9
 1955 0b78 503100   		.ascii	"P1\000"
 1956 0b7b 14       		.byte	0x14
 1957 0b7c 45       		.byte	0x45
 1958 0b7d 590B0000 		.4byte	0xb59
 1959 0b81 08       		.byte	0x8
 1960 0b82 09       		.uleb128 0x9
 1961 0b83 503200   		.ascii	"P2\000"
 1962 0b86 14       		.byte	0x14
 1963 0b87 47       		.byte	0x47
 1964 0b88 590B0000 		.4byte	0xb59
 1965 0b8c 10       		.byte	0x10
 1966 0b8d 09       		.uleb128 0x9
 1967 0b8e 503300   		.ascii	"P3\000"
 1968 0b91 14       		.byte	0x14
 1969 0b92 49       		.byte	0x49
 1970 0b93 590B0000 		.4byte	0xb59
 1971 0b97 18       		.byte	0x18
 1972 0b98 09       		.uleb128 0x9
 1973 0b99 503400   		.ascii	"P4\000"
 1974 0b9c 14       		.byte	0x14
 1975 0b9d 4B       		.byte	0x4b
 1976 0b9e 590B0000 		.4byte	0xb59
 1977 0ba2 20       		.byte	0x20
 1978 0ba3 00       		.byte	0
 1979 0ba4 03       		.uleb128 0x3
 1980 0ba5 F3070000 		.4byte	.LASF142
 1981 0ba9 14       		.byte	0x14
 1982 0baa 4C       		.byte	0x4c
 1983 0bab 640B0000 		.4byte	0xb64
 1984 0baf 05       		.uleb128 0x5
 1985 0bb0 A40B0000 		.4byte	0xba4
 1986 0bb4 17       		.uleb128 0x17
 1987 0bb5 13020000 		.4byte	.LASF143
 1988 0bb9 14       		.byte	0x14
 1989 0bba 3301     		.2byte	0x133
 1990 0bbc AF0B0000 		.4byte	0xbaf
 1991 0bc0 1F       		.uleb128 0x1f
 1992 0bc1 01       		.byte	0x1
 1993 0bc2 5E000000 		.4byte	0x5e
 1994 0bc6 15       		.byte	0x15
 1995 0bc7 35       		.byte	0x35
ARM GAS  /tmp/ccH5YtAd.s 			page 36


 1996 0bc8 EB0B0000 		.4byte	0xbeb
 1997 0bcc 20       		.uleb128 0x20
 1998 0bcd B0020000 		.4byte	.LASF144
 1999 0bd1 00       		.byte	0
 2000 0bd2 20       		.uleb128 0x20
 2001 0bd3 63080000 		.4byte	.LASF145
 2002 0bd7 01       		.byte	0x1
 2003 0bd8 20       		.uleb128 0x20
 2004 0bd9 DC060000 		.4byte	.LASF146
 2005 0bdd 02       		.byte	0x2
 2006 0bde 20       		.uleb128 0x20
 2007 0bdf E6060000 		.4byte	.LASF147
 2008 0be3 03       		.byte	0x3
 2009 0be4 20       		.uleb128 0x20
 2010 0be5 CD040000 		.4byte	.LASF148
 2011 0be9 04       		.byte	0x4
 2012 0bea 00       		.byte	0
 2013 0beb 03       		.uleb128 0x3
 2014 0bec D4000000 		.4byte	.LASF149
 2015 0bf0 15       		.byte	0x15
 2016 0bf1 3B       		.byte	0x3b
 2017 0bf2 C00B0000 		.4byte	0xbc0
 2018 0bf6 03       		.uleb128 0x3
 2019 0bf7 6D040000 		.4byte	.LASF150
 2020 0bfb 15       		.byte	0x15
 2021 0bfc 40       		.byte	0x40
 2022 0bfd 010C0000 		.4byte	0xc01
 2023 0c01 07       		.uleb128 0x7
 2024 0c02 6D040000 		.4byte	.LASF150
 2025 0c06 10       		.byte	0x10
 2026 0c07 16       		.byte	0x16
 2027 0c08 93       		.byte	0x93
 2028 0c09 3E0C0000 		.4byte	0xc3e
 2029 0c0d 08       		.uleb128 0x8
 2030 0c0e E6000000 		.4byte	.LASF151
 2031 0c12 16       		.byte	0x16
 2032 0c13 97       		.byte	0x97
 2033 0c14 EB0B0000 		.4byte	0xbeb
 2034 0c18 00       		.byte	0
 2035 0c19 08       		.uleb128 0x8
 2036 0c1a DF000000 		.4byte	.LASF152
 2037 0c1e 16       		.byte	0x16
 2038 0c1f 9B       		.byte	0x9b
 2039 0c20 A70C0000 		.4byte	0xca7
 2040 0c24 04       		.byte	0x4
 2041 0c25 08       		.uleb128 0x8
 2042 0c26 14040000 		.4byte	.LASF153
 2043 0c2a 16       		.byte	0x16
 2044 0c2b A0       		.byte	0xa0
 2045 0c2c DF000000 		.4byte	0xdf
 2046 0c30 08       		.byte	0x8
 2047 0c31 09       		.uleb128 0x9
 2048 0c32 746D7200 		.ascii	"tmr\000"
 2049 0c36 16       		.byte	0x16
 2050 0c37 A4       		.byte	0xa4
 2051 0c38 AD0C0000 		.4byte	0xcad
 2052 0c3c 0C       		.byte	0xc
ARM GAS  /tmp/ccH5YtAd.s 			page 37


 2053 0c3d 00       		.byte	0
 2054 0c3e 03       		.uleb128 0x3
 2055 0c3f E9080000 		.4byte	.LASF154
 2056 0c43 15       		.byte	0x15
 2057 0c44 47       		.byte	0x47
 2058 0c45 490C0000 		.4byte	0xc49
 2059 0c49 0B       		.uleb128 0xb
 2060 0c4a 04       		.byte	0x4
 2061 0c4b 4F0C0000 		.4byte	0xc4f
 2062 0c4f 0F       		.uleb128 0xf
 2063 0c50 5A0C0000 		.4byte	0xc5a
 2064 0c54 10       		.uleb128 0x10
 2065 0c55 5A0C0000 		.4byte	0xc5a
 2066 0c59 00       		.byte	0
 2067 0c5a 0B       		.uleb128 0xb
 2068 0c5b 04       		.byte	0x4
 2069 0c5c F60B0000 		.4byte	0xbf6
 2070 0c60 03       		.uleb128 0x3
 2071 0c61 B8030000 		.4byte	.LASF155
 2072 0c65 16       		.byte	0x16
 2073 0c66 76       		.byte	0x76
 2074 0c67 DF000000 		.4byte	0xdf
 2075 0c6b 03       		.uleb128 0x3
 2076 0c6c 49070000 		.4byte	.LASF156
 2077 0c70 16       		.byte	0x16
 2078 0c71 7B       		.byte	0x7b
 2079 0c72 DF000000 		.4byte	0xdf
 2080 0c76 0A       		.uleb128 0xa
 2081 0c77 08       		.byte	0x8
 2082 0c78 16       		.byte	0x16
 2083 0c79 81       		.byte	0x81
 2084 0c7a 970C0000 		.4byte	0xc97
 2085 0c7e 08       		.uleb128 0x8
 2086 0c7f A1040000 		.4byte	.LASF157
 2087 0c83 16       		.byte	0x16
 2088 0c84 87       		.byte	0x87
 2089 0c85 600C0000 		.4byte	0xc60
 2090 0c89 00       		.byte	0
 2091 0c8a 08       		.uleb128 0x8
 2092 0c8b 05010000 		.4byte	.LASF158
 2093 0c8f 16       		.byte	0x16
 2094 0c90 8C       		.byte	0x8c
 2095 0c91 3E0C0000 		.4byte	0xc3e
 2096 0c95 04       		.byte	0x4
 2097 0c96 00       		.byte	0
 2098 0c97 03       		.uleb128 0x3
 2099 0c98 1A040000 		.4byte	.LASF159
 2100 0c9c 16       		.byte	0x16
 2101 0c9d 8E       		.byte	0x8e
 2102 0c9e 760C0000 		.4byte	0xc76
 2103 0ca2 05       		.uleb128 0x5
 2104 0ca3 970C0000 		.4byte	0xc97
 2105 0ca7 0B       		.uleb128 0xb
 2106 0ca8 04       		.byte	0x4
 2107 0ca9 A20C0000 		.4byte	0xca2
 2108 0cad 0B       		.uleb128 0xb
 2109 0cae 04       		.byte	0x4
ARM GAS  /tmp/ccH5YtAd.s 			page 38


 2110 0caf 1B090000 		.4byte	0x91b
 2111 0cb3 11       		.uleb128 0x11
 2112 0cb4 B3010000 		.4byte	.LASF160
 2113 0cb8 16       		.byte	0x16
 2114 0cb9 B0       		.byte	0xb0
 2115 0cba F60B0000 		.4byte	0xbf6
 2116 0cbe 11       		.uleb128 0x11
 2117 0cbf B9010000 		.4byte	.LASF161
 2118 0cc3 16       		.byte	0x16
 2119 0cc4 B4       		.byte	0xb4
 2120 0cc5 F60B0000 		.4byte	0xbf6
 2121 0cc9 11       		.uleb128 0x11
 2122 0cca BF010000 		.4byte	.LASF162
 2123 0cce 16       		.byte	0x16
 2124 0ccf B8       		.byte	0xb8
 2125 0cd0 F60B0000 		.4byte	0xbf6
 2126 0cd4 11       		.uleb128 0x11
 2127 0cd5 C5010000 		.4byte	.LASF163
 2128 0cd9 16       		.byte	0x16
 2129 0cda BC       		.byte	0xbc
 2130 0cdb F60B0000 		.4byte	0xbf6
 2131 0cdf 1F       		.uleb128 0x1f
 2132 0ce0 01       		.byte	0x1
 2133 0ce1 5E000000 		.4byte	0x5e
 2134 0ce5 17       		.byte	0x17
 2135 0ce6 5D       		.byte	0x5d
 2136 0ce7 FE0C0000 		.4byte	0xcfe
 2137 0ceb 20       		.uleb128 0x20
 2138 0cec 91020000 		.4byte	.LASF164
 2139 0cf0 00       		.byte	0
 2140 0cf1 20       		.uleb128 0x20
 2141 0cf2 A6080000 		.4byte	.LASF165
 2142 0cf6 01       		.byte	0x1
 2143 0cf7 20       		.uleb128 0x20
 2144 0cf8 6A070000 		.4byte	.LASF166
 2145 0cfc 02       		.byte	0x2
 2146 0cfd 00       		.byte	0
 2147 0cfe 03       		.uleb128 0x3
 2148 0cff F6040000 		.4byte	.LASF167
 2149 0d03 17       		.byte	0x17
 2150 0d04 61       		.byte	0x61
 2151 0d05 DF0C0000 		.4byte	0xcdf
 2152 0d09 03       		.uleb128 0x3
 2153 0d0a 24070000 		.4byte	.LASF168
 2154 0d0e 17       		.byte	0x17
 2155 0d0f 66       		.byte	0x66
 2156 0d10 140D0000 		.4byte	0xd14
 2157 0d14 07       		.uleb128 0x7
 2158 0d15 24070000 		.4byte	.LASF168
 2159 0d19 78       		.byte	0x78
 2160 0d1a 17       		.byte	0x17
 2161 0d1b 80       		.byte	0x80
 2162 0d1c 7F0D0000 		.4byte	0xd7f
 2163 0d20 09       		.uleb128 0x9
 2164 0d21 766D7400 		.ascii	"vmt\000"
 2165 0d25 17       		.byte	0x17
 2166 0d26 82       		.byte	0x82
ARM GAS  /tmp/ccH5YtAd.s 			page 39


 2167 0d27 070E0000 		.4byte	0xe07
 2168 0d2b 00       		.byte	0
 2169 0d2c 08       		.uleb128 0x8
 2170 0d2d E3040000 		.4byte	.LASF169
 2171 0d31 17       		.byte	0x17
 2172 0d32 83       		.byte	0x83
 2173 0d33 59050000 		.4byte	0x559
 2174 0d37 04       		.byte	0x4
 2175 0d38 08       		.uleb128 0x8
 2176 0d39 E6000000 		.4byte	.LASF151
 2177 0d3d 17       		.byte	0x17
 2178 0d3e 83       		.byte	0x83
 2179 0d3f FE0C0000 		.4byte	0xcfe
 2180 0d43 08       		.byte	0x8
 2181 0d44 08       		.uleb128 0x8
 2182 0d45 C3070000 		.4byte	.LASF170
 2183 0d49 17       		.byte	0x17
 2184 0d4a 83       		.byte	0x83
 2185 0d4b 72070000 		.4byte	0x772
 2186 0d4f 0C       		.byte	0xc
 2187 0d50 08       		.uleb128 0x8
 2188 0d51 03020000 		.4byte	.LASF171
 2189 0d55 17       		.byte	0x17
 2190 0d56 83       		.byte	0x83
 2191 0d57 7D070000 		.4byte	0x77d
 2192 0d5b 30       		.byte	0x30
 2193 0d5c 09       		.uleb128 0x9
 2194 0d5d 696200   		.ascii	"ib\000"
 2195 0d60 17       		.byte	0x17
 2196 0d61 83       		.byte	0x83
 2197 0d62 0D0E0000 		.4byte	0xe0d
 2198 0d66 54       		.byte	0x54
 2199 0d67 09       		.uleb128 0x9
 2200 0d68 6F6200   		.ascii	"ob\000"
 2201 0d6b 17       		.byte	0x17
 2202 0d6c 83       		.byte	0x83
 2203 0d6d 0D0E0000 		.4byte	0xe0d
 2204 0d71 64       		.byte	0x64
 2205 0d72 08       		.uleb128 0x8
 2206 0d73 AF070000 		.4byte	.LASF172
 2207 0d77 17       		.byte	0x17
 2208 0d78 83       		.byte	0x83
 2209 0d79 1D0E0000 		.4byte	0xe1d
 2210 0d7d 74       		.byte	0x74
 2211 0d7e 00       		.byte	0
 2212 0d7f 21       		.uleb128 0x21
 2213 0d80 53443100 		.ascii	"SD1\000"
 2214 0d84 18       		.byte	0x18
 2215 0d85 EF       		.byte	0xef
 2216 0d86 090D0000 		.4byte	0xd09
 2217 0d8a 21       		.uleb128 0x21
 2218 0d8b 53443300 		.ascii	"SD3\000"
 2219 0d8f 18       		.byte	0x18
 2220 0d90 F7       		.byte	0xf7
 2221 0d91 090D0000 		.4byte	0xd09
 2222 0d95 07       		.uleb128 0x7
 2223 0d96 F0030000 		.4byte	.LASF173
ARM GAS  /tmp/ccH5YtAd.s 			page 40


 2224 0d9a 20       		.byte	0x20
 2225 0d9b 17       		.byte	0x17
 2226 0d9c 75       		.byte	0x75
 2227 0d9d 020E0000 		.4byte	0xe02
 2228 0da1 08       		.uleb128 0x8
 2229 0da2 AC000000 		.4byte	.LASF174
 2230 0da6 17       		.byte	0x17
 2231 0da7 76       		.byte	0x76
 2232 0da8 A7070000 		.4byte	0x7a7
 2233 0dac 00       		.byte	0
 2234 0dad 08       		.uleb128 0x8
 2235 0dae F1040000 		.4byte	.LASF175
 2236 0db2 17       		.byte	0x17
 2237 0db3 76       		.byte	0x76
 2238 0db4 C6070000 		.4byte	0x7c6
 2239 0db8 04       		.byte	0x4
 2240 0db9 09       		.uleb128 0x9
 2241 0dba 70757400 		.ascii	"put\000"
 2242 0dbe 17       		.byte	0x17
 2243 0dbf 76       		.byte	0x76
 2244 0dc0 E0070000 		.4byte	0x7e0
 2245 0dc4 08       		.byte	0x8
 2246 0dc5 09       		.uleb128 0x9
 2247 0dc6 67657400 		.ascii	"get\000"
 2248 0dca 17       		.byte	0x17
 2249 0dcb 76       		.byte	0x76
 2250 0dcc B1050000 		.4byte	0x5b1
 2251 0dd0 0C       		.byte	0xc
 2252 0dd1 08       		.uleb128 0x8
 2253 0dd2 EC000000 		.4byte	.LASF176
 2254 0dd6 17       		.byte	0x17
 2255 0dd7 76       		.byte	0x76
 2256 0dd8 D00A0000 		.4byte	0xad0
 2257 0ddc 10       		.byte	0x10
 2258 0ddd 08       		.uleb128 0x8
 2259 0dde FB020000 		.4byte	.LASF177
 2260 0de2 17       		.byte	0x17
 2261 0de3 76       		.byte	0x76
 2262 0de4 EA0A0000 		.4byte	0xaea
 2263 0de8 14       		.byte	0x14
 2264 0de9 08       		.uleb128 0x8
 2265 0dea 6C000000 		.4byte	.LASF178
 2266 0dee 17       		.byte	0x17
 2267 0def 76       		.byte	0x76
 2268 0df0 0E0B0000 		.4byte	0xb0e
 2269 0df4 18       		.byte	0x18
 2270 0df5 08       		.uleb128 0x8
 2271 0df6 5E010000 		.4byte	.LASF179
 2272 0dfa 17       		.byte	0x17
 2273 0dfb 76       		.byte	0x76
 2274 0dfc 320B0000 		.4byte	0xb32
 2275 0e00 1C       		.byte	0x1c
 2276 0e01 00       		.byte	0
 2277 0e02 05       		.uleb128 0x5
 2278 0e03 950D0000 		.4byte	0xd95
 2279 0e07 0B       		.uleb128 0xb
 2280 0e08 04       		.byte	0x4
ARM GAS  /tmp/ccH5YtAd.s 			page 41


 2281 0e09 020E0000 		.4byte	0xe02
 2282 0e0d 15       		.uleb128 0x15
 2283 0e0e B4000000 		.4byte	0xb4
 2284 0e12 1D0E0000 		.4byte	0xe1d
 2285 0e16 16       		.uleb128 0x16
 2286 0e17 7D030000 		.4byte	0x37d
 2287 0e1b 0F       		.byte	0xf
 2288 0e1c 00       		.byte	0
 2289 0e1d 0B       		.uleb128 0xb
 2290 0e1e 04       		.byte	0x4
 2291 0e1f 370A0000 		.4byte	0xa37
 2292 0e23 22       		.uleb128 0x22
 2293 0e24 B4070000 		.4byte	.LASF182
 2294 0e28 01       		.byte	0x1
 2295 0e29 0001     		.2byte	0x100
 2296 0e2b 00000000 		.4byte	.LFB74
 2297 0e2f 12000000 		.4byte	.LFE74-.LFB74
 2298 0e33 01       		.uleb128 0x1
 2299 0e34 9C       		.byte	0x9c
 2300 0e35 710E0000 		.4byte	0xe71
 2301 0e39 23       		.uleb128 0x23
 2302 0e3a 8F040000 		.4byte	.LASF180
 2303 0e3e 01       		.byte	0x1
 2304 0e3f 0001     		.2byte	0x100
 2305 0e41 5A0C0000 		.4byte	0xc5a
 2306 0e45 00000000 		.4byte	.LLST20
 2307 0e49 23       		.uleb128 0x23
 2308 0e4a 55010000 		.4byte	.LASF181
 2309 0e4e 01       		.byte	0x1
 2310 0e4f 0001     		.2byte	0x100
 2311 0e51 6B0C0000 		.4byte	0xc6b
 2312 0e55 1E000000 		.4byte	.LLST21
 2313 0e59 24       		.uleb128 0x24
 2314 0e5a 0C000000 		.4byte	.LVL24
 2315 0e5e FA120000 		.4byte	0x12fa
 2316 0e62 25       		.uleb128 0x25
 2317 0e63 01       		.uleb128 0x1
 2318 0e64 50       		.byte	0x50
 2319 0e65 02       		.uleb128 0x2
 2320 0e66 74       		.byte	0x74
 2321 0e67 00       		.sleb128 0
 2322 0e68 25       		.uleb128 0x25
 2323 0e69 01       		.uleb128 0x1
 2324 0e6a 51       		.byte	0x51
 2325 0e6b 03       		.uleb128 0x3
 2326 0e6c F3       		.byte	0xf3
 2327 0e6d 01       		.uleb128 0x1
 2328 0e6e 51       		.byte	0x51
 2329 0e6f 00       		.byte	0
 2330 0e70 00       		.byte	0
 2331 0e71 26       		.uleb128 0x26
 2332 0e72 7B070000 		.4byte	.LASF184
 2333 0e76 01       		.byte	0x1
 2334 0e77 E8       		.byte	0xe8
 2335 0e78 01       		.byte	0x1
 2336 0e79 890E0000 		.4byte	0xe89
 2337 0e7d 27       		.uleb128 0x27
ARM GAS  /tmp/ccH5YtAd.s 			page 42


 2338 0e7e 8F040000 		.4byte	.LASF180
 2339 0e82 01       		.byte	0x1
 2340 0e83 E8       		.byte	0xe8
 2341 0e84 5A0C0000 		.4byte	0xc5a
 2342 0e88 00       		.byte	0
 2343 0e89 28       		.uleb128 0x28
 2344 0e8a E1020000 		.4byte	.LASF183
 2345 0e8e 01       		.byte	0x1
 2346 0e8f DA       		.byte	0xda
 2347 0e90 00000000 		.4byte	.LFB72
 2348 0e94 18000000 		.4byte	.LFE72-.LFB72
 2349 0e98 01       		.uleb128 0x1
 2350 0e99 9C       		.byte	0x9c
 2351 0e9a 0E0F0000 		.4byte	0xf0e
 2352 0e9e 29       		.uleb128 0x29
 2353 0e9f 8F040000 		.4byte	.LASF180
 2354 0ea3 01       		.byte	0x1
 2355 0ea4 DA       		.byte	0xda
 2356 0ea5 5A0C0000 		.4byte	0xc5a
 2357 0ea9 3F000000 		.4byte	.LLST17
 2358 0ead 2A       		.uleb128 0x2a
 2359 0eae 02000000 		.4byte	.LBB33
 2360 0eb2 06000000 		.4byte	.LBE33-.LBB33
 2361 0eb6 C80E0000 		.4byte	0xec8
 2362 0eba 2B       		.uleb128 0x2b
 2363 0ebb 746D7000 		.ascii	"tmp\000"
 2364 0ebf 01       		.byte	0x1
 2365 0ec0 DC       		.byte	0xdc
 2366 0ec1 DF000000 		.4byte	0xdf
 2367 0ec5 01       		.uleb128 0x1
 2368 0ec6 53       		.byte	0x53
 2369 0ec7 00       		.byte	0
 2370 0ec8 2A       		.uleb128 0x2a
 2371 0ec9 10000000 		.4byte	.LBB36
 2372 0ecd 08000000 		.4byte	.LBE36-.LBB36
 2373 0ed1 E30E0000 		.4byte	0xee3
 2374 0ed5 2B       		.uleb128 0x2b
 2375 0ed6 746D7000 		.ascii	"tmp\000"
 2376 0eda 01       		.byte	0x1
 2377 0edb DE       		.byte	0xde
 2378 0edc DF000000 		.4byte	0xdf
 2379 0ee0 01       		.uleb128 0x1
 2380 0ee1 53       		.byte	0x53
 2381 0ee2 00       		.byte	0
 2382 0ee3 2C       		.uleb128 0x2c
 2383 0ee4 710E0000 		.4byte	0xe71
 2384 0ee8 08000000 		.4byte	.LBB34
 2385 0eec 08000000 		.4byte	.LBE34-.LBB34
 2386 0ef0 01       		.byte	0x1
 2387 0ef1 DD       		.byte	0xdd
 2388 0ef2 2D       		.uleb128 0x2d
 2389 0ef3 7D0E0000 		.4byte	0xe7d
 2390 0ef7 60000000 		.4byte	.LLST18
 2391 0efb 24       		.uleb128 0x24
 2392 0efc 10000000 		.4byte	.LVL20
 2393 0f00 05130000 		.4byte	0x1305
 2394 0f04 25       		.uleb128 0x25
ARM GAS  /tmp/ccH5YtAd.s 			page 43


 2395 0f05 01       		.uleb128 0x1
 2396 0f06 50       		.byte	0x50
 2397 0f07 03       		.uleb128 0x3
 2398 0f08 F3       		.byte	0xf3
 2399 0f09 01       		.uleb128 0x1
 2400 0f0a 50       		.byte	0x50
 2401 0f0b 00       		.byte	0
 2402 0f0c 00       		.byte	0
 2403 0f0d 00       		.byte	0
 2404 0f0e 26       		.uleb128 0x26
 2405 0f0f 87000000 		.4byte	.LASF185
 2406 0f13 01       		.byte	0x1
 2407 0f14 C8       		.byte	0xc8
 2408 0f15 01       		.byte	0x1
 2409 0f16 310F0000 		.4byte	0xf31
 2410 0f1a 27       		.uleb128 0x27
 2411 0f1b 8F040000 		.4byte	.LASF180
 2412 0f1f 01       		.byte	0x1
 2413 0f20 C8       		.byte	0xc8
 2414 0f21 5A0C0000 		.4byte	0xc5a
 2415 0f25 27       		.uleb128 0x27
 2416 0f26 55010000 		.4byte	.LASF181
 2417 0f2a 01       		.byte	0x1
 2418 0f2b C8       		.byte	0xc8
 2419 0f2c 6B0C0000 		.4byte	0xc6b
 2420 0f30 00       		.byte	0
 2421 0f31 28       		.uleb128 0x28
 2422 0f32 7F040000 		.4byte	.LASF186
 2423 0f36 01       		.byte	0x1
 2424 0f37 B9       		.byte	0xb9
 2425 0f38 00000000 		.4byte	.LFB70
 2426 0f3c 18000000 		.4byte	.LFE70-.LFB70
 2427 0f40 01       		.uleb128 0x1
 2428 0f41 9C       		.byte	0x9c
 2429 0f42 D50F0000 		.4byte	0xfd5
 2430 0f46 29       		.uleb128 0x29
 2431 0f47 8F040000 		.4byte	.LASF180
 2432 0f4b 01       		.byte	0x1
 2433 0f4c B9       		.byte	0xb9
 2434 0f4d 5A0C0000 		.4byte	0xc5a
 2435 0f51 81000000 		.4byte	.LLST11
 2436 0f55 29       		.uleb128 0x29
 2437 0f56 55010000 		.4byte	.LASF181
 2438 0f5a 01       		.byte	0x1
 2439 0f5b B9       		.byte	0xb9
 2440 0f5c 6B0C0000 		.4byte	0xc6b
 2441 0f60 A2000000 		.4byte	.LLST12
 2442 0f64 2A       		.uleb128 0x2a
 2443 0f65 02000000 		.4byte	.LBB29
 2444 0f69 06000000 		.4byte	.LBE29-.LBB29
 2445 0f6d 7F0F0000 		.4byte	0xf7f
 2446 0f71 2B       		.uleb128 0x2b
 2447 0f72 746D7000 		.ascii	"tmp\000"
 2448 0f76 01       		.byte	0x1
 2449 0f77 BB       		.byte	0xbb
 2450 0f78 DF000000 		.4byte	0xdf
 2451 0f7c 01       		.uleb128 0x1
ARM GAS  /tmp/ccH5YtAd.s 			page 44


 2452 0f7d 53       		.byte	0x53
 2453 0f7e 00       		.byte	0
 2454 0f7f 2A       		.uleb128 0x2a
 2455 0f80 10000000 		.4byte	.LBB32
 2456 0f84 08000000 		.4byte	.LBE32-.LBB32
 2457 0f88 9A0F0000 		.4byte	0xf9a
 2458 0f8c 2B       		.uleb128 0x2b
 2459 0f8d 746D7000 		.ascii	"tmp\000"
 2460 0f91 01       		.byte	0x1
 2461 0f92 BD       		.byte	0xbd
 2462 0f93 DF000000 		.4byte	0xdf
 2463 0f97 01       		.uleb128 0x1
 2464 0f98 53       		.byte	0x53
 2465 0f99 00       		.byte	0
 2466 0f9a 2C       		.uleb128 0x2c
 2467 0f9b 0E0F0000 		.4byte	0xf0e
 2468 0f9f 08000000 		.4byte	.LBB30
 2469 0fa3 08000000 		.4byte	.LBE30-.LBB30
 2470 0fa7 01       		.byte	0x1
 2471 0fa8 BC       		.byte	0xbc
 2472 0fa9 2D       		.uleb128 0x2d
 2473 0faa 250F0000 		.4byte	0xf25
 2474 0fae C3000000 		.4byte	.LLST13
 2475 0fb2 2D       		.uleb128 0x2d
 2476 0fb3 1A0F0000 		.4byte	0xf1a
 2477 0fb7 E4000000 		.4byte	.LLST14
 2478 0fbb 24       		.uleb128 0x24
 2479 0fbc 10000000 		.4byte	.LVL15
 2480 0fc0 10130000 		.4byte	0x1310
 2481 0fc4 25       		.uleb128 0x25
 2482 0fc5 01       		.uleb128 0x1
 2483 0fc6 50       		.byte	0x50
 2484 0fc7 03       		.uleb128 0x3
 2485 0fc8 F3       		.byte	0xf3
 2486 0fc9 01       		.uleb128 0x1
 2487 0fca 50       		.byte	0x50
 2488 0fcb 25       		.uleb128 0x25
 2489 0fcc 01       		.uleb128 0x1
 2490 0fcd 51       		.byte	0x51
 2491 0fce 03       		.uleb128 0x3
 2492 0fcf F3       		.byte	0xf3
 2493 0fd0 01       		.uleb128 0x1
 2494 0fd1 51       		.byte	0x51
 2495 0fd2 00       		.byte	0
 2496 0fd3 00       		.byte	0
 2497 0fd4 00       		.byte	0
 2498 0fd5 26       		.uleb128 0x26
 2499 0fd6 C0000000 		.4byte	.LASF187
 2500 0fda 01       		.byte	0x1
 2501 0fdb A6       		.byte	0xa6
 2502 0fdc 01       		.byte	0x1
 2503 0fdd F80F0000 		.4byte	0xff8
 2504 0fe1 27       		.uleb128 0x27
 2505 0fe2 8F040000 		.4byte	.LASF180
 2506 0fe6 01       		.byte	0x1
 2507 0fe7 A6       		.byte	0xa6
 2508 0fe8 5A0C0000 		.4byte	0xc5a
ARM GAS  /tmp/ccH5YtAd.s 			page 45


 2509 0fec 27       		.uleb128 0x27
 2510 0fed 55010000 		.4byte	.LASF181
 2511 0ff1 01       		.byte	0x1
 2512 0ff2 A6       		.byte	0xa6
 2513 0ff3 6B0C0000 		.4byte	0xc6b
 2514 0ff7 00       		.byte	0
 2515 0ff8 28       		.uleb128 0x28
 2516 0ff9 9C070000 		.4byte	.LASF188
 2517 0ffd 01       		.byte	0x1
 2518 0ffe 97       		.byte	0x97
 2519 0fff 00000000 		.4byte	.LFB68
 2520 1003 18000000 		.4byte	.LFE68-.LFB68
 2521 1007 01       		.uleb128 0x1
 2522 1008 9C       		.byte	0x9c
 2523 1009 9C100000 		.4byte	0x109c
 2524 100d 29       		.uleb128 0x29
 2525 100e 8F040000 		.4byte	.LASF180
 2526 1012 01       		.byte	0x1
 2527 1013 97       		.byte	0x97
 2528 1014 5A0C0000 		.4byte	0xc5a
 2529 1018 05010000 		.4byte	.LLST5
 2530 101c 29       		.uleb128 0x29
 2531 101d 55010000 		.4byte	.LASF181
 2532 1021 01       		.byte	0x1
 2533 1022 97       		.byte	0x97
 2534 1023 6B0C0000 		.4byte	0xc6b
 2535 1027 26010000 		.4byte	.LLST6
 2536 102b 2A       		.uleb128 0x2a
 2537 102c 02000000 		.4byte	.LBB25
 2538 1030 06000000 		.4byte	.LBE25-.LBB25
 2539 1034 46100000 		.4byte	0x1046
 2540 1038 2B       		.uleb128 0x2b
 2541 1039 746D7000 		.ascii	"tmp\000"
 2542 103d 01       		.byte	0x1
 2543 103e 99       		.byte	0x99
 2544 103f DF000000 		.4byte	0xdf
 2545 1043 01       		.uleb128 0x1
 2546 1044 53       		.byte	0x53
 2547 1045 00       		.byte	0
 2548 1046 2A       		.uleb128 0x2a
 2549 1047 10000000 		.4byte	.LBB28
 2550 104b 08000000 		.4byte	.LBE28-.LBB28
 2551 104f 61100000 		.4byte	0x1061
 2552 1053 2B       		.uleb128 0x2b
 2553 1054 746D7000 		.ascii	"tmp\000"
 2554 1058 01       		.byte	0x1
 2555 1059 9B       		.byte	0x9b
 2556 105a DF000000 		.4byte	0xdf
 2557 105e 01       		.uleb128 0x1
 2558 105f 53       		.byte	0x53
 2559 1060 00       		.byte	0
 2560 1061 2C       		.uleb128 0x2c
 2561 1062 D50F0000 		.4byte	0xfd5
 2562 1066 08000000 		.4byte	.LBB26
 2563 106a 08000000 		.4byte	.LBE26-.LBB26
 2564 106e 01       		.byte	0x1
 2565 106f 9A       		.byte	0x9a
ARM GAS  /tmp/ccH5YtAd.s 			page 46


 2566 1070 2D       		.uleb128 0x2d
 2567 1071 EC0F0000 		.4byte	0xfec
 2568 1075 47010000 		.4byte	.LLST7
 2569 1079 2D       		.uleb128 0x2d
 2570 107a E10F0000 		.4byte	0xfe1
 2571 107e 68010000 		.4byte	.LLST8
 2572 1082 24       		.uleb128 0x24
 2573 1083 10000000 		.4byte	.LVL10
 2574 1087 10130000 		.4byte	0x1310
 2575 108b 25       		.uleb128 0x25
 2576 108c 01       		.uleb128 0x1
 2577 108d 50       		.byte	0x50
 2578 108e 03       		.uleb128 0x3
 2579 108f F3       		.byte	0xf3
 2580 1090 01       		.uleb128 0x1
 2581 1091 50       		.byte	0x50
 2582 1092 25       		.uleb128 0x25
 2583 1093 01       		.uleb128 0x1
 2584 1094 51       		.byte	0x51
 2585 1095 03       		.uleb128 0x3
 2586 1096 F3       		.byte	0xf3
 2587 1097 01       		.uleb128 0x1
 2588 1098 51       		.byte	0x51
 2589 1099 00       		.byte	0
 2590 109a 00       		.byte	0
 2591 109b 00       		.byte	0
 2592 109c 28       		.uleb128 0x28
 2593 109d 30030000 		.4byte	.LASF189
 2594 10a1 01       		.byte	0x1
 2595 10a2 84       		.byte	0x84
 2596 10a3 00000000 		.4byte	.LFB67
 2597 10a7 14000000 		.4byte	.LFE67-.LFB67
 2598 10ab 01       		.uleb128 0x1
 2599 10ac 9C       		.byte	0x9c
 2600 10ad 39110000 		.4byte	0x1139
 2601 10b1 29       		.uleb128 0x29
 2602 10b2 8F040000 		.4byte	.LASF180
 2603 10b6 01       		.byte	0x1
 2604 10b7 84       		.byte	0x84
 2605 10b8 5A0C0000 		.4byte	0xc5a
 2606 10bc 89010000 		.4byte	.LLST3
 2607 10c0 29       		.uleb128 0x29
 2608 10c1 55010000 		.4byte	.LASF181
 2609 10c5 01       		.byte	0x1
 2610 10c6 84       		.byte	0x84
 2611 10c7 6B0C0000 		.4byte	0xc6b
 2612 10cb AA010000 		.4byte	.LLST4
 2613 10cf 2A       		.uleb128 0x2a
 2614 10d0 02000000 		.4byte	.LBB22
 2615 10d4 06000000 		.4byte	.LBE22-.LBB22
 2616 10d8 EA100000 		.4byte	0x10ea
 2617 10dc 2B       		.uleb128 0x2b
 2618 10dd 746D7000 		.ascii	"tmp\000"
 2619 10e1 01       		.byte	0x1
 2620 10e2 88       		.byte	0x88
 2621 10e3 DF000000 		.4byte	0xdf
 2622 10e7 01       		.uleb128 0x1
ARM GAS  /tmp/ccH5YtAd.s 			page 47


 2623 10e8 53       		.byte	0x53
 2624 10e9 00       		.byte	0
 2625 10ea 2A       		.uleb128 0x2a
 2626 10eb 08000000 		.4byte	.LBB23
 2627 10ef 04000000 		.4byte	.LBE23-.LBB23
 2628 10f3 21110000 		.4byte	0x1121
 2629 10f7 2E       		.uleb128 0x2e
 2630 10f8 AB040000 		.4byte	.LASF190
 2631 10fc 01       		.byte	0x1
 2632 10fd 8B       		.byte	0x8b
 2633 10fe 25000000 		.4byte	0x25
 2634 1102 08110000 		.4byte	0x1108
 2635 1106 2F       		.uleb128 0x2f
 2636 1107 00       		.byte	0
 2637 1108 24       		.uleb128 0x24
 2638 1109 0C000000 		.4byte	.LVL7
 2639 110d 1B130000 		.4byte	0x131b
 2640 1111 25       		.uleb128 0x25
 2641 1112 01       		.uleb128 0x1
 2642 1113 50       		.byte	0x50
 2643 1114 03       		.uleb128 0x3
 2644 1115 F3       		.byte	0xf3
 2645 1116 01       		.uleb128 0x1
 2646 1117 50       		.byte	0x50
 2647 1118 25       		.uleb128 0x25
 2648 1119 01       		.uleb128 0x1
 2649 111a 51       		.byte	0x51
 2650 111b 03       		.uleb128 0x3
 2651 111c F3       		.byte	0xf3
 2652 111d 01       		.uleb128 0x1
 2653 111e 51       		.byte	0x51
 2654 111f 00       		.byte	0
 2655 1120 00       		.byte	0
 2656 1121 30       		.uleb128 0x30
 2657 1122 0C000000 		.4byte	.LBB24
 2658 1126 08000000 		.4byte	.LBE24-.LBB24
 2659 112a 2B       		.uleb128 0x2b
 2660 112b 746D7000 		.ascii	"tmp\000"
 2661 112f 01       		.byte	0x1
 2662 1130 8C       		.byte	0x8c
 2663 1131 DF000000 		.4byte	0xdf
 2664 1135 01       		.uleb128 0x1
 2665 1136 53       		.byte	0x53
 2666 1137 00       		.byte	0
 2667 1138 00       		.byte	0
 2668 1139 28       		.uleb128 0x28
 2669 113a 24040000 		.4byte	.LASF191
 2670 113e 01       		.byte	0x1
 2671 113f 6B       		.byte	0x6b
 2672 1140 00000000 		.4byte	.LFB66
 2673 1144 1A000000 		.4byte	.LFE66-.LFB66
 2674 1148 01       		.uleb128 0x1
 2675 1149 9C       		.byte	0x9c
 2676 114a 9C110000 		.4byte	0x119c
 2677 114e 29       		.uleb128 0x29
 2678 114f 8F040000 		.4byte	.LASF180
 2679 1153 01       		.byte	0x1
ARM GAS  /tmp/ccH5YtAd.s 			page 48


 2680 1154 6B       		.byte	0x6b
 2681 1155 5A0C0000 		.4byte	0xc5a
 2682 1159 CB010000 		.4byte	.LLST2
 2683 115d 31       		.uleb128 0x31
 2684 115e 30000000 		.4byte	.Ldebug_ranges0+0x30
 2685 1162 74110000 		.4byte	0x1174
 2686 1166 2B       		.uleb128 0x2b
 2687 1167 746D7000 		.ascii	"tmp\000"
 2688 116b 01       		.byte	0x1
 2689 116c 6F       		.byte	0x6f
 2690 116d DF000000 		.4byte	0xdf
 2691 1171 01       		.uleb128 0x1
 2692 1172 53       		.byte	0x53
 2693 1173 00       		.byte	0
 2694 1174 31       		.uleb128 0x31
 2695 1175 48000000 		.4byte	.Ldebug_ranges0+0x48
 2696 1179 8B110000 		.4byte	0x118b
 2697 117d 2B       		.uleb128 0x2b
 2698 117e 746D7000 		.ascii	"tmp\000"
 2699 1182 01       		.byte	0x1
 2700 1183 74       		.byte	0x74
 2701 1184 DF000000 		.4byte	0xdf
 2702 1188 01       		.uleb128 0x1
 2703 1189 53       		.byte	0x53
 2704 118a 00       		.byte	0
 2705 118b 24       		.uleb128 0x24
 2706 118c 0E000000 		.4byte	.LVL5
 2707 1190 26130000 		.4byte	0x1326
 2708 1194 25       		.uleb128 0x25
 2709 1195 01       		.uleb128 0x1
 2710 1196 50       		.byte	0x50
 2711 1197 02       		.uleb128 0x2
 2712 1198 74       		.byte	0x74
 2713 1199 00       		.sleb128 0
 2714 119a 00       		.byte	0
 2715 119b 00       		.byte	0
 2716 119c 28       		.uleb128 0x28
 2717 119d F1000000 		.4byte	.LASF192
 2718 11a1 01       		.byte	0x1
 2719 11a2 57       		.byte	0x57
 2720 11a3 00000000 		.4byte	.LFB65
 2721 11a7 1C000000 		.4byte	.LFE65-.LFB65
 2722 11ab 01       		.uleb128 0x1
 2723 11ac 9C       		.byte	0x9c
 2724 11ad 0E120000 		.4byte	0x120e
 2725 11b1 29       		.uleb128 0x29
 2726 11b2 8F040000 		.4byte	.LASF180
 2727 11b6 01       		.byte	0x1
 2728 11b7 57       		.byte	0x57
 2729 11b8 5A0C0000 		.4byte	0xc5a
 2730 11bc E9010000 		.4byte	.LLST0
 2731 11c0 29       		.uleb128 0x29
 2732 11c1 DF000000 		.4byte	.LASF152
 2733 11c5 01       		.byte	0x1
 2734 11c6 57       		.byte	0x57
 2735 11c7 A70C0000 		.4byte	0xca7
 2736 11cb 07020000 		.4byte	.LLST1
ARM GAS  /tmp/ccH5YtAd.s 			page 49


 2737 11cf 31       		.uleb128 0x31
 2738 11d0 00000000 		.4byte	.Ldebug_ranges0+0
 2739 11d4 E6110000 		.4byte	0x11e6
 2740 11d8 2B       		.uleb128 0x2b
 2741 11d9 746D7000 		.ascii	"tmp\000"
 2742 11dd 01       		.byte	0x1
 2743 11de 5B       		.byte	0x5b
 2744 11df DF000000 		.4byte	0xdf
 2745 11e3 01       		.uleb128 0x1
 2746 11e4 53       		.byte	0x53
 2747 11e5 00       		.byte	0
 2748 11e6 31       		.uleb128 0x31
 2749 11e7 18000000 		.4byte	.Ldebug_ranges0+0x18
 2750 11eb FD110000 		.4byte	0x11fd
 2751 11ef 2B       		.uleb128 0x2b
 2752 11f0 746D7000 		.ascii	"tmp\000"
 2753 11f4 01       		.byte	0x1
 2754 11f5 61       		.byte	0x61
 2755 11f6 DF000000 		.4byte	0xdf
 2756 11fa 01       		.uleb128 0x1
 2757 11fb 53       		.byte	0x53
 2758 11fc 00       		.byte	0
 2759 11fd 24       		.uleb128 0x24
 2760 11fe 10000000 		.4byte	.LVL3
 2761 1202 31130000 		.4byte	0x1331
 2762 1206 25       		.uleb128 0x25
 2763 1207 01       		.uleb128 0x1
 2764 1208 50       		.byte	0x50
 2765 1209 02       		.uleb128 0x2
 2766 120a 74       		.byte	0x74
 2767 120b 00       		.sleb128 0
 2768 120c 00       		.byte	0
 2769 120d 00       		.byte	0
 2770 120e 28       		.uleb128 0x28
 2771 120f F5010000 		.4byte	.LASF193
 2772 1213 01       		.byte	0x1
 2773 1214 49       		.byte	0x49
 2774 1215 00000000 		.4byte	.LFB64
 2775 1219 0A000000 		.4byte	.LFE64-.LFB64
 2776 121d 01       		.uleb128 0x1
 2777 121e 9C       		.byte	0x9c
 2778 121f 31120000 		.4byte	0x1231
 2779 1223 32       		.uleb128 0x32
 2780 1224 8F040000 		.4byte	.LASF180
 2781 1228 01       		.byte	0x1
 2782 1229 49       		.byte	0x49
 2783 122a 5A0C0000 		.4byte	0xc5a
 2784 122e 01       		.uleb128 0x1
 2785 122f 50       		.byte	0x50
 2786 1230 00       		.byte	0
 2787 1231 28       		.uleb128 0x28
 2788 1232 42000000 		.4byte	.LASF194
 2789 1236 01       		.byte	0x1
 2790 1237 3D       		.byte	0x3d
 2791 1238 00000000 		.4byte	.LFB63
 2792 123c 04000000 		.4byte	.LFE63-.LFB63
 2793 1240 01       		.uleb128 0x1
ARM GAS  /tmp/ccH5YtAd.s 			page 50


 2794 1241 9C       		.byte	0x9c
 2795 1242 50120000 		.4byte	0x1250
 2796 1246 33       		.uleb128 0x33
 2797 1247 04000000 		.4byte	.LVL0
 2798 124b 3C130000 		.4byte	0x133c
 2799 124f 00       		.byte	0
 2800 1250 34       		.uleb128 0x34
 2801 1251 D50F0000 		.4byte	0xfd5
 2802 1255 00000000 		.4byte	.LFB69
 2803 1259 08000000 		.4byte	.LFE69-.LFB69
 2804 125d 01       		.uleb128 0x1
 2805 125e 9C       		.byte	0x9c
 2806 125f 8E120000 		.4byte	0x128e
 2807 1263 2D       		.uleb128 0x2d
 2808 1264 E10F0000 		.4byte	0xfe1
 2809 1268 28020000 		.4byte	.LLST9
 2810 126c 2D       		.uleb128 0x2d
 2811 126d EC0F0000 		.4byte	0xfec
 2812 1271 49020000 		.4byte	.LLST10
 2813 1275 35       		.uleb128 0x35
 2814 1276 08000000 		.4byte	.LVL12
 2815 127a 10130000 		.4byte	0x1310
 2816 127e 25       		.uleb128 0x25
 2817 127f 01       		.uleb128 0x1
 2818 1280 50       		.byte	0x50
 2819 1281 03       		.uleb128 0x3
 2820 1282 F3       		.byte	0xf3
 2821 1283 01       		.uleb128 0x1
 2822 1284 50       		.byte	0x50
 2823 1285 25       		.uleb128 0x25
 2824 1286 01       		.uleb128 0x1
 2825 1287 51       		.byte	0x51
 2826 1288 03       		.uleb128 0x3
 2827 1289 F3       		.byte	0xf3
 2828 128a 01       		.uleb128 0x1
 2829 128b 51       		.byte	0x51
 2830 128c 00       		.byte	0
 2831 128d 00       		.byte	0
 2832 128e 34       		.uleb128 0x34
 2833 128f 0E0F0000 		.4byte	0xf0e
 2834 1293 00000000 		.4byte	.LFB71
 2835 1297 08000000 		.4byte	.LFE71-.LFB71
 2836 129b 01       		.uleb128 0x1
 2837 129c 9C       		.byte	0x9c
 2838 129d CC120000 		.4byte	0x12cc
 2839 12a1 2D       		.uleb128 0x2d
 2840 12a2 1A0F0000 		.4byte	0xf1a
 2841 12a6 6A020000 		.4byte	.LLST15
 2842 12aa 2D       		.uleb128 0x2d
 2843 12ab 250F0000 		.4byte	0xf25
 2844 12af 8B020000 		.4byte	.LLST16
 2845 12b3 35       		.uleb128 0x35
 2846 12b4 08000000 		.4byte	.LVL17
 2847 12b8 10130000 		.4byte	0x1310
 2848 12bc 25       		.uleb128 0x25
 2849 12bd 01       		.uleb128 0x1
 2850 12be 50       		.byte	0x50
ARM GAS  /tmp/ccH5YtAd.s 			page 51


 2851 12bf 03       		.uleb128 0x3
 2852 12c0 F3       		.byte	0xf3
 2853 12c1 01       		.uleb128 0x1
 2854 12c2 50       		.byte	0x50
 2855 12c3 25       		.uleb128 0x25
 2856 12c4 01       		.uleb128 0x1
 2857 12c5 51       		.byte	0x51
 2858 12c6 03       		.uleb128 0x3
 2859 12c7 F3       		.byte	0xf3
 2860 12c8 01       		.uleb128 0x1
 2861 12c9 51       		.byte	0x51
 2862 12ca 00       		.byte	0
 2863 12cb 00       		.byte	0
 2864 12cc 34       		.uleb128 0x34
 2865 12cd 710E0000 		.4byte	0xe71
 2866 12d1 00000000 		.4byte	.LFB73
 2867 12d5 08000000 		.4byte	.LFE73-.LFB73
 2868 12d9 01       		.uleb128 0x1
 2869 12da 9C       		.byte	0x9c
 2870 12db FA120000 		.4byte	0x12fa
 2871 12df 2D       		.uleb128 0x2d
 2872 12e0 7D0E0000 		.4byte	0xe7d
 2873 12e4 AC020000 		.4byte	.LLST19
 2874 12e8 35       		.uleb128 0x35
 2875 12e9 08000000 		.4byte	.LVL22
 2876 12ed 05130000 		.4byte	0x1305
 2877 12f1 25       		.uleb128 0x25
 2878 12f2 01       		.uleb128 0x1
 2879 12f3 50       		.byte	0x50
 2880 12f4 03       		.uleb128 0x3
 2881 12f5 F3       		.byte	0xf3
 2882 12f6 01       		.uleb128 0x1
 2883 12f7 50       		.byte	0x50
 2884 12f8 00       		.byte	0
 2885 12f9 00       		.byte	0
 2886 12fa 36       		.uleb128 0x36
 2887 12fb 12060000 		.4byte	.LASF195
 2888 12ff 12060000 		.4byte	.LASF195
 2889 1303 16       		.byte	0x16
 2890 1304 C7       		.byte	0xc7
 2891 1305 36       		.uleb128 0x36
 2892 1306 B2060000 		.4byte	.LASF196
 2893 130a B2060000 		.4byte	.LASF196
 2894 130e 16       		.byte	0x16
 2895 130f C6       		.byte	0xc6
 2896 1310 36       		.uleb128 0x36
 2897 1311 00040000 		.4byte	.LASF197
 2898 1315 00040000 		.4byte	.LASF197
 2899 1319 16       		.byte	0x16
 2900 131a C5       		.byte	0xc5
 2901 131b 36       		.uleb128 0x36
 2902 131c AB040000 		.4byte	.LASF190
 2903 1320 AB040000 		.4byte	.LASF190
 2904 1324 01       		.byte	0x1
 2905 1325 8B       		.byte	0x8b
 2906 1326 36       		.uleb128 0x36
 2907 1327 52070000 		.4byte	.LASF198
ARM GAS  /tmp/ccH5YtAd.s 			page 52


 2908 132b 52070000 		.4byte	.LASF198
 2909 132f 16       		.byte	0x16
 2910 1330 C4       		.byte	0xc4
 2911 1331 36       		.uleb128 0x36
 2912 1332 DB080000 		.4byte	.LASF199
 2913 1336 DB080000 		.4byte	.LASF199
 2914 133a 16       		.byte	0x16
 2915 133b C3       		.byte	0xc3
 2916 133c 36       		.uleb128 0x36
 2917 133d 23030000 		.4byte	.LASF200
 2918 1341 23030000 		.4byte	.LASF200
 2919 1345 16       		.byte	0x16
 2920 1346 C2       		.byte	0xc2
 2921 1347 00       		.byte	0
 2922              		.section	.debug_abbrev,"",%progbits
 2923              	.Ldebug_abbrev0:
 2924 0000 01       		.uleb128 0x1
 2925 0001 11       		.uleb128 0x11
 2926 0002 01       		.byte	0x1
 2927 0003 25       		.uleb128 0x25
 2928 0004 0E       		.uleb128 0xe
 2929 0005 13       		.uleb128 0x13
 2930 0006 0B       		.uleb128 0xb
 2931 0007 03       		.uleb128 0x3
 2932 0008 0E       		.uleb128 0xe
 2933 0009 1B       		.uleb128 0x1b
 2934 000a 0E       		.uleb128 0xe
 2935 000b 55       		.uleb128 0x55
 2936 000c 17       		.uleb128 0x17
 2937 000d 11       		.uleb128 0x11
 2938 000e 01       		.uleb128 0x1
 2939 000f 10       		.uleb128 0x10
 2940 0010 17       		.uleb128 0x17
 2941 0011 00       		.byte	0
 2942 0012 00       		.byte	0
 2943 0013 02       		.uleb128 0x2
 2944 0014 24       		.uleb128 0x24
 2945 0015 00       		.byte	0
 2946 0016 0B       		.uleb128 0xb
 2947 0017 0B       		.uleb128 0xb
 2948 0018 3E       		.uleb128 0x3e
 2949 0019 0B       		.uleb128 0xb
 2950 001a 03       		.uleb128 0x3
 2951 001b 08       		.uleb128 0x8
 2952 001c 00       		.byte	0
 2953 001d 00       		.byte	0
 2954 001e 03       		.uleb128 0x3
 2955 001f 16       		.uleb128 0x16
 2956 0020 00       		.byte	0
 2957 0021 03       		.uleb128 0x3
 2958 0022 0E       		.uleb128 0xe
 2959 0023 3A       		.uleb128 0x3a
 2960 0024 0B       		.uleb128 0xb
 2961 0025 3B       		.uleb128 0x3b
 2962 0026 0B       		.uleb128 0xb
 2963 0027 49       		.uleb128 0x49
 2964 0028 13       		.uleb128 0x13
ARM GAS  /tmp/ccH5YtAd.s 			page 53


 2965 0029 00       		.byte	0
 2966 002a 00       		.byte	0
 2967 002b 04       		.uleb128 0x4
 2968 002c 24       		.uleb128 0x24
 2969 002d 00       		.byte	0
 2970 002e 0B       		.uleb128 0xb
 2971 002f 0B       		.uleb128 0xb
 2972 0030 3E       		.uleb128 0x3e
 2973 0031 0B       		.uleb128 0xb
 2974 0032 03       		.uleb128 0x3
 2975 0033 0E       		.uleb128 0xe
 2976 0034 00       		.byte	0
 2977 0035 00       		.byte	0
 2978 0036 05       		.uleb128 0x5
 2979 0037 26       		.uleb128 0x26
 2980 0038 00       		.byte	0
 2981 0039 49       		.uleb128 0x49
 2982 003a 13       		.uleb128 0x13
 2983 003b 00       		.byte	0
 2984 003c 00       		.byte	0
 2985 003d 06       		.uleb128 0x6
 2986 003e 35       		.uleb128 0x35
 2987 003f 00       		.byte	0
 2988 0040 49       		.uleb128 0x49
 2989 0041 13       		.uleb128 0x13
 2990 0042 00       		.byte	0
 2991 0043 00       		.byte	0
 2992 0044 07       		.uleb128 0x7
 2993 0045 13       		.uleb128 0x13
 2994 0046 01       		.byte	0x1
 2995 0047 03       		.uleb128 0x3
 2996 0048 0E       		.uleb128 0xe
 2997 0049 0B       		.uleb128 0xb
 2998 004a 0B       		.uleb128 0xb
 2999 004b 3A       		.uleb128 0x3a
 3000 004c 0B       		.uleb128 0xb
 3001 004d 3B       		.uleb128 0x3b
 3002 004e 0B       		.uleb128 0xb
 3003 004f 01       		.uleb128 0x1
 3004 0050 13       		.uleb128 0x13
 3005 0051 00       		.byte	0
 3006 0052 00       		.byte	0
 3007 0053 08       		.uleb128 0x8
 3008 0054 0D       		.uleb128 0xd
 3009 0055 00       		.byte	0
 3010 0056 03       		.uleb128 0x3
 3011 0057 0E       		.uleb128 0xe
 3012 0058 3A       		.uleb128 0x3a
 3013 0059 0B       		.uleb128 0xb
 3014 005a 3B       		.uleb128 0x3b
 3015 005b 0B       		.uleb128 0xb
 3016 005c 49       		.uleb128 0x49
 3017 005d 13       		.uleb128 0x13
 3018 005e 38       		.uleb128 0x38
 3019 005f 0B       		.uleb128 0xb
 3020 0060 00       		.byte	0
 3021 0061 00       		.byte	0
ARM GAS  /tmp/ccH5YtAd.s 			page 54


 3022 0062 09       		.uleb128 0x9
 3023 0063 0D       		.uleb128 0xd
 3024 0064 00       		.byte	0
 3025 0065 03       		.uleb128 0x3
 3026 0066 08       		.uleb128 0x8
 3027 0067 3A       		.uleb128 0x3a
 3028 0068 0B       		.uleb128 0xb
 3029 0069 3B       		.uleb128 0x3b
 3030 006a 0B       		.uleb128 0xb
 3031 006b 49       		.uleb128 0x49
 3032 006c 13       		.uleb128 0x13
 3033 006d 38       		.uleb128 0x38
 3034 006e 0B       		.uleb128 0xb
 3035 006f 00       		.byte	0
 3036 0070 00       		.byte	0
 3037 0071 0A       		.uleb128 0xa
 3038 0072 13       		.uleb128 0x13
 3039 0073 01       		.byte	0x1
 3040 0074 0B       		.uleb128 0xb
 3041 0075 0B       		.uleb128 0xb
 3042 0076 3A       		.uleb128 0x3a
 3043 0077 0B       		.uleb128 0xb
 3044 0078 3B       		.uleb128 0x3b
 3045 0079 0B       		.uleb128 0xb
 3046 007a 01       		.uleb128 0x1
 3047 007b 13       		.uleb128 0x13
 3048 007c 00       		.byte	0
 3049 007d 00       		.byte	0
 3050 007e 0B       		.uleb128 0xb
 3051 007f 0F       		.uleb128 0xf
 3052 0080 00       		.byte	0
 3053 0081 0B       		.uleb128 0xb
 3054 0082 0B       		.uleb128 0xb
 3055 0083 49       		.uleb128 0x49
 3056 0084 13       		.uleb128 0x13
 3057 0085 00       		.byte	0
 3058 0086 00       		.byte	0
 3059 0087 0C       		.uleb128 0xc
 3060 0088 0F       		.uleb128 0xf
 3061 0089 00       		.byte	0
 3062 008a 0B       		.uleb128 0xb
 3063 008b 0B       		.uleb128 0xb
 3064 008c 00       		.byte	0
 3065 008d 00       		.byte	0
 3066 008e 0D       		.uleb128 0xd
 3067 008f 13       		.uleb128 0x13
 3068 0090 01       		.byte	0x1
 3069 0091 03       		.uleb128 0x3
 3070 0092 0E       		.uleb128 0xe
 3071 0093 0B       		.uleb128 0xb
 3072 0094 0B       		.uleb128 0xb
 3073 0095 3A       		.uleb128 0x3a
 3074 0096 0B       		.uleb128 0xb
 3075 0097 3B       		.uleb128 0x3b
 3076 0098 05       		.uleb128 0x5
 3077 0099 01       		.uleb128 0x1
 3078 009a 13       		.uleb128 0x13
ARM GAS  /tmp/ccH5YtAd.s 			page 55


 3079 009b 00       		.byte	0
 3080 009c 00       		.byte	0
 3081 009d 0E       		.uleb128 0xe
 3082 009e 0D       		.uleb128 0xd
 3083 009f 00       		.byte	0
 3084 00a0 03       		.uleb128 0x3
 3085 00a1 08       		.uleb128 0x8
 3086 00a2 3A       		.uleb128 0x3a
 3087 00a3 0B       		.uleb128 0xb
 3088 00a4 3B       		.uleb128 0x3b
 3089 00a5 05       		.uleb128 0x5
 3090 00a6 49       		.uleb128 0x49
 3091 00a7 13       		.uleb128 0x13
 3092 00a8 38       		.uleb128 0x38
 3093 00a9 0B       		.uleb128 0xb
 3094 00aa 00       		.byte	0
 3095 00ab 00       		.byte	0
 3096 00ac 0F       		.uleb128 0xf
 3097 00ad 15       		.uleb128 0x15
 3098 00ae 01       		.byte	0x1
 3099 00af 27       		.uleb128 0x27
 3100 00b0 19       		.uleb128 0x19
 3101 00b1 01       		.uleb128 0x1
 3102 00b2 13       		.uleb128 0x13
 3103 00b3 00       		.byte	0
 3104 00b4 00       		.byte	0
 3105 00b5 10       		.uleb128 0x10
 3106 00b6 05       		.uleb128 0x5
 3107 00b7 00       		.byte	0
 3108 00b8 49       		.uleb128 0x49
 3109 00b9 13       		.uleb128 0x13
 3110 00ba 00       		.byte	0
 3111 00bb 00       		.byte	0
 3112 00bc 11       		.uleb128 0x11
 3113 00bd 34       		.uleb128 0x34
 3114 00be 00       		.byte	0
 3115 00bf 03       		.uleb128 0x3
 3116 00c0 0E       		.uleb128 0xe
 3117 00c1 3A       		.uleb128 0x3a
 3118 00c2 0B       		.uleb128 0xb
 3119 00c3 3B       		.uleb128 0x3b
 3120 00c4 0B       		.uleb128 0xb
 3121 00c5 49       		.uleb128 0x49
 3122 00c6 13       		.uleb128 0x13
 3123 00c7 3F       		.uleb128 0x3f
 3124 00c8 19       		.uleb128 0x19
 3125 00c9 3C       		.uleb128 0x3c
 3126 00ca 19       		.uleb128 0x19
 3127 00cb 00       		.byte	0
 3128 00cc 00       		.byte	0
 3129 00cd 12       		.uleb128 0x12
 3130 00ce 17       		.uleb128 0x17
 3131 00cf 01       		.byte	0x1
 3132 00d0 0B       		.uleb128 0xb
 3133 00d1 0B       		.uleb128 0xb
 3134 00d2 3A       		.uleb128 0x3a
 3135 00d3 0B       		.uleb128 0xb
ARM GAS  /tmp/ccH5YtAd.s 			page 56


 3136 00d4 3B       		.uleb128 0x3b
 3137 00d5 0B       		.uleb128 0xb
 3138 00d6 01       		.uleb128 0x1
 3139 00d7 13       		.uleb128 0x13
 3140 00d8 00       		.byte	0
 3141 00d9 00       		.byte	0
 3142 00da 13       		.uleb128 0x13
 3143 00db 0D       		.uleb128 0xd
 3144 00dc 00       		.byte	0
 3145 00dd 03       		.uleb128 0x3
 3146 00de 0E       		.uleb128 0xe
 3147 00df 3A       		.uleb128 0x3a
 3148 00e0 0B       		.uleb128 0xb
 3149 00e1 3B       		.uleb128 0x3b
 3150 00e2 0B       		.uleb128 0xb
 3151 00e3 49       		.uleb128 0x49
 3152 00e4 13       		.uleb128 0x13
 3153 00e5 00       		.byte	0
 3154 00e6 00       		.byte	0
 3155 00e7 14       		.uleb128 0x14
 3156 00e8 15       		.uleb128 0x15
 3157 00e9 01       		.byte	0x1
 3158 00ea 27       		.uleb128 0x27
 3159 00eb 19       		.uleb128 0x19
 3160 00ec 49       		.uleb128 0x49
 3161 00ed 13       		.uleb128 0x13
 3162 00ee 01       		.uleb128 0x1
 3163 00ef 13       		.uleb128 0x13
 3164 00f0 00       		.byte	0
 3165 00f1 00       		.byte	0
 3166 00f2 15       		.uleb128 0x15
 3167 00f3 01       		.uleb128 0x1
 3168 00f4 01       		.byte	0x1
 3169 00f5 49       		.uleb128 0x49
 3170 00f6 13       		.uleb128 0x13
 3171 00f7 01       		.uleb128 0x1
 3172 00f8 13       		.uleb128 0x13
 3173 00f9 00       		.byte	0
 3174 00fa 00       		.byte	0
 3175 00fb 16       		.uleb128 0x16
 3176 00fc 21       		.uleb128 0x21
 3177 00fd 00       		.byte	0
 3178 00fe 49       		.uleb128 0x49
 3179 00ff 13       		.uleb128 0x13
 3180 0100 2F       		.uleb128 0x2f
 3181 0101 0B       		.uleb128 0xb
 3182 0102 00       		.byte	0
 3183 0103 00       		.byte	0
 3184 0104 17       		.uleb128 0x17
 3185 0105 34       		.uleb128 0x34
 3186 0106 00       		.byte	0
 3187 0107 03       		.uleb128 0x3
 3188 0108 0E       		.uleb128 0xe
 3189 0109 3A       		.uleb128 0x3a
 3190 010a 0B       		.uleb128 0xb
 3191 010b 3B       		.uleb128 0x3b
 3192 010c 05       		.uleb128 0x5
ARM GAS  /tmp/ccH5YtAd.s 			page 57


 3193 010d 49       		.uleb128 0x49
 3194 010e 13       		.uleb128 0x13
 3195 010f 3F       		.uleb128 0x3f
 3196 0110 19       		.uleb128 0x19
 3197 0111 3C       		.uleb128 0x3c
 3198 0112 19       		.uleb128 0x19
 3199 0113 00       		.byte	0
 3200 0114 00       		.byte	0
 3201 0115 18       		.uleb128 0x18
 3202 0116 13       		.uleb128 0x13
 3203 0117 01       		.byte	0x1
 3204 0118 0B       		.uleb128 0xb
 3205 0119 0B       		.uleb128 0xb
 3206 011a 3A       		.uleb128 0x3a
 3207 011b 0B       		.uleb128 0xb
 3208 011c 3B       		.uleb128 0x3b
 3209 011d 05       		.uleb128 0x5
 3210 011e 01       		.uleb128 0x1
 3211 011f 13       		.uleb128 0x13
 3212 0120 00       		.byte	0
 3213 0121 00       		.byte	0
 3214 0122 19       		.uleb128 0x19
 3215 0123 0D       		.uleb128 0xd
 3216 0124 00       		.byte	0
 3217 0125 03       		.uleb128 0x3
 3218 0126 0E       		.uleb128 0xe
 3219 0127 3A       		.uleb128 0x3a
 3220 0128 0B       		.uleb128 0xb
 3221 0129 3B       		.uleb128 0x3b
 3222 012a 05       		.uleb128 0x5
 3223 012b 49       		.uleb128 0x49
 3224 012c 13       		.uleb128 0x13
 3225 012d 38       		.uleb128 0x38
 3226 012e 0B       		.uleb128 0xb
 3227 012f 00       		.byte	0
 3228 0130 00       		.byte	0
 3229 0131 1A       		.uleb128 0x1a
 3230 0132 16       		.uleb128 0x16
 3231 0133 00       		.byte	0
 3232 0134 03       		.uleb128 0x3
 3233 0135 0E       		.uleb128 0xe
 3234 0136 3A       		.uleb128 0x3a
 3235 0137 0B       		.uleb128 0xb
 3236 0138 3B       		.uleb128 0x3b
 3237 0139 05       		.uleb128 0x5
 3238 013a 49       		.uleb128 0x49
 3239 013b 13       		.uleb128 0x13
 3240 013c 00       		.byte	0
 3241 013d 00       		.byte	0
 3242 013e 1B       		.uleb128 0x1b
 3243 013f 17       		.uleb128 0x17
 3244 0140 01       		.byte	0x1
 3245 0141 0B       		.uleb128 0xb
 3246 0142 0B       		.uleb128 0xb
 3247 0143 3A       		.uleb128 0x3a
 3248 0144 0B       		.uleb128 0xb
 3249 0145 3B       		.uleb128 0x3b
ARM GAS  /tmp/ccH5YtAd.s 			page 58


 3250 0146 05       		.uleb128 0x5
 3251 0147 01       		.uleb128 0x1
 3252 0148 13       		.uleb128 0x13
 3253 0149 00       		.byte	0
 3254 014a 00       		.byte	0
 3255 014b 1C       		.uleb128 0x1c
 3256 014c 0D       		.uleb128 0xd
 3257 014d 00       		.byte	0
 3258 014e 03       		.uleb128 0x3
 3259 014f 08       		.uleb128 0x8
 3260 0150 3A       		.uleb128 0x3a
 3261 0151 0B       		.uleb128 0xb
 3262 0152 3B       		.uleb128 0x3b
 3263 0153 05       		.uleb128 0x5
 3264 0154 49       		.uleb128 0x49
 3265 0155 13       		.uleb128 0x13
 3266 0156 00       		.byte	0
 3267 0157 00       		.byte	0
 3268 0158 1D       		.uleb128 0x1d
 3269 0159 0D       		.uleb128 0xd
 3270 015a 00       		.byte	0
 3271 015b 49       		.uleb128 0x49
 3272 015c 13       		.uleb128 0x13
 3273 015d 38       		.uleb128 0x38
 3274 015e 0B       		.uleb128 0xb
 3275 015f 00       		.byte	0
 3276 0160 00       		.byte	0
 3277 0161 1E       		.uleb128 0x1e
 3278 0162 21       		.uleb128 0x21
 3279 0163 00       		.byte	0
 3280 0164 00       		.byte	0
 3281 0165 00       		.byte	0
 3282 0166 1F       		.uleb128 0x1f
 3283 0167 04       		.uleb128 0x4
 3284 0168 01       		.byte	0x1
 3285 0169 0B       		.uleb128 0xb
 3286 016a 0B       		.uleb128 0xb
 3287 016b 49       		.uleb128 0x49
 3288 016c 13       		.uleb128 0x13
 3289 016d 3A       		.uleb128 0x3a
 3290 016e 0B       		.uleb128 0xb
 3291 016f 3B       		.uleb128 0x3b
 3292 0170 0B       		.uleb128 0xb
 3293 0171 01       		.uleb128 0x1
 3294 0172 13       		.uleb128 0x13
 3295 0173 00       		.byte	0
 3296 0174 00       		.byte	0
 3297 0175 20       		.uleb128 0x20
 3298 0176 28       		.uleb128 0x28
 3299 0177 00       		.byte	0
 3300 0178 03       		.uleb128 0x3
 3301 0179 0E       		.uleb128 0xe
 3302 017a 1C       		.uleb128 0x1c
 3303 017b 0B       		.uleb128 0xb
 3304 017c 00       		.byte	0
 3305 017d 00       		.byte	0
 3306 017e 21       		.uleb128 0x21
ARM GAS  /tmp/ccH5YtAd.s 			page 59


 3307 017f 34       		.uleb128 0x34
 3308 0180 00       		.byte	0
 3309 0181 03       		.uleb128 0x3
 3310 0182 08       		.uleb128 0x8
 3311 0183 3A       		.uleb128 0x3a
 3312 0184 0B       		.uleb128 0xb
 3313 0185 3B       		.uleb128 0x3b
 3314 0186 0B       		.uleb128 0xb
 3315 0187 49       		.uleb128 0x49
 3316 0188 13       		.uleb128 0x13
 3317 0189 3F       		.uleb128 0x3f
 3318 018a 19       		.uleb128 0x19
 3319 018b 3C       		.uleb128 0x3c
 3320 018c 19       		.uleb128 0x19
 3321 018d 00       		.byte	0
 3322 018e 00       		.byte	0
 3323 018f 22       		.uleb128 0x22
 3324 0190 2E       		.uleb128 0x2e
 3325 0191 01       		.byte	0x1
 3326 0192 3F       		.uleb128 0x3f
 3327 0193 19       		.uleb128 0x19
 3328 0194 03       		.uleb128 0x3
 3329 0195 0E       		.uleb128 0xe
 3330 0196 3A       		.uleb128 0x3a
 3331 0197 0B       		.uleb128 0xb
 3332 0198 3B       		.uleb128 0x3b
 3333 0199 05       		.uleb128 0x5
 3334 019a 27       		.uleb128 0x27
 3335 019b 19       		.uleb128 0x19
 3336 019c 11       		.uleb128 0x11
 3337 019d 01       		.uleb128 0x1
 3338 019e 12       		.uleb128 0x12
 3339 019f 06       		.uleb128 0x6
 3340 01a0 40       		.uleb128 0x40
 3341 01a1 18       		.uleb128 0x18
 3342 01a2 9742     		.uleb128 0x2117
 3343 01a4 19       		.uleb128 0x19
 3344 01a5 01       		.uleb128 0x1
 3345 01a6 13       		.uleb128 0x13
 3346 01a7 00       		.byte	0
 3347 01a8 00       		.byte	0
 3348 01a9 23       		.uleb128 0x23
 3349 01aa 05       		.uleb128 0x5
 3350 01ab 00       		.byte	0
 3351 01ac 03       		.uleb128 0x3
 3352 01ad 0E       		.uleb128 0xe
 3353 01ae 3A       		.uleb128 0x3a
 3354 01af 0B       		.uleb128 0xb
 3355 01b0 3B       		.uleb128 0x3b
 3356 01b1 05       		.uleb128 0x5
 3357 01b2 49       		.uleb128 0x49
 3358 01b3 13       		.uleb128 0x13
 3359 01b4 02       		.uleb128 0x2
 3360 01b5 17       		.uleb128 0x17
 3361 01b6 00       		.byte	0
 3362 01b7 00       		.byte	0
 3363 01b8 24       		.uleb128 0x24
ARM GAS  /tmp/ccH5YtAd.s 			page 60


 3364 01b9 898201   		.uleb128 0x4109
 3365 01bc 01       		.byte	0x1
 3366 01bd 11       		.uleb128 0x11
 3367 01be 01       		.uleb128 0x1
 3368 01bf 31       		.uleb128 0x31
 3369 01c0 13       		.uleb128 0x13
 3370 01c1 00       		.byte	0
 3371 01c2 00       		.byte	0
 3372 01c3 25       		.uleb128 0x25
 3373 01c4 8A8201   		.uleb128 0x410a
 3374 01c7 00       		.byte	0
 3375 01c8 02       		.uleb128 0x2
 3376 01c9 18       		.uleb128 0x18
 3377 01ca 9142     		.uleb128 0x2111
 3378 01cc 18       		.uleb128 0x18
 3379 01cd 00       		.byte	0
 3380 01ce 00       		.byte	0
 3381 01cf 26       		.uleb128 0x26
 3382 01d0 2E       		.uleb128 0x2e
 3383 01d1 01       		.byte	0x1
 3384 01d2 3F       		.uleb128 0x3f
 3385 01d3 19       		.uleb128 0x19
 3386 01d4 03       		.uleb128 0x3
 3387 01d5 0E       		.uleb128 0xe
 3388 01d6 3A       		.uleb128 0x3a
 3389 01d7 0B       		.uleb128 0xb
 3390 01d8 3B       		.uleb128 0x3b
 3391 01d9 0B       		.uleb128 0xb
 3392 01da 27       		.uleb128 0x27
 3393 01db 19       		.uleb128 0x19
 3394 01dc 20       		.uleb128 0x20
 3395 01dd 0B       		.uleb128 0xb
 3396 01de 01       		.uleb128 0x1
 3397 01df 13       		.uleb128 0x13
 3398 01e0 00       		.byte	0
 3399 01e1 00       		.byte	0
 3400 01e2 27       		.uleb128 0x27
 3401 01e3 05       		.uleb128 0x5
 3402 01e4 00       		.byte	0
 3403 01e5 03       		.uleb128 0x3
 3404 01e6 0E       		.uleb128 0xe
 3405 01e7 3A       		.uleb128 0x3a
 3406 01e8 0B       		.uleb128 0xb
 3407 01e9 3B       		.uleb128 0x3b
 3408 01ea 0B       		.uleb128 0xb
 3409 01eb 49       		.uleb128 0x49
 3410 01ec 13       		.uleb128 0x13
 3411 01ed 00       		.byte	0
 3412 01ee 00       		.byte	0
 3413 01ef 28       		.uleb128 0x28
 3414 01f0 2E       		.uleb128 0x2e
 3415 01f1 01       		.byte	0x1
 3416 01f2 3F       		.uleb128 0x3f
 3417 01f3 19       		.uleb128 0x19
 3418 01f4 03       		.uleb128 0x3
 3419 01f5 0E       		.uleb128 0xe
 3420 01f6 3A       		.uleb128 0x3a
ARM GAS  /tmp/ccH5YtAd.s 			page 61


 3421 01f7 0B       		.uleb128 0xb
 3422 01f8 3B       		.uleb128 0x3b
 3423 01f9 0B       		.uleb128 0xb
 3424 01fa 27       		.uleb128 0x27
 3425 01fb 19       		.uleb128 0x19
 3426 01fc 11       		.uleb128 0x11
 3427 01fd 01       		.uleb128 0x1
 3428 01fe 12       		.uleb128 0x12
 3429 01ff 06       		.uleb128 0x6
 3430 0200 40       		.uleb128 0x40
 3431 0201 18       		.uleb128 0x18
 3432 0202 9742     		.uleb128 0x2117
 3433 0204 19       		.uleb128 0x19
 3434 0205 01       		.uleb128 0x1
 3435 0206 13       		.uleb128 0x13
 3436 0207 00       		.byte	0
 3437 0208 00       		.byte	0
 3438 0209 29       		.uleb128 0x29
 3439 020a 05       		.uleb128 0x5
 3440 020b 00       		.byte	0
 3441 020c 03       		.uleb128 0x3
 3442 020d 0E       		.uleb128 0xe
 3443 020e 3A       		.uleb128 0x3a
 3444 020f 0B       		.uleb128 0xb
 3445 0210 3B       		.uleb128 0x3b
 3446 0211 0B       		.uleb128 0xb
 3447 0212 49       		.uleb128 0x49
 3448 0213 13       		.uleb128 0x13
 3449 0214 02       		.uleb128 0x2
 3450 0215 17       		.uleb128 0x17
 3451 0216 00       		.byte	0
 3452 0217 00       		.byte	0
 3453 0218 2A       		.uleb128 0x2a
 3454 0219 0B       		.uleb128 0xb
 3455 021a 01       		.byte	0x1
 3456 021b 11       		.uleb128 0x11
 3457 021c 01       		.uleb128 0x1
 3458 021d 12       		.uleb128 0x12
 3459 021e 06       		.uleb128 0x6
 3460 021f 01       		.uleb128 0x1
 3461 0220 13       		.uleb128 0x13
 3462 0221 00       		.byte	0
 3463 0222 00       		.byte	0
 3464 0223 2B       		.uleb128 0x2b
 3465 0224 34       		.uleb128 0x34
 3466 0225 00       		.byte	0
 3467 0226 03       		.uleb128 0x3
 3468 0227 08       		.uleb128 0x8
 3469 0228 3A       		.uleb128 0x3a
 3470 0229 0B       		.uleb128 0xb
 3471 022a 3B       		.uleb128 0x3b
 3472 022b 0B       		.uleb128 0xb
 3473 022c 49       		.uleb128 0x49
 3474 022d 13       		.uleb128 0x13
 3475 022e 02       		.uleb128 0x2
 3476 022f 18       		.uleb128 0x18
 3477 0230 00       		.byte	0
ARM GAS  /tmp/ccH5YtAd.s 			page 62


 3478 0231 00       		.byte	0
 3479 0232 2C       		.uleb128 0x2c
 3480 0233 1D       		.uleb128 0x1d
 3481 0234 01       		.byte	0x1
 3482 0235 31       		.uleb128 0x31
 3483 0236 13       		.uleb128 0x13
 3484 0237 11       		.uleb128 0x11
 3485 0238 01       		.uleb128 0x1
 3486 0239 12       		.uleb128 0x12
 3487 023a 06       		.uleb128 0x6
 3488 023b 58       		.uleb128 0x58
 3489 023c 0B       		.uleb128 0xb
 3490 023d 59       		.uleb128 0x59
 3491 023e 0B       		.uleb128 0xb
 3492 023f 00       		.byte	0
 3493 0240 00       		.byte	0
 3494 0241 2D       		.uleb128 0x2d
 3495 0242 05       		.uleb128 0x5
 3496 0243 00       		.byte	0
 3497 0244 31       		.uleb128 0x31
 3498 0245 13       		.uleb128 0x13
 3499 0246 02       		.uleb128 0x2
 3500 0247 17       		.uleb128 0x17
 3501 0248 00       		.byte	0
 3502 0249 00       		.byte	0
 3503 024a 2E       		.uleb128 0x2e
 3504 024b 2E       		.uleb128 0x2e
 3505 024c 01       		.byte	0x1
 3506 024d 3F       		.uleb128 0x3f
 3507 024e 19       		.uleb128 0x19
 3508 024f 03       		.uleb128 0x3
 3509 0250 0E       		.uleb128 0xe
 3510 0251 3A       		.uleb128 0x3a
 3511 0252 0B       		.uleb128 0xb
 3512 0253 3B       		.uleb128 0x3b
 3513 0254 0B       		.uleb128 0xb
 3514 0255 49       		.uleb128 0x49
 3515 0256 13       		.uleb128 0x13
 3516 0257 3C       		.uleb128 0x3c
 3517 0258 19       		.uleb128 0x19
 3518 0259 01       		.uleb128 0x1
 3519 025a 13       		.uleb128 0x13
 3520 025b 00       		.byte	0
 3521 025c 00       		.byte	0
 3522 025d 2F       		.uleb128 0x2f
 3523 025e 18       		.uleb128 0x18
 3524 025f 00       		.byte	0
 3525 0260 00       		.byte	0
 3526 0261 00       		.byte	0
 3527 0262 30       		.uleb128 0x30
 3528 0263 0B       		.uleb128 0xb
 3529 0264 01       		.byte	0x1
 3530 0265 11       		.uleb128 0x11
 3531 0266 01       		.uleb128 0x1
 3532 0267 12       		.uleb128 0x12
 3533 0268 06       		.uleb128 0x6
 3534 0269 00       		.byte	0
ARM GAS  /tmp/ccH5YtAd.s 			page 63


 3535 026a 00       		.byte	0
 3536 026b 31       		.uleb128 0x31
 3537 026c 0B       		.uleb128 0xb
 3538 026d 01       		.byte	0x1
 3539 026e 55       		.uleb128 0x55
 3540 026f 17       		.uleb128 0x17
 3541 0270 01       		.uleb128 0x1
 3542 0271 13       		.uleb128 0x13
 3543 0272 00       		.byte	0
 3544 0273 00       		.byte	0
 3545 0274 32       		.uleb128 0x32
 3546 0275 05       		.uleb128 0x5
 3547 0276 00       		.byte	0
 3548 0277 03       		.uleb128 0x3
 3549 0278 0E       		.uleb128 0xe
 3550 0279 3A       		.uleb128 0x3a
 3551 027a 0B       		.uleb128 0xb
 3552 027b 3B       		.uleb128 0x3b
 3553 027c 0B       		.uleb128 0xb
 3554 027d 49       		.uleb128 0x49
 3555 027e 13       		.uleb128 0x13
 3556 027f 02       		.uleb128 0x2
 3557 0280 18       		.uleb128 0x18
 3558 0281 00       		.byte	0
 3559 0282 00       		.byte	0
 3560 0283 33       		.uleb128 0x33
 3561 0284 898201   		.uleb128 0x4109
 3562 0287 00       		.byte	0
 3563 0288 11       		.uleb128 0x11
 3564 0289 01       		.uleb128 0x1
 3565 028a 9542     		.uleb128 0x2115
 3566 028c 19       		.uleb128 0x19
 3567 028d 31       		.uleb128 0x31
 3568 028e 13       		.uleb128 0x13
 3569 028f 00       		.byte	0
 3570 0290 00       		.byte	0
 3571 0291 34       		.uleb128 0x34
 3572 0292 2E       		.uleb128 0x2e
 3573 0293 01       		.byte	0x1
 3574 0294 31       		.uleb128 0x31
 3575 0295 13       		.uleb128 0x13
 3576 0296 11       		.uleb128 0x11
 3577 0297 01       		.uleb128 0x1
 3578 0298 12       		.uleb128 0x12
 3579 0299 06       		.uleb128 0x6
 3580 029a 40       		.uleb128 0x40
 3581 029b 18       		.uleb128 0x18
 3582 029c 9742     		.uleb128 0x2117
 3583 029e 19       		.uleb128 0x19
 3584 029f 01       		.uleb128 0x1
 3585 02a0 13       		.uleb128 0x13
 3586 02a1 00       		.byte	0
 3587 02a2 00       		.byte	0
 3588 02a3 35       		.uleb128 0x35
 3589 02a4 898201   		.uleb128 0x4109
 3590 02a7 01       		.byte	0x1
 3591 02a8 11       		.uleb128 0x11
ARM GAS  /tmp/ccH5YtAd.s 			page 64


 3592 02a9 01       		.uleb128 0x1
 3593 02aa 9542     		.uleb128 0x2115
 3594 02ac 19       		.uleb128 0x19
 3595 02ad 31       		.uleb128 0x31
 3596 02ae 13       		.uleb128 0x13
 3597 02af 00       		.byte	0
 3598 02b0 00       		.byte	0
 3599 02b1 36       		.uleb128 0x36
 3600 02b2 2E       		.uleb128 0x2e
 3601 02b3 00       		.byte	0
 3602 02b4 3F       		.uleb128 0x3f
 3603 02b5 19       		.uleb128 0x19
 3604 02b6 3C       		.uleb128 0x3c
 3605 02b7 19       		.uleb128 0x19
 3606 02b8 6E       		.uleb128 0x6e
 3607 02b9 0E       		.uleb128 0xe
 3608 02ba 03       		.uleb128 0x3
 3609 02bb 0E       		.uleb128 0xe
 3610 02bc 3A       		.uleb128 0x3a
 3611 02bd 0B       		.uleb128 0xb
 3612 02be 3B       		.uleb128 0x3b
 3613 02bf 0B       		.uleb128 0xb
 3614 02c0 00       		.byte	0
 3615 02c1 00       		.byte	0
 3616 02c2 00       		.byte	0
 3617              		.section	.debug_loc,"",%progbits
 3618              	.Ldebug_loc0:
 3619              	.LLST20:
 3620 0000 00000000 		.4byte	.LVL23
 3621 0004 0B000000 		.4byte	.LVL24-1
 3622 0008 0100     		.2byte	0x1
 3623 000a 50       		.byte	0x50
 3624 000b 0B000000 		.4byte	.LVL24-1
 3625 000f 12000000 		.4byte	.LFE74
 3626 0013 0100     		.2byte	0x1
 3627 0015 54       		.byte	0x54
 3628 0016 00000000 		.4byte	0
 3629 001a 00000000 		.4byte	0
 3630              	.LLST21:
 3631 001e 00000000 		.4byte	.LVL23
 3632 0022 0B000000 		.4byte	.LVL24-1
 3633 0026 0100     		.2byte	0x1
 3634 0028 51       		.byte	0x51
 3635 0029 0B000000 		.4byte	.LVL24-1
 3636 002d 12000000 		.4byte	.LFE74
 3637 0031 0400     		.2byte	0x4
 3638 0033 F3       		.byte	0xf3
 3639 0034 01       		.uleb128 0x1
 3640 0035 51       		.byte	0x51
 3641 0036 9F       		.byte	0x9f
 3642 0037 00000000 		.4byte	0
 3643 003b 00000000 		.4byte	0
 3644              	.LLST17:
 3645 003f 00000000 		.4byte	.LVL18
 3646 0043 0F000000 		.4byte	.LVL20-1
 3647 0047 0100     		.2byte	0x1
 3648 0049 50       		.byte	0x50
ARM GAS  /tmp/ccH5YtAd.s 			page 65


 3649 004a 0F000000 		.4byte	.LVL20-1
 3650 004e 18000000 		.4byte	.LFE72
 3651 0052 0400     		.2byte	0x4
 3652 0054 F3       		.byte	0xf3
 3653 0055 01       		.uleb128 0x1
 3654 0056 50       		.byte	0x50
 3655 0057 9F       		.byte	0x9f
 3656 0058 00000000 		.4byte	0
 3657 005c 00000000 		.4byte	0
 3658              	.LLST18:
 3659 0060 08000000 		.4byte	.LVL19
 3660 0064 0F000000 		.4byte	.LVL20-1
 3661 0068 0100     		.2byte	0x1
 3662 006a 50       		.byte	0x50
 3663 006b 0F000000 		.4byte	.LVL20-1
 3664 006f 10000000 		.4byte	.LVL20
 3665 0073 0400     		.2byte	0x4
 3666 0075 F3       		.byte	0xf3
 3667 0076 01       		.uleb128 0x1
 3668 0077 50       		.byte	0x50
 3669 0078 9F       		.byte	0x9f
 3670 0079 00000000 		.4byte	0
 3671 007d 00000000 		.4byte	0
 3672              	.LLST11:
 3673 0081 00000000 		.4byte	.LVL13
 3674 0085 0F000000 		.4byte	.LVL15-1
 3675 0089 0100     		.2byte	0x1
 3676 008b 50       		.byte	0x50
 3677 008c 0F000000 		.4byte	.LVL15-1
 3678 0090 18000000 		.4byte	.LFE70
 3679 0094 0400     		.2byte	0x4
 3680 0096 F3       		.byte	0xf3
 3681 0097 01       		.uleb128 0x1
 3682 0098 50       		.byte	0x50
 3683 0099 9F       		.byte	0x9f
 3684 009a 00000000 		.4byte	0
 3685 009e 00000000 		.4byte	0
 3686              	.LLST12:
 3687 00a2 00000000 		.4byte	.LVL13
 3688 00a6 0F000000 		.4byte	.LVL15-1
 3689 00aa 0100     		.2byte	0x1
 3690 00ac 51       		.byte	0x51
 3691 00ad 0F000000 		.4byte	.LVL15-1
 3692 00b1 18000000 		.4byte	.LFE70
 3693 00b5 0400     		.2byte	0x4
 3694 00b7 F3       		.byte	0xf3
 3695 00b8 01       		.uleb128 0x1
 3696 00b9 51       		.byte	0x51
 3697 00ba 9F       		.byte	0x9f
 3698 00bb 00000000 		.4byte	0
 3699 00bf 00000000 		.4byte	0
 3700              	.LLST13:
 3701 00c3 08000000 		.4byte	.LVL14
 3702 00c7 0F000000 		.4byte	.LVL15-1
 3703 00cb 0100     		.2byte	0x1
 3704 00cd 51       		.byte	0x51
 3705 00ce 0F000000 		.4byte	.LVL15-1
ARM GAS  /tmp/ccH5YtAd.s 			page 66


 3706 00d2 10000000 		.4byte	.LVL15
 3707 00d6 0400     		.2byte	0x4
 3708 00d8 F3       		.byte	0xf3
 3709 00d9 01       		.uleb128 0x1
 3710 00da 51       		.byte	0x51
 3711 00db 9F       		.byte	0x9f
 3712 00dc 00000000 		.4byte	0
 3713 00e0 00000000 		.4byte	0
 3714              	.LLST14:
 3715 00e4 08000000 		.4byte	.LVL14
 3716 00e8 0F000000 		.4byte	.LVL15-1
 3717 00ec 0100     		.2byte	0x1
 3718 00ee 50       		.byte	0x50
 3719 00ef 0F000000 		.4byte	.LVL15-1
 3720 00f3 10000000 		.4byte	.LVL15
 3721 00f7 0400     		.2byte	0x4
 3722 00f9 F3       		.byte	0xf3
 3723 00fa 01       		.uleb128 0x1
 3724 00fb 50       		.byte	0x50
 3725 00fc 9F       		.byte	0x9f
 3726 00fd 00000000 		.4byte	0
 3727 0101 00000000 		.4byte	0
 3728              	.LLST5:
 3729 0105 00000000 		.4byte	.LVL8
 3730 0109 0F000000 		.4byte	.LVL10-1
 3731 010d 0100     		.2byte	0x1
 3732 010f 50       		.byte	0x50
 3733 0110 0F000000 		.4byte	.LVL10-1
 3734 0114 18000000 		.4byte	.LFE68
 3735 0118 0400     		.2byte	0x4
 3736 011a F3       		.byte	0xf3
 3737 011b 01       		.uleb128 0x1
 3738 011c 50       		.byte	0x50
 3739 011d 9F       		.byte	0x9f
 3740 011e 00000000 		.4byte	0
 3741 0122 00000000 		.4byte	0
 3742              	.LLST6:
 3743 0126 00000000 		.4byte	.LVL8
 3744 012a 0F000000 		.4byte	.LVL10-1
 3745 012e 0100     		.2byte	0x1
 3746 0130 51       		.byte	0x51
 3747 0131 0F000000 		.4byte	.LVL10-1
 3748 0135 18000000 		.4byte	.LFE68
 3749 0139 0400     		.2byte	0x4
 3750 013b F3       		.byte	0xf3
 3751 013c 01       		.uleb128 0x1
 3752 013d 51       		.byte	0x51
 3753 013e 9F       		.byte	0x9f
 3754 013f 00000000 		.4byte	0
 3755 0143 00000000 		.4byte	0
 3756              	.LLST7:
 3757 0147 08000000 		.4byte	.LVL9
 3758 014b 0F000000 		.4byte	.LVL10-1
 3759 014f 0100     		.2byte	0x1
 3760 0151 51       		.byte	0x51
 3761 0152 0F000000 		.4byte	.LVL10-1
 3762 0156 10000000 		.4byte	.LVL10
ARM GAS  /tmp/ccH5YtAd.s 			page 67


 3763 015a 0400     		.2byte	0x4
 3764 015c F3       		.byte	0xf3
 3765 015d 01       		.uleb128 0x1
 3766 015e 51       		.byte	0x51
 3767 015f 9F       		.byte	0x9f
 3768 0160 00000000 		.4byte	0
 3769 0164 00000000 		.4byte	0
 3770              	.LLST8:
 3771 0168 08000000 		.4byte	.LVL9
 3772 016c 0F000000 		.4byte	.LVL10-1
 3773 0170 0100     		.2byte	0x1
 3774 0172 50       		.byte	0x50
 3775 0173 0F000000 		.4byte	.LVL10-1
 3776 0177 10000000 		.4byte	.LVL10
 3777 017b 0400     		.2byte	0x4
 3778 017d F3       		.byte	0xf3
 3779 017e 01       		.uleb128 0x1
 3780 017f 50       		.byte	0x50
 3781 0180 9F       		.byte	0x9f
 3782 0181 00000000 		.4byte	0
 3783 0185 00000000 		.4byte	0
 3784              	.LLST3:
 3785 0189 00000000 		.4byte	.LVL6
 3786 018d 0B000000 		.4byte	.LVL7-1
 3787 0191 0100     		.2byte	0x1
 3788 0193 50       		.byte	0x50
 3789 0194 0B000000 		.4byte	.LVL7-1
 3790 0198 14000000 		.4byte	.LFE67
 3791 019c 0400     		.2byte	0x4
 3792 019e F3       		.byte	0xf3
 3793 019f 01       		.uleb128 0x1
 3794 01a0 50       		.byte	0x50
 3795 01a1 9F       		.byte	0x9f
 3796 01a2 00000000 		.4byte	0
 3797 01a6 00000000 		.4byte	0
 3798              	.LLST4:
 3799 01aa 00000000 		.4byte	.LVL6
 3800 01ae 0B000000 		.4byte	.LVL7-1
 3801 01b2 0100     		.2byte	0x1
 3802 01b4 51       		.byte	0x51
 3803 01b5 0B000000 		.4byte	.LVL7-1
 3804 01b9 14000000 		.4byte	.LFE67
 3805 01bd 0400     		.2byte	0x4
 3806 01bf F3       		.byte	0xf3
 3807 01c0 01       		.uleb128 0x1
 3808 01c1 51       		.byte	0x51
 3809 01c2 9F       		.byte	0x9f
 3810 01c3 00000000 		.4byte	0
 3811 01c7 00000000 		.4byte	0
 3812              	.LLST2:
 3813 01cb 00000000 		.4byte	.LVL4
 3814 01cf 0D000000 		.4byte	.LVL5-1
 3815 01d3 0100     		.2byte	0x1
 3816 01d5 50       		.byte	0x50
 3817 01d6 0D000000 		.4byte	.LVL5-1
 3818 01da 1A000000 		.4byte	.LFE66
 3819 01de 0100     		.2byte	0x1
ARM GAS  /tmp/ccH5YtAd.s 			page 68


 3820 01e0 54       		.byte	0x54
 3821 01e1 00000000 		.4byte	0
 3822 01e5 00000000 		.4byte	0
 3823              	.LLST0:
 3824 01e9 00000000 		.4byte	.LVL2
 3825 01ed 0F000000 		.4byte	.LVL3-1
 3826 01f1 0100     		.2byte	0x1
 3827 01f3 50       		.byte	0x50
 3828 01f4 0F000000 		.4byte	.LVL3-1
 3829 01f8 1C000000 		.4byte	.LFE65
 3830 01fc 0100     		.2byte	0x1
 3831 01fe 54       		.byte	0x54
 3832 01ff 00000000 		.4byte	0
 3833 0203 00000000 		.4byte	0
 3834              	.LLST1:
 3835 0207 00000000 		.4byte	.LVL2
 3836 020b 0F000000 		.4byte	.LVL3-1
 3837 020f 0100     		.2byte	0x1
 3838 0211 51       		.byte	0x51
 3839 0212 0F000000 		.4byte	.LVL3-1
 3840 0216 1C000000 		.4byte	.LFE65
 3841 021a 0400     		.2byte	0x4
 3842 021c F3       		.byte	0xf3
 3843 021d 01       		.uleb128 0x1
 3844 021e 51       		.byte	0x51
 3845 021f 9F       		.byte	0x9f
 3846 0220 00000000 		.4byte	0
 3847 0224 00000000 		.4byte	0
 3848              	.LLST9:
 3849 0228 00000000 		.4byte	.LVL11
 3850 022c 07000000 		.4byte	.LVL12-1
 3851 0230 0100     		.2byte	0x1
 3852 0232 50       		.byte	0x50
 3853 0233 07000000 		.4byte	.LVL12-1
 3854 0237 08000000 		.4byte	.LFE69
 3855 023b 0400     		.2byte	0x4
 3856 023d F3       		.byte	0xf3
 3857 023e 01       		.uleb128 0x1
 3858 023f 50       		.byte	0x50
 3859 0240 9F       		.byte	0x9f
 3860 0241 00000000 		.4byte	0
 3861 0245 00000000 		.4byte	0
 3862              	.LLST10:
 3863 0249 00000000 		.4byte	.LVL11
 3864 024d 07000000 		.4byte	.LVL12-1
 3865 0251 0100     		.2byte	0x1
 3866 0253 51       		.byte	0x51
 3867 0254 07000000 		.4byte	.LVL12-1
 3868 0258 08000000 		.4byte	.LFE69
 3869 025c 0400     		.2byte	0x4
 3870 025e F3       		.byte	0xf3
 3871 025f 01       		.uleb128 0x1
 3872 0260 51       		.byte	0x51
 3873 0261 9F       		.byte	0x9f
 3874 0262 00000000 		.4byte	0
 3875 0266 00000000 		.4byte	0
 3876              	.LLST15:
ARM GAS  /tmp/ccH5YtAd.s 			page 69


 3877 026a 00000000 		.4byte	.LVL16
 3878 026e 07000000 		.4byte	.LVL17-1
 3879 0272 0100     		.2byte	0x1
 3880 0274 50       		.byte	0x50
 3881 0275 07000000 		.4byte	.LVL17-1
 3882 0279 08000000 		.4byte	.LFE71
 3883 027d 0400     		.2byte	0x4
 3884 027f F3       		.byte	0xf3
 3885 0280 01       		.uleb128 0x1
 3886 0281 50       		.byte	0x50
 3887 0282 9F       		.byte	0x9f
 3888 0283 00000000 		.4byte	0
 3889 0287 00000000 		.4byte	0
 3890              	.LLST16:
 3891 028b 00000000 		.4byte	.LVL16
 3892 028f 07000000 		.4byte	.LVL17-1
 3893 0293 0100     		.2byte	0x1
 3894 0295 51       		.byte	0x51
 3895 0296 07000000 		.4byte	.LVL17-1
 3896 029a 08000000 		.4byte	.LFE71
 3897 029e 0400     		.2byte	0x4
 3898 02a0 F3       		.byte	0xf3
 3899 02a1 01       		.uleb128 0x1
 3900 02a2 51       		.byte	0x51
 3901 02a3 9F       		.byte	0x9f
 3902 02a4 00000000 		.4byte	0
 3903 02a8 00000000 		.4byte	0
 3904              	.LLST19:
 3905 02ac 00000000 		.4byte	.LVL21
 3906 02b0 07000000 		.4byte	.LVL22-1
 3907 02b4 0100     		.2byte	0x1
 3908 02b6 50       		.byte	0x50
 3909 02b7 07000000 		.4byte	.LVL22-1
 3910 02bb 08000000 		.4byte	.LFE73
 3911 02bf 0400     		.2byte	0x4
 3912 02c1 F3       		.byte	0xf3
 3913 02c2 01       		.uleb128 0x1
 3914 02c3 50       		.byte	0x50
 3915 02c4 9F       		.byte	0x9f
 3916 02c5 00000000 		.4byte	0
 3917 02c9 00000000 		.4byte	0
 3918              		.section	.debug_aranges,"",%progbits
 3919 0000 74000000 		.4byte	0x74
 3920 0004 0200     		.2byte	0x2
 3921 0006 00000000 		.4byte	.Ldebug_info0
 3922 000a 04       		.byte	0x4
 3923 000b 00       		.byte	0
 3924 000c 0000     		.2byte	0
 3925 000e 0000     		.2byte	0
 3926 0010 00000000 		.4byte	.LFB63
 3927 0014 04000000 		.4byte	.LFE63-.LFB63
 3928 0018 00000000 		.4byte	.LFB64
 3929 001c 0A000000 		.4byte	.LFE64-.LFB64
 3930 0020 00000000 		.4byte	.LFB65
 3931 0024 1C000000 		.4byte	.LFE65-.LFB65
 3932 0028 00000000 		.4byte	.LFB66
 3933 002c 1A000000 		.4byte	.LFE66-.LFB66
ARM GAS  /tmp/ccH5YtAd.s 			page 70


 3934 0030 00000000 		.4byte	.LFB67
 3935 0034 14000000 		.4byte	.LFE67-.LFB67
 3936 0038 00000000 		.4byte	.LFB68
 3937 003c 18000000 		.4byte	.LFE68-.LFB68
 3938 0040 00000000 		.4byte	.LFB69
 3939 0044 08000000 		.4byte	.LFE69-.LFB69
 3940 0048 00000000 		.4byte	.LFB70
 3941 004c 18000000 		.4byte	.LFE70-.LFB70
 3942 0050 00000000 		.4byte	.LFB71
 3943 0054 08000000 		.4byte	.LFE71-.LFB71
 3944 0058 00000000 		.4byte	.LFB72
 3945 005c 18000000 		.4byte	.LFE72-.LFB72
 3946 0060 00000000 		.4byte	.LFB73
 3947 0064 08000000 		.4byte	.LFE73-.LFB73
 3948 0068 00000000 		.4byte	.LFB74
 3949 006c 12000000 		.4byte	.LFE74-.LFB74
 3950 0070 00000000 		.4byte	0
 3951 0074 00000000 		.4byte	0
 3952              		.section	.debug_ranges,"",%progbits
 3953              	.Ldebug_ranges0:
 3954 0000 02000000 		.4byte	.LBB14
 3955 0004 04000000 		.4byte	.LBE14
 3956 0008 06000000 		.4byte	.LBB15
 3957 000c 0A000000 		.4byte	.LBE15
 3958 0010 00000000 		.4byte	0
 3959 0014 00000000 		.4byte	0
 3960 0018 12000000 		.4byte	.LBB16
 3961 001c 14000000 		.4byte	.LBE16
 3962 0020 16000000 		.4byte	.LBB17
 3963 0024 1C000000 		.4byte	.LBE17
 3964 0028 00000000 		.4byte	0
 3965 002c 00000000 		.4byte	0
 3966 0030 02000000 		.4byte	.LBB18
 3967 0034 04000000 		.4byte	.LBE18
 3968 0038 06000000 		.4byte	.LBB19
 3969 003c 0A000000 		.4byte	.LBE19
 3970 0040 00000000 		.4byte	0
 3971 0044 00000000 		.4byte	0
 3972 0048 10000000 		.4byte	.LBB20
 3973 004c 12000000 		.4byte	.LBE20
 3974 0050 14000000 		.4byte	.LBB21
 3975 0054 1A000000 		.4byte	.LBE21
 3976 0058 00000000 		.4byte	0
 3977 005c 00000000 		.4byte	0
 3978 0060 00000000 		.4byte	.LFB63
 3979 0064 04000000 		.4byte	.LFE63
 3980 0068 00000000 		.4byte	.LFB64
 3981 006c 0A000000 		.4byte	.LFE64
 3982 0070 00000000 		.4byte	.LFB65
 3983 0074 1C000000 		.4byte	.LFE65
 3984 0078 00000000 		.4byte	.LFB66
 3985 007c 1A000000 		.4byte	.LFE66
 3986 0080 00000000 		.4byte	.LFB67
 3987 0084 14000000 		.4byte	.LFE67
 3988 0088 00000000 		.4byte	.LFB68
 3989 008c 18000000 		.4byte	.LFE68
 3990 0090 00000000 		.4byte	.LFB69
ARM GAS  /tmp/ccH5YtAd.s 			page 71


 3991 0094 08000000 		.4byte	.LFE69
 3992 0098 00000000 		.4byte	.LFB70
 3993 009c 18000000 		.4byte	.LFE70
 3994 00a0 00000000 		.4byte	.LFB71
 3995 00a4 08000000 		.4byte	.LFE71
 3996 00a8 00000000 		.4byte	.LFB72
 3997 00ac 18000000 		.4byte	.LFE72
 3998 00b0 00000000 		.4byte	.LFB73
 3999 00b4 08000000 		.4byte	.LFE73
 4000 00b8 00000000 		.4byte	.LFB74
 4001 00bc 12000000 		.4byte	.LFE74
 4002 00c0 00000000 		.4byte	0
 4003 00c4 00000000 		.4byte	0
 4004              		.section	.debug_line,"",%progbits
 4005              	.Ldebug_line0:
 4006 0000 57030000 		.section	.debug_str,"MS",%progbits,1
 4006      02005502 
 4006      00000201 
 4006      FB0E0D00 
 4006      01010101 
 4007              	.LASF4:
 4008 0000 73697A65 		.ascii	"size_t\000"
 4008      5F7400
 4009              	.LASF57:
 4010 0007 73697A65 		.ascii	"sizetype\000"
 4010      74797065 
 4010      00
 4011              	.LASF103:
 4012 0010 63665F6F 		.ascii	"cf_off_name\000"
 4012      66665F6E 
 4012      616D6500 
 4013              	.LASF30:
 4014 001c 73797374 		.ascii	"systime_t\000"
 4014      696D655F 
 4014      7400
 4015              	.LASF92:
 4016 0026 63685F69 		.ascii	"ch_identifier\000"
 4016      64656E74 
 4016      69666965 
 4016      7200
 4017              	.LASF35:
 4018 0034 705F6374 		.ascii	"p_ctx\000"
 4018      7800
 4019              	.LASF26:
 4020 003a 74707269 		.ascii	"tprio_t\000"
 4020      6F5F7400 
 4021              	.LASF194:
 4022 0042 67707449 		.ascii	"gptInit\000"
 4022      6E697400 
 4023              	.LASF111:
 4024 004a 63685F64 		.ascii	"ch_debug\000"
 4024      65627567 
 4024      00
 4025              	.LASF45:
 4026 0053 705F6D73 		.ascii	"p_msgqueue\000"
 4026      67717565 
 4026      756500
ARM GAS  /tmp/ccH5YtAd.s 			page 72


 4027              	.LASF69:
 4028 005e 725F6374 		.ascii	"r_ctx\000"
 4028      7800
 4029              	.LASF18:
 4030 0064 696E7433 		.ascii	"int32_t\000"
 4030      325F7400 
 4031              	.LASF178:
 4032 006c 77726974 		.ascii	"writet\000"
 4032      657400
 4033              	.LASF100:
 4034 0073 63665F6F 		.ascii	"cf_off_ctx\000"
 4034      66665F63 
 4034      747800
 4035              	.LASF58:
 4036 007e 76746675 		.ascii	"vtfunc_t\000"
 4036      6E635F74 
 4036      00
 4037              	.LASF185:
 4038 0087 67707453 		.ascii	"gptStartOneShotI\000"
 4038      74617274 
 4038      4F6E6553 
 4038      686F7449 
 4038      00
 4039              	.LASF138:
 4040 0098 4C50435F 		.ascii	"LPC_GPDMACH_TypeDef\000"
 4040      4750444D 
 4040      4143485F 
 4040      54797065 
 4040      44656600 
 4041              	.LASF174:
 4042 00ac 77726974 		.ascii	"write\000"
 4042      6500
 4043              	.LASF129:
 4044 00b2 43544352 		.ascii	"CTCR\000"
 4044      00
 4045              	.LASF84:
 4046 00b7 656C5F66 		.ascii	"el_flags\000"
 4046      6C616773 
 4046      00
 4047              	.LASF187:
 4048 00c0 67707453 		.ascii	"gptStartContinuousI\000"
 4048      74617274 
 4048      436F6E74 
 4048      696E756F 
 4048      75734900 
 4049              	.LASF149:
 4050 00d4 67707473 		.ascii	"gptstate_t\000"
 4050      74617465 
 4050      5F7400
 4051              	.LASF152:
 4052 00df 636F6E66 		.ascii	"config\000"
 4052      696700
 4053              	.LASF151:
 4054 00e6 73746174 		.ascii	"state\000"
 4054      6500
 4055              	.LASF176:
 4056 00ec 70757474 		.ascii	"putt\000"
ARM GAS  /tmp/ccH5YtAd.s 			page 73


 4056      00
 4057              	.LASF192:
 4058 00f1 67707453 		.ascii	"gptStart\000"
 4058      74617274 
 4058      00
 4059              	.LASF96:
 4060 00fa 63685F70 		.ascii	"ch_ptrsize\000"
 4060      74727369 
 4060      7A6500
 4061              	.LASF158:
 4062 0105 63616C6C 		.ascii	"callback\000"
 4062      6261636B 
 4062      00
 4063              	.LASF78:
 4064 010e 6D5F6F77 		.ascii	"m_owner\000"
 4064      6E657200 
 4065              	.LASF64:
 4066 0116 76745F70 		.ascii	"vt_par\000"
 4066      617200
 4067              	.LASF88:
 4068 011d 65786974 		.ascii	"exitcode\000"
 4068      636F6465 
 4068      00
 4069              	.LASF5:
 4070 0126 5F5F7569 		.ascii	"__uint8_t\000"
 4070      6E74385F 
 4070      7400
 4071              	.LASF116:
 4072 0130 715F746F 		.ascii	"q_top\000"
 4072      7000
 4073              	.LASF134:
 4074 0136 43446573 		.ascii	"CDestAddr\000"
 4074      74416464 
 4074      7200
 4075              	.LASF90:
 4076 0140 65776D61 		.ascii	"ewmask\000"
 4076      736B00
 4077              	.LASF98:
 4078 0147 63685F74 		.ascii	"ch_threadsize\000"
 4078      68726561 
 4078      6473697A 
 4078      6500
 4079              	.LASF181:
 4080 0155 696E7465 		.ascii	"interval\000"
 4080      7276616C 
 4080      00
 4081              	.LASF179:
 4082 015e 72656164 		.ascii	"readt\000"
 4082      7400
 4083              	.LASF115:
 4084 0164 715F6275 		.ascii	"q_buffer\000"
 4084      66666572 
 4084      00
 4085              	.LASF133:
 4086 016d 43537263 		.ascii	"CSrcAddr\000"
 4086      41646472 
 4086      00
ARM GAS  /tmp/ccH5YtAd.s 			page 74


 4087              	.LASF119:
 4088 0176 715F6E6F 		.ascii	"q_notify\000"
 4088      74696679 
 4088      00
 4089              	.LASF36:
 4090 017f 705F6E65 		.ascii	"p_newer\000"
 4090      77657200 
 4091              	.LASF11:
 4092 0187 6C6F6E67 		.ascii	"long int\000"
 4092      20696E74 
 4092      00
 4093              	.LASF32:
 4094 0190 705F6E65 		.ascii	"p_next\000"
 4094      787400
 4095              	.LASF118:
 4096 0197 715F7264 		.ascii	"q_rdptr\000"
 4096      70747200 
 4097              	.LASF105:
 4098 019f 63665F6F 		.ascii	"cf_off_state\000"
 4098      66665F73 
 4098      74617465 
 4098      00
 4099              	.LASF33:
 4100 01ac 705F7072 		.ascii	"p_prev\000"
 4100      657600
 4101              	.LASF160:
 4102 01b3 47505444 		.ascii	"GPTD1\000"
 4102      3100
 4103              	.LASF161:
 4104 01b9 47505444 		.ascii	"GPTD2\000"
 4104      3200
 4105              	.LASF162:
 4106 01bf 47505444 		.ascii	"GPTD3\000"
 4106      3300
 4107              	.LASF163:
 4108 01c5 47505444 		.ascii	"GPTD4\000"
 4108      3400
 4109              	.LASF23:
 4110 01cb 74737461 		.ascii	"tstate_t\000"
 4110      74655F74 
 4110      00
 4111              	.LASF202:
 4112 01d4 2E2E2F2E 		.ascii	"../../os/hal/src/gpt.c\000"
 4112      2E2F6F73 
 4112      2F68616C 
 4112      2F737263 
 4112      2F677074 
 4113              	.LASF48:
 4114 01eb 705F6D74 		.ascii	"p_mtxlist\000"
 4114      786C6973 
 4114      7400
 4115              	.LASF193:
 4116 01f5 6770744F 		.ascii	"gptObjectInit\000"
 4116      626A6563 
 4116      74496E69 
 4116      7400
 4117              	.LASF171:
ARM GAS  /tmp/ccH5YtAd.s 			page 75


 4118 0203 6F717565 		.ascii	"oqueue\000"
 4118      756500
 4119              	.LASF53:
 4120 020a 72656761 		.ascii	"regarm_t\000"
 4120      726D5F74 
 4120      00
 4121              	.LASF143:
 4122 0213 70616C5F 		.ascii	"pal_default_config\000"
 4122      64656661 
 4122      756C745F 
 4122      636F6E66 
 4122      696700
 4123              	.LASF3:
 4124 0226 7369676E 		.ascii	"signed char\000"
 4124      65642063 
 4124      68617200 
 4125              	.LASF42:
 4126 0232 705F7072 		.ascii	"p_preempt\000"
 4126      65656D70 
 4126      7400
 4127              	.LASF16:
 4128 023c 75696E74 		.ascii	"uint8_t\000"
 4128      385F7400 
 4129              	.LASF28:
 4130 0244 6576656E 		.ascii	"eventmask_t\000"
 4130      746D6173 
 4130      6B5F7400 
 4131              	.LASF56:
 4132 0250 636F6E74 		.ascii	"context\000"
 4132      65787400 
 4133              	.LASF127:
 4134 0258 52455345 		.ascii	"RESERVED0\000"
 4134      52564544 
 4134      3000
 4135              	.LASF128:
 4136 0262 52455345 		.ascii	"RESERVED1\000"
 4136      52564544 
 4136      3100
 4137              	.LASF6:
 4138 026c 756E7369 		.ascii	"unsigned char\000"
 4138      676E6564 
 4138      20636861 
 4138      7200
 4139              	.LASF120:
 4140 027a 715F6C69 		.ascii	"q_link\000"
 4140      6E6B00
 4141              	.LASF61:
 4142 0281 76745F70 		.ascii	"vt_prev\000"
 4142      72657600 
 4143              	.LASF70:
 4144 0289 725F6E65 		.ascii	"r_newer\000"
 4144      77657200 
 4145              	.LASF164:
 4146 0291 53445F55 		.ascii	"SD_UNINIT\000"
 4146      4E494E49 
 4146      5400
 4147              	.LASF21:
ARM GAS  /tmp/ccH5YtAd.s 			page 76


 4148 029b 5F426F6F 		.ascii	"_Bool\000"
 4148      6C00
 4149              	.LASF131:
 4150 02a1 52455345 		.ascii	"RESERVED2\000"
 4150      52564544 
 4150      3200
 4151              	.LASF91:
 4152 02ab 63686172 		.ascii	"char\000"
 4152      00
 4153              	.LASF144:
 4154 02b0 4750545F 		.ascii	"GPT_UNINIT\000"
 4154      554E494E 
 4154      495400
 4155              	.LASF34:
 4156 02bb 705F7072 		.ascii	"p_prio\000"
 4156      696F00
 4157              	.LASF8:
 4158 02c2 5F5F7569 		.ascii	"__uint16_t\000"
 4158      6E743136 
 4158      5F7400
 4159              	.LASF112:
 4160 02cd 47656E65 		.ascii	"GenericQueue\000"
 4160      72696351 
 4160      75657565 
 4160      00
 4161              	.LASF89:
 4162 02da 77746F62 		.ascii	"wtobjp\000"
 4162      6A7000
 4163              	.LASF183:
 4164 02e1 67707453 		.ascii	"gptStopTimer\000"
 4164      746F7054 
 4164      696D6572 
 4164      00
 4165              	.LASF101:
 4166 02ee 63665F6F 		.ascii	"cf_off_newer\000"
 4166      66665F6E 
 4166      65776572 
 4166      00
 4167              	.LASF177:
 4168 02fb 67657474 		.ascii	"gett\000"
 4168      00
 4169              	.LASF54:
 4170 0300 73746B61 		.ascii	"stkalign_t\000"
 4170      6C69676E 
 4170      5F7400
 4171              	.LASF123:
 4172 030b 4F757470 		.ascii	"OutputQueue\000"
 4172      75745175 
 4172      65756500 
 4173              	.LASF99:
 4174 0317 63665F6F 		.ascii	"cf_off_prio\000"
 4174      66665F70 
 4174      72696F00 
 4175              	.LASF200:
 4176 0323 6770745F 		.ascii	"gpt_lld_init\000"
 4176      6C6C645F 
 4176      696E6974 
ARM GAS  /tmp/ccH5YtAd.s 			page 77


 4176      00
 4177              	.LASF189:
 4178 0330 67707443 		.ascii	"gptChangeInterval\000"
 4178      68616E67 
 4178      65496E74 
 4178      65727661 
 4178      6C00
 4179              	.LASF63:
 4180 0342 76745F66 		.ascii	"vt_func\000"
 4180      756E6300 
 4181              	.LASF55:
 4182 034a 696E7463 		.ascii	"intctx\000"
 4182      747800
 4183              	.LASF47:
 4184 0351 705F6570 		.ascii	"p_epending\000"
 4184      656E6469 
 4184      6E6700
 4185              	.LASF86:
 4186 035c 65735F6E 		.ascii	"es_next\000"
 4186      65787400 
 4187              	.LASF114:
 4188 0364 715F636F 		.ascii	"q_counter\000"
 4188      756E7465 
 4188      7200
 4189              	.LASF136:
 4190 036e 43436F6E 		.ascii	"CControl\000"
 4190      74726F6C 
 4190      00
 4191              	.LASF85:
 4192 0377 4576656E 		.ascii	"EventSource\000"
 4192      74536F75 
 4192      72636500 
 4193              	.LASF14:
 4194 0383 5F5F7569 		.ascii	"__uint64_t\000"
 4194      6E743634 
 4194      5F7400
 4195              	.LASF13:
 4196 038e 6C6F6E67 		.ascii	"long unsigned int\000"
 4196      20756E73 
 4196      69676E65 
 4196      6420696E 
 4196      7400
 4197              	.LASF93:
 4198 03a0 63685F7A 		.ascii	"ch_zero\000"
 4198      65726F00 
 4199              	.LASF126:
 4200 03a8 53797374 		.ascii	"SystemCoreClock\000"
 4200      656D436F 
 4200      7265436C 
 4200      6F636B00 
 4201              	.LASF155:
 4202 03b8 67707466 		.ascii	"gptfreq_t\000"
 4202      7265715F 
 4202      7400
 4203              	.LASF81:
 4204 03c2 656C5F6E 		.ascii	"el_next\000"
 4204      65787400 
ARM GAS  /tmp/ccH5YtAd.s 			page 78


 4205              	.LASF117:
 4206 03ca 715F7772 		.ascii	"q_wrptr\000"
 4206      70747200 
 4207              	.LASF139:
 4208 03d2 5F6C7063 		.ascii	"_lpc17xx_dma_channel_config_t\000"
 4208      31377878 
 4208      5F646D61 
 4208      5F636861 
 4208      6E6E656C 
 4209              	.LASF173:
 4210 03f0 53657269 		.ascii	"SerialDriverVMT\000"
 4210      616C4472 
 4210      69766572 
 4210      564D5400 
 4211              	.LASF197:
 4212 0400 6770745F 		.ascii	"gpt_lld_start_timer\000"
 4212      6C6C645F 
 4212      73746172 
 4212      745F7469 
 4212      6D657200 
 4213              	.LASF153:
 4214 0414 636C6F63 		.ascii	"clock\000"
 4214      6B00
 4215              	.LASF159:
 4216 041a 47505443 		.ascii	"GPTConfig\000"
 4216      6F6E6669 
 4216      6700
 4217              	.LASF191:
 4218 0424 67707453 		.ascii	"gptStop\000"
 4218      746F7000 
 4219              	.LASF108:
 4220 042c 63665F6F 		.ascii	"cf_off_preempt\000"
 4220      66665F70 
 4220      7265656D 
 4220      707400
 4221              	.LASF12:
 4222 043b 5F5F7569 		.ascii	"__uint32_t\000"
 4222      6E743332 
 4222      5F7400
 4223              	.LASF76:
 4224 0446 4D757465 		.ascii	"Mutex\000"
 4224      7800
 4225              	.LASF1:
 4226 044c 6C6F6E67 		.ascii	"long long int\000"
 4226      206C6F6E 
 4226      6720696E 
 4226      7400
 4227              	.LASF95:
 4228 045a 63685F76 		.ascii	"ch_version\000"
 4228      65727369 
 4228      6F6E00
 4229              	.LASF77:
 4230 0465 6D5F7175 		.ascii	"m_queue\000"
 4230      65756500 
 4231              	.LASF150:
 4232 046d 47505444 		.ascii	"GPTDriver\000"
 4232      72697665 
ARM GAS  /tmp/ccH5YtAd.s 			page 79


 4232      7200
 4233              	.LASF60:
 4234 0477 76745F6E 		.ascii	"vt_next\000"
 4234      65787400 
 4235              	.LASF186:
 4236 047f 67707453 		.ascii	"gptStartOneShot\000"
 4236      74617274 
 4236      4F6E6553 
 4236      686F7400 
 4237              	.LASF180:
 4238 048f 67707470 		.ascii	"gptp\000"
 4238      00
 4239              	.LASF125:
 4240 0494 49544D5F 		.ascii	"ITM_RxBuffer\000"
 4240      52784275 
 4240      66666572 
 4240      00
 4241              	.LASF157:
 4242 04a1 66726571 		.ascii	"frequency\000"
 4242      75656E63 
 4242      7900
 4243              	.LASF190:
 4244 04ab 6770745F 		.ascii	"gpt_lld_change_interval\000"
 4244      6C6C645F 
 4244      6368616E 
 4244      67655F69 
 4244      6E746572 
 4245              	.LASF121:
 4246 04c3 716E6F74 		.ascii	"qnotify_t\000"
 4246      6966795F 
 4246      7400
 4247              	.LASF148:
 4248 04cd 4750545F 		.ascii	"GPT_ONESHOT\000"
 4248      4F4E4553 
 4248      484F5400 
 4249              	.LASF44:
 4250 04d9 705F7761 		.ascii	"p_waiting\000"
 4250      6974696E 
 4250      6700
 4251              	.LASF169:
 4252 04e3 6576656E 		.ascii	"event\000"
 4252      7400
 4253              	.LASF40:
 4254 04e9 705F666C 		.ascii	"p_flags\000"
 4254      61677300 
 4255              	.LASF175:
 4256 04f1 72656164 		.ascii	"read\000"
 4256      00
 4257              	.LASF167:
 4258 04f6 73647374 		.ascii	"sdstate_t\000"
 4258      6174655F 
 4258      7400
 4259              	.LASF0:
 4260 0500 756E7369 		.ascii	"unsigned int\000"
 4260      676E6564 
 4260      20696E74 
 4260      00
ARM GAS  /tmp/ccH5YtAd.s 			page 80


 4261              	.LASF104:
 4262 050d 63665F6F 		.ascii	"cf_off_stklimit\000"
 4262      66665F73 
 4262      746B6C69 
 4262      6D697400 
 4263              	.LASF50:
 4264 051d 705F6D70 		.ascii	"p_mpool\000"
 4264      6F6F6C00 
 4265              	.LASF41:
 4266 0525 705F7265 		.ascii	"p_refs\000"
 4266      667300
 4267              	.LASF97:
 4268 052c 63685F74 		.ascii	"ch_timesize\000"
 4268      696D6573 
 4268      697A6500 
 4269              	.LASF201:
 4270 0538 474E5520 		.ascii	"GNU C11 6.3.1 20170620 -mcpu=cortex-m3 -mno-thumb-i"
 4270      43313120 
 4270      362E332E 
 4270      31203230 
 4270      31373036 
 4271 056b 6E746572 		.ascii	"nterwork -mthumb -ggdb -O2 -fomit-frame-pointer -ff"
 4271      776F726B 
 4271      202D6D74 
 4271      68756D62 
 4271      202D6767 
 4272 059e 756E6374 		.ascii	"unction-sections -fdata-sections -fno-common\000"
 4272      696F6E2D 
 4272      73656374 
 4272      696F6E73 
 4272      202D6664 
 4273              	.LASF52:
 4274 05cb 54687265 		.ascii	"ThreadsList\000"
 4274      6164734C 
 4274      69737400 
 4275              	.LASF29:
 4276 05d7 666C6167 		.ascii	"flagsmask_t\000"
 4276      736D6173 
 4276      6B5F7400 
 4277              	.LASF43:
 4278 05e3 705F7469 		.ascii	"p_time\000"
 4278      6D6500
 4279              	.LASF107:
 4280 05ea 63665F6F 		.ascii	"cf_off_refs\000"
 4280      66665F72 
 4280      65667300 
 4281              	.LASF130:
 4282 05f6 4C50435F 		.ascii	"LPC_TIM_TypeDef\000"
 4282      54494D5F 
 4282      54797065 
 4282      44656600 
 4283              	.LASF2:
 4284 0606 6C6F6E67 		.ascii	"long double\000"
 4284      20646F75 
 4284      626C6500 
 4285              	.LASF195:
 4286 0612 6770745F 		.ascii	"gpt_lld_polled_delay\000"
ARM GAS  /tmp/ccH5YtAd.s 			page 81


 4286      6C6C645F 
 4286      706F6C6C 
 4286      65645F64 
 4286      656C6179 
 4287              	.LASF49:
 4288 0627 705F7265 		.ascii	"p_realprio\000"
 4288      616C7072 
 4288      696F00
 4289              	.LASF109:
 4290 0632 63665F6F 		.ascii	"cf_off_time\000"
 4290      66665F74 
 4290      696D6500 
 4291              	.LASF203:
 4292 063e 2F686F6D 		.ascii	"/home/ekobayu/Arok-Gandring-Lokajaya/LPC/ChibiOS-RT"
 4292      652F656B 
 4292      6F626179 
 4292      752F4172 
 4292      6F6B2D47 
 4293 0671 2D4C5043 		.ascii	"-LPC/demos/LPC1766\000"
 4293      2F64656D 
 4293      6F732F4C 
 4293      50433137 
 4293      363600
 4294              	.LASF15:
 4295 0684 6C6F6E67 		.ascii	"long long unsigned int\000"
 4295      206C6F6E 
 4295      6720756E 
 4295      7369676E 
 4295      65642069 
 4296              	.LASF37:
 4297 069b 705F6F6C 		.ascii	"p_older\000"
 4297      64657200 
 4298              	.LASF17:
 4299 06a3 75696E74 		.ascii	"uint16_t\000"
 4299      31365F74 
 4299      00
 4300              	.LASF27:
 4301 06ac 6D73675F 		.ascii	"msg_t\000"
 4301      7400
 4302              	.LASF196:
 4303 06b2 6770745F 		.ascii	"gpt_lld_stop_timer\000"
 4303      6C6C645F 
 4303      73746F70 
 4303      5F74696D 
 4303      657200
 4304              	.LASF106:
 4305 06c5 63665F6F 		.ascii	"cf_off_flags\000"
 4305      66665F66 
 4305      6C616773 
 4305      00
 4306              	.LASF25:
 4307 06d2 74736C69 		.ascii	"tslices_t\000"
 4307      6365735F 
 4307      7400
 4308              	.LASF146:
 4309 06dc 4750545F 		.ascii	"GPT_READY\000"
 4309      52454144 
ARM GAS  /tmp/ccH5YtAd.s 			page 82


 4309      5900
 4310              	.LASF147:
 4311 06e6 4750545F 		.ascii	"GPT_CONTINUOUS\000"
 4311      434F4E54 
 4311      494E554F 
 4311      555300
 4312              	.LASF72:
 4313 06f5 725F6375 		.ascii	"r_current\000"
 4313      7272656E 
 4313      7400
 4314              	.LASF66:
 4315 06ff 56544C69 		.ascii	"VTList\000"
 4315      737400
 4316              	.LASF132:
 4317 0706 4C50435F 		.ascii	"LPC_UART_TypeDef\000"
 4317      55415254 
 4317      5F547970 
 4317      65446566 
 4317      00
 4318              	.LASF135:
 4319 0717 434C4C49 		.ascii	"CLLI\000"
 4319      00
 4320              	.LASF67:
 4321 071c 725F7175 		.ascii	"r_queue\000"
 4321      65756500 
 4322              	.LASF168:
 4323 0724 53657269 		.ascii	"SerialDriver\000"
 4323      616C4472 
 4323      69766572 
 4323      00
 4324              	.LASF113:
 4325 0731 715F7761 		.ascii	"q_waiting\000"
 4325      6974696E 
 4325      6700
 4326              	.LASF75:
 4327 073b 726C6973 		.ascii	"rlist\000"
 4327      7400
 4328              	.LASF22:
 4329 0741 746D6F64 		.ascii	"tmode_t\000"
 4329      655F7400 
 4330              	.LASF156:
 4331 0749 67707463 		.ascii	"gptcnt_t\000"
 4331      6E745F74 
 4331      00
 4332              	.LASF198:
 4333 0752 6770745F 		.ascii	"gpt_lld_stop\000"
 4333      6C6C645F 
 4333      73746F70 
 4333      00
 4334              	.LASF65:
 4335 075f 76745F73 		.ascii	"vt_systime\000"
 4335      79737469 
 4335      6D6500
 4336              	.LASF166:
 4337 076a 53445F52 		.ascii	"SD_READY\000"
 4337      45414459 
 4337      00
ARM GAS  /tmp/ccH5YtAd.s 			page 83


 4338              	.LASF71:
 4339 0773 725F6F6C 		.ascii	"r_older\000"
 4339      64657200 
 4340              	.LASF184:
 4341 077b 67707453 		.ascii	"gptStopTimerI\000"
 4341      746F7054 
 4341      696D6572 
 4341      4900
 4342              	.LASF7:
 4343 0789 73686F72 		.ascii	"short int\000"
 4343      7420696E 
 4343      7400
 4344              	.LASF20:
 4345 0793 75696E74 		.ascii	"uint64_t\000"
 4345      36345F74 
 4345      00
 4346              	.LASF188:
 4347 079c 67707453 		.ascii	"gptStartContinuous\000"
 4347      74617274 
 4347      436F6E74 
 4347      696E756F 
 4347      757300
 4348              	.LASF172:
 4349 07af 75617274 		.ascii	"uart\000"
 4349      00
 4350              	.LASF182:
 4351 07b4 67707450 		.ascii	"gptPolledDelay\000"
 4351      6F6C6C65 
 4351      6444656C 
 4351      617900
 4352              	.LASF170:
 4353 07c3 69717565 		.ascii	"iqueue\000"
 4353      756500
 4354              	.LASF68:
 4355 07ca 725F7072 		.ascii	"r_prio\000"
 4355      696F00
 4356              	.LASF141:
 4357 07d1 6C706331 		.ascii	"lpc17xx_gpio_setup_t\000"
 4357      3778785F 
 4357      6770696F 
 4357      5F736574 
 4357      75705F74 
 4358              	.LASF102:
 4359 07e6 63665F6F 		.ascii	"cf_off_older\000"
 4359      66665F6F 
 4359      6C646572 
 4359      00
 4360              	.LASF142:
 4361 07f3 50414C43 		.ascii	"PALConfig\000"
 4361      6F6E6669 
 4361      6700
 4362              	.LASF31:
 4363 07fd 54687265 		.ascii	"Thread\000"
 4363      616400
 4364              	.LASF74:
 4365 0804 76746C69 		.ascii	"vtlist\000"
 4365      737400
ARM GAS  /tmp/ccH5YtAd.s 			page 84


 4366              	.LASF137:
 4367 080b 43436F6E 		.ascii	"CConfig\000"
 4367      66696700 
 4368              	.LASF24:
 4369 0813 74726566 		.ascii	"trefs_t\000"
 4369      735F7400 
 4370              	.LASF124:
 4371 081b 5F69646C 		.ascii	"_idle_thread_wa\000"
 4371      655F7468 
 4371      72656164 
 4371      5F776100 
 4372              	.LASF80:
 4373 082b 4576656E 		.ascii	"EventListener\000"
 4373      744C6973 
 4373      74656E65 
 4373      7200
 4374              	.LASF19:
 4375 0839 75696E74 		.ascii	"uint32_t\000"
 4375      33325F74 
 4375      00
 4376              	.LASF59:
 4377 0842 56697274 		.ascii	"VirtualTimer\000"
 4377      75616C54 
 4377      696D6572 
 4377      00
 4378              	.LASF51:
 4379 084f 54687265 		.ascii	"ThreadsQueue\000"
 4379      61647351 
 4379      75657565 
 4379      00
 4380              	.LASF87:
 4381 085c 7264796D 		.ascii	"rdymsg\000"
 4381      736700
 4382              	.LASF145:
 4383 0863 4750545F 		.ascii	"GPT_STOP\000"
 4383      53544F50 
 4383      00
 4384              	.LASF9:
 4385 086c 73686F72 		.ascii	"short unsigned int\000"
 4385      7420756E 
 4385      7369676E 
 4385      65642069 
 4385      6E7400
 4386              	.LASF110:
 4387 087f 63686465 		.ascii	"chdebug_t\000"
 4387      6275675F 
 4387      7400
 4388              	.LASF122:
 4389 0889 496E7075 		.ascii	"InputQueue\000"
 4389      74517565 
 4389      756500
 4390              	.LASF94:
 4391 0894 63685F73 		.ascii	"ch_size\000"
 4391      697A6500 
 4392              	.LASF10:
 4393 089c 5F5F696E 		.ascii	"__int32_t\000"
 4393      7433325F 
ARM GAS  /tmp/ccH5YtAd.s 			page 85


 4393      7400
 4394              	.LASF165:
 4395 08a6 53445F53 		.ascii	"SD_STOP\000"
 4395      544F5000 
 4396              	.LASF83:
 4397 08ae 656C5F6D 		.ascii	"el_mask\000"
 4397      61736B00 
 4398              	.LASF73:
 4399 08b6 52656164 		.ascii	"ReadyList\000"
 4399      794C6973 
 4399      7400
 4400              	.LASF38:
 4401 08c0 705F6E61 		.ascii	"p_name\000"
 4401      6D6500
 4402              	.LASF62:
 4403 08c7 76745F74 		.ascii	"vt_time\000"
 4403      696D6500 
 4404              	.LASF140:
 4405 08cf 64617461 		.ascii	"data\000"
 4405      00
 4406              	.LASF79:
 4407 08d4 6D5F6E65 		.ascii	"m_next\000"
 4407      787400
 4408              	.LASF199:
 4409 08db 6770745F 		.ascii	"gpt_lld_start\000"
 4409      6C6C645F 
 4409      73746172 
 4409      7400
 4410              	.LASF154:
 4411 08e9 67707463 		.ascii	"gptcallback_t\000"
 4411      616C6C62 
 4411      61636B5F 
 4411      7400
 4412              	.LASF46:
 4413 08f7 705F6D73 		.ascii	"p_msg\000"
 4413      6700
 4414              	.LASF82:
 4415 08fd 656C5F6C 		.ascii	"el_listener\000"
 4415      69737465 
 4415      6E657200 
 4416              	.LASF39:
 4417 0909 705F7374 		.ascii	"p_state\000"
 4417      61746500 
 4418              		.ident	"GCC: (15:6.3.1+svn253039-1build1) 6.3.1 20170620"
ARM GAS  /tmp/ccH5YtAd.s 			page 86


DEFINED SYMBOLS
                            *ABS*:0000000000000000 gpt.c
     /tmp/ccH5YtAd.s:16     .text.gptInit:0000000000000000 $t
     /tmp/ccH5YtAd.s:24     .text.gptInit:0000000000000000 gptInit
     /tmp/ccH5YtAd.s:39     .text.gptObjectInit:0000000000000000 $t
     /tmp/ccH5YtAd.s:47     .text.gptObjectInit:0000000000000000 gptObjectInit
     /tmp/ccH5YtAd.s:68     .text.gptStart:0000000000000000 $t
     /tmp/ccH5YtAd.s:76     .text.gptStart:0000000000000000 gptStart
     /tmp/ccH5YtAd.s:129    .text.gptStop:0000000000000000 $t
     /tmp/ccH5YtAd.s:137    .text.gptStop:0000000000000000 gptStop
     /tmp/ccH5YtAd.s:188    .text.gptChangeInterval:0000000000000000 $t
     /tmp/ccH5YtAd.s:196    .text.gptChangeInterval:0000000000000000 gptChangeInterval
     /tmp/ccH5YtAd.s:237    .text.gptStartContinuous:0000000000000000 $t
     /tmp/ccH5YtAd.s:245    .text.gptStartContinuous:0000000000000000 gptStartContinuous
     /tmp/ccH5YtAd.s:292    .text.gptStartContinuousI:0000000000000000 $t
     /tmp/ccH5YtAd.s:300    .text.gptStartContinuousI:0000000000000000 gptStartContinuousI
     /tmp/ccH5YtAd.s:318    .text.gptStartOneShot:0000000000000000 $t
     /tmp/ccH5YtAd.s:326    .text.gptStartOneShot:0000000000000000 gptStartOneShot
     /tmp/ccH5YtAd.s:373    .text.gptStartOneShotI:0000000000000000 $t
     /tmp/ccH5YtAd.s:381    .text.gptStartOneShotI:0000000000000000 gptStartOneShotI
     /tmp/ccH5YtAd.s:399    .text.gptStopTimer:0000000000000000 $t
     /tmp/ccH5YtAd.s:407    .text.gptStopTimer:0000000000000000 gptStopTimer
     /tmp/ccH5YtAd.s:454    .text.gptStopTimerI:0000000000000000 $t
     /tmp/ccH5YtAd.s:462    .text.gptStopTimerI:0000000000000000 gptStopTimerI
     /tmp/ccH5YtAd.s:480    .text.gptPolledDelay:0000000000000000 $t
     /tmp/ccH5YtAd.s:488    .text.gptPolledDelay:0000000000000000 gptPolledDelay
                     .debug_frame:0000000000000010 $d

UNDEFINED SYMBOLS
gpt_lld_init
gpt_lld_start
gpt_lld_stop
gpt_lld_change_interval
gpt_lld_start_timer
gpt_lld_stop_timer
gpt_lld_polled_delay
