ARM GAS  /tmp/ccC3KokO.s 			page 1


   1              		.cpu cortex-m3
   2              		.eabi_attribute 20, 1
   3              		.eabi_attribute 21, 1
   4              		.eabi_attribute 23, 3
   5              		.eabi_attribute 24, 1
   6              		.eabi_attribute 25, 1
   7              		.eabi_attribute 26, 1
   8              		.eabi_attribute 30, 2
   9              		.eabi_attribute 34, 1
  10              		.eabi_attribute 18, 4
  11              		.file	"gpt_lld.c"
  12              		.text
  13              	.Ltext0:
  14              		.cfi_sections	.debug_frame
  15              		.section	.text.Vector44,"ax",%progbits
  16              		.align	1
  17              		.p2align 2,,3
  18              		.global	Vector44
  19              		.syntax unified
  20              		.thumb
  21              		.thumb_func
  22              		.fpu softvfp
  23              		.type	Vector44, %function
  24              	Vector44:
  25              	.LFB64:
  26              		.file 1 "../../os/hal/platforms/LPC17xx/gpt_lld.c"
  27              		.loc 1 99 0
  28              		.cfi_startproc
  29              		@ args = 0, pretend = 0, frame = 0
  30              		@ frame_needed = 0, uses_anonymous_args = 0
  31              	.LVL0:
  32              	.LBB20:
  33              	.LBB21:
  34              		.loc 1 81 0
  35 0000 0121     		movs	r1, #1
  36 0002 0A4B     		ldr	r3, .L5
  37              	.LBE21:
  38              	.LBE20:
  39              		.loc 1 99 0
  40 0004 10B5     		push	{r4, lr}
  41              		.cfi_def_cfa_offset 8
  42              		.cfi_offset 4, -8
  43              		.cfi_offset 14, -4
  44              	.LBB27:
  45              	.LBB26:
  46              		.loc 1 82 0
  47 0006 1878     		ldrb	r0, [r3]	@ zero_extendqisi2
  48              		.loc 1 81 0
  49 0008 DA68     		ldr	r2, [r3, #12]
  50              		.loc 1 82 0
  51 000a 0428     		cmp	r0, #4
  52              		.loc 1 81 0
  53 000c 1160     		str	r1, [r2]
  54              		.loc 1 82 0
  55 000e 05D1     		bne	.L2
  56              	.LBB22:
  57              	.LBB23:
ARM GAS  /tmp/ccC3KokO.s 			page 2


  58              		.loc 1 310 0
  59 0010 0020     		movs	r0, #0
  60              	.LBE23:
  61              	.LBE22:
  62              		.loc 1 83 0
  63 0012 0224     		movs	r4, #2
  64 0014 1C70     		strb	r4, [r3]
  65              	.LVL1:
  66              	.LBB25:
  67              	.LBB24:
  68              		.loc 1 309 0
  69 0016 1160     		str	r1, [r2]
  70              		.loc 1 310 0
  71 0018 5061     		str	r0, [r2, #20]
  72              		.loc 1 311 0
  73 001a 5060     		str	r0, [r2, #4]
  74              	.LVL2:
  75              	.L2:
  76              	.LBE24:
  77              	.LBE25:
  78              		.loc 1 86 0
  79 001c 5B68     		ldr	r3, [r3, #4]
  80 001e 0348     		ldr	r0, .L5
  81 0020 5B68     		ldr	r3, [r3, #4]
  82 0022 9847     		blx	r3
  83              	.LVL3:
  84              	.LBE26:
  85              	.LBE27:
  86              		.loc 1 106 0
  87 0024 BDE81040 		pop	{r4, lr}
  88              		.cfi_restore 14
  89              		.cfi_restore 4
  90              		.cfi_def_cfa_offset 0
  91              		.loc 1 105 0
  92 0028 FFF7FEBF 		b	_port_irq_epilogue
  93              	.LVL4:
  94              	.L6:
  95              		.align	2
  96              	.L5:
  97 002c 00000000 		.word	.LANCHOR0
  98              		.cfi_endproc
  99              	.LFE64:
 100              		.size	Vector44, .-Vector44
 101              		.section	.text.Vector48,"ax",%progbits
 102              		.align	1
 103              		.p2align 2,,3
 104              		.global	Vector48
 105              		.syntax unified
 106              		.thumb
 107              		.thumb_func
 108              		.fpu softvfp
 109              		.type	Vector48, %function
 110              	Vector48:
 111              	.LFB65:
 112              		.loc 1 115 0
 113              		.cfi_startproc
 114              		@ args = 0, pretend = 0, frame = 0
ARM GAS  /tmp/ccC3KokO.s 			page 3


 115              		@ frame_needed = 0, uses_anonymous_args = 0
 116              	.LVL5:
 117              	.LBB28:
 118              	.LBB29:
 119              		.loc 1 81 0
 120 0000 0121     		movs	r1, #1
 121 0002 0A4B     		ldr	r3, .L10
 122              	.LBE29:
 123              	.LBE28:
 124              		.loc 1 115 0
 125 0004 10B5     		push	{r4, lr}
 126              		.cfi_def_cfa_offset 8
 127              		.cfi_offset 4, -8
 128              		.cfi_offset 14, -4
 129              	.LBB35:
 130              	.LBB34:
 131              		.loc 1 82 0
 132 0006 1878     		ldrb	r0, [r3]	@ zero_extendqisi2
 133              		.loc 1 81 0
 134 0008 DA68     		ldr	r2, [r3, #12]
 135              		.loc 1 82 0
 136 000a 0428     		cmp	r0, #4
 137              		.loc 1 81 0
 138 000c 1160     		str	r1, [r2]
 139              		.loc 1 82 0
 140 000e 05D1     		bne	.L8
 141              	.LBB30:
 142              	.LBB31:
 143              		.loc 1 310 0
 144 0010 0020     		movs	r0, #0
 145              	.LBE31:
 146              	.LBE30:
 147              		.loc 1 83 0
 148 0012 0224     		movs	r4, #2
 149 0014 1C70     		strb	r4, [r3]
 150              	.LVL6:
 151              	.LBB33:
 152              	.LBB32:
 153              		.loc 1 309 0
 154 0016 1160     		str	r1, [r2]
 155              		.loc 1 310 0
 156 0018 5061     		str	r0, [r2, #20]
 157              		.loc 1 311 0
 158 001a 5060     		str	r0, [r2, #4]
 159              	.LVL7:
 160              	.L8:
 161              	.LBE32:
 162              	.LBE33:
 163              		.loc 1 86 0
 164 001c 5B68     		ldr	r3, [r3, #4]
 165 001e 0348     		ldr	r0, .L10
 166 0020 5B68     		ldr	r3, [r3, #4]
 167 0022 9847     		blx	r3
 168              	.LVL8:
 169              	.LBE34:
 170              	.LBE35:
 171              		.loc 1 122 0
ARM GAS  /tmp/ccC3KokO.s 			page 4


 172 0024 BDE81040 		pop	{r4, lr}
 173              		.cfi_restore 14
 174              		.cfi_restore 4
 175              		.cfi_def_cfa_offset 0
 176              		.loc 1 121 0
 177 0028 FFF7FEBF 		b	_port_irq_epilogue
 178              	.LVL9:
 179              	.L11:
 180              		.align	2
 181              	.L10:
 182 002c 00000000 		.word	.LANCHOR1
 183              		.cfi_endproc
 184              	.LFE65:
 185              		.size	Vector48, .-Vector48
 186              		.section	.text.Vector4C,"ax",%progbits
 187              		.align	1
 188              		.p2align 2,,3
 189              		.global	Vector4C
 190              		.syntax unified
 191              		.thumb
 192              		.thumb_func
 193              		.fpu softvfp
 194              		.type	Vector4C, %function
 195              	Vector4C:
 196              	.LFB66:
 197              		.loc 1 131 0
 198              		.cfi_startproc
 199              		@ args = 0, pretend = 0, frame = 0
 200              		@ frame_needed = 0, uses_anonymous_args = 0
 201              	.LVL10:
 202              	.LBB36:
 203              	.LBB37:
 204              		.loc 1 81 0
 205 0000 0121     		movs	r1, #1
 206 0002 0A4B     		ldr	r3, .L15
 207              	.LBE37:
 208              	.LBE36:
 209              		.loc 1 131 0
 210 0004 10B5     		push	{r4, lr}
 211              		.cfi_def_cfa_offset 8
 212              		.cfi_offset 4, -8
 213              		.cfi_offset 14, -4
 214              	.LBB43:
 215              	.LBB42:
 216              		.loc 1 82 0
 217 0006 1878     		ldrb	r0, [r3]	@ zero_extendqisi2
 218              		.loc 1 81 0
 219 0008 DA68     		ldr	r2, [r3, #12]
 220              		.loc 1 82 0
 221 000a 0428     		cmp	r0, #4
 222              		.loc 1 81 0
 223 000c 1160     		str	r1, [r2]
 224              		.loc 1 82 0
 225 000e 05D1     		bne	.L13
 226              	.LBB38:
 227              	.LBB39:
 228              		.loc 1 310 0
ARM GAS  /tmp/ccC3KokO.s 			page 5


 229 0010 0020     		movs	r0, #0
 230              	.LBE39:
 231              	.LBE38:
 232              		.loc 1 83 0
 233 0012 0224     		movs	r4, #2
 234 0014 1C70     		strb	r4, [r3]
 235              	.LVL11:
 236              	.LBB41:
 237              	.LBB40:
 238              		.loc 1 309 0
 239 0016 1160     		str	r1, [r2]
 240              		.loc 1 310 0
 241 0018 5061     		str	r0, [r2, #20]
 242              		.loc 1 311 0
 243 001a 5060     		str	r0, [r2, #4]
 244              	.LVL12:
 245              	.L13:
 246              	.LBE40:
 247              	.LBE41:
 248              		.loc 1 86 0
 249 001c 5B68     		ldr	r3, [r3, #4]
 250 001e 0348     		ldr	r0, .L15
 251 0020 5B68     		ldr	r3, [r3, #4]
 252 0022 9847     		blx	r3
 253              	.LVL13:
 254              	.LBE42:
 255              	.LBE43:
 256              		.loc 1 138 0
 257 0024 BDE81040 		pop	{r4, lr}
 258              		.cfi_restore 14
 259              		.cfi_restore 4
 260              		.cfi_def_cfa_offset 0
 261              		.loc 1 137 0
 262 0028 FFF7FEBF 		b	_port_irq_epilogue
 263              	.LVL14:
 264              	.L16:
 265              		.align	2
 266              	.L15:
 267 002c 00000000 		.word	.LANCHOR2
 268              		.cfi_endproc
 269              	.LFE66:
 270              		.size	Vector4C, .-Vector4C
 271              		.section	.text.Vector50,"ax",%progbits
 272              		.align	1
 273              		.p2align 2,,3
 274              		.global	Vector50
 275              		.syntax unified
 276              		.thumb
 277              		.thumb_func
 278              		.fpu softvfp
 279              		.type	Vector50, %function
 280              	Vector50:
 281              	.LFB67:
 282              		.loc 1 147 0
 283              		.cfi_startproc
 284              		@ args = 0, pretend = 0, frame = 0
 285              		@ frame_needed = 0, uses_anonymous_args = 0
ARM GAS  /tmp/ccC3KokO.s 			page 6


 286              	.LVL15:
 287              	.LBB44:
 288              	.LBB45:
 289              		.loc 1 81 0
 290 0000 0121     		movs	r1, #1
 291 0002 0A4B     		ldr	r3, .L20
 292              	.LBE45:
 293              	.LBE44:
 294              		.loc 1 147 0
 295 0004 10B5     		push	{r4, lr}
 296              		.cfi_def_cfa_offset 8
 297              		.cfi_offset 4, -8
 298              		.cfi_offset 14, -4
 299              	.LBB51:
 300              	.LBB50:
 301              		.loc 1 82 0
 302 0006 1878     		ldrb	r0, [r3]	@ zero_extendqisi2
 303              		.loc 1 81 0
 304 0008 DA68     		ldr	r2, [r3, #12]
 305              		.loc 1 82 0
 306 000a 0428     		cmp	r0, #4
 307              		.loc 1 81 0
 308 000c 1160     		str	r1, [r2]
 309              		.loc 1 82 0
 310 000e 05D1     		bne	.L18
 311              	.LBB46:
 312              	.LBB47:
 313              		.loc 1 310 0
 314 0010 0020     		movs	r0, #0
 315              	.LBE47:
 316              	.LBE46:
 317              		.loc 1 83 0
 318 0012 0224     		movs	r4, #2
 319 0014 1C70     		strb	r4, [r3]
 320              	.LVL16:
 321              	.LBB49:
 322              	.LBB48:
 323              		.loc 1 309 0
 324 0016 1160     		str	r1, [r2]
 325              		.loc 1 310 0
 326 0018 5061     		str	r0, [r2, #20]
 327              		.loc 1 311 0
 328 001a 5060     		str	r0, [r2, #4]
 329              	.LVL17:
 330              	.L18:
 331              	.LBE48:
 332              	.LBE49:
 333              		.loc 1 86 0
 334 001c 5B68     		ldr	r3, [r3, #4]
 335 001e 0348     		ldr	r0, .L20
 336 0020 5B68     		ldr	r3, [r3, #4]
 337 0022 9847     		blx	r3
 338              	.LVL18:
 339              	.LBE50:
 340              	.LBE51:
 341              		.loc 1 154 0
 342 0024 BDE81040 		pop	{r4, lr}
ARM GAS  /tmp/ccC3KokO.s 			page 7


 343              		.cfi_restore 14
 344              		.cfi_restore 4
 345              		.cfi_def_cfa_offset 0
 346              		.loc 1 153 0
 347 0028 FFF7FEBF 		b	_port_irq_epilogue
 348              	.LVL19:
 349              	.L21:
 350              		.align	2
 351              	.L20:
 352 002c 00000000 		.word	.LANCHOR3
 353              		.cfi_endproc
 354              	.LFE67:
 355              		.size	Vector50, .-Vector50
 356              		.section	.text.gpt_lld_init,"ax",%progbits
 357              		.align	1
 358              		.p2align 2,,3
 359              		.global	gpt_lld_init
 360              		.syntax unified
 361              		.thumb
 362              		.thumb_func
 363              		.fpu softvfp
 364              		.type	gpt_lld_init, %function
 365              	gpt_lld_init:
 366              	.LFB68:
 367              		.loc 1 166 0
 368              		.cfi_startproc
 369              		@ args = 0, pretend = 0, frame = 0
 370              		@ frame_needed = 0, uses_anonymous_args = 0
 371              		.loc 1 170 0
 372 0000 4FF04022 		mov	r2, #1073758208
 373              		.loc 1 166 0
 374 0004 08B5     		push	{r3, lr}
 375              		.cfi_def_cfa_offset 8
 376              		.cfi_offset 3, -8
 377              		.cfi_offset 14, -4
 378              		.loc 1 170 0
 379 0006 0C4B     		ldr	r3, .L24
 380              		.loc 1 171 0
 381 0008 1846     		mov	r0, r3
 382              		.loc 1 170 0
 383 000a DA60     		str	r2, [r3, #12]
 384              		.loc 1 171 0
 385 000c FFF7FEFF 		bl	gptObjectInit
 386              	.LVL20:
 387              		.loc 1 176 0
 388 0010 0A4B     		ldr	r3, .L24+4
 389 0012 0B4A     		ldr	r2, .L24+8
 390              		.loc 1 177 0
 391 0014 1846     		mov	r0, r3
 392              		.loc 1 176 0
 393 0016 DA60     		str	r2, [r3, #12]
 394              		.loc 1 177 0
 395 0018 FFF7FEFF 		bl	gptObjectInit
 396              	.LVL21:
 397              		.loc 1 182 0
 398 001c 094B     		ldr	r3, .L24+12
 399 001e 0A4A     		ldr	r2, .L24+16
ARM GAS  /tmp/ccC3KokO.s 			page 8


 400              		.loc 1 183 0
 401 0020 1846     		mov	r0, r3
 402              		.loc 1 182 0
 403 0022 DA60     		str	r2, [r3, #12]
 404              		.loc 1 183 0
 405 0024 FFF7FEFF 		bl	gptObjectInit
 406              	.LVL22:
 407              		.loc 1 188 0
 408 0028 084B     		ldr	r3, .L24+20
 409 002a 094A     		ldr	r2, .L24+24
 410              		.loc 1 189 0
 411 002c 1846     		mov	r0, r3
 412              		.loc 1 188 0
 413 002e DA60     		str	r2, [r3, #12]
 414              		.loc 1 191 0
 415 0030 BDE80840 		pop	{r3, lr}
 416              		.cfi_restore 14
 417              		.cfi_restore 3
 418              		.cfi_def_cfa_offset 0
 419              		.loc 1 189 0
 420 0034 FFF7FEBF 		b	gptObjectInit
 421              	.LVL23:
 422              	.L25:
 423              		.align	2
 424              	.L24:
 425 0038 00000000 		.word	.LANCHOR0
 426 003c 00000000 		.word	.LANCHOR1
 427 0040 00800040 		.word	1073774592
 428 0044 00000000 		.word	.LANCHOR2
 429 0048 00000940 		.word	1074331648
 430 004c 00000000 		.word	.LANCHOR3
 431 0050 00400940 		.word	1074348032
 432              		.cfi_endproc
 433              	.LFE68:
 434              		.size	gpt_lld_init, .-gpt_lld_init
 435              		.section	.text.gpt_lld_start,"ax",%progbits
 436              		.align	1
 437              		.p2align 2,,3
 438              		.global	gpt_lld_start
 439              		.syntax unified
 440              		.thumb
 441              		.thumb_func
 442              		.fpu softvfp
 443              		.type	gpt_lld_start, %function
 444              	gpt_lld_start:
 445              	.LFB69:
 446              		.loc 1 200 0
 447              		.cfi_startproc
 448              		@ args = 0, pretend = 0, frame = 0
 449              		@ frame_needed = 0, uses_anonymous_args = 0
 450              	.LVL24:
 451 0000 10B5     		push	{r4, lr}
 452              		.cfi_def_cfa_offset 8
 453              		.cfi_offset 4, -8
 454              		.cfi_offset 14, -4
 455              		.loc 1 200 0
 456 0002 0446     		mov	r4, r0
ARM GAS  /tmp/ccC3KokO.s 			page 9


 457              		.loc 1 203 0
 458 0004 0078     		ldrb	r0, [r0]	@ zero_extendqisi2
 459              	.LVL25:
 460 0006 0128     		cmp	r0, #1
 461 0008 0ED0     		beq	.L34
 462              	.L28:
 463              		.loc 1 232 0
 464 000a 6268     		ldr	r2, [r4, #4]
 465 000c 244B     		ldr	r3, .L38
 466 000e 1268     		ldr	r2, [r2]
 467              		.loc 1 239 0
 468 0010 0021     		movs	r1, #0
 469              		.loc 1 232 0
 470 0012 B3FBF2F3 		udiv	r3, r3, r2
 471              		.loc 1 238 0
 472 0016 0120     		movs	r0, #1
 473              		.loc 1 237 0
 474 0018 E268     		ldr	r2, [r4, #12]
 475              		.loc 1 232 0
 476 001a 013B     		subs	r3, r3, #1
 477 001c 9BB2     		uxth	r3, r3
 478              	.LVL26:
 479              		.loc 1 237 0
 480 001e D360     		str	r3, [r2, #12]
 481              		.loc 1 238 0
 482 0020 1060     		str	r0, [r2]
 483              		.loc 1 239 0
 484 0022 5161     		str	r1, [r2, #20]
 485              		.loc 1 240 0
 486 0024 5160     		str	r1, [r2, #4]
 487 0026 10BD     		pop	{r4, pc}
 488              	.LVL27:
 489              	.L34:
 490              		.loc 1 206 0
 491 0028 1E4B     		ldr	r3, .L38+4
 492 002a 9C42     		cmp	r4, r3
 493 002c 14D0     		beq	.L35
 494              		.loc 1 212 0
 495 002e 1E4B     		ldr	r3, .L38+8
 496 0030 9C42     		cmp	r4, r3
 497 0032 1CD0     		beq	.L36
 498              		.loc 1 218 0
 499 0034 1D4B     		ldr	r3, .L38+12
 500 0036 9C42     		cmp	r4, r3
 501 0038 25D0     		beq	.L37
 502              		.loc 1 224 0
 503 003a 1D4B     		ldr	r3, .L38+16
 504 003c 9C42     		cmp	r4, r3
 505 003e E4D1     		bne	.L28
 506              		.loc 1 225 0
 507 0040 1C4A     		ldr	r2, .L38+20
 508              		.loc 1 226 0
 509 0042 4021     		movs	r1, #64
 510              		.loc 1 225 0
 511 0044 D2F8C430 		ldr	r3, [r2, #196]
 512              		.loc 1 226 0
 513 0048 0420     		movs	r0, #4
ARM GAS  /tmp/ccC3KokO.s 			page 10


 514              		.loc 1 225 0
 515 004a 43F40003 		orr	r3, r3, #8388608
 516 004e C2F8C430 		str	r3, [r2, #196]
 517              		.loc 1 226 0
 518 0052 FFF7FEFF 		bl	nvicEnableVector
 519              	.LVL28:
 520 0056 D8E7     		b	.L28
 521              	.L35:
 522              		.loc 1 207 0
 523 0058 164A     		ldr	r2, .L38+20
 524              		.loc 1 208 0
 525 005a 4021     		movs	r1, #64
 526              		.loc 1 207 0
 527 005c D2F8C430 		ldr	r3, [r2, #196]
 528 0060 43F00203 		orr	r3, r3, #2
 529 0064 C2F8C430 		str	r3, [r2, #196]
 530              		.loc 1 208 0
 531 0068 FFF7FEFF 		bl	nvicEnableVector
 532              	.LVL29:
 533 006c CDE7     		b	.L28
 534              	.L36:
 535              		.loc 1 213 0
 536 006e 114A     		ldr	r2, .L38+20
 537              		.loc 1 214 0
 538 0070 6021     		movs	r1, #96
 539              		.loc 1 213 0
 540 0072 D2F8C430 		ldr	r3, [r2, #196]
 541              		.loc 1 214 0
 542 0076 0220     		movs	r0, #2
 543              		.loc 1 213 0
 544 0078 43F00403 		orr	r3, r3, #4
 545 007c C2F8C430 		str	r3, [r2, #196]
 546              		.loc 1 214 0
 547 0080 FFF7FEFF 		bl	nvicEnableVector
 548              	.LVL30:
 549 0084 C1E7     		b	.L28
 550              	.L37:
 551              		.loc 1 219 0
 552 0086 0B4A     		ldr	r2, .L38+20
 553              		.loc 1 220 0
 554 0088 4021     		movs	r1, #64
 555              		.loc 1 219 0
 556 008a D2F8C430 		ldr	r3, [r2, #196]
 557              		.loc 1 220 0
 558 008e 0320     		movs	r0, #3
 559              		.loc 1 219 0
 560 0090 43F48003 		orr	r3, r3, #4194304
 561 0094 C2F8C430 		str	r3, [r2, #196]
 562              		.loc 1 220 0
 563 0098 FFF7FEFF 		bl	nvicEnableVector
 564              	.LVL31:
 565 009c B5E7     		b	.L28
 566              	.L39:
 567 009e 00BF     		.align	2
 568              	.L38:
 569 00a0 AA88E105 		.word	98666666
 570 00a4 00000000 		.word	.LANCHOR0
ARM GAS  /tmp/ccC3KokO.s 			page 11


 571 00a8 00000000 		.word	.LANCHOR1
 572 00ac 00000000 		.word	.LANCHOR2
 573 00b0 00000000 		.word	.LANCHOR3
 574 00b4 00C00F40 		.word	1074774016
 575              		.cfi_endproc
 576              	.LFE69:
 577              		.size	gpt_lld_start, .-gpt_lld_start
 578              		.section	.text.gpt_lld_stop,"ax",%progbits
 579              		.align	1
 580              		.p2align 2,,3
 581              		.global	gpt_lld_stop
 582              		.syntax unified
 583              		.thumb
 584              		.thumb_func
 585              		.fpu softvfp
 586              		.type	gpt_lld_stop, %function
 587              	gpt_lld_stop:
 588              	.LFB70:
 589              		.loc 1 250 0
 590              		.cfi_startproc
 591              		@ args = 0, pretend = 0, frame = 0
 592              		@ frame_needed = 0, uses_anonymous_args = 0
 593              	.LVL32:
 594              		.loc 1 252 0
 595 0000 0378     		ldrb	r3, [r0]	@ zero_extendqisi2
 596 0002 022B     		cmp	r3, #2
 597 0004 00D0     		beq	.L51
 598 0006 7047     		bx	lr
 599              	.L51:
 600              		.loc 1 253 0
 601 0008 0021     		movs	r1, #0
 602              		.loc 1 250 0
 603 000a 10B5     		push	{r4, lr}
 604              		.cfi_def_cfa_offset 8
 605              		.cfi_offset 4, -8
 606              		.cfi_offset 14, -4
 607              		.loc 1 257 0
 608 000c 1D4C     		ldr	r4, .L56
 609              		.loc 1 253 0
 610 000e C268     		ldr	r2, [r0, #12]
 611              		.loc 1 257 0
 612 0010 A042     		cmp	r0, r4
 613              		.loc 1 253 0
 614 0012 5161     		str	r1, [r2, #20]
 615              		.loc 1 254 0
 616 0014 5160     		str	r1, [r2, #4]
 617              		.loc 1 257 0
 618 0016 14D0     		beq	.L52
 619              		.loc 1 263 0
 620 0018 1B4A     		ldr	r2, .L56+4
 621 001a 9042     		cmp	r0, r2
 622 001c 1CD0     		beq	.L53
 623              		.loc 1 269 0
 624 001e 1B4B     		ldr	r3, .L56+8
 625 0020 9842     		cmp	r0, r3
 626 0022 24D0     		beq	.L54
 627              		.loc 1 275 0
ARM GAS  /tmp/ccC3KokO.s 			page 12


 628 0024 1A4B     		ldr	r3, .L56+12
 629 0026 9842     		cmp	r0, r3
 630 0028 00D0     		beq	.L55
 631              	.LVL33:
 632              	.L40:
 633 002a 10BD     		pop	{r4, pc}
 634              	.LVL34:
 635              	.L55:
 636              		.loc 1 276 0
 637 002c 0420     		movs	r0, #4
 638              	.LVL35:
 639 002e FFF7FEFF 		bl	nvicDisableVector
 640              	.LVL36:
 641              		.loc 1 277 0
 642 0032 184A     		ldr	r2, .L56+16
 643 0034 D2F8C430 		ldr	r3, [r2, #196]
 644 0038 23F40003 		bic	r3, r3, #8388608
 645 003c C2F8C430 		str	r3, [r2, #196]
 646              		.loc 1 281 0
 647 0040 F3E7     		b	.L40
 648              	.LVL37:
 649              	.L52:
 650              		.loc 1 258 0
 651 0042 0120     		movs	r0, #1
 652              	.LVL38:
 653 0044 FFF7FEFF 		bl	nvicDisableVector
 654              	.LVL39:
 655              		.loc 1 259 0
 656 0048 124A     		ldr	r2, .L56+16
 657 004a D2F8C430 		ldr	r3, [r2, #196]
 658 004e 23F00203 		bic	r3, r3, #2
 659 0052 C2F8C430 		str	r3, [r2, #196]
 660 0056 10BD     		pop	{r4, pc}
 661              	.LVL40:
 662              	.L53:
 663              		.loc 1 264 0
 664 0058 1846     		mov	r0, r3
 665              	.LVL41:
 666 005a FFF7FEFF 		bl	nvicDisableVector
 667              	.LVL42:
 668              		.loc 1 265 0
 669 005e 0D4A     		ldr	r2, .L56+16
 670 0060 D2F8C430 		ldr	r3, [r2, #196]
 671 0064 23F00403 		bic	r3, r3, #4
 672 0068 C2F8C430 		str	r3, [r2, #196]
 673 006c 10BD     		pop	{r4, pc}
 674              	.LVL43:
 675              	.L54:
 676              		.loc 1 270 0
 677 006e 0320     		movs	r0, #3
 678              	.LVL44:
 679 0070 FFF7FEFF 		bl	nvicDisableVector
 680              	.LVL45:
 681              		.loc 1 271 0
 682 0074 074A     		ldr	r2, .L56+16
 683 0076 D2F8C430 		ldr	r3, [r2, #196]
 684 007a 23F48003 		bic	r3, r3, #4194304
ARM GAS  /tmp/ccC3KokO.s 			page 13


 685 007e C2F8C430 		str	r3, [r2, #196]
 686 0082 10BD     		pop	{r4, pc}
 687              	.L57:
 688              		.align	2
 689              	.L56:
 690 0084 00000000 		.word	.LANCHOR0
 691 0088 00000000 		.word	.LANCHOR1
 692 008c 00000000 		.word	.LANCHOR2
 693 0090 00000000 		.word	.LANCHOR3
 694 0094 00C00F40 		.word	1074774016
 695              		.cfi_endproc
 696              	.LFE70:
 697              		.size	gpt_lld_stop, .-gpt_lld_stop
 698              		.section	.text.gpt_lld_start_timer,"ax",%progbits
 699              		.align	1
 700              		.p2align 2,,3
 701              		.global	gpt_lld_start_timer
 702              		.syntax unified
 703              		.thumb
 704              		.thumb_func
 705              		.fpu softvfp
 706              		.type	gpt_lld_start_timer, %function
 707              	gpt_lld_start_timer:
 708              	.LFB71:
 709              		.loc 1 291 0
 710              		.cfi_startproc
 711              		@ args = 0, pretend = 0, frame = 0
 712              		@ frame_needed = 0, uses_anonymous_args = 0
 713              		@ link register save eliminated.
 714              	.LVL46:
 715 0000 30B4     		push	{r4, r5}
 716              		.cfi_def_cfa_offset 8
 717              		.cfi_offset 4, -8
 718              		.cfi_offset 5, -4
 719              		.loc 1 294 0
 720 0002 0122     		movs	r2, #1
 721              		.loc 1 295 0
 722 0004 0325     		movs	r5, #3
 723              		.loc 1 296 0
 724 0006 0224     		movs	r4, #2
 725              		.loc 1 293 0
 726 0008 C368     		ldr	r3, [r0, #12]
 727 000a 0139     		subs	r1, r1, #1
 728              	.LVL47:
 729 000c 9961     		str	r1, [r3, #24]
 730              		.loc 1 294 0
 731 000e 1A60     		str	r2, [r3]
 732              		.loc 1 295 0
 733 0010 5D61     		str	r5, [r3, #20]
 734              		.loc 1 296 0
 735 0012 5C60     		str	r4, [r3, #4]
 736              		.loc 1 297 0
 737 0014 5A60     		str	r2, [r3, #4]
 738              		.loc 1 298 0
 739 0016 30BC     		pop	{r4, r5}
 740              		.cfi_restore 5
 741              		.cfi_restore 4
ARM GAS  /tmp/ccC3KokO.s 			page 14


 742              		.cfi_def_cfa_offset 0
 743 0018 7047     		bx	lr
 744              		.cfi_endproc
 745              	.LFE71:
 746              		.size	gpt_lld_start_timer, .-gpt_lld_start_timer
 747 001a 00BF     		.section	.text.gpt_lld_stop_timer,"ax",%progbits
 748              		.align	1
 749              		.p2align 2,,3
 750              		.global	gpt_lld_stop_timer
 751              		.syntax unified
 752              		.thumb
 753              		.thumb_func
 754              		.fpu softvfp
 755              		.type	gpt_lld_stop_timer, %function
 756              	gpt_lld_stop_timer:
 757              	.LFB72:
 758              		.loc 1 307 0
 759              		.cfi_startproc
 760              		@ args = 0, pretend = 0, frame = 0
 761              		@ frame_needed = 0, uses_anonymous_args = 0
 762              		@ link register save eliminated.
 763              	.LVL48:
 764              		.loc 1 310 0
 765 0000 0022     		movs	r2, #0
 766              		.loc 1 309 0
 767 0002 0121     		movs	r1, #1
 768 0004 C368     		ldr	r3, [r0, #12]
 769 0006 1960     		str	r1, [r3]
 770              		.loc 1 310 0
 771 0008 5A61     		str	r2, [r3, #20]
 772              		.loc 1 311 0
 773 000a 5A60     		str	r2, [r3, #4]
 774 000c 7047     		bx	lr
 775              		.cfi_endproc
 776              	.LFE72:
 777              		.size	gpt_lld_stop_timer, .-gpt_lld_stop_timer
 778 000e 00BF     		.section	.text.gpt_lld_polled_delay,"ax",%progbits
 779              		.align	1
 780              		.p2align 2,,3
 781              		.global	gpt_lld_polled_delay
 782              		.syntax unified
 783              		.thumb
 784              		.thumb_func
 785              		.fpu softvfp
 786              		.type	gpt_lld_polled_delay, %function
 787              	gpt_lld_polled_delay:
 788              	.LFB73:
 789              		.loc 1 325 0
 790              		.cfi_startproc
 791              		@ args = 0, pretend = 0, frame = 0
 792              		@ frame_needed = 0, uses_anonymous_args = 0
 793              		@ link register save eliminated.
 794              	.LVL49:
 795 0000 30B4     		push	{r4, r5}
 796              		.cfi_def_cfa_offset 8
 797              		.cfi_offset 4, -8
 798              		.cfi_offset 5, -4
ARM GAS  /tmp/ccC3KokO.s 			page 15


 799              		.loc 1 328 0
 800 0002 0123     		movs	r3, #1
 801              		.loc 1 329 0
 802 0004 0425     		movs	r5, #4
 803              		.loc 1 330 0
 804 0006 0224     		movs	r4, #2
 805              		.loc 1 327 0
 806 0008 C268     		ldr	r2, [r0, #12]
 807 000a 0139     		subs	r1, r1, #1
 808              	.LVL50:
 809 000c 9161     		str	r1, [r2, #24]
 810              		.loc 1 328 0
 811 000e 1360     		str	r3, [r2]
 812              		.loc 1 329 0
 813 0010 5561     		str	r5, [r2, #20]
 814              		.loc 1 330 0
 815 0012 5460     		str	r4, [r2, #4]
 816              		.loc 1 331 0
 817 0014 5360     		str	r3, [r2, #4]
 818              	.L62:
 819              		.loc 1 332 0 discriminator 1
 820 0016 5368     		ldr	r3, [r2, #4]
 821 0018 DB07     		lsls	r3, r3, #31
 822 001a FCD4     		bmi	.L62
 823              		.loc 1 334 0
 824 001c 30BC     		pop	{r4, r5}
 825              		.cfi_restore 5
 826              		.cfi_restore 4
 827              		.cfi_def_cfa_offset 0
 828 001e 7047     		bx	lr
 829              		.cfi_endproc
 830              	.LFE73:
 831              		.size	gpt_lld_polled_delay, .-gpt_lld_polled_delay
 832              		.global	GPTD4
 833              		.global	GPTD3
 834              		.global	GPTD2
 835              		.global	GPTD1
 836              		.section	.bss.GPTD1,"aw",%nobits
 837              		.align	2
 838              		.set	.LANCHOR0,. + 0
 839              		.type	GPTD1, %object
 840              		.size	GPTD1, 16
 841              	GPTD1:
 842 0000 00000000 		.space	16
 842      00000000 
 842      00000000 
 842      00000000 
 843              		.section	.bss.GPTD2,"aw",%nobits
 844              		.align	2
 845              		.set	.LANCHOR1,. + 0
 846              		.type	GPTD2, %object
 847              		.size	GPTD2, 16
 848              	GPTD2:
 849 0000 00000000 		.space	16
 849      00000000 
 849      00000000 
 849      00000000 
ARM GAS  /tmp/ccC3KokO.s 			page 16


 850              		.section	.bss.GPTD3,"aw",%nobits
 851              		.align	2
 852              		.set	.LANCHOR2,. + 0
 853              		.type	GPTD3, %object
 854              		.size	GPTD3, 16
 855              	GPTD3:
 856 0000 00000000 		.space	16
 856      00000000 
 856      00000000 
 856      00000000 
 857              		.section	.bss.GPTD4,"aw",%nobits
 858              		.align	2
 859              		.set	.LANCHOR3,. + 0
 860              		.type	GPTD4, %object
 861              		.size	GPTD4, 16
 862              	GPTD4:
 863 0000 00000000 		.space	16
 863      00000000 
 863      00000000 
 863      00000000 
 864              		.text
 865              	.Letext0:
 866              		.file 2 "/usr/lib/gcc/arm-none-eabi/6.3.1/include/stddef.h"
 867              		.file 3 "/usr/include/newlib/machine/_default_types.h"
 868              		.file 4 "/usr/include/newlib/sys/_stdint.h"
 869              		.file 5 "../../os/ports/GCC/ARMCMx/chtypes.h"
 870              		.file 6 "../../os/kernel/include/chlists.h"
 871              		.file 7 "../../os/kernel/include/chthreads.h"
 872              		.file 8 "../../os/ports/GCC/ARMCMx/chcore_v7m.h"
 873              		.file 9 "../../os/kernel/include/chvt.h"
 874              		.file 10 "../../os/kernel/include/chschd.h"
 875              		.file 11 "../../os/kernel/include/chmtx.h"
 876              		.file 12 "../../os/kernel/include/chevents.h"
 877              		.file 13 "../../os/kernel/include/chregistry.h"
 878              		.file 14 "../../os/kernel/include/chqueues.h"
 879              		.file 15 "../../os/kernel/include/ch.h"
 880              		.file 16 "../../os/ports/common/ARMCMx/CMSIS/include/core_cm3.h"
 881              		.file 17 "../../os/hal/platforms/LPC17xx/system_LPC17xx.h"
 882              		.file 18 "../../os/hal/platforms/LPC17xx/LPC17xx.h"
 883              		.file 19 "../../os/hal/platforms/LPC17xx/lpc17xx_dma.h"
 884              		.file 20 "../../os/hal/platforms/LPC17xx/pal_lld.h"
 885              		.file 21 "../../os/hal/include/gpt.h"
 886              		.file 22 "../../os/hal/platforms/LPC17xx/gpt_lld.h"
 887              		.file 23 "../../os/hal/include/serial.h"
 888              		.file 24 "../../os/hal/platforms/LPC17xx/serial_lld.h"
 889              		.file 25 "../../os/hal/include/spi.h"
 890              		.file 26 "../../os/hal/platforms/LPC17xx/spi_lld.h"
 891              		.file 27 "../../os/ports/common/ARMCMx/nvic.h"