ARM GAS  /tmp/ccu5GyJp.s 			page 1


   1              		.cpu cortex-m3
   2              		.eabi_attribute 20, 1
   3              		.eabi_attribute 21, 1
   4              		.eabi_attribute 23, 3
   5              		.eabi_attribute 24, 1
   6              		.eabi_attribute 25, 1
   7              		.eabi_attribute 26, 1
   8              		.eabi_attribute 30, 2
   9              		.eabi_attribute 34, 1
  10              		.eabi_attribute 18, 4
  11              		.file	"gpt_lld.c"
  12              		.text
  13              	.Ltext0:
  14              		.cfi_sections	.debug_frame
  15              		.section	.text.Vector44,"ax",%progbits
  16              		.align	1
  17              		.p2align 2,,3
  18              		.global	Vector44
  19              		.syntax unified
  20              		.thumb
  21              		.thumb_func
  22              		.fpu softvfp
  23              		.type	Vector44, %function
  24              	Vector44:
  25              	.LFB64:
  26              		.file 1 "../../os/hal/platforms/LPC17xx/gpt_lld.c"
  27              		.loc 1 99 0
  28              		.cfi_startproc
  29              		@ args = 0, pretend = 0, frame = 0
  30              		@ frame_needed = 0, uses_anonymous_args = 0
  31              	.LVL0:
  32              	.LBB20:
  33              	.LBB21:
  34              		.loc 1 81 0
  35 0000 0121     		movs	r1, #1
  36 0002 0A4B     		ldr	r3, .L5
  37              	.LBE21:
  38              	.LBE20:
  39              		.loc 1 99 0
  40 0004 10B5     		push	{r4, lr}
  41              		.cfi_def_cfa_offset 8
  42              		.cfi_offset 4, -8
  43              		.cfi_offset 14, -4
  44              	.LBB27:
  45              	.LBB26:
  46              		.loc 1 82 0
  47 0006 1878     		ldrb	r0, [r3]	@ zero_extendqisi2
  48              		.loc 1 81 0
  49 0008 DA68     		ldr	r2, [r3, #12]
  50              		.loc 1 82 0
  51 000a 0428     		cmp	r0, #4
  52              		.loc 1 81 0
  53 000c 1160     		str	r1, [r2]
  54              		.loc 1 82 0
  55 000e 05D1     		bne	.L2
  56              	.LBB22:
  57              	.LBB23:
ARM GAS  /tmp/ccu5GyJp.s 			page 2


  58              		.loc 1 310 0
  59 0010 0020     		movs	r0, #0
  60              	.LBE23:
  61              	.LBE22:
  62              		.loc 1 83 0
  63 0012 0224     		movs	r4, #2
  64 0014 1C70     		strb	r4, [r3]
  65              	.LVL1:
  66              	.LBB25:
  67              	.LBB24:
  68              		.loc 1 309 0
  69 0016 1160     		str	r1, [r2]
  70              		.loc 1 310 0
  71 0018 5061     		str	r0, [r2, #20]
  72              		.loc 1 311 0
  73 001a 5060     		str	r0, [r2, #4]
  74              	.LVL2:
  75              	.L2:
  76              	.LBE24:
  77              	.LBE25:
  78              		.loc 1 86 0
  79 001c 5B68     		ldr	r3, [r3, #4]
  80 001e 0348     		ldr	r0, .L5
  81 0020 5B68     		ldr	r3, [r3, #4]
  82 0022 9847     		blx	r3
  83              	.LVL3:
  84              	.LBE26:
  85              	.LBE27:
  86              		.loc 1 106 0
  87 0024 BDE81040 		pop	{r4, lr}
  88              		.cfi_restore 14
  89              		.cfi_restore 4
  90              		.cfi_def_cfa_offset 0
  91              		.loc 1 105 0
  92 0028 FFF7FEBF 		b	_port_irq_epilogue
  93              	.LVL4:
  94              	.L6:
  95              		.align	2
  96              	.L5:
  97 002c 00000000 		.word	.LANCHOR0
  98              		.cfi_endproc
  99              	.LFE64:
 100              		.size	Vector44, .-Vector44
 101              		.section	.text.Vector48,"ax",%progbits
 102              		.align	1
 103              		.p2align 2,,3
 104              		.global	Vector48
 105              		.syntax unified
 106              		.thumb
 107              		.thumb_func
 108              		.fpu softvfp
 109              		.type	Vector48, %function
 110              	Vector48:
 111              	.LFB65:
 112              		.loc 1 115 0
 113              		.cfi_startproc
 114              		@ args = 0, pretend = 0, frame = 0
ARM GAS  /tmp/ccu5GyJp.s 			page 3


 115              		@ frame_needed = 0, uses_anonymous_args = 0
 116              	.LVL5:
 117              	.LBB28:
 118              	.LBB29:
 119              		.loc 1 81 0
 120 0000 0121     		movs	r1, #1
 121 0002 0A4B     		ldr	r3, .L10
 122              	.LBE29:
 123              	.LBE28:
 124              		.loc 1 115 0
 125 0004 10B5     		push	{r4, lr}
 126              		.cfi_def_cfa_offset 8
 127              		.cfi_offset 4, -8
 128              		.cfi_offset 14, -4
 129              	.LBB35:
 130              	.LBB34:
 131              		.loc 1 82 0
 132 0006 1878     		ldrb	r0, [r3]	@ zero_extendqisi2
 133              		.loc 1 81 0
 134 0008 DA68     		ldr	r2, [r3, #12]
 135              		.loc 1 82 0
 136 000a 0428     		cmp	r0, #4
 137              		.loc 1 81 0
 138 000c 1160     		str	r1, [r2]
 139              		.loc 1 82 0
 140 000e 05D1     		bne	.L8
 141              	.LBB30:
 142              	.LBB31:
 143              		.loc 1 310 0
 144 0010 0020     		movs	r0, #0
 145              	.LBE31:
 146              	.LBE30:
 147              		.loc 1 83 0
 148 0012 0224     		movs	r4, #2
 149 0014 1C70     		strb	r4, [r3]
 150              	.LVL6:
 151              	.LBB33:
 152              	.LBB32:
 153              		.loc 1 309 0
 154 0016 1160     		str	r1, [r2]
 155              		.loc 1 310 0
 156 0018 5061     		str	r0, [r2, #20]
 157              		.loc 1 311 0
 158 001a 5060     		str	r0, [r2, #4]
 159              	.LVL7:
 160              	.L8:
 161              	.LBE32:
 162              	.LBE33:
 163              		.loc 1 86 0
 164 001c 5B68     		ldr	r3, [r3, #4]
 165 001e 0348     		ldr	r0, .L10
 166 0020 5B68     		ldr	r3, [r3, #4]
 167 0022 9847     		blx	r3
 168              	.LVL8:
 169              	.LBE34:
 170              	.LBE35:
 171              		.loc 1 122 0
ARM GAS  /tmp/ccu5GyJp.s 			page 4


 172 0024 BDE81040 		pop	{r4, lr}
 173              		.cfi_restore 14
 174              		.cfi_restore 4
 175              		.cfi_def_cfa_offset 0
 176              		.loc 1 121 0
 177 0028 FFF7FEBF 		b	_port_irq_epilogue
 178              	.LVL9:
 179              	.L11:
 180              		.align	2
 181              	.L10:
 182 002c 00000000 		.word	.LANCHOR1
 183              		.cfi_endproc
 184              	.LFE65:
 185              		.size	Vector48, .-Vector48
 186              		.section	.text.Vector4C,"ax",%progbits
 187              		.align	1
 188              		.p2align 2,,3
 189              		.global	Vector4C
 190              		.syntax unified
 191              		.thumb
 192              		.thumb_func
 193              		.fpu softvfp
 194              		.type	Vector4C, %function
 195              	Vector4C:
 196              	.LFB66:
 197              		.loc 1 131 0
 198              		.cfi_startproc
 199              		@ args = 0, pretend = 0, frame = 0
 200              		@ frame_needed = 0, uses_anonymous_args = 0
 201              	.LVL10:
 202              	.LBB36:
 203              	.LBB37:
 204              		.loc 1 81 0
 205 0000 0121     		movs	r1, #1
 206 0002 0A4B     		ldr	r3, .L15
 207              	.LBE37:
 208              	.LBE36:
 209              		.loc 1 131 0
 210 0004 10B5     		push	{r4, lr}
 211              		.cfi_def_cfa_offset 8
 212              		.cfi_offset 4, -8
 213              		.cfi_offset 14, -4
 214              	.LBB43:
 215              	.LBB42:
 216              		.loc 1 82 0
 217 0006 1878     		ldrb	r0, [r3]	@ zero_extendqisi2
 218              		.loc 1 81 0
 219 0008 DA68     		ldr	r2, [r3, #12]
 220              		.loc 1 82 0
 221 000a 0428     		cmp	r0, #4
 222              		.loc 1 81 0
 223 000c 1160     		str	r1, [r2]
 224              		.loc 1 82 0
 225 000e 05D1     		bne	.L13
 226              	.LBB38:
 227              	.LBB39:
 228              		.loc 1 310 0
ARM GAS  /tmp/ccu5GyJp.s 			page 5


 229 0010 0020     		movs	r0, #0
 230              	.LBE39:
 231              	.LBE38:
 232              		.loc 1 83 0
 233 0012 0224     		movs	r4, #2
 234 0014 1C70     		strb	r4, [r3]
 235              	.LVL11:
 236              	.LBB41:
 237              	.LBB40:
 238              		.loc 1 309 0
 239 0016 1160     		str	r1, [r2]
 240              		.loc 1 310 0
 241 0018 5061     		str	r0, [r2, #20]
 242              		.loc 1 311 0
 243 001a 5060     		str	r0, [r2, #4]
 244              	.LVL12:
 245              	.L13:
 246              	.LBE40:
 247              	.LBE41:
 248              		.loc 1 86 0
 249 001c 5B68     		ldr	r3, [r3, #4]
 250 001e 0348     		ldr	r0, .L15
 251 0020 5B68     		ldr	r3, [r3, #4]
 252 0022 9847     		blx	r3
 253              	.LVL13:
 254              	.LBE42:
 255              	.LBE43:
 256              		.loc 1 138 0
 257 0024 BDE81040 		pop	{r4, lr}
 258              		.cfi_restore 14
 259              		.cfi_restore 4
 260              		.cfi_def_cfa_offset 0
 261              		.loc 1 137 0
 262 0028 FFF7FEBF 		b	_port_irq_epilogue
 263              	.LVL14:
 264              	.L16:
 265              		.align	2
 266              	.L15:
 267 002c 00000000 		.word	.LANCHOR2
 268              		.cfi_endproc
 269              	.LFE66:
 270              		.size	Vector4C, .-Vector4C
 271              		.section	.text.Vector50,"ax",%progbits
 272              		.align	1
 273              		.p2align 2,,3
 274              		.global	Vector50
 275              		.syntax unified
 276              		.thumb
 277              		.thumb_func
 278              		.fpu softvfp
 279              		.type	Vector50, %function
 280              	Vector50:
 281              	.LFB67:
 282              		.loc 1 147 0
 283              		.cfi_startproc
 284              		@ args = 0, pretend = 0, frame = 0
 285              		@ frame_needed = 0, uses_anonymous_args = 0
ARM GAS  /tmp/ccu5GyJp.s 			page 6


 286              	.LVL15:
 287              	.LBB44:
 288              	.LBB45:
 289              		.loc 1 81 0
 290 0000 0121     		movs	r1, #1
 291 0002 0A4B     		ldr	r3, .L20
 292              	.LBE45:
 293              	.LBE44:
 294              		.loc 1 147 0
 295 0004 10B5     		push	{r4, lr}
 296              		.cfi_def_cfa_offset 8
 297              		.cfi_offset 4, -8
 298              		.cfi_offset 14, -4
 299              	.LBB51:
 300              	.LBB50:
 301              		.loc 1 82 0
 302 0006 1878     		ldrb	r0, [r3]	@ zero_extendqisi2
 303              		.loc 1 81 0
 304 0008 DA68     		ldr	r2, [r3, #12]
 305              		.loc 1 82 0
 306 000a 0428     		cmp	r0, #4
 307              		.loc 1 81 0
 308 000c 1160     		str	r1, [r2]
 309              		.loc 1 82 0
 310 000e 05D1     		bne	.L18
 311              	.LBB46:
 312              	.LBB47:
 313              		.loc 1 310 0
 314 0010 0020     		movs	r0, #0
 315              	.LBE47:
 316              	.LBE46:
 317              		.loc 1 83 0
 318 0012 0224     		movs	r4, #2
 319 0014 1C70     		strb	r4, [r3]
 320              	.LVL16:
 321              	.LBB49:
 322              	.LBB48:
 323              		.loc 1 309 0
 324 0016 1160     		str	r1, [r2]
 325              		.loc 1 310 0
 326 0018 5061     		str	r0, [r2, #20]
 327              		.loc 1 311 0
 328 001a 5060     		str	r0, [r2, #4]
 329              	.LVL17:
 330              	.L18:
 331              	.LBE48:
 332              	.LBE49:
 333              		.loc 1 86 0
 334 001c 5B68     		ldr	r3, [r3, #4]
 335 001e 0348     		ldr	r0, .L20
 336 0020 5B68     		ldr	r3, [r3, #4]
 337 0022 9847     		blx	r3
 338              	.LVL18:
 339              	.LBE50:
 340              	.LBE51:
 341              		.loc 1 154 0
 342 0024 BDE81040 		pop	{r4, lr}
ARM GAS  /tmp/ccu5GyJp.s 			page 7


 343              		.cfi_restore 14
 344              		.cfi_restore 4
 345              		.cfi_def_cfa_offset 0
 346              		.loc 1 153 0
 347 0028 FFF7FEBF 		b	_port_irq_epilogue
 348              	.LVL19:
 349              	.L21:
 350              		.align	2
 351              	.L20:
 352 002c 00000000 		.word	.LANCHOR3
 353              		.cfi_endproc
 354              	.LFE67:
 355              		.size	Vector50, .-Vector50
 356              		.section	.text.gpt_lld_init,"ax",%progbits
 357              		.align	1
 358              		.p2align 2,,3
 359              		.global	gpt_lld_init
 360              		.syntax unified
 361              		.thumb
 362              		.thumb_func
 363              		.fpu softvfp
 364              		.type	gpt_lld_init, %function
 365              	gpt_lld_init:
 366              	.LFB68:
 367              		.loc 1 166 0
 368              		.cfi_startproc
 369              		@ args = 0, pretend = 0, frame = 0
 370              		@ frame_needed = 0, uses_anonymous_args = 0
 371              		.loc 1 170 0
 372 0000 4FF04022 		mov	r2, #1073758208
 373              		.loc 1 166 0
 374 0004 08B5     		push	{r3, lr}
 375              		.cfi_def_cfa_offset 8
 376              		.cfi_offset 3, -8
 377              		.cfi_offset 14, -4
 378              		.loc 1 170 0
 379 0006 0C4B     		ldr	r3, .L24
 380              		.loc 1 171 0
 381 0008 1846     		mov	r0, r3
 382              		.loc 1 170 0
 383 000a DA60     		str	r2, [r3, #12]
 384              		.loc 1 171 0
 385 000c FFF7FEFF 		bl	gptObjectInit
 386              	.LVL20:
 387              		.loc 1 176 0
 388 0010 0A4B     		ldr	r3, .L24+4
 389 0012 0B4A     		ldr	r2, .L24+8
 390              		.loc 1 177 0
 391 0014 1846     		mov	r0, r3
 392              		.loc 1 176 0
 393 0016 DA60     		str	r2, [r3, #12]
 394              		.loc 1 177 0
 395 0018 FFF7FEFF 		bl	gptObjectInit
 396              	.LVL21:
 397              		.loc 1 182 0
 398 001c 094B     		ldr	r3, .L24+12
 399 001e 0A4A     		ldr	r2, .L24+16
ARM GAS  /tmp/ccu5GyJp.s 			page 8


 400              		.loc 1 183 0
 401 0020 1846     		mov	r0, r3
 402              		.loc 1 182 0
 403 0022 DA60     		str	r2, [r3, #12]
 404              		.loc 1 183 0
 405 0024 FFF7FEFF 		bl	gptObjectInit
 406              	.LVL22:
 407              		.loc 1 188 0
 408 0028 084B     		ldr	r3, .L24+20
 409 002a 094A     		ldr	r2, .L24+24
 410              		.loc 1 189 0
 411 002c 1846     		mov	r0, r3
 412              		.loc 1 188 0
 413 002e DA60     		str	r2, [r3, #12]
 414              		.loc 1 191 0
 415 0030 BDE80840 		pop	{r3, lr}
 416              		.cfi_restore 14
 417              		.cfi_restore 3
 418              		.cfi_def_cfa_offset 0
 419              		.loc 1 189 0
 420 0034 FFF7FEBF 		b	gptObjectInit
 421              	.LVL23:
 422              	.L25:
 423              		.align	2
 424              	.L24:
 425 0038 00000000 		.word	.LANCHOR0
 426 003c 00000000 		.word	.LANCHOR1
 427 0040 00800040 		.word	1073774592
 428 0044 00000000 		.word	.LANCHOR2
 429 0048 00000940 		.word	1074331648
 430 004c 00000000 		.word	.LANCHOR3
 431 0050 00400940 		.word	1074348032
 432              		.cfi_endproc
 433              	.LFE68:
 434              		.size	gpt_lld_init, .-gpt_lld_init
 435              		.section	.text.gpt_lld_start,"ax",%progbits
 436              		.align	1
 437              		.p2align 2,,3
 438              		.global	gpt_lld_start
 439              		.syntax unified
 440              		.thumb
 441              		.thumb_func
 442              		.fpu softvfp
 443              		.type	gpt_lld_start, %function
 444              	gpt_lld_start:
 445              	.LFB69:
 446              		.loc 1 200 0
 447              		.cfi_startproc
 448              		@ args = 0, pretend = 0, frame = 0
 449              		@ frame_needed = 0, uses_anonymous_args = 0
 450              	.LVL24:
 451 0000 10B5     		push	{r4, lr}
 452              		.cfi_def_cfa_offset 8
 453              		.cfi_offset 4, -8
 454              		.cfi_offset 14, -4
 455              		.loc 1 200 0
 456 0002 0446     		mov	r4, r0
ARM GAS  /tmp/ccu5GyJp.s 			page 9


 457              		.loc 1 203 0
 458 0004 0078     		ldrb	r0, [r0]	@ zero_extendqisi2
 459              	.LVL25:
 460 0006 0128     		cmp	r0, #1
 461 0008 0ED0     		beq	.L34
 462              	.L28:
 463              		.loc 1 232 0
 464 000a 6268     		ldr	r2, [r4, #4]
 465 000c 244B     		ldr	r3, .L38
 466 000e 1268     		ldr	r2, [r2]
 467              		.loc 1 239 0
 468 0010 0021     		movs	r1, #0
 469              		.loc 1 232 0
 470 0012 B3FBF2F3 		udiv	r3, r3, r2
 471              		.loc 1 238 0
 472 0016 0120     		movs	r0, #1
 473              		.loc 1 237 0
 474 0018 E268     		ldr	r2, [r4, #12]
 475              		.loc 1 232 0
 476 001a 013B     		subs	r3, r3, #1
 477 001c 9BB2     		uxth	r3, r3
 478              	.LVL26:
 479              		.loc 1 237 0
 480 001e D360     		str	r3, [r2, #12]
 481              		.loc 1 238 0
 482 0020 1060     		str	r0, [r2]
 483              		.loc 1 239 0
 484 0022 5161     		str	r1, [r2, #20]
 485              		.loc 1 240 0
 486 0024 5160     		str	r1, [r2, #4]
 487 0026 10BD     		pop	{r4, pc}
 488              	.LVL27:
 489              	.L34:
 490              		.loc 1 206 0
 491 0028 1E4B     		ldr	r3, .L38+4
 492 002a 9C42     		cmp	r4, r3
 493 002c 14D0     		beq	.L35
 494              		.loc 1 212 0
 495 002e 1E4B     		ldr	r3, .L38+8
 496 0030 9C42     		cmp	r4, r3
 497 0032 1CD0     		beq	.L36
 498              		.loc 1 218 0
 499 0034 1D4B     		ldr	r3, .L38+12
 500 0036 9C42     		cmp	r4, r3
 501 0038 25D0     		beq	.L37
 502              		.loc 1 224 0
 503 003a 1D4B     		ldr	r3, .L38+16
 504 003c 9C42     		cmp	r4, r3
 505 003e E4D1     		bne	.L28
 506              		.loc 1 225 0
 507 0040 1C4A     		ldr	r2, .L38+20
 508              		.loc 1 226 0
 509 0042 4021     		movs	r1, #64
 510              		.loc 1 225 0
 511 0044 D2F8C430 		ldr	r3, [r2, #196]
 512              		.loc 1 226 0
 513 0048 0420     		movs	r0, #4
ARM GAS  /tmp/ccu5GyJp.s 			page 10


 514              		.loc 1 225 0
 515 004a 43F40003 		orr	r3, r3, #8388608
 516 004e C2F8C430 		str	r3, [r2, #196]
 517              		.loc 1 226 0
 518 0052 FFF7FEFF 		bl	nvicEnableVector
 519              	.LVL28:
 520 0056 D8E7     		b	.L28
 521              	.L35:
 522              		.loc 1 207 0
 523 0058 164A     		ldr	r2, .L38+20
 524              		.loc 1 208 0
 525 005a 4021     		movs	r1, #64
 526              		.loc 1 207 0
 527 005c D2F8C430 		ldr	r3, [r2, #196]
 528 0060 43F00203 		orr	r3, r3, #2
 529 0064 C2F8C430 		str	r3, [r2, #196]
 530              		.loc 1 208 0
 531 0068 FFF7FEFF 		bl	nvicEnableVector
 532              	.LVL29:
 533 006c CDE7     		b	.L28
 534              	.L36:
 535              		.loc 1 213 0
 536 006e 114A     		ldr	r2, .L38+20
 537              		.loc 1 214 0
 538 0070 6021     		movs	r1, #96
 539              		.loc 1 213 0
 540 0072 D2F8C430 		ldr	r3, [r2, #196]
 541              		.loc 1 214 0
 542 0076 0220     		movs	r0, #2
 543              		.loc 1 213 0
 544 0078 43F00403 		orr	r3, r3, #4
 545 007c C2F8C430 		str	r3, [r2, #196]
 546              		.loc 1 214 0
 547 0080 FFF7FEFF 		bl	nvicEnableVector
 548              	.LVL30:
 549 0084 C1E7     		b	.L28
 550              	.L37:
 551              		.loc 1 219 0
 552 0086 0B4A     		ldr	r2, .L38+20
 553              		.loc 1 220 0
 554 0088 4021     		movs	r1, #64
 555              		.loc 1 219 0
 556 008a D2F8C430 		ldr	r3, [r2, #196]
 557              		.loc 1 220 0
 558 008e 0320     		movs	r0, #3
 559              		.loc 1 219 0
 560 0090 43F48003 		orr	r3, r3, #4194304
 561 0094 C2F8C430 		str	r3, [r2, #196]
 562              		.loc 1 220 0
 563 0098 FFF7FEFF 		bl	nvicEnableVector
 564              	.LVL31:
 565 009c B5E7     		b	.L28
 566              	.L39:
 567 009e 00BF     		.align	2
 568              	.L38:
 569 00a0 AA88E105 		.word	98666666
 570 00a4 00000000 		.word	.LANCHOR0
ARM GAS  /tmp/ccu5GyJp.s 			page 11


 571 00a8 00000000 		.word	.LANCHOR1
 572 00ac 00000000 		.word	.LANCHOR2
 573 00b0 00000000 		.word	.LANCHOR3
 574 00b4 00C00F40 		.word	1074774016
 575              		.cfi_endproc
 576              	.LFE69:
 577              		.size	gpt_lld_start, .-gpt_lld_start
 578              		.section	.text.gpt_lld_stop,"ax",%progbits
 579              		.align	1
 580              		.p2align 2,,3
 581              		.global	gpt_lld_stop
 582              		.syntax unified
 583              		.thumb
 584              		.thumb_func
 585              		.fpu softvfp
 586              		.type	gpt_lld_stop, %function
 587              	gpt_lld_stop:
 588              	.LFB70:
 589              		.loc 1 250 0
 590              		.cfi_startproc
 591              		@ args = 0, pretend = 0, frame = 0
 592              		@ frame_needed = 0, uses_anonymous_args = 0
 593              	.LVL32:
 594              		.loc 1 252 0
 595 0000 0378     		ldrb	r3, [r0]	@ zero_extendqisi2
 596 0002 022B     		cmp	r3, #2
 597 0004 00D0     		beq	.L51
 598 0006 7047     		bx	lr
 599              	.L51:
 600              		.loc 1 253 0
 601 0008 0021     		movs	r1, #0
 602              		.loc 1 250 0
 603 000a 10B5     		push	{r4, lr}
 604              		.cfi_def_cfa_offset 8
 605              		.cfi_offset 4, -8
 606              		.cfi_offset 14, -4
 607              		.loc 1 257 0
 608 000c 1D4C     		ldr	r4, .L56
 609              		.loc 1 253 0
 610 000e C268     		ldr	r2, [r0, #12]
 611              		.loc 1 257 0
 612 0010 A042     		cmp	r0, r4
 613              		.loc 1 253 0
 614 0012 5161     		str	r1, [r2, #20]
 615              		.loc 1 254 0
 616 0014 5160     		str	r1, [r2, #4]
 617              		.loc 1 257 0
 618 0016 14D0     		beq	.L52
 619              		.loc 1 263 0
 620 0018 1B4A     		ldr	r2, .L56+4
 621 001a 9042     		cmp	r0, r2
 622 001c 1CD0     		beq	.L53
 623              		.loc 1 269 0
 624 001e 1B4B     		ldr	r3, .L56+8
 625 0020 9842     		cmp	r0, r3
 626 0022 24D0     		beq	.L54
 627              		.loc 1 275 0
ARM GAS  /tmp/ccu5GyJp.s 			page 12


 628 0024 1A4B     		ldr	r3, .L56+12
 629 0026 9842     		cmp	r0, r3
 630 0028 00D0     		beq	.L55
 631              	.LVL33:
 632              	.L40:
 633 002a 10BD     		pop	{r4, pc}
 634              	.LVL34:
 635              	.L55:
 636              		.loc 1 276 0
 637 002c 0420     		movs	r0, #4
 638              	.LVL35:
 639 002e FFF7FEFF 		bl	nvicDisableVector
 640              	.LVL36:
 641              		.loc 1 277 0
 642 0032 184A     		ldr	r2, .L56+16
 643 0034 D2F8C430 		ldr	r3, [r2, #196]
 644 0038 23F40003 		bic	r3, r3, #8388608
 645 003c C2F8C430 		str	r3, [r2, #196]
 646              		.loc 1 281 0
 647 0040 F3E7     		b	.L40
 648              	.LVL37:
 649              	.L52:
 650              		.loc 1 258 0
 651 0042 0120     		movs	r0, #1
 652              	.LVL38:
 653 0044 FFF7FEFF 		bl	nvicDisableVector
 654              	.LVL39:
 655              		.loc 1 259 0
 656 0048 124A     		ldr	r2, .L56+16
 657 004a D2F8C430 		ldr	r3, [r2, #196]
 658 004e 23F00203 		bic	r3, r3, #2
 659 0052 C2F8C430 		str	r3, [r2, #196]
 660 0056 10BD     		pop	{r4, pc}
 661              	.LVL40:
 662              	.L53:
 663              		.loc 1 264 0
 664 0058 1846     		mov	r0, r3
 665              	.LVL41:
 666 005a FFF7FEFF 		bl	nvicDisableVector
 667              	.LVL42:
 668              		.loc 1 265 0
 669 005e 0D4A     		ldr	r2, .L56+16
 670 0060 D2F8C430 		ldr	r3, [r2, #196]
 671 0064 23F00403 		bic	r3, r3, #4
 672 0068 C2F8C430 		str	r3, [r2, #196]
 673 006c 10BD     		pop	{r4, pc}
 674              	.LVL43:
 675              	.L54:
 676              		.loc 1 270 0
 677 006e 0320     		movs	r0, #3
 678              	.LVL44:
 679 0070 FFF7FEFF 		bl	nvicDisableVector
 680              	.LVL45:
 681              		.loc 1 271 0
 682 0074 074A     		ldr	r2, .L56+16
 683 0076 D2F8C430 		ldr	r3, [r2, #196]
 684 007a 23F48003 		bic	r3, r3, #4194304
ARM GAS  /tmp/ccu5GyJp.s 			page 13


 685 007e C2F8C430 		str	r3, [r2, #196]
 686 0082 10BD     		pop	{r4, pc}
 687              	.L57:
 688              		.align	2
 689              	.L56:
 690 0084 00000000 		.word	.LANCHOR0
 691 0088 00000000 		.word	.LANCHOR1
 692 008c 00000000 		.word	.LANCHOR2
 693 0090 00000000 		.word	.LANCHOR3
 694 0094 00C00F40 		.word	1074774016
 695              		.cfi_endproc
 696              	.LFE70:
 697              		.size	gpt_lld_stop, .-gpt_lld_stop
 698              		.section	.text.gpt_lld_start_timer,"ax",%progbits
 699              		.align	1
 700              		.p2align 2,,3
 701              		.global	gpt_lld_start_timer
 702              		.syntax unified
 703              		.thumb
 704              		.thumb_func
 705              		.fpu softvfp
 706              		.type	gpt_lld_start_timer, %function
 707              	gpt_lld_start_timer:
 708              	.LFB71:
 709              		.loc 1 291 0
 710              		.cfi_startproc
 711              		@ args = 0, pretend = 0, frame = 0
 712              		@ frame_needed = 0, uses_anonymous_args = 0
 713              		@ link register save eliminated.
 714              	.LVL46:
 715 0000 30B4     		push	{r4, r5}
 716              		.cfi_def_cfa_offset 8
 717              		.cfi_offset 4, -8
 718              		.cfi_offset 5, -4
 719              		.loc 1 294 0
 720 0002 0122     		movs	r2, #1
 721              		.loc 1 295 0
 722 0004 0325     		movs	r5, #3
 723              		.loc 1 296 0
 724 0006 0224     		movs	r4, #2
 725              		.loc 1 293 0
 726 0008 C368     		ldr	r3, [r0, #12]
 727 000a 0139     		subs	r1, r1, #1
 728              	.LVL47:
 729 000c 9961     		str	r1, [r3, #24]
 730              		.loc 1 294 0
 731 000e 1A60     		str	r2, [r3]
 732              		.loc 1 295 0
 733 0010 5D61     		str	r5, [r3, #20]
 734              		.loc 1 296 0
 735 0012 5C60     		str	r4, [r3, #4]
 736              		.loc 1 297 0
 737 0014 5A60     		str	r2, [r3, #4]
 738              		.loc 1 298 0
 739 0016 30BC     		pop	{r4, r5}
 740              		.cfi_restore 5
 741              		.cfi_restore 4
ARM GAS  /tmp/ccu5GyJp.s 			page 14


 742              		.cfi_def_cfa_offset 0
 743 0018 7047     		bx	lr
 744              		.cfi_endproc
 745              	.LFE71:
 746              		.size	gpt_lld_start_timer, .-gpt_lld_start_timer
 747 001a 00BF     		.section	.text.gpt_lld_stop_timer,"ax",%progbits
 748              		.align	1
 749              		.p2align 2,,3
 750              		.global	gpt_lld_stop_timer
 751              		.syntax unified
 752              		.thumb
 753              		.thumb_func
 754              		.fpu softvfp
 755              		.type	gpt_lld_stop_timer, %function
 756              	gpt_lld_stop_timer:
 757              	.LFB72:
 758              		.loc 1 307 0
 759              		.cfi_startproc
 760              		@ args = 0, pretend = 0, frame = 0
 761              		@ frame_needed = 0, uses_anonymous_args = 0
 762              		@ link register save eliminated.
 763              	.LVL48:
 764              		.loc 1 310 0
 765 0000 0022     		movs	r2, #0
 766              		.loc 1 309 0
 767 0002 0121     		movs	r1, #1
 768 0004 C368     		ldr	r3, [r0, #12]
 769 0006 1960     		str	r1, [r3]
 770              		.loc 1 310 0
 771 0008 5A61     		str	r2, [r3, #20]
 772              		.loc 1 311 0
 773 000a 5A60     		str	r2, [r3, #4]
 774 000c 7047     		bx	lr
 775              		.cfi_endproc
 776              	.LFE72:
 777              		.size	gpt_lld_stop_timer, .-gpt_lld_stop_timer
 778 000e 00BF     		.section	.text.gpt_lld_polled_delay,"ax",%progbits
 779              		.align	1
 780              		.p2align 2,,3
 781              		.global	gpt_lld_polled_delay
 782              		.syntax unified
 783              		.thumb
 784              		.thumb_func
 785              		.fpu softvfp
 786              		.type	gpt_lld_polled_delay, %function
 787              	gpt_lld_polled_delay:
 788              	.LFB73:
 789              		.loc 1 325 0
 790              		.cfi_startproc
 791              		@ args = 0, pretend = 0, frame = 0
 792              		@ frame_needed = 0, uses_anonymous_args = 0
 793              		@ link register save eliminated.
 794              	.LVL49:
 795 0000 30B4     		push	{r4, r5}
 796              		.cfi_def_cfa_offset 8
 797              		.cfi_offset 4, -8
 798              		.cfi_offset 5, -4
ARM GAS  /tmp/ccu5GyJp.s 			page 15


 799              		.loc 1 328 0
 800 0002 0123     		movs	r3, #1
 801              		.loc 1 329 0
 802 0004 0425     		movs	r5, #4
 803              		.loc 1 330 0
 804 0006 0224     		movs	r4, #2
 805              		.loc 1 327 0
 806 0008 C268     		ldr	r2, [r0, #12]
 807 000a 0139     		subs	r1, r1, #1
 808              	.LVL50:
 809 000c 9161     		str	r1, [r2, #24]
 810              		.loc 1 328 0
 811 000e 1360     		str	r3, [r2]
 812              		.loc 1 329 0
 813 0010 5561     		str	r5, [r2, #20]
 814              		.loc 1 330 0
 815 0012 5460     		str	r4, [r2, #4]
 816              		.loc 1 331 0
 817 0014 5360     		str	r3, [r2, #4]
 818              	.L62:
 819              		.loc 1 332 0 discriminator 1
 820 0016 5368     		ldr	r3, [r2, #4]
 821 0018 DB07     		lsls	r3, r3, #31
 822 001a FCD4     		bmi	.L62
 823              		.loc 1 334 0
 824 001c 30BC     		pop	{r4, r5}
 825              		.cfi_restore 5
 826              		.cfi_restore 4
 827              		.cfi_def_cfa_offset 0
 828 001e 7047     		bx	lr
 829              		.cfi_endproc
 830              	.LFE73:
 831              		.size	gpt_lld_polled_delay, .-gpt_lld_polled_delay
 832              		.global	GPTD4
 833              		.global	GPTD3
 834              		.global	GPTD2
 835              		.global	GPTD1
 836              		.section	.bss.GPTD1,"aw",%nobits
 837              		.align	2
 838              		.set	.LANCHOR0,. + 0
 839              		.type	GPTD1, %object
 840              		.size	GPTD1, 16
 841              	GPTD1:
 842 0000 00000000 		.space	16
 842      00000000 
 842      00000000 
 842      00000000 
 843              		.section	.bss.GPTD2,"aw",%nobits
 844              		.align	2
 845              		.set	.LANCHOR1,. + 0
 846              		.type	GPTD2, %object
 847              		.size	GPTD2, 16
 848              	GPTD2:
 849 0000 00000000 		.space	16
 849      00000000 
 849      00000000 
 849      00000000 
ARM GAS  /tmp/ccu5GyJp.s 			page 16


 850              		.section	.bss.GPTD3,"aw",%nobits
 851              		.align	2
 852              		.set	.LANCHOR2,. + 0
 853              		.type	GPTD3, %object
 854              		.size	GPTD3, 16
 855              	GPTD3:
 856 0000 00000000 		.space	16
 856      00000000 
 856      00000000 
 856      00000000 
 857              		.section	.bss.GPTD4,"aw",%nobits
 858              		.align	2
 859              		.set	.LANCHOR3,. + 0
 860              		.type	GPTD4, %object
 861              		.size	GPTD4, 16
 862              	GPTD4:
 863 0000 00000000 		.space	16
 863      00000000 
 863      00000000 
 863      00000000 
 864              		.text
 865              	.Letext0:
 866              		.file 2 "/usr/lib/gcc/arm-none-eabi/6.3.1/include/stddef.h"
 867              		.file 3 "/usr/include/newlib/machine/_default_types.h"
 868              		.file 4 "/usr/include/newlib/sys/_stdint.h"
 869              		.file 5 "../../os/ports/GCC/ARMCMx/chtypes.h"
 870              		.file 6 "../../os/kernel/include/chlists.h"
 871              		.file 7 "../../os/kernel/include/chthreads.h"
 872              		.file 8 "../../os/ports/GCC/ARMCMx/chcore_v7m.h"
 873              		.file 9 "../../os/kernel/include/chvt.h"
 874              		.file 10 "../../os/kernel/include/chschd.h"
 875              		.file 11 "../../os/kernel/include/chmtx.h"
 876              		.file 12 "../../os/kernel/include/chevents.h"
 877              		.file 13 "../../os/kernel/include/chregistry.h"
 878              		.file 14 "../../os/kernel/include/chqueues.h"
 879              		.file 15 "../../os/kernel/include/ch.h"
 880              		.file 16 "../../os/ports/common/ARMCMx/CMSIS/include/core_cm3.h"
 881              		.file 17 "../../os/hal/platforms/LPC17xx/system_LPC17xx.h"
 882              		.file 18 "../../os/hal/platforms/LPC17xx/LPC17xx.h"
 883              		.file 19 "../../os/hal/platforms/LPC17xx/lpc17xx_dma.h"
 884              		.file 20 "../../os/hal/platforms/LPC17xx/pal_lld.h"
 885              		.file 21 "../../os/hal/include/gpt.h"
 886              		.file 22 "../../os/hal/platforms/LPC17xx/gpt_lld.h"
 887              		.file 23 "../../os/hal/include/serial.h"
 888              		.file 24 "../../os/hal/platforms/LPC17xx/serial_lld.h"
 889              		.file 25 "../../os/ports/common/ARMCMx/nvic.h"
 890              		.section	.debug_info,"",%progbits
 891              	.Ldebug_info0:
 892 0000 86150000 		.4byte	0x1586
 893 0004 0400     		.2byte	0x4
 894 0006 00000000 		.4byte	.Ldebug_abbrev0
 895 000a 04       		.byte	0x4
 896 000b 01       		.uleb128 0x1
 897 000c 18070000 		.4byte	.LASF271
 898 0010 0C       		.byte	0xc
 899 0011 250B0000 		.4byte	.LASF272
 900 0015 70080000 		.4byte	.LASF273
ARM GAS  /tmp/ccu5GyJp.s 			page 17


 901 0019 C0000000 		.4byte	.Ldebug_ranges0+0xc0
 902 001d 00000000 		.4byte	0
 903 0021 00000000 		.4byte	.Ldebug_line0
 904 0025 02       		.uleb128 0x2
 905 0026 04       		.byte	0x4
 906 0027 05       		.byte	0x5
 907 0028 696E7400 		.ascii	"int\000"
 908 002c 03       		.uleb128 0x3
 909 002d 00000000 		.4byte	.LASF4
 910 0031 02       		.byte	0x2
 911 0032 D8       		.byte	0xd8
 912 0033 37000000 		.4byte	0x37
 913 0037 04       		.uleb128 0x4
 914 0038 04       		.byte	0x4
 915 0039 07       		.byte	0x7
 916 003a CF060000 		.4byte	.LASF0
 917 003e 04       		.uleb128 0x4
 918 003f 08       		.byte	0x8
 919 0040 05       		.byte	0x5
 920 0041 01060000 		.4byte	.LASF1
 921 0045 04       		.uleb128 0x4
 922 0046 08       		.byte	0x8
 923 0047 04       		.byte	0x4
 924 0048 38080000 		.4byte	.LASF2
 925 004c 04       		.uleb128 0x4
 926 004d 01       		.byte	0x1
 927 004e 06       		.byte	0x6
 928 004f 67020000 		.4byte	.LASF3
 929 0053 03       		.uleb128 0x3
 930 0054 42010000 		.4byte	.LASF5
 931 0058 03       		.byte	0x3
 932 0059 1D       		.byte	0x1d
 933 005a 5E000000 		.4byte	0x5e
 934 005e 04       		.uleb128 0x4
 935 005f 01       		.byte	0x1
 936 0060 08       		.byte	0x8
 937 0061 B6020000 		.4byte	.LASF6
 938 0065 04       		.uleb128 0x4
 939 0066 02       		.byte	0x2
 940 0067 05       		.byte	0x5
 941 0068 190A0000 		.4byte	.LASF7
 942 006c 03       		.uleb128 0x3
 943 006d 93030000 		.4byte	.LASF8
 944 0071 03       		.byte	0x3
 945 0072 2B       		.byte	0x2b
 946 0073 77000000 		.4byte	0x77
 947 0077 04       		.uleb128 0x4
 948 0078 02       		.byte	0x2
 949 0079 07       		.byte	0x7
 950 007a 120B0000 		.4byte	.LASF9
 951 007e 03       		.uleb128 0x3
 952 007f 840B0000 		.4byte	.LASF10
 953 0083 03       		.byte	0x3
 954 0084 3F       		.byte	0x3f
 955 0085 89000000 		.4byte	0x89
 956 0089 04       		.uleb128 0x4
 957 008a 04       		.byte	0x4
ARM GAS  /tmp/ccu5GyJp.s 			page 18


 958 008b 05       		.byte	0x5
 959 008c AB010000 		.4byte	.LASF11
 960 0090 03       		.uleb128 0x3
 961 0091 E4050000 		.4byte	.LASF12
 962 0095 03       		.byte	0x3
 963 0096 41       		.byte	0x41
 964 0097 9B000000 		.4byte	0x9b
 965 009b 04       		.uleb128 0x4
 966 009c 04       		.byte	0x4
 967 009d 07       		.byte	0x7
 968 009e D4040000 		.4byte	.LASF13
 969 00a2 03       		.uleb128 0x3
 970 00a3 C0040000 		.4byte	.LASF14
 971 00a7 03       		.byte	0x3
 972 00a8 5B       		.byte	0x5b
 973 00a9 AD000000 		.4byte	0xad
 974 00ad 04       		.uleb128 0x4
 975 00ae 08       		.byte	0x8
 976 00af 07       		.byte	0x7
 977 00b0 B6080000 		.4byte	.LASF15
 978 00b4 03       		.uleb128 0x3
 979 00b5 7D020000 		.4byte	.LASF16
 980 00b9 04       		.byte	0x4
 981 00ba 18       		.byte	0x18
 982 00bb 53000000 		.4byte	0x53
 983 00bf 05       		.uleb128 0x5
 984 00c0 B4000000 		.4byte	0xb4
 985 00c4 03       		.uleb128 0x3
 986 00c5 D5080000 		.4byte	.LASF17
 987 00c9 04       		.byte	0x4
 988 00ca 24       		.byte	0x24
 989 00cb 6C000000 		.4byte	0x6c
 990 00cf 03       		.uleb128 0x3
 991 00d0 74000000 		.4byte	.LASF18
 992 00d4 04       		.byte	0x4
 993 00d5 2C       		.byte	0x2c
 994 00d6 7E000000 		.4byte	0x7e
 995 00da 06       		.uleb128 0x6
 996 00db CF000000 		.4byte	0xcf
 997 00df 03       		.uleb128 0x3
 998 00e0 D40A0000 		.4byte	.LASF19
 999 00e4 04       		.byte	0x4
 1000 00e5 30       		.byte	0x30
 1001 00e6 90000000 		.4byte	0x90
 1002 00ea 06       		.uleb128 0x6
 1003 00eb DF000000 		.4byte	0xdf
 1004 00ef 05       		.uleb128 0x5
 1005 00f0 EA000000 		.4byte	0xea
 1006 00f4 03       		.uleb128 0x3
 1007 00f5 230A0000 		.4byte	.LASF20
 1008 00f9 04       		.byte	0x4
 1009 00fa 3C       		.byte	0x3c
 1010 00fb A2000000 		.4byte	0xa2
 1011 00ff 04       		.uleb128 0x4
 1012 0100 01       		.byte	0x1
 1013 0101 02       		.byte	0x2
 1014 0102 31030000 		.4byte	.LASF21
ARM GAS  /tmp/ccu5GyJp.s 			page 19


 1015 0106 03       		.uleb128 0x3
 1016 0107 BA090000 		.4byte	.LASF22
 1017 010b 05       		.byte	0x5
 1018 010c 25       		.byte	0x25
 1019 010d B4000000 		.4byte	0xb4
 1020 0111 03       		.uleb128 0x3
 1021 0112 0B020000 		.4byte	.LASF23
 1022 0116 05       		.byte	0x5
 1023 0117 26       		.byte	0x26
 1024 0118 B4000000 		.4byte	0xb4
 1025 011c 03       		.uleb128 0x3
 1026 011d 9D0A0000 		.4byte	.LASF24
 1027 0121 05       		.byte	0x5
 1028 0122 27       		.byte	0x27
 1029 0123 B4000000 		.4byte	0xb4
 1030 0127 03       		.uleb128 0x3
 1031 0128 0D090000 		.4byte	.LASF25
 1032 012c 05       		.byte	0x5
 1033 012d 28       		.byte	0x28
 1034 012e B4000000 		.4byte	0xb4
 1035 0132 03       		.uleb128 0x3
 1036 0133 49000000 		.4byte	.LASF26
 1037 0137 05       		.byte	0x5
 1038 0138 29       		.byte	0x29
 1039 0139 DF000000 		.4byte	0xdf
 1040 013d 03       		.uleb128 0x3
 1041 013e DE080000 		.4byte	.LASF27
 1042 0142 05       		.byte	0x5
 1043 0143 2A       		.byte	0x2a
 1044 0144 CF000000 		.4byte	0xcf
 1045 0148 03       		.uleb128 0x3
 1046 0149 8E020000 		.4byte	.LASF28
 1047 014d 05       		.byte	0x5
 1048 014e 2C       		.byte	0x2c
 1049 014f DF000000 		.4byte	0xdf
 1050 0153 03       		.uleb128 0x3
 1051 0154 DA070000 		.4byte	.LASF29
 1052 0158 05       		.byte	0x5
 1053 0159 2D       		.byte	0x2d
 1054 015a DF000000 		.4byte	0xdf
 1055 015e 03       		.uleb128 0x3
 1056 015f 1C000000 		.4byte	.LASF30
 1057 0163 05       		.byte	0x5
 1058 0164 2E       		.byte	0x2e
 1059 0165 DF000000 		.4byte	0xdf
 1060 0169 06       		.uleb128 0x6
 1061 016a 5E010000 		.4byte	0x15e
 1062 016e 03       		.uleb128 0x3
 1063 016f 870A0000 		.4byte	.LASF31
 1064 0173 06       		.byte	0x6
 1065 0174 23       		.byte	0x23
 1066 0175 79010000 		.4byte	0x179
 1067 0179 07       		.uleb128 0x7
 1068 017a 870A0000 		.4byte	.LASF31
 1069 017e 48       		.byte	0x48
 1070 017f 07       		.byte	0x7
 1071 0180 57       		.byte	0x57
ARM GAS  /tmp/ccu5GyJp.s 			page 20


 1072 0181 76020000 		.4byte	0x276
 1073 0185 08       		.uleb128 0x8
 1074 0186 B4010000 		.4byte	.LASF32
 1075 018a 07       		.byte	0x7
 1076 018b 58       		.byte	0x58
 1077 018c 97020000 		.4byte	0x297
 1078 0190 00       		.byte	0
 1079 0191 08       		.uleb128 0x8
 1080 0192 EC010000 		.4byte	.LASF33
 1081 0196 07       		.byte	0x7
 1082 0197 5A       		.byte	0x5a
 1083 0198 97020000 		.4byte	0x297
 1084 019c 04       		.byte	0x4
 1085 019d 08       		.uleb128 0x8
 1086 019e 8C030000 		.4byte	.LASF34
 1087 01a2 07       		.byte	0x7
 1088 01a3 5C       		.byte	0x5c
 1089 01a4 32010000 		.4byte	0x132
 1090 01a8 08       		.byte	0x8
 1091 01a9 08       		.uleb128 0x8
 1092 01aa 43000000 		.4byte	.LASF35
 1093 01ae 07       		.byte	0x7
 1094 01af 5D       		.byte	0x5d
 1095 01b0 5C030000 		.4byte	0x35c
 1096 01b4 0C       		.byte	0xc
 1097 01b5 08       		.uleb128 0x8
 1098 01b6 A3010000 		.4byte	.LASF36
 1099 01ba 07       		.byte	0x7
 1100 01bb 5F       		.byte	0x5f
 1101 01bc 97020000 		.4byte	0x297
 1102 01c0 10       		.byte	0x10
 1103 01c1 08       		.uleb128 0x8
 1104 01c2 CD080000 		.4byte	.LASF37
 1105 01c6 07       		.byte	0x7
 1106 01c7 60       		.byte	0x60
 1107 01c8 97020000 		.4byte	0x297
 1108 01cc 14       		.byte	0x14
 1109 01cd 08       		.uleb128 0x8
 1110 01ce A80B0000 		.4byte	.LASF38
 1111 01d2 07       		.byte	0x7
 1112 01d3 67       		.byte	0x67
 1113 01d4 99050000 		.4byte	0x599
 1114 01d8 18       		.byte	0x18
 1115 01d9 08       		.uleb128 0x8
 1116 01da FA0B0000 		.4byte	.LASF39
 1117 01de 07       		.byte	0x7
 1118 01df 72       		.byte	0x72
 1119 01e0 11010000 		.4byte	0x111
 1120 01e4 1C       		.byte	0x1c
 1121 01e5 08       		.uleb128 0x8
 1122 01e6 A3060000 		.4byte	.LASF40
 1123 01ea 07       		.byte	0x7
 1124 01eb 76       		.byte	0x76
 1125 01ec 06010000 		.4byte	0x106
 1126 01f0 1D       		.byte	0x1d
 1127 01f1 08       		.uleb128 0x8
 1128 01f2 F4060000 		.4byte	.LASF41
ARM GAS  /tmp/ccu5GyJp.s 			page 21


 1129 01f6 07       		.byte	0x7
 1130 01f7 7B       		.byte	0x7b
 1131 01f8 1C010000 		.4byte	0x11c
 1132 01fc 1E       		.byte	0x1e
 1133 01fd 08       		.uleb128 0x8
 1134 01fe 73020000 		.4byte	.LASF42
 1135 0202 07       		.byte	0x7
 1136 0203 81       		.byte	0x81
 1137 0204 27010000 		.4byte	0x127
 1138 0208 1F       		.byte	0x1f
 1139 0209 08       		.uleb128 0x8
 1140 020a 02080000 		.4byte	.LASF43
 1141 020e 07       		.byte	0x7
 1142 020f 88       		.byte	0x88
 1143 0210 69010000 		.4byte	0x169
 1144 0214 20       		.byte	0x20
 1145 0215 09       		.uleb128 0x9
 1146 0216 705F7500 		.ascii	"p_u\000"
 1147 021a 07       		.byte	0x7
 1148 021b AD       		.byte	0xad
 1149 021c 64050000 		.4byte	0x564
 1150 0220 24       		.byte	0x24
 1151 0221 08       		.uleb128 0x8
 1152 0222 93060000 		.4byte	.LASF44
 1153 0226 07       		.byte	0x7
 1154 0227 B2       		.byte	0xb2
 1155 0228 BD020000 		.4byte	0x2bd
 1156 022c 28       		.byte	0x28
 1157 022d 08       		.uleb128 0x8
 1158 022e 63000000 		.4byte	.LASF45
 1159 0232 07       		.byte	0x7
 1160 0233 B8       		.byte	0xb8
 1161 0234 9D020000 		.4byte	0x29d
 1162 0238 2C       		.byte	0x2c
 1163 0239 08       		.uleb128 0x8
 1164 023a E80B0000 		.4byte	.LASF46
 1165 023e 07       		.byte	0x7
 1166 023f BC       		.byte	0xbc
 1167 0240 3D010000 		.4byte	0x13d
 1168 0244 34       		.byte	0x34
 1169 0245 08       		.uleb128 0x8
 1170 0246 33040000 		.4byte	.LASF47
 1171 024a 07       		.byte	0x7
 1172 024b C2       		.byte	0xc2
 1173 024c 48010000 		.4byte	0x148
 1174 0250 38       		.byte	0x38
 1175 0251 08       		.uleb128 0x8
 1176 0252 14020000 		.4byte	.LASF48
 1177 0256 07       		.byte	0x7
 1178 0257 C9       		.byte	0xc9
 1179 0258 AB050000 		.4byte	0x5ab
 1180 025c 3C       		.byte	0x3c
 1181 025d 08       		.uleb128 0x8
 1182 025e 59080000 		.4byte	.LASF49
 1183 0262 07       		.byte	0x7
 1184 0263 CD       		.byte	0xcd
 1185 0264 32010000 		.4byte	0x132
ARM GAS  /tmp/ccu5GyJp.s 			page 22


 1186 0268 40       		.byte	0x40
 1187 0269 08       		.uleb128 0x8
 1188 026a EC060000 		.4byte	.LASF50
 1189 026e 07       		.byte	0x7
 1190 026f D3       		.byte	0xd3
 1191 0270 D3020000 		.4byte	0x2d3
 1192 0274 44       		.byte	0x44
 1193 0275 00       		.byte	0
 1194 0276 0A       		.uleb128 0xa
 1195 0277 08       		.byte	0x8
 1196 0278 06       		.byte	0x6
 1197 0279 5A       		.byte	0x5a
 1198 027a 97020000 		.4byte	0x297
 1199 027e 08       		.uleb128 0x8
 1200 027f B4010000 		.4byte	.LASF32
 1201 0283 06       		.byte	0x6
 1202 0284 5B       		.byte	0x5b
 1203 0285 97020000 		.4byte	0x297
 1204 0289 00       		.byte	0
 1205 028a 08       		.uleb128 0x8
 1206 028b EC010000 		.4byte	.LASF33
 1207 028f 06       		.byte	0x6
 1208 0290 5D       		.byte	0x5d
 1209 0291 97020000 		.4byte	0x297
 1210 0295 04       		.byte	0x4
 1211 0296 00       		.byte	0
 1212 0297 0B       		.uleb128 0xb
 1213 0298 04       		.byte	0x4
 1214 0299 6E010000 		.4byte	0x16e
 1215 029d 03       		.uleb128 0x3
 1216 029e EA0A0000 		.4byte	.LASF51
 1217 02a2 06       		.byte	0x6
 1218 02a3 5F       		.byte	0x5f
 1219 02a4 76020000 		.4byte	0x276
 1220 02a8 0A       		.uleb128 0xa
 1221 02a9 04       		.byte	0x4
 1222 02aa 06       		.byte	0x6
 1223 02ab 64       		.byte	0x64
 1224 02ac BD020000 		.4byte	0x2bd
 1225 02b0 08       		.uleb128 0x8
 1226 02b1 B4010000 		.4byte	.LASF32
 1227 02b5 06       		.byte	0x6
 1228 02b6 66       		.byte	0x66
 1229 02b7 97020000 		.4byte	0x297
 1230 02bb 00       		.byte	0
 1231 02bc 00       		.byte	0
 1232 02bd 03       		.uleb128 0x3
 1233 02be BE070000 		.4byte	.LASF52
 1234 02c2 06       		.byte	0x6
 1235 02c3 69       		.byte	0x69
 1236 02c4 A8020000 		.4byte	0x2a8
 1237 02c8 03       		.uleb128 0x3
 1238 02c9 33020000 		.4byte	.LASF53
 1239 02cd 08       		.byte	0x8
 1240 02ce DE       		.byte	0xde
 1241 02cf D3020000 		.4byte	0x2d3
 1242 02d3 0C       		.uleb128 0xc
ARM GAS  /tmp/ccu5GyJp.s 			page 23


 1243 02d4 04       		.byte	0x4
 1244 02d5 03       		.uleb128 0x3
 1245 02d6 E9030000 		.4byte	.LASF54
 1246 02da 08       		.byte	0x8
 1247 02db E4       		.byte	0xe4
 1248 02dc F4000000 		.4byte	0xf4
 1249 02e0 0D       		.uleb128 0xd
 1250 02e1 2C040000 		.4byte	.LASF55
 1251 02e5 24       		.byte	0x24
 1252 02e6 08       		.byte	0x8
 1253 02e7 0501     		.2byte	0x105
 1254 02e9 5C030000 		.4byte	0x35c
 1255 02ed 0E       		.uleb128 0xe
 1256 02ee 723400   		.ascii	"r4\000"
 1257 02f1 08       		.byte	0x8
 1258 02f2 1801     		.2byte	0x118
 1259 02f4 C8020000 		.4byte	0x2c8
 1260 02f8 00       		.byte	0
 1261 02f9 0E       		.uleb128 0xe
 1262 02fa 723500   		.ascii	"r5\000"
 1263 02fd 08       		.byte	0x8
 1264 02fe 1901     		.2byte	0x119
 1265 0300 C8020000 		.4byte	0x2c8
 1266 0304 04       		.byte	0x4
 1267 0305 0E       		.uleb128 0xe
 1268 0306 723600   		.ascii	"r6\000"
 1269 0309 08       		.byte	0x8
 1270 030a 1A01     		.2byte	0x11a
 1271 030c C8020000 		.4byte	0x2c8
 1272 0310 08       		.byte	0x8
 1273 0311 0E       		.uleb128 0xe
 1274 0312 723700   		.ascii	"r7\000"
 1275 0315 08       		.byte	0x8
 1276 0316 1B01     		.2byte	0x11b
 1277 0318 C8020000 		.4byte	0x2c8
 1278 031c 0C       		.byte	0xc
 1279 031d 0E       		.uleb128 0xe
 1280 031e 723800   		.ascii	"r8\000"
 1281 0321 08       		.byte	0x8
 1282 0322 1C01     		.2byte	0x11c
 1283 0324 C8020000 		.4byte	0x2c8
 1284 0328 10       		.byte	0x10
 1285 0329 0E       		.uleb128 0xe
 1286 032a 723900   		.ascii	"r9\000"
 1287 032d 08       		.byte	0x8
 1288 032e 1D01     		.2byte	0x11d
 1289 0330 C8020000 		.4byte	0x2c8
 1290 0334 14       		.byte	0x14
 1291 0335 0E       		.uleb128 0xe
 1292 0336 72313000 		.ascii	"r10\000"
 1293 033a 08       		.byte	0x8
 1294 033b 1E01     		.2byte	0x11e
 1295 033d C8020000 		.4byte	0x2c8
 1296 0341 18       		.byte	0x18
 1297 0342 0E       		.uleb128 0xe
 1298 0343 72313100 		.ascii	"r11\000"
 1299 0347 08       		.byte	0x8
ARM GAS  /tmp/ccu5GyJp.s 			page 24


 1300 0348 1F01     		.2byte	0x11f
 1301 034a C8020000 		.4byte	0x2c8
 1302 034e 1C       		.byte	0x1c
 1303 034f 0E       		.uleb128 0xe
 1304 0350 6C7200   		.ascii	"lr\000"
 1305 0353 08       		.byte	0x8
 1306 0354 2001     		.2byte	0x120
 1307 0356 C8020000 		.4byte	0x2c8
 1308 035a 20       		.byte	0x20
 1309 035b 00       		.byte	0
 1310 035c 0D       		.uleb128 0xd
 1311 035d 9A020000 		.4byte	.LASF56
 1312 0361 04       		.byte	0x4
 1313 0362 08       		.byte	0x8
 1314 0363 2A01     		.2byte	0x12a
 1315 0365 77030000 		.4byte	0x377
 1316 0369 0E       		.uleb128 0xe
 1317 036a 72313300 		.ascii	"r13\000"
 1318 036e 08       		.byte	0x8
 1319 036f 2B01     		.2byte	0x12b
 1320 0371 77030000 		.4byte	0x377
 1321 0375 00       		.byte	0
 1322 0376 00       		.byte	0
 1323 0377 0B       		.uleb128 0xb
 1324 0378 04       		.byte	0x4
 1325 0379 E0020000 		.4byte	0x2e0
 1326 037d 04       		.uleb128 0x4
 1327 037e 04       		.byte	0x4
 1328 037f 07       		.byte	0x7
 1329 0380 07000000 		.4byte	.LASF57
 1330 0384 03       		.uleb128 0x3
 1331 0385 96000000 		.4byte	.LASF58
 1332 0389 09       		.byte	0x9
 1333 038a 51       		.byte	0x51
 1334 038b 8F030000 		.4byte	0x38f
 1335 038f 0B       		.uleb128 0xb
 1336 0390 04       		.byte	0x4
 1337 0391 95030000 		.4byte	0x395
 1338 0395 0F       		.uleb128 0xf
 1339 0396 A0030000 		.4byte	0x3a0
 1340 039a 10       		.uleb128 0x10
 1341 039b D3020000 		.4byte	0x2d3
 1342 039f 00       		.byte	0
 1343 03a0 03       		.uleb128 0x3
 1344 03a1 DD0A0000 		.4byte	.LASF59
 1345 03a5 09       		.byte	0x9
 1346 03a6 56       		.byte	0x56
 1347 03a7 AB030000 		.4byte	0x3ab
 1348 03ab 07       		.uleb128 0x7
 1349 03ac DD0A0000 		.4byte	.LASF59
 1350 03b0 14       		.byte	0x14
 1351 03b1 09       		.byte	0x9
 1352 03b2 5D       		.byte	0x5d
 1353 03b3 F4030000 		.4byte	0x3f4
 1354 03b7 08       		.uleb128 0x8
 1355 03b8 2C060000 		.4byte	.LASF60
 1356 03bc 09       		.byte	0x9
ARM GAS  /tmp/ccu5GyJp.s 			page 25


 1357 03bd 5E       		.byte	0x5e
 1358 03be F4030000 		.4byte	0x3f4
 1359 03c2 00       		.byte	0
 1360 03c3 08       		.uleb128 0x8
 1361 03c4 FD020000 		.4byte	.LASF61
 1362 03c8 09       		.byte	0x9
 1363 03c9 60       		.byte	0x60
 1364 03ca F4030000 		.4byte	0x3f4
 1365 03ce 04       		.byte	0x4
 1366 03cf 08       		.uleb128 0x8
 1367 03d0 AF0B0000 		.4byte	.LASF62
 1368 03d4 09       		.byte	0x9
 1369 03d5 62       		.byte	0x62
 1370 03d6 5E010000 		.4byte	0x15e
 1371 03da 08       		.byte	0x8
 1372 03db 08       		.uleb128 0x8
 1373 03dc 19040000 		.4byte	.LASF63
 1374 03e0 09       		.byte	0x9
 1375 03e1 63       		.byte	0x63
 1376 03e2 84030000 		.4byte	0x384
 1377 03e6 0C       		.byte	0xc
 1378 03e7 08       		.uleb128 0x8
 1379 03e8 32010000 		.4byte	.LASF64
 1380 03ec 09       		.byte	0x9
 1381 03ed 65       		.byte	0x65
 1382 03ee D3020000 		.4byte	0x2d3
 1383 03f2 10       		.byte	0x10
 1384 03f3 00       		.byte	0
 1385 03f4 0B       		.uleb128 0xb
 1386 03f5 04       		.byte	0x4
 1387 03f6 A0030000 		.4byte	0x3a0
 1388 03fa 0A       		.uleb128 0xa
 1389 03fb 10       		.byte	0x10
 1390 03fc 09       		.byte	0x9
 1391 03fd 6F       		.byte	0x6f
 1392 03fe 33040000 		.4byte	0x433
 1393 0402 08       		.uleb128 0x8
 1394 0403 2C060000 		.4byte	.LASF60
 1395 0407 09       		.byte	0x9
 1396 0408 70       		.byte	0x70
 1397 0409 F4030000 		.4byte	0x3f4
 1398 040d 00       		.byte	0
 1399 040e 08       		.uleb128 0x8
 1400 040f FD020000 		.4byte	.LASF61
 1401 0413 09       		.byte	0x9
 1402 0414 72       		.byte	0x72
 1403 0415 F4030000 		.4byte	0x3f4
 1404 0419 04       		.byte	0x4
 1405 041a 08       		.uleb128 0x8
 1406 041b AF0B0000 		.4byte	.LASF62
 1407 041f 09       		.byte	0x9
 1408 0420 74       		.byte	0x74
 1409 0421 5E010000 		.4byte	0x15e
 1410 0425 08       		.byte	0x8
 1411 0426 08       		.uleb128 0x8
 1412 0427 EA090000 		.4byte	.LASF65
 1413 042b 09       		.byte	0x9
ARM GAS  /tmp/ccu5GyJp.s 			page 26


 1414 042c 75       		.byte	0x75
 1415 042d 69010000 		.4byte	0x169
 1416 0431 0C       		.byte	0xc
 1417 0432 00       		.byte	0
 1418 0433 03       		.uleb128 0x3
 1419 0434 3A090000 		.4byte	.LASF66
 1420 0438 09       		.byte	0x9
 1421 0439 76       		.byte	0x76
 1422 043a FA030000 		.4byte	0x3fa
 1423 043e 11       		.uleb128 0x11
 1424 043f 8E0A0000 		.4byte	.LASF74
 1425 0443 09       		.byte	0x9
 1426 0444 EE       		.byte	0xee
 1427 0445 33040000 		.4byte	0x433
 1428 0449 0A       		.uleb128 0xa
 1429 044a 1C       		.byte	0x1c
 1430 044b 0A       		.byte	0xa
 1431 044c 57       		.byte	0x57
 1432 044d 9A040000 		.4byte	0x49a
 1433 0451 08       		.uleb128 0x8
 1434 0452 82090000 		.4byte	.LASF67
 1435 0456 0A       		.byte	0xa
 1436 0457 58       		.byte	0x58
 1437 0458 9D020000 		.4byte	0x29d
 1438 045c 00       		.byte	0
 1439 045d 08       		.uleb128 0x8
 1440 045e 420A0000 		.4byte	.LASF68
 1441 0462 0A       		.byte	0xa
 1442 0463 59       		.byte	0x59
 1443 0464 32010000 		.4byte	0x132
 1444 0468 08       		.byte	0x8
 1445 0469 08       		.uleb128 0x8
 1446 046a 6E000000 		.4byte	.LASF69
 1447 046e 0A       		.byte	0xa
 1448 046f 5B       		.byte	0x5b
 1449 0470 5C030000 		.4byte	0x35c
 1450 0474 0C       		.byte	0xc
 1451 0475 08       		.uleb128 0x8
 1452 0476 1F030000 		.4byte	.LASF70
 1453 047a 0A       		.byte	0xa
 1454 047b 5E       		.byte	0x5e
 1455 047c 97020000 		.4byte	0x297
 1456 0480 10       		.byte	0x10
 1457 0481 08       		.uleb128 0x8
 1458 0482 FE090000 		.4byte	.LASF71
 1459 0486 0A       		.byte	0xa
 1460 0487 5F       		.byte	0x5f
 1461 0488 97020000 		.4byte	0x297
 1462 048c 14       		.byte	0x14
 1463 048d 08       		.uleb128 0x8
 1464 048e 30090000 		.4byte	.LASF72
 1465 0492 0A       		.byte	0xa
 1466 0493 62       		.byte	0x62
 1467 0494 97020000 		.4byte	0x297
 1468 0498 18       		.byte	0x18
 1469 0499 00       		.byte	0
 1470 049a 03       		.uleb128 0x3
ARM GAS  /tmp/ccu5GyJp.s 			page 27


 1471 049b 9E0B0000 		.4byte	.LASF73
 1472 049f 0A       		.byte	0xa
 1473 04a0 64       		.byte	0x64
 1474 04a1 49040000 		.4byte	0x449
 1475 04a5 11       		.uleb128 0x11
 1476 04a6 B4090000 		.4byte	.LASF75
 1477 04aa 0A       		.byte	0xa
 1478 04ab 68       		.byte	0x68
 1479 04ac 9A040000 		.4byte	0x49a
 1480 04b0 07       		.uleb128 0x7
 1481 04b1 FB050000 		.4byte	.LASF76
 1482 04b5 10       		.byte	0x10
 1483 04b6 0B       		.byte	0xb
 1484 04b7 25       		.byte	0x25
 1485 04b8 E1040000 		.4byte	0x4e1
 1486 04bc 08       		.uleb128 0x8
 1487 04bd 1A060000 		.4byte	.LASF77
 1488 04c1 0B       		.byte	0xb
 1489 04c2 26       		.byte	0x26
 1490 04c3 9D020000 		.4byte	0x29d
 1491 04c7 00       		.byte	0
 1492 04c8 08       		.uleb128 0x8
 1493 04c9 2A010000 		.4byte	.LASF78
 1494 04cd 0B       		.byte	0xb
 1495 04ce 28       		.byte	0x28
 1496 04cf 97020000 		.4byte	0x297
 1497 04d3 08       		.byte	0x8
 1498 04d4 08       		.uleb128 0x8
 1499 04d5 BC0B0000 		.4byte	.LASF79
 1500 04d9 0B       		.byte	0xb
 1501 04da 2A       		.byte	0x2a
 1502 04db E1040000 		.4byte	0x4e1
 1503 04df 0C       		.byte	0xc
 1504 04e0 00       		.byte	0
 1505 04e1 0B       		.uleb128 0xb
 1506 04e2 04       		.byte	0x4
 1507 04e3 B0040000 		.4byte	0x4b0
 1508 04e7 03       		.uleb128 0x3
 1509 04e8 FB050000 		.4byte	.LASF76
 1510 04ec 0B       		.byte	0xb
 1511 04ed 2C       		.byte	0x2c
 1512 04ee B0040000 		.4byte	0x4b0
 1513 04f2 03       		.uleb128 0x3
 1514 04f3 B50A0000 		.4byte	.LASF80
 1515 04f7 0C       		.byte	0xc
 1516 04f8 25       		.byte	0x25
 1517 04f9 FD040000 		.4byte	0x4fd
 1518 04fd 07       		.uleb128 0x7
 1519 04fe B50A0000 		.4byte	.LASF80
 1520 0502 10       		.byte	0x10
 1521 0503 0C       		.byte	0xc
 1522 0504 2A       		.byte	0x2a
 1523 0505 3A050000 		.4byte	0x53a
 1524 0509 08       		.uleb128 0x8
 1525 050a 35050000 		.4byte	.LASF81
 1526 050e 0C       		.byte	0xc
 1527 050f 2B       		.byte	0x2b
ARM GAS  /tmp/ccu5GyJp.s 			page 28


 1528 0510 3A050000 		.4byte	0x53a
 1529 0514 00       		.byte	0
 1530 0515 08       		.uleb128 0x8
 1531 0516 EE0B0000 		.4byte	.LASF82
 1532 051a 0C       		.byte	0xc
 1533 051b 2E       		.byte	0x2e
 1534 051c 97020000 		.4byte	0x297
 1535 0520 04       		.byte	0x4
 1536 0521 08       		.uleb128 0x8
 1537 0522 960B0000 		.4byte	.LASF83
 1538 0526 0C       		.byte	0xc
 1539 0527 30       		.byte	0x30
 1540 0528 48010000 		.4byte	0x148
 1541 052c 08       		.byte	0x8
 1542 052d 08       		.uleb128 0x8
 1543 052e D1000000 		.4byte	.LASF84
 1544 0532 0C       		.byte	0xc
 1545 0533 33       		.byte	0x33
 1546 0534 53010000 		.4byte	0x153
 1547 0538 0C       		.byte	0xc
 1548 0539 00       		.byte	0
 1549 053a 0B       		.uleb128 0xb
 1550 053b 04       		.byte	0x4
 1551 053c F2040000 		.4byte	0x4f2
 1552 0540 07       		.uleb128 0x7
 1553 0541 B4040000 		.4byte	.LASF85
 1554 0545 04       		.byte	0x4
 1555 0546 0C       		.byte	0xc
 1556 0547 3A       		.byte	0x3a
 1557 0548 59050000 		.4byte	0x559
 1558 054c 08       		.uleb128 0x8
 1559 054d 85040000 		.4byte	.LASF86
 1560 0551 0C       		.byte	0xc
 1561 0552 3B       		.byte	0x3b
 1562 0553 3A050000 		.4byte	0x53a
 1563 0557 00       		.byte	0
 1564 0558 00       		.byte	0
 1565 0559 03       		.uleb128 0x3
 1566 055a B4040000 		.4byte	.LASF85
 1567 055e 0C       		.byte	0xc
 1568 055f 3E       		.byte	0x3e
 1569 0560 40050000 		.4byte	0x540
 1570 0564 12       		.uleb128 0x12
 1571 0565 04       		.byte	0x4
 1572 0566 07       		.byte	0x7
 1573 0567 8F       		.byte	0x8f
 1574 0568 99050000 		.4byte	0x599
 1575 056c 13       		.uleb128 0x13
 1576 056d 020B0000 		.4byte	.LASF87
 1577 0571 07       		.byte	0x7
 1578 0572 96       		.byte	0x96
 1579 0573 3D010000 		.4byte	0x13d
 1580 0577 13       		.uleb128 0x13
 1581 0578 39010000 		.4byte	.LASF88
 1582 057c 07       		.byte	0x7
 1583 057d 9D       		.byte	0x9d
 1584 057e 3D010000 		.4byte	0x13d
ARM GAS  /tmp/ccu5GyJp.s 			page 29


 1585 0582 13       		.uleb128 0x13
 1586 0583 C5030000 		.4byte	.LASF89
 1587 0587 07       		.byte	0x7
 1588 0588 A4       		.byte	0xa4
 1589 0589 D3020000 		.4byte	0x2d3
 1590 058d 13       		.uleb128 0x13
 1591 058e 5C010000 		.4byte	.LASF90
 1592 0592 07       		.byte	0x7
 1593 0593 AB       		.byte	0xab
 1594 0594 48010000 		.4byte	0x148
 1595 0598 00       		.byte	0
 1596 0599 0B       		.uleb128 0xb
 1597 059a 04       		.byte	0x4
 1598 059b A6050000 		.4byte	0x5a6
 1599 059f 04       		.uleb128 0x4
 1600 05a0 01       		.byte	0x1
 1601 05a1 08       		.byte	0x8
 1602 05a2 7C030000 		.4byte	.LASF91
 1603 05a6 05       		.uleb128 0x5
 1604 05a7 9F050000 		.4byte	0x59f
 1605 05ab 0B       		.uleb128 0xb
 1606 05ac 04       		.byte	0x4
 1607 05ad E7040000 		.4byte	0x4e7
 1608 05b1 0B       		.uleb128 0xb
 1609 05b2 04       		.byte	0x4
 1610 05b3 B7050000 		.4byte	0x5b7
 1611 05b7 14       		.uleb128 0x14
 1612 05b8 3D010000 		.4byte	0x13d
 1613 05bc C6050000 		.4byte	0x5c6
 1614 05c0 10       		.uleb128 0x10
 1615 05c1 D3020000 		.4byte	0x2d3
 1616 05c5 00       		.byte	0
 1617 05c6 0A       		.uleb128 0xa
 1618 05c7 16       		.byte	0x16
 1619 05c8 0D       		.byte	0xd
 1620 05c9 25       		.byte	0x25
 1621 05ca A7060000 		.4byte	0x6a7
 1622 05ce 08       		.uleb128 0x8
 1623 05cf 26000000 		.4byte	.LASF92
 1624 05d3 0D       		.byte	0xd
 1625 05d4 26       		.byte	0x26
 1626 05d5 A7060000 		.4byte	0x6a7
 1627 05d9 00       		.byte	0
 1628 05da 08       		.uleb128 0x8
 1629 05db E6040000 		.4byte	.LASF93
 1630 05df 0D       		.byte	0xd
 1631 05e0 27       		.byte	0x27
 1632 05e1 B4000000 		.4byte	0xb4
 1633 05e5 04       		.byte	0x4
 1634 05e6 08       		.uleb128 0x8
 1635 05e7 6F0B0000 		.4byte	.LASF94
 1636 05eb 0D       		.byte	0xd
 1637 05ec 28       		.byte	0x28
 1638 05ed B4000000 		.4byte	0xb4
 1639 05f1 05       		.byte	0x5
 1640 05f2 08       		.uleb128 0x8
 1641 05f3 0F060000 		.4byte	.LASF95
ARM GAS  /tmp/ccu5GyJp.s 			page 30


 1642 05f7 0D       		.byte	0xd
 1643 05f8 29       		.byte	0x29
 1644 05f9 C4000000 		.4byte	0xc4
 1645 05fd 06       		.byte	0x6
 1646 05fe 08       		.uleb128 0x8
 1647 05ff F7000000 		.4byte	.LASF96
 1648 0603 0D       		.byte	0xd
 1649 0604 2A       		.byte	0x2a
 1650 0605 B4000000 		.4byte	0xb4
 1651 0609 08       		.byte	0x8
 1652 060a 08       		.uleb128 0x8
 1653 060b 0C070000 		.4byte	.LASF97
 1654 060f 0D       		.byte	0xd
 1655 0610 2B       		.byte	0x2b
 1656 0611 B4000000 		.4byte	0xb4
 1657 0615 09       		.byte	0x9
 1658 0616 08       		.uleb128 0x8
 1659 0617 63010000 		.4byte	.LASF98
 1660 061b 0D       		.byte	0xd
 1661 061c 2C       		.byte	0x2c
 1662 061d B4000000 		.4byte	0xb4
 1663 0621 0A       		.byte	0xa
 1664 0622 08       		.uleb128 0x8
 1665 0623 00040000 		.4byte	.LASF99
 1666 0627 0D       		.byte	0xd
 1667 0628 2D       		.byte	0x2d
 1668 0629 B4000000 		.4byte	0xb4
 1669 062d 0B       		.byte	0xb
 1670 062e 08       		.uleb128 0x8
 1671 062f 83000000 		.4byte	.LASF100
 1672 0633 0D       		.byte	0xd
 1673 0634 2E       		.byte	0x2e
 1674 0635 B4000000 		.4byte	0xb4
 1675 0639 0C       		.byte	0xc
 1676 063a 08       		.uleb128 0x8
 1677 063b CC030000 		.4byte	.LASF101
 1678 063f 0D       		.byte	0xd
 1679 0640 2F       		.byte	0x2f
 1680 0641 B4000000 		.4byte	0xb4
 1681 0645 0D       		.byte	0xd
 1682 0646 08       		.uleb128 0x8
 1683 0647 5E0A0000 		.4byte	.LASF102
 1684 064b 0D       		.byte	0xd
 1685 064c 30       		.byte	0x30
 1686 064d B4000000 		.4byte	0xb4
 1687 0651 0E       		.byte	0xe
 1688 0652 08       		.uleb128 0x8
 1689 0653 10000000 		.4byte	.LASF103
 1690 0657 0D       		.byte	0xd
 1691 0658 31       		.byte	0x31
 1692 0659 B4000000 		.4byte	0xb4
 1693 065d 0F       		.byte	0xf
 1694 065e 08       		.uleb128 0x8
 1695 065f DC060000 		.4byte	.LASF104
 1696 0663 0D       		.byte	0xd
 1697 0664 32       		.byte	0x32
 1698 0665 B4000000 		.4byte	0xb4
ARM GAS  /tmp/ccu5GyJp.s 			page 31


 1699 0669 10       		.byte	0x10
 1700 066a 08       		.uleb128 0x8
 1701 066b DF010000 		.4byte	.LASF105
 1702 066f 0D       		.byte	0xd
 1703 0670 34       		.byte	0x34
 1704 0671 B4000000 		.4byte	0xb4
 1705 0675 11       		.byte	0x11
 1706 0676 08       		.uleb128 0x8
 1707 0677 F7080000 		.4byte	.LASF106
 1708 067b 0D       		.byte	0xd
 1709 067c 35       		.byte	0x35
 1710 067d B4000000 		.4byte	0xb4
 1711 0681 12       		.byte	0x12
 1712 0682 08       		.uleb128 0x8
 1713 0683 09080000 		.4byte	.LASF107
 1714 0687 0D       		.byte	0xd
 1715 0688 36       		.byte	0x36
 1716 0689 B4000000 		.4byte	0xb4
 1717 068d 13       		.byte	0x13
 1718 068e 08       		.uleb128 0x8
 1719 068f D5050000 		.4byte	.LASF108
 1720 0693 0D       		.byte	0xd
 1721 0694 37       		.byte	0x37
 1722 0695 B4000000 		.4byte	0xb4
 1723 0699 14       		.byte	0x14
 1724 069a 08       		.uleb128 0x8
 1725 069b 64080000 		.4byte	.LASF109
 1726 069f 0D       		.byte	0xd
 1727 06a0 39       		.byte	0x39
 1728 06a1 B4000000 		.4byte	0xb4
 1729 06a5 15       		.byte	0x15
 1730 06a6 00       		.byte	0
 1731 06a7 15       		.uleb128 0x15
 1732 06a8 9F050000 		.4byte	0x59f
 1733 06ac B7060000 		.4byte	0x6b7
 1734 06b0 16       		.uleb128 0x16
 1735 06b1 7D030000 		.4byte	0x37d
 1736 06b5 03       		.byte	0x3
 1737 06b6 00       		.byte	0
 1738 06b7 03       		.uleb128 0x3
 1739 06b8 4E0B0000 		.4byte	.LASF110
 1740 06bc 0D       		.byte	0xd
 1741 06bd 3A       		.byte	0x3a
 1742 06be C6050000 		.4byte	0x5c6
 1743 06c2 05       		.uleb128 0x5
 1744 06c3 B7060000 		.4byte	0x6b7
 1745 06c7 11       		.uleb128 0x11
 1746 06c8 51000000 		.4byte	.LASF111
 1747 06cc 0D       		.byte	0xd
 1748 06cd 77       		.byte	0x77
 1749 06ce C2060000 		.4byte	0x6c2
 1750 06d2 03       		.uleb128 0x3
 1751 06d3 AF030000 		.4byte	.LASF112
 1752 06d7 0E       		.byte	0xe
 1753 06d8 30       		.byte	0x30
 1754 06d9 DD060000 		.4byte	0x6dd
 1755 06dd 07       		.uleb128 0x7
ARM GAS  /tmp/ccu5GyJp.s 			page 32


 1756 06de AF030000 		.4byte	.LASF112
 1757 06e2 24       		.byte	0x24
 1758 06e3 0E       		.byte	0xe
 1759 06e4 3E       		.byte	0x3e
 1760 06e5 4A070000 		.4byte	0x74a
 1761 06e9 08       		.uleb128 0x8
 1762 06ea A1090000 		.4byte	.LASF113
 1763 06ee 0E       		.byte	0xe
 1764 06ef 3F       		.byte	0x3f
 1765 06f0 9D020000 		.4byte	0x29d
 1766 06f4 00       		.byte	0
 1767 06f5 08       		.uleb128 0x8
 1768 06f6 8D040000 		.4byte	.LASF114
 1769 06fa 0E       		.byte	0xe
 1770 06fb 40       		.byte	0x40
 1771 06fc 2C000000 		.4byte	0x2c
 1772 0700 08       		.byte	0x8
 1773 0701 08       		.uleb128 0x8
 1774 0702 80010000 		.4byte	.LASF115
 1775 0706 0E       		.byte	0xe
 1776 0707 41       		.byte	0x41
 1777 0708 6C070000 		.4byte	0x76c
 1778 070c 0C       		.byte	0xc
 1779 070d 08       		.uleb128 0x8
 1780 070e 4C010000 		.4byte	.LASF116
 1781 0712 0E       		.byte	0xe
 1782 0713 42       		.byte	0x42
 1783 0714 6C070000 		.4byte	0x76c
 1784 0718 10       		.byte	0x10
 1785 0719 08       		.uleb128 0x8
 1786 071a 3D050000 		.4byte	.LASF117
 1787 071e 0E       		.byte	0xe
 1788 071f 44       		.byte	0x44
 1789 0720 6C070000 		.4byte	0x76c
 1790 0724 14       		.byte	0x14
 1791 0725 08       		.uleb128 0x8
 1792 0726 BB010000 		.4byte	.LASF118
 1793 072a 0E       		.byte	0xe
 1794 072b 45       		.byte	0x45
 1795 072c 6C070000 		.4byte	0x76c
 1796 0730 18       		.byte	0x18
 1797 0731 08       		.uleb128 0x8
 1798 0732 9A010000 		.4byte	.LASF119
 1799 0736 0E       		.byte	0xe
 1800 0737 46       		.byte	0x46
 1801 0738 4A070000 		.4byte	0x74a
 1802 073c 1C       		.byte	0x1c
 1803 073d 08       		.uleb128 0x8
 1804 073e D8020000 		.4byte	.LASF120
 1805 0742 0E       		.byte	0xe
 1806 0743 47       		.byte	0x47
 1807 0744 D3020000 		.4byte	0x2d3
 1808 0748 20       		.byte	0x20
 1809 0749 00       		.byte	0
 1810 074a 03       		.uleb128 0x3
 1811 074b 7D060000 		.4byte	.LASF121
 1812 074f 0E       		.byte	0xe
ARM GAS  /tmp/ccu5GyJp.s 			page 33


 1813 0750 33       		.byte	0x33
 1814 0751 55070000 		.4byte	0x755
 1815 0755 0B       		.uleb128 0xb
 1816 0756 04       		.byte	0x4
 1817 0757 5B070000 		.4byte	0x75b
 1818 075b 0F       		.uleb128 0xf
 1819 075c 66070000 		.4byte	0x766
 1820 0760 10       		.uleb128 0x10
 1821 0761 66070000 		.4byte	0x766
 1822 0765 00       		.byte	0
 1823 0766 0B       		.uleb128 0xb
 1824 0767 04       		.byte	0x4
 1825 0768 D2060000 		.4byte	0x6d2
 1826 076c 0B       		.uleb128 0xb
 1827 076d 04       		.byte	0x4
 1828 076e B4000000 		.4byte	0xb4
 1829 0772 03       		.uleb128 0x3
 1830 0773 580B0000 		.4byte	.LASF122
 1831 0777 0E       		.byte	0xe
 1832 0778 7B       		.byte	0x7b
 1833 0779 D2060000 		.4byte	0x6d2
 1834 077d 03       		.uleb128 0x3
 1835 077e F4030000 		.4byte	.LASF123
 1836 0782 0E       		.byte	0xe
 1837 0783 EE       		.byte	0xee
 1838 0784 D2060000 		.4byte	0x6d2
 1839 0788 14       		.uleb128 0x14
 1840 0789 2C000000 		.4byte	0x2c
 1841 078d A1070000 		.4byte	0x7a1
 1842 0791 10       		.uleb128 0x10
 1843 0792 D3020000 		.4byte	0x2d3
 1844 0796 10       		.uleb128 0x10
 1845 0797 A1070000 		.4byte	0x7a1
 1846 079b 10       		.uleb128 0x10
 1847 079c 2C000000 		.4byte	0x2c
 1848 07a0 00       		.byte	0
 1849 07a1 0B       		.uleb128 0xb
 1850 07a2 04       		.byte	0x4
 1851 07a3 BF000000 		.4byte	0xbf
 1852 07a7 0B       		.uleb128 0xb
 1853 07a8 04       		.byte	0x4
 1854 07a9 88070000 		.4byte	0x788
 1855 07ad 14       		.uleb128 0x14
 1856 07ae 2C000000 		.4byte	0x2c
 1857 07b2 C6070000 		.4byte	0x7c6
 1858 07b6 10       		.uleb128 0x10
 1859 07b7 D3020000 		.4byte	0x2d3
 1860 07bb 10       		.uleb128 0x10
 1861 07bc 6C070000 		.4byte	0x76c
 1862 07c0 10       		.uleb128 0x10
 1863 07c1 2C000000 		.4byte	0x2c
 1864 07c5 00       		.byte	0
 1865 07c6 0B       		.uleb128 0xb
 1866 07c7 04       		.byte	0x4
 1867 07c8 AD070000 		.4byte	0x7ad
 1868 07cc 14       		.uleb128 0x14
 1869 07cd 3D010000 		.4byte	0x13d
ARM GAS  /tmp/ccu5GyJp.s 			page 34


 1870 07d1 E0070000 		.4byte	0x7e0
 1871 07d5 10       		.uleb128 0x10
 1872 07d6 D3020000 		.4byte	0x2d3
 1873 07da 10       		.uleb128 0x10
 1874 07db B4000000 		.4byte	0xb4
 1875 07df 00       		.byte	0
 1876 07e0 0B       		.uleb128 0xb
 1877 07e1 04       		.byte	0x4
 1878 07e2 CC070000 		.4byte	0x7cc
 1879 07e6 15       		.uleb128 0x15
 1880 07e7 D5020000 		.4byte	0x2d5
 1881 07eb F6070000 		.4byte	0x7f6
 1882 07ef 16       		.uleb128 0x16
 1883 07f0 7D030000 		.4byte	0x37d
 1884 07f4 17       		.byte	0x17
 1885 07f5 00       		.byte	0
 1886 07f6 11       		.uleb128 0x11
 1887 07f7 A50A0000 		.4byte	.LASF124
 1888 07fb 0F       		.byte	0xf
 1889 07fc 82       		.byte	0x82
 1890 07fd E6070000 		.4byte	0x7e6
 1891 0801 17       		.uleb128 0x17
 1892 0802 2E080000 		.4byte	.LASF274
 1893 0806 01       		.byte	0x1
 1894 0807 4C000000 		.4byte	0x4c
 1895 080b 12       		.byte	0x12
 1896 080c 29       		.byte	0x29
 1897 080d 14090000 		.4byte	0x914
 1898 0811 18       		.uleb128 0x18
 1899 0812 A0040000 		.4byte	.LASF125
 1900 0816 72       		.sleb128 -14
 1901 0817 18       		.uleb128 0x18
 1902 0818 F9040000 		.4byte	.LASF126
 1903 081c 74       		.sleb128 -12
 1904 081d 18       		.uleb128 0x18
 1905 081e BE050000 		.4byte	.LASF127
 1906 0822 75       		.sleb128 -11
 1907 0823 18       		.uleb128 0x18
 1908 0824 54030000 		.4byte	.LASF128
 1909 0828 76       		.sleb128 -10
 1910 0829 18       		.uleb128 0x18
 1911 082a 3E060000 		.4byte	.LASF129
 1912 082e 7B       		.sleb128 -5
 1913 082f 18       		.uleb128 0x18
 1914 0830 D8090000 		.4byte	.LASF130
 1915 0834 7C       		.sleb128 -4
 1916 0835 18       		.uleb128 0x18
 1917 0836 630B0000 		.4byte	.LASF131
 1918 083a 7E       		.sleb128 -2
 1919 083b 18       		.uleb128 0x18
 1920 083c 47020000 		.4byte	.LASF132
 1921 0840 7F       		.sleb128 -1
 1922 0841 19       		.uleb128 0x19
 1923 0842 AB050000 		.4byte	.LASF133
 1924 0846 00       		.byte	0
 1925 0847 19       		.uleb128 0x19
 1926 0848 AB060000 		.4byte	.LASF134
ARM GAS  /tmp/ccu5GyJp.s 			page 35


 1927 084c 01       		.byte	0x1
 1928 084d 19       		.uleb128 0x19
 1929 084e EF050000 		.4byte	.LASF135
 1930 0852 02       		.byte	0x2
 1931 0853 19       		.uleb128 0x19
 1932 0854 15010000 		.4byte	.LASF136
 1933 0858 03       		.byte	0x3
 1934 0859 19       		.uleb128 0x19
 1935 085a 41090000 		.4byte	.LASF137
 1936 085e 04       		.byte	0x4
 1937 085f 19       		.uleb128 0x19
 1938 0860 77090000 		.4byte	.LASF138
 1939 0864 05       		.byte	0x5
 1940 0865 19       		.uleb128 0x19
 1941 0866 3E040000 		.4byte	.LASF139
 1942 086a 06       		.byte	0x6
 1943 086b 19       		.uleb128 0x19
 1944 086c D9030000 		.4byte	.LASF140
 1945 0870 07       		.byte	0x7
 1946 0871 19       		.uleb128 0x19
 1947 0872 F70A0000 		.4byte	.LASF141
 1948 0876 08       		.byte	0x8
 1949 0877 19       		.uleb128 0x19
 1950 0878 2C0A0000 		.4byte	.LASF142
 1951 087c 09       		.byte	0x9
 1952 087d 19       		.uleb128 0x19
 1953 087e 68090000 		.4byte	.LASF143
 1954 0882 0A       		.byte	0xa
 1955 0883 19       		.uleb128 0x19
 1956 0884 F8070000 		.4byte	.LASF144
 1957 0888 0B       		.byte	0xb
 1958 0889 19       		.uleb128 0x19
 1959 088a A1050000 		.4byte	.LASF145
 1960 088e 0C       		.byte	0xc
 1961 088f 19       		.uleb128 0x19
 1962 0890 AB090000 		.4byte	.LASF146
 1963 0894 0D       		.byte	0xd
 1964 0895 19       		.uleb128 0x19
 1965 0896 C3010000 		.4byte	.LASF147
 1966 089a 0E       		.byte	0xe
 1967 089b 19       		.uleb128 0x19
 1968 089c 0B010000 		.4byte	.LASF148
 1969 08a0 0F       		.byte	0xf
 1970 08a1 19       		.uleb128 0x19
 1971 08a2 34060000 		.4byte	.LASF149
 1972 08a6 10       		.byte	0x10
 1973 08a7 19       		.uleb128 0x19
 1974 08a8 DF0B0000 		.4byte	.LASF150
 1975 08ac 11       		.byte	0x11
 1976 08ad 19       		.uleb128 0x19
 1977 08ae 3C020000 		.4byte	.LASF151
 1978 08b2 12       		.byte	0x12
 1979 08b3 19       		.uleb128 0x19
 1980 08b4 060A0000 		.4byte	.LASF152
 1981 08b8 13       		.byte	0x13
 1982 08b9 19       		.uleb128 0x19
 1983 08ba EE040000 		.4byte	.LASF153
ARM GAS  /tmp/ccu5GyJp.s 			page 36


 1984 08be 14       		.byte	0x14
 1985 08bf 19       		.uleb128 0x19
 1986 08c0 21040000 		.4byte	.LASF154
 1987 08c4 15       		.byte	0x15
 1988 08c5 19       		.uleb128 0x19
 1989 08c6 57090000 		.4byte	.LASF155
 1990 08ca 16       		.byte	0x16
 1991 08cb 19       		.uleb128 0x19
 1992 08cc 6B0A0000 		.4byte	.LASF156
 1993 08d0 17       		.byte	0x17
 1994 08d1 19       		.uleb128 0x19
 1995 08d2 0D030000 		.4byte	.LASF157
 1996 08d6 18       		.byte	0x18
 1997 08d7 19       		.uleb128 0x19
 1998 08d8 85020000 		.4byte	.LASF158
 1999 08dc 19       		.byte	0x19
 2000 08dd 19       		.uleb128 0x19
 2001 08de 740A0000 		.4byte	.LASF159
 2002 08e2 1A       		.byte	0x1a
 2003 08e3 19       		.uleb128 0x19
 2004 08e4 C3000000 		.4byte	.LASF160
 2005 08e8 1B       		.byte	0x1b
 2006 08e9 19       		.uleb128 0x19
 2007 08ea 4D090000 		.4byte	.LASF161
 2008 08ee 1C       		.byte	0x1c
 2009 08ef 19       		.uleb128 0x19
 2010 08f0 4F060000 		.4byte	.LASF162
 2011 08f4 1D       		.byte	0x1d
 2012 08f5 19       		.uleb128 0x19
 2013 08f6 CF070000 		.4byte	.LASF163
 2014 08fa 1E       		.byte	0x1e
 2015 08fb 19       		.uleb128 0x19
 2016 08fc 25080000 		.4byte	.LASF164
 2017 0900 1F       		.byte	0x1f
 2018 0901 19       		.uleb128 0x19
 2019 0902 45050000 		.4byte	.LASF165
 2020 0906 20       		.byte	0x20
 2021 0907 19       		.uleb128 0x19
 2022 0908 89010000 		.4byte	.LASF166
 2023 090c 21       		.byte	0x21
 2024 090d 19       		.uleb128 0x19
 2025 090e FB060000 		.4byte	.LASF167
 2026 0912 22       		.byte	0x22
 2027 0913 00       		.byte	0
 2028 0914 15       		.uleb128 0x15
 2029 0915 DF000000 		.4byte	0xdf
 2030 0919 24090000 		.4byte	0x924
 2031 091d 16       		.uleb128 0x16
 2032 091e 7D030000 		.4byte	0x37d
 2033 0922 00       		.byte	0
 2034 0923 00       		.byte	0
 2035 0924 15       		.uleb128 0x15
 2036 0925 DF000000 		.4byte	0xdf
 2037 0929 34090000 		.4byte	0x934
 2038 092d 16       		.uleb128 0x16
 2039 092e 7D030000 		.4byte	0x37d
 2040 0932 0E       		.byte	0xe
ARM GAS  /tmp/ccu5GyJp.s 			page 37


 2041 0933 00       		.byte	0
 2042 0934 15       		.uleb128 0x15
 2043 0935 DF000000 		.4byte	0xdf
 2044 0939 44090000 		.4byte	0x944
 2045 093d 16       		.uleb128 0x16
 2046 093e 7D030000 		.4byte	0x37d
 2047 0942 01       		.byte	0x1
 2048 0943 00       		.byte	0
 2049 0944 1A       		.uleb128 0x1a
 2050 0945 60060000 		.4byte	.LASF168
 2051 0949 10       		.byte	0x10
 2052 094a 0706     		.2byte	0x607
 2053 094c DA000000 		.4byte	0xda
 2054 0950 11       		.uleb128 0x11
 2055 0951 0F050000 		.4byte	.LASF169
 2056 0955 11       		.byte	0x11
 2057 0956 23       		.byte	0x23
 2058 0957 DF000000 		.4byte	0xdf
 2059 095b 1B       		.uleb128 0x1b
 2060 095c CC01     		.2byte	0x1cc
 2061 095e 12       		.byte	0x12
 2062 095f 76       		.byte	0x76
 2063 0960 2A0B0000 		.4byte	0xb2a
 2064 0964 08       		.uleb128 0x8
 2065 0965 5A000000 		.4byte	.LASF170
 2066 0969 12       		.byte	0x12
 2067 096a 78       		.byte	0x78
 2068 096b EA000000 		.4byte	0xea
 2069 096f 00       		.byte	0
 2070 0970 08       		.uleb128 0x8
 2071 0971 A2020000 		.4byte	.LASF171
 2072 0975 12       		.byte	0x12
 2073 0976 79       		.byte	0x79
 2074 0977 2A0B0000 		.4byte	0xb2a
 2075 097b 04       		.byte	0x4
 2076 097c 08       		.uleb128 0x8
 2077 097d 58060000 		.4byte	.LASF172
 2078 0981 12       		.byte	0x12
 2079 0982 7A       		.byte	0x7a
 2080 0983 EA000000 		.4byte	0xea
 2081 0987 80       		.byte	0x80
 2082 0988 08       		.uleb128 0x8
 2083 0989 05030000 		.4byte	.LASF173
 2084 098d 12       		.byte	0x12
 2085 098e 7B       		.byte	0x7b
 2086 098f EA000000 		.4byte	0xea
 2087 0993 84       		.byte	0x84
 2088 0994 08       		.uleb128 0x8
 2089 0995 04090000 		.4byte	.LASF174
 2090 0999 12       		.byte	0x12
 2091 099a 7C       		.byte	0x7c
 2092 099b EF000000 		.4byte	0xef
 2093 099f 88       		.byte	0x88
 2094 09a0 08       		.uleb128 0x8
 2095 09a1 16030000 		.4byte	.LASF175
 2096 09a5 12       		.byte	0x12
 2097 09a6 7D       		.byte	0x7d
ARM GAS  /tmp/ccu5GyJp.s 			page 38


 2098 09a7 EA000000 		.4byte	0xea
 2099 09ab 8C       		.byte	0x8c
 2100 09ac 08       		.uleb128 0x8
 2101 09ad AC020000 		.4byte	.LASF176
 2102 09b1 12       		.byte	0x12
 2103 09b2 7E       		.byte	0x7e
 2104 09b3 3A0B0000 		.4byte	0xb3a
 2105 09b7 90       		.byte	0x90
 2106 09b8 08       		.uleb128 0x8
 2107 09b9 8E000000 		.4byte	.LASF177
 2108 09bd 12       		.byte	0x12
 2109 09be 7F       		.byte	0x7f
 2110 09bf EA000000 		.4byte	0xea
 2111 09c3 A0       		.byte	0xa0
 2112 09c4 08       		.uleb128 0x8
 2113 09c5 60090000 		.4byte	.LASF178
 2114 09c9 12       		.byte	0x12
 2115 09ca 80       		.byte	0x80
 2116 09cb EA000000 		.4byte	0xea
 2117 09cf A4       		.byte	0xa4
 2118 09d0 08       		.uleb128 0x8
 2119 09d1 C6060000 		.4byte	.LASF179
 2120 09d5 12       		.byte	0x12
 2121 09d6 81       		.byte	0x81
 2122 09d7 EF000000 		.4byte	0xef
 2123 09db A8       		.byte	0xa8
 2124 09dc 08       		.uleb128 0x8
 2125 09dd 02010000 		.4byte	.LASF180
 2126 09e1 12       		.byte	0x12
 2127 09e2 82       		.byte	0x82
 2128 09e3 EA000000 		.4byte	0xea
 2129 09e7 AC       		.byte	0xac
 2130 09e8 08       		.uleb128 0x8
 2131 09e9 40030000 		.4byte	.LASF181
 2132 09ed 12       		.byte	0x12
 2133 09ee 83       		.byte	0x83
 2134 09ef 3A0B0000 		.4byte	0xb3a
 2135 09f3 B0       		.byte	0xb0
 2136 09f4 08       		.uleb128 0x8
 2137 09f5 CA070000 		.4byte	.LASF182
 2138 09f9 12       		.byte	0x12
 2139 09fa 84       		.byte	0x84
 2140 09fb EA000000 		.4byte	0xea
 2141 09ff C0       		.byte	0xc0
 2142 0a00 08       		.uleb128 0x8
 2143 0a01 6D060000 		.4byte	.LASF183
 2144 0a05 12       		.byte	0x12
 2145 0a06 85       		.byte	0x85
 2146 0a07 EA000000 		.4byte	0xea
 2147 0a0b C4       		.byte	0xc4
 2148 0a0c 08       		.uleb128 0x8
 2149 0a0d C4020000 		.4byte	.LASF184
 2150 0a11 12       		.byte	0x12
 2151 0a12 86       		.byte	0x86
 2152 0a13 24090000 		.4byte	0x924
 2153 0a17 C8       		.byte	0xc8
 2154 0a18 1C       		.uleb128 0x1c
ARM GAS  /tmp/ccu5GyJp.s 			page 39


 2155 0a19 6B040000 		.4byte	.LASF185
 2156 0a1d 12       		.byte	0x12
 2157 0a1e 87       		.byte	0x87
 2158 0a1f EA000000 		.4byte	0xea
 2159 0a23 0401     		.2byte	0x104
 2160 0a25 1C       		.uleb128 0x1c
 2161 0a26 97090000 		.4byte	.LASF186
 2162 0a2a 12       		.byte	0x12
 2163 0a2b 88       		.byte	0x88
 2164 0a2c EA000000 		.4byte	0xea
 2165 0a30 0801     		.2byte	0x108
 2166 0a32 1C       		.uleb128 0x1c
 2167 0a33 B4050000 		.4byte	.LASF187
 2168 0a37 12       		.byte	0x12
 2169 0a38 89       		.byte	0x89
 2170 0a39 EA000000 		.4byte	0xea
 2171 0a3d 0C01     		.2byte	0x10c
 2172 0a3f 1C       		.uleb128 0x1c
 2173 0a40 29050000 		.4byte	.LASF188
 2174 0a44 12       		.byte	0x12
 2175 0a45 8A       		.byte	0x8a
 2176 0a46 EA000000 		.4byte	0xea
 2177 0a4a 1001     		.2byte	0x110
 2178 0a4c 1C       		.uleb128 0x1c
 2179 0a4d 770B0000 		.4byte	.LASF189
 2180 0a51 12       		.byte	0x12
 2181 0a52 8B       		.byte	0x8b
 2182 0a53 EA000000 		.4byte	0xea
 2183 0a57 1401     		.2byte	0x114
 2184 0a59 1C       		.uleb128 0x1c
 2185 0a5a CE020000 		.4byte	.LASF190
 2186 0a5e 12       		.byte	0x12
 2187 0a5f 8C       		.byte	0x8c
 2188 0a60 4A0B0000 		.4byte	0xb4a
 2189 0a64 1801     		.2byte	0x118
 2190 0a66 1C       		.uleb128 0x1c
 2191 0a67 49040000 		.4byte	.LASF191
 2192 0a6b 12       		.byte	0x12
 2193 0a6c 8D       		.byte	0x8d
 2194 0a6d EA000000 		.4byte	0xea
 2195 0a71 4001     		.2byte	0x140
 2196 0a73 1C       		.uleb128 0x1c
 2197 0a74 4A030000 		.4byte	.LASF192
 2198 0a78 12       		.byte	0x12
 2199 0a79 8E       		.byte	0x8e
 2200 0a7a 14090000 		.4byte	0x914
 2201 0a7e 4401     		.2byte	0x144
 2202 0a80 1C       		.uleb128 0x1c
 2203 0a81 110A0000 		.4byte	.LASF193
 2204 0a85 12       		.byte	0x12
 2205 0a86 8F       		.byte	0x8f
 2206 0a87 EA000000 		.4byte	0xea
 2207 0a8b 4801     		.2byte	0x148
 2208 0a8d 1C       		.uleb128 0x1c
 2209 0a8e BC030000 		.4byte	.LASF194
 2210 0a92 12       		.byte	0x12
 2211 0a93 90       		.byte	0x90
ARM GAS  /tmp/ccu5GyJp.s 			page 40


 2212 0a94 EA000000 		.4byte	0xea
 2213 0a98 4C01     		.2byte	0x14c
 2214 0a9a 1C       		.uleb128 0x1c
 2215 0a9b DF020000 		.4byte	.LASF195
 2216 0a9f 12       		.byte	0x12
 2217 0aa0 91       		.byte	0x91
 2218 0aa1 5A0B0000 		.4byte	0xb5a
 2219 0aa5 5001     		.2byte	0x150
 2220 0aa7 1C       		.uleb128 0x1c
 2221 0aa8 33080000 		.4byte	.LASF196
 2222 0aac 12       		.byte	0x12
 2223 0aad 92       		.byte	0x92
 2224 0aae EA000000 		.4byte	0xea
 2225 0ab2 8001     		.2byte	0x180
 2226 0ab4 1C       		.uleb128 0x1c
 2227 0ab5 E9020000 		.4byte	.LASF197
 2228 0ab9 12       		.byte	0x12
 2229 0aba 93       		.byte	0x93
 2230 0abb 6A0B0000 		.4byte	0xb6a
 2231 0abf 8401     		.2byte	0x184
 2232 0ac1 1D       		.uleb128 0x1d
 2233 0ac2 53435300 		.ascii	"SCS\000"
 2234 0ac6 12       		.byte	0x12
 2235 0ac7 94       		.byte	0x94
 2236 0ac8 EA000000 		.4byte	0xea
 2237 0acc A001     		.2byte	0x1a0
 2238 0ace 1C       		.uleb128 0x1c
 2239 0acf E6070000 		.4byte	.LASF198
 2240 0ad3 12       		.byte	0x12
 2241 0ad4 95       		.byte	0x95
 2242 0ad5 EA000000 		.4byte	0xea
 2243 0ad9 A401     		.2byte	0x1a4
 2244 0adb 1C       		.uleb128 0x1c
 2245 0adc 73040000 		.4byte	.LASF199
 2246 0ae0 12       		.byte	0x12
 2247 0ae1 96       		.byte	0x96
 2248 0ae2 EA000000 		.4byte	0xea
 2249 0ae6 A801     		.2byte	0x1a8
 2250 0ae8 1C       		.uleb128 0x1c
 2251 0ae9 7C040000 		.4byte	.LASF200
 2252 0aed 12       		.byte	0x12
 2253 0aee 97       		.byte	0x97
 2254 0aef EA000000 		.4byte	0xea
 2255 0af3 AC01     		.2byte	0x1ac
 2256 0af5 1C       		.uleb128 0x1c
 2257 0af6 F3020000 		.4byte	.LASF201
 2258 0afa 12       		.byte	0x12
 2259 0afb 98       		.byte	0x98
 2260 0afc 3A0B0000 		.4byte	0xb3a
 2261 0b00 B001     		.2byte	0x1b0
 2262 0b02 1C       		.uleb128 0x1c
 2263 0b03 37030000 		.4byte	.LASF202
 2264 0b07 12       		.byte	0x12
 2265 0b08 99       		.byte	0x99
 2266 0b09 EA000000 		.4byte	0xea
 2267 0b0d C001     		.2byte	0x1c0
 2268 0b0f 1C       		.uleb128 0x1c
ARM GAS  /tmp/ccu5GyJp.s 			page 41


 2269 0b10 9F000000 		.4byte	.LASF203
 2270 0b14 12       		.byte	0x12
 2271 0b15 9A       		.byte	0x9a
 2272 0b16 EA000000 		.4byte	0xea
 2273 0b1a C401     		.2byte	0x1c4
 2274 0b1c 1C       		.uleb128 0x1c
 2275 0b1d EE070000 		.4byte	.LASF204
 2276 0b21 12       		.byte	0x12
 2277 0b22 9B       		.byte	0x9b
 2278 0b23 EA000000 		.4byte	0xea
 2279 0b27 C801     		.2byte	0x1c8
 2280 0b29 00       		.byte	0
 2281 0b2a 15       		.uleb128 0x15
 2282 0b2b DF000000 		.4byte	0xdf
 2283 0b2f 3A0B0000 		.4byte	0xb3a
 2284 0b33 16       		.uleb128 0x16
 2285 0b34 7D030000 		.4byte	0x37d
 2286 0b38 1E       		.byte	0x1e
 2287 0b39 00       		.byte	0
 2288 0b3a 15       		.uleb128 0x15
 2289 0b3b DF000000 		.4byte	0xdf
 2290 0b3f 4A0B0000 		.4byte	0xb4a
 2291 0b43 16       		.uleb128 0x16
 2292 0b44 7D030000 		.4byte	0x37d
 2293 0b48 03       		.byte	0x3
 2294 0b49 00       		.byte	0
 2295 0b4a 15       		.uleb128 0x15
 2296 0b4b DF000000 		.4byte	0xdf
 2297 0b4f 5A0B0000 		.4byte	0xb5a
 2298 0b53 16       		.uleb128 0x16
 2299 0b54 7D030000 		.4byte	0x37d
 2300 0b58 09       		.byte	0x9
 2301 0b59 00       		.byte	0
 2302 0b5a 15       		.uleb128 0x15
 2303 0b5b DF000000 		.4byte	0xdf
 2304 0b5f 6A0B0000 		.4byte	0xb6a
 2305 0b63 16       		.uleb128 0x16
 2306 0b64 7D030000 		.4byte	0x37d
 2307 0b68 0B       		.byte	0xb
 2308 0b69 00       		.byte	0
 2309 0b6a 15       		.uleb128 0x15
 2310 0b6b DF000000 		.4byte	0xdf
 2311 0b6f 7A0B0000 		.4byte	0xb7a
 2312 0b73 16       		.uleb128 0x16
 2313 0b74 7D030000 		.4byte	0x37d
 2314 0b78 06       		.byte	0x6
 2315 0b79 00       		.byte	0
 2316 0b7a 03       		.uleb128 0x3
 2317 0b7b 34000000 		.4byte	.LASF205
 2318 0b7f 12       		.byte	0x12
 2319 0b80 9D       		.byte	0x9d
 2320 0b81 5B090000 		.4byte	0x95b
 2321 0b85 1E       		.uleb128 0x1e
 2322 0b86 74       		.byte	0x74
 2323 0b87 12       		.byte	0x12
 2324 0b88 1C01     		.2byte	0x11c
 2325 0b8a 680C0000 		.4byte	0xc68
ARM GAS  /tmp/ccu5GyJp.s 			page 42


 2326 0b8e 0E       		.uleb128 0xe
 2327 0b8f 495200   		.ascii	"IR\000"
 2328 0b92 12       		.byte	0x12
 2329 0b93 1E01     		.2byte	0x11e
 2330 0b95 EA000000 		.4byte	0xea
 2331 0b99 00       		.byte	0
 2332 0b9a 0E       		.uleb128 0xe
 2333 0b9b 54435200 		.ascii	"TCR\000"
 2334 0b9f 12       		.byte	0x12
 2335 0ba0 1F01     		.2byte	0x11f
 2336 0ba2 EA000000 		.4byte	0xea
 2337 0ba6 04       		.byte	0x4
 2338 0ba7 0E       		.uleb128 0xe
 2339 0ba8 544300   		.ascii	"TC\000"
 2340 0bab 12       		.byte	0x12
 2341 0bac 2001     		.2byte	0x120
 2342 0bae EA000000 		.4byte	0xea
 2343 0bb2 08       		.byte	0x8
 2344 0bb3 0E       		.uleb128 0xe
 2345 0bb4 505200   		.ascii	"PR\000"
 2346 0bb7 12       		.byte	0x12
 2347 0bb8 2101     		.2byte	0x121
 2348 0bba EA000000 		.4byte	0xea
 2349 0bbe 0C       		.byte	0xc
 2350 0bbf 0E       		.uleb128 0xe
 2351 0bc0 504300   		.ascii	"PC\000"
 2352 0bc3 12       		.byte	0x12
 2353 0bc4 2201     		.2byte	0x122
 2354 0bc6 EA000000 		.4byte	0xea
 2355 0bca 10       		.byte	0x10
 2356 0bcb 0E       		.uleb128 0xe
 2357 0bcc 4D435200 		.ascii	"MCR\000"
 2358 0bd0 12       		.byte	0x12
 2359 0bd1 2301     		.2byte	0x123
 2360 0bd3 EA000000 		.4byte	0xea
 2361 0bd7 14       		.byte	0x14
 2362 0bd8 0E       		.uleb128 0xe
 2363 0bd9 4D523000 		.ascii	"MR0\000"
 2364 0bdd 12       		.byte	0x12
 2365 0bde 2401     		.2byte	0x124
 2366 0be0 EA000000 		.4byte	0xea
 2367 0be4 18       		.byte	0x18
 2368 0be5 0E       		.uleb128 0xe
 2369 0be6 4D523100 		.ascii	"MR1\000"
 2370 0bea 12       		.byte	0x12
 2371 0beb 2501     		.2byte	0x125
 2372 0bed EA000000 		.4byte	0xea
 2373 0bf1 1C       		.byte	0x1c
 2374 0bf2 0E       		.uleb128 0xe
 2375 0bf3 4D523200 		.ascii	"MR2\000"
 2376 0bf7 12       		.byte	0x12
 2377 0bf8 2601     		.2byte	0x126
 2378 0bfa EA000000 		.4byte	0xea
 2379 0bfe 20       		.byte	0x20
 2380 0bff 0E       		.uleb128 0xe
 2381 0c00 4D523300 		.ascii	"MR3\000"
 2382 0c04 12       		.byte	0x12
ARM GAS  /tmp/ccu5GyJp.s 			page 43


 2383 0c05 2701     		.2byte	0x127
 2384 0c07 EA000000 		.4byte	0xea
 2385 0c0b 24       		.byte	0x24
 2386 0c0c 0E       		.uleb128 0xe
 2387 0c0d 43435200 		.ascii	"CCR\000"
 2388 0c11 12       		.byte	0x12
 2389 0c12 2801     		.2byte	0x128
 2390 0c14 EA000000 		.4byte	0xea
 2391 0c18 28       		.byte	0x28
 2392 0c19 0E       		.uleb128 0xe
 2393 0c1a 43523000 		.ascii	"CR0\000"
 2394 0c1e 12       		.byte	0x12
 2395 0c1f 2901     		.2byte	0x129
 2396 0c21 EF000000 		.4byte	0xef
 2397 0c25 2C       		.byte	0x2c
 2398 0c26 0E       		.uleb128 0xe
 2399 0c27 43523100 		.ascii	"CR1\000"
 2400 0c2b 12       		.byte	0x12
 2401 0c2c 2A01     		.2byte	0x12a
 2402 0c2e EF000000 		.4byte	0xef
 2403 0c32 30       		.byte	0x30
 2404 0c33 1F       		.uleb128 0x1f
 2405 0c34 A2020000 		.4byte	.LASF171
 2406 0c38 12       		.byte	0x12
 2407 0c39 2B01     		.2byte	0x12b
 2408 0c3b 34090000 		.4byte	0x934
 2409 0c3f 34       		.byte	0x34
 2410 0c40 0E       		.uleb128 0xe
 2411 0c41 454D5200 		.ascii	"EMR\000"
 2412 0c45 12       		.byte	0x12
 2413 0c46 2C01     		.2byte	0x12c
 2414 0c48 EA000000 		.4byte	0xea
 2415 0c4c 3C       		.byte	0x3c
 2416 0c4d 1F       		.uleb128 0x1f
 2417 0c4e AC020000 		.4byte	.LASF176
 2418 0c52 12       		.byte	0x12
 2419 0c53 2D01     		.2byte	0x12d
 2420 0c55 5A0B0000 		.4byte	0xb5a
 2421 0c59 40       		.byte	0x40
 2422 0c5a 1F       		.uleb128 0x1f
 2423 0c5b CC000000 		.4byte	.LASF206
 2424 0c5f 12       		.byte	0x12
 2425 0c60 2E01     		.2byte	0x12e
 2426 0c62 EA000000 		.4byte	0xea
 2427 0c66 70       		.byte	0x70
 2428 0c67 00       		.byte	0
 2429 0c68 20       		.uleb128 0x20
 2430 0c69 15080000 		.4byte	.LASF207
 2431 0c6d 12       		.byte	0x12
 2432 0c6e 2F01     		.2byte	0x12f
 2433 0c70 850B0000 		.4byte	0xb85
 2434 0c74 21       		.uleb128 0x21
 2435 0c75 04       		.byte	0x4
 2436 0c76 12       		.byte	0x12
 2437 0c77 5201     		.2byte	0x152
 2438 0c79 A20C0000 		.4byte	0xca2
 2439 0c7d 22       		.uleb128 0x22
ARM GAS  /tmp/ccu5GyJp.s 			page 44


 2440 0c7e 52425200 		.ascii	"RBR\000"
 2441 0c82 12       		.byte	0x12
 2442 0c83 5301     		.2byte	0x153
 2443 0c85 EF000000 		.4byte	0xef
 2444 0c89 22       		.uleb128 0x22
 2445 0c8a 54485200 		.ascii	"THR\000"
 2446 0c8e 12       		.byte	0x12
 2447 0c8f 5401     		.2byte	0x154
 2448 0c91 EA000000 		.4byte	0xea
 2449 0c95 22       		.uleb128 0x22
 2450 0c96 444C4C00 		.ascii	"DLL\000"
 2451 0c9a 12       		.byte	0x12
 2452 0c9b 5501     		.2byte	0x155
 2453 0c9d EA000000 		.4byte	0xea
 2454 0ca1 00       		.byte	0
 2455 0ca2 21       		.uleb128 0x21
 2456 0ca3 04       		.byte	0x4
 2457 0ca4 12       		.byte	0x12
 2458 0ca5 5701     		.2byte	0x157
 2459 0ca7 C40C0000 		.4byte	0xcc4
 2460 0cab 22       		.uleb128 0x22
 2461 0cac 444C4D00 		.ascii	"DLM\000"
 2462 0cb0 12       		.byte	0x12
 2463 0cb1 5801     		.2byte	0x158
 2464 0cb3 EA000000 		.4byte	0xea
 2465 0cb7 22       		.uleb128 0x22
 2466 0cb8 49455200 		.ascii	"IER\000"
 2467 0cbc 12       		.byte	0x12
 2468 0cbd 5901     		.2byte	0x159
 2469 0cbf EA000000 		.4byte	0xea
 2470 0cc3 00       		.byte	0
 2471 0cc4 21       		.uleb128 0x21
 2472 0cc5 04       		.byte	0x4
 2473 0cc6 12       		.byte	0x12
 2474 0cc7 5B01     		.2byte	0x15b
 2475 0cc9 E60C0000 		.4byte	0xce6
 2476 0ccd 22       		.uleb128 0x22
 2477 0cce 49495200 		.ascii	"IIR\000"
 2478 0cd2 12       		.byte	0x12
 2479 0cd3 5C01     		.2byte	0x15c
 2480 0cd5 EF000000 		.4byte	0xef
 2481 0cd9 22       		.uleb128 0x22
 2482 0cda 46435200 		.ascii	"FCR\000"
 2483 0cde 12       		.byte	0x12
 2484 0cdf 5D01     		.2byte	0x15d
 2485 0ce1 EA000000 		.4byte	0xea
 2486 0ce5 00       		.byte	0
 2487 0ce6 1E       		.uleb128 0x1e
 2488 0ce7 34       		.byte	0x34
 2489 0ce8 12       		.byte	0x12
 2490 0ce9 5001     		.2byte	0x150
 2491 0ceb 840D0000 		.4byte	0xd84
 2492 0cef 23       		.uleb128 0x23
 2493 0cf0 740C0000 		.4byte	0xc74
 2494 0cf4 00       		.byte	0
 2495 0cf5 23       		.uleb128 0x23
 2496 0cf6 A20C0000 		.4byte	0xca2
ARM GAS  /tmp/ccu5GyJp.s 			page 45


 2497 0cfa 04       		.byte	0x4
 2498 0cfb 23       		.uleb128 0x23
 2499 0cfc C40C0000 		.4byte	0xcc4
 2500 0d00 08       		.byte	0x8
 2501 0d01 0E       		.uleb128 0xe
 2502 0d02 4C435200 		.ascii	"LCR\000"
 2503 0d06 12       		.byte	0x12
 2504 0d07 5F01     		.2byte	0x15f
 2505 0d09 EA000000 		.4byte	0xea
 2506 0d0d 0C       		.byte	0xc
 2507 0d0e 1F       		.uleb128 0x1f
 2508 0d0f A2020000 		.4byte	.LASF171
 2509 0d13 12       		.byte	0x12
 2510 0d14 6001     		.2byte	0x160
 2511 0d16 DF000000 		.4byte	0xdf
 2512 0d1a 10       		.byte	0x10
 2513 0d1b 0E       		.uleb128 0xe
 2514 0d1c 4C535200 		.ascii	"LSR\000"
 2515 0d20 12       		.byte	0x12
 2516 0d21 6101     		.2byte	0x161
 2517 0d23 EF000000 		.4byte	0xef
 2518 0d27 14       		.byte	0x14
 2519 0d28 1F       		.uleb128 0x1f
 2520 0d29 AC020000 		.4byte	.LASF176
 2521 0d2d 12       		.byte	0x12
 2522 0d2e 6201     		.2byte	0x162
 2523 0d30 DF000000 		.4byte	0xdf
 2524 0d34 18       		.byte	0x18
 2525 0d35 0E       		.uleb128 0xe
 2526 0d36 53435200 		.ascii	"SCR\000"
 2527 0d3a 12       		.byte	0x12
 2528 0d3b 6301     		.2byte	0x163
 2529 0d3d EA000000 		.4byte	0xea
 2530 0d41 1C       		.byte	0x1c
 2531 0d42 0E       		.uleb128 0xe
 2532 0d43 41435200 		.ascii	"ACR\000"
 2533 0d47 12       		.byte	0x12
 2534 0d48 6401     		.2byte	0x164
 2535 0d4a EA000000 		.4byte	0xea
 2536 0d4e 20       		.byte	0x20
 2537 0d4f 0E       		.uleb128 0xe
 2538 0d50 49435200 		.ascii	"ICR\000"
 2539 0d54 12       		.byte	0x12
 2540 0d55 6501     		.2byte	0x165
 2541 0d57 EA000000 		.4byte	0xea
 2542 0d5b 24       		.byte	0x24
 2543 0d5c 0E       		.uleb128 0xe
 2544 0d5d 46445200 		.ascii	"FDR\000"
 2545 0d61 12       		.byte	0x12
 2546 0d62 6601     		.2byte	0x166
 2547 0d64 EA000000 		.4byte	0xea
 2548 0d68 28       		.byte	0x28
 2549 0d69 1F       		.uleb128 0x1f
 2550 0d6a 40030000 		.4byte	.LASF181
 2551 0d6e 12       		.byte	0x12
 2552 0d6f 6701     		.2byte	0x167
 2553 0d71 DF000000 		.4byte	0xdf
ARM GAS  /tmp/ccu5GyJp.s 			page 46


 2554 0d75 2C       		.byte	0x2c
 2555 0d76 0E       		.uleb128 0xe
 2556 0d77 54455200 		.ascii	"TER\000"
 2557 0d7b 12       		.byte	0x12
 2558 0d7c 6801     		.2byte	0x168
 2559 0d7e EA000000 		.4byte	0xea
 2560 0d82 30       		.byte	0x30
 2561 0d83 00       		.byte	0
 2562 0d84 20       		.uleb128 0x20
 2563 0d85 9E030000 		.4byte	.LASF208
 2564 0d89 12       		.byte	0x12
 2565 0d8a 6901     		.2byte	0x169
 2566 0d8c E60C0000 		.4byte	0xce6
 2567 0d90 1E       		.uleb128 0x1e
 2568 0d91 14       		.byte	0x14
 2569 0d92 12       		.byte	0x12
 2570 0d93 B402     		.2byte	0x2b4
 2571 0d95 DB0D0000 		.4byte	0xddb
 2572 0d99 1F       		.uleb128 0x1f
 2573 0d9a CC050000 		.4byte	.LASF209
 2574 0d9e 12       		.byte	0x12
 2575 0d9f B602     		.2byte	0x2b6
 2576 0da1 EA000000 		.4byte	0xea
 2577 0da5 00       		.byte	0
 2578 0da6 1F       		.uleb128 0x1f
 2579 0da7 52010000 		.4byte	.LASF210
 2580 0dab 12       		.byte	0x12
 2581 0dac B702     		.2byte	0x2b7
 2582 0dae EA000000 		.4byte	0xea
 2583 0db2 04       		.byte	0x4
 2584 0db3 1F       		.uleb128 0x1f
 2585 0db4 72090000 		.4byte	.LASF211
 2586 0db8 12       		.byte	0x12
 2587 0db9 B802     		.2byte	0x2b8
 2588 0dbb EA000000 		.4byte	0xea
 2589 0dbf 08       		.byte	0x8
 2590 0dc0 1F       		.uleb128 0x1f
 2591 0dc1 97040000 		.4byte	.LASF212
 2592 0dc5 12       		.byte	0x12
 2593 0dc6 B902     		.2byte	0x2b9
 2594 0dc8 EA000000 		.4byte	0xea
 2595 0dcc 0C       		.byte	0xc
 2596 0dcd 1F       		.uleb128 0x1f
 2597 0dce 950A0000 		.4byte	.LASF213
 2598 0dd2 12       		.byte	0x12
 2599 0dd3 BA02     		.2byte	0x2ba
 2600 0dd5 EA000000 		.4byte	0xea
 2601 0dd9 10       		.byte	0x10
 2602 0dda 00       		.byte	0
 2603 0ddb 20       		.uleb128 0x20
 2604 0ddc A9000000 		.4byte	.LASF214
 2605 0de0 12       		.byte	0x12
 2606 0de1 BB02     		.2byte	0x2bb
 2607 0de3 900D0000 		.4byte	0xd90
 2608 0de7 15       		.uleb128 0x15
 2609 0de8 F20D0000 		.4byte	0xdf2
 2610 0dec F20D0000 		.4byte	0xdf2
ARM GAS  /tmp/ccu5GyJp.s 			page 47


 2611 0df0 24       		.uleb128 0x24
 2612 0df1 00       		.byte	0
 2613 0df2 0B       		.uleb128 0xb
 2614 0df3 04       		.byte	0x4
 2615 0df4 DB0D0000 		.4byte	0xddb
 2616 0df8 1A       		.uleb128 0x1a
 2617 0df9 4F050000 		.4byte	.LASF215
 2618 0dfd 13       		.byte	0x13
 2619 0dfe 9501     		.2byte	0x195
 2620 0e00 E70D0000 		.4byte	0xde7
 2621 0e04 14       		.uleb128 0x14
 2622 0e05 3D010000 		.4byte	0x13d
 2623 0e09 1D0E0000 		.4byte	0xe1d
 2624 0e0d 10       		.uleb128 0x10
 2625 0e0e D3020000 		.4byte	0x2d3
 2626 0e12 10       		.uleb128 0x10
 2627 0e13 B4000000 		.4byte	0xb4
 2628 0e17 10       		.uleb128 0x10
 2629 0e18 5E010000 		.4byte	0x15e
 2630 0e1c 00       		.byte	0
 2631 0e1d 0B       		.uleb128 0xb
 2632 0e1e 04       		.byte	0x4
 2633 0e1f 040E0000 		.4byte	0xe04
 2634 0e23 14       		.uleb128 0x14
 2635 0e24 3D010000 		.4byte	0x13d
 2636 0e28 370E0000 		.4byte	0xe37
 2637 0e2c 10       		.uleb128 0x10
 2638 0e2d D3020000 		.4byte	0x2d3
 2639 0e31 10       		.uleb128 0x10
 2640 0e32 5E010000 		.4byte	0x15e
 2641 0e36 00       		.byte	0
 2642 0e37 0B       		.uleb128 0xb
 2643 0e38 04       		.byte	0x4
 2644 0e39 230E0000 		.4byte	0xe23
 2645 0e3d 14       		.uleb128 0x14
 2646 0e3e 2C000000 		.4byte	0x2c
 2647 0e42 5B0E0000 		.4byte	0xe5b
 2648 0e46 10       		.uleb128 0x10
 2649 0e47 D3020000 		.4byte	0x2d3
 2650 0e4b 10       		.uleb128 0x10
 2651 0e4c A1070000 		.4byte	0x7a1
 2652 0e50 10       		.uleb128 0x10
 2653 0e51 2C000000 		.4byte	0x2c
 2654 0e55 10       		.uleb128 0x10
 2655 0e56 5E010000 		.4byte	0x15e
 2656 0e5a 00       		.byte	0
 2657 0e5b 0B       		.uleb128 0xb
 2658 0e5c 04       		.byte	0x4
 2659 0e5d 3D0E0000 		.4byte	0xe3d
 2660 0e61 14       		.uleb128 0x14
 2661 0e62 2C000000 		.4byte	0x2c
 2662 0e66 7F0E0000 		.4byte	0xe7f
 2663 0e6a 10       		.uleb128 0x10
 2664 0e6b D3020000 		.4byte	0x2d3
 2665 0e6f 10       		.uleb128 0x10
 2666 0e70 6C070000 		.4byte	0x76c
 2667 0e74 10       		.uleb128 0x10
ARM GAS  /tmp/ccu5GyJp.s 			page 48


 2668 0e75 2C000000 		.4byte	0x2c
 2669 0e79 10       		.uleb128 0x10
 2670 0e7a 5E010000 		.4byte	0x15e
 2671 0e7e 00       		.byte	0
 2672 0e7f 0B       		.uleb128 0xb
 2673 0e80 04       		.byte	0x4
 2674 0e81 610E0000 		.4byte	0xe61
 2675 0e85 0A       		.uleb128 0xa
 2676 0e86 08       		.byte	0x8
 2677 0e87 14       		.byte	0x14
 2678 0e88 2E       		.byte	0x2e
 2679 0e89 A60E0000 		.4byte	0xea6
 2680 0e8d 08       		.uleb128 0x8
 2681 0e8e B70B0000 		.4byte	.LASF216
 2682 0e92 14       		.byte	0x14
 2683 0e93 30       		.byte	0x30
 2684 0e94 DF000000 		.4byte	0xdf
 2685 0e98 00       		.byte	0
 2686 0e99 09       		.uleb128 0x9
 2687 0e9a 64697200 		.ascii	"dir\000"
 2688 0e9e 14       		.byte	0x14
 2689 0e9f 32       		.byte	0x32
 2690 0ea0 DF000000 		.4byte	0xdf
 2691 0ea4 04       		.byte	0x4
 2692 0ea5 00       		.byte	0
 2693 0ea6 03       		.uleb128 0x3
 2694 0ea7 490A0000 		.4byte	.LASF217
 2695 0eab 14       		.byte	0x14
 2696 0eac 33       		.byte	0x33
 2697 0ead 850E0000 		.4byte	0xe85
 2698 0eb1 0A       		.uleb128 0xa
 2699 0eb2 28       		.byte	0x28
 2700 0eb3 14       		.byte	0x14
 2701 0eb4 41       		.byte	0x41
 2702 0eb5 F10E0000 		.4byte	0xef1
 2703 0eb9 09       		.uleb128 0x9
 2704 0eba 503000   		.ascii	"P0\000"
 2705 0ebd 14       		.byte	0x14
 2706 0ebe 43       		.byte	0x43
 2707 0ebf A60E0000 		.4byte	0xea6
 2708 0ec3 00       		.byte	0
 2709 0ec4 09       		.uleb128 0x9
 2710 0ec5 503100   		.ascii	"P1\000"
 2711 0ec8 14       		.byte	0x14
 2712 0ec9 45       		.byte	0x45
 2713 0eca A60E0000 		.4byte	0xea6
 2714 0ece 08       		.byte	0x8
 2715 0ecf 09       		.uleb128 0x9
 2716 0ed0 503200   		.ascii	"P2\000"
 2717 0ed3 14       		.byte	0x14
 2718 0ed4 47       		.byte	0x47
 2719 0ed5 A60E0000 		.4byte	0xea6
 2720 0ed9 10       		.byte	0x10
 2721 0eda 09       		.uleb128 0x9
 2722 0edb 503300   		.ascii	"P3\000"
 2723 0ede 14       		.byte	0x14
 2724 0edf 49       		.byte	0x49
ARM GAS  /tmp/ccu5GyJp.s 			page 49


 2725 0ee0 A60E0000 		.4byte	0xea6
 2726 0ee4 18       		.byte	0x18
 2727 0ee5 09       		.uleb128 0x9
 2728 0ee6 503400   		.ascii	"P4\000"
 2729 0ee9 14       		.byte	0x14
 2730 0eea 4B       		.byte	0x4b
 2731 0eeb A60E0000 		.4byte	0xea6
 2732 0eef 20       		.byte	0x20
 2733 0ef0 00       		.byte	0
 2734 0ef1 03       		.uleb128 0x3
 2735 0ef2 7D0A0000 		.4byte	.LASF218
 2736 0ef6 14       		.byte	0x14
 2737 0ef7 4C       		.byte	0x4c
 2738 0ef8 B10E0000 		.4byte	0xeb1
 2739 0efc 05       		.uleb128 0x5
 2740 0efd F10E0000 		.4byte	0xef1
 2741 0f01 1A       		.uleb128 0x1a
 2742 0f02 54020000 		.4byte	.LASF219
 2743 0f06 14       		.byte	0x14
 2744 0f07 3301     		.2byte	0x133
 2745 0f09 FC0E0000 		.4byte	0xefc
 2746 0f0d 25       		.uleb128 0x25
 2747 0f0e 01       		.byte	0x1
 2748 0f0f 5E000000 		.4byte	0x5e
 2749 0f13 15       		.byte	0x15
 2750 0f14 35       		.byte	0x35
 2751 0f15 380F0000 		.4byte	0xf38
 2752 0f19 19       		.uleb128 0x19
 2753 0f1a 81030000 		.4byte	.LASF220
 2754 0f1e 00       		.byte	0
 2755 0f1f 19       		.uleb128 0x19
 2756 0f20 090B0000 		.4byte	.LASF221
 2757 0f24 01       		.byte	0x1
 2758 0f25 19       		.uleb128 0x19
 2759 0f26 17090000 		.4byte	.LASF222
 2760 0f2a 02       		.byte	0x2
 2761 0f2b 19       		.uleb128 0x19
 2762 0f2c 21090000 		.4byte	.LASF223
 2763 0f30 03       		.byte	0x3
 2764 0f31 19       		.uleb128 0x19
 2765 0f32 87060000 		.4byte	.LASF224
 2766 0f36 04       		.byte	0x4
 2767 0f37 00       		.byte	0
 2768 0f38 03       		.uleb128 0x3
 2769 0f39 DA000000 		.4byte	.LASF225
 2770 0f3d 15       		.byte	0x15
 2771 0f3e 3B       		.byte	0x3b
 2772 0f3f 0D0F0000 		.4byte	0xf0d
 2773 0f43 03       		.uleb128 0x3
 2774 0f44 22060000 		.4byte	.LASF226
 2775 0f48 15       		.byte	0x15
 2776 0f49 40       		.byte	0x40
 2777 0f4a 4E0F0000 		.4byte	0xf4e
 2778 0f4e 07       		.uleb128 0x7
 2779 0f4f 22060000 		.4byte	.LASF226
 2780 0f53 10       		.byte	0x10
 2781 0f54 16       		.byte	0x16
ARM GAS  /tmp/ccu5GyJp.s 			page 50


 2782 0f55 93       		.byte	0x93
 2783 0f56 8B0F0000 		.4byte	0xf8b
 2784 0f5a 08       		.uleb128 0x8
 2785 0f5b EC000000 		.4byte	.LASF227
 2786 0f5f 16       		.byte	0x16
 2787 0f60 97       		.byte	0x97
 2788 0f61 380F0000 		.4byte	0xf38
 2789 0f65 00       		.byte	0
 2790 0f66 08       		.uleb128 0x8
 2791 0f67 E5000000 		.4byte	.LASF228
 2792 0f6b 16       		.byte	0x16
 2793 0f6c 9B       		.byte	0x9b
 2794 0f6d F40F0000 		.4byte	0xff4
 2795 0f71 04       		.byte	0x4
 2796 0f72 08       		.uleb128 0x8
 2797 0f73 91050000 		.4byte	.LASF229
 2798 0f77 16       		.byte	0x16
 2799 0f78 A0       		.byte	0xa0
 2800 0f79 DF000000 		.4byte	0xdf
 2801 0f7d 08       		.byte	0x8
 2802 0f7e 09       		.uleb128 0x9
 2803 0f7f 746D7200 		.ascii	"tmr\000"
 2804 0f83 16       		.byte	0x16
 2805 0f84 A4       		.byte	0xa4
 2806 0f85 FA0F0000 		.4byte	0xffa
 2807 0f89 0C       		.byte	0xc
 2808 0f8a 00       		.byte	0
 2809 0f8b 03       		.uleb128 0x3
 2810 0f8c D10B0000 		.4byte	.LASF230
 2811 0f90 15       		.byte	0x15
 2812 0f91 47       		.byte	0x47
 2813 0f92 960F0000 		.4byte	0xf96
 2814 0f96 0B       		.uleb128 0xb
 2815 0f97 04       		.byte	0x4
 2816 0f98 9C0F0000 		.4byte	0xf9c
 2817 0f9c 0F       		.uleb128 0xf
 2818 0f9d A70F0000 		.4byte	0xfa7
 2819 0fa1 10       		.uleb128 0x10
 2820 0fa2 A70F0000 		.4byte	0xfa7
 2821 0fa6 00       		.byte	0
 2822 0fa7 0B       		.uleb128 0xb
 2823 0fa8 04       		.byte	0x4
 2824 0fa9 430F0000 		.4byte	0xf43
 2825 0fad 03       		.uleb128 0x3
 2826 0fae 1F050000 		.4byte	.LASF231
 2827 0fb2 16       		.byte	0x16
 2828 0fb3 76       		.byte	0x76
 2829 0fb4 DF000000 		.4byte	0xdf
 2830 0fb8 03       		.uleb128 0x3
 2831 0fb9 C2090000 		.4byte	.LASF232
 2832 0fbd 16       		.byte	0x16
 2833 0fbe 7B       		.byte	0x7b
 2834 0fbf DF000000 		.4byte	0xdf
 2835 0fc3 0A       		.uleb128 0xa
 2836 0fc4 08       		.byte	0x8
 2837 0fc5 16       		.byte	0x16
 2838 0fc6 81       		.byte	0x81
ARM GAS  /tmp/ccu5GyJp.s 			page 51


 2839 0fc7 E40F0000 		.4byte	0xfe4
 2840 0fcb 08       		.uleb128 0x8
 2841 0fcc 73060000 		.4byte	.LASF233
 2842 0fd0 16       		.byte	0x16
 2843 0fd1 87       		.byte	0x87
 2844 0fd2 AD0F0000 		.4byte	0xfad
 2845 0fd6 00       		.byte	0
 2846 0fd7 08       		.uleb128 0x8
 2847 0fd8 21010000 		.4byte	.LASF234
 2848 0fdc 16       		.byte	0x16
 2849 0fdd 8C       		.byte	0x8c
 2850 0fde 8B0F0000 		.4byte	0xf8b
 2851 0fe2 04       		.byte	0x4
 2852 0fe3 00       		.byte	0
 2853 0fe4 03       		.uleb128 0x3
 2854 0fe5 97050000 		.4byte	.LASF235
 2855 0fe9 16       		.byte	0x16
 2856 0fea 8E       		.byte	0x8e
 2857 0feb C30F0000 		.4byte	0xfc3
 2858 0fef 05       		.uleb128 0x5
 2859 0ff0 E40F0000 		.4byte	0xfe4
 2860 0ff4 0B       		.uleb128 0xb
 2861 0ff5 04       		.byte	0x4
 2862 0ff6 EF0F0000 		.4byte	0xfef
 2863 0ffa 0B       		.uleb128 0xb
 2864 0ffb 04       		.byte	0x4
 2865 0ffc 680C0000 		.4byte	0xc68
 2866 1000 11       		.uleb128 0x11
 2867 1001 F3010000 		.4byte	.LASF236
 2868 1005 16       		.byte	0x16
 2869 1006 B0       		.byte	0xb0
 2870 1007 430F0000 		.4byte	0xf43
 2871 100b 11       		.uleb128 0x11
 2872 100c F9010000 		.4byte	.LASF237
 2873 1010 16       		.byte	0x16
 2874 1011 B4       		.byte	0xb4
 2875 1012 430F0000 		.4byte	0xf43
 2876 1016 11       		.uleb128 0x11
 2877 1017 FF010000 		.4byte	.LASF238
 2878 101b 16       		.byte	0x16
 2879 101c B8       		.byte	0xb8
 2880 101d 430F0000 		.4byte	0xf43
 2881 1021 11       		.uleb128 0x11
 2882 1022 05020000 		.4byte	.LASF239
 2883 1026 16       		.byte	0x16
 2884 1027 BC       		.byte	0xbc
 2885 1028 430F0000 		.4byte	0xf43
 2886 102c 25       		.uleb128 0x25
 2887 102d 01       		.byte	0x1
 2888 102e 5E000000 		.4byte	0x5e
 2889 1032 17       		.byte	0x17
 2890 1033 5D       		.byte	0x5d
 2891 1034 4B100000 		.4byte	0x104b
 2892 1038 19       		.uleb128 0x19
 2893 1039 27030000 		.4byte	.LASF240
 2894 103d 00       		.byte	0
 2895 103e 19       		.uleb128 0x19
ARM GAS  /tmp/ccu5GyJp.s 			page 52


 2896 103f 8E0B0000 		.4byte	.LASF241
 2897 1043 01       		.byte	0x1
 2898 1044 19       		.uleb128 0x19
 2899 1045 F5090000 		.4byte	.LASF242
 2900 1049 02       		.byte	0x2
 2901 104a 00       		.byte	0
 2902 104b 03       		.uleb128 0x3
 2903 104c BC060000 		.4byte	.LASF243
 2904 1050 17       		.byte	0x17
 2905 1051 61       		.byte	0x61
 2906 1052 2C100000 		.4byte	0x102c
 2907 1056 03       		.uleb128 0x3
 2908 1057 8A090000 		.4byte	.LASF244
 2909 105b 17       		.byte	0x17
 2910 105c 66       		.byte	0x66
 2911 105d 61100000 		.4byte	0x1061
 2912 1061 07       		.uleb128 0x7
 2913 1062 8A090000 		.4byte	.LASF244
 2914 1066 78       		.byte	0x78
 2915 1067 17       		.byte	0x17
 2916 1068 80       		.byte	0x80
 2917 1069 CC100000 		.4byte	0x10cc
 2918 106d 09       		.uleb128 0x9
 2919 106e 766D7400 		.ascii	"vmt\000"
 2920 1072 17       		.byte	0x17
 2921 1073 82       		.byte	0x82
 2922 1074 54110000 		.4byte	0x1154
 2923 1078 00       		.byte	0
 2924 1079 08       		.uleb128 0x8
 2925 107a 9D060000 		.4byte	.LASF245
 2926 107e 17       		.byte	0x17
 2927 107f 83       		.byte	0x83
 2928 1080 59050000 		.4byte	0x559
 2929 1084 04       		.byte	0x4
 2930 1085 08       		.uleb128 0x8
 2931 1086 EC000000 		.4byte	.LASF227
 2932 108a 17       		.byte	0x17
 2933 108b 83       		.byte	0x83
 2934 108c 4B100000 		.4byte	0x104b
 2935 1090 08       		.byte	0x8
 2936 1091 08       		.uleb128 0x8
 2937 1092 3B0A0000 		.4byte	.LASF246
 2938 1096 17       		.byte	0x17
 2939 1097 83       		.byte	0x83
 2940 1098 72070000 		.4byte	0x772
 2941 109c 0C       		.byte	0xc
 2942 109d 08       		.uleb128 0x8
 2943 109e 2C020000 		.4byte	.LASF247
 2944 10a2 17       		.byte	0x17
 2945 10a3 83       		.byte	0x83
 2946 10a4 7D070000 		.4byte	0x77d
 2947 10a8 30       		.byte	0x30
 2948 10a9 09       		.uleb128 0x9
 2949 10aa 696200   		.ascii	"ib\000"
 2950 10ad 17       		.byte	0x17
 2951 10ae 83       		.byte	0x83
 2952 10af 5A110000 		.4byte	0x115a
ARM GAS  /tmp/ccu5GyJp.s 			page 53


 2953 10b3 54       		.byte	0x54
 2954 10b4 09       		.uleb128 0x9
 2955 10b5 6F6200   		.ascii	"ob\000"
 2956 10b8 17       		.byte	0x17
 2957 10b9 83       		.byte	0x83
 2958 10ba 5A110000 		.4byte	0x115a
 2959 10be 64       		.byte	0x64
 2960 10bf 08       		.uleb128 0x8
 2961 10c0 360A0000 		.4byte	.LASF248
 2962 10c4 17       		.byte	0x17
 2963 10c5 83       		.byte	0x83
 2964 10c6 6A110000 		.4byte	0x116a
 2965 10ca 74       		.byte	0x74
 2966 10cb 00       		.byte	0
 2967 10cc 26       		.uleb128 0x26
 2968 10cd 53443100 		.ascii	"SD1\000"
 2969 10d1 18       		.byte	0x18
 2970 10d2 EF       		.byte	0xef
 2971 10d3 56100000 		.4byte	0x1056
 2972 10d7 26       		.uleb128 0x26
 2973 10d8 53443300 		.ascii	"SD3\000"
 2974 10dc 18       		.byte	0x18
 2975 10dd F7       		.byte	0xf7
 2976 10de 56100000 		.4byte	0x1056
 2977 10e2 07       		.uleb128 0x7
 2978 10e3 6D050000 		.4byte	.LASF249
 2979 10e7 20       		.byte	0x20
 2980 10e8 17       		.byte	0x17
 2981 10e9 75       		.byte	0x75
 2982 10ea 4F110000 		.4byte	0x114f
 2983 10ee 08       		.uleb128 0x8
 2984 10ef BD000000 		.4byte	.LASF250
 2985 10f3 17       		.byte	0x17
 2986 10f4 76       		.byte	0x76
 2987 10f5 A7070000 		.4byte	0x7a7
 2988 10f9 00       		.byte	0
 2989 10fa 08       		.uleb128 0x8
 2990 10fb B7060000 		.4byte	.LASF251
 2991 10ff 17       		.byte	0x17
 2992 1100 76       		.byte	0x76
 2993 1101 C6070000 		.4byte	0x7c6
 2994 1105 04       		.byte	0x4
 2995 1106 09       		.uleb128 0x9
 2996 1107 70757400 		.ascii	"put\000"
 2997 110b 17       		.byte	0x17
 2998 110c 76       		.byte	0x76
 2999 110d E0070000 		.4byte	0x7e0
 3000 1111 08       		.byte	0x8
 3001 1112 09       		.uleb128 0x9
 3002 1113 67657400 		.ascii	"get\000"
 3003 1117 17       		.byte	0x17
 3004 1118 76       		.byte	0x76
 3005 1119 B1050000 		.4byte	0x5b1
 3006 111d 0C       		.byte	0xc
 3007 111e 08       		.uleb128 0x8
 3008 111f F2000000 		.4byte	.LASF252
 3009 1123 17       		.byte	0x17
ARM GAS  /tmp/ccu5GyJp.s 			page 54


 3010 1124 76       		.byte	0x76
 3011 1125 1D0E0000 		.4byte	0xe1d
 3012 1129 10       		.byte	0x10
 3013 112a 08       		.uleb128 0x8
 3014 112b E4030000 		.4byte	.LASF253
 3015 112f 17       		.byte	0x17
 3016 1130 76       		.byte	0x76
 3017 1131 370E0000 		.4byte	0xe37
 3018 1135 14       		.byte	0x14
 3019 1136 08       		.uleb128 0x8
 3020 1137 7C000000 		.4byte	.LASF254
 3021 113b 17       		.byte	0x17
 3022 113c 76       		.byte	0x76
 3023 113d 5B0E0000 		.4byte	0xe5b
 3024 1141 18       		.byte	0x18
 3025 1142 08       		.uleb128 0x8
 3026 1143 7A010000 		.4byte	.LASF255
 3027 1147 17       		.byte	0x17
 3028 1148 76       		.byte	0x76
 3029 1149 7F0E0000 		.4byte	0xe7f
 3030 114d 1C       		.byte	0x1c
 3031 114e 00       		.byte	0
 3032 114f 05       		.uleb128 0x5
 3033 1150 E2100000 		.4byte	0x10e2
 3034 1154 0B       		.uleb128 0xb
 3035 1155 04       		.byte	0x4
 3036 1156 4F110000 		.4byte	0x114f
 3037 115a 15       		.uleb128 0x15
 3038 115b B4000000 		.4byte	0xb4
 3039 115f 6A110000 		.4byte	0x116a
 3040 1163 16       		.uleb128 0x16
 3041 1164 7D030000 		.4byte	0x37d
 3042 1168 0F       		.byte	0xf
 3043 1169 00       		.byte	0
 3044 116a 0B       		.uleb128 0xb
 3045 116b 04       		.byte	0x4
 3046 116c 840D0000 		.4byte	0xd84
 3047 1170 27       		.uleb128 0x27
 3048 1171 00100000 		.4byte	0x1000
 3049 1175 01       		.byte	0x1
 3050 1176 27       		.byte	0x27
 3051 1177 05       		.uleb128 0x5
 3052 1178 03       		.byte	0x3
 3053 1179 00000000 		.4byte	GPTD1
 3054 117d 27       		.uleb128 0x27
 3055 117e 0B100000 		.4byte	0x100b
 3056 1182 01       		.byte	0x1
 3057 1183 2F       		.byte	0x2f
 3058 1184 05       		.uleb128 0x5
 3059 1185 03       		.byte	0x3
 3060 1186 00000000 		.4byte	GPTD2
 3061 118a 27       		.uleb128 0x27
 3062 118b 16100000 		.4byte	0x1016
 3063 118f 01       		.byte	0x1
 3064 1190 37       		.byte	0x37
 3065 1191 05       		.uleb128 0x5
 3066 1192 03       		.byte	0x3
ARM GAS  /tmp/ccu5GyJp.s 			page 55


 3067 1193 00000000 		.4byte	GPTD3
 3068 1197 27       		.uleb128 0x27
 3069 1198 21100000 		.4byte	0x1021
 3070 119c 01       		.byte	0x1
 3071 119d 3F       		.byte	0x3f
 3072 119e 05       		.uleb128 0x5
 3073 119f 03       		.byte	0x3
 3074 11a0 00000000 		.4byte	GPTD4
 3075 11a4 28       		.uleb128 0x28
 3076 11a5 44080000 		.4byte	.LASF258
 3077 11a9 01       		.byte	0x1
 3078 11aa 4501     		.2byte	0x145
 3079 11ac 00000000 		.4byte	.LFB73
 3080 11b0 20000000 		.4byte	.LFE73-.LFB73
 3081 11b4 01       		.uleb128 0x1
 3082 11b5 9C       		.byte	0x9c
 3083 11b6 D9110000 		.4byte	0x11d9
 3084 11ba 29       		.uleb128 0x29
 3085 11bb 4A060000 		.4byte	.LASF256
 3086 11bf 01       		.byte	0x1
 3087 11c0 4501     		.2byte	0x145
 3088 11c2 A70F0000 		.4byte	0xfa7
 3089 11c6 01       		.uleb128 0x1
 3090 11c7 50       		.byte	0x50
 3091 11c8 2A       		.uleb128 0x2a
 3092 11c9 71010000 		.4byte	.LASF257
 3093 11cd 01       		.byte	0x1
 3094 11ce 4501     		.2byte	0x145
 3095 11d0 B80F0000 		.4byte	0xfb8
 3096 11d4 00000000 		.4byte	.LLST12
 3097 11d8 00       		.byte	0
 3098 11d9 2B       		.uleb128 0x2b
 3099 11da E4080000 		.4byte	.LASF275
 3100 11de 01       		.byte	0x1
 3101 11df 3301     		.2byte	0x133
 3102 11e1 01       		.byte	0x1
 3103 11e2 F3110000 		.4byte	0x11f3
 3104 11e6 2C       		.uleb128 0x2c
 3105 11e7 4A060000 		.4byte	.LASF256
 3106 11eb 01       		.byte	0x1
 3107 11ec 3301     		.2byte	0x133
 3108 11ee A70F0000 		.4byte	0xfa7
 3109 11f2 00       		.byte	0
 3110 11f3 28       		.uleb128 0x28
 3111 11f4 7D050000 		.4byte	.LASF259
 3112 11f8 01       		.byte	0x1
 3113 11f9 2301     		.2byte	0x123
 3114 11fb 00000000 		.4byte	.LFB71
 3115 11ff 1A000000 		.4byte	.LFE71-.LFB71
 3116 1203 01       		.uleb128 0x1
 3117 1204 9C       		.byte	0x9c
 3118 1205 28120000 		.4byte	0x1228
 3119 1209 29       		.uleb128 0x29
 3120 120a 4A060000 		.4byte	.LASF256
 3121 120e 01       		.byte	0x1
 3122 120f 2301     		.2byte	0x123
 3123 1211 A70F0000 		.4byte	0xfa7
ARM GAS  /tmp/ccu5GyJp.s 			page 56


 3124 1215 01       		.uleb128 0x1
 3125 1216 50       		.byte	0x50
 3126 1217 2A       		.uleb128 0x2a
 3127 1218 71010000 		.4byte	.LASF257
 3128 121c 01       		.byte	0x1
 3129 121d 2301     		.2byte	0x123
 3130 121f B80F0000 		.4byte	0xfb8
 3131 1223 20000000 		.4byte	.LLST11
 3132 1227 00       		.byte	0
 3133 1228 2D       		.uleb128 0x2d
 3134 1229 CB090000 		.4byte	.LASF260
 3135 122d 01       		.byte	0x1
 3136 122e FA       		.byte	0xfa
 3137 122f 00000000 		.4byte	.LFB70
 3138 1233 98000000 		.4byte	.LFE70-.LFB70
 3139 1237 01       		.uleb128 0x1
 3140 1238 9C       		.byte	0x9c
 3141 1239 8B120000 		.4byte	0x128b
 3142 123d 2E       		.uleb128 0x2e
 3143 123e 4A060000 		.4byte	.LASF256
 3144 1242 01       		.byte	0x1
 3145 1243 FA       		.byte	0xfa
 3146 1244 A70F0000 		.4byte	0xfa7
 3147 1248 40000000 		.4byte	.LLST10
 3148 124c 2F       		.uleb128 0x2f
 3149 124d 32000000 		.4byte	.LVL36
 3150 1251 5A150000 		.4byte	0x155a
 3151 1255 5F120000 		.4byte	0x125f
 3152 1259 30       		.uleb128 0x30
 3153 125a 01       		.uleb128 0x1
 3154 125b 50       		.byte	0x50
 3155 125c 01       		.uleb128 0x1
 3156 125d 34       		.byte	0x34
 3157 125e 00       		.byte	0
 3158 125f 2F       		.uleb128 0x2f
 3159 1260 48000000 		.4byte	.LVL39
 3160 1264 5A150000 		.4byte	0x155a
 3161 1268 72120000 		.4byte	0x1272
 3162 126c 30       		.uleb128 0x30
 3163 126d 01       		.uleb128 0x1
 3164 126e 50       		.byte	0x50
 3165 126f 01       		.uleb128 0x1
 3166 1270 31       		.byte	0x31
 3167 1271 00       		.byte	0
 3168 1272 31       		.uleb128 0x31
 3169 1273 5E000000 		.4byte	.LVL42
 3170 1277 5A150000 		.4byte	0x155a
 3171 127b 32       		.uleb128 0x32
 3172 127c 74000000 		.4byte	.LVL45
 3173 1280 5A150000 		.4byte	0x155a
 3174 1284 30       		.uleb128 0x30
 3175 1285 01       		.uleb128 0x1
 3176 1286 50       		.byte	0x50
 3177 1287 01       		.uleb128 0x1
 3178 1288 33       		.byte	0x33
 3179 1289 00       		.byte	0
 3180 128a 00       		.byte	0
ARM GAS  /tmp/ccu5GyJp.s 			page 57


 3181 128b 2D       		.uleb128 0x2d
 3182 128c C30B0000 		.4byte	.LASF261
 3183 1290 01       		.byte	0x1
 3184 1291 C8       		.byte	0xc8
 3185 1292 00000000 		.4byte	.LFB69
 3186 1296 B8000000 		.4byte	.LFE69-.LFB69
 3187 129a 01       		.uleb128 0x1
 3188 129b 9C       		.byte	0x9c
 3189 129c 19130000 		.4byte	0x1319
 3190 12a0 2E       		.uleb128 0x2e
 3191 12a1 4A060000 		.4byte	.LASF256
 3192 12a5 01       		.byte	0x1
 3193 12a6 C8       		.byte	0xc8
 3194 12a7 A70F0000 		.4byte	0xfa7
 3195 12ab C5000000 		.4byte	.LLST8
 3196 12af 33       		.uleb128 0x33
 3197 12b0 707200   		.ascii	"pr\000"
 3198 12b3 01       		.byte	0x1
 3199 12b4 C9       		.byte	0xc9
 3200 12b5 DF000000 		.4byte	0xdf
 3201 12b9 E3000000 		.4byte	.LLST9
 3202 12bd 2F       		.uleb128 0x2f
 3203 12be 56000000 		.4byte	.LVL28
 3204 12c2 66150000 		.4byte	0x1566
 3205 12c6 D6120000 		.4byte	0x12d6
 3206 12ca 30       		.uleb128 0x30
 3207 12cb 01       		.uleb128 0x1
 3208 12cc 50       		.byte	0x50
 3209 12cd 01       		.uleb128 0x1
 3210 12ce 34       		.byte	0x34
 3211 12cf 30       		.uleb128 0x30
 3212 12d0 01       		.uleb128 0x1
 3213 12d1 51       		.byte	0x51
 3214 12d2 02       		.uleb128 0x2
 3215 12d3 08       		.byte	0x8
 3216 12d4 40       		.byte	0x40
 3217 12d5 00       		.byte	0
 3218 12d6 2F       		.uleb128 0x2f
 3219 12d7 6C000000 		.4byte	.LVL29
 3220 12db 66150000 		.4byte	0x1566
 3221 12df EA120000 		.4byte	0x12ea
 3222 12e3 30       		.uleb128 0x30
 3223 12e4 01       		.uleb128 0x1
 3224 12e5 51       		.byte	0x51
 3225 12e6 02       		.uleb128 0x2
 3226 12e7 08       		.byte	0x8
 3227 12e8 40       		.byte	0x40
 3228 12e9 00       		.byte	0
 3229 12ea 2F       		.uleb128 0x2f
 3230 12eb 84000000 		.4byte	.LVL30
 3231 12ef 66150000 		.4byte	0x1566
 3232 12f3 03130000 		.4byte	0x1303
 3233 12f7 30       		.uleb128 0x30
 3234 12f8 01       		.uleb128 0x1
 3235 12f9 50       		.byte	0x50
 3236 12fa 01       		.uleb128 0x1
 3237 12fb 32       		.byte	0x32
ARM GAS  /tmp/ccu5GyJp.s 			page 58


 3238 12fc 30       		.uleb128 0x30
 3239 12fd 01       		.uleb128 0x1
 3240 12fe 51       		.byte	0x51
 3241 12ff 02       		.uleb128 0x2
 3242 1300 08       		.byte	0x8
 3243 1301 60       		.byte	0x60
 3244 1302 00       		.byte	0
 3245 1303 32       		.uleb128 0x32
 3246 1304 9C000000 		.4byte	.LVL31
 3247 1308 66150000 		.4byte	0x1566
 3248 130c 30       		.uleb128 0x30
 3249 130d 01       		.uleb128 0x1
 3250 130e 50       		.byte	0x50
 3251 130f 01       		.uleb128 0x1
 3252 1310 33       		.byte	0x33
 3253 1311 30       		.uleb128 0x30
 3254 1312 01       		.uleb128 0x1
 3255 1313 51       		.byte	0x51
 3256 1314 02       		.uleb128 0x2
 3257 1315 08       		.byte	0x8
 3258 1316 40       		.byte	0x40
 3259 1317 00       		.byte	0
 3260 1318 00       		.byte	0
 3261 1319 2D       		.uleb128 0x2d
 3262 131a 0C040000 		.4byte	.LASF262
 3263 131e 01       		.byte	0x1
 3264 131f A6       		.byte	0xa6
 3265 1320 00000000 		.4byte	.LFB68
 3266 1324 54000000 		.4byte	.LFE68-.LFB68
 3267 1328 01       		.uleb128 0x1
 3268 1329 9C       		.byte	0x9c
 3269 132a 87130000 		.4byte	0x1387
 3270 132e 2F       		.uleb128 0x2f
 3271 132f 10000000 		.4byte	.LVL20
 3272 1333 72150000 		.4byte	0x1572
 3273 1337 45130000 		.4byte	0x1345
 3274 133b 30       		.uleb128 0x30
 3275 133c 01       		.uleb128 0x1
 3276 133d 50       		.byte	0x50
 3277 133e 05       		.uleb128 0x5
 3278 133f 03       		.byte	0x3
 3279 1340 00000000 		.4byte	.LANCHOR0
 3280 1344 00       		.byte	0
 3281 1345 2F       		.uleb128 0x2f
 3282 1346 1C000000 		.4byte	.LVL21
 3283 134a 72150000 		.4byte	0x1572
 3284 134e 5C130000 		.4byte	0x135c
 3285 1352 30       		.uleb128 0x30
 3286 1353 01       		.uleb128 0x1
 3287 1354 50       		.byte	0x50
 3288 1355 05       		.uleb128 0x5
 3289 1356 03       		.byte	0x3
 3290 1357 00000000 		.4byte	.LANCHOR1
 3291 135b 00       		.byte	0
 3292 135c 2F       		.uleb128 0x2f
 3293 135d 28000000 		.4byte	.LVL22
 3294 1361 72150000 		.4byte	0x1572
ARM GAS  /tmp/ccu5GyJp.s 			page 59


 3295 1365 73130000 		.4byte	0x1373
 3296 1369 30       		.uleb128 0x30
 3297 136a 01       		.uleb128 0x1
 3298 136b 50       		.byte	0x50
 3299 136c 05       		.uleb128 0x5
 3300 136d 03       		.byte	0x3
 3301 136e 00000000 		.4byte	.LANCHOR2
 3302 1372 00       		.byte	0
 3303 1373 34       		.uleb128 0x34
 3304 1374 38000000 		.4byte	.LVL23
 3305 1378 72150000 		.4byte	0x1572
 3306 137c 30       		.uleb128 0x30
 3307 137d 01       		.uleb128 0x1
 3308 137e 50       		.byte	0x50
 3309 137f 05       		.uleb128 0x5
 3310 1380 03       		.byte	0x3
 3311 1381 00000000 		.4byte	.LANCHOR3
 3312 1385 00       		.byte	0
 3313 1386 00       		.byte	0
 3314 1387 2D       		.uleb128 0x2d
 3315 1388 CB040000 		.4byte	.LASF263
 3316 138c 01       		.byte	0x1
 3317 138d 93       		.byte	0x93
 3318 138e 00000000 		.4byte	.LFB67
 3319 1392 30000000 		.4byte	.LFE67-.LFB67
 3320 1396 01       		.uleb128 0x1
 3321 1397 9C       		.byte	0x9c
 3322 1398 EF130000 		.4byte	0x13ef
 3323 139c 35       		.uleb128 0x35
 3324 139d 27150000 		.4byte	0x1527
 3325 13a1 00000000 		.4byte	.LBB44
 3326 13a5 90000000 		.4byte	.Ldebug_ranges0+0x90
 3327 13a9 01       		.byte	0x1
 3328 13aa 97       		.byte	0x97
 3329 13ab E5130000 		.4byte	0x13e5
 3330 13af 36       		.uleb128 0x36
 3331 13b0 33150000 		.4byte	0x1533
 3332 13b4 F6000000 		.4byte	.LLST6
 3333 13b8 35       		.uleb128 0x35
 3334 13b9 D9110000 		.4byte	0x11d9
 3335 13bd 10000000 		.4byte	.LBB46
 3336 13c1 A8000000 		.4byte	.Ldebug_ranges0+0xa8
 3337 13c5 01       		.byte	0x1
 3338 13c6 54       		.byte	0x54
 3339 13c7 D5130000 		.4byte	0x13d5
 3340 13cb 36       		.uleb128 0x36
 3341 13cc E6110000 		.4byte	0x11e6
 3342 13d0 0E010000 		.4byte	.LLST7
 3343 13d4 00       		.byte	0
 3344 13d5 37       		.uleb128 0x37
 3345 13d6 24000000 		.4byte	.LVL18
 3346 13da 30       		.uleb128 0x30
 3347 13db 01       		.uleb128 0x1
 3348 13dc 50       		.byte	0x50
 3349 13dd 05       		.uleb128 0x5
 3350 13de 03       		.byte	0x3
 3351 13df 00000000 		.4byte	.LANCHOR3
ARM GAS  /tmp/ccu5GyJp.s 			page 60


 3352 13e3 00       		.byte	0
 3353 13e4 00       		.byte	0
 3354 13e5 38       		.uleb128 0x38
 3355 13e6 2C000000 		.4byte	.LVL19
 3356 13ea 7D150000 		.4byte	0x157d
 3357 13ee 00       		.byte	0
 3358 13ef 2D       		.uleb128 0x2d
 3359 13f0 62040000 		.4byte	.LASF264
 3360 13f4 01       		.byte	0x1
 3361 13f5 83       		.byte	0x83
 3362 13f6 00000000 		.4byte	.LFB66
 3363 13fa 30000000 		.4byte	.LFE66-.LFB66
 3364 13fe 01       		.uleb128 0x1
 3365 13ff 9C       		.byte	0x9c
 3366 1400 57140000 		.4byte	0x1457
 3367 1404 35       		.uleb128 0x35
 3368 1405 27150000 		.4byte	0x1527
 3369 1409 00000000 		.4byte	.LBB36
 3370 140d 60000000 		.4byte	.Ldebug_ranges0+0x60
 3371 1411 01       		.byte	0x1
 3372 1412 87       		.byte	0x87
 3373 1413 4D140000 		.4byte	0x144d
 3374 1417 36       		.uleb128 0x36
 3375 1418 33150000 		.4byte	0x1533
 3376 141c 26010000 		.4byte	.LLST4
 3377 1420 35       		.uleb128 0x35
 3378 1421 D9110000 		.4byte	0x11d9
 3379 1425 10000000 		.4byte	.LBB38
 3380 1429 78000000 		.4byte	.Ldebug_ranges0+0x78
 3381 142d 01       		.byte	0x1
 3382 142e 54       		.byte	0x54
 3383 142f 3D140000 		.4byte	0x143d
 3384 1433 36       		.uleb128 0x36
 3385 1434 E6110000 		.4byte	0x11e6
 3386 1438 3E010000 		.4byte	.LLST5
 3387 143c 00       		.byte	0
 3388 143d 37       		.uleb128 0x37
 3389 143e 24000000 		.4byte	.LVL13
 3390 1442 30       		.uleb128 0x30
 3391 1443 01       		.uleb128 0x1
 3392 1444 50       		.byte	0x50
 3393 1445 05       		.uleb128 0x5
 3394 1446 03       		.byte	0x3
 3395 1447 00000000 		.4byte	.LANCHOR2
 3396 144b 00       		.byte	0
 3397 144c 00       		.byte	0
 3398 144d 38       		.uleb128 0x38
 3399 144e 2C000000 		.4byte	.LVL14
 3400 1452 7D150000 		.4byte	0x157d
 3401 1456 00       		.byte	0
 3402 1457 2D       		.uleb128 0x2d
 3403 1458 59040000 		.4byte	.LASF265
 3404 145c 01       		.byte	0x1
 3405 145d 73       		.byte	0x73
 3406 145e 00000000 		.4byte	.LFB65
 3407 1462 30000000 		.4byte	.LFE65-.LFB65
 3408 1466 01       		.uleb128 0x1
ARM GAS  /tmp/ccu5GyJp.s 			page 61


 3409 1467 9C       		.byte	0x9c
 3410 1468 BF140000 		.4byte	0x14bf
 3411 146c 35       		.uleb128 0x35
 3412 146d 27150000 		.4byte	0x1527
 3413 1471 00000000 		.4byte	.LBB28
 3414 1475 30000000 		.4byte	.Ldebug_ranges0+0x30
 3415 1479 01       		.byte	0x1
 3416 147a 77       		.byte	0x77
 3417 147b B5140000 		.4byte	0x14b5
 3418 147f 36       		.uleb128 0x36
 3419 1480 33150000 		.4byte	0x1533
 3420 1484 56010000 		.4byte	.LLST2
 3421 1488 35       		.uleb128 0x35
 3422 1489 D9110000 		.4byte	0x11d9
 3423 148d 10000000 		.4byte	.LBB30
 3424 1491 48000000 		.4byte	.Ldebug_ranges0+0x48
 3425 1495 01       		.byte	0x1
 3426 1496 54       		.byte	0x54
 3427 1497 A5140000 		.4byte	0x14a5
 3428 149b 36       		.uleb128 0x36
 3429 149c E6110000 		.4byte	0x11e6
 3430 14a0 6E010000 		.4byte	.LLST3
 3431 14a4 00       		.byte	0
 3432 14a5 37       		.uleb128 0x37
 3433 14a6 24000000 		.4byte	.LVL8
 3434 14aa 30       		.uleb128 0x30
 3435 14ab 01       		.uleb128 0x1
 3436 14ac 50       		.byte	0x50
 3437 14ad 05       		.uleb128 0x5
 3438 14ae 03       		.byte	0x3
 3439 14af 00000000 		.4byte	.LANCHOR1
 3440 14b3 00       		.byte	0
 3441 14b4 00       		.byte	0
 3442 14b5 38       		.uleb128 0x38
 3443 14b6 2C000000 		.4byte	.LVL9
 3444 14ba 7D150000 		.4byte	0x157d
 3445 14be 00       		.byte	0
 3446 14bf 2D       		.uleb128 0x2d
 3447 14c0 50040000 		.4byte	.LASF266
 3448 14c4 01       		.byte	0x1
 3449 14c5 63       		.byte	0x63
 3450 14c6 00000000 		.4byte	.LFB64
 3451 14ca 30000000 		.4byte	.LFE64-.LFB64
 3452 14ce 01       		.uleb128 0x1
 3453 14cf 9C       		.byte	0x9c
 3454 14d0 27150000 		.4byte	0x1527
 3455 14d4 35       		.uleb128 0x35
 3456 14d5 27150000 		.4byte	0x1527
 3457 14d9 00000000 		.4byte	.LBB20
 3458 14dd 00000000 		.4byte	.Ldebug_ranges0+0
 3459 14e1 01       		.byte	0x1
 3460 14e2 67       		.byte	0x67
 3461 14e3 1D150000 		.4byte	0x151d
 3462 14e7 36       		.uleb128 0x36
 3463 14e8 33150000 		.4byte	0x1533
 3464 14ec 86010000 		.4byte	.LLST0
 3465 14f0 35       		.uleb128 0x35
ARM GAS  /tmp/ccu5GyJp.s 			page 62


 3466 14f1 D9110000 		.4byte	0x11d9
 3467 14f5 10000000 		.4byte	.LBB22
 3468 14f9 18000000 		.4byte	.Ldebug_ranges0+0x18
 3469 14fd 01       		.byte	0x1
 3470 14fe 54       		.byte	0x54
 3471 14ff 0D150000 		.4byte	0x150d
 3472 1503 36       		.uleb128 0x36
 3473 1504 E6110000 		.4byte	0x11e6
 3474 1508 9E010000 		.4byte	.LLST1
 3475 150c 00       		.byte	0
 3476 150d 37       		.uleb128 0x37
 3477 150e 24000000 		.4byte	.LVL3
 3478 1512 30       		.uleb128 0x30
 3479 1513 01       		.uleb128 0x1
 3480 1514 50       		.byte	0x50
 3481 1515 05       		.uleb128 0x5
 3482 1516 03       		.byte	0x3
 3483 1517 00000000 		.4byte	.LANCHOR0
 3484 151b 00       		.byte	0
 3485 151c 00       		.byte	0
 3486 151d 38       		.uleb128 0x38
 3487 151e 2C000000 		.4byte	.LVL4
 3488 1522 7D150000 		.4byte	0x157d
 3489 1526 00       		.byte	0
 3490 1527 39       		.uleb128 0x39
 3491 1528 64030000 		.4byte	.LASF276
 3492 152c 01       		.byte	0x1
 3493 152d 4F       		.byte	0x4f
 3494 152e 01       		.byte	0x1
 3495 152f 3F150000 		.4byte	0x153f
 3496 1533 3A       		.uleb128 0x3a
 3497 1534 4A060000 		.4byte	.LASF256
 3498 1538 01       		.byte	0x1
 3499 1539 4F       		.byte	0x4f
 3500 153a A70F0000 		.4byte	0xfa7
 3501 153e 00       		.byte	0
 3502 153f 3B       		.uleb128 0x3b
 3503 1540 D9110000 		.4byte	0x11d9
 3504 1544 00000000 		.4byte	.LFB72
 3505 1548 0E000000 		.4byte	.LFE72-.LFB72
 3506 154c 01       		.uleb128 0x1
 3507 154d 9C       		.byte	0x9c
 3508 154e 5A150000 		.4byte	0x155a
 3509 1552 3C       		.uleb128 0x3c
 3510 1553 E6110000 		.4byte	0x11e6
 3511 1557 01       		.uleb128 0x1
 3512 1558 50       		.byte	0x50
 3513 1559 00       		.byte	0
 3514 155a 3D       		.uleb128 0x3d
 3515 155b CD010000 		.4byte	.LASF267
 3516 155f CD010000 		.4byte	.LASF267
 3517 1563 19       		.byte	0x19
 3518 1564 1D01     		.2byte	0x11d
 3519 1566 3D       		.uleb128 0x3d
 3520 1567 C30A0000 		.4byte	.LASF268
 3521 156b C30A0000 		.4byte	.LASF268
 3522 156f 19       		.byte	0x19
ARM GAS  /tmp/ccu5GyJp.s 			page 63


 3523 1570 1C01     		.2byte	0x11c
 3524 1572 3E       		.uleb128 0x3e
 3525 1573 1E020000 		.4byte	.LASF269
 3526 1577 1E020000 		.4byte	.LASF269
 3527 157b 15       		.byte	0x15
 3528 157c 68       		.byte	0x68
 3529 157d 3D       		.uleb128 0x3d
 3530 157e AB070000 		.4byte	.LASF270
 3531 1582 AB070000 		.4byte	.LASF270
 3532 1586 08       		.byte	0x8
 3533 1587 FC01     		.2byte	0x1fc
 3534 1589 00       		.byte	0
 3535              		.section	.debug_abbrev,"",%progbits
 3536              	.Ldebug_abbrev0:
 3537 0000 01       		.uleb128 0x1
 3538 0001 11       		.uleb128 0x11
 3539 0002 01       		.byte	0x1
 3540 0003 25       		.uleb128 0x25
 3541 0004 0E       		.uleb128 0xe
 3542 0005 13       		.uleb128 0x13
 3543 0006 0B       		.uleb128 0xb
 3544 0007 03       		.uleb128 0x3
 3545 0008 0E       		.uleb128 0xe
 3546 0009 1B       		.uleb128 0x1b
 3547 000a 0E       		.uleb128 0xe
 3548 000b 55       		.uleb128 0x55
 3549 000c 17       		.uleb128 0x17
 3550 000d 11       		.uleb128 0x11
 3551 000e 01       		.uleb128 0x1
 3552 000f 10       		.uleb128 0x10
 3553 0010 17       		.uleb128 0x17
 3554 0011 00       		.byte	0
 3555 0012 00       		.byte	0
 3556 0013 02       		.uleb128 0x2
 3557 0014 24       		.uleb128 0x24
 3558 0015 00       		.byte	0
 3559 0016 0B       		.uleb128 0xb
 3560 0017 0B       		.uleb128 0xb
 3561 0018 3E       		.uleb128 0x3e
 3562 0019 0B       		.uleb128 0xb
 3563 001a 03       		.uleb128 0x3
 3564 001b 08       		.uleb128 0x8
 3565 001c 00       		.byte	0
 3566 001d 00       		.byte	0
 3567 001e 03       		.uleb128 0x3
 3568 001f 16       		.uleb128 0x16
 3569 0020 00       		.byte	0
 3570 0021 03       		.uleb128 0x3
 3571 0022 0E       		.uleb128 0xe
 3572 0023 3A       		.uleb128 0x3a
 3573 0024 0B       		.uleb128 0xb
 3574 0025 3B       		.uleb128 0x3b
 3575 0026 0B       		.uleb128 0xb
 3576 0027 49       		.uleb128 0x49
 3577 0028 13       		.uleb128 0x13
 3578 0029 00       		.byte	0
 3579 002a 00       		.byte	0
ARM GAS  /tmp/ccu5GyJp.s 			page 64


 3580 002b 04       		.uleb128 0x4
 3581 002c 24       		.uleb128 0x24
 3582 002d 00       		.byte	0
 3583 002e 0B       		.uleb128 0xb
 3584 002f 0B       		.uleb128 0xb
 3585 0030 3E       		.uleb128 0x3e
 3586 0031 0B       		.uleb128 0xb
 3587 0032 03       		.uleb128 0x3
 3588 0033 0E       		.uleb128 0xe
 3589 0034 00       		.byte	0
 3590 0035 00       		.byte	0
 3591 0036 05       		.uleb128 0x5
 3592 0037 26       		.uleb128 0x26
 3593 0038 00       		.byte	0
 3594 0039 49       		.uleb128 0x49
 3595 003a 13       		.uleb128 0x13
 3596 003b 00       		.byte	0
 3597 003c 00       		.byte	0
 3598 003d 06       		.uleb128 0x6
 3599 003e 35       		.uleb128 0x35
 3600 003f 00       		.byte	0
 3601 0040 49       		.uleb128 0x49
 3602 0041 13       		.uleb128 0x13
 3603 0042 00       		.byte	0
 3604 0043 00       		.byte	0
 3605 0044 07       		.uleb128 0x7
 3606 0045 13       		.uleb128 0x13
 3607 0046 01       		.byte	0x1
 3608 0047 03       		.uleb128 0x3
 3609 0048 0E       		.uleb128 0xe
 3610 0049 0B       		.uleb128 0xb
 3611 004a 0B       		.uleb128 0xb
 3612 004b 3A       		.uleb128 0x3a
 3613 004c 0B       		.uleb128 0xb
 3614 004d 3B       		.uleb128 0x3b
 3615 004e 0B       		.uleb128 0xb
 3616 004f 01       		.uleb128 0x1
 3617 0050 13       		.uleb128 0x13
 3618 0051 00       		.byte	0
 3619 0052 00       		.byte	0
 3620 0053 08       		.uleb128 0x8
 3621 0054 0D       		.uleb128 0xd
 3622 0055 00       		.byte	0
 3623 0056 03       		.uleb128 0x3
 3624 0057 0E       		.uleb128 0xe
 3625 0058 3A       		.uleb128 0x3a
 3626 0059 0B       		.uleb128 0xb
 3627 005a 3B       		.uleb128 0x3b
 3628 005b 0B       		.uleb128 0xb
 3629 005c 49       		.uleb128 0x49
 3630 005d 13       		.uleb128 0x13
 3631 005e 38       		.uleb128 0x38
 3632 005f 0B       		.uleb128 0xb
 3633 0060 00       		.byte	0
 3634 0061 00       		.byte	0
 3635 0062 09       		.uleb128 0x9
 3636 0063 0D       		.uleb128 0xd
ARM GAS  /tmp/ccu5GyJp.s 			page 65


 3637 0064 00       		.byte	0
 3638 0065 03       		.uleb128 0x3
 3639 0066 08       		.uleb128 0x8
 3640 0067 3A       		.uleb128 0x3a
 3641 0068 0B       		.uleb128 0xb
 3642 0069 3B       		.uleb128 0x3b
 3643 006a 0B       		.uleb128 0xb
 3644 006b 49       		.uleb128 0x49
 3645 006c 13       		.uleb128 0x13
 3646 006d 38       		.uleb128 0x38
 3647 006e 0B       		.uleb128 0xb
 3648 006f 00       		.byte	0
 3649 0070 00       		.byte	0
 3650 0071 0A       		.uleb128 0xa
 3651 0072 13       		.uleb128 0x13
 3652 0073 01       		.byte	0x1
 3653 0074 0B       		.uleb128 0xb
 3654 0075 0B       		.uleb128 0xb
 3655 0076 3A       		.uleb128 0x3a
 3656 0077 0B       		.uleb128 0xb
 3657 0078 3B       		.uleb128 0x3b
 3658 0079 0B       		.uleb128 0xb
 3659 007a 01       		.uleb128 0x1
 3660 007b 13       		.uleb128 0x13
 3661 007c 00       		.byte	0
 3662 007d 00       		.byte	0
 3663 007e 0B       		.uleb128 0xb
 3664 007f 0F       		.uleb128 0xf
 3665 0080 00       		.byte	0
 3666 0081 0B       		.uleb128 0xb
 3667 0082 0B       		.uleb128 0xb
 3668 0083 49       		.uleb128 0x49
 3669 0084 13       		.uleb128 0x13
 3670 0085 00       		.byte	0
 3671 0086 00       		.byte	0
 3672 0087 0C       		.uleb128 0xc
 3673 0088 0F       		.uleb128 0xf
 3674 0089 00       		.byte	0
 3675 008a 0B       		.uleb128 0xb
 3676 008b 0B       		.uleb128 0xb
 3677 008c 00       		.byte	0
 3678 008d 00       		.byte	0
 3679 008e 0D       		.uleb128 0xd
 3680 008f 13       		.uleb128 0x13
 3681 0090 01       		.byte	0x1
 3682 0091 03       		.uleb128 0x3
 3683 0092 0E       		.uleb128 0xe
 3684 0093 0B       		.uleb128 0xb
 3685 0094 0B       		.uleb128 0xb
 3686 0095 3A       		.uleb128 0x3a
 3687 0096 0B       		.uleb128 0xb
 3688 0097 3B       		.uleb128 0x3b
 3689 0098 05       		.uleb128 0x5
 3690 0099 01       		.uleb128 0x1
 3691 009a 13       		.uleb128 0x13
 3692 009b 00       		.byte	0
 3693 009c 00       		.byte	0
ARM GAS  /tmp/ccu5GyJp.s 			page 66


 3694 009d 0E       		.uleb128 0xe
 3695 009e 0D       		.uleb128 0xd
 3696 009f 00       		.byte	0
 3697 00a0 03       		.uleb128 0x3
 3698 00a1 08       		.uleb128 0x8
 3699 00a2 3A       		.uleb128 0x3a
 3700 00a3 0B       		.uleb128 0xb
 3701 00a4 3B       		.uleb128 0x3b
 3702 00a5 05       		.uleb128 0x5
 3703 00a6 49       		.uleb128 0x49
 3704 00a7 13       		.uleb128 0x13
 3705 00a8 38       		.uleb128 0x38
 3706 00a9 0B       		.uleb128 0xb
 3707 00aa 00       		.byte	0
 3708 00ab 00       		.byte	0
 3709 00ac 0F       		.uleb128 0xf
 3710 00ad 15       		.uleb128 0x15
 3711 00ae 01       		.byte	0x1
 3712 00af 27       		.uleb128 0x27
 3713 00b0 19       		.uleb128 0x19
 3714 00b1 01       		.uleb128 0x1
 3715 00b2 13       		.uleb128 0x13
 3716 00b3 00       		.byte	0
 3717 00b4 00       		.byte	0
 3718 00b5 10       		.uleb128 0x10
 3719 00b6 05       		.uleb128 0x5
 3720 00b7 00       		.byte	0
 3721 00b8 49       		.uleb128 0x49
 3722 00b9 13       		.uleb128 0x13
 3723 00ba 00       		.byte	0
 3724 00bb 00       		.byte	0
 3725 00bc 11       		.uleb128 0x11
 3726 00bd 34       		.uleb128 0x34
 3727 00be 00       		.byte	0
 3728 00bf 03       		.uleb128 0x3
 3729 00c0 0E       		.uleb128 0xe
 3730 00c1 3A       		.uleb128 0x3a
 3731 00c2 0B       		.uleb128 0xb
 3732 00c3 3B       		.uleb128 0x3b
 3733 00c4 0B       		.uleb128 0xb
 3734 00c5 49       		.uleb128 0x49
 3735 00c6 13       		.uleb128 0x13
 3736 00c7 3F       		.uleb128 0x3f
 3737 00c8 19       		.uleb128 0x19
 3738 00c9 3C       		.uleb128 0x3c
 3739 00ca 19       		.uleb128 0x19
 3740 00cb 00       		.byte	0
 3741 00cc 00       		.byte	0
 3742 00cd 12       		.uleb128 0x12
 3743 00ce 17       		.uleb128 0x17
 3744 00cf 01       		.byte	0x1
 3745 00d0 0B       		.uleb128 0xb
 3746 00d1 0B       		.uleb128 0xb
 3747 00d2 3A       		.uleb128 0x3a
 3748 00d3 0B       		.uleb128 0xb
 3749 00d4 3B       		.uleb128 0x3b
 3750 00d5 0B       		.uleb128 0xb
ARM GAS  /tmp/ccu5GyJp.s 			page 67


 3751 00d6 01       		.uleb128 0x1
 3752 00d7 13       		.uleb128 0x13
 3753 00d8 00       		.byte	0
 3754 00d9 00       		.byte	0
 3755 00da 13       		.uleb128 0x13
 3756 00db 0D       		.uleb128 0xd
 3757 00dc 00       		.byte	0
 3758 00dd 03       		.uleb128 0x3
 3759 00de 0E       		.uleb128 0xe
 3760 00df 3A       		.uleb128 0x3a
 3761 00e0 0B       		.uleb128 0xb
 3762 00e1 3B       		.uleb128 0x3b
 3763 00e2 0B       		.uleb128 0xb
 3764 00e3 49       		.uleb128 0x49
 3765 00e4 13       		.uleb128 0x13
 3766 00e5 00       		.byte	0
 3767 00e6 00       		.byte	0
 3768 00e7 14       		.uleb128 0x14
 3769 00e8 15       		.uleb128 0x15
 3770 00e9 01       		.byte	0x1
 3771 00ea 27       		.uleb128 0x27
 3772 00eb 19       		.uleb128 0x19
 3773 00ec 49       		.uleb128 0x49
 3774 00ed 13       		.uleb128 0x13
 3775 00ee 01       		.uleb128 0x1
 3776 00ef 13       		.uleb128 0x13
 3777 00f0 00       		.byte	0
 3778 00f1 00       		.byte	0
 3779 00f2 15       		.uleb128 0x15
 3780 00f3 01       		.uleb128 0x1
 3781 00f4 01       		.byte	0x1
 3782 00f5 49       		.uleb128 0x49
 3783 00f6 13       		.uleb128 0x13
 3784 00f7 01       		.uleb128 0x1
 3785 00f8 13       		.uleb128 0x13
 3786 00f9 00       		.byte	0
 3787 00fa 00       		.byte	0
 3788 00fb 16       		.uleb128 0x16
 3789 00fc 21       		.uleb128 0x21
 3790 00fd 00       		.byte	0
 3791 00fe 49       		.uleb128 0x49
 3792 00ff 13       		.uleb128 0x13
 3793 0100 2F       		.uleb128 0x2f
 3794 0101 0B       		.uleb128 0xb
 3795 0102 00       		.byte	0
 3796 0103 00       		.byte	0
 3797 0104 17       		.uleb128 0x17
 3798 0105 04       		.uleb128 0x4
 3799 0106 01       		.byte	0x1
 3800 0107 03       		.uleb128 0x3
 3801 0108 0E       		.uleb128 0xe
 3802 0109 0B       		.uleb128 0xb
 3803 010a 0B       		.uleb128 0xb
 3804 010b 49       		.uleb128 0x49
 3805 010c 13       		.uleb128 0x13
 3806 010d 3A       		.uleb128 0x3a
 3807 010e 0B       		.uleb128 0xb
ARM GAS  /tmp/ccu5GyJp.s 			page 68


 3808 010f 3B       		.uleb128 0x3b
 3809 0110 0B       		.uleb128 0xb
 3810 0111 01       		.uleb128 0x1
 3811 0112 13       		.uleb128 0x13
 3812 0113 00       		.byte	0
 3813 0114 00       		.byte	0
 3814 0115 18       		.uleb128 0x18
 3815 0116 28       		.uleb128 0x28
 3816 0117 00       		.byte	0
 3817 0118 03       		.uleb128 0x3
 3818 0119 0E       		.uleb128 0xe
 3819 011a 1C       		.uleb128 0x1c
 3820 011b 0D       		.uleb128 0xd
 3821 011c 00       		.byte	0
 3822 011d 00       		.byte	0
 3823 011e 19       		.uleb128 0x19
 3824 011f 28       		.uleb128 0x28
 3825 0120 00       		.byte	0
 3826 0121 03       		.uleb128 0x3
 3827 0122 0E       		.uleb128 0xe
 3828 0123 1C       		.uleb128 0x1c
 3829 0124 0B       		.uleb128 0xb
 3830 0125 00       		.byte	0
 3831 0126 00       		.byte	0
 3832 0127 1A       		.uleb128 0x1a
 3833 0128 34       		.uleb128 0x34
 3834 0129 00       		.byte	0
 3835 012a 03       		.uleb128 0x3
 3836 012b 0E       		.uleb128 0xe
 3837 012c 3A       		.uleb128 0x3a
 3838 012d 0B       		.uleb128 0xb
 3839 012e 3B       		.uleb128 0x3b
 3840 012f 05       		.uleb128 0x5
 3841 0130 49       		.uleb128 0x49
 3842 0131 13       		.uleb128 0x13
 3843 0132 3F       		.uleb128 0x3f
 3844 0133 19       		.uleb128 0x19
 3845 0134 3C       		.uleb128 0x3c
 3846 0135 19       		.uleb128 0x19
 3847 0136 00       		.byte	0
 3848 0137 00       		.byte	0
 3849 0138 1B       		.uleb128 0x1b
 3850 0139 13       		.uleb128 0x13
 3851 013a 01       		.byte	0x1
 3852 013b 0B       		.uleb128 0xb
 3853 013c 05       		.uleb128 0x5
 3854 013d 3A       		.uleb128 0x3a
 3855 013e 0B       		.uleb128 0xb
 3856 013f 3B       		.uleb128 0x3b
 3857 0140 0B       		.uleb128 0xb
 3858 0141 01       		.uleb128 0x1
 3859 0142 13       		.uleb128 0x13
 3860 0143 00       		.byte	0
 3861 0144 00       		.byte	0
 3862 0145 1C       		.uleb128 0x1c
 3863 0146 0D       		.uleb128 0xd
 3864 0147 00       		.byte	0
ARM GAS  /tmp/ccu5GyJp.s 			page 69


 3865 0148 03       		.uleb128 0x3
 3866 0149 0E       		.uleb128 0xe
 3867 014a 3A       		.uleb128 0x3a
 3868 014b 0B       		.uleb128 0xb
 3869 014c 3B       		.uleb128 0x3b
 3870 014d 0B       		.uleb128 0xb
 3871 014e 49       		.uleb128 0x49
 3872 014f 13       		.uleb128 0x13
 3873 0150 38       		.uleb128 0x38
 3874 0151 05       		.uleb128 0x5
 3875 0152 00       		.byte	0
 3876 0153 00       		.byte	0
 3877 0154 1D       		.uleb128 0x1d
 3878 0155 0D       		.uleb128 0xd
 3879 0156 00       		.byte	0
 3880 0157 03       		.uleb128 0x3
 3881 0158 08       		.uleb128 0x8
 3882 0159 3A       		.uleb128 0x3a
 3883 015a 0B       		.uleb128 0xb
 3884 015b 3B       		.uleb128 0x3b
 3885 015c 0B       		.uleb128 0xb
 3886 015d 49       		.uleb128 0x49
 3887 015e 13       		.uleb128 0x13
 3888 015f 38       		.uleb128 0x38
 3889 0160 05       		.uleb128 0x5
 3890 0161 00       		.byte	0
 3891 0162 00       		.byte	0
 3892 0163 1E       		.uleb128 0x1e
 3893 0164 13       		.uleb128 0x13
 3894 0165 01       		.byte	0x1
 3895 0166 0B       		.uleb128 0xb
 3896 0167 0B       		.uleb128 0xb
 3897 0168 3A       		.uleb128 0x3a
 3898 0169 0B       		.uleb128 0xb
 3899 016a 3B       		.uleb128 0x3b
 3900 016b 05       		.uleb128 0x5
 3901 016c 01       		.uleb128 0x1
 3902 016d 13       		.uleb128 0x13
 3903 016e 00       		.byte	0
 3904 016f 00       		.byte	0
 3905 0170 1F       		.uleb128 0x1f
 3906 0171 0D       		.uleb128 0xd
 3907 0172 00       		.byte	0
 3908 0173 03       		.uleb128 0x3
 3909 0174 0E       		.uleb128 0xe
 3910 0175 3A       		.uleb128 0x3a
 3911 0176 0B       		.uleb128 0xb
 3912 0177 3B       		.uleb128 0x3b
 3913 0178 05       		.uleb128 0x5
 3914 0179 49       		.uleb128 0x49
 3915 017a 13       		.uleb128 0x13
 3916 017b 38       		.uleb128 0x38
 3917 017c 0B       		.uleb128 0xb
 3918 017d 00       		.byte	0
 3919 017e 00       		.byte	0
 3920 017f 20       		.uleb128 0x20
 3921 0180 16       		.uleb128 0x16
ARM GAS  /tmp/ccu5GyJp.s 			page 70


 3922 0181 00       		.byte	0
 3923 0182 03       		.uleb128 0x3
 3924 0183 0E       		.uleb128 0xe
 3925 0184 3A       		.uleb128 0x3a
 3926 0185 0B       		.uleb128 0xb
 3927 0186 3B       		.uleb128 0x3b
 3928 0187 05       		.uleb128 0x5
 3929 0188 49       		.uleb128 0x49
 3930 0189 13       		.uleb128 0x13
 3931 018a 00       		.byte	0
 3932 018b 00       		.byte	0
 3933 018c 21       		.uleb128 0x21
 3934 018d 17       		.uleb128 0x17
 3935 018e 01       		.byte	0x1
 3936 018f 0B       		.uleb128 0xb
 3937 0190 0B       		.uleb128 0xb
 3938 0191 3A       		.uleb128 0x3a
 3939 0192 0B       		.uleb128 0xb
 3940 0193 3B       		.uleb128 0x3b
 3941 0194 05       		.uleb128 0x5
 3942 0195 01       		.uleb128 0x1
 3943 0196 13       		.uleb128 0x13
 3944 0197 00       		.byte	0
 3945 0198 00       		.byte	0
 3946 0199 22       		.uleb128 0x22
 3947 019a 0D       		.uleb128 0xd
 3948 019b 00       		.byte	0
 3949 019c 03       		.uleb128 0x3
 3950 019d 08       		.uleb128 0x8
 3951 019e 3A       		.uleb128 0x3a
 3952 019f 0B       		.uleb128 0xb
 3953 01a0 3B       		.uleb128 0x3b
 3954 01a1 05       		.uleb128 0x5
 3955 01a2 49       		.uleb128 0x49
 3956 01a3 13       		.uleb128 0x13
 3957 01a4 00       		.byte	0
 3958 01a5 00       		.byte	0
 3959 01a6 23       		.uleb128 0x23
 3960 01a7 0D       		.uleb128 0xd
 3961 01a8 00       		.byte	0
 3962 01a9 49       		.uleb128 0x49
 3963 01aa 13       		.uleb128 0x13
 3964 01ab 38       		.uleb128 0x38
 3965 01ac 0B       		.uleb128 0xb
 3966 01ad 00       		.byte	0
 3967 01ae 00       		.byte	0
 3968 01af 24       		.uleb128 0x24
 3969 01b0 21       		.uleb128 0x21
 3970 01b1 00       		.byte	0
 3971 01b2 00       		.byte	0
 3972 01b3 00       		.byte	0
 3973 01b4 25       		.uleb128 0x25
 3974 01b5 04       		.uleb128 0x4
 3975 01b6 01       		.byte	0x1
 3976 01b7 0B       		.uleb128 0xb
 3977 01b8 0B       		.uleb128 0xb
 3978 01b9 49       		.uleb128 0x49
ARM GAS  /tmp/ccu5GyJp.s 			page 71


 3979 01ba 13       		.uleb128 0x13
 3980 01bb 3A       		.uleb128 0x3a
 3981 01bc 0B       		.uleb128 0xb
 3982 01bd 3B       		.uleb128 0x3b
 3983 01be 0B       		.uleb128 0xb
 3984 01bf 01       		.uleb128 0x1
 3985 01c0 13       		.uleb128 0x13
 3986 01c1 00       		.byte	0
 3987 01c2 00       		.byte	0
 3988 01c3 26       		.uleb128 0x26
 3989 01c4 34       		.uleb128 0x34
 3990 01c5 00       		.byte	0
 3991 01c6 03       		.uleb128 0x3
 3992 01c7 08       		.uleb128 0x8
 3993 01c8 3A       		.uleb128 0x3a
 3994 01c9 0B       		.uleb128 0xb
 3995 01ca 3B       		.uleb128 0x3b
 3996 01cb 0B       		.uleb128 0xb
 3997 01cc 49       		.uleb128 0x49
 3998 01cd 13       		.uleb128 0x13
 3999 01ce 3F       		.uleb128 0x3f
 4000 01cf 19       		.uleb128 0x19
 4001 01d0 3C       		.uleb128 0x3c
 4002 01d1 19       		.uleb128 0x19
 4003 01d2 00       		.byte	0
 4004 01d3 00       		.byte	0
 4005 01d4 27       		.uleb128 0x27
 4006 01d5 34       		.uleb128 0x34
 4007 01d6 00       		.byte	0
 4008 01d7 47       		.uleb128 0x47
 4009 01d8 13       		.uleb128 0x13
 4010 01d9 3A       		.uleb128 0x3a
 4011 01da 0B       		.uleb128 0xb
 4012 01db 3B       		.uleb128 0x3b
 4013 01dc 0B       		.uleb128 0xb
 4014 01dd 02       		.uleb128 0x2
 4015 01de 18       		.uleb128 0x18
 4016 01df 00       		.byte	0
 4017 01e0 00       		.byte	0
 4018 01e1 28       		.uleb128 0x28
 4019 01e2 2E       		.uleb128 0x2e
 4020 01e3 01       		.byte	0x1
 4021 01e4 3F       		.uleb128 0x3f
 4022 01e5 19       		.uleb128 0x19
 4023 01e6 03       		.uleb128 0x3
 4024 01e7 0E       		.uleb128 0xe
 4025 01e8 3A       		.uleb128 0x3a
 4026 01e9 0B       		.uleb128 0xb
 4027 01ea 3B       		.uleb128 0x3b
 4028 01eb 05       		.uleb128 0x5
 4029 01ec 27       		.uleb128 0x27
 4030 01ed 19       		.uleb128 0x19
 4031 01ee 11       		.uleb128 0x11
 4032 01ef 01       		.uleb128 0x1
 4033 01f0 12       		.uleb128 0x12
 4034 01f1 06       		.uleb128 0x6
 4035 01f2 40       		.uleb128 0x40
ARM GAS  /tmp/ccu5GyJp.s 			page 72


 4036 01f3 18       		.uleb128 0x18
 4037 01f4 9742     		.uleb128 0x2117
 4038 01f6 19       		.uleb128 0x19
 4039 01f7 01       		.uleb128 0x1
 4040 01f8 13       		.uleb128 0x13
 4041 01f9 00       		.byte	0
 4042 01fa 00       		.byte	0
 4043 01fb 29       		.uleb128 0x29
 4044 01fc 05       		.uleb128 0x5
 4045 01fd 00       		.byte	0
 4046 01fe 03       		.uleb128 0x3
 4047 01ff 0E       		.uleb128 0xe
 4048 0200 3A       		.uleb128 0x3a
 4049 0201 0B       		.uleb128 0xb
 4050 0202 3B       		.uleb128 0x3b
 4051 0203 05       		.uleb128 0x5
 4052 0204 49       		.uleb128 0x49
 4053 0205 13       		.uleb128 0x13
 4054 0206 02       		.uleb128 0x2
 4055 0207 18       		.uleb128 0x18
 4056 0208 00       		.byte	0
 4057 0209 00       		.byte	0
 4058 020a 2A       		.uleb128 0x2a
 4059 020b 05       		.uleb128 0x5
 4060 020c 00       		.byte	0
 4061 020d 03       		.uleb128 0x3
 4062 020e 0E       		.uleb128 0xe
 4063 020f 3A       		.uleb128 0x3a
 4064 0210 0B       		.uleb128 0xb
 4065 0211 3B       		.uleb128 0x3b
 4066 0212 05       		.uleb128 0x5
 4067 0213 49       		.uleb128 0x49
 4068 0214 13       		.uleb128 0x13
 4069 0215 02       		.uleb128 0x2
 4070 0216 17       		.uleb128 0x17
 4071 0217 00       		.byte	0
 4072 0218 00       		.byte	0
 4073 0219 2B       		.uleb128 0x2b
 4074 021a 2E       		.uleb128 0x2e
 4075 021b 01       		.byte	0x1
 4076 021c 3F       		.uleb128 0x3f
 4077 021d 19       		.uleb128 0x19
 4078 021e 03       		.uleb128 0x3
 4079 021f 0E       		.uleb128 0xe
 4080 0220 3A       		.uleb128 0x3a
 4081 0221 0B       		.uleb128 0xb
 4082 0222 3B       		.uleb128 0x3b
 4083 0223 05       		.uleb128 0x5
 4084 0224 27       		.uleb128 0x27
 4085 0225 19       		.uleb128 0x19
 4086 0226 20       		.uleb128 0x20
 4087 0227 0B       		.uleb128 0xb
 4088 0228 01       		.uleb128 0x1
 4089 0229 13       		.uleb128 0x13
 4090 022a 00       		.byte	0
 4091 022b 00       		.byte	0
 4092 022c 2C       		.uleb128 0x2c
ARM GAS  /tmp/ccu5GyJp.s 			page 73


 4093 022d 05       		.uleb128 0x5
 4094 022e 00       		.byte	0
 4095 022f 03       		.uleb128 0x3
 4096 0230 0E       		.uleb128 0xe
 4097 0231 3A       		.uleb128 0x3a
 4098 0232 0B       		.uleb128 0xb
 4099 0233 3B       		.uleb128 0x3b
 4100 0234 05       		.uleb128 0x5
 4101 0235 49       		.uleb128 0x49
 4102 0236 13       		.uleb128 0x13
 4103 0237 00       		.byte	0
 4104 0238 00       		.byte	0
 4105 0239 2D       		.uleb128 0x2d
 4106 023a 2E       		.uleb128 0x2e
 4107 023b 01       		.byte	0x1
 4108 023c 3F       		.uleb128 0x3f
 4109 023d 19       		.uleb128 0x19
 4110 023e 03       		.uleb128 0x3
 4111 023f 0E       		.uleb128 0xe
 4112 0240 3A       		.uleb128 0x3a
 4113 0241 0B       		.uleb128 0xb
 4114 0242 3B       		.uleb128 0x3b
 4115 0243 0B       		.uleb128 0xb
 4116 0244 27       		.uleb128 0x27
 4117 0245 19       		.uleb128 0x19
 4118 0246 11       		.uleb128 0x11
 4119 0247 01       		.uleb128 0x1
 4120 0248 12       		.uleb128 0x12
 4121 0249 06       		.uleb128 0x6
 4122 024a 40       		.uleb128 0x40
 4123 024b 18       		.uleb128 0x18
 4124 024c 9742     		.uleb128 0x2117
 4125 024e 19       		.uleb128 0x19
 4126 024f 01       		.uleb128 0x1
 4127 0250 13       		.uleb128 0x13
 4128 0251 00       		.byte	0
 4129 0252 00       		.byte	0
 4130 0253 2E       		.uleb128 0x2e
 4131 0254 05       		.uleb128 0x5
 4132 0255 00       		.byte	0
 4133 0256 03       		.uleb128 0x3
 4134 0257 0E       		.uleb128 0xe
 4135 0258 3A       		.uleb128 0x3a
 4136 0259 0B       		.uleb128 0xb
 4137 025a 3B       		.uleb128 0x3b
 4138 025b 0B       		.uleb128 0xb
 4139 025c 49       		.uleb128 0x49
 4140 025d 13       		.uleb128 0x13
 4141 025e 02       		.uleb128 0x2
 4142 025f 17       		.uleb128 0x17
 4143 0260 00       		.byte	0
 4144 0261 00       		.byte	0
 4145 0262 2F       		.uleb128 0x2f
 4146 0263 898201   		.uleb128 0x4109
 4147 0266 01       		.byte	0x1
 4148 0267 11       		.uleb128 0x11
 4149 0268 01       		.uleb128 0x1
ARM GAS  /tmp/ccu5GyJp.s 			page 74


 4150 0269 31       		.uleb128 0x31
 4151 026a 13       		.uleb128 0x13
 4152 026b 01       		.uleb128 0x1
 4153 026c 13       		.uleb128 0x13
 4154 026d 00       		.byte	0
 4155 026e 00       		.byte	0
 4156 026f 30       		.uleb128 0x30
 4157 0270 8A8201   		.uleb128 0x410a
 4158 0273 00       		.byte	0
 4159 0274 02       		.uleb128 0x2
 4160 0275 18       		.uleb128 0x18
 4161 0276 9142     		.uleb128 0x2111
 4162 0278 18       		.uleb128 0x18
 4163 0279 00       		.byte	0
 4164 027a 00       		.byte	0
 4165 027b 31       		.uleb128 0x31
 4166 027c 898201   		.uleb128 0x4109
 4167 027f 00       		.byte	0
 4168 0280 11       		.uleb128 0x11
 4169 0281 01       		.uleb128 0x1
 4170 0282 31       		.uleb128 0x31
 4171 0283 13       		.uleb128 0x13
 4172 0284 00       		.byte	0
 4173 0285 00       		.byte	0
 4174 0286 32       		.uleb128 0x32
 4175 0287 898201   		.uleb128 0x4109
 4176 028a 01       		.byte	0x1
 4177 028b 11       		.uleb128 0x11
 4178 028c 01       		.uleb128 0x1
 4179 028d 31       		.uleb128 0x31
 4180 028e 13       		.uleb128 0x13
 4181 028f 00       		.byte	0
 4182 0290 00       		.byte	0
 4183 0291 33       		.uleb128 0x33
 4184 0292 34       		.uleb128 0x34
 4185 0293 00       		.byte	0
 4186 0294 03       		.uleb128 0x3
 4187 0295 08       		.uleb128 0x8
 4188 0296 3A       		.uleb128 0x3a
 4189 0297 0B       		.uleb128 0xb
 4190 0298 3B       		.uleb128 0x3b
 4191 0299 0B       		.uleb128 0xb
 4192 029a 49       		.uleb128 0x49
 4193 029b 13       		.uleb128 0x13
 4194 029c 02       		.uleb128 0x2
 4195 029d 17       		.uleb128 0x17
 4196 029e 00       		.byte	0
 4197 029f 00       		.byte	0
 4198 02a0 34       		.uleb128 0x34
 4199 02a1 898201   		.uleb128 0x4109
 4200 02a4 01       		.byte	0x1
 4201 02a5 11       		.uleb128 0x11
 4202 02a6 01       		.uleb128 0x1
 4203 02a7 9542     		.uleb128 0x2115
 4204 02a9 19       		.uleb128 0x19
 4205 02aa 31       		.uleb128 0x31
 4206 02ab 13       		.uleb128 0x13
ARM GAS  /tmp/ccu5GyJp.s 			page 75


 4207 02ac 00       		.byte	0
 4208 02ad 00       		.byte	0
 4209 02ae 35       		.uleb128 0x35
 4210 02af 1D       		.uleb128 0x1d
 4211 02b0 01       		.byte	0x1
 4212 02b1 31       		.uleb128 0x31
 4213 02b2 13       		.uleb128 0x13
 4214 02b3 52       		.uleb128 0x52
 4215 02b4 01       		.uleb128 0x1
 4216 02b5 55       		.uleb128 0x55
 4217 02b6 17       		.uleb128 0x17
 4218 02b7 58       		.uleb128 0x58
 4219 02b8 0B       		.uleb128 0xb
 4220 02b9 59       		.uleb128 0x59
 4221 02ba 0B       		.uleb128 0xb
 4222 02bb 01       		.uleb128 0x1
 4223 02bc 13       		.uleb128 0x13
 4224 02bd 00       		.byte	0
 4225 02be 00       		.byte	0
 4226 02bf 36       		.uleb128 0x36
 4227 02c0 05       		.uleb128 0x5
 4228 02c1 00       		.byte	0
 4229 02c2 31       		.uleb128 0x31
 4230 02c3 13       		.uleb128 0x13
 4231 02c4 02       		.uleb128 0x2
 4232 02c5 17       		.uleb128 0x17
 4233 02c6 00       		.byte	0
 4234 02c7 00       		.byte	0
 4235 02c8 37       		.uleb128 0x37
 4236 02c9 898201   		.uleb128 0x4109
 4237 02cc 01       		.byte	0x1
 4238 02cd 11       		.uleb128 0x11
 4239 02ce 01       		.uleb128 0x1
 4240 02cf 00       		.byte	0
 4241 02d0 00       		.byte	0
 4242 02d1 38       		.uleb128 0x38
 4243 02d2 898201   		.uleb128 0x4109
 4244 02d5 00       		.byte	0
 4245 02d6 11       		.uleb128 0x11
 4246 02d7 01       		.uleb128 0x1
 4247 02d8 9542     		.uleb128 0x2115
 4248 02da 19       		.uleb128 0x19
 4249 02db 31       		.uleb128 0x31
 4250 02dc 13       		.uleb128 0x13
 4251 02dd 00       		.byte	0
 4252 02de 00       		.byte	0
 4253 02df 39       		.uleb128 0x39
 4254 02e0 2E       		.uleb128 0x2e
 4255 02e1 01       		.byte	0x1
 4256 02e2 03       		.uleb128 0x3
 4257 02e3 0E       		.uleb128 0xe
 4258 02e4 3A       		.uleb128 0x3a
 4259 02e5 0B       		.uleb128 0xb
 4260 02e6 3B       		.uleb128 0x3b
 4261 02e7 0B       		.uleb128 0xb
 4262 02e8 27       		.uleb128 0x27
 4263 02e9 19       		.uleb128 0x19
ARM GAS  /tmp/ccu5GyJp.s 			page 76


 4264 02ea 20       		.uleb128 0x20
 4265 02eb 0B       		.uleb128 0xb
 4266 02ec 01       		.uleb128 0x1
 4267 02ed 13       		.uleb128 0x13
 4268 02ee 00       		.byte	0
 4269 02ef 00       		.byte	0
 4270 02f0 3A       		.uleb128 0x3a
 4271 02f1 05       		.uleb128 0x5
 4272 02f2 00       		.byte	0
 4273 02f3 03       		.uleb128 0x3
 4274 02f4 0E       		.uleb128 0xe
 4275 02f5 3A       		.uleb128 0x3a
 4276 02f6 0B       		.uleb128 0xb
 4277 02f7 3B       		.uleb128 0x3b
 4278 02f8 0B       		.uleb128 0xb
 4279 02f9 49       		.uleb128 0x49
 4280 02fa 13       		.uleb128 0x13
 4281 02fb 00       		.byte	0
 4282 02fc 00       		.byte	0
 4283 02fd 3B       		.uleb128 0x3b
 4284 02fe 2E       		.uleb128 0x2e
 4285 02ff 01       		.byte	0x1
 4286 0300 31       		.uleb128 0x31
 4287 0301 13       		.uleb128 0x13
 4288 0302 11       		.uleb128 0x11
 4289 0303 01       		.uleb128 0x1
 4290 0304 12       		.uleb128 0x12
 4291 0305 06       		.uleb128 0x6
 4292 0306 40       		.uleb128 0x40
 4293 0307 18       		.uleb128 0x18
 4294 0308 9742     		.uleb128 0x2117
 4295 030a 19       		.uleb128 0x19
 4296 030b 01       		.uleb128 0x1
 4297 030c 13       		.uleb128 0x13
 4298 030d 00       		.byte	0
 4299 030e 00       		.byte	0
 4300 030f 3C       		.uleb128 0x3c
 4301 0310 05       		.uleb128 0x5
 4302 0311 00       		.byte	0
 4303 0312 31       		.uleb128 0x31
 4304 0313 13       		.uleb128 0x13
 4305 0314 02       		.uleb128 0x2
 4306 0315 18       		.uleb128 0x18
 4307 0316 00       		.byte	0
 4308 0317 00       		.byte	0
 4309 0318 3D       		.uleb128 0x3d
 4310 0319 2E       		.uleb128 0x2e
 4311 031a 00       		.byte	0
 4312 031b 3F       		.uleb128 0x3f
 4313 031c 19       		.uleb128 0x19
 4314 031d 3C       		.uleb128 0x3c
 4315 031e 19       		.uleb128 0x19
 4316 031f 6E       		.uleb128 0x6e
 4317 0320 0E       		.uleb128 0xe
 4318 0321 03       		.uleb128 0x3
 4319 0322 0E       		.uleb128 0xe
 4320 0323 3A       		.uleb128 0x3a
ARM GAS  /tmp/ccu5GyJp.s 			page 77


 4321 0324 0B       		.uleb128 0xb
 4322 0325 3B       		.uleb128 0x3b
 4323 0326 05       		.uleb128 0x5
 4324 0327 00       		.byte	0
 4325 0328 00       		.byte	0
 4326 0329 3E       		.uleb128 0x3e
 4327 032a 2E       		.uleb128 0x2e
 4328 032b 00       		.byte	0
 4329 032c 3F       		.uleb128 0x3f
 4330 032d 19       		.uleb128 0x19
 4331 032e 3C       		.uleb128 0x3c
 4332 032f 19       		.uleb128 0x19
 4333 0330 6E       		.uleb128 0x6e
 4334 0331 0E       		.uleb128 0xe
 4335 0332 03       		.uleb128 0x3
 4336 0333 0E       		.uleb128 0xe
 4337 0334 3A       		.uleb128 0x3a
 4338 0335 0B       		.uleb128 0xb
 4339 0336 3B       		.uleb128 0x3b
 4340 0337 0B       		.uleb128 0xb
 4341 0338 00       		.byte	0
 4342 0339 00       		.byte	0
 4343 033a 00       		.byte	0
 4344              		.section	.debug_loc,"",%progbits
 4345              	.Ldebug_loc0:
 4346              	.LLST12:
 4347 0000 00000000 		.4byte	.LVL49
 4348 0004 0C000000 		.4byte	.LVL50
 4349 0008 0100     		.2byte	0x1
 4350 000a 51       		.byte	0x51
 4351 000b 0C000000 		.4byte	.LVL50
 4352 000f 20000000 		.4byte	.LFE73
 4353 0013 0300     		.2byte	0x3
 4354 0015 71       		.byte	0x71
 4355 0016 01       		.sleb128 1
 4356 0017 9F       		.byte	0x9f
 4357 0018 00000000 		.4byte	0
 4358 001c 00000000 		.4byte	0
 4359              	.LLST11:
 4360 0020 00000000 		.4byte	.LVL46
 4361 0024 0C000000 		.4byte	.LVL47
 4362 0028 0100     		.2byte	0x1
 4363 002a 51       		.byte	0x51
 4364 002b 0C000000 		.4byte	.LVL47
 4365 002f 1A000000 		.4byte	.LFE71
 4366 0033 0300     		.2byte	0x3
 4367 0035 71       		.byte	0x71
 4368 0036 01       		.sleb128 1
 4369 0037 9F       		.byte	0x9f
 4370 0038 00000000 		.4byte	0
 4371 003c 00000000 		.4byte	0
 4372              	.LLST10:
 4373 0040 00000000 		.4byte	.LVL32
 4374 0044 2A000000 		.4byte	.LVL33
 4375 0048 0100     		.2byte	0x1
 4376 004a 50       		.byte	0x50
 4377 004b 2A000000 		.4byte	.LVL33
ARM GAS  /tmp/ccu5GyJp.s 			page 78


 4378 004f 2C000000 		.4byte	.LVL34
 4379 0053 0400     		.2byte	0x4
 4380 0055 F3       		.byte	0xf3
 4381 0056 01       		.uleb128 0x1
 4382 0057 50       		.byte	0x50
 4383 0058 9F       		.byte	0x9f
 4384 0059 2C000000 		.4byte	.LVL34
 4385 005d 2E000000 		.4byte	.LVL35
 4386 0061 0100     		.2byte	0x1
 4387 0063 50       		.byte	0x50
 4388 0064 2E000000 		.4byte	.LVL35
 4389 0068 42000000 		.4byte	.LVL37
 4390 006c 0400     		.2byte	0x4
 4391 006e F3       		.byte	0xf3
 4392 006f 01       		.uleb128 0x1
 4393 0070 50       		.byte	0x50
 4394 0071 9F       		.byte	0x9f
 4395 0072 42000000 		.4byte	.LVL37
 4396 0076 44000000 		.4byte	.LVL38
 4397 007a 0100     		.2byte	0x1
 4398 007c 50       		.byte	0x50
 4399 007d 44000000 		.4byte	.LVL38
 4400 0081 58000000 		.4byte	.LVL40
 4401 0085 0400     		.2byte	0x4
 4402 0087 F3       		.byte	0xf3
 4403 0088 01       		.uleb128 0x1
 4404 0089 50       		.byte	0x50
 4405 008a 9F       		.byte	0x9f
 4406 008b 58000000 		.4byte	.LVL40
 4407 008f 5A000000 		.4byte	.LVL41
 4408 0093 0100     		.2byte	0x1
 4409 0095 50       		.byte	0x50
 4410 0096 5A000000 		.4byte	.LVL41
 4411 009a 6E000000 		.4byte	.LVL43
 4412 009e 0400     		.2byte	0x4
 4413 00a0 F3       		.byte	0xf3
 4414 00a1 01       		.uleb128 0x1
 4415 00a2 50       		.byte	0x50
 4416 00a3 9F       		.byte	0x9f
 4417 00a4 6E000000 		.4byte	.LVL43
 4418 00a8 70000000 		.4byte	.LVL44
 4419 00ac 0100     		.2byte	0x1
 4420 00ae 50       		.byte	0x50
 4421 00af 70000000 		.4byte	.LVL44
 4422 00b3 98000000 		.4byte	.LFE70
 4423 00b7 0400     		.2byte	0x4
 4424 00b9 F3       		.byte	0xf3
 4425 00ba 01       		.uleb128 0x1
 4426 00bb 50       		.byte	0x50
 4427 00bc 9F       		.byte	0x9f
 4428 00bd 00000000 		.4byte	0
 4429 00c1 00000000 		.4byte	0
 4430              	.LLST8:
 4431 00c5 00000000 		.4byte	.LVL24
 4432 00c9 06000000 		.4byte	.LVL25
 4433 00cd 0100     		.2byte	0x1
 4434 00cf 50       		.byte	0x50
ARM GAS  /tmp/ccu5GyJp.s 			page 79


 4435 00d0 06000000 		.4byte	.LVL25
 4436 00d4 B8000000 		.4byte	.LFE69
 4437 00d8 0100     		.2byte	0x1
 4438 00da 54       		.byte	0x54
 4439 00db 00000000 		.4byte	0
 4440 00df 00000000 		.4byte	0
 4441              	.LLST9:
 4442 00e3 1E000000 		.4byte	.LVL26
 4443 00e7 28000000 		.4byte	.LVL27
 4444 00eb 0100     		.2byte	0x1
 4445 00ed 53       		.byte	0x53
 4446 00ee 00000000 		.4byte	0
 4447 00f2 00000000 		.4byte	0
 4448              	.LLST6:
 4449 00f6 00000000 		.4byte	.LVL15
 4450 00fa 24000000 		.4byte	.LVL18
 4451 00fe 0600     		.2byte	0x6
 4452 0100 03       		.byte	0x3
 4453 0101 00000000 		.4byte	GPTD4
 4454 0105 9F       		.byte	0x9f
 4455 0106 00000000 		.4byte	0
 4456 010a 00000000 		.4byte	0
 4457              	.LLST7:
 4458 010e 16000000 		.4byte	.LVL16
 4459 0112 1C000000 		.4byte	.LVL17
 4460 0116 0600     		.2byte	0x6
 4461 0118 03       		.byte	0x3
 4462 0119 00000000 		.4byte	GPTD4
 4463 011d 9F       		.byte	0x9f
 4464 011e 00000000 		.4byte	0
 4465 0122 00000000 		.4byte	0
 4466              	.LLST4:
 4467 0126 00000000 		.4byte	.LVL10
 4468 012a 24000000 		.4byte	.LVL13
 4469 012e 0600     		.2byte	0x6
 4470 0130 03       		.byte	0x3
 4471 0131 00000000 		.4byte	GPTD3
 4472 0135 9F       		.byte	0x9f
 4473 0136 00000000 		.4byte	0
 4474 013a 00000000 		.4byte	0
 4475              	.LLST5:
 4476 013e 16000000 		.4byte	.LVL11
 4477 0142 1C000000 		.4byte	.LVL12
 4478 0146 0600     		.2byte	0x6
 4479 0148 03       		.byte	0x3
 4480 0149 00000000 		.4byte	GPTD3
 4481 014d 9F       		.byte	0x9f
 4482 014e 00000000 		.4byte	0
 4483 0152 00000000 		.4byte	0
 4484              	.LLST2:
 4485 0156 00000000 		.4byte	.LVL5
 4486 015a 24000000 		.4byte	.LVL8
 4487 015e 0600     		.2byte	0x6
 4488 0160 03       		.byte	0x3
 4489 0161 00000000 		.4byte	GPTD2
 4490 0165 9F       		.byte	0x9f
 4491 0166 00000000 		.4byte	0
ARM GAS  /tmp/ccu5GyJp.s 			page 80


 4492 016a 00000000 		.4byte	0
 4493              	.LLST3:
 4494 016e 16000000 		.4byte	.LVL6
 4495 0172 1C000000 		.4byte	.LVL7
 4496 0176 0600     		.2byte	0x6
 4497 0178 03       		.byte	0x3
 4498 0179 00000000 		.4byte	GPTD2
 4499 017d 9F       		.byte	0x9f
 4500 017e 00000000 		.4byte	0
 4501 0182 00000000 		.4byte	0
 4502              	.LLST0:
 4503 0186 00000000 		.4byte	.LVL0
 4504 018a 24000000 		.4byte	.LVL3
 4505 018e 0600     		.2byte	0x6
 4506 0190 03       		.byte	0x3
 4507 0191 00000000 		.4byte	GPTD1
 4508 0195 9F       		.byte	0x9f
 4509 0196 00000000 		.4byte	0
 4510 019a 00000000 		.4byte	0
 4511              	.LLST1:
 4512 019e 16000000 		.4byte	.LVL1
 4513 01a2 1C000000 		.4byte	.LVL2
 4514 01a6 0600     		.2byte	0x6
 4515 01a8 03       		.byte	0x3
 4516 01a9 00000000 		.4byte	GPTD1
 4517 01ad 9F       		.byte	0x9f
 4518 01ae 00000000 		.4byte	0
 4519 01b2 00000000 		.4byte	0
 4520              		.section	.debug_aranges,"",%progbits
 4521 0000 64000000 		.4byte	0x64
 4522 0004 0200     		.2byte	0x2
 4523 0006 00000000 		.4byte	.Ldebug_info0
 4524 000a 04       		.byte	0x4
 4525 000b 00       		.byte	0
 4526 000c 0000     		.2byte	0
 4527 000e 0000     		.2byte	0
 4528 0010 00000000 		.4byte	.LFB64
 4529 0014 30000000 		.4byte	.LFE64-.LFB64
 4530 0018 00000000 		.4byte	.LFB65
 4531 001c 30000000 		.4byte	.LFE65-.LFB65
 4532 0020 00000000 		.4byte	.LFB66
 4533 0024 30000000 		.4byte	.LFE66-.LFB66
 4534 0028 00000000 		.4byte	.LFB67
 4535 002c 30000000 		.4byte	.LFE67-.LFB67
 4536 0030 00000000 		.4byte	.LFB68
 4537 0034 54000000 		.4byte	.LFE68-.LFB68
 4538 0038 00000000 		.4byte	.LFB69
 4539 003c B8000000 		.4byte	.LFE69-.LFB69
 4540 0040 00000000 		.4byte	.LFB70
 4541 0044 98000000 		.4byte	.LFE70-.LFB70
 4542 0048 00000000 		.4byte	.LFB71
 4543 004c 1A000000 		.4byte	.LFE71-.LFB71
 4544 0050 00000000 		.4byte	.LFB72
 4545 0054 0E000000 		.4byte	.LFE72-.LFB72
 4546 0058 00000000 		.4byte	.LFB73
 4547 005c 20000000 		.4byte	.LFE73-.LFB73
 4548 0060 00000000 		.4byte	0
ARM GAS  /tmp/ccu5GyJp.s 			page 81


 4549 0064 00000000 		.4byte	0
 4550              		.section	.debug_ranges,"",%progbits
 4551              	.Ldebug_ranges0:
 4552 0000 00000000 		.4byte	.LBB20
 4553 0004 04000000 		.4byte	.LBE20
 4554 0008 06000000 		.4byte	.LBB27
 4555 000c 24000000 		.4byte	.LBE27
 4556 0010 00000000 		.4byte	0
 4557 0014 00000000 		.4byte	0
 4558 0018 10000000 		.4byte	.LBB22
 4559 001c 12000000 		.4byte	.LBE22
 4560 0020 16000000 		.4byte	.LBB25
 4561 0024 1C000000 		.4byte	.LBE25
 4562 0028 00000000 		.4byte	0
 4563 002c 00000000 		.4byte	0
 4564 0030 00000000 		.4byte	.LBB28
 4565 0034 04000000 		.4byte	.LBE28
 4566 0038 06000000 		.4byte	.LBB35
 4567 003c 24000000 		.4byte	.LBE35
 4568 0040 00000000 		.4byte	0
 4569 0044 00000000 		.4byte	0
 4570 0048 10000000 		.4byte	.LBB30
 4571 004c 12000000 		.4byte	.LBE30
 4572 0050 16000000 		.4byte	.LBB33
 4573 0054 1C000000 		.4byte	.LBE33
 4574 0058 00000000 		.4byte	0
 4575 005c 00000000 		.4byte	0
 4576 0060 00000000 		.4byte	.LBB36
 4577 0064 04000000 		.4byte	.LBE36
 4578 0068 06000000 		.4byte	.LBB43
 4579 006c 24000000 		.4byte	.LBE43
 4580 0070 00000000 		.4byte	0
 4581 0074 00000000 		.4byte	0
 4582 0078 10000000 		.4byte	.LBB38
 4583 007c 12000000 		.4byte	.LBE38
 4584 0080 16000000 		.4byte	.LBB41
 4585 0084 1C000000 		.4byte	.LBE41
 4586 0088 00000000 		.4byte	0
 4587 008c 00000000 		.4byte	0
 4588 0090 00000000 		.4byte	.LBB44
 4589 0094 04000000 		.4byte	.LBE44
 4590 0098 06000000 		.4byte	.LBB51
 4591 009c 24000000 		.4byte	.LBE51
 4592 00a0 00000000 		.4byte	0
 4593 00a4 00000000 		.4byte	0
 4594 00a8 10000000 		.4byte	.LBB46
 4595 00ac 12000000 		.4byte	.LBE46
 4596 00b0 16000000 		.4byte	.LBB49
 4597 00b4 1C000000 		.4byte	.LBE49
 4598 00b8 00000000 		.4byte	0
 4599 00bc 00000000 		.4byte	0
 4600 00c0 00000000 		.4byte	.LFB64
 4601 00c4 30000000 		.4byte	.LFE64
 4602 00c8 00000000 		.4byte	.LFB65
 4603 00cc 30000000 		.4byte	.LFE65
 4604 00d0 00000000 		.4byte	.LFB66
 4605 00d4 30000000 		.4byte	.LFE66
ARM GAS  /tmp/ccu5GyJp.s 			page 82


 4606 00d8 00000000 		.4byte	.LFB67
 4607 00dc 30000000 		.4byte	.LFE67
 4608 00e0 00000000 		.4byte	.LFB68
 4609 00e4 54000000 		.4byte	.LFE68
 4610 00e8 00000000 		.4byte	.LFB69
 4611 00ec B8000000 		.4byte	.LFE69
 4612 00f0 00000000 		.4byte	.LFB70
 4613 00f4 98000000 		.4byte	.LFE70
 4614 00f8 00000000 		.4byte	.LFB71
 4615 00fc 1A000000 		.4byte	.LFE71
 4616 0100 00000000 		.4byte	.LFB72
 4617 0104 0E000000 		.4byte	.LFE72
 4618 0108 00000000 		.4byte	.LFB73
 4619 010c 20000000 		.4byte	.LFE73
 4620 0110 00000000 		.4byte	0
 4621 0114 00000000 		.4byte	0
 4622              		.section	.debug_line,"",%progbits
 4623              	.Ldebug_line0:
 4624 0000 18040000 		.section	.debug_str,"MS",%progbits,1
 4624      02006F02 
 4624      00000201 
 4624      FB0E0D00 
 4624      01010101 
 4625              	.LASF4:
 4626 0000 73697A65 		.ascii	"size_t\000"
 4626      5F7400
 4627              	.LASF57:
 4628 0007 73697A65 		.ascii	"sizetype\000"
 4628      74797065 
 4628      00
 4629              	.LASF103:
 4630 0010 63665F6F 		.ascii	"cf_off_name\000"
 4630      66665F6E 
 4630      616D6500 
 4631              	.LASF30:
 4632 001c 73797374 		.ascii	"systime_t\000"
 4632      696D655F 
 4632      7400
 4633              	.LASF92:
 4634 0026 63685F69 		.ascii	"ch_identifier\000"
 4634      64656E74 
 4634      69666965 
 4634      7200
 4635              	.LASF205:
 4636 0034 4C50435F 		.ascii	"LPC_SC_TypeDef\000"
 4636      53435F54 
 4636      79706544 
 4636      656600
 4637              	.LASF35:
 4638 0043 705F6374 		.ascii	"p_ctx\000"
 4638      7800
 4639              	.LASF26:
 4640 0049 74707269 		.ascii	"tprio_t\000"
 4640      6F5F7400 
 4641              	.LASF111:
 4642 0051 63685F64 		.ascii	"ch_debug\000"
 4642      65627567 
ARM GAS  /tmp/ccu5GyJp.s 			page 83


 4642      00
 4643              	.LASF170:
 4644 005a 464C4153 		.ascii	"FLASHCFG\000"
 4644      48434647 
 4644      00
 4645              	.LASF45:
 4646 0063 705F6D73 		.ascii	"p_msgqueue\000"
 4646      67717565 
 4646      756500
 4647              	.LASF69:
 4648 006e 725F6374 		.ascii	"r_ctx\000"
 4648      7800
 4649              	.LASF18:
 4650 0074 696E7433 		.ascii	"int32_t\000"
 4650      325F7400 
 4651              	.LASF254:
 4652 007c 77726974 		.ascii	"writet\000"
 4652      657400
 4653              	.LASF100:
 4654 0083 63665F6F 		.ascii	"cf_off_ctx\000"
 4654      66665F63 
 4654      747800
 4655              	.LASF177:
 4656 008e 504C4C31 		.ascii	"PLL1CON\000"
 4656      434F4E00 
 4657              	.LASF58:
 4658 0096 76746675 		.ascii	"vtfunc_t\000"
 4658      6E635F74 
 4658      00
 4659              	.LASF203:
 4660 009f 444D4152 		.ascii	"DMAREQSEL\000"
 4660      45515345 
 4660      4C00
 4661              	.LASF214:
 4662 00a9 4C50435F 		.ascii	"LPC_GPDMACH_TypeDef\000"
 4662      4750444D 
 4662      4143485F 
 4662      54797065 
 4662      44656600 
 4663              	.LASF250:
 4664 00bd 77726974 		.ascii	"write\000"
 4664      6500
 4665              	.LASF160:
 4666 00c3 4932535F 		.ascii	"I2S_IRQn\000"
 4666      4952516E 
 4666      00
 4667              	.LASF206:
 4668 00cc 43544352 		.ascii	"CTCR\000"
 4668      00
 4669              	.LASF84:
 4670 00d1 656C5F66 		.ascii	"el_flags\000"
 4670      6C616773 
 4670      00
 4671              	.LASF225:
 4672 00da 67707473 		.ascii	"gptstate_t\000"
 4672      74617465 
 4672      5F7400
ARM GAS  /tmp/ccu5GyJp.s 			page 84


 4673              	.LASF228:
 4674 00e5 636F6E66 		.ascii	"config\000"
 4674      696700
 4675              	.LASF227:
 4676 00ec 73746174 		.ascii	"state\000"
 4676      6500
 4677              	.LASF252:
 4678 00f2 70757474 		.ascii	"putt\000"
 4678      00
 4679              	.LASF96:
 4680 00f7 63685F70 		.ascii	"ch_ptrsize\000"
 4680      74727369 
 4680      7A6500
 4681              	.LASF180:
 4682 0102 504C4C31 		.ascii	"PLL1FEED\000"
 4682      46454544 
 4682      00
 4683              	.LASF148:
 4684 010b 53535031 		.ascii	"SSP1_IRQn\000"
 4684      5F495251 
 4684      6E00
 4685              	.LASF136:
 4686 0115 54494D45 		.ascii	"TIMER2_IRQn\000"
 4686      52325F49 
 4686      52516E00 
 4687              	.LASF234:
 4688 0121 63616C6C 		.ascii	"callback\000"
 4688      6261636B 
 4688      00
 4689              	.LASF78:
 4690 012a 6D5F6F77 		.ascii	"m_owner\000"
 4690      6E657200 
 4691              	.LASF64:
 4692 0132 76745F70 		.ascii	"vt_par\000"
 4692      617200
 4693              	.LASF88:
 4694 0139 65786974 		.ascii	"exitcode\000"
 4694      636F6465 
 4694      00
 4695              	.LASF5:
 4696 0142 5F5F7569 		.ascii	"__uint8_t\000"
 4696      6E74385F 
 4696      7400
 4697              	.LASF116:
 4698 014c 715F746F 		.ascii	"q_top\000"
 4698      7000
 4699              	.LASF210:
 4700 0152 43446573 		.ascii	"CDestAddr\000"
 4700      74416464 
 4700      7200
 4701              	.LASF90:
 4702 015c 65776D61 		.ascii	"ewmask\000"
 4702      736B00
 4703              	.LASF98:
 4704 0163 63685F74 		.ascii	"ch_threadsize\000"
 4704      68726561 
 4704      6473697A 
ARM GAS  /tmp/ccu5GyJp.s 			page 85


 4704      6500
 4705              	.LASF257:
 4706 0171 696E7465 		.ascii	"interval\000"
 4706      7276616C 
 4706      00
 4707              	.LASF255:
 4708 017a 72656164 		.ascii	"readt\000"
 4708      7400
 4709              	.LASF115:
 4710 0180 715F6275 		.ascii	"q_buffer\000"
 4710      66666572 
 4710      00
 4711              	.LASF166:
 4712 0189 55534241 		.ascii	"USBActivity_IRQn\000"
 4712      63746976 
 4712      6974795F 
 4712      4952516E 
 4712      00
 4713              	.LASF119:
 4714 019a 715F6E6F 		.ascii	"q_notify\000"
 4714      74696679 
 4714      00
 4715              	.LASF36:
 4716 01a3 705F6E65 		.ascii	"p_newer\000"
 4716      77657200 
 4717              	.LASF11:
 4718 01ab 6C6F6E67 		.ascii	"long int\000"
 4718      20696E74 
 4718      00
 4719              	.LASF32:
 4720 01b4 705F6E65 		.ascii	"p_next\000"
 4720      787400
 4721              	.LASF118:
 4722 01bb 715F7264 		.ascii	"q_rdptr\000"
 4722      70747200 
 4723              	.LASF147:
 4724 01c3 53535030 		.ascii	"SSP0_IRQn\000"
 4724      5F495251 
 4724      6E00
 4725              	.LASF267:
 4726 01cd 6E766963 		.ascii	"nvicDisableVector\000"
 4726      44697361 
 4726      626C6556 
 4726      6563746F 
 4726      7200
 4727              	.LASF105:
 4728 01df 63665F6F 		.ascii	"cf_off_state\000"
 4728      66665F73 
 4728      74617465 
 4728      00
 4729              	.LASF33:
 4730 01ec 705F7072 		.ascii	"p_prev\000"
 4730      657600
 4731              	.LASF236:
 4732 01f3 47505444 		.ascii	"GPTD1\000"
 4732      3100
 4733              	.LASF237:
ARM GAS  /tmp/ccu5GyJp.s 			page 86


 4734 01f9 47505444 		.ascii	"GPTD2\000"
 4734      3200
 4735              	.LASF238:
 4736 01ff 47505444 		.ascii	"GPTD3\000"
 4736      3300
 4737              	.LASF239:
 4738 0205 47505444 		.ascii	"GPTD4\000"
 4738      3400
 4739              	.LASF23:
 4740 020b 74737461 		.ascii	"tstate_t\000"
 4740      74655F74 
 4740      00
 4741              	.LASF48:
 4742 0214 705F6D74 		.ascii	"p_mtxlist\000"
 4742      786C6973 
 4742      7400
 4743              	.LASF269:
 4744 021e 6770744F 		.ascii	"gptObjectInit\000"
 4744      626A6563 
 4744      74496E69 
 4744      7400
 4745              	.LASF247:
 4746 022c 6F717565 		.ascii	"oqueue\000"
 4746      756500
 4747              	.LASF53:
 4748 0233 72656761 		.ascii	"regarm_t\000"
 4748      726D5F74 
 4748      00
 4749              	.LASF151:
 4750 023c 45494E54 		.ascii	"EINT0_IRQn\000"
 4750      305F4952 
 4750      516E00
 4751              	.LASF132:
 4752 0247 53797354 		.ascii	"SysTick_IRQn\000"
 4752      69636B5F 
 4752      4952516E 
 4752      00
 4753              	.LASF219:
 4754 0254 70616C5F 		.ascii	"pal_default_config\000"
 4754      64656661 
 4754      756C745F 
 4754      636F6E66 
 4754      696700
 4755              	.LASF3:
 4756 0267 7369676E 		.ascii	"signed char\000"
 4756      65642063 
 4756      68617200 
 4757              	.LASF42:
 4758 0273 705F7072 		.ascii	"p_preempt\000"
 4758      65656D70 
 4758      7400
 4759              	.LASF16:
 4760 027d 75696E74 		.ascii	"uint8_t\000"
 4760      385F7400 
 4761              	.LASF158:
 4762 0285 43414E5F 		.ascii	"CAN_IRQn\000"
 4762      4952516E 
ARM GAS  /tmp/ccu5GyJp.s 			page 87


 4762      00
 4763              	.LASF28:
 4764 028e 6576656E 		.ascii	"eventmask_t\000"
 4764      746D6173 
 4764      6B5F7400 
 4765              	.LASF56:
 4766 029a 636F6E74 		.ascii	"context\000"
 4766      65787400 
 4767              	.LASF171:
 4768 02a2 52455345 		.ascii	"RESERVED0\000"
 4768      52564544 
 4768      3000
 4769              	.LASF176:
 4770 02ac 52455345 		.ascii	"RESERVED1\000"
 4770      52564544 
 4770      3100
 4771              	.LASF6:
 4772 02b6 756E7369 		.ascii	"unsigned char\000"
 4772      676E6564 
 4772      20636861 
 4772      7200
 4773              	.LASF184:
 4774 02c4 52455345 		.ascii	"RESERVED3\000"
 4774      52564544 
 4774      3300
 4775              	.LASF190:
 4776 02ce 52455345 		.ascii	"RESERVED4\000"
 4776      52564544 
 4776      3400
 4777              	.LASF120:
 4778 02d8 715F6C69 		.ascii	"q_link\000"
 4778      6E6B00
 4779              	.LASF195:
 4780 02df 52455345 		.ascii	"RESERVED6\000"
 4780      52564544 
 4780      3600
 4781              	.LASF197:
 4782 02e9 52455345 		.ascii	"RESERVED7\000"
 4782      52564544 
 4782      3700
 4783              	.LASF201:
 4784 02f3 52455345 		.ascii	"RESERVED8\000"
 4784      52564544 
 4784      3800
 4785              	.LASF61:
 4786 02fd 76745F70 		.ascii	"vt_prev\000"
 4786      72657600 
 4787              	.LASF173:
 4788 0305 504C4C30 		.ascii	"PLL0CFG\000"
 4788      43464700 
 4789              	.LASF157:
 4790 030d 5553425F 		.ascii	"USB_IRQn\000"
 4790      4952516E 
 4790      00
 4791              	.LASF175:
 4792 0316 504C4C30 		.ascii	"PLL0FEED\000"
 4792      46454544 
ARM GAS  /tmp/ccu5GyJp.s 			page 88


 4792      00
 4793              	.LASF70:
 4794 031f 725F6E65 		.ascii	"r_newer\000"
 4794      77657200 
 4795              	.LASF240:
 4796 0327 53445F55 		.ascii	"SD_UNINIT\000"
 4796      4E494E49 
 4796      5400
 4797              	.LASF21:
 4798 0331 5F426F6F 		.ascii	"_Bool\000"
 4798      6C00
 4799              	.LASF202:
 4800 0337 55534249 		.ascii	"USBIntSt\000"
 4800      6E745374 
 4800      00
 4801              	.LASF181:
 4802 0340 52455345 		.ascii	"RESERVED2\000"
 4802      52564544 
 4802      3200
 4803              	.LASF192:
 4804 034a 52455345 		.ascii	"RESERVED5\000"
 4804      52564544 
 4804      3500
 4805              	.LASF128:
 4806 0354 55736167 		.ascii	"UsageFault_IRQn\000"
 4806      65466175 
 4806      6C745F49 
 4806      52516E00 
 4807              	.LASF276:
 4808 0364 6770745F 		.ascii	"gpt_lld_serve_interrupt\000"
 4808      6C6C645F 
 4808      73657276 
 4808      655F696E 
 4808      74657272 
 4809              	.LASF91:
 4810 037c 63686172 		.ascii	"char\000"
 4810      00
 4811              	.LASF220:
 4812 0381 4750545F 		.ascii	"GPT_UNINIT\000"
 4812      554E494E 
 4812      495400
 4813              	.LASF34:
 4814 038c 705F7072 		.ascii	"p_prio\000"
 4814      696F00
 4815              	.LASF8:
 4816 0393 5F5F7569 		.ascii	"__uint16_t\000"
 4816      6E743136 
 4816      5F7400
 4817              	.LASF208:
 4818 039e 4C50435F 		.ascii	"LPC_UART_TypeDef\000"
 4818      55415254 
 4818      5F547970 
 4818      65446566 
 4818      00
 4819              	.LASF112:
 4820 03af 47656E65 		.ascii	"GenericQueue\000"
 4820      72696351 
ARM GAS  /tmp/ccu5GyJp.s 			page 89


 4820      75657565 
 4820      00
 4821              	.LASF194:
 4822 03bc 45585450 		.ascii	"EXTPOLAR\000"
 4822      4F4C4152 
 4822      00
 4823              	.LASF89:
 4824 03c5 77746F62 		.ascii	"wtobjp\000"
 4824      6A7000
 4825              	.LASF101:
 4826 03cc 63665F6F 		.ascii	"cf_off_newer\000"
 4826      66665F6E 
 4826      65776572 
 4826      00
 4827              	.LASF140:
 4828 03d9 55415254 		.ascii	"UART2_IRQn\000"
 4828      325F4952 
 4828      516E00
 4829              	.LASF253:
 4830 03e4 67657474 		.ascii	"gett\000"
 4830      00
 4831              	.LASF54:
 4832 03e9 73746B61 		.ascii	"stkalign_t\000"
 4832      6C69676E 
 4832      5F7400
 4833              	.LASF123:
 4834 03f4 4F757470 		.ascii	"OutputQueue\000"
 4834      75745175 
 4834      65756500 
 4835              	.LASF99:
 4836 0400 63665F6F 		.ascii	"cf_off_prio\000"
 4836      66665F70 
 4836      72696F00 
 4837              	.LASF262:
 4838 040c 6770745F 		.ascii	"gpt_lld_init\000"
 4838      6C6C645F 
 4838      696E6974 
 4838      00
 4839              	.LASF63:
 4840 0419 76745F66 		.ascii	"vt_func\000"
 4840      756E6300 
 4841              	.LASF154:
 4842 0421 45494E54 		.ascii	"EINT3_IRQn\000"
 4842      335F4952 
 4842      516E00
 4843              	.LASF55:
 4844 042c 696E7463 		.ascii	"intctx\000"
 4844      747800
 4845              	.LASF47:
 4846 0433 705F6570 		.ascii	"p_epending\000"
 4846      656E6469 
 4846      6E6700
 4847              	.LASF139:
 4848 043e 55415254 		.ascii	"UART1_IRQn\000"
 4848      315F4952 
 4848      516E00
 4849              	.LASF191:
ARM GAS  /tmp/ccu5GyJp.s 			page 90


 4850 0449 45585449 		.ascii	"EXTINT\000"
 4850      4E5400
 4851              	.LASF266:
 4852 0450 56656374 		.ascii	"Vector44\000"
 4852      6F723434 
 4852      00
 4853              	.LASF265:
 4854 0459 56656374 		.ascii	"Vector48\000"
 4854      6F723438 
 4854      00
 4855              	.LASF264:
 4856 0462 56656374 		.ascii	"Vector4C\000"
 4856      6F723443 
 4856      00
 4857              	.LASF185:
 4858 046b 43434C4B 		.ascii	"CCLKCFG\000"
 4858      43464700 
 4859              	.LASF199:
 4860 0473 50434C4B 		.ascii	"PCLKSEL0\000"
 4860      53454C30 
 4860      00
 4861              	.LASF200:
 4862 047c 50434C4B 		.ascii	"PCLKSEL1\000"
 4862      53454C31 
 4862      00
 4863              	.LASF86:
 4864 0485 65735F6E 		.ascii	"es_next\000"
 4864      65787400 
 4865              	.LASF114:
 4866 048d 715F636F 		.ascii	"q_counter\000"
 4866      756E7465 
 4866      7200
 4867              	.LASF212:
 4868 0497 43436F6E 		.ascii	"CControl\000"
 4868      74726F6C 
 4868      00
 4869              	.LASF125:
 4870 04a0 4E6F6E4D 		.ascii	"NonMaskableInt_IRQn\000"
 4870      61736B61 
 4870      626C6549 
 4870      6E745F49 
 4870      52516E00 
 4871              	.LASF85:
 4872 04b4 4576656E 		.ascii	"EventSource\000"
 4872      74536F75 
 4872      72636500 
 4873              	.LASF14:
 4874 04c0 5F5F7569 		.ascii	"__uint64_t\000"
 4874      6E743634 
 4874      5F7400
 4875              	.LASF263:
 4876 04cb 56656374 		.ascii	"Vector50\000"
 4876      6F723530 
 4876      00
 4877              	.LASF13:
 4878 04d4 6C6F6E67 		.ascii	"long unsigned int\000"
 4878      20756E73 
ARM GAS  /tmp/ccu5GyJp.s 			page 91


 4878      69676E65 
 4878      6420696E 
 4878      7400
 4879              	.LASF93:
 4880 04e6 63685F7A 		.ascii	"ch_zero\000"
 4880      65726F00 
 4881              	.LASF153:
 4882 04ee 45494E54 		.ascii	"EINT2_IRQn\000"
 4882      325F4952 
 4882      516E00
 4883              	.LASF126:
 4884 04f9 4D656D6F 		.ascii	"MemoryManagement_IRQn\000"
 4884      72794D61 
 4884      6E616765 
 4884      6D656E74 
 4884      5F495251 
 4885              	.LASF169:
 4886 050f 53797374 		.ascii	"SystemCoreClock\000"
 4886      656D436F 
 4886      7265436C 
 4886      6F636B00 
 4887              	.LASF231:
 4888 051f 67707466 		.ascii	"gptfreq_t\000"
 4888      7265715F 
 4888      7400
 4889              	.LASF188:
 4890 0529 43414E53 		.ascii	"CANSLEEPCLR\000"
 4890      4C454550 
 4890      434C5200 
 4891              	.LASF81:
 4892 0535 656C5F6E 		.ascii	"el_next\000"
 4892      65787400 
 4893              	.LASF117:
 4894 053d 715F7772 		.ascii	"q_wrptr\000"
 4894      70747200 
 4895              	.LASF165:
 4896 0545 504C4C31 		.ascii	"PLL1_IRQn\000"
 4896      5F495251 
 4896      6E00
 4897              	.LASF215:
 4898 054f 5F6C7063 		.ascii	"_lpc17xx_dma_channel_config_t\000"
 4898      31377878 
 4898      5F646D61 
 4898      5F636861 
 4898      6E6E656C 
 4899              	.LASF249:
 4900 056d 53657269 		.ascii	"SerialDriverVMT\000"
 4900      616C4472 
 4900      69766572 
 4900      564D5400 
 4901              	.LASF259:
 4902 057d 6770745F 		.ascii	"gpt_lld_start_timer\000"
 4902      6C6C645F 
 4902      73746172 
 4902      745F7469 
 4902      6D657200 
 4903              	.LASF229:
ARM GAS  /tmp/ccu5GyJp.s 			page 92


 4904 0591 636C6F63 		.ascii	"clock\000"
 4904      6B00
 4905              	.LASF235:
 4906 0597 47505443 		.ascii	"GPTConfig\000"
 4906      6F6E6669 
 4906      6700
 4907              	.LASF145:
 4908 05a1 49324332 		.ascii	"I2C2_IRQn\000"
 4908      5F495251 
 4908      6E00
 4909              	.LASF133:
 4910 05ab 5744545F 		.ascii	"WDT_IRQn\000"
 4910      4952516E 
 4910      00
 4911              	.LASF187:
 4912 05b4 434C4B53 		.ascii	"CLKSRCSEL\000"
 4912      52435345 
 4912      4C00
 4913              	.LASF127:
 4914 05be 42757346 		.ascii	"BusFault_IRQn\000"
 4914      61756C74 
 4914      5F495251 
 4914      6E00
 4915              	.LASF209:
 4916 05cc 43537263 		.ascii	"CSrcAddr\000"
 4916      41646472 
 4916      00
 4917              	.LASF108:
 4918 05d5 63665F6F 		.ascii	"cf_off_preempt\000"
 4918      66665F70 
 4918      7265656D 
 4918      707400
 4919              	.LASF12:
 4920 05e4 5F5F7569 		.ascii	"__uint32_t\000"
 4920      6E743332 
 4920      5F7400
 4921              	.LASF135:
 4922 05ef 54494D45 		.ascii	"TIMER1_IRQn\000"
 4922      52315F49 
 4922      52516E00 
 4923              	.LASF76:
 4924 05fb 4D757465 		.ascii	"Mutex\000"
 4924      7800
 4925              	.LASF1:
 4926 0601 6C6F6E67 		.ascii	"long long int\000"
 4926      206C6F6E 
 4926      6720696E 
 4926      7400
 4927              	.LASF95:
 4928 060f 63685F76 		.ascii	"ch_version\000"
 4928      65727369 
 4928      6F6E00
 4929              	.LASF77:
 4930 061a 6D5F7175 		.ascii	"m_queue\000"
 4930      65756500 
 4931              	.LASF226:
 4932 0622 47505444 		.ascii	"GPTDriver\000"
ARM GAS  /tmp/ccu5GyJp.s 			page 93


 4932      72697665 
 4932      7200
 4933              	.LASF60:
 4934 062c 76745F6E 		.ascii	"vt_next\000"
 4934      65787400 
 4935              	.LASF149:
 4936 0634 504C4C30 		.ascii	"PLL0_IRQn\000"
 4936      5F495251 
 4936      6E00
 4937              	.LASF129:
 4938 063e 53564361 		.ascii	"SVCall_IRQn\000"
 4938      6C6C5F49 
 4938      52516E00 
 4939              	.LASF256:
 4940 064a 67707470 		.ascii	"gptp\000"
 4940      00
 4941              	.LASF162:
 4942 064f 5249545F 		.ascii	"RIT_IRQn\000"
 4942      4952516E 
 4942      00
 4943              	.LASF172:
 4944 0658 504C4C30 		.ascii	"PLL0CON\000"
 4944      434F4E00 
 4945              	.LASF168:
 4946 0660 49544D5F 		.ascii	"ITM_RxBuffer\000"
 4946      52784275 
 4946      66666572 
 4946      00
 4947              	.LASF183:
 4948 066d 50434F4E 		.ascii	"PCONP\000"
 4948      5000
 4949              	.LASF233:
 4950 0673 66726571 		.ascii	"frequency\000"
 4950      75656E63 
 4950      7900
 4951              	.LASF121:
 4952 067d 716E6F74 		.ascii	"qnotify_t\000"
 4952      6966795F 
 4952      7400
 4953              	.LASF224:
 4954 0687 4750545F 		.ascii	"GPT_ONESHOT\000"
 4954      4F4E4553 
 4954      484F5400 
 4955              	.LASF44:
 4956 0693 705F7761 		.ascii	"p_waiting\000"
 4956      6974696E 
 4956      6700
 4957              	.LASF245:
 4958 069d 6576656E 		.ascii	"event\000"
 4958      7400
 4959              	.LASF40:
 4960 06a3 705F666C 		.ascii	"p_flags\000"
 4960      61677300 
 4961              	.LASF134:
 4962 06ab 54494D45 		.ascii	"TIMER0_IRQn\000"
 4962      52305F49 
 4962      52516E00 
ARM GAS  /tmp/ccu5GyJp.s 			page 94


 4963              	.LASF251:
 4964 06b7 72656164 		.ascii	"read\000"
 4964      00
 4965              	.LASF243:
 4966 06bc 73647374 		.ascii	"sdstate_t\000"
 4966      6174655F 
 4966      7400
 4967              	.LASF179:
 4968 06c6 504C4C31 		.ascii	"PLL1STAT\000"
 4968      53544154 
 4968      00
 4969              	.LASF0:
 4970 06cf 756E7369 		.ascii	"unsigned int\000"
 4970      676E6564 
 4970      20696E74 
 4970      00
 4971              	.LASF104:
 4972 06dc 63665F6F 		.ascii	"cf_off_stklimit\000"
 4972      66665F73 
 4972      746B6C69 
 4972      6D697400 
 4973              	.LASF50:
 4974 06ec 705F6D70 		.ascii	"p_mpool\000"
 4974      6F6F6C00 
 4975              	.LASF41:
 4976 06f4 705F7265 		.ascii	"p_refs\000"
 4976      667300
 4977              	.LASF167:
 4978 06fb 43414E41 		.ascii	"CANActivity_IRQn\000"
 4978      63746976 
 4978      6974795F 
 4978      4952516E 
 4978      00
 4979              	.LASF97:
 4980 070c 63685F74 		.ascii	"ch_timesize\000"
 4980      696D6573 
 4980      697A6500 
 4981              	.LASF271:
 4982 0718 474E5520 		.ascii	"GNU C11 6.3.1 20170620 -mcpu=cortex-m3 -mno-thumb-i"
 4982      43313120 
 4982      362E332E 
 4982      31203230 
 4982      31373036 
 4983 074b 6E746572 		.ascii	"nterwork -mthumb -ggdb -O2 -fomit-frame-pointer -ff"
 4983      776F726B 
 4983      202D6D74 
 4983      68756D62 
 4983      202D6767 
 4984 077e 756E6374 		.ascii	"unction-sections -fdata-sections -fno-common\000"
 4984      696F6E2D 
 4984      73656374 
 4984      696F6E73 
 4984      202D6664 
 4985              	.LASF270:
 4986 07ab 5F706F72 		.ascii	"_port_irq_epilogue\000"
 4986      745F6972 
 4986      715F6570 
ARM GAS  /tmp/ccu5GyJp.s 			page 95


 4986      696C6F67 
 4986      756500
 4987              	.LASF52:
 4988 07be 54687265 		.ascii	"ThreadsList\000"
 4988      6164734C 
 4988      69737400 
 4989              	.LASF182:
 4990 07ca 50434F4E 		.ascii	"PCON\000"
 4990      00
 4991              	.LASF163:
 4992 07cf 4D435057 		.ascii	"MCPWM_IRQn\000"
 4992      4D5F4952 
 4992      516E00
 4993              	.LASF29:
 4994 07da 666C6167 		.ascii	"flagsmask_t\000"
 4994      736D6173 
 4994      6B5F7400 
 4995              	.LASF198:
 4996 07e6 49524354 		.ascii	"IRCTRIM\000"
 4996      52494D00 
 4997              	.LASF204:
 4998 07ee 434C4B4F 		.ascii	"CLKOUTCFG\000"
 4998      55544346 
 4998      4700
 4999              	.LASF144:
 5000 07f8 49324331 		.ascii	"I2C1_IRQn\000"
 5000      5F495251 
 5000      6E00
 5001              	.LASF43:
 5002 0802 705F7469 		.ascii	"p_time\000"
 5002      6D6500
 5003              	.LASF107:
 5004 0809 63665F6F 		.ascii	"cf_off_refs\000"
 5004      66665F72 
 5004      65667300 
 5005              	.LASF207:
 5006 0815 4C50435F 		.ascii	"LPC_TIM_TypeDef\000"
 5006      54494D5F 
 5006      54797065 
 5006      44656600 
 5007              	.LASF164:
 5008 0825 5145495F 		.ascii	"QEI_IRQn\000"
 5008      4952516E 
 5008      00
 5009              	.LASF274:
 5010 082e 4952516E 		.ascii	"IRQn\000"
 5010      00
 5011              	.LASF196:
 5012 0833 52534944 		.ascii	"RSID\000"
 5012      00
 5013              	.LASF2:
 5014 0838 6C6F6E67 		.ascii	"long double\000"
 5014      20646F75 
 5014      626C6500 
 5015              	.LASF258:
 5016 0844 6770745F 		.ascii	"gpt_lld_polled_delay\000"
 5016      6C6C645F 
ARM GAS  /tmp/ccu5GyJp.s 			page 96


 5016      706F6C6C 
 5016      65645F64 
 5016      656C6179 
 5017              	.LASF49:
 5018 0859 705F7265 		.ascii	"p_realprio\000"
 5018      616C7072 
 5018      696F00
 5019              	.LASF109:
 5020 0864 63665F6F 		.ascii	"cf_off_time\000"
 5020      66665F74 
 5020      696D6500 
 5021              	.LASF273:
 5022 0870 2F686F6D 		.ascii	"/home/ekobayu/Arok-Gandring-Lokajaya/LPC/ChibiOS-RT"
 5022      652F656B 
 5022      6F626179 
 5022      752F4172 
 5022      6F6B2D47 
 5023 08a3 2D4C5043 		.ascii	"-LPC/demos/LPC1766\000"
 5023      2F64656D 
 5023      6F732F4C 
 5023      50433137 
 5023      363600
 5024              	.LASF15:
 5025 08b6 6C6F6E67 		.ascii	"long long unsigned int\000"
 5025      206C6F6E 
 5025      6720756E 
 5025      7369676E 
 5025      65642069 
 5026              	.LASF37:
 5027 08cd 705F6F6C 		.ascii	"p_older\000"
 5027      64657200 
 5028              	.LASF17:
 5029 08d5 75696E74 		.ascii	"uint16_t\000"
 5029      31365F74 
 5029      00
 5030              	.LASF27:
 5031 08de 6D73675F 		.ascii	"msg_t\000"
 5031      7400
 5032              	.LASF275:
 5033 08e4 6770745F 		.ascii	"gpt_lld_stop_timer\000"
 5033      6C6C645F 
 5033      73746F70 
 5033      5F74696D 
 5033      657200
 5034              	.LASF106:
 5035 08f7 63665F6F 		.ascii	"cf_off_flags\000"
 5035      66665F66 
 5035      6C616773 
 5035      00
 5036              	.LASF174:
 5037 0904 504C4C30 		.ascii	"PLL0STAT\000"
 5037      53544154 
 5037      00
 5038              	.LASF25:
 5039 090d 74736C69 		.ascii	"tslices_t\000"
 5039      6365735F 
 5039      7400
ARM GAS  /tmp/ccu5GyJp.s 			page 97


 5040              	.LASF222:
 5041 0917 4750545F 		.ascii	"GPT_READY\000"
 5041      52454144 
 5041      5900
 5042              	.LASF223:
 5043 0921 4750545F 		.ascii	"GPT_CONTINUOUS\000"
 5043      434F4E54 
 5043      494E554F 
 5043      555300
 5044              	.LASF72:
 5045 0930 725F6375 		.ascii	"r_current\000"
 5045      7272656E 
 5045      7400
 5046              	.LASF66:
 5047 093a 56544C69 		.ascii	"VTList\000"
 5047      737400
 5048              	.LASF137:
 5049 0941 54494D45 		.ascii	"TIMER3_IRQn\000"
 5049      52335F49 
 5049      52516E00 
 5050              	.LASF161:
 5051 094d 454E4554 		.ascii	"ENET_IRQn\000"
 5051      5F495251 
 5051      6E00
 5052              	.LASF155:
 5053 0957 4144435F 		.ascii	"ADC_IRQn\000"
 5053      4952516E 
 5053      00
 5054              	.LASF178:
 5055 0960 504C4C31 		.ascii	"PLL1CFG\000"
 5055      43464700 
 5056              	.LASF143:
 5057 0968 49324330 		.ascii	"I2C0_IRQn\000"
 5057      5F495251 
 5057      6E00
 5058              	.LASF211:
 5059 0972 434C4C49 		.ascii	"CLLI\000"
 5059      00
 5060              	.LASF138:
 5061 0977 55415254 		.ascii	"UART0_IRQn\000"
 5061      305F4952 
 5061      516E00
 5062              	.LASF67:
 5063 0982 725F7175 		.ascii	"r_queue\000"
 5063      65756500 
 5064              	.LASF244:
 5065 098a 53657269 		.ascii	"SerialDriver\000"
 5065      616C4472 
 5065      69766572 
 5065      00
 5066              	.LASF186:
 5067 0997 55534243 		.ascii	"USBCLKCFG\000"
 5067      4C4B4346 
 5067      4700
 5068              	.LASF113:
 5069 09a1 715F7761 		.ascii	"q_waiting\000"
 5069      6974696E 
ARM GAS  /tmp/ccu5GyJp.s 			page 98


 5069      6700
 5070              	.LASF146:
 5071 09ab 5350495F 		.ascii	"SPI_IRQn\000"
 5071      4952516E 
 5071      00
 5072              	.LASF75:
 5073 09b4 726C6973 		.ascii	"rlist\000"
 5073      7400
 5074              	.LASF22:
 5075 09ba 746D6F64 		.ascii	"tmode_t\000"
 5075      655F7400 
 5076              	.LASF232:
 5077 09c2 67707463 		.ascii	"gptcnt_t\000"
 5077      6E745F74 
 5077      00
 5078              	.LASF260:
 5079 09cb 6770745F 		.ascii	"gpt_lld_stop\000"
 5079      6C6C645F 
 5079      73746F70 
 5079      00
 5080              	.LASF130:
 5081 09d8 44656275 		.ascii	"DebugMonitor_IRQn\000"
 5081      674D6F6E 
 5081      69746F72 
 5081      5F495251 
 5081      6E00
 5082              	.LASF65:
 5083 09ea 76745F73 		.ascii	"vt_systime\000"
 5083      79737469 
 5083      6D6500
 5084              	.LASF242:
 5085 09f5 53445F52 		.ascii	"SD_READY\000"
 5085      45414459 
 5085      00
 5086              	.LASF71:
 5087 09fe 725F6F6C 		.ascii	"r_older\000"
 5087      64657200 
 5088              	.LASF152:
 5089 0a06 45494E54 		.ascii	"EINT1_IRQn\000"
 5089      315F4952 
 5089      516E00
 5090              	.LASF193:
 5091 0a11 4558544D 		.ascii	"EXTMODE\000"
 5091      4F444500 
 5092              	.LASF7:
 5093 0a19 73686F72 		.ascii	"short int\000"
 5093      7420696E 
 5093      7400
 5094              	.LASF20:
 5095 0a23 75696E74 		.ascii	"uint64_t\000"
 5095      36345F74 
 5095      00
 5096              	.LASF142:
 5097 0a2c 50574D31 		.ascii	"PWM1_IRQn\000"
 5097      5F495251 
 5097      6E00
 5098              	.LASF248:
ARM GAS  /tmp/ccu5GyJp.s 			page 99


 5099 0a36 75617274 		.ascii	"uart\000"
 5099      00
 5100              	.LASF246:
 5101 0a3b 69717565 		.ascii	"iqueue\000"
 5101      756500
 5102              	.LASF68:
 5103 0a42 725F7072 		.ascii	"r_prio\000"
 5103      696F00
 5104              	.LASF217:
 5105 0a49 6C706331 		.ascii	"lpc17xx_gpio_setup_t\000"
 5105      3778785F 
 5105      6770696F 
 5105      5F736574 
 5105      75705F74 
 5106              	.LASF102:
 5107 0a5e 63665F6F 		.ascii	"cf_off_older\000"
 5107      66665F6F 
 5107      6C646572 
 5107      00
 5108              	.LASF156:
 5109 0a6b 424F445F 		.ascii	"BOD_IRQn\000"
 5109      4952516E 
 5109      00
 5110              	.LASF159:
 5111 0a74 444D415F 		.ascii	"DMA_IRQn\000"
 5111      4952516E 
 5111      00
 5112              	.LASF218:
 5113 0a7d 50414C43 		.ascii	"PALConfig\000"
 5113      6F6E6669 
 5113      6700
 5114              	.LASF31:
 5115 0a87 54687265 		.ascii	"Thread\000"
 5115      616400
 5116              	.LASF74:
 5117 0a8e 76746C69 		.ascii	"vtlist\000"
 5117      737400
 5118              	.LASF213:
 5119 0a95 43436F6E 		.ascii	"CConfig\000"
 5119      66696700 
 5120              	.LASF24:
 5121 0a9d 74726566 		.ascii	"trefs_t\000"
 5121      735F7400 
 5122              	.LASF124:
 5123 0aa5 5F69646C 		.ascii	"_idle_thread_wa\000"
 5123      655F7468 
 5123      72656164 
 5123      5F776100 
 5124              	.LASF80:
 5125 0ab5 4576656E 		.ascii	"EventListener\000"
 5125      744C6973 
 5125      74656E65 
 5125      7200
 5126              	.LASF268:
 5127 0ac3 6E766963 		.ascii	"nvicEnableVector\000"
 5127      456E6162 
 5127      6C655665 
ARM GAS  /tmp/ccu5GyJp.s 			page 100


 5127      63746F72 
 5127      00
 5128              	.LASF19:
 5129 0ad4 75696E74 		.ascii	"uint32_t\000"
 5129      33325F74 
 5129      00
 5130              	.LASF59:
 5131 0add 56697274 		.ascii	"VirtualTimer\000"
 5131      75616C54 
 5131      696D6572 
 5131      00
 5132              	.LASF51:
 5133 0aea 54687265 		.ascii	"ThreadsQueue\000"
 5133      61647351 
 5133      75657565 
 5133      00
 5134              	.LASF141:
 5135 0af7 55415254 		.ascii	"UART3_IRQn\000"
 5135      335F4952 
 5135      516E00
 5136              	.LASF87:
 5137 0b02 7264796D 		.ascii	"rdymsg\000"
 5137      736700
 5138              	.LASF221:
 5139 0b09 4750545F 		.ascii	"GPT_STOP\000"
 5139      53544F50 
 5139      00
 5140              	.LASF9:
 5141 0b12 73686F72 		.ascii	"short unsigned int\000"
 5141      7420756E 
 5141      7369676E 
 5141      65642069 
 5141      6E7400
 5142              	.LASF272:
 5143 0b25 2E2E2F2E 		.ascii	"../../os/hal/platforms/LPC17xx/gpt_lld.c\000"
 5143      2E2F6F73 
 5143      2F68616C 
 5143      2F706C61 
 5143      74666F72 
 5144              	.LASF110:
 5145 0b4e 63686465 		.ascii	"chdebug_t\000"
 5145      6275675F 
 5145      7400
 5146              	.LASF122:
 5147 0b58 496E7075 		.ascii	"InputQueue\000"
 5147      74517565 
 5147      756500
 5148              	.LASF131:
 5149 0b63 50656E64 		.ascii	"PendSV_IRQn\000"
 5149      53565F49 
 5149      52516E00 
 5150              	.LASF94:
 5151 0b6f 63685F73 		.ascii	"ch_size\000"
 5151      697A6500 
 5152              	.LASF189:
 5153 0b77 43414E57 		.ascii	"CANWAKEFLAGS\000"
 5153      414B4546 
ARM GAS  /tmp/ccu5GyJp.s 			page 101


 5153      4C414753 
 5153      00
 5154              	.LASF10:
 5155 0b84 5F5F696E 		.ascii	"__int32_t\000"
 5155      7433325F 
 5155      7400
 5156              	.LASF241:
 5157 0b8e 53445F53 		.ascii	"SD_STOP\000"
 5157      544F5000 
 5158              	.LASF83:
 5159 0b96 656C5F6D 		.ascii	"el_mask\000"
 5159      61736B00 
 5160              	.LASF73:
 5161 0b9e 52656164 		.ascii	"ReadyList\000"
 5161      794C6973 
 5161      7400
 5162              	.LASF38:
 5163 0ba8 705F6E61 		.ascii	"p_name\000"
 5163      6D6500
 5164              	.LASF62:
 5165 0baf 76745F74 		.ascii	"vt_time\000"
 5165      696D6500 
 5166              	.LASF216:
 5167 0bb7 64617461 		.ascii	"data\000"
 5167      00
 5168              	.LASF79:
 5169 0bbc 6D5F6E65 		.ascii	"m_next\000"
 5169      787400
 5170              	.LASF261:
 5171 0bc3 6770745F 		.ascii	"gpt_lld_start\000"
 5171      6C6C645F 
 5171      73746172 
 5171      7400
 5172              	.LASF230:
 5173 0bd1 67707463 		.ascii	"gptcallback_t\000"
 5173      616C6C62 
 5173      61636B5F 
 5173      7400
 5174              	.LASF150:
 5175 0bdf 5254435F 		.ascii	"RTC_IRQn\000"
 5175      4952516E 
 5175      00
 5176              	.LASF46:
 5177 0be8 705F6D73 		.ascii	"p_msg\000"
 5177      6700
 5178              	.LASF82:
 5179 0bee 656C5F6C 		.ascii	"el_listener\000"
 5179      69737465 
 5179      6E657200 
 5180              	.LASF39:
 5181 0bfa 705F7374 		.ascii	"p_state\000"
 5181      61746500 
 5182              		.ident	"GCC: (15:6.3.1+svn253039-1build1) 6.3.1 20170620"
ARM GAS  /tmp/ccu5GyJp.s 			page 102


DEFINED SYMBOLS
                            *ABS*:0000000000000000 gpt_lld.c
     /tmp/ccu5GyJp.s:16     .text.Vector44:0000000000000000 $t
     /tmp/ccu5GyJp.s:24     .text.Vector44:0000000000000000 Vector44
     /tmp/ccu5GyJp.s:97     .text.Vector44:000000000000002c $d
     /tmp/ccu5GyJp.s:102    .text.Vector48:0000000000000000 $t
     /tmp/ccu5GyJp.s:110    .text.Vector48:0000000000000000 Vector48
     /tmp/ccu5GyJp.s:182    .text.Vector48:000000000000002c $d
     /tmp/ccu5GyJp.s:187    .text.Vector4C:0000000000000000 $t
     /tmp/ccu5GyJp.s:195    .text.Vector4C:0000000000000000 Vector4C
     /tmp/ccu5GyJp.s:267    .text.Vector4C:000000000000002c $d
     /tmp/ccu5GyJp.s:272    .text.Vector50:0000000000000000 $t
     /tmp/ccu5GyJp.s:280    .text.Vector50:0000000000000000 Vector50
     /tmp/ccu5GyJp.s:352    .text.Vector50:000000000000002c $d
     /tmp/ccu5GyJp.s:357    .text.gpt_lld_init:0000000000000000 $t
     /tmp/ccu5GyJp.s:365    .text.gpt_lld_init:0000000000000000 gpt_lld_init
     /tmp/ccu5GyJp.s:425    .text.gpt_lld_init:0000000000000038 $d
     /tmp/ccu5GyJp.s:436    .text.gpt_lld_start:0000000000000000 $t
     /tmp/ccu5GyJp.s:444    .text.gpt_lld_start:0000000000000000 gpt_lld_start
     /tmp/ccu5GyJp.s:569    .text.gpt_lld_start:00000000000000a0 $d
     /tmp/ccu5GyJp.s:579    .text.gpt_lld_stop:0000000000000000 $t
     /tmp/ccu5GyJp.s:587    .text.gpt_lld_stop:0000000000000000 gpt_lld_stop
     /tmp/ccu5GyJp.s:690    .text.gpt_lld_stop:0000000000000084 $d
     /tmp/ccu5GyJp.s:699    .text.gpt_lld_start_timer:0000000000000000 $t
     /tmp/ccu5GyJp.s:707    .text.gpt_lld_start_timer:0000000000000000 gpt_lld_start_timer
     /tmp/ccu5GyJp.s:748    .text.gpt_lld_stop_timer:0000000000000000 $t
     /tmp/ccu5GyJp.s:756    .text.gpt_lld_stop_timer:0000000000000000 gpt_lld_stop_timer
     /tmp/ccu5GyJp.s:779    .text.gpt_lld_polled_delay:0000000000000000 $t
     /tmp/ccu5GyJp.s:787    .text.gpt_lld_polled_delay:0000000000000000 gpt_lld_polled_delay
     /tmp/ccu5GyJp.s:862    .bss.GPTD4:0000000000000000 GPTD4
     /tmp/ccu5GyJp.s:855    .bss.GPTD3:0000000000000000 GPTD3
     /tmp/ccu5GyJp.s:848    .bss.GPTD2:0000000000000000 GPTD2
     /tmp/ccu5GyJp.s:841    .bss.GPTD1:0000000000000000 GPTD1
     /tmp/ccu5GyJp.s:837    .bss.GPTD1:0000000000000000 $d
     /tmp/ccu5GyJp.s:844    .bss.GPTD2:0000000000000000 $d
     /tmp/ccu5GyJp.s:851    .bss.GPTD3:0000000000000000 $d
     /tmp/ccu5GyJp.s:858    .bss.GPTD4:0000000000000000 $d
                     .debug_frame:0000000000000010 $d

UNDEFINED SYMBOLS
_port_irq_epilogue
gptObjectInit
nvicEnableVector
nvicDisableVector
