ARM GAS  /tmp/ccxOSucU.s 			page 1


   1              		.cpu cortex-m3
   2              		.eabi_attribute 20, 1
   3              		.eabi_attribute 21, 1
   4              		.eabi_attribute 23, 3
   5              		.eabi_attribute 24, 1
   6              		.eabi_attribute 25, 1
   7              		.eabi_attribute 26, 1
   8              		.eabi_attribute 30, 2
   9              		.eabi_attribute 34, 1
  10              		.eabi_attribute 18, 4
  11              		.file	"hal.c"
  12              		.text
  13              	.Ltext0:
  14              		.cfi_sections	.debug_frame
  15              		.section	.text.halInit,"ax",%progbits
  16              		.align	1
  17              		.p2align 2,,3
  18              		.global	halInit
  19              		.syntax unified
  20              		.thumb
  21              		.thumb_func
  22              		.fpu softvfp
  23              		.type	halInit, %function
  24              	halInit:
  25              	.LFB63:
  26              		.file 1 "../../os/hal/src/hal.c"
  27              		.loc 1 61 0
  28              		.cfi_startproc
  29              		@ args = 0, pretend = 0, frame = 0
  30              		@ frame_needed = 0, uses_anonymous_args = 0
  31 0000 08B5     		push	{r3, lr}
  32              		.cfi_def_cfa_offset 8
  33              		.cfi_offset 3, -8
  34              		.cfi_offset 14, -4
  35              		.loc 1 63 0
  36 0002 FFF7FEFF 		bl	hal_lld_init
  37              	.LVL0:
  38              		.loc 1 69 0
  39 0006 0548     		ldr	r0, .L3
  40 0008 FFF7FEFF 		bl	_pal_lld_init
  41              	.LVL1:
  42              		.loc 1 84 0
  43 000c FFF7FEFF 		bl	gptInit
  44              	.LVL2:
  45              		.loc 1 99 0
  46 0010 FFF7FEFF 		bl	sdInit
  47              	.LVL3:
  48              		.loc 1 124 0
  49 0014 BDE80840 		pop	{r3, lr}
  50              		.cfi_restore 14
  51              		.cfi_restore 3
  52              		.cfi_def_cfa_offset 0
  53              		.loc 1 123 0
  54 0018 FFF7FEBF 		b	boardInit
  55              	.LVL4:
  56              	.L4:
  57              		.align	2
ARM GAS  /tmp/ccxOSucU.s 			page 2


  58              	.L3:
  59 001c 00000000 		.word	pal_default_config
  60              		.cfi_endproc
  61              	.LFE63:
  62              		.size	halInit, .-halInit
  63              		.section	.text.halIsCounterWithin,"ax",%progbits
  64              		.align	1
  65              		.p2align 2,,3
  66              		.global	halIsCounterWithin
  67              		.syntax unified
  68              		.thumb
  69              		.thumb_func
  70              		.fpu softvfp
  71              		.type	halIsCounterWithin, %function
  72              	halIsCounterWithin:
  73              	.LFB64:
  74              		.loc 1 170 0
  75              		.cfi_startproc
  76              		@ args = 0, pretend = 0, frame = 0
  77              		@ frame_needed = 0, uses_anonymous_args = 0
  78              		@ link register save eliminated.
  79              	.LVL5:
  80              		.loc 1 171 0
  81 0000 084B     		ldr	r3, .L15
  82              		.loc 1 173 0
  83 0002 8142     		cmp	r1, r0
  84              		.loc 1 171 0
  85 0004 5B68     		ldr	r3, [r3, #4]
  86              	.LVL6:
  87              		.loc 1 173 0
  88 0006 06D9     		bls	.L6
  89              		.loc 1 173 0 is_stmt 0 discriminator 1
  90 0008 8342     		cmp	r3, r0
  91 000a 08D3     		bcc	.L14
  92              	.L12:
  93              		.loc 1 174 0 is_stmt 1 discriminator 2
  94 000c 8B42     		cmp	r3, r1
  95 000e 2CBF     		ite	cs
  96 0010 0020     		movcs	r0, #0
  97              	.LVL7:
  98 0012 0120     		movcc	r0, #1
  99 0014 7047     		bx	lr
 100              	.LVL8:
 101              	.L6:
 102              		.loc 1 174 0 is_stmt 0
 103 0016 8342     		cmp	r3, r0
 104 0018 F8D3     		bcc	.L12
 105 001a 0120     		movs	r0, #1
 106              	.LVL9:
 107              		.loc 1 175 0 is_stmt 1
 108 001c 7047     		bx	lr
 109              	.LVL10:
 110              	.L14:
 111 001e 0020     		movs	r0, #0
 112              	.LVL11:
 113 0020 7047     		bx	lr
 114              	.L16:
ARM GAS  /tmp/ccxOSucU.s 			page 3


 115 0022 00BF     		.align	2
 116              	.L15:
 117 0024 001000E0 		.word	-536866816
 118              		.cfi_endproc
 119              	.LFE64:
 120              		.size	halIsCounterWithin, .-halIsCounterWithin
 121              		.section	.text.halPolledDelay,"ax",%progbits
 122              		.align	1
 123              		.p2align 2,,3
 124              		.global	halPolledDelay
 125              		.syntax unified
 126              		.thumb
 127              		.thumb_func
 128              		.fpu softvfp
 129              		.type	halPolledDelay, %function
 130              	halPolledDelay:
 131              	.LFB65:
 132              		.loc 1 189 0
 133              		.cfi_startproc
 134              		@ args = 0, pretend = 0, frame = 0
 135              		@ frame_needed = 0, uses_anonymous_args = 0
 136              		@ link register save eliminated.
 137              	.LVL12:
 138              		.loc 1 190 0
 139 0000 084B     		ldr	r3, .L23
 140              	.LBB4:
 141              	.LBB5:
 142              		.loc 1 171 0
 143 0002 1946     		mov	r1, r3
 144              	.LBE5:
 145              	.LBE4:
 146              		.loc 1 190 0
 147 0004 5A68     		ldr	r2, [r3, #4]
 148              	.LVL13:
 149              		.loc 1 191 0
 150 0006 1044     		add	r0, r0, r2
 151              	.LVL14:
 152              	.L21:
 153              	.LBB8:
 154              	.LBB6:
 155              		.loc 1 173 0 discriminator 1
 156 0008 8242     		cmp	r2, r0
 157              		.loc 1 171 0 discriminator 1
 158 000a 4B68     		ldr	r3, [r1, #4]
 159              	.LVL15:
 160              		.loc 1 173 0 discriminator 1
 161 000c 02D2     		bcs	.L18
 162              		.loc 1 173 0 is_stmt 0
 163 000e 9A42     		cmp	r2, r3
 164 0010 05D9     		bls	.L22
 165 0012 7047     		bx	lr
 166              	.L18:
 167              	.LVL16:
 168              		.loc 1 174 0 is_stmt 1
 169 0014 9A42     		cmp	r2, r3
 170 0016 F7D9     		bls	.L21
 171              	.LBE6:
ARM GAS  /tmp/ccxOSucU.s 			page 4


 172              	.LBE8:
 173              		.loc 1 192 0
 174 0018 9842     		cmp	r0, r3
 175 001a F5D8     		bhi	.L21
 176 001c 7047     		bx	lr
 177              	.LVL17:
 178              	.L22:
 179              	.LBB9:
 180              	.LBB7:
 181              		.loc 1 173 0
 182 001e 9842     		cmp	r0, r3
 183 0020 F2D8     		bhi	.L21
 184 0022 7047     		bx	lr
 185              	.L24:
 186              		.align	2
 187              	.L23:
 188 0024 001000E0 		.word	-536866816
 189              	.LBE7:
 190              	.LBE9:
 191              		.cfi_endproc
 192              	.LFE65:
 193              		.size	halPolledDelay, .-halPolledDelay
 194              		.text
 195              	.Letext0:
 196              		.file 2 "/usr/lib/gcc/arm-none-eabi/6.3.1/include/stddef.h"
 197              		.file 3 "/usr/include/newlib/machine/_default_types.h"
 198              		.file 4 "/usr/include/newlib/sys/_stdint.h"
 199              		.file 5 "../../os/ports/GCC/ARMCMx/chtypes.h"
 200              		.file 6 "../../os/kernel/include/chlists.h"
 201              		.file 7 "../../os/kernel/include/chthreads.h"
 202              		.file 8 "../../os/ports/GCC/ARMCMx/chcore_v7m.h"
 203              		.file 9 "../../os/ports/common/ARMCMx/nvic.h"
 204              		.file 10 "../../os/kernel/include/chvt.h"
 205              		.file 11 "../../os/kernel/include/chschd.h"
 206              		.file 12 "../../os/kernel/include/chmtx.h"
 207              		.file 13 "../../os/kernel/include/chevents.h"
 208              		.file 14 "../../os/kernel/include/chregistry.h"
 209              		.file 15 "../../os/kernel/include/chqueues.h"
 210              		.file 16 "../../os/kernel/include/ch.h"
 211              		.file 17 "../../os/ports/common/ARMCMx/CMSIS/include/core_cm3.h"
 212              		.file 18 "../../os/hal/platforms/LPC17xx/system_LPC17xx.h"
 213              		.file 19 "../../os/hal/platforms/LPC17xx/LPC17xx.h"
 214              		.file 20 "../../os/hal/platforms/LPC17xx/hal_lld.h"
 215              		.file 21 "../../os/hal/platforms/LPC17xx/lpc17xx_dma.h"
 216              		.file 22 "../../os/hal/platforms/LPC17xx/pal_lld.h"
 217              		.file 23 "../../os/hal/include/gpt.h"
 218              		.file 24 "../../os/hal/platforms/LPC17xx/gpt_lld.h"
 219              		.file 25 "../../os/hal/include/serial.h"
 220              		.file 26 "../../os/hal/platforms/LPC17xx/serial_lld.h"
 221              		.file 27 "../../boards/LPC1766/board.h"
 222              		.section	.debug_info,"",%progbits
 223              	.Ldebug_info0:
 224 0000 FA0F0000 		.4byte	0xffa
 225 0004 0400     		.2byte	0x4
 226 0006 00000000 		.4byte	.Ldebug_abbrev0
 227 000a 04       		.byte	0x4
 228 000b 01       		.uleb128 0x1
ARM GAS  /tmp/ccxOSucU.s 			page 5


 229 000c F0040000 		.4byte	.LASF200
 230 0010 0C       		.byte	0xc
 231 0011 22070000 		.4byte	.LASF201
 232 0015 E1050000 		.4byte	.LASF202
 233 0019 20000000 		.4byte	.Ldebug_ranges0+0x20
 234 001d 00000000 		.4byte	0
 235 0021 00000000 		.4byte	.Ldebug_line0
 236 0025 02       		.uleb128 0x2
 237 0026 04       		.byte	0x4
 238 0027 05       		.byte	0x5
 239 0028 696E7400 		.ascii	"int\000"
 240 002c 03       		.uleb128 0x3
 241 002d 0E000000 		.4byte	.LASF4
 242 0031 02       		.byte	0x2
 243 0032 D8       		.byte	0xd8
 244 0033 37000000 		.4byte	0x37
 245 0037 04       		.uleb128 0x4
 246 0038 04       		.byte	0x4
 247 0039 07       		.byte	0x7
 248 003a 8D040000 		.4byte	.LASF0
 249 003e 04       		.uleb128 0x4
 250 003f 08       		.byte	0x8
 251 0040 05       		.byte	0x5
 252 0041 08040000 		.4byte	.LASF1
 253 0045 04       		.uleb128 0x4
 254 0046 08       		.byte	0x8
 255 0047 04       		.byte	0x4
 256 0048 BE050000 		.4byte	.LASF2
 257 004c 04       		.uleb128 0x4
 258 004d 01       		.byte	0x1
 259 004e 06       		.byte	0x6
 260 004f E5010000 		.4byte	.LASF3
 261 0053 03       		.uleb128 0x3
 262 0054 0C010000 		.4byte	.LASF5
 263 0058 03       		.byte	0x3
 264 0059 1D       		.byte	0x1d
 265 005a 5E000000 		.4byte	0x5e
 266 005e 04       		.uleb128 0x4
 267 005f 01       		.byte	0x1
 268 0060 08       		.byte	0x8
 269 0061 41020000 		.4byte	.LASF6
 270 0065 04       		.uleb128 0x4
 271 0066 02       		.byte	0x2
 272 0067 05       		.byte	0x5
 273 0068 0F070000 		.4byte	.LASF7
 274 006c 03       		.uleb128 0x3
 275 006d 97020000 		.4byte	.LASF8
 276 0071 03       		.byte	0x3
 277 0072 2B       		.byte	0x2b
 278 0073 77000000 		.4byte	0x77
 279 0077 04       		.uleb128 0x4
 280 0078 02       		.byte	0x2
 281 0079 07       		.byte	0x7
 282 007a FF070000 		.4byte	.LASF9
 283 007e 03       		.uleb128 0x3
 284 007f 2F080000 		.4byte	.LASF10
 285 0083 03       		.byte	0x3
ARM GAS  /tmp/ccxOSucU.s 			page 6


 286 0084 3F       		.byte	0x3f
 287 0085 89000000 		.4byte	0x89
 288 0089 04       		.uleb128 0x4
 289 008a 04       		.byte	0x4
 290 008b 05       		.byte	0x5
 291 008c 64010000 		.4byte	.LASF11
 292 0090 03       		.uleb128 0x3
 293 0091 F7030000 		.4byte	.LASF12
 294 0095 03       		.byte	0x3
 295 0096 41       		.byte	0x41
 296 0097 9B000000 		.4byte	0x9b
 297 009b 04       		.uleb128 0x4
 298 009c 04       		.byte	0x4
 299 009d 07       		.byte	0x7
 300 009e 58030000 		.4byte	.LASF13
 301 00a2 03       		.uleb128 0x3
 302 00a3 4D030000 		.4byte	.LASF14
 303 00a7 03       		.byte	0x3
 304 00a8 5B       		.byte	0x5b
 305 00a9 AD000000 		.4byte	0xad
 306 00ad 04       		.uleb128 0x4
 307 00ae 08       		.byte	0x8
 308 00af 07       		.byte	0x7
 309 00b0 27060000 		.4byte	.LASF15
 310 00b4 03       		.uleb128 0x3
 311 00b5 FB010000 		.4byte	.LASF16
 312 00b9 04       		.byte	0x4
 313 00ba 18       		.byte	0x18
 314 00bb 53000000 		.4byte	0x53
 315 00bf 05       		.uleb128 0x5
 316 00c0 B4000000 		.4byte	0xb4
 317 00c4 03       		.uleb128 0x3
 318 00c5 46060000 		.4byte	.LASF17
 319 00c9 04       		.byte	0x4
 320 00ca 24       		.byte	0x24
 321 00cb 6C000000 		.4byte	0x6c
 322 00cf 03       		.uleb128 0x3
 323 00d0 78000000 		.4byte	.LASF18
 324 00d4 04       		.byte	0x4
 325 00d5 2C       		.byte	0x2c
 326 00d6 7E000000 		.4byte	0x7e
 327 00da 06       		.uleb128 0x6
 328 00db CF000000 		.4byte	0xcf
 329 00df 03       		.uleb128 0x3
 330 00e0 CC070000 		.4byte	.LASF19
 331 00e4 04       		.byte	0x4
 332 00e5 30       		.byte	0x30
 333 00e6 90000000 		.4byte	0x90
 334 00ea 06       		.uleb128 0x6
 335 00eb DF000000 		.4byte	0xdf
 336 00ef 05       		.uleb128 0x5
 337 00f0 EA000000 		.4byte	0xea
 338 00f4 03       		.uleb128 0x3
 339 00f5 19070000 		.4byte	.LASF20
 340 00f9 04       		.byte	0x4
 341 00fa 3C       		.byte	0x3c
 342 00fb A2000000 		.4byte	0xa2
ARM GAS  /tmp/ccxOSucU.s 			page 7


 343 00ff 03       		.uleb128 0x3
 344 0100 6B070000 		.4byte	.LASF21
 345 0104 05       		.byte	0x5
 346 0105 24       		.byte	0x24
 347 0106 0A010000 		.4byte	0x10a
 348 010a 04       		.uleb128 0x4
 349 010b 01       		.byte	0x1
 350 010c 02       		.byte	0x2
 351 010d 70020000 		.4byte	.LASF22
 352 0111 03       		.uleb128 0x3
 353 0112 D6060000 		.4byte	.LASF23
 354 0116 05       		.byte	0x5
 355 0117 25       		.byte	0x25
 356 0118 B4000000 		.4byte	0xb4
 357 011c 03       		.uleb128 0x3
 358 011d A8010000 		.4byte	.LASF24
 359 0121 05       		.byte	0x5
 360 0122 26       		.byte	0x26
 361 0123 B4000000 		.4byte	0xb4
 362 0127 03       		.uleb128 0x3
 363 0128 A6070000 		.4byte	.LASF25
 364 012c 05       		.byte	0x5
 365 012d 27       		.byte	0x27
 366 012e B4000000 		.4byte	0xb4
 367 0132 03       		.uleb128 0x3
 368 0133 62060000 		.4byte	.LASF26
 369 0137 05       		.byte	0x5
 370 0138 28       		.byte	0x28
 371 0139 B4000000 		.4byte	0xb4
 372 013d 03       		.uleb128 0x3
 373 013e 4E000000 		.4byte	.LASF27
 374 0142 05       		.byte	0x5
 375 0143 29       		.byte	0x29
 376 0144 DF000000 		.4byte	0xdf
 377 0148 03       		.uleb128 0x3
 378 0149 4F060000 		.4byte	.LASF28
 379 014d 05       		.byte	0x5
 380 014e 2A       		.byte	0x2a
 381 014f CF000000 		.4byte	0xcf
 382 0153 03       		.uleb128 0x3
 383 0154 19020000 		.4byte	.LASF29
 384 0158 05       		.byte	0x5
 385 0159 2C       		.byte	0x2c
 386 015a DF000000 		.4byte	0xdf
 387 015e 03       		.uleb128 0x3
 388 015f 8F050000 		.4byte	.LASF30
 389 0163 05       		.byte	0x5
 390 0164 2D       		.byte	0x2d
 391 0165 DF000000 		.4byte	0xdf
 392 0169 03       		.uleb128 0x3
 393 016a 30000000 		.4byte	.LASF31
 394 016e 05       		.byte	0x5
 395 016f 2E       		.byte	0x2e
 396 0170 DF000000 		.4byte	0xdf
 397 0174 06       		.uleb128 0x6
 398 0175 69010000 		.4byte	0x169
 399 0179 03       		.uleb128 0x3
ARM GAS  /tmp/ccxOSucU.s 			page 8


 400 017a 89070000 		.4byte	.LASF32
 401 017e 06       		.byte	0x6
 402 017f 23       		.byte	0x23
 403 0180 84010000 		.4byte	0x184
 404 0184 07       		.uleb128 0x7
 405 0185 89070000 		.4byte	.LASF32
 406 0189 48       		.byte	0x48
 407 018a 07       		.byte	0x7
 408 018b 57       		.byte	0x57
 409 018c 81020000 		.4byte	0x281
 410 0190 08       		.uleb128 0x8
 411 0191 6D010000 		.4byte	.LASF33
 412 0195 07       		.byte	0x7
 413 0196 58       		.byte	0x58
 414 0197 A2020000 		.4byte	0x2a2
 415 019b 00       		.byte	0
 416 019c 08       		.uleb128 0x8
 417 019d 89010000 		.4byte	.LASF34
 418 01a1 07       		.byte	0x7
 419 01a2 5A       		.byte	0x5a
 420 01a3 A2020000 		.4byte	0x2a2
 421 01a7 04       		.byte	0x4
 422 01a8 08       		.uleb128 0x8
 423 01a9 90020000 		.4byte	.LASF35
 424 01ad 07       		.byte	0x7
 425 01ae 5C       		.byte	0x5c
 426 01af 3D010000 		.4byte	0x13d
 427 01b3 08       		.byte	0x8
 428 01b4 08       		.uleb128 0x8
 429 01b5 48000000 		.4byte	.LASF36
 430 01b9 07       		.byte	0x7
 431 01ba 5D       		.byte	0x5d
 432 01bb 67030000 		.4byte	0x367
 433 01bf 0C       		.byte	0xc
 434 01c0 08       		.uleb128 0x8
 435 01c1 5C010000 		.4byte	.LASF37
 436 01c5 07       		.byte	0x7
 437 01c6 5F       		.byte	0x5f
 438 01c7 A2020000 		.4byte	0x2a2
 439 01cb 10       		.byte	0x10
 440 01cc 08       		.uleb128 0x8
 441 01cd 3E060000 		.4byte	.LASF38
 442 01d1 07       		.byte	0x7
 443 01d2 60       		.byte	0x60
 444 01d3 A2020000 		.4byte	0x2a2
 445 01d7 14       		.byte	0x14
 446 01d8 08       		.uleb128 0x8
 447 01d9 5B080000 		.4byte	.LASF39
 448 01dd 07       		.byte	0x7
 449 01de 67       		.byte	0x67
 450 01df 2C060000 		.4byte	0x62c
 451 01e3 18       		.byte	0x18
 452 01e4 08       		.uleb128 0x8
 453 01e5 96080000 		.4byte	.LASF40
 454 01e9 07       		.byte	0x7
 455 01ea 72       		.byte	0x72
 456 01eb 1C010000 		.4byte	0x11c
ARM GAS  /tmp/ccxOSucU.s 			page 9


 457 01ef 1C       		.byte	0x1c
 458 01f0 08       		.uleb128 0x8
 459 01f1 80040000 		.4byte	.LASF41
 460 01f5 07       		.byte	0x7
 461 01f6 76       		.byte	0x76
 462 01f7 11010000 		.4byte	0x111
 463 01fb 1D       		.byte	0x1d
 464 01fc 08       		.uleb128 0x8
 465 01fd BF040000 		.4byte	.LASF42
 466 0201 07       		.byte	0x7
 467 0202 7B       		.byte	0x7b
 468 0203 27010000 		.4byte	0x127
 469 0207 1E       		.byte	0x1e
 470 0208 08       		.uleb128 0x8
 471 0209 F1010000 		.4byte	.LASF43
 472 020d 07       		.byte	0x7
 473 020e 81       		.byte	0x81
 474 020f 32010000 		.4byte	0x132
 475 0213 1F       		.byte	0x1f
 476 0214 08       		.uleb128 0x8
 477 0215 9B050000 		.4byte	.LASF44
 478 0219 07       		.byte	0x7
 479 021a 88       		.byte	0x88
 480 021b 74010000 		.4byte	0x174
 481 021f 20       		.byte	0x20
 482 0220 09       		.uleb128 0x9
 483 0221 705F7500 		.ascii	"p_u\000"
 484 0225 07       		.byte	0x7
 485 0226 AD       		.byte	0xad
 486 0227 F7050000 		.4byte	0x5f7
 487 022b 24       		.byte	0x24
 488 022c 08       		.uleb128 0x8
 489 022d 70040000 		.4byte	.LASF45
 490 0231 07       		.byte	0x7
 491 0232 B2       		.byte	0xb2
 492 0233 C8020000 		.4byte	0x2c8
 493 0237 28       		.byte	0x28
 494 0238 08       		.uleb128 0x8
 495 0239 67000000 		.4byte	.LASF46
 496 023d 07       		.byte	0x7
 497 023e B8       		.byte	0xb8
 498 023f A8020000 		.4byte	0x2a8
 499 0243 2C       		.byte	0x2c
 500 0244 08       		.uleb128 0x8
 501 0245 84080000 		.4byte	.LASF47
 502 0249 07       		.byte	0x7
 503 024a BC       		.byte	0xbc
 504 024b 48010000 		.4byte	0x148
 505 024f 34       		.byte	0x34
 506 0250 08       		.uleb128 0x8
 507 0251 01030000 		.4byte	.LASF48
 508 0255 07       		.byte	0x7
 509 0256 C2       		.byte	0xc2
 510 0257 53010000 		.4byte	0x153
 511 025b 38       		.byte	0x38
 512 025c 08       		.uleb128 0x8
 513 025d B1010000 		.4byte	.LASF49
ARM GAS  /tmp/ccxOSucU.s 			page 10


 514 0261 07       		.byte	0x7
 515 0262 C9       		.byte	0xc9
 516 0263 3E060000 		.4byte	0x63e
 517 0267 3C       		.byte	0x3c
 518 0268 08       		.uleb128 0x8
 519 0269 CA050000 		.4byte	.LASF50
 520 026d 07       		.byte	0x7
 521 026e CD       		.byte	0xcd
 522 026f 3D010000 		.4byte	0x13d
 523 0273 40       		.byte	0x40
 524 0274 08       		.uleb128 0x8
 525 0275 AF040000 		.4byte	.LASF51
 526 0279 07       		.byte	0x7
 527 027a D3       		.byte	0xd3
 528 027b DE020000 		.4byte	0x2de
 529 027f 44       		.byte	0x44
 530 0280 00       		.byte	0
 531 0281 0A       		.uleb128 0xa
 532 0282 08       		.byte	0x8
 533 0283 06       		.byte	0x6
 534 0284 5A       		.byte	0x5a
 535 0285 A2020000 		.4byte	0x2a2
 536 0289 08       		.uleb128 0x8
 537 028a 6D010000 		.4byte	.LASF33
 538 028e 06       		.byte	0x6
 539 028f 5B       		.byte	0x5b
 540 0290 A2020000 		.4byte	0x2a2
 541 0294 00       		.byte	0
 542 0295 08       		.uleb128 0x8
 543 0296 89010000 		.4byte	.LASF34
 544 029a 06       		.byte	0x6
 545 029b 5D       		.byte	0x5d
 546 029c A2020000 		.4byte	0x2a2
 547 02a0 04       		.byte	0x4
 548 02a1 00       		.byte	0
 549 02a2 0B       		.uleb128 0xb
 550 02a3 04       		.byte	0x4
 551 02a4 79010000 		.4byte	0x179
 552 02a8 03       		.uleb128 0x3
 553 02a9 E2070000 		.4byte	.LASF52
 554 02ad 06       		.byte	0x6
 555 02ae 5F       		.byte	0x5f
 556 02af 81020000 		.4byte	0x281
 557 02b3 0A       		.uleb128 0xa
 558 02b4 04       		.byte	0x4
 559 02b5 06       		.byte	0x6
 560 02b6 64       		.byte	0x64
 561 02b7 C8020000 		.4byte	0x2c8
 562 02bb 08       		.uleb128 0x8
 563 02bc 6D010000 		.4byte	.LASF33
 564 02c0 06       		.byte	0x6
 565 02c1 66       		.byte	0x66
 566 02c2 A2020000 		.4byte	0x2a2
 567 02c6 00       		.byte	0
 568 02c7 00       		.byte	0
 569 02c8 03       		.uleb128 0x3
 570 02c9 83050000 		.4byte	.LASF53
ARM GAS  /tmp/ccxOSucU.s 			page 11


 571 02cd 06       		.byte	0x6
 572 02ce 69       		.byte	0x69
 573 02cf B3020000 		.4byte	0x2b3
 574 02d3 03       		.uleb128 0x3
 575 02d4 C2010000 		.4byte	.LASF54
 576 02d8 08       		.byte	0x8
 577 02d9 DE       		.byte	0xde
 578 02da DE020000 		.4byte	0x2de
 579 02de 0C       		.uleb128 0xc
 580 02df 04       		.byte	0x4
 581 02e0 03       		.uleb128 0x3
 582 02e1 CF020000 		.4byte	.LASF55
 583 02e5 08       		.byte	0x8
 584 02e6 E4       		.byte	0xe4
 585 02e7 F4000000 		.4byte	0xf4
 586 02eb 0D       		.uleb128 0xd
 587 02ec FA020000 		.4byte	.LASF56
 588 02f0 24       		.byte	0x24
 589 02f1 08       		.byte	0x8
 590 02f2 0501     		.2byte	0x105
 591 02f4 67030000 		.4byte	0x367
 592 02f8 0E       		.uleb128 0xe
 593 02f9 723400   		.ascii	"r4\000"
 594 02fc 08       		.byte	0x8
 595 02fd 1801     		.2byte	0x118
 596 02ff D3020000 		.4byte	0x2d3
 597 0303 00       		.byte	0
 598 0304 0E       		.uleb128 0xe
 599 0305 723500   		.ascii	"r5\000"
 600 0308 08       		.byte	0x8
 601 0309 1901     		.2byte	0x119
 602 030b D3020000 		.4byte	0x2d3
 603 030f 04       		.byte	0x4
 604 0310 0E       		.uleb128 0xe
 605 0311 723600   		.ascii	"r6\000"
 606 0314 08       		.byte	0x8
 607 0315 1A01     		.2byte	0x11a
 608 0317 D3020000 		.4byte	0x2d3
 609 031b 08       		.byte	0x8
 610 031c 0E       		.uleb128 0xe
 611 031d 723700   		.ascii	"r7\000"
 612 0320 08       		.byte	0x8
 613 0321 1B01     		.2byte	0x11b
 614 0323 D3020000 		.4byte	0x2d3
 615 0327 0C       		.byte	0xc
 616 0328 0E       		.uleb128 0xe
 617 0329 723800   		.ascii	"r8\000"
 618 032c 08       		.byte	0x8
 619 032d 1C01     		.2byte	0x11c
 620 032f D3020000 		.4byte	0x2d3
 621 0333 10       		.byte	0x10
 622 0334 0E       		.uleb128 0xe
 623 0335 723900   		.ascii	"r9\000"
 624 0338 08       		.byte	0x8
 625 0339 1D01     		.2byte	0x11d
 626 033b D3020000 		.4byte	0x2d3
 627 033f 14       		.byte	0x14
ARM GAS  /tmp/ccxOSucU.s 			page 12


 628 0340 0E       		.uleb128 0xe
 629 0341 72313000 		.ascii	"r10\000"
 630 0345 08       		.byte	0x8
 631 0346 1E01     		.2byte	0x11e
 632 0348 D3020000 		.4byte	0x2d3
 633 034c 18       		.byte	0x18
 634 034d 0E       		.uleb128 0xe
 635 034e 72313100 		.ascii	"r11\000"
 636 0352 08       		.byte	0x8
 637 0353 1F01     		.2byte	0x11f
 638 0355 D3020000 		.4byte	0x2d3
 639 0359 1C       		.byte	0x1c
 640 035a 0E       		.uleb128 0xe
 641 035b 6C7200   		.ascii	"lr\000"
 642 035e 08       		.byte	0x8
 643 035f 2001     		.2byte	0x120
 644 0361 D3020000 		.4byte	0x2d3
 645 0365 20       		.byte	0x20
 646 0366 00       		.byte	0
 647 0367 0D       		.uleb128 0xd
 648 0368 25020000 		.4byte	.LASF57
 649 036c 04       		.byte	0x4
 650 036d 08       		.byte	0x8
 651 036e 2A01     		.2byte	0x12a
 652 0370 82030000 		.4byte	0x382
 653 0374 0E       		.uleb128 0xe
 654 0375 72313300 		.ascii	"r13\000"
 655 0379 08       		.byte	0x8
 656 037a 2B01     		.2byte	0x12b
 657 037c 82030000 		.4byte	0x382
 658 0380 00       		.byte	0
 659 0381 00       		.byte	0
 660 0382 0B       		.uleb128 0xb
 661 0383 04       		.byte	0x4
 662 0384 EB020000 		.4byte	0x2eb
 663 0388 03       		.uleb128 0x3
 664 0389 E8040000 		.4byte	.LASF58
 665 038d 09       		.byte	0x9
 666 038e 33       		.byte	0x33
 667 038f EA000000 		.4byte	0xea
 668 0393 04       		.uleb128 0x4
 669 0394 04       		.byte	0x4
 670 0395 07       		.byte	0x7
 671 0396 15000000 		.4byte	.LASF59
 672 039a 0A       		.uleb128 0xa
 673 039b 20       		.byte	0x20
 674 039c 09       		.byte	0x9
 675 039d FF       		.byte	0xff
 676 039e 0B040000 		.4byte	0x40b
 677 03a2 0F       		.uleb128 0xf
 678 03a3 9A040000 		.4byte	.LASF60
 679 03a7 09       		.byte	0x9
 680 03a8 0001     		.2byte	0x100
 681 03aa 88030000 		.4byte	0x388
 682 03ae 00       		.byte	0
 683 03af 0F       		.uleb128 0xf
 684 03b0 9F070000 		.4byte	.LASF61
ARM GAS  /tmp/ccxOSucU.s 			page 13


 685 03b4 09       		.byte	0x9
 686 03b5 0101     		.2byte	0x101
 687 03b7 88030000 		.4byte	0x388
 688 03bb 04       		.byte	0x4
 689 03bc 0F       		.uleb128 0xf
 690 03bd B6020000 		.4byte	.LASF62
 691 03c1 09       		.byte	0x9
 692 03c2 0201     		.2byte	0x102
 693 03c4 88030000 		.4byte	0x388
 694 03c8 08       		.byte	0x8
 695 03c9 0F       		.uleb128 0xf
 696 03ca C6040000 		.4byte	.LASF63
 697 03ce 09       		.byte	0x9
 698 03cf 0301     		.2byte	0x103
 699 03d1 88030000 		.4byte	0x388
 700 03d5 0C       		.byte	0xc
 701 03d6 0F       		.uleb128 0xf
 702 03d7 03020000 		.4byte	.LASF64
 703 03db 09       		.byte	0x9
 704 03dc 0401     		.2byte	0x104
 705 03de 88030000 		.4byte	0x388
 706 03e2 10       		.byte	0x10
 707 03e3 0F       		.uleb128 0xf
 708 03e4 31030000 		.4byte	.LASF65
 709 03e8 09       		.byte	0x9
 710 03e9 0501     		.2byte	0x105
 711 03eb 88030000 		.4byte	0x388
 712 03ef 14       		.byte	0x14
 713 03f0 0F       		.uleb128 0xf
 714 03f1 41080000 		.4byte	.LASF66
 715 03f5 09       		.byte	0x9
 716 03f6 0601     		.2byte	0x106
 717 03f8 88030000 		.4byte	0x388
 718 03fc 18       		.byte	0x18
 719 03fd 0F       		.uleb128 0xf
 720 03fe A7060000 		.4byte	.LASF67
 721 0402 09       		.byte	0x9
 722 0403 0701     		.2byte	0x107
 723 0405 88030000 		.4byte	0x388
 724 0409 1C       		.byte	0x1c
 725 040a 00       		.byte	0
 726 040b 10       		.uleb128 0x10
 727 040c B7040000 		.4byte	.LASF68
 728 0410 09       		.byte	0x9
 729 0411 0801     		.2byte	0x108
 730 0413 9A030000 		.4byte	0x39a
 731 0417 03       		.uleb128 0x3
 732 0418 92000000 		.4byte	.LASF69
 733 041c 0A       		.byte	0xa
 734 041d 51       		.byte	0x51
 735 041e 22040000 		.4byte	0x422
 736 0422 0B       		.uleb128 0xb
 737 0423 04       		.byte	0x4
 738 0424 28040000 		.4byte	0x428
 739 0428 11       		.uleb128 0x11
 740 0429 33040000 		.4byte	0x433
 741 042d 12       		.uleb128 0x12
ARM GAS  /tmp/ccxOSucU.s 			page 14


 742 042e DE020000 		.4byte	0x2de
 743 0432 00       		.byte	0
 744 0433 03       		.uleb128 0x3
 745 0434 D5070000 		.4byte	.LASF70
 746 0438 0A       		.byte	0xa
 747 0439 56       		.byte	0x56
 748 043a 3E040000 		.4byte	0x43e
 749 043e 07       		.uleb128 0x7
 750 043f D5070000 		.4byte	.LASF70
 751 0443 14       		.byte	0x14
 752 0444 0A       		.byte	0xa
 753 0445 5D       		.byte	0x5d
 754 0446 87040000 		.4byte	0x487
 755 044a 08       		.uleb128 0x8
 756 044b 33040000 		.4byte	.LASF71
 757 044f 0A       		.byte	0xa
 758 0450 5E       		.byte	0x5e
 759 0451 87040000 		.4byte	0x487
 760 0455 00       		.byte	0
 761 0456 08       		.uleb128 0x8
 762 0457 56020000 		.4byte	.LASF72
 763 045b 0A       		.byte	0xa
 764 045c 60       		.byte	0x60
 765 045d 87040000 		.4byte	0x487
 766 0461 04       		.byte	0x4
 767 0462 08       		.uleb128 0x8
 768 0463 62080000 		.4byte	.LASF73
 769 0467 0A       		.byte	0xa
 770 0468 62       		.byte	0x62
 771 0469 69010000 		.4byte	0x169
 772 046d 08       		.byte	0x8
 773 046e 08       		.uleb128 0x8
 774 046f F2020000 		.4byte	.LASF74
 775 0473 0A       		.byte	0xa
 776 0474 63       		.byte	0x63
 777 0475 17040000 		.4byte	0x417
 778 0479 0C       		.byte	0xc
 779 047a 08       		.uleb128 0x8
 780 047b FC000000 		.4byte	.LASF75
 781 047f 0A       		.byte	0xa
 782 0480 65       		.byte	0x65
 783 0481 DE020000 		.4byte	0x2de
 784 0485 10       		.byte	0x10
 785 0486 00       		.byte	0
 786 0487 0B       		.uleb128 0xb
 787 0488 04       		.byte	0x4
 788 0489 33040000 		.4byte	0x433
 789 048d 0A       		.uleb128 0xa
 790 048e 10       		.byte	0x10
 791 048f 0A       		.byte	0xa
 792 0490 6F       		.byte	0x6f
 793 0491 C6040000 		.4byte	0x4c6
 794 0495 08       		.uleb128 0x8
 795 0496 33040000 		.4byte	.LASF71
 796 049a 0A       		.byte	0xa
 797 049b 70       		.byte	0x70
 798 049c 87040000 		.4byte	0x487
ARM GAS  /tmp/ccxOSucU.s 			page 15


 799 04a0 00       		.byte	0
 800 04a1 08       		.uleb128 0x8
 801 04a2 56020000 		.4byte	.LASF72
 802 04a6 0A       		.byte	0xa
 803 04a7 72       		.byte	0x72
 804 04a8 87040000 		.4byte	0x487
 805 04ac 04       		.byte	0x4
 806 04ad 08       		.uleb128 0x8
 807 04ae 62080000 		.4byte	.LASF73
 808 04b2 0A       		.byte	0xa
 809 04b3 74       		.byte	0x74
 810 04b4 69010000 		.4byte	0x169
 811 04b8 08       		.byte	0x8
 812 04b9 08       		.uleb128 0x8
 813 04ba E8060000 		.4byte	.LASF76
 814 04be 0A       		.byte	0xa
 815 04bf 75       		.byte	0x75
 816 04c0 74010000 		.4byte	0x174
 817 04c4 0C       		.byte	0xc
 818 04c5 00       		.byte	0
 819 04c6 03       		.uleb128 0x3
 820 04c7 8F060000 		.4byte	.LASF77
 821 04cb 0A       		.byte	0xa
 822 04cc 76       		.byte	0x76
 823 04cd 8D040000 		.4byte	0x48d
 824 04d1 13       		.uleb128 0x13
 825 04d2 90070000 		.4byte	.LASF85
 826 04d6 0A       		.byte	0xa
 827 04d7 EE       		.byte	0xee
 828 04d8 C6040000 		.4byte	0x4c6
 829 04dc 0A       		.uleb128 0xa
 830 04dd 1C       		.byte	0x1c
 831 04de 0B       		.byte	0xb
 832 04df 57       		.byte	0x57
 833 04e0 2D050000 		.4byte	0x52d
 834 04e4 08       		.uleb128 0x8
 835 04e5 B1060000 		.4byte	.LASF78
 836 04e9 0B       		.byte	0xb
 837 04ea 58       		.byte	0x58
 838 04eb A8020000 		.4byte	0x2a8
 839 04ef 00       		.byte	0
 840 04f0 08       		.uleb128 0x8
 841 04f1 45070000 		.4byte	.LASF79
 842 04f5 0B       		.byte	0xb
 843 04f6 59       		.byte	0x59
 844 04f7 3D010000 		.4byte	0x13d
 845 04fb 08       		.byte	0x8
 846 04fc 08       		.uleb128 0x8
 847 04fd 72000000 		.4byte	.LASF80
 848 0501 0B       		.byte	0xb
 849 0502 5B       		.byte	0x5b
 850 0503 67030000 		.4byte	0x367
 851 0507 0C       		.byte	0xc
 852 0508 08       		.uleb128 0x8
 853 0509 5E020000 		.4byte	.LASF81
 854 050d 0B       		.byte	0xb
 855 050e 5E       		.byte	0x5e
ARM GAS  /tmp/ccxOSucU.s 			page 16


 856 050f A2020000 		.4byte	0x2a2
 857 0513 10       		.byte	0x10
 858 0514 08       		.uleb128 0x8
 859 0515 07070000 		.4byte	.LASF82
 860 0519 0B       		.byte	0xb
 861 051a 5F       		.byte	0x5f
 862 051b A2020000 		.4byte	0x2a2
 863 051f 14       		.byte	0x14
 864 0520 08       		.uleb128 0x8
 865 0521 85060000 		.4byte	.LASF83
 866 0525 0B       		.byte	0xb
 867 0526 62       		.byte	0x62
 868 0527 A2020000 		.4byte	0x2a2
 869 052b 18       		.byte	0x18
 870 052c 00       		.byte	0
 871 052d 03       		.uleb128 0x3
 872 052e 51080000 		.4byte	.LASF84
 873 0532 0B       		.byte	0xb
 874 0533 64       		.byte	0x64
 875 0534 DC040000 		.4byte	0x4dc
 876 0538 13       		.uleb128 0x13
 877 0539 D0060000 		.4byte	.LASF86
 878 053d 0B       		.byte	0xb
 879 053e 68       		.byte	0x68
 880 053f 2D050000 		.4byte	0x52d
 881 0543 07       		.uleb128 0x7
 882 0544 02040000 		.4byte	.LASF87
 883 0548 10       		.byte	0x10
 884 0549 0C       		.byte	0xc
 885 054a 25       		.byte	0x25
 886 054b 74050000 		.4byte	0x574
 887 054f 08       		.uleb128 0x8
 888 0550 21040000 		.4byte	.LASF88
 889 0554 0C       		.byte	0xc
 890 0555 26       		.byte	0x26
 891 0556 A8020000 		.4byte	0x2a8
 892 055a 00       		.byte	0
 893 055b 08       		.uleb128 0x8
 894 055c F4000000 		.4byte	.LASF89
 895 0560 0C       		.byte	0xc
 896 0561 28       		.byte	0x28
 897 0562 A2020000 		.4byte	0x2a2
 898 0566 08       		.byte	0x8
 899 0567 08       		.uleb128 0x8
 900 0568 6F080000 		.4byte	.LASF90
 901 056c 0C       		.byte	0xc
 902 056d 2A       		.byte	0x2a
 903 056e 74050000 		.4byte	0x574
 904 0572 0C       		.byte	0xc
 905 0573 00       		.byte	0
 906 0574 0B       		.uleb128 0xb
 907 0575 04       		.byte	0x4
 908 0576 43050000 		.4byte	0x543
 909 057a 03       		.uleb128 0x3
 910 057b 02040000 		.4byte	.LASF87
 911 057f 0C       		.byte	0xc
 912 0580 2C       		.byte	0x2c
ARM GAS  /tmp/ccxOSucU.s 			page 17


 913 0581 43050000 		.4byte	0x543
 914 0585 03       		.uleb128 0x3
 915 0586 BE070000 		.4byte	.LASF91
 916 058a 0D       		.byte	0xd
 917 058b 25       		.byte	0x25
 918 058c 90050000 		.4byte	0x590
 919 0590 07       		.uleb128 0x7
 920 0591 BE070000 		.4byte	.LASF91
 921 0595 10       		.byte	0x10
 922 0596 0D       		.byte	0xd
 923 0597 2A       		.byte	0x2a
 924 0598 CD050000 		.4byte	0x5cd
 925 059c 08       		.uleb128 0x8
 926 059d 8C030000 		.4byte	.LASF92
 927 05a1 0D       		.byte	0xd
 928 05a2 2B       		.byte	0x2b
 929 05a3 CD050000 		.4byte	0x5cd
 930 05a7 00       		.byte	0
 931 05a8 08       		.uleb128 0x8
 932 05a9 8A080000 		.4byte	.LASF93
 933 05ad 0D       		.byte	0xd
 934 05ae 2E       		.byte	0x2e
 935 05af A2020000 		.4byte	0x2a2
 936 05b3 04       		.byte	0x4
 937 05b4 08       		.uleb128 0x8
 938 05b5 49080000 		.4byte	.LASF94
 939 05b9 0D       		.byte	0xd
 940 05ba 30       		.byte	0x30
 941 05bb 53010000 		.4byte	0x153
 942 05bf 08       		.byte	0x8
 943 05c0 08       		.uleb128 0x8
 944 05c1 BA000000 		.4byte	.LASF95
 945 05c5 0D       		.byte	0xd
 946 05c6 33       		.byte	0x33
 947 05c7 5E010000 		.4byte	0x15e
 948 05cb 0C       		.byte	0xc
 949 05cc 00       		.byte	0
 950 05cd 0B       		.uleb128 0xb
 951 05ce 04       		.byte	0x4
 952 05cf 85050000 		.4byte	0x585
 953 05d3 07       		.uleb128 0x7
 954 05d4 41030000 		.4byte	.LASF96
 955 05d8 04       		.byte	0x4
 956 05d9 0D       		.byte	0xd
 957 05da 3A       		.byte	0x3a
 958 05db EC050000 		.4byte	0x5ec
 959 05df 08       		.uleb128 0x8
 960 05e0 1F030000 		.4byte	.LASF97
 961 05e4 0D       		.byte	0xd
 962 05e5 3B       		.byte	0x3b
 963 05e6 CD050000 		.4byte	0x5cd
 964 05ea 00       		.byte	0
 965 05eb 00       		.byte	0
 966 05ec 03       		.uleb128 0x3
 967 05ed 41030000 		.4byte	.LASF96
 968 05f1 0D       		.byte	0xd
 969 05f2 3E       		.byte	0x3e
ARM GAS  /tmp/ccxOSucU.s 			page 18


 970 05f3 D3050000 		.4byte	0x5d3
 971 05f7 14       		.uleb128 0x14
 972 05f8 04       		.byte	0x4
 973 05f9 07       		.byte	0x7
 974 05fa 8F       		.byte	0x8f
 975 05fb 2C060000 		.4byte	0x62c
 976 05ff 15       		.uleb128 0x15
 977 0600 EF070000 		.4byte	.LASF98
 978 0604 07       		.byte	0x7
 979 0605 96       		.byte	0x96
 980 0606 48010000 		.4byte	0x148
 981 060a 15       		.uleb128 0x15
 982 060b 03010000 		.4byte	.LASF99
 983 060f 07       		.byte	0x7
 984 0610 9D       		.byte	0x9d
 985 0611 48010000 		.4byte	0x148
 986 0615 15       		.uleb128 0x15
 987 0616 AF020000 		.4byte	.LASF100
 988 061a 07       		.byte	0x7
 989 061b A4       		.byte	0xa4
 990 061c DE020000 		.4byte	0x2de
 991 0620 15       		.uleb128 0x15
 992 0621 26010000 		.4byte	.LASF101
 993 0625 07       		.byte	0x7
 994 0626 AB       		.byte	0xab
 995 0627 53010000 		.4byte	0x153
 996 062b 00       		.byte	0
 997 062c 0B       		.uleb128 0xb
 998 062d 04       		.byte	0x4
 999 062e 39060000 		.4byte	0x639
 1000 0632 04       		.uleb128 0x4
 1001 0633 01       		.byte	0x1
 1002 0634 08       		.byte	0x8
 1003 0635 80020000 		.4byte	.LASF102
 1004 0639 05       		.uleb128 0x5
 1005 063a 32060000 		.4byte	0x632
 1006 063e 0B       		.uleb128 0xb
 1007 063f 04       		.byte	0x4
 1008 0640 7A050000 		.4byte	0x57a
 1009 0644 0B       		.uleb128 0xb
 1010 0645 04       		.byte	0x4
 1011 0646 4A060000 		.4byte	0x64a
 1012 064a 16       		.uleb128 0x16
 1013 064b 48010000 		.4byte	0x148
 1014 064f 59060000 		.4byte	0x659
 1015 0653 12       		.uleb128 0x12
 1016 0654 DE020000 		.4byte	0x2de
 1017 0658 00       		.byte	0
 1018 0659 0A       		.uleb128 0xa
 1019 065a 16       		.byte	0x16
 1020 065b 0E       		.byte	0xe
 1021 065c 25       		.byte	0x25
 1022 065d 3A070000 		.4byte	0x73a
 1023 0661 08       		.uleb128 0x8
 1024 0662 3A000000 		.4byte	.LASF103
 1025 0666 0E       		.byte	0xe
 1026 0667 26       		.byte	0x26
ARM GAS  /tmp/ccxOSucU.s 			page 19


 1027 0668 3A070000 		.4byte	0x73a
 1028 066c 00       		.byte	0
 1029 066d 08       		.uleb128 0x8
 1030 066e 6A030000 		.4byte	.LASF104
 1031 0672 0E       		.byte	0xe
 1032 0673 27       		.byte	0x27
 1033 0674 B4000000 		.4byte	0xb4
 1034 0678 04       		.byte	0x4
 1035 0679 08       		.uleb128 0x8
 1036 067a 27080000 		.4byte	.LASF105
 1037 067e 0E       		.byte	0xe
 1038 067f 28       		.byte	0x28
 1039 0680 B4000000 		.4byte	0xb4
 1040 0684 05       		.byte	0x5
 1041 0685 08       		.uleb128 0x8
 1042 0686 16040000 		.4byte	.LASF106
 1043 068a 0E       		.byte	0xe
 1044 068b 29       		.byte	0x29
 1045 068c C4000000 		.4byte	0xc4
 1046 0690 06       		.byte	0x6
 1047 0691 08       		.uleb128 0x8
 1048 0692 E0000000 		.4byte	.LASF107
 1049 0696 0E       		.byte	0xe
 1050 0697 2A       		.byte	0x2a
 1051 0698 B4000000 		.4byte	0xb4
 1052 069c 08       		.byte	0x8
 1053 069d 08       		.uleb128 0x8
 1054 069e CD040000 		.4byte	.LASF108
 1055 06a2 0E       		.byte	0xe
 1056 06a3 2B       		.byte	0x2b
 1057 06a4 B4000000 		.4byte	0xb4
 1058 06a8 09       		.byte	0x9
 1059 06a9 08       		.uleb128 0x8
 1060 06aa 2D010000 		.4byte	.LASF109
 1061 06ae 0E       		.byte	0xe
 1062 06af 2C       		.byte	0x2c
 1063 06b0 B4000000 		.4byte	0xb4
 1064 06b4 0A       		.byte	0xa
 1065 06b5 08       		.uleb128 0x8
 1066 06b6 E6020000 		.4byte	.LASF110
 1067 06ba 0E       		.byte	0xe
 1068 06bb 2D       		.byte	0x2d
 1069 06bc B4000000 		.4byte	0xb4
 1070 06c0 0B       		.byte	0xb
 1071 06c1 08       		.uleb128 0x8
 1072 06c2 87000000 		.4byte	.LASF111
 1073 06c6 0E       		.byte	0xe
 1074 06c7 2E       		.byte	0x2e
 1075 06c8 B4000000 		.4byte	0xb4
 1076 06cc 0C       		.byte	0xc
 1077 06cd 08       		.uleb128 0x8
 1078 06ce BD020000 		.4byte	.LASF112
 1079 06d2 0E       		.byte	0xe
 1080 06d3 2F       		.byte	0x2f
 1081 06d4 B4000000 		.4byte	0xb4
 1082 06d8 0D       		.byte	0xd
 1083 06d9 08       		.uleb128 0x8
ARM GAS  /tmp/ccxOSucU.s 			page 20


 1084 06da 72070000 		.4byte	.LASF113
 1085 06de 0E       		.byte	0xe
 1086 06df 30       		.byte	0x30
 1087 06e0 B4000000 		.4byte	0xb4
 1088 06e4 0E       		.byte	0xe
 1089 06e5 08       		.uleb128 0x8
 1090 06e6 24000000 		.4byte	.LASF114
 1091 06ea 0E       		.byte	0xe
 1092 06eb 31       		.byte	0x31
 1093 06ec B4000000 		.4byte	0xb4
 1094 06f0 0F       		.byte	0xf
 1095 06f1 08       		.uleb128 0x8
 1096 06f2 9F040000 		.4byte	.LASF115
 1097 06f6 0E       		.byte	0xe
 1098 06f7 32       		.byte	0x32
 1099 06f8 B4000000 		.4byte	0xb4
 1100 06fc 10       		.byte	0x10
 1101 06fd 08       		.uleb128 0x8
 1102 06fe 7C010000 		.4byte	.LASF116
 1103 0702 0E       		.byte	0xe
 1104 0703 34       		.byte	0x34
 1105 0704 B4000000 		.4byte	0xb4
 1106 0708 11       		.byte	0x11
 1107 0709 08       		.uleb128 0x8
 1108 070a 55060000 		.4byte	.LASF117
 1109 070e 0E       		.byte	0xe
 1110 070f 35       		.byte	0x35
 1111 0710 B4000000 		.4byte	0xb4
 1112 0714 12       		.byte	0x12
 1113 0715 08       		.uleb128 0x8
 1114 0716 A2050000 		.4byte	.LASF118
 1115 071a 0E       		.byte	0xe
 1116 071b 36       		.byte	0x36
 1117 071c B4000000 		.4byte	0xb4
 1118 0720 13       		.byte	0x13
 1119 0721 08       		.uleb128 0x8
 1120 0722 E8030000 		.4byte	.LASF119
 1121 0726 0E       		.byte	0xe
 1122 0727 37       		.byte	0x37
 1123 0728 B4000000 		.4byte	0xb4
 1124 072c 14       		.byte	0x14
 1125 072d 08       		.uleb128 0x8
 1126 072e D5050000 		.4byte	.LASF120
 1127 0732 0E       		.byte	0xe
 1128 0733 39       		.byte	0x39
 1129 0734 B4000000 		.4byte	0xb4
 1130 0738 15       		.byte	0x15
 1131 0739 00       		.byte	0
 1132 073a 17       		.uleb128 0x17
 1133 073b 32060000 		.4byte	0x632
 1134 073f 4A070000 		.4byte	0x74a
 1135 0743 18       		.uleb128 0x18
 1136 0744 93030000 		.4byte	0x393
 1137 0748 03       		.byte	0x3
 1138 0749 00       		.byte	0
 1139 074a 03       		.uleb128 0x3
 1140 074b 12080000 		.4byte	.LASF121
ARM GAS  /tmp/ccxOSucU.s 			page 21


 1141 074f 0E       		.byte	0xe
 1142 0750 3A       		.byte	0x3a
 1143 0751 59060000 		.4byte	0x659
 1144 0755 05       		.uleb128 0x5
 1145 0756 4A070000 		.4byte	0x74a
 1146 075a 13       		.uleb128 0x13
 1147 075b 5E000000 		.4byte	.LASF122
 1148 075f 0E       		.byte	0xe
 1149 0760 77       		.byte	0x77
 1150 0761 55070000 		.4byte	0x755
 1151 0765 03       		.uleb128 0x3
 1152 0766 A2020000 		.4byte	.LASF123
 1153 076a 0F       		.byte	0xf
 1154 076b 30       		.byte	0x30
 1155 076c 70070000 		.4byte	0x770
 1156 0770 07       		.uleb128 0x7
 1157 0771 A2020000 		.4byte	.LASF123
 1158 0775 24       		.byte	0x24
 1159 0776 0F       		.byte	0xf
 1160 0777 3E       		.byte	0x3e
 1161 0778 DD070000 		.4byte	0x7dd
 1162 077c 08       		.uleb128 0x8
 1163 077d C6060000 		.4byte	.LASF124
 1164 0781 0F       		.byte	0xf
 1165 0782 3F       		.byte	0x3f
 1166 0783 A8020000 		.4byte	0x2a8
 1167 0787 00       		.byte	0
 1168 0788 08       		.uleb128 0x8
 1169 0789 27030000 		.4byte	.LASF125
 1170 078d 0F       		.byte	0xf
 1171 078e 40       		.byte	0x40
 1172 078f 2C000000 		.4byte	0x2c
 1173 0793 08       		.byte	0x8
 1174 0794 08       		.uleb128 0x8
 1175 0795 41010000 		.4byte	.LASF126
 1176 0799 0F       		.byte	0xf
 1177 079a 41       		.byte	0x41
 1178 079b FF070000 		.4byte	0x7ff
 1179 079f 0C       		.byte	0xc
 1180 07a0 08       		.uleb128 0x8
 1181 07a1 16010000 		.4byte	.LASF127
 1182 07a5 0F       		.byte	0xf
 1183 07a6 42       		.byte	0x42
 1184 07a7 FF070000 		.4byte	0x7ff
 1185 07ab 10       		.byte	0x10
 1186 07ac 08       		.uleb128 0x8
 1187 07ad 94030000 		.4byte	.LASF128
 1188 07b1 0F       		.byte	0xf
 1189 07b2 44       		.byte	0x44
 1190 07b3 FF070000 		.4byte	0x7ff
 1191 07b7 14       		.byte	0x14
 1192 07b8 08       		.uleb128 0x8
 1193 07b9 74010000 		.4byte	.LASF129
 1194 07bd 0F       		.byte	0xf
 1195 07be 45       		.byte	0x45
 1196 07bf FF070000 		.4byte	0x7ff
 1197 07c3 18       		.byte	0x18
ARM GAS  /tmp/ccxOSucU.s 			page 22


 1198 07c4 08       		.uleb128 0x8
 1199 07c5 53010000 		.4byte	.LASF130
 1200 07c9 0F       		.byte	0xf
 1201 07ca 46       		.byte	0x46
 1202 07cb DD070000 		.4byte	0x7dd
 1203 07cf 1C       		.byte	0x1c
 1204 07d0 08       		.uleb128 0x8
 1205 07d1 4F020000 		.4byte	.LASF131
 1206 07d5 0F       		.byte	0xf
 1207 07d6 47       		.byte	0x47
 1208 07d7 DE020000 		.4byte	0x2de
 1209 07db 20       		.byte	0x20
 1210 07dc 00       		.byte	0
 1211 07dd 03       		.uleb128 0x3
 1212 07de 5A040000 		.4byte	.LASF132
 1213 07e2 0F       		.byte	0xf
 1214 07e3 33       		.byte	0x33
 1215 07e4 E8070000 		.4byte	0x7e8
 1216 07e8 0B       		.uleb128 0xb
 1217 07e9 04       		.byte	0x4
 1218 07ea EE070000 		.4byte	0x7ee
 1219 07ee 11       		.uleb128 0x11
 1220 07ef F9070000 		.4byte	0x7f9
 1221 07f3 12       		.uleb128 0x12
 1222 07f4 F9070000 		.4byte	0x7f9
 1223 07f8 00       		.byte	0
 1224 07f9 0B       		.uleb128 0xb
 1225 07fa 04       		.byte	0x4
 1226 07fb 65070000 		.4byte	0x765
 1227 07ff 0B       		.uleb128 0xb
 1228 0800 04       		.byte	0x4
 1229 0801 B4000000 		.4byte	0xb4
 1230 0805 03       		.uleb128 0x3
 1231 0806 1C080000 		.4byte	.LASF133
 1232 080a 0F       		.byte	0xf
 1233 080b 7B       		.byte	0x7b
 1234 080c 65070000 		.4byte	0x765
 1235 0810 03       		.uleb128 0x3
 1236 0811 DA020000 		.4byte	.LASF134
 1237 0815 0F       		.byte	0xf
 1238 0816 EE       		.byte	0xee
 1239 0817 65070000 		.4byte	0x765
 1240 081b 16       		.uleb128 0x16
 1241 081c 2C000000 		.4byte	0x2c
 1242 0820 34080000 		.4byte	0x834
 1243 0824 12       		.uleb128 0x12
 1244 0825 DE020000 		.4byte	0x2de
 1245 0829 12       		.uleb128 0x12
 1246 082a 34080000 		.4byte	0x834
 1247 082e 12       		.uleb128 0x12
 1248 082f 2C000000 		.4byte	0x2c
 1249 0833 00       		.byte	0
 1250 0834 0B       		.uleb128 0xb
 1251 0835 04       		.byte	0x4
 1252 0836 BF000000 		.4byte	0xbf
 1253 083a 0B       		.uleb128 0xb
 1254 083b 04       		.byte	0x4
ARM GAS  /tmp/ccxOSucU.s 			page 23


 1255 083c 1B080000 		.4byte	0x81b
 1256 0840 16       		.uleb128 0x16
 1257 0841 2C000000 		.4byte	0x2c
 1258 0845 59080000 		.4byte	0x859
 1259 0849 12       		.uleb128 0x12
 1260 084a DE020000 		.4byte	0x2de
 1261 084e 12       		.uleb128 0x12
 1262 084f FF070000 		.4byte	0x7ff
 1263 0853 12       		.uleb128 0x12
 1264 0854 2C000000 		.4byte	0x2c
 1265 0858 00       		.byte	0
 1266 0859 0B       		.uleb128 0xb
 1267 085a 04       		.byte	0x4
 1268 085b 40080000 		.4byte	0x840
 1269 085f 16       		.uleb128 0x16
 1270 0860 48010000 		.4byte	0x148
 1271 0864 73080000 		.4byte	0x873
 1272 0868 12       		.uleb128 0x12
 1273 0869 DE020000 		.4byte	0x2de
 1274 086d 12       		.uleb128 0x12
 1275 086e B4000000 		.4byte	0xb4
 1276 0872 00       		.byte	0
 1277 0873 0B       		.uleb128 0xb
 1278 0874 04       		.byte	0x4
 1279 0875 5F080000 		.4byte	0x85f
 1280 0879 17       		.uleb128 0x17
 1281 087a E0020000 		.4byte	0x2e0
 1282 087e 89080000 		.4byte	0x889
 1283 0882 18       		.uleb128 0x18
 1284 0883 93030000 		.4byte	0x393
 1285 0887 17       		.byte	0x17
 1286 0888 00       		.byte	0
 1287 0889 13       		.uleb128 0x13
 1288 088a AE070000 		.4byte	.LASF135
 1289 088e 10       		.byte	0x10
 1290 088f 82       		.byte	0x82
 1291 0890 79080000 		.4byte	0x879
 1292 0894 17       		.uleb128 0x17
 1293 0895 DF000000 		.4byte	0xdf
 1294 0899 A4080000 		.4byte	0x8a4
 1295 089d 18       		.uleb128 0x18
 1296 089e 93030000 		.4byte	0x393
 1297 08a2 01       		.byte	0x1
 1298 08a3 00       		.byte	0
 1299 08a4 19       		.uleb128 0x19
 1300 08a5 3B040000 		.4byte	.LASF136
 1301 08a9 11       		.byte	0x11
 1302 08aa 0706     		.2byte	0x607
 1303 08ac DA000000 		.4byte	0xda
 1304 08b0 13       		.uleb128 0x13
 1305 08b1 72030000 		.4byte	.LASF137
 1306 08b5 12       		.byte	0x12
 1307 08b6 23       		.byte	0x23
 1308 08b7 DF000000 		.4byte	0xdf
 1309 08bb 17       		.uleb128 0x17
 1310 08bc DF000000 		.4byte	0xdf
 1311 08c0 CB080000 		.4byte	0x8cb
ARM GAS  /tmp/ccxOSucU.s 			page 24


 1312 08c4 18       		.uleb128 0x18
 1313 08c5 93030000 		.4byte	0x393
 1314 08c9 0B       		.byte	0xb
 1315 08ca 00       		.byte	0
 1316 08cb 1A       		.uleb128 0x1a
 1317 08cc 74       		.byte	0x74
 1318 08cd 13       		.byte	0x13
 1319 08ce 1C01     		.2byte	0x11c
 1320 08d0 AE090000 		.4byte	0x9ae
 1321 08d4 0E       		.uleb128 0xe
 1322 08d5 495200   		.ascii	"IR\000"
 1323 08d8 13       		.byte	0x13
 1324 08d9 1E01     		.2byte	0x11e
 1325 08db EA000000 		.4byte	0xea
 1326 08df 00       		.byte	0
 1327 08e0 0E       		.uleb128 0xe
 1328 08e1 54435200 		.ascii	"TCR\000"
 1329 08e5 13       		.byte	0x13
 1330 08e6 1F01     		.2byte	0x11f
 1331 08e8 EA000000 		.4byte	0xea
 1332 08ec 04       		.byte	0x4
 1333 08ed 0E       		.uleb128 0xe
 1334 08ee 544300   		.ascii	"TC\000"
 1335 08f1 13       		.byte	0x13
 1336 08f2 2001     		.2byte	0x120
 1337 08f4 EA000000 		.4byte	0xea
 1338 08f8 08       		.byte	0x8
 1339 08f9 0E       		.uleb128 0xe
 1340 08fa 505200   		.ascii	"PR\000"
 1341 08fd 13       		.byte	0x13
 1342 08fe 2101     		.2byte	0x121
 1343 0900 EA000000 		.4byte	0xea
 1344 0904 0C       		.byte	0xc
 1345 0905 0E       		.uleb128 0xe
 1346 0906 504300   		.ascii	"PC\000"
 1347 0909 13       		.byte	0x13
 1348 090a 2201     		.2byte	0x122
 1349 090c EA000000 		.4byte	0xea
 1350 0910 10       		.byte	0x10
 1351 0911 0E       		.uleb128 0xe
 1352 0912 4D435200 		.ascii	"MCR\000"
 1353 0916 13       		.byte	0x13
 1354 0917 2301     		.2byte	0x123
 1355 0919 EA000000 		.4byte	0xea
 1356 091d 14       		.byte	0x14
 1357 091e 0E       		.uleb128 0xe
 1358 091f 4D523000 		.ascii	"MR0\000"
 1359 0923 13       		.byte	0x13
 1360 0924 2401     		.2byte	0x124
 1361 0926 EA000000 		.4byte	0xea
 1362 092a 18       		.byte	0x18
 1363 092b 0E       		.uleb128 0xe
 1364 092c 4D523100 		.ascii	"MR1\000"
 1365 0930 13       		.byte	0x13
 1366 0931 2501     		.2byte	0x125
 1367 0933 EA000000 		.4byte	0xea
 1368 0937 1C       		.byte	0x1c
ARM GAS  /tmp/ccxOSucU.s 			page 25


 1369 0938 0E       		.uleb128 0xe
 1370 0939 4D523200 		.ascii	"MR2\000"
 1371 093d 13       		.byte	0x13
 1372 093e 2601     		.2byte	0x126
 1373 0940 EA000000 		.4byte	0xea
 1374 0944 20       		.byte	0x20
 1375 0945 0E       		.uleb128 0xe
 1376 0946 4D523300 		.ascii	"MR3\000"
 1377 094a 13       		.byte	0x13
 1378 094b 2701     		.2byte	0x127
 1379 094d EA000000 		.4byte	0xea
 1380 0951 24       		.byte	0x24
 1381 0952 0E       		.uleb128 0xe
 1382 0953 43435200 		.ascii	"CCR\000"
 1383 0957 13       		.byte	0x13
 1384 0958 2801     		.2byte	0x128
 1385 095a EA000000 		.4byte	0xea
 1386 095e 28       		.byte	0x28
 1387 095f 0E       		.uleb128 0xe
 1388 0960 43523000 		.ascii	"CR0\000"
 1389 0964 13       		.byte	0x13
 1390 0965 2901     		.2byte	0x129
 1391 0967 EF000000 		.4byte	0xef
 1392 096b 2C       		.byte	0x2c
 1393 096c 0E       		.uleb128 0xe
 1394 096d 43523100 		.ascii	"CR1\000"
 1395 0971 13       		.byte	0x13
 1396 0972 2A01     		.2byte	0x12a
 1397 0974 EF000000 		.4byte	0xef
 1398 0978 30       		.byte	0x30
 1399 0979 0F       		.uleb128 0xf
 1400 097a 2D020000 		.4byte	.LASF138
 1401 097e 13       		.byte	0x13
 1402 097f 2B01     		.2byte	0x12b
 1403 0981 94080000 		.4byte	0x894
 1404 0985 34       		.byte	0x34
 1405 0986 0E       		.uleb128 0xe
 1406 0987 454D5200 		.ascii	"EMR\000"
 1407 098b 13       		.byte	0x13
 1408 098c 2C01     		.2byte	0x12c
 1409 098e EA000000 		.4byte	0xea
 1410 0992 3C       		.byte	0x3c
 1411 0993 0F       		.uleb128 0xf
 1412 0994 37020000 		.4byte	.LASF139
 1413 0998 13       		.byte	0x13
 1414 0999 2D01     		.2byte	0x12d
 1415 099b BB080000 		.4byte	0x8bb
 1416 099f 40       		.byte	0x40
 1417 09a0 0F       		.uleb128 0xf
 1418 09a1 B5000000 		.4byte	.LASF140
 1419 09a5 13       		.byte	0x13
 1420 09a6 2E01     		.2byte	0x12e
 1421 09a8 EA000000 		.4byte	0xea
 1422 09ac 70       		.byte	0x70
 1423 09ad 00       		.byte	0
 1424 09ae 10       		.uleb128 0x10
 1425 09af AE050000 		.4byte	.LASF141
ARM GAS  /tmp/ccxOSucU.s 			page 26


 1426 09b3 13       		.byte	0x13
 1427 09b4 2F01     		.2byte	0x12f
 1428 09b6 CB080000 		.4byte	0x8cb
 1429 09ba 1B       		.uleb128 0x1b
 1430 09bb 04       		.byte	0x4
 1431 09bc 13       		.byte	0x13
 1432 09bd 5201     		.2byte	0x152
 1433 09bf E8090000 		.4byte	0x9e8
 1434 09c3 1C       		.uleb128 0x1c
 1435 09c4 52425200 		.ascii	"RBR\000"
 1436 09c8 13       		.byte	0x13
 1437 09c9 5301     		.2byte	0x153
 1438 09cb EF000000 		.4byte	0xef
 1439 09cf 1C       		.uleb128 0x1c
 1440 09d0 54485200 		.ascii	"THR\000"
 1441 09d4 13       		.byte	0x13
 1442 09d5 5401     		.2byte	0x154
 1443 09d7 EA000000 		.4byte	0xea
 1444 09db 1C       		.uleb128 0x1c
 1445 09dc 444C4C00 		.ascii	"DLL\000"
 1446 09e0 13       		.byte	0x13
 1447 09e1 5501     		.2byte	0x155
 1448 09e3 EA000000 		.4byte	0xea
 1449 09e7 00       		.byte	0
 1450 09e8 1B       		.uleb128 0x1b
 1451 09e9 04       		.byte	0x4
 1452 09ea 13       		.byte	0x13
 1453 09eb 5701     		.2byte	0x157
 1454 09ed 0A0A0000 		.4byte	0xa0a
 1455 09f1 1C       		.uleb128 0x1c
 1456 09f2 444C4D00 		.ascii	"DLM\000"
 1457 09f6 13       		.byte	0x13
 1458 09f7 5801     		.2byte	0x158
 1459 09f9 EA000000 		.4byte	0xea
 1460 09fd 1C       		.uleb128 0x1c
 1461 09fe 49455200 		.ascii	"IER\000"
 1462 0a02 13       		.byte	0x13
 1463 0a03 5901     		.2byte	0x159
 1464 0a05 EA000000 		.4byte	0xea
 1465 0a09 00       		.byte	0
 1466 0a0a 1B       		.uleb128 0x1b
 1467 0a0b 04       		.byte	0x4
 1468 0a0c 13       		.byte	0x13
 1469 0a0d 5B01     		.2byte	0x15b
 1470 0a0f 2C0A0000 		.4byte	0xa2c
 1471 0a13 1C       		.uleb128 0x1c
 1472 0a14 49495200 		.ascii	"IIR\000"
 1473 0a18 13       		.byte	0x13
 1474 0a19 5C01     		.2byte	0x15c
 1475 0a1b EF000000 		.4byte	0xef
 1476 0a1f 1C       		.uleb128 0x1c
 1477 0a20 46435200 		.ascii	"FCR\000"
 1478 0a24 13       		.byte	0x13
 1479 0a25 5D01     		.2byte	0x15d
 1480 0a27 EA000000 		.4byte	0xea
 1481 0a2b 00       		.byte	0
 1482 0a2c 1A       		.uleb128 0x1a
ARM GAS  /tmp/ccxOSucU.s 			page 27


 1483 0a2d 34       		.byte	0x34
 1484 0a2e 13       		.byte	0x13
 1485 0a2f 5001     		.2byte	0x150
 1486 0a31 CA0A0000 		.4byte	0xaca
 1487 0a35 1D       		.uleb128 0x1d
 1488 0a36 BA090000 		.4byte	0x9ba
 1489 0a3a 00       		.byte	0
 1490 0a3b 1D       		.uleb128 0x1d
 1491 0a3c E8090000 		.4byte	0x9e8
 1492 0a40 04       		.byte	0x4
 1493 0a41 1D       		.uleb128 0x1d
 1494 0a42 0A0A0000 		.4byte	0xa0a
 1495 0a46 08       		.byte	0x8
 1496 0a47 0E       		.uleb128 0xe
 1497 0a48 4C435200 		.ascii	"LCR\000"
 1498 0a4c 13       		.byte	0x13
 1499 0a4d 5F01     		.2byte	0x15f
 1500 0a4f EA000000 		.4byte	0xea
 1501 0a53 0C       		.byte	0xc
 1502 0a54 0F       		.uleb128 0xf
 1503 0a55 2D020000 		.4byte	.LASF138
 1504 0a59 13       		.byte	0x13
 1505 0a5a 6001     		.2byte	0x160
 1506 0a5c DF000000 		.4byte	0xdf
 1507 0a60 10       		.byte	0x10
 1508 0a61 0E       		.uleb128 0xe
 1509 0a62 4C535200 		.ascii	"LSR\000"
 1510 0a66 13       		.byte	0x13
 1511 0a67 6101     		.2byte	0x161
 1512 0a69 EF000000 		.4byte	0xef
 1513 0a6d 14       		.byte	0x14
 1514 0a6e 0F       		.uleb128 0xf
 1515 0a6f 37020000 		.4byte	.LASF139
 1516 0a73 13       		.byte	0x13
 1517 0a74 6201     		.2byte	0x162
 1518 0a76 DF000000 		.4byte	0xdf
 1519 0a7a 18       		.byte	0x18
 1520 0a7b 0E       		.uleb128 0xe
 1521 0a7c 53435200 		.ascii	"SCR\000"
 1522 0a80 13       		.byte	0x13
 1523 0a81 6301     		.2byte	0x163
 1524 0a83 EA000000 		.4byte	0xea
 1525 0a87 1C       		.byte	0x1c
 1526 0a88 0E       		.uleb128 0xe
 1527 0a89 41435200 		.ascii	"ACR\000"
 1528 0a8d 13       		.byte	0x13
 1529 0a8e 6401     		.2byte	0x164
 1530 0a90 EA000000 		.4byte	0xea
 1531 0a94 20       		.byte	0x20
 1532 0a95 0E       		.uleb128 0xe
 1533 0a96 49435200 		.ascii	"ICR\000"
 1534 0a9a 13       		.byte	0x13
 1535 0a9b 6501     		.2byte	0x165
 1536 0a9d EA000000 		.4byte	0xea
 1537 0aa1 24       		.byte	0x24
 1538 0aa2 0E       		.uleb128 0xe
 1539 0aa3 46445200 		.ascii	"FDR\000"
ARM GAS  /tmp/ccxOSucU.s 			page 28


 1540 0aa7 13       		.byte	0x13
 1541 0aa8 6601     		.2byte	0x166
 1542 0aaa EA000000 		.4byte	0xea
 1543 0aae 28       		.byte	0x28
 1544 0aaf 0F       		.uleb128 0xf
 1545 0ab0 76020000 		.4byte	.LASF142
 1546 0ab4 13       		.byte	0x13
 1547 0ab5 6701     		.2byte	0x167
 1548 0ab7 DF000000 		.4byte	0xdf
 1549 0abb 2C       		.byte	0x2c
 1550 0abc 0E       		.uleb128 0xe
 1551 0abd 54455200 		.ascii	"TER\000"
 1552 0ac1 13       		.byte	0x13
 1553 0ac2 6801     		.2byte	0x168
 1554 0ac4 EA000000 		.4byte	0xea
 1555 0ac8 30       		.byte	0x30
 1556 0ac9 00       		.byte	0
 1557 0aca 10       		.uleb128 0x10
 1558 0acb 96060000 		.4byte	.LASF143
 1559 0acf 13       		.byte	0x13
 1560 0ad0 6901     		.2byte	0x169
 1561 0ad2 2C0A0000 		.4byte	0xa2c
 1562 0ad6 1A       		.uleb128 0x1a
 1563 0ad7 14       		.byte	0x14
 1564 0ad8 13       		.byte	0x13
 1565 0ad9 B402     		.2byte	0x2b4
 1566 0adb 210B0000 		.4byte	0xb21
 1567 0adf 0F       		.uleb128 0xf
 1568 0ae0 4A010000 		.4byte	.LASF144
 1569 0ae4 13       		.byte	0x13
 1570 0ae5 B602     		.2byte	0x2b6
 1571 0ae7 EA000000 		.4byte	0xea
 1572 0aeb 00       		.byte	0
 1573 0aec 0F       		.uleb128 0xf
 1574 0aed 1C010000 		.4byte	.LASF145
 1575 0af1 13       		.byte	0x13
 1576 0af2 B702     		.2byte	0x2b7
 1577 0af4 EA000000 		.4byte	0xea
 1578 0af8 04       		.byte	0x4
 1579 0af9 0F       		.uleb128 0xf
 1580 0afa AC060000 		.4byte	.LASF146
 1581 0afe 13       		.byte	0x13
 1582 0aff B802     		.2byte	0x2b8
 1583 0b01 EA000000 		.4byte	0xea
 1584 0b05 08       		.byte	0x8
 1585 0b06 0F       		.uleb128 0xf
 1586 0b07 38030000 		.4byte	.LASF147
 1587 0b0b 13       		.byte	0x13
 1588 0b0c B902     		.2byte	0x2b9
 1589 0b0e EA000000 		.4byte	0xea
 1590 0b12 0C       		.byte	0xc
 1591 0b13 0F       		.uleb128 0xf
 1592 0b14 97070000 		.4byte	.LASF148
 1593 0b18 13       		.byte	0x13
 1594 0b19 BA02     		.2byte	0x2ba
 1595 0b1b EA000000 		.4byte	0xea
 1596 0b1f 10       		.byte	0x10
ARM GAS  /tmp/ccxOSucU.s 			page 29


 1597 0b20 00       		.byte	0
 1598 0b21 10       		.uleb128 0x10
 1599 0b22 9B000000 		.4byte	.LASF149
 1600 0b26 13       		.byte	0x13
 1601 0b27 BB02     		.2byte	0x2bb
 1602 0b29 D60A0000 		.4byte	0xad6
 1603 0b2d 10       		.uleb128 0x10
 1604 0b2e FC060000 		.4byte	.LASF150
 1605 0b32 14       		.byte	0x14
 1606 0b33 8401     		.2byte	0x184
 1607 0b35 DF000000 		.4byte	0xdf
 1608 0b39 17       		.uleb128 0x17
 1609 0b3a 440B0000 		.4byte	0xb44
 1610 0b3e 440B0000 		.4byte	0xb44
 1611 0b42 1E       		.uleb128 0x1e
 1612 0b43 00       		.byte	0
 1613 0b44 0B       		.uleb128 0xb
 1614 0b45 04       		.byte	0x4
 1615 0b46 210B0000 		.4byte	0xb21
 1616 0b4a 19       		.uleb128 0x19
 1617 0b4b 9C030000 		.4byte	.LASF151
 1618 0b4f 15       		.byte	0x15
 1619 0b50 9501     		.2byte	0x195
 1620 0b52 390B0000 		.4byte	0xb39
 1621 0b56 16       		.uleb128 0x16
 1622 0b57 48010000 		.4byte	0x148
 1623 0b5b 6F0B0000 		.4byte	0xb6f
 1624 0b5f 12       		.uleb128 0x12
 1625 0b60 DE020000 		.4byte	0x2de
 1626 0b64 12       		.uleb128 0x12
 1627 0b65 B4000000 		.4byte	0xb4
 1628 0b69 12       		.uleb128 0x12
 1629 0b6a 69010000 		.4byte	0x169
 1630 0b6e 00       		.byte	0
 1631 0b6f 0B       		.uleb128 0xb
 1632 0b70 04       		.byte	0x4
 1633 0b71 560B0000 		.4byte	0xb56
 1634 0b75 16       		.uleb128 0x16
 1635 0b76 48010000 		.4byte	0x148
 1636 0b7a 890B0000 		.4byte	0xb89
 1637 0b7e 12       		.uleb128 0x12
 1638 0b7f DE020000 		.4byte	0x2de
 1639 0b83 12       		.uleb128 0x12
 1640 0b84 69010000 		.4byte	0x169
 1641 0b88 00       		.byte	0
 1642 0b89 0B       		.uleb128 0xb
 1643 0b8a 04       		.byte	0x4
 1644 0b8b 750B0000 		.4byte	0xb75
 1645 0b8f 16       		.uleb128 0x16
 1646 0b90 2C000000 		.4byte	0x2c
 1647 0b94 AD0B0000 		.4byte	0xbad
 1648 0b98 12       		.uleb128 0x12
 1649 0b99 DE020000 		.4byte	0x2de
 1650 0b9d 12       		.uleb128 0x12
 1651 0b9e 34080000 		.4byte	0x834
 1652 0ba2 12       		.uleb128 0x12
 1653 0ba3 2C000000 		.4byte	0x2c
ARM GAS  /tmp/ccxOSucU.s 			page 30


 1654 0ba7 12       		.uleb128 0x12
 1655 0ba8 69010000 		.4byte	0x169
 1656 0bac 00       		.byte	0
 1657 0bad 0B       		.uleb128 0xb
 1658 0bae 04       		.byte	0x4
 1659 0baf 8F0B0000 		.4byte	0xb8f
 1660 0bb3 16       		.uleb128 0x16
 1661 0bb4 2C000000 		.4byte	0x2c
 1662 0bb8 D10B0000 		.4byte	0xbd1
 1663 0bbc 12       		.uleb128 0x12
 1664 0bbd DE020000 		.4byte	0x2de
 1665 0bc1 12       		.uleb128 0x12
 1666 0bc2 FF070000 		.4byte	0x7ff
 1667 0bc6 12       		.uleb128 0x12
 1668 0bc7 2C000000 		.4byte	0x2c
 1669 0bcb 12       		.uleb128 0x12
 1670 0bcc 69010000 		.4byte	0x169
 1671 0bd0 00       		.byte	0
 1672 0bd1 0B       		.uleb128 0xb
 1673 0bd2 04       		.byte	0x4
 1674 0bd3 B30B0000 		.4byte	0xbb3
 1675 0bd7 0A       		.uleb128 0xa
 1676 0bd8 08       		.byte	0x8
 1677 0bd9 16       		.byte	0x16
 1678 0bda 2E       		.byte	0x2e
 1679 0bdb F80B0000 		.4byte	0xbf8
 1680 0bdf 08       		.uleb128 0x8
 1681 0be0 6A080000 		.4byte	.LASF152
 1682 0be4 16       		.byte	0x16
 1683 0be5 30       		.byte	0x30
 1684 0be6 DF000000 		.4byte	0xdf
 1685 0bea 00       		.byte	0
 1686 0beb 09       		.uleb128 0x9
 1687 0bec 64697200 		.ascii	"dir\000"
 1688 0bf0 16       		.byte	0x16
 1689 0bf1 32       		.byte	0x32
 1690 0bf2 DF000000 		.4byte	0xdf
 1691 0bf6 04       		.byte	0x4
 1692 0bf7 00       		.byte	0
 1693 0bf8 03       		.uleb128 0x3
 1694 0bf9 56070000 		.4byte	.LASF153
 1695 0bfd 16       		.byte	0x16
 1696 0bfe 33       		.byte	0x33
 1697 0bff D70B0000 		.4byte	0xbd7
 1698 0c03 0A       		.uleb128 0xa
 1699 0c04 28       		.byte	0x28
 1700 0c05 16       		.byte	0x16
 1701 0c06 41       		.byte	0x41
 1702 0c07 430C0000 		.4byte	0xc43
 1703 0c0b 09       		.uleb128 0x9
 1704 0c0c 503000   		.ascii	"P0\000"
 1705 0c0f 16       		.byte	0x16
 1706 0c10 43       		.byte	0x43
 1707 0c11 F80B0000 		.4byte	0xbf8
 1708 0c15 00       		.byte	0
 1709 0c16 09       		.uleb128 0x9
 1710 0c17 503100   		.ascii	"P1\000"
ARM GAS  /tmp/ccxOSucU.s 			page 31


 1711 0c1a 16       		.byte	0x16
 1712 0c1b 45       		.byte	0x45
 1713 0c1c F80B0000 		.4byte	0xbf8
 1714 0c20 08       		.byte	0x8
 1715 0c21 09       		.uleb128 0x9
 1716 0c22 503200   		.ascii	"P2\000"
 1717 0c25 16       		.byte	0x16
 1718 0c26 47       		.byte	0x47
 1719 0c27 F80B0000 		.4byte	0xbf8
 1720 0c2b 10       		.byte	0x10
 1721 0c2c 09       		.uleb128 0x9
 1722 0c2d 503300   		.ascii	"P3\000"
 1723 0c30 16       		.byte	0x16
 1724 0c31 49       		.byte	0x49
 1725 0c32 F80B0000 		.4byte	0xbf8
 1726 0c36 18       		.byte	0x18
 1727 0c37 09       		.uleb128 0x9
 1728 0c38 503400   		.ascii	"P4\000"
 1729 0c3b 16       		.byte	0x16
 1730 0c3c 4B       		.byte	0x4b
 1731 0c3d F80B0000 		.4byte	0xbf8
 1732 0c41 20       		.byte	0x20
 1733 0c42 00       		.byte	0
 1734 0c43 03       		.uleb128 0x3
 1735 0c44 7F070000 		.4byte	.LASF154
 1736 0c48 16       		.byte	0x16
 1737 0c49 4C       		.byte	0x4c
 1738 0c4a 030C0000 		.4byte	0xc03
 1739 0c4e 05       		.uleb128 0x5
 1740 0c4f 430C0000 		.4byte	0xc43
 1741 0c53 19       		.uleb128 0x19
 1742 0c54 D2010000 		.4byte	.LASF155
 1743 0c58 16       		.byte	0x16
 1744 0c59 3301     		.2byte	0x133
 1745 0c5b 4E0C0000 		.4byte	0xc4e
 1746 0c5f 1F       		.uleb128 0x1f
 1747 0c60 01       		.byte	0x1
 1748 0c61 5E000000 		.4byte	0x5e
 1749 0c65 17       		.byte	0x17
 1750 0c66 35       		.byte	0x35
 1751 0c67 8A0C0000 		.4byte	0xc8a
 1752 0c6b 20       		.uleb128 0x20
 1753 0c6c 85020000 		.4byte	.LASF156
 1754 0c70 00       		.byte	0
 1755 0c71 20       		.uleb128 0x20
 1756 0c72 F6070000 		.4byte	.LASF157
 1757 0c76 01       		.byte	0x1
 1758 0c77 20       		.uleb128 0x20
 1759 0c78 6C060000 		.4byte	.LASF158
 1760 0c7c 02       		.byte	0x2
 1761 0c7d 20       		.uleb128 0x20
 1762 0c7e 76060000 		.4byte	.LASF159
 1763 0c82 03       		.byte	0x3
 1764 0c83 20       		.uleb128 0x20
 1765 0c84 64040000 		.4byte	.LASF160
 1766 0c88 04       		.byte	0x4
 1767 0c89 00       		.byte	0
ARM GAS  /tmp/ccxOSucU.s 			page 32


 1768 0c8a 03       		.uleb128 0x3
 1769 0c8b C3000000 		.4byte	.LASF161
 1770 0c8f 17       		.byte	0x17
 1771 0c90 3B       		.byte	0x3b
 1772 0c91 5F0C0000 		.4byte	0xc5f
 1773 0c95 03       		.uleb128 0x3
 1774 0c96 29040000 		.4byte	.LASF162
 1775 0c9a 17       		.byte	0x17
 1776 0c9b 40       		.byte	0x40
 1777 0c9c A00C0000 		.4byte	0xca0
 1778 0ca0 07       		.uleb128 0x7
 1779 0ca1 29040000 		.4byte	.LASF162
 1780 0ca5 10       		.byte	0x10
 1781 0ca6 18       		.byte	0x18
 1782 0ca7 93       		.byte	0x93
 1783 0ca8 DD0C0000 		.4byte	0xcdd
 1784 0cac 08       		.uleb128 0x8
 1785 0cad D5000000 		.4byte	.LASF163
 1786 0cb1 18       		.byte	0x18
 1787 0cb2 97       		.byte	0x97
 1788 0cb3 8A0C0000 		.4byte	0xc8a
 1789 0cb7 00       		.byte	0
 1790 0cb8 08       		.uleb128 0x8
 1791 0cb9 CE000000 		.4byte	.LASF164
 1792 0cbd 18       		.byte	0x18
 1793 0cbe 9B       		.byte	0x9b
 1794 0cbf 3B0D0000 		.4byte	0xd3b
 1795 0cc3 04       		.byte	0x4
 1796 0cc4 08       		.uleb128 0x8
 1797 0cc5 CA030000 		.4byte	.LASF165
 1798 0cc9 18       		.byte	0x18
 1799 0cca A0       		.byte	0xa0
 1800 0ccb DF000000 		.4byte	0xdf
 1801 0ccf 08       		.byte	0x8
 1802 0cd0 09       		.uleb128 0x9
 1803 0cd1 746D7200 		.ascii	"tmr\000"
 1804 0cd5 18       		.byte	0x18
 1805 0cd6 A4       		.byte	0xa4
 1806 0cd7 410D0000 		.4byte	0xd41
 1807 0cdb 0C       		.byte	0xc
 1808 0cdc 00       		.byte	0
 1809 0cdd 03       		.uleb128 0x3
 1810 0cde 76080000 		.4byte	.LASF166
 1811 0ce2 17       		.byte	0x17
 1812 0ce3 47       		.byte	0x47
 1813 0ce4 E80C0000 		.4byte	0xce8
 1814 0ce8 0B       		.uleb128 0xb
 1815 0ce9 04       		.byte	0x4
 1816 0cea EE0C0000 		.4byte	0xcee
 1817 0cee 11       		.uleb128 0x11
 1818 0cef F90C0000 		.4byte	0xcf9
 1819 0cf3 12       		.uleb128 0x12
 1820 0cf4 F90C0000 		.4byte	0xcf9
 1821 0cf8 00       		.byte	0
 1822 0cf9 0B       		.uleb128 0xb
 1823 0cfa 04       		.byte	0x4
 1824 0cfb 950C0000 		.4byte	0xc95
ARM GAS  /tmp/ccxOSucU.s 			page 33


 1825 0cff 03       		.uleb128 0x3
 1826 0d00 82030000 		.4byte	.LASF167
 1827 0d04 18       		.byte	0x18
 1828 0d05 76       		.byte	0x76
 1829 0d06 DF000000 		.4byte	0xdf
 1830 0d0a 0A       		.uleb128 0xa
 1831 0d0b 08       		.byte	0x8
 1832 0d0c 18       		.byte	0x18
 1833 0d0d 81       		.byte	0x81
 1834 0d0e 2B0D0000 		.4byte	0xd2b
 1835 0d12 08       		.uleb128 0x8
 1836 0d13 48040000 		.4byte	.LASF168
 1837 0d17 18       		.byte	0x18
 1838 0d18 87       		.byte	0x87
 1839 0d19 FF0C0000 		.4byte	0xcff
 1840 0d1d 00       		.byte	0
 1841 0d1e 08       		.uleb128 0x8
 1842 0d1f EB000000 		.4byte	.LASF169
 1843 0d23 18       		.byte	0x18
 1844 0d24 8C       		.byte	0x8c
 1845 0d25 DD0C0000 		.4byte	0xcdd
 1846 0d29 04       		.byte	0x4
 1847 0d2a 00       		.byte	0
 1848 0d2b 03       		.uleb128 0x3
 1849 0d2c D0030000 		.4byte	.LASF170
 1850 0d30 18       		.byte	0x18
 1851 0d31 8E       		.byte	0x8e
 1852 0d32 0A0D0000 		.4byte	0xd0a
 1853 0d36 05       		.uleb128 0x5
 1854 0d37 2B0D0000 		.4byte	0xd2b
 1855 0d3b 0B       		.uleb128 0xb
 1856 0d3c 04       		.byte	0x4
 1857 0d3d 360D0000 		.4byte	0xd36
 1858 0d41 0B       		.uleb128 0xb
 1859 0d42 04       		.byte	0x4
 1860 0d43 AE090000 		.4byte	0x9ae
 1861 0d47 13       		.uleb128 0x13
 1862 0d48 90010000 		.4byte	.LASF171
 1863 0d4c 18       		.byte	0x18
 1864 0d4d B0       		.byte	0xb0
 1865 0d4e 950C0000 		.4byte	0xc95
 1866 0d52 13       		.uleb128 0x13
 1867 0d53 96010000 		.4byte	.LASF172
 1868 0d57 18       		.byte	0x18
 1869 0d58 B4       		.byte	0xb4
 1870 0d59 950C0000 		.4byte	0xc95
 1871 0d5d 13       		.uleb128 0x13
 1872 0d5e 9C010000 		.4byte	.LASF173
 1873 0d62 18       		.byte	0x18
 1874 0d63 B8       		.byte	0xb8
 1875 0d64 950C0000 		.4byte	0xc95
 1876 0d68 13       		.uleb128 0x13
 1877 0d69 A2010000 		.4byte	.LASF174
 1878 0d6d 18       		.byte	0x18
 1879 0d6e BC       		.byte	0xbc
 1880 0d6f 950C0000 		.4byte	0xc95
 1881 0d73 1F       		.uleb128 0x1f
ARM GAS  /tmp/ccxOSucU.s 			page 34


 1882 0d74 01       		.byte	0x1
 1883 0d75 5E000000 		.4byte	0x5e
 1884 0d79 19       		.byte	0x19
 1885 0d7a 5D       		.byte	0x5d
 1886 0d7b 920D0000 		.4byte	0xd92
 1887 0d7f 20       		.uleb128 0x20
 1888 0d80 66020000 		.4byte	.LASF175
 1889 0d84 00       		.byte	0
 1890 0d85 20       		.uleb128 0x20
 1891 0d86 39080000 		.4byte	.LASF176
 1892 0d8a 01       		.byte	0x1
 1893 0d8b 20       		.uleb128 0x20
 1894 0d8c F3060000 		.4byte	.LASF177
 1895 0d90 02       		.byte	0x2
 1896 0d91 00       		.byte	0
 1897 0d92 03       		.uleb128 0x3
 1898 0d93 DE060000 		.4byte	.LASF178
 1899 0d97 19       		.byte	0x19
 1900 0d98 61       		.byte	0x61
 1901 0d99 730D0000 		.4byte	0xd73
 1902 0d9d 03       		.uleb128 0x3
 1903 0d9e B9060000 		.4byte	.LASF179
 1904 0da2 19       		.byte	0x19
 1905 0da3 66       		.byte	0x66
 1906 0da4 A80D0000 		.4byte	0xda8
 1907 0da8 07       		.uleb128 0x7
 1908 0da9 B9060000 		.4byte	.LASF179
 1909 0dad 78       		.byte	0x78
 1910 0dae 19       		.byte	0x19
 1911 0daf 80       		.byte	0x80
 1912 0db0 130E0000 		.4byte	0xe13
 1913 0db4 09       		.uleb128 0x9
 1914 0db5 766D7400 		.ascii	"vmt\000"
 1915 0db9 19       		.byte	0x19
 1916 0dba 82       		.byte	0x82
 1917 0dbb 9B0E0000 		.4byte	0xe9b
 1918 0dbf 00       		.byte	0
 1919 0dc0 08       		.uleb128 0x8
 1920 0dc1 7A040000 		.4byte	.LASF180
 1921 0dc5 19       		.byte	0x19
 1922 0dc6 83       		.byte	0x83
 1923 0dc7 EC050000 		.4byte	0x5ec
 1924 0dcb 04       		.byte	0x4
 1925 0dcc 08       		.uleb128 0x8
 1926 0dcd D5000000 		.4byte	.LASF163
 1927 0dd1 19       		.byte	0x19
 1928 0dd2 83       		.byte	0x83
 1929 0dd3 920D0000 		.4byte	0xd92
 1930 0dd7 08       		.byte	0x8
 1931 0dd8 08       		.uleb128 0x8
 1932 0dd9 3E070000 		.4byte	.LASF181
 1933 0ddd 19       		.byte	0x19
 1934 0dde 83       		.byte	0x83
 1935 0ddf 05080000 		.4byte	0x805
 1936 0de3 0C       		.byte	0xc
 1937 0de4 08       		.uleb128 0x8
 1938 0de5 BB010000 		.4byte	.LASF182
ARM GAS  /tmp/ccxOSucU.s 			page 35


 1939 0de9 19       		.byte	0x19
 1940 0dea 83       		.byte	0x83
 1941 0deb 10080000 		.4byte	0x810
 1942 0def 30       		.byte	0x30
 1943 0df0 09       		.uleb128 0x9
 1944 0df1 696200   		.ascii	"ib\000"
 1945 0df4 19       		.byte	0x19
 1946 0df5 83       		.byte	0x83
 1947 0df6 A10E0000 		.4byte	0xea1
 1948 0dfa 54       		.byte	0x54
 1949 0dfb 09       		.uleb128 0x9
 1950 0dfc 6F6200   		.ascii	"ob\000"
 1951 0dff 19       		.byte	0x19
 1952 0e00 83       		.byte	0x83
 1953 0e01 A10E0000 		.4byte	0xea1
 1954 0e05 64       		.byte	0x64
 1955 0e06 08       		.uleb128 0x8
 1956 0e07 39070000 		.4byte	.LASF183
 1957 0e0b 19       		.byte	0x19
 1958 0e0c 83       		.byte	0x83
 1959 0e0d B10E0000 		.4byte	0xeb1
 1960 0e11 74       		.byte	0x74
 1961 0e12 00       		.byte	0
 1962 0e13 21       		.uleb128 0x21
 1963 0e14 53443100 		.ascii	"SD1\000"
 1964 0e18 1A       		.byte	0x1a
 1965 0e19 EF       		.byte	0xef
 1966 0e1a 9D0D0000 		.4byte	0xd9d
 1967 0e1e 21       		.uleb128 0x21
 1968 0e1f 53443300 		.ascii	"SD3\000"
 1969 0e23 1A       		.byte	0x1a
 1970 0e24 F7       		.byte	0xf7
 1971 0e25 9D0D0000 		.4byte	0xd9d
 1972 0e29 07       		.uleb128 0x7
 1973 0e2a BA030000 		.4byte	.LASF184
 1974 0e2e 20       		.byte	0x20
 1975 0e2f 19       		.byte	0x19
 1976 0e30 75       		.byte	0x75
 1977 0e31 960E0000 		.4byte	0xe96
 1978 0e35 08       		.uleb128 0x8
 1979 0e36 AF000000 		.4byte	.LASF185
 1980 0e3a 19       		.byte	0x19
 1981 0e3b 76       		.byte	0x76
 1982 0e3c 3A080000 		.4byte	0x83a
 1983 0e40 00       		.byte	0
 1984 0e41 08       		.uleb128 0x8
 1985 0e42 88040000 		.4byte	.LASF186
 1986 0e46 19       		.byte	0x19
 1987 0e47 76       		.byte	0x76
 1988 0e48 59080000 		.4byte	0x859
 1989 0e4c 04       		.byte	0x4
 1990 0e4d 09       		.uleb128 0x9
 1991 0e4e 70757400 		.ascii	"put\000"
 1992 0e52 19       		.byte	0x19
 1993 0e53 76       		.byte	0x76
 1994 0e54 73080000 		.4byte	0x873
 1995 0e58 08       		.byte	0x8
ARM GAS  /tmp/ccxOSucU.s 			page 36


 1996 0e59 09       		.uleb128 0x9
 1997 0e5a 67657400 		.ascii	"get\000"
 1998 0e5e 19       		.byte	0x19
 1999 0e5f 76       		.byte	0x76
 2000 0e60 44060000 		.4byte	0x644
 2001 0e64 0C       		.byte	0xc
 2002 0e65 08       		.uleb128 0x8
 2003 0e66 DB000000 		.4byte	.LASF187
 2004 0e6a 19       		.byte	0x19
 2005 0e6b 76       		.byte	0x76
 2006 0e6c 6F0B0000 		.4byte	0xb6f
 2007 0e70 10       		.byte	0x10
 2008 0e71 08       		.uleb128 0x8
 2009 0e72 CA020000 		.4byte	.LASF188
 2010 0e76 19       		.byte	0x19
 2011 0e77 76       		.byte	0x76
 2012 0e78 890B0000 		.4byte	0xb89
 2013 0e7c 14       		.byte	0x14
 2014 0e7d 08       		.uleb128 0x8
 2015 0e7e 80000000 		.4byte	.LASF189
 2016 0e82 19       		.byte	0x19
 2017 0e83 76       		.byte	0x76
 2018 0e84 AD0B0000 		.4byte	0xbad
 2019 0e88 18       		.byte	0x18
 2020 0e89 08       		.uleb128 0x8
 2021 0e8a 3B010000 		.4byte	.LASF190
 2022 0e8e 19       		.byte	0x19
 2023 0e8f 76       		.byte	0x76
 2024 0e90 D10B0000 		.4byte	0xbd1
 2025 0e94 1C       		.byte	0x1c
 2026 0e95 00       		.byte	0
 2027 0e96 05       		.uleb128 0x5
 2028 0e97 290E0000 		.4byte	0xe29
 2029 0e9b 0B       		.uleb128 0xb
 2030 0e9c 04       		.byte	0x4
 2031 0e9d 960E0000 		.4byte	0xe96
 2032 0ea1 17       		.uleb128 0x17
 2033 0ea2 B4000000 		.4byte	0xb4
 2034 0ea6 B10E0000 		.4byte	0xeb1
 2035 0eaa 18       		.uleb128 0x18
 2036 0eab 93030000 		.4byte	0x393
 2037 0eaf 0F       		.byte	0xf
 2038 0eb0 00       		.byte	0
 2039 0eb1 0B       		.uleb128 0xb
 2040 0eb2 04       		.byte	0x4
 2041 0eb3 CA0A0000 		.4byte	0xaca
 2042 0eb7 22       		.uleb128 0x22
 2043 0eb8 D9040000 		.4byte	.LASF193
 2044 0ebc 01       		.byte	0x1
 2045 0ebd BD       		.byte	0xbd
 2046 0ebe 00000000 		.4byte	.LFB65
 2047 0ec2 28000000 		.4byte	.LFE65-.LFB65
 2048 0ec6 01       		.uleb128 0x1
 2049 0ec7 9C       		.byte	0x9c
 2050 0ec8 230F0000 		.4byte	0xf23
 2051 0ecc 23       		.uleb128 0x23
 2052 0ecd E2030000 		.4byte	.LASF203
ARM GAS  /tmp/ccxOSucU.s 			page 37


 2053 0ed1 01       		.byte	0x1
 2054 0ed2 BD       		.byte	0xbd
 2055 0ed3 2D0B0000 		.4byte	0xb2d
 2056 0ed7 00000000 		.4byte	.LLST1
 2057 0edb 24       		.uleb128 0x24
 2058 0edc 1E000000 		.4byte	.LASF191
 2059 0ee0 01       		.byte	0x1
 2060 0ee1 BE       		.byte	0xbe
 2061 0ee2 2D0B0000 		.4byte	0xb2d
 2062 0ee6 01       		.uleb128 0x1
 2063 0ee7 52       		.byte	0x52
 2064 0ee8 24       		.uleb128 0x24
 2065 0ee9 52040000 		.4byte	.LASF192
 2066 0eed 01       		.byte	0x1
 2067 0eee BF       		.byte	0xbf
 2068 0eef 2D0B0000 		.4byte	0xb2d
 2069 0ef3 01       		.uleb128 0x1
 2070 0ef4 50       		.byte	0x50
 2071 0ef5 25       		.uleb128 0x25
 2072 0ef6 230F0000 		.4byte	0xf23
 2073 0efa 02000000 		.4byte	.LBB4
 2074 0efe 00000000 		.4byte	.Ldebug_ranges0+0
 2075 0f02 01       		.byte	0x1
 2076 0f03 C0       		.byte	0xc0
 2077 0f04 26       		.uleb128 0x26
 2078 0f05 3E0F0000 		.4byte	0xf3e
 2079 0f09 21000000 		.4byte	.LLST2
 2080 0f0d 26       		.uleb128 0x26
 2081 0f0e 330F0000 		.4byte	0xf33
 2082 0f12 3F000000 		.4byte	.LLST3
 2083 0f16 27       		.uleb128 0x27
 2084 0f17 00000000 		.4byte	.Ldebug_ranges0+0
 2085 0f1b 28       		.uleb128 0x28
 2086 0f1c BB0F0000 		.4byte	0xfbb
 2087 0f20 00       		.byte	0
 2088 0f21 00       		.byte	0
 2089 0f22 00       		.byte	0
 2090 0f23 29       		.uleb128 0x29
 2091 0f24 0C030000 		.4byte	.LASF204
 2092 0f28 01       		.byte	0x1
 2093 0f29 AA       		.byte	0xaa
 2094 0f2a FF000000 		.4byte	0xff
 2095 0f2e 01       		.byte	0x1
 2096 0f2f 550F0000 		.4byte	0xf55
 2097 0f33 2A       		.uleb128 0x2a
 2098 0f34 1E000000 		.4byte	.LASF191
 2099 0f38 01       		.byte	0x1
 2100 0f39 AA       		.byte	0xaa
 2101 0f3a 2D0B0000 		.4byte	0xb2d
 2102 0f3e 2B       		.uleb128 0x2b
 2103 0f3f 656E6400 		.ascii	"end\000"
 2104 0f43 01       		.byte	0x1
 2105 0f44 AA       		.byte	0xaa
 2106 0f45 2D0B0000 		.4byte	0xb2d
 2107 0f49 2C       		.uleb128 0x2c
 2108 0f4a 6E6F7700 		.ascii	"now\000"
 2109 0f4e 01       		.byte	0x1
ARM GAS  /tmp/ccxOSucU.s 			page 38


 2110 0f4f AB       		.byte	0xab
 2111 0f50 2D0B0000 		.4byte	0xb2d
 2112 0f54 00       		.byte	0
 2113 0f55 22       		.uleb128 0x22
 2114 0f56 DA030000 		.4byte	.LASF194
 2115 0f5a 01       		.byte	0x1
 2116 0f5b 3D       		.byte	0x3d
 2117 0f5c 00000000 		.4byte	.LFB63
 2118 0f60 20000000 		.4byte	.LFE63-.LFB63
 2119 0f64 01       		.uleb128 0x1
 2120 0f65 9C       		.byte	0x9c
 2121 0f66 980F0000 		.4byte	0xf98
 2122 0f6a 2D       		.uleb128 0x2d
 2123 0f6b 06000000 		.4byte	.LVL0
 2124 0f6f C30F0000 		.4byte	0xfc3
 2125 0f73 2D       		.uleb128 0x2d
 2126 0f74 0C000000 		.4byte	.LVL1
 2127 0f78 CF0F0000 		.4byte	0xfcf
 2128 0f7c 2D       		.uleb128 0x2d
 2129 0f7d 10000000 		.4byte	.LVL2
 2130 0f81 DB0F0000 		.4byte	0xfdb
 2131 0f85 2D       		.uleb128 0x2d
 2132 0f86 14000000 		.4byte	.LVL3
 2133 0f8a E60F0000 		.4byte	0xfe6
 2134 0f8e 2E       		.uleb128 0x2e
 2135 0f8f 1C000000 		.4byte	.LVL4
 2136 0f93 F20F0000 		.4byte	0xff2
 2137 0f97 00       		.byte	0
 2138 0f98 2F       		.uleb128 0x2f
 2139 0f99 230F0000 		.4byte	0xf23
 2140 0f9d 00000000 		.4byte	.LFB64
 2141 0fa1 28000000 		.4byte	.LFE64-.LFB64
 2142 0fa5 01       		.uleb128 0x1
 2143 0fa6 9C       		.byte	0x9c
 2144 0fa7 C30F0000 		.4byte	0xfc3
 2145 0fab 26       		.uleb128 0x26
 2146 0fac 330F0000 		.4byte	0xf33
 2147 0fb0 5D000000 		.4byte	.LLST0
 2148 0fb4 30       		.uleb128 0x30
 2149 0fb5 3E0F0000 		.4byte	0xf3e
 2150 0fb9 01       		.uleb128 0x1
 2151 0fba 51       		.byte	0x51
 2152 0fbb 31       		.uleb128 0x31
 2153 0fbc 490F0000 		.4byte	0xf49
 2154 0fc0 01       		.uleb128 0x1
 2155 0fc1 53       		.byte	0x53
 2156 0fc2 00       		.byte	0
 2157 0fc3 32       		.uleb128 0x32
 2158 0fc4 0C020000 		.4byte	.LASF195
 2159 0fc8 0C020000 		.4byte	.LASF195
 2160 0fcc 14       		.byte	0x14
 2161 0fcd AA01     		.2byte	0x1aa
 2162 0fcf 32       		.uleb128 0x32
 2163 0fd0 00000000 		.4byte	.LASF196
 2164 0fd4 00000000 		.4byte	.LASF196
 2165 0fd8 16       		.byte	0x16
 2166 0fd9 3901     		.2byte	0x139
ARM GAS  /tmp/ccxOSucU.s 			page 39


 2167 0fdb 33       		.uleb128 0x33
 2168 0fdc 56000000 		.4byte	.LASF197
 2169 0fe0 56000000 		.4byte	.LASF197
 2170 0fe4 17       		.byte	0x17
 2171 0fe5 67       		.byte	0x67
 2172 0fe6 32       		.uleb128 0x32
 2173 0fe7 CB010000 		.4byte	.LASF198
 2174 0feb CB010000 		.4byte	.LASF198
 2175 0fef 19       		.byte	0x19
 2176 0ff0 2E01     		.2byte	0x12e
 2177 0ff2 33       		.uleb128 0x33
 2178 0ff3 4C070000 		.4byte	.LASF199
 2179 0ff7 4C070000 		.4byte	.LASF199
 2180 0ffb 1B       		.byte	0x1b
 2181 0ffc 5B       		.byte	0x5b
 2182 0ffd 00       		.byte	0
 2183              		.section	.debug_abbrev,"",%progbits
 2184              	.Ldebug_abbrev0:
 2185 0000 01       		.uleb128 0x1
 2186 0001 11       		.uleb128 0x11
 2187 0002 01       		.byte	0x1
 2188 0003 25       		.uleb128 0x25
 2189 0004 0E       		.uleb128 0xe
 2190 0005 13       		.uleb128 0x13
 2191 0006 0B       		.uleb128 0xb
 2192 0007 03       		.uleb128 0x3
 2193 0008 0E       		.uleb128 0xe
 2194 0009 1B       		.uleb128 0x1b
 2195 000a 0E       		.uleb128 0xe
 2196 000b 55       		.uleb128 0x55
 2197 000c 17       		.uleb128 0x17
 2198 000d 11       		.uleb128 0x11
 2199 000e 01       		.uleb128 0x1
 2200 000f 10       		.uleb128 0x10
 2201 0010 17       		.uleb128 0x17
 2202 0011 00       		.byte	0
 2203 0012 00       		.byte	0
 2204 0013 02       		.uleb128 0x2
 2205 0014 24       		.uleb128 0x24
 2206 0015 00       		.byte	0
 2207 0016 0B       		.uleb128 0xb
 2208 0017 0B       		.uleb128 0xb
 2209 0018 3E       		.uleb128 0x3e
 2210 0019 0B       		.uleb128 0xb
 2211 001a 03       		.uleb128 0x3
 2212 001b 08       		.uleb128 0x8
 2213 001c 00       		.byte	0
 2214 001d 00       		.byte	0
 2215 001e 03       		.uleb128 0x3
 2216 001f 16       		.uleb128 0x16
 2217 0020 00       		.byte	0
 2218 0021 03       		.uleb128 0x3
 2219 0022 0E       		.uleb128 0xe
 2220 0023 3A       		.uleb128 0x3a
 2221 0024 0B       		.uleb128 0xb
 2222 0025 3B       		.uleb128 0x3b
 2223 0026 0B       		.uleb128 0xb
ARM GAS  /tmp/ccxOSucU.s 			page 40


 2224 0027 49       		.uleb128 0x49
 2225 0028 13       		.uleb128 0x13
 2226 0029 00       		.byte	0
 2227 002a 00       		.byte	0
 2228 002b 04       		.uleb128 0x4
 2229 002c 24       		.uleb128 0x24
 2230 002d 00       		.byte	0
 2231 002e 0B       		.uleb128 0xb
 2232 002f 0B       		.uleb128 0xb
 2233 0030 3E       		.uleb128 0x3e
 2234 0031 0B       		.uleb128 0xb
 2235 0032 03       		.uleb128 0x3
 2236 0033 0E       		.uleb128 0xe
 2237 0034 00       		.byte	0
 2238 0035 00       		.byte	0
 2239 0036 05       		.uleb128 0x5
 2240 0037 26       		.uleb128 0x26
 2241 0038 00       		.byte	0
 2242 0039 49       		.uleb128 0x49
 2243 003a 13       		.uleb128 0x13
 2244 003b 00       		.byte	0
 2245 003c 00       		.byte	0
 2246 003d 06       		.uleb128 0x6
 2247 003e 35       		.uleb128 0x35
 2248 003f 00       		.byte	0
 2249 0040 49       		.uleb128 0x49
 2250 0041 13       		.uleb128 0x13
 2251 0042 00       		.byte	0
 2252 0043 00       		.byte	0
 2253 0044 07       		.uleb128 0x7
 2254 0045 13       		.uleb128 0x13
 2255 0046 01       		.byte	0x1
 2256 0047 03       		.uleb128 0x3
 2257 0048 0E       		.uleb128 0xe
 2258 0049 0B       		.uleb128 0xb
 2259 004a 0B       		.uleb128 0xb
 2260 004b 3A       		.uleb128 0x3a
 2261 004c 0B       		.uleb128 0xb
 2262 004d 3B       		.uleb128 0x3b
 2263 004e 0B       		.uleb128 0xb
 2264 004f 01       		.uleb128 0x1
 2265 0050 13       		.uleb128 0x13
 2266 0051 00       		.byte	0
 2267 0052 00       		.byte	0
 2268 0053 08       		.uleb128 0x8
 2269 0054 0D       		.uleb128 0xd
 2270 0055 00       		.byte	0
 2271 0056 03       		.uleb128 0x3
 2272 0057 0E       		.uleb128 0xe
 2273 0058 3A       		.uleb128 0x3a
 2274 0059 0B       		.uleb128 0xb
 2275 005a 3B       		.uleb128 0x3b
 2276 005b 0B       		.uleb128 0xb
 2277 005c 49       		.uleb128 0x49
 2278 005d 13       		.uleb128 0x13
 2279 005e 38       		.uleb128 0x38
 2280 005f 0B       		.uleb128 0xb
ARM GAS  /tmp/ccxOSucU.s 			page 41


 2281 0060 00       		.byte	0
 2282 0061 00       		.byte	0
 2283 0062 09       		.uleb128 0x9
 2284 0063 0D       		.uleb128 0xd
 2285 0064 00       		.byte	0
 2286 0065 03       		.uleb128 0x3
 2287 0066 08       		.uleb128 0x8
 2288 0067 3A       		.uleb128 0x3a
 2289 0068 0B       		.uleb128 0xb
 2290 0069 3B       		.uleb128 0x3b
 2291 006a 0B       		.uleb128 0xb
 2292 006b 49       		.uleb128 0x49
 2293 006c 13       		.uleb128 0x13
 2294 006d 38       		.uleb128 0x38
 2295 006e 0B       		.uleb128 0xb
 2296 006f 00       		.byte	0
 2297 0070 00       		.byte	0
 2298 0071 0A       		.uleb128 0xa
 2299 0072 13       		.uleb128 0x13
 2300 0073 01       		.byte	0x1
 2301 0074 0B       		.uleb128 0xb
 2302 0075 0B       		.uleb128 0xb
 2303 0076 3A       		.uleb128 0x3a
 2304 0077 0B       		.uleb128 0xb
 2305 0078 3B       		.uleb128 0x3b
 2306 0079 0B       		.uleb128 0xb
 2307 007a 01       		.uleb128 0x1
 2308 007b 13       		.uleb128 0x13
 2309 007c 00       		.byte	0
 2310 007d 00       		.byte	0
 2311 007e 0B       		.uleb128 0xb
 2312 007f 0F       		.uleb128 0xf
 2313 0080 00       		.byte	0
 2314 0081 0B       		.uleb128 0xb
 2315 0082 0B       		.uleb128 0xb
 2316 0083 49       		.uleb128 0x49
 2317 0084 13       		.uleb128 0x13
 2318 0085 00       		.byte	0
 2319 0086 00       		.byte	0
 2320 0087 0C       		.uleb128 0xc
 2321 0088 0F       		.uleb128 0xf
 2322 0089 00       		.byte	0
 2323 008a 0B       		.uleb128 0xb
 2324 008b 0B       		.uleb128 0xb
 2325 008c 00       		.byte	0
 2326 008d 00       		.byte	0
 2327 008e 0D       		.uleb128 0xd
 2328 008f 13       		.uleb128 0x13
 2329 0090 01       		.byte	0x1
 2330 0091 03       		.uleb128 0x3
 2331 0092 0E       		.uleb128 0xe
 2332 0093 0B       		.uleb128 0xb
 2333 0094 0B       		.uleb128 0xb
 2334 0095 3A       		.uleb128 0x3a
 2335 0096 0B       		.uleb128 0xb
 2336 0097 3B       		.uleb128 0x3b
 2337 0098 05       		.uleb128 0x5
ARM GAS  /tmp/ccxOSucU.s 			page 42


 2338 0099 01       		.uleb128 0x1
 2339 009a 13       		.uleb128 0x13
 2340 009b 00       		.byte	0
 2341 009c 00       		.byte	0
 2342 009d 0E       		.uleb128 0xe
 2343 009e 0D       		.uleb128 0xd
 2344 009f 00       		.byte	0
 2345 00a0 03       		.uleb128 0x3
 2346 00a1 08       		.uleb128 0x8
 2347 00a2 3A       		.uleb128 0x3a
 2348 00a3 0B       		.uleb128 0xb
 2349 00a4 3B       		.uleb128 0x3b
 2350 00a5 05       		.uleb128 0x5
 2351 00a6 49       		.uleb128 0x49
 2352 00a7 13       		.uleb128 0x13
 2353 00a8 38       		.uleb128 0x38
 2354 00a9 0B       		.uleb128 0xb
 2355 00aa 00       		.byte	0
 2356 00ab 00       		.byte	0
 2357 00ac 0F       		.uleb128 0xf
 2358 00ad 0D       		.uleb128 0xd
 2359 00ae 00       		.byte	0
 2360 00af 03       		.uleb128 0x3
 2361 00b0 0E       		.uleb128 0xe
 2362 00b1 3A       		.uleb128 0x3a
 2363 00b2 0B       		.uleb128 0xb
 2364 00b3 3B       		.uleb128 0x3b
 2365 00b4 05       		.uleb128 0x5
 2366 00b5 49       		.uleb128 0x49
 2367 00b6 13       		.uleb128 0x13
 2368 00b7 38       		.uleb128 0x38
 2369 00b8 0B       		.uleb128 0xb
 2370 00b9 00       		.byte	0
 2371 00ba 00       		.byte	0
 2372 00bb 10       		.uleb128 0x10
 2373 00bc 16       		.uleb128 0x16
 2374 00bd 00       		.byte	0
 2375 00be 03       		.uleb128 0x3
 2376 00bf 0E       		.uleb128 0xe
 2377 00c0 3A       		.uleb128 0x3a
 2378 00c1 0B       		.uleb128 0xb
 2379 00c2 3B       		.uleb128 0x3b
 2380 00c3 05       		.uleb128 0x5
 2381 00c4 49       		.uleb128 0x49
 2382 00c5 13       		.uleb128 0x13
 2383 00c6 00       		.byte	0
 2384 00c7 00       		.byte	0
 2385 00c8 11       		.uleb128 0x11
 2386 00c9 15       		.uleb128 0x15
 2387 00ca 01       		.byte	0x1
 2388 00cb 27       		.uleb128 0x27
 2389 00cc 19       		.uleb128 0x19
 2390 00cd 01       		.uleb128 0x1
 2391 00ce 13       		.uleb128 0x13
 2392 00cf 00       		.byte	0
 2393 00d0 00       		.byte	0
 2394 00d1 12       		.uleb128 0x12
ARM GAS  /tmp/ccxOSucU.s 			page 43


 2395 00d2 05       		.uleb128 0x5
 2396 00d3 00       		.byte	0
 2397 00d4 49       		.uleb128 0x49
 2398 00d5 13       		.uleb128 0x13
 2399 00d6 00       		.byte	0
 2400 00d7 00       		.byte	0
 2401 00d8 13       		.uleb128 0x13
 2402 00d9 34       		.uleb128 0x34
 2403 00da 00       		.byte	0
 2404 00db 03       		.uleb128 0x3
 2405 00dc 0E       		.uleb128 0xe
 2406 00dd 3A       		.uleb128 0x3a
 2407 00de 0B       		.uleb128 0xb
 2408 00df 3B       		.uleb128 0x3b
 2409 00e0 0B       		.uleb128 0xb
 2410 00e1 49       		.uleb128 0x49
 2411 00e2 13       		.uleb128 0x13
 2412 00e3 3F       		.uleb128 0x3f
 2413 00e4 19       		.uleb128 0x19
 2414 00e5 3C       		.uleb128 0x3c
 2415 00e6 19       		.uleb128 0x19
 2416 00e7 00       		.byte	0
 2417 00e8 00       		.byte	0
 2418 00e9 14       		.uleb128 0x14
 2419 00ea 17       		.uleb128 0x17
 2420 00eb 01       		.byte	0x1
 2421 00ec 0B       		.uleb128 0xb
 2422 00ed 0B       		.uleb128 0xb
 2423 00ee 3A       		.uleb128 0x3a
 2424 00ef 0B       		.uleb128 0xb
 2425 00f0 3B       		.uleb128 0x3b
 2426 00f1 0B       		.uleb128 0xb
 2427 00f2 01       		.uleb128 0x1
 2428 00f3 13       		.uleb128 0x13
 2429 00f4 00       		.byte	0
 2430 00f5 00       		.byte	0
 2431 00f6 15       		.uleb128 0x15
 2432 00f7 0D       		.uleb128 0xd
 2433 00f8 00       		.byte	0
 2434 00f9 03       		.uleb128 0x3
 2435 00fa 0E       		.uleb128 0xe
 2436 00fb 3A       		.uleb128 0x3a
 2437 00fc 0B       		.uleb128 0xb
 2438 00fd 3B       		.uleb128 0x3b
 2439 00fe 0B       		.uleb128 0xb
 2440 00ff 49       		.uleb128 0x49
 2441 0100 13       		.uleb128 0x13
 2442 0101 00       		.byte	0
 2443 0102 00       		.byte	0
 2444 0103 16       		.uleb128 0x16
 2445 0104 15       		.uleb128 0x15
 2446 0105 01       		.byte	0x1
 2447 0106 27       		.uleb128 0x27
 2448 0107 19       		.uleb128 0x19
 2449 0108 49       		.uleb128 0x49
 2450 0109 13       		.uleb128 0x13
 2451 010a 01       		.uleb128 0x1
ARM GAS  /tmp/ccxOSucU.s 			page 44


 2452 010b 13       		.uleb128 0x13
 2453 010c 00       		.byte	0
 2454 010d 00       		.byte	0
 2455 010e 17       		.uleb128 0x17
 2456 010f 01       		.uleb128 0x1
 2457 0110 01       		.byte	0x1
 2458 0111 49       		.uleb128 0x49
 2459 0112 13       		.uleb128 0x13
 2460 0113 01       		.uleb128 0x1
 2461 0114 13       		.uleb128 0x13
 2462 0115 00       		.byte	0
 2463 0116 00       		.byte	0
 2464 0117 18       		.uleb128 0x18
 2465 0118 21       		.uleb128 0x21
 2466 0119 00       		.byte	0
 2467 011a 49       		.uleb128 0x49
 2468 011b 13       		.uleb128 0x13
 2469 011c 2F       		.uleb128 0x2f
 2470 011d 0B       		.uleb128 0xb
 2471 011e 00       		.byte	0
 2472 011f 00       		.byte	0
 2473 0120 19       		.uleb128 0x19
 2474 0121 34       		.uleb128 0x34
 2475 0122 00       		.byte	0
 2476 0123 03       		.uleb128 0x3
 2477 0124 0E       		.uleb128 0xe
 2478 0125 3A       		.uleb128 0x3a
 2479 0126 0B       		.uleb128 0xb
 2480 0127 3B       		.uleb128 0x3b
 2481 0128 05       		.uleb128 0x5
 2482 0129 49       		.uleb128 0x49
 2483 012a 13       		.uleb128 0x13
 2484 012b 3F       		.uleb128 0x3f
 2485 012c 19       		.uleb128 0x19
 2486 012d 3C       		.uleb128 0x3c
 2487 012e 19       		.uleb128 0x19
 2488 012f 00       		.byte	0
 2489 0130 00       		.byte	0
 2490 0131 1A       		.uleb128 0x1a
 2491 0132 13       		.uleb128 0x13
 2492 0133 01       		.byte	0x1
 2493 0134 0B       		.uleb128 0xb
 2494 0135 0B       		.uleb128 0xb
 2495 0136 3A       		.uleb128 0x3a
 2496 0137 0B       		.uleb128 0xb
 2497 0138 3B       		.uleb128 0x3b
 2498 0139 05       		.uleb128 0x5
 2499 013a 01       		.uleb128 0x1
 2500 013b 13       		.uleb128 0x13
 2501 013c 00       		.byte	0
 2502 013d 00       		.byte	0
 2503 013e 1B       		.uleb128 0x1b
 2504 013f 17       		.uleb128 0x17
 2505 0140 01       		.byte	0x1
 2506 0141 0B       		.uleb128 0xb
 2507 0142 0B       		.uleb128 0xb
 2508 0143 3A       		.uleb128 0x3a
ARM GAS  /tmp/ccxOSucU.s 			page 45


 2509 0144 0B       		.uleb128 0xb
 2510 0145 3B       		.uleb128 0x3b
 2511 0146 05       		.uleb128 0x5
 2512 0147 01       		.uleb128 0x1
 2513 0148 13       		.uleb128 0x13
 2514 0149 00       		.byte	0
 2515 014a 00       		.byte	0
 2516 014b 1C       		.uleb128 0x1c
 2517 014c 0D       		.uleb128 0xd
 2518 014d 00       		.byte	0
 2519 014e 03       		.uleb128 0x3
 2520 014f 08       		.uleb128 0x8
 2521 0150 3A       		.uleb128 0x3a
 2522 0151 0B       		.uleb128 0xb
 2523 0152 3B       		.uleb128 0x3b
 2524 0153 05       		.uleb128 0x5
 2525 0154 49       		.uleb128 0x49
 2526 0155 13       		.uleb128 0x13
 2527 0156 00       		.byte	0
 2528 0157 00       		.byte	0
 2529 0158 1D       		.uleb128 0x1d
 2530 0159 0D       		.uleb128 0xd
 2531 015a 00       		.byte	0
 2532 015b 49       		.uleb128 0x49
 2533 015c 13       		.uleb128 0x13
 2534 015d 38       		.uleb128 0x38
 2535 015e 0B       		.uleb128 0xb
 2536 015f 00       		.byte	0
 2537 0160 00       		.byte	0
 2538 0161 1E       		.uleb128 0x1e
 2539 0162 21       		.uleb128 0x21
 2540 0163 00       		.byte	0
 2541 0164 00       		.byte	0
 2542 0165 00       		.byte	0
 2543 0166 1F       		.uleb128 0x1f
 2544 0167 04       		.uleb128 0x4
 2545 0168 01       		.byte	0x1
 2546 0169 0B       		.uleb128 0xb
 2547 016a 0B       		.uleb128 0xb
 2548 016b 49       		.uleb128 0x49
 2549 016c 13       		.uleb128 0x13
 2550 016d 3A       		.uleb128 0x3a
 2551 016e 0B       		.uleb128 0xb
 2552 016f 3B       		.uleb128 0x3b
 2553 0170 0B       		.uleb128 0xb
 2554 0171 01       		.uleb128 0x1
 2555 0172 13       		.uleb128 0x13
 2556 0173 00       		.byte	0
 2557 0174 00       		.byte	0
 2558 0175 20       		.uleb128 0x20
 2559 0176 28       		.uleb128 0x28
 2560 0177 00       		.byte	0
 2561 0178 03       		.uleb128 0x3
 2562 0179 0E       		.uleb128 0xe
 2563 017a 1C       		.uleb128 0x1c
 2564 017b 0B       		.uleb128 0xb
 2565 017c 00       		.byte	0
ARM GAS  /tmp/ccxOSucU.s 			page 46


 2566 017d 00       		.byte	0
 2567 017e 21       		.uleb128 0x21
 2568 017f 34       		.uleb128 0x34
 2569 0180 00       		.byte	0
 2570 0181 03       		.uleb128 0x3
 2571 0182 08       		.uleb128 0x8
 2572 0183 3A       		.uleb128 0x3a
 2573 0184 0B       		.uleb128 0xb
 2574 0185 3B       		.uleb128 0x3b
 2575 0186 0B       		.uleb128 0xb
 2576 0187 49       		.uleb128 0x49
 2577 0188 13       		.uleb128 0x13
 2578 0189 3F       		.uleb128 0x3f
 2579 018a 19       		.uleb128 0x19
 2580 018b 3C       		.uleb128 0x3c
 2581 018c 19       		.uleb128 0x19
 2582 018d 00       		.byte	0
 2583 018e 00       		.byte	0
 2584 018f 22       		.uleb128 0x22
 2585 0190 2E       		.uleb128 0x2e
 2586 0191 01       		.byte	0x1
 2587 0192 3F       		.uleb128 0x3f
 2588 0193 19       		.uleb128 0x19
 2589 0194 03       		.uleb128 0x3
 2590 0195 0E       		.uleb128 0xe
 2591 0196 3A       		.uleb128 0x3a
 2592 0197 0B       		.uleb128 0xb
 2593 0198 3B       		.uleb128 0x3b
 2594 0199 0B       		.uleb128 0xb
 2595 019a 27       		.uleb128 0x27
 2596 019b 19       		.uleb128 0x19
 2597 019c 11       		.uleb128 0x11
 2598 019d 01       		.uleb128 0x1
 2599 019e 12       		.uleb128 0x12
 2600 019f 06       		.uleb128 0x6
 2601 01a0 40       		.uleb128 0x40
 2602 01a1 18       		.uleb128 0x18
 2603 01a2 9742     		.uleb128 0x2117
 2604 01a4 19       		.uleb128 0x19
 2605 01a5 01       		.uleb128 0x1
 2606 01a6 13       		.uleb128 0x13
 2607 01a7 00       		.byte	0
 2608 01a8 00       		.byte	0
 2609 01a9 23       		.uleb128 0x23
 2610 01aa 05       		.uleb128 0x5
 2611 01ab 00       		.byte	0
 2612 01ac 03       		.uleb128 0x3
 2613 01ad 0E       		.uleb128 0xe
 2614 01ae 3A       		.uleb128 0x3a
 2615 01af 0B       		.uleb128 0xb
 2616 01b0 3B       		.uleb128 0x3b
 2617 01b1 0B       		.uleb128 0xb
 2618 01b2 49       		.uleb128 0x49
 2619 01b3 13       		.uleb128 0x13
 2620 01b4 02       		.uleb128 0x2
 2621 01b5 17       		.uleb128 0x17
 2622 01b6 00       		.byte	0
ARM GAS  /tmp/ccxOSucU.s 			page 47


 2623 01b7 00       		.byte	0
 2624 01b8 24       		.uleb128 0x24
 2625 01b9 34       		.uleb128 0x34
 2626 01ba 00       		.byte	0
 2627 01bb 03       		.uleb128 0x3
 2628 01bc 0E       		.uleb128 0xe
 2629 01bd 3A       		.uleb128 0x3a
 2630 01be 0B       		.uleb128 0xb
 2631 01bf 3B       		.uleb128 0x3b
 2632 01c0 0B       		.uleb128 0xb
 2633 01c1 49       		.uleb128 0x49
 2634 01c2 13       		.uleb128 0x13
 2635 01c3 02       		.uleb128 0x2
 2636 01c4 18       		.uleb128 0x18
 2637 01c5 00       		.byte	0
 2638 01c6 00       		.byte	0
 2639 01c7 25       		.uleb128 0x25
 2640 01c8 1D       		.uleb128 0x1d
 2641 01c9 01       		.byte	0x1
 2642 01ca 31       		.uleb128 0x31
 2643 01cb 13       		.uleb128 0x13
 2644 01cc 52       		.uleb128 0x52
 2645 01cd 01       		.uleb128 0x1
 2646 01ce 55       		.uleb128 0x55
 2647 01cf 17       		.uleb128 0x17
 2648 01d0 58       		.uleb128 0x58
 2649 01d1 0B       		.uleb128 0xb
 2650 01d2 59       		.uleb128 0x59
 2651 01d3 0B       		.uleb128 0xb
 2652 01d4 00       		.byte	0
 2653 01d5 00       		.byte	0
 2654 01d6 26       		.uleb128 0x26
 2655 01d7 05       		.uleb128 0x5
 2656 01d8 00       		.byte	0
 2657 01d9 31       		.uleb128 0x31
 2658 01da 13       		.uleb128 0x13
 2659 01db 02       		.uleb128 0x2
 2660 01dc 17       		.uleb128 0x17
 2661 01dd 00       		.byte	0
 2662 01de 00       		.byte	0
 2663 01df 27       		.uleb128 0x27
 2664 01e0 0B       		.uleb128 0xb
 2665 01e1 01       		.byte	0x1
 2666 01e2 55       		.uleb128 0x55
 2667 01e3 17       		.uleb128 0x17
 2668 01e4 00       		.byte	0
 2669 01e5 00       		.byte	0
 2670 01e6 28       		.uleb128 0x28
 2671 01e7 34       		.uleb128 0x34
 2672 01e8 00       		.byte	0
 2673 01e9 31       		.uleb128 0x31
 2674 01ea 13       		.uleb128 0x13
 2675 01eb 00       		.byte	0
 2676 01ec 00       		.byte	0
 2677 01ed 29       		.uleb128 0x29
 2678 01ee 2E       		.uleb128 0x2e
 2679 01ef 01       		.byte	0x1
ARM GAS  /tmp/ccxOSucU.s 			page 48


 2680 01f0 3F       		.uleb128 0x3f
 2681 01f1 19       		.uleb128 0x19
 2682 01f2 03       		.uleb128 0x3
 2683 01f3 0E       		.uleb128 0xe
 2684 01f4 3A       		.uleb128 0x3a
 2685 01f5 0B       		.uleb128 0xb
 2686 01f6 3B       		.uleb128 0x3b
 2687 01f7 0B       		.uleb128 0xb
 2688 01f8 27       		.uleb128 0x27
 2689 01f9 19       		.uleb128 0x19
 2690 01fa 49       		.uleb128 0x49
 2691 01fb 13       		.uleb128 0x13
 2692 01fc 20       		.uleb128 0x20
 2693 01fd 0B       		.uleb128 0xb
 2694 01fe 01       		.uleb128 0x1
 2695 01ff 13       		.uleb128 0x13
 2696 0200 00       		.byte	0
 2697 0201 00       		.byte	0
 2698 0202 2A       		.uleb128 0x2a
 2699 0203 05       		.uleb128 0x5
 2700 0204 00       		.byte	0
 2701 0205 03       		.uleb128 0x3
 2702 0206 0E       		.uleb128 0xe
 2703 0207 3A       		.uleb128 0x3a
 2704 0208 0B       		.uleb128 0xb
 2705 0209 3B       		.uleb128 0x3b
 2706 020a 0B       		.uleb128 0xb
 2707 020b 49       		.uleb128 0x49
 2708 020c 13       		.uleb128 0x13
 2709 020d 00       		.byte	0
 2710 020e 00       		.byte	0
 2711 020f 2B       		.uleb128 0x2b
 2712 0210 05       		.uleb128 0x5
 2713 0211 00       		.byte	0
 2714 0212 03       		.uleb128 0x3
 2715 0213 08       		.uleb128 0x8
 2716 0214 3A       		.uleb128 0x3a
 2717 0215 0B       		.uleb128 0xb
 2718 0216 3B       		.uleb128 0x3b
 2719 0217 0B       		.uleb128 0xb
 2720 0218 49       		.uleb128 0x49
 2721 0219 13       		.uleb128 0x13
 2722 021a 00       		.byte	0
 2723 021b 00       		.byte	0
 2724 021c 2C       		.uleb128 0x2c
 2725 021d 34       		.uleb128 0x34
 2726 021e 00       		.byte	0
 2727 021f 03       		.uleb128 0x3
 2728 0220 08       		.uleb128 0x8
 2729 0221 3A       		.uleb128 0x3a
 2730 0222 0B       		.uleb128 0xb
 2731 0223 3B       		.uleb128 0x3b
 2732 0224 0B       		.uleb128 0xb
 2733 0225 49       		.uleb128 0x49
 2734 0226 13       		.uleb128 0x13
 2735 0227 00       		.byte	0
 2736 0228 00       		.byte	0
ARM GAS  /tmp/ccxOSucU.s 			page 49


 2737 0229 2D       		.uleb128 0x2d
 2738 022a 898201   		.uleb128 0x4109
 2739 022d 00       		.byte	0
 2740 022e 11       		.uleb128 0x11
 2741 022f 01       		.uleb128 0x1
 2742 0230 31       		.uleb128 0x31
 2743 0231 13       		.uleb128 0x13
 2744 0232 00       		.byte	0
 2745 0233 00       		.byte	0
 2746 0234 2E       		.uleb128 0x2e
 2747 0235 898201   		.uleb128 0x4109
 2748 0238 00       		.byte	0
 2749 0239 11       		.uleb128 0x11
 2750 023a 01       		.uleb128 0x1
 2751 023b 9542     		.uleb128 0x2115
 2752 023d 19       		.uleb128 0x19
 2753 023e 31       		.uleb128 0x31
 2754 023f 13       		.uleb128 0x13
 2755 0240 00       		.byte	0
 2756 0241 00       		.byte	0
 2757 0242 2F       		.uleb128 0x2f
 2758 0243 2E       		.uleb128 0x2e
 2759 0244 01       		.byte	0x1
 2760 0245 31       		.uleb128 0x31
 2761 0246 13       		.uleb128 0x13
 2762 0247 11       		.uleb128 0x11
 2763 0248 01       		.uleb128 0x1
 2764 0249 12       		.uleb128 0x12
 2765 024a 06       		.uleb128 0x6
 2766 024b 40       		.uleb128 0x40
 2767 024c 18       		.uleb128 0x18
 2768 024d 9742     		.uleb128 0x2117
 2769 024f 19       		.uleb128 0x19
 2770 0250 01       		.uleb128 0x1
 2771 0251 13       		.uleb128 0x13
 2772 0252 00       		.byte	0
 2773 0253 00       		.byte	0
 2774 0254 30       		.uleb128 0x30
 2775 0255 05       		.uleb128 0x5
 2776 0256 00       		.byte	0
 2777 0257 31       		.uleb128 0x31
 2778 0258 13       		.uleb128 0x13
 2779 0259 02       		.uleb128 0x2
 2780 025a 18       		.uleb128 0x18
 2781 025b 00       		.byte	0
 2782 025c 00       		.byte	0
 2783 025d 31       		.uleb128 0x31
 2784 025e 34       		.uleb128 0x34
 2785 025f 00       		.byte	0
 2786 0260 31       		.uleb128 0x31
 2787 0261 13       		.uleb128 0x13
 2788 0262 02       		.uleb128 0x2
 2789 0263 18       		.uleb128 0x18
 2790 0264 00       		.byte	0
 2791 0265 00       		.byte	0
 2792 0266 32       		.uleb128 0x32
 2793 0267 2E       		.uleb128 0x2e
ARM GAS  /tmp/ccxOSucU.s 			page 50


 2794 0268 00       		.byte	0
 2795 0269 3F       		.uleb128 0x3f
 2796 026a 19       		.uleb128 0x19
 2797 026b 3C       		.uleb128 0x3c
 2798 026c 19       		.uleb128 0x19
 2799 026d 6E       		.uleb128 0x6e
 2800 026e 0E       		.uleb128 0xe
 2801 026f 03       		.uleb128 0x3
 2802 0270 0E       		.uleb128 0xe
 2803 0271 3A       		.uleb128 0x3a
 2804 0272 0B       		.uleb128 0xb
 2805 0273 3B       		.uleb128 0x3b
 2806 0274 05       		.uleb128 0x5
 2807 0275 00       		.byte	0
 2808 0276 00       		.byte	0
 2809 0277 33       		.uleb128 0x33
 2810 0278 2E       		.uleb128 0x2e
 2811 0279 00       		.byte	0
 2812 027a 3F       		.uleb128 0x3f
 2813 027b 19       		.uleb128 0x19
 2814 027c 3C       		.uleb128 0x3c
 2815 027d 19       		.uleb128 0x19
 2816 027e 6E       		.uleb128 0x6e
 2817 027f 0E       		.uleb128 0xe
 2818 0280 03       		.uleb128 0x3
 2819 0281 0E       		.uleb128 0xe
 2820 0282 3A       		.uleb128 0x3a
 2821 0283 0B       		.uleb128 0xb
 2822 0284 3B       		.uleb128 0x3b
 2823 0285 0B       		.uleb128 0xb
 2824 0286 00       		.byte	0
 2825 0287 00       		.byte	0
 2826 0288 00       		.byte	0
 2827              		.section	.debug_loc,"",%progbits
 2828              	.Ldebug_loc0:
 2829              	.LLST1:
 2830 0000 00000000 		.4byte	.LVL12
 2831 0004 08000000 		.4byte	.LVL14
 2832 0008 0100     		.2byte	0x1
 2833 000a 50       		.byte	0x50
 2834 000b 08000000 		.4byte	.LVL14
 2835 000f 28000000 		.4byte	.LFE65
 2836 0013 0400     		.2byte	0x4
 2837 0015 F3       		.byte	0xf3
 2838 0016 01       		.uleb128 0x1
 2839 0017 50       		.byte	0x50
 2840 0018 9F       		.byte	0x9f
 2841 0019 00000000 		.4byte	0
 2842 001d 00000000 		.4byte	0
 2843              	.LLST2:
 2844 0021 08000000 		.4byte	.LVL14
 2845 0025 14000000 		.4byte	.LVL16
 2846 0029 0100     		.2byte	0x1
 2847 002b 50       		.byte	0x50
 2848 002c 1E000000 		.4byte	.LVL17
 2849 0030 28000000 		.4byte	.LFE65
 2850 0034 0100     		.2byte	0x1
ARM GAS  /tmp/ccxOSucU.s 			page 51


 2851 0036 50       		.byte	0x50
 2852 0037 00000000 		.4byte	0
 2853 003b 00000000 		.4byte	0
 2854              	.LLST3:
 2855 003f 08000000 		.4byte	.LVL14
 2856 0043 14000000 		.4byte	.LVL16
 2857 0047 0100     		.2byte	0x1
 2858 0049 52       		.byte	0x52
 2859 004a 1E000000 		.4byte	.LVL17
 2860 004e 28000000 		.4byte	.LFE65
 2861 0052 0100     		.2byte	0x1
 2862 0054 52       		.byte	0x52
 2863 0055 00000000 		.4byte	0
 2864 0059 00000000 		.4byte	0
 2865              	.LLST0:
 2866 005d 00000000 		.4byte	.LVL5
 2867 0061 12000000 		.4byte	.LVL7
 2868 0065 0100     		.2byte	0x1
 2869 0067 50       		.byte	0x50
 2870 0068 12000000 		.4byte	.LVL7
 2871 006c 16000000 		.4byte	.LVL8
 2872 0070 0400     		.2byte	0x4
 2873 0072 F3       		.byte	0xf3
 2874 0073 01       		.uleb128 0x1
 2875 0074 50       		.byte	0x50
 2876 0075 9F       		.byte	0x9f
 2877 0076 16000000 		.4byte	.LVL8
 2878 007a 1C000000 		.4byte	.LVL9
 2879 007e 0100     		.2byte	0x1
 2880 0080 50       		.byte	0x50
 2881 0081 1C000000 		.4byte	.LVL9
 2882 0085 1E000000 		.4byte	.LVL10
 2883 0089 0400     		.2byte	0x4
 2884 008b F3       		.byte	0xf3
 2885 008c 01       		.uleb128 0x1
 2886 008d 50       		.byte	0x50
 2887 008e 9F       		.byte	0x9f
 2888 008f 1E000000 		.4byte	.LVL10
 2889 0093 20000000 		.4byte	.LVL11
 2890 0097 0100     		.2byte	0x1
 2891 0099 50       		.byte	0x50
 2892 009a 20000000 		.4byte	.LVL11
 2893 009e 28000000 		.4byte	.LFE64
 2894 00a2 0400     		.2byte	0x4
 2895 00a4 F3       		.byte	0xf3
 2896 00a5 01       		.uleb128 0x1
 2897 00a6 50       		.byte	0x50
 2898 00a7 9F       		.byte	0x9f
 2899 00a8 00000000 		.4byte	0
 2900 00ac 00000000 		.4byte	0
 2901              		.section	.debug_aranges,"",%progbits
 2902 0000 2C000000 		.4byte	0x2c
 2903 0004 0200     		.2byte	0x2
 2904 0006 00000000 		.4byte	.Ldebug_info0
 2905 000a 04       		.byte	0x4
 2906 000b 00       		.byte	0
 2907 000c 0000     		.2byte	0
ARM GAS  /tmp/ccxOSucU.s 			page 52


 2908 000e 0000     		.2byte	0
 2909 0010 00000000 		.4byte	.LFB63
 2910 0014 20000000 		.4byte	.LFE63-.LFB63
 2911 0018 00000000 		.4byte	.LFB64
 2912 001c 28000000 		.4byte	.LFE64-.LFB64
 2913 0020 00000000 		.4byte	.LFB65
 2914 0024 28000000 		.4byte	.LFE65-.LFB65
 2915 0028 00000000 		.4byte	0
 2916 002c 00000000 		.4byte	0
 2917              		.section	.debug_ranges,"",%progbits
 2918              	.Ldebug_ranges0:
 2919 0000 02000000 		.4byte	.LBB4
 2920 0004 04000000 		.4byte	.LBE4
 2921 0008 08000000 		.4byte	.LBB8
 2922 000c 18000000 		.4byte	.LBE8
 2923 0010 1E000000 		.4byte	.LBB9
 2924 0014 28000000 		.4byte	.LBE9
 2925 0018 00000000 		.4byte	0
 2926 001c 00000000 		.4byte	0
 2927 0020 00000000 		.4byte	.LFB63
 2928 0024 20000000 		.4byte	.LFE63
 2929 0028 00000000 		.4byte	.LFB64
 2930 002c 28000000 		.4byte	.LFE64
 2931 0030 00000000 		.4byte	.LFB65
 2932 0034 28000000 		.4byte	.LFE65
 2933 0038 00000000 		.4byte	0
 2934 003c 00000000 		.4byte	0
 2935              		.section	.debug_line,"",%progbits
 2936              	.Ldebug_line0:
 2937 0000 21030000 		.section	.debug_str,"MS",%progbits,1
 2937      0200A902 
 2937      00000201 
 2937      FB0E0D00 
 2937      01010101 
 2938              	.LASF196:
 2939 0000 5F70616C 		.ascii	"_pal_lld_init\000"
 2939      5F6C6C64 
 2939      5F696E69 
 2939      7400
 2940              	.LASF4:
 2941 000e 73697A65 		.ascii	"size_t\000"
 2941      5F7400
 2942              	.LASF59:
 2943 0015 73697A65 		.ascii	"sizetype\000"
 2943      74797065 
 2943      00
 2944              	.LASF191:
 2945 001e 73746172 		.ascii	"start\000"
 2945      7400
 2946              	.LASF114:
 2947 0024 63665F6F 		.ascii	"cf_off_name\000"
 2947      66665F6E 
 2947      616D6500 
 2948              	.LASF31:
 2949 0030 73797374 		.ascii	"systime_t\000"
 2949      696D655F 
 2949      7400
ARM GAS  /tmp/ccxOSucU.s 			page 53


 2950              	.LASF103:
 2951 003a 63685F69 		.ascii	"ch_identifier\000"
 2951      64656E74 
 2951      69666965 
 2951      7200
 2952              	.LASF36:
 2953 0048 705F6374 		.ascii	"p_ctx\000"
 2953      7800
 2954              	.LASF27:
 2955 004e 74707269 		.ascii	"tprio_t\000"
 2955      6F5F7400 
 2956              	.LASF197:
 2957 0056 67707449 		.ascii	"gptInit\000"
 2957      6E697400 
 2958              	.LASF122:
 2959 005e 63685F64 		.ascii	"ch_debug\000"
 2959      65627567 
 2959      00
 2960              	.LASF46:
 2961 0067 705F6D73 		.ascii	"p_msgqueue\000"
 2961      67717565 
 2961      756500
 2962              	.LASF80:
 2963 0072 725F6374 		.ascii	"r_ctx\000"
 2963      7800
 2964              	.LASF18:
 2965 0078 696E7433 		.ascii	"int32_t\000"
 2965      325F7400 
 2966              	.LASF189:
 2967 0080 77726974 		.ascii	"writet\000"
 2967      657400
 2968              	.LASF111:
 2969 0087 63665F6F 		.ascii	"cf_off_ctx\000"
 2969      66665F63 
 2969      747800
 2970              	.LASF69:
 2971 0092 76746675 		.ascii	"vtfunc_t\000"
 2971      6E635F74 
 2971      00
 2972              	.LASF149:
 2973 009b 4C50435F 		.ascii	"LPC_GPDMACH_TypeDef\000"
 2973      4750444D 
 2973      4143485F 
 2973      54797065 
 2973      44656600 
 2974              	.LASF185:
 2975 00af 77726974 		.ascii	"write\000"
 2975      6500
 2976              	.LASF140:
 2977 00b5 43544352 		.ascii	"CTCR\000"
 2977      00
 2978              	.LASF95:
 2979 00ba 656C5F66 		.ascii	"el_flags\000"
 2979      6C616773 
 2979      00
 2980              	.LASF161:
 2981 00c3 67707473 		.ascii	"gptstate_t\000"
ARM GAS  /tmp/ccxOSucU.s 			page 54


 2981      74617465 
 2981      5F7400
 2982              	.LASF164:
 2983 00ce 636F6E66 		.ascii	"config\000"
 2983      696700
 2984              	.LASF163:
 2985 00d5 73746174 		.ascii	"state\000"
 2985      6500
 2986              	.LASF187:
 2987 00db 70757474 		.ascii	"putt\000"
 2987      00
 2988              	.LASF107:
 2989 00e0 63685F70 		.ascii	"ch_ptrsize\000"
 2989      74727369 
 2989      7A6500
 2990              	.LASF169:
 2991 00eb 63616C6C 		.ascii	"callback\000"
 2991      6261636B 
 2991      00
 2992              	.LASF89:
 2993 00f4 6D5F6F77 		.ascii	"m_owner\000"
 2993      6E657200 
 2994              	.LASF75:
 2995 00fc 76745F70 		.ascii	"vt_par\000"
 2995      617200
 2996              	.LASF99:
 2997 0103 65786974 		.ascii	"exitcode\000"
 2997      636F6465 
 2997      00
 2998              	.LASF5:
 2999 010c 5F5F7569 		.ascii	"__uint8_t\000"
 2999      6E74385F 
 2999      7400
 3000              	.LASF127:
 3001 0116 715F746F 		.ascii	"q_top\000"
 3001      7000
 3002              	.LASF145:
 3003 011c 43446573 		.ascii	"CDestAddr\000"
 3003      74416464 
 3003      7200
 3004              	.LASF101:
 3005 0126 65776D61 		.ascii	"ewmask\000"
 3005      736B00
 3006              	.LASF109:
 3007 012d 63685F74 		.ascii	"ch_threadsize\000"
 3007      68726561 
 3007      6473697A 
 3007      6500
 3008              	.LASF190:
 3009 013b 72656164 		.ascii	"readt\000"
 3009      7400
 3010              	.LASF126:
 3011 0141 715F6275 		.ascii	"q_buffer\000"
 3011      66666572 
 3011      00
 3012              	.LASF144:
 3013 014a 43537263 		.ascii	"CSrcAddr\000"
ARM GAS  /tmp/ccxOSucU.s 			page 55


 3013      41646472 
 3013      00
 3014              	.LASF130:
 3015 0153 715F6E6F 		.ascii	"q_notify\000"
 3015      74696679 
 3015      00
 3016              	.LASF37:
 3017 015c 705F6E65 		.ascii	"p_newer\000"
 3017      77657200 
 3018              	.LASF11:
 3019 0164 6C6F6E67 		.ascii	"long int\000"
 3019      20696E74 
 3019      00
 3020              	.LASF33:
 3021 016d 705F6E65 		.ascii	"p_next\000"
 3021      787400
 3022              	.LASF129:
 3023 0174 715F7264 		.ascii	"q_rdptr\000"
 3023      70747200 
 3024              	.LASF116:
 3025 017c 63665F6F 		.ascii	"cf_off_state\000"
 3025      66665F73 
 3025      74617465 
 3025      00
 3026              	.LASF34:
 3027 0189 705F7072 		.ascii	"p_prev\000"
 3027      657600
 3028              	.LASF171:
 3029 0190 47505444 		.ascii	"GPTD1\000"
 3029      3100
 3030              	.LASF172:
 3031 0196 47505444 		.ascii	"GPTD2\000"
 3031      3200
 3032              	.LASF173:
 3033 019c 47505444 		.ascii	"GPTD3\000"
 3033      3300
 3034              	.LASF174:
 3035 01a2 47505444 		.ascii	"GPTD4\000"
 3035      3400
 3036              	.LASF24:
 3037 01a8 74737461 		.ascii	"tstate_t\000"
 3037      74655F74 
 3037      00
 3038              	.LASF49:
 3039 01b1 705F6D74 		.ascii	"p_mtxlist\000"
 3039      786C6973 
 3039      7400
 3040              	.LASF182:
 3041 01bb 6F717565 		.ascii	"oqueue\000"
 3041      756500
 3042              	.LASF54:
 3043 01c2 72656761 		.ascii	"regarm_t\000"
 3043      726D5F74 
 3043      00
 3044              	.LASF198:
 3045 01cb 7364496E 		.ascii	"sdInit\000"
 3045      697400
ARM GAS  /tmp/ccxOSucU.s 			page 56


 3046              	.LASF155:
 3047 01d2 70616C5F 		.ascii	"pal_default_config\000"
 3047      64656661 
 3047      756C745F 
 3047      636F6E66 
 3047      696700
 3048              	.LASF3:
 3049 01e5 7369676E 		.ascii	"signed char\000"
 3049      65642063 
 3049      68617200 
 3050              	.LASF43:
 3051 01f1 705F7072 		.ascii	"p_preempt\000"
 3051      65656D70 
 3051      7400
 3052              	.LASF16:
 3053 01fb 75696E74 		.ascii	"uint8_t\000"
 3053      385F7400 
 3054              	.LASF64:
 3055 0203 534C4545 		.ascii	"SLEEPCNT\000"
 3055      50434E54 
 3055      00
 3056              	.LASF195:
 3057 020c 68616C5F 		.ascii	"hal_lld_init\000"
 3057      6C6C645F 
 3057      696E6974 
 3057      00
 3058              	.LASF29:
 3059 0219 6576656E 		.ascii	"eventmask_t\000"
 3059      746D6173 
 3059      6B5F7400 
 3060              	.LASF57:
 3061 0225 636F6E74 		.ascii	"context\000"
 3061      65787400 
 3062              	.LASF138:
 3063 022d 52455345 		.ascii	"RESERVED0\000"
 3063      52564544 
 3063      3000
 3064              	.LASF139:
 3065 0237 52455345 		.ascii	"RESERVED1\000"
 3065      52564544 
 3065      3100
 3066              	.LASF6:
 3067 0241 756E7369 		.ascii	"unsigned char\000"
 3067      676E6564 
 3067      20636861 
 3067      7200
 3068              	.LASF131:
 3069 024f 715F6C69 		.ascii	"q_link\000"
 3069      6E6B00
 3070              	.LASF72:
 3071 0256 76745F70 		.ascii	"vt_prev\000"
 3071      72657600 
 3072              	.LASF81:
 3073 025e 725F6E65 		.ascii	"r_newer\000"
 3073      77657200 
 3074              	.LASF175:
 3075 0266 53445F55 		.ascii	"SD_UNINIT\000"
ARM GAS  /tmp/ccxOSucU.s 			page 57


 3075      4E494E49 
 3075      5400
 3076              	.LASF22:
 3077 0270 5F426F6F 		.ascii	"_Bool\000"
 3077      6C00
 3078              	.LASF142:
 3079 0276 52455345 		.ascii	"RESERVED2\000"
 3079      52564544 
 3079      3200
 3080              	.LASF102:
 3081 0280 63686172 		.ascii	"char\000"
 3081      00
 3082              	.LASF156:
 3083 0285 4750545F 		.ascii	"GPT_UNINIT\000"
 3083      554E494E 
 3083      495400
 3084              	.LASF35:
 3085 0290 705F7072 		.ascii	"p_prio\000"
 3085      696F00
 3086              	.LASF8:
 3087 0297 5F5F7569 		.ascii	"__uint16_t\000"
 3087      6E743136 
 3087      5F7400
 3088              	.LASF123:
 3089 02a2 47656E65 		.ascii	"GenericQueue\000"
 3089      72696351 
 3089      75657565 
 3089      00
 3090              	.LASF100:
 3091 02af 77746F62 		.ascii	"wtobjp\000"
 3091      6A7000
 3092              	.LASF62:
 3093 02b6 43504943 		.ascii	"CPICNT\000"
 3093      4E5400
 3094              	.LASF112:
 3095 02bd 63665F6F 		.ascii	"cf_off_newer\000"
 3095      66665F6E 
 3095      65776572 
 3095      00
 3096              	.LASF188:
 3097 02ca 67657474 		.ascii	"gett\000"
 3097      00
 3098              	.LASF55:
 3099 02cf 73746B61 		.ascii	"stkalign_t\000"
 3099      6C69676E 
 3099      5F7400
 3100              	.LASF134:
 3101 02da 4F757470 		.ascii	"OutputQueue\000"
 3101      75745175 
 3101      65756500 
 3102              	.LASF110:
 3103 02e6 63665F6F 		.ascii	"cf_off_prio\000"
 3103      66665F70 
 3103      72696F00 
 3104              	.LASF74:
 3105 02f2 76745F66 		.ascii	"vt_func\000"
 3105      756E6300 
ARM GAS  /tmp/ccxOSucU.s 			page 58


 3106              	.LASF56:
 3107 02fa 696E7463 		.ascii	"intctx\000"
 3107      747800
 3108              	.LASF48:
 3109 0301 705F6570 		.ascii	"p_epending\000"
 3109      656E6469 
 3109      6E6700
 3110              	.LASF204:
 3111 030c 68616C49 		.ascii	"halIsCounterWithin\000"
 3111      73436F75 
 3111      6E746572 
 3111      57697468 
 3111      696E00
 3112              	.LASF97:
 3113 031f 65735F6E 		.ascii	"es_next\000"
 3113      65787400 
 3114              	.LASF125:
 3115 0327 715F636F 		.ascii	"q_counter\000"
 3115      756E7465 
 3115      7200
 3116              	.LASF65:
 3117 0331 4C535543 		.ascii	"LSUCNT\000"
 3117      4E5400
 3118              	.LASF147:
 3119 0338 43436F6E 		.ascii	"CControl\000"
 3119      74726F6C 
 3119      00
 3120              	.LASF96:
 3121 0341 4576656E 		.ascii	"EventSource\000"
 3121      74536F75 
 3121      72636500 
 3122              	.LASF14:
 3123 034d 5F5F7569 		.ascii	"__uint64_t\000"
 3123      6E743634 
 3123      5F7400
 3124              	.LASF13:
 3125 0358 6C6F6E67 		.ascii	"long unsigned int\000"
 3125      20756E73 
 3125      69676E65 
 3125      6420696E 
 3125      7400
 3126              	.LASF104:
 3127 036a 63685F7A 		.ascii	"ch_zero\000"
 3127      65726F00 
 3128              	.LASF137:
 3129 0372 53797374 		.ascii	"SystemCoreClock\000"
 3129      656D436F 
 3129      7265436C 
 3129      6F636B00 
 3130              	.LASF167:
 3131 0382 67707466 		.ascii	"gptfreq_t\000"
 3131      7265715F 
 3131      7400
 3132              	.LASF92:
 3133 038c 656C5F6E 		.ascii	"el_next\000"
 3133      65787400 
 3134              	.LASF128:
ARM GAS  /tmp/ccxOSucU.s 			page 59


 3135 0394 715F7772 		.ascii	"q_wrptr\000"
 3135      70747200 
 3136              	.LASF151:
 3137 039c 5F6C7063 		.ascii	"_lpc17xx_dma_channel_config_t\000"
 3137      31377878 
 3137      5F646D61 
 3137      5F636861 
 3137      6E6E656C 
 3138              	.LASF184:
 3139 03ba 53657269 		.ascii	"SerialDriverVMT\000"
 3139      616C4472 
 3139      69766572 
 3139      564D5400 
 3140              	.LASF165:
 3141 03ca 636C6F63 		.ascii	"clock\000"
 3141      6B00
 3142              	.LASF170:
 3143 03d0 47505443 		.ascii	"GPTConfig\000"
 3143      6F6E6669 
 3143      6700
 3144              	.LASF194:
 3145 03da 68616C49 		.ascii	"halInit\000"
 3145      6E697400 
 3146              	.LASF203:
 3147 03e2 7469636B 		.ascii	"ticks\000"
 3147      7300
 3148              	.LASF119:
 3149 03e8 63665F6F 		.ascii	"cf_off_preempt\000"
 3149      66665F70 
 3149      7265656D 
 3149      707400
 3150              	.LASF12:
 3151 03f7 5F5F7569 		.ascii	"__uint32_t\000"
 3151      6E743332 
 3151      5F7400
 3152              	.LASF87:
 3153 0402 4D757465 		.ascii	"Mutex\000"
 3153      7800
 3154              	.LASF1:
 3155 0408 6C6F6E67 		.ascii	"long long int\000"
 3155      206C6F6E 
 3155      6720696E 
 3155      7400
 3156              	.LASF106:
 3157 0416 63685F76 		.ascii	"ch_version\000"
 3157      65727369 
 3157      6F6E00
 3158              	.LASF88:
 3159 0421 6D5F7175 		.ascii	"m_queue\000"
 3159      65756500 
 3160              	.LASF162:
 3161 0429 47505444 		.ascii	"GPTDriver\000"
 3161      72697665 
 3161      7200
 3162              	.LASF71:
 3163 0433 76745F6E 		.ascii	"vt_next\000"
 3163      65787400 
ARM GAS  /tmp/ccxOSucU.s 			page 60


 3164              	.LASF136:
 3165 043b 49544D5F 		.ascii	"ITM_RxBuffer\000"
 3165      52784275 
 3165      66666572 
 3165      00
 3166              	.LASF168:
 3167 0448 66726571 		.ascii	"frequency\000"
 3167      75656E63 
 3167      7900
 3168              	.LASF192:
 3169 0452 74696D65 		.ascii	"timeout\000"
 3169      6F757400 
 3170              	.LASF132:
 3171 045a 716E6F74 		.ascii	"qnotify_t\000"
 3171      6966795F 
 3171      7400
 3172              	.LASF160:
 3173 0464 4750545F 		.ascii	"GPT_ONESHOT\000"
 3173      4F4E4553 
 3173      484F5400 
 3174              	.LASF45:
 3175 0470 705F7761 		.ascii	"p_waiting\000"
 3175      6974696E 
 3175      6700
 3176              	.LASF180:
 3177 047a 6576656E 		.ascii	"event\000"
 3177      7400
 3178              	.LASF41:
 3179 0480 705F666C 		.ascii	"p_flags\000"
 3179      61677300 
 3180              	.LASF186:
 3181 0488 72656164 		.ascii	"read\000"
 3181      00
 3182              	.LASF0:
 3183 048d 756E7369 		.ascii	"unsigned int\000"
 3183      676E6564 
 3183      20696E74 
 3183      00
 3184              	.LASF60:
 3185 049a 4354524C 		.ascii	"CTRL\000"
 3185      00
 3186              	.LASF115:
 3187 049f 63665F6F 		.ascii	"cf_off_stklimit\000"
 3187      66665F73 
 3187      746B6C69 
 3187      6D697400 
 3188              	.LASF51:
 3189 04af 705F6D70 		.ascii	"p_mpool\000"
 3189      6F6F6C00 
 3190              	.LASF68:
 3191 04b7 434D785F 		.ascii	"CMx_DWT\000"
 3191      44575400 
 3192              	.LASF42:
 3193 04bf 705F7265 		.ascii	"p_refs\000"
 3193      667300
 3194              	.LASF63:
 3195 04c6 45584343 		.ascii	"EXCCNT\000"
ARM GAS  /tmp/ccxOSucU.s 			page 61


 3195      4E5400
 3196              	.LASF108:
 3197 04cd 63685F74 		.ascii	"ch_timesize\000"
 3197      696D6573 
 3197      697A6500 
 3198              	.LASF193:
 3199 04d9 68616C50 		.ascii	"halPolledDelay\000"
 3199      6F6C6C65 
 3199      6444656C 
 3199      617900
 3200              	.LASF58:
 3201 04e8 494F5245 		.ascii	"IOREG32\000"
 3201      47333200 
 3202              	.LASF200:
 3203 04f0 474E5520 		.ascii	"GNU C11 6.3.1 20170620 -mcpu=cortex-m3 -mno-thumb-i"
 3203      43313120 
 3203      362E332E 
 3203      31203230 
 3203      31373036 
 3204 0523 6E746572 		.ascii	"nterwork -mthumb -ggdb -O2 -fomit-frame-pointer -ff"
 3204      776F726B 
 3204      202D6D74 
 3204      68756D62 
 3204      202D6767 
 3205 0556 756E6374 		.ascii	"unction-sections -fdata-sections -fno-common\000"
 3205      696F6E2D 
 3205      73656374 
 3205      696F6E73 
 3205      202D6664 
 3206              	.LASF53:
 3207 0583 54687265 		.ascii	"ThreadsList\000"
 3207      6164734C 
 3207      69737400 
 3208              	.LASF30:
 3209 058f 666C6167 		.ascii	"flagsmask_t\000"
 3209      736D6173 
 3209      6B5F7400 
 3210              	.LASF44:
 3211 059b 705F7469 		.ascii	"p_time\000"
 3211      6D6500
 3212              	.LASF118:
 3213 05a2 63665F6F 		.ascii	"cf_off_refs\000"
 3213      66665F72 
 3213      65667300 
 3214              	.LASF141:
 3215 05ae 4C50435F 		.ascii	"LPC_TIM_TypeDef\000"
 3215      54494D5F 
 3215      54797065 
 3215      44656600 
 3216              	.LASF2:
 3217 05be 6C6F6E67 		.ascii	"long double\000"
 3217      20646F75 
 3217      626C6500 
 3218              	.LASF50:
 3219 05ca 705F7265 		.ascii	"p_realprio\000"
 3219      616C7072 
 3219      696F00
ARM GAS  /tmp/ccxOSucU.s 			page 62


 3220              	.LASF120:
 3221 05d5 63665F6F 		.ascii	"cf_off_time\000"
 3221      66665F74 
 3221      696D6500 
 3222              	.LASF202:
 3223 05e1 2F686F6D 		.ascii	"/home/ekobayu/Arok-Gandring-Lokajaya/LPC/ChibiOS-RT"
 3223      652F656B 
 3223      6F626179 
 3223      752F4172 
 3223      6F6B2D47 
 3224 0614 2D4C5043 		.ascii	"-LPC/demos/LPC1766\000"
 3224      2F64656D 
 3224      6F732F4C 
 3224      50433137 
 3224      363600
 3225              	.LASF15:
 3226 0627 6C6F6E67 		.ascii	"long long unsigned int\000"
 3226      206C6F6E 
 3226      6720756E 
 3226      7369676E 
 3226      65642069 
 3227              	.LASF38:
 3228 063e 705F6F6C 		.ascii	"p_older\000"
 3228      64657200 
 3229              	.LASF17:
 3230 0646 75696E74 		.ascii	"uint16_t\000"
 3230      31365F74 
 3230      00
 3231              	.LASF28:
 3232 064f 6D73675F 		.ascii	"msg_t\000"
 3232      7400
 3233              	.LASF117:
 3234 0655 63665F6F 		.ascii	"cf_off_flags\000"
 3234      66665F66 
 3234      6C616773 
 3234      00
 3235              	.LASF26:
 3236 0662 74736C69 		.ascii	"tslices_t\000"
 3236      6365735F 
 3236      7400
 3237              	.LASF158:
 3238 066c 4750545F 		.ascii	"GPT_READY\000"
 3238      52454144 
 3238      5900
 3239              	.LASF159:
 3240 0676 4750545F 		.ascii	"GPT_CONTINUOUS\000"
 3240      434F4E54 
 3240      494E554F 
 3240      555300
 3241              	.LASF83:
 3242 0685 725F6375 		.ascii	"r_current\000"
 3242      7272656E 
 3242      7400
 3243              	.LASF77:
 3244 068f 56544C69 		.ascii	"VTList\000"
 3244      737400
 3245              	.LASF143:
ARM GAS  /tmp/ccxOSucU.s 			page 63


 3246 0696 4C50435F 		.ascii	"LPC_UART_TypeDef\000"
 3246      55415254 
 3246      5F547970 
 3246      65446566 
 3246      00
 3247              	.LASF67:
 3248 06a7 50435352 		.ascii	"PCSR\000"
 3248      00
 3249              	.LASF146:
 3250 06ac 434C4C49 		.ascii	"CLLI\000"
 3250      00
 3251              	.LASF78:
 3252 06b1 725F7175 		.ascii	"r_queue\000"
 3252      65756500 
 3253              	.LASF179:
 3254 06b9 53657269 		.ascii	"SerialDriver\000"
 3254      616C4472 
 3254      69766572 
 3254      00
 3255              	.LASF124:
 3256 06c6 715F7761 		.ascii	"q_waiting\000"
 3256      6974696E 
 3256      6700
 3257              	.LASF86:
 3258 06d0 726C6973 		.ascii	"rlist\000"
 3258      7400
 3259              	.LASF23:
 3260 06d6 746D6F64 		.ascii	"tmode_t\000"
 3260      655F7400 
 3261              	.LASF178:
 3262 06de 73647374 		.ascii	"sdstate_t\000"
 3262      6174655F 
 3262      7400
 3263              	.LASF76:
 3264 06e8 76745F73 		.ascii	"vt_systime\000"
 3264      79737469 
 3264      6D6500
 3265              	.LASF177:
 3266 06f3 53445F52 		.ascii	"SD_READY\000"
 3266      45414459 
 3266      00
 3267              	.LASF150:
 3268 06fc 68616C72 		.ascii	"halrtcnt_t\000"
 3268      74636E74 
 3268      5F7400
 3269              	.LASF82:
 3270 0707 725F6F6C 		.ascii	"r_older\000"
 3270      64657200 
 3271              	.LASF7:
 3272 070f 73686F72 		.ascii	"short int\000"
 3272      7420696E 
 3272      7400
 3273              	.LASF20:
 3274 0719 75696E74 		.ascii	"uint64_t\000"
 3274      36345F74 
 3274      00
 3275              	.LASF201:
ARM GAS  /tmp/ccxOSucU.s 			page 64


 3276 0722 2E2E2F2E 		.ascii	"../../os/hal/src/hal.c\000"
 3276      2E2F6F73 
 3276      2F68616C 
 3276      2F737263 
 3276      2F68616C 
 3277              	.LASF183:
 3278 0739 75617274 		.ascii	"uart\000"
 3278      00
 3279              	.LASF181:
 3280 073e 69717565 		.ascii	"iqueue\000"
 3280      756500
 3281              	.LASF79:
 3282 0745 725F7072 		.ascii	"r_prio\000"
 3282      696F00
 3283              	.LASF199:
 3284 074c 626F6172 		.ascii	"boardInit\000"
 3284      64496E69 
 3284      7400
 3285              	.LASF153:
 3286 0756 6C706331 		.ascii	"lpc17xx_gpio_setup_t\000"
 3286      3778785F 
 3286      6770696F 
 3286      5F736574 
 3286      75705F74 
 3287              	.LASF21:
 3288 076b 626F6F6C 		.ascii	"bool_t\000"
 3288      5F7400
 3289              	.LASF113:
 3290 0772 63665F6F 		.ascii	"cf_off_older\000"
 3290      66665F6F 
 3290      6C646572 
 3290      00
 3291              	.LASF154:
 3292 077f 50414C43 		.ascii	"PALConfig\000"
 3292      6F6E6669 
 3292      6700
 3293              	.LASF32:
 3294 0789 54687265 		.ascii	"Thread\000"
 3294      616400
 3295              	.LASF85:
 3296 0790 76746C69 		.ascii	"vtlist\000"
 3296      737400
 3297              	.LASF148:
 3298 0797 43436F6E 		.ascii	"CConfig\000"
 3298      66696700 
 3299              	.LASF61:
 3300 079f 43594343 		.ascii	"CYCCNT\000"
 3300      4E5400
 3301              	.LASF25:
 3302 07a6 74726566 		.ascii	"trefs_t\000"
 3302      735F7400 
 3303              	.LASF135:
 3304 07ae 5F69646C 		.ascii	"_idle_thread_wa\000"
 3304      655F7468 
 3304      72656164 
 3304      5F776100 
 3305              	.LASF91:
ARM GAS  /tmp/ccxOSucU.s 			page 65


 3306 07be 4576656E 		.ascii	"EventListener\000"
 3306      744C6973 
 3306      74656E65 
 3306      7200
 3307              	.LASF19:
 3308 07cc 75696E74 		.ascii	"uint32_t\000"
 3308      33325F74 
 3308      00
 3309              	.LASF70:
 3310 07d5 56697274 		.ascii	"VirtualTimer\000"
 3310      75616C54 
 3310      696D6572 
 3310      00
 3311              	.LASF52:
 3312 07e2 54687265 		.ascii	"ThreadsQueue\000"
 3312      61647351 
 3312      75657565 
 3312      00
 3313              	.LASF98:
 3314 07ef 7264796D 		.ascii	"rdymsg\000"
 3314      736700
 3315              	.LASF157:
 3316 07f6 4750545F 		.ascii	"GPT_STOP\000"
 3316      53544F50 
 3316      00
 3317              	.LASF9:
 3318 07ff 73686F72 		.ascii	"short unsigned int\000"
 3318      7420756E 
 3318      7369676E 
 3318      65642069 
 3318      6E7400
 3319              	.LASF121:
 3320 0812 63686465 		.ascii	"chdebug_t\000"
 3320      6275675F 
 3320      7400
 3321              	.LASF133:
 3322 081c 496E7075 		.ascii	"InputQueue\000"
 3322      74517565 
 3322      756500
 3323              	.LASF105:
 3324 0827 63685F73 		.ascii	"ch_size\000"
 3324      697A6500 
 3325              	.LASF10:
 3326 082f 5F5F696E 		.ascii	"__int32_t\000"
 3326      7433325F 
 3326      7400
 3327              	.LASF176:
 3328 0839 53445F53 		.ascii	"SD_STOP\000"
 3328      544F5000 
 3329              	.LASF66:
 3330 0841 464F4C44 		.ascii	"FOLDCNT\000"
 3330      434E5400 
 3331              	.LASF94:
 3332 0849 656C5F6D 		.ascii	"el_mask\000"
 3332      61736B00 
 3333              	.LASF84:
 3334 0851 52656164 		.ascii	"ReadyList\000"
ARM GAS  /tmp/ccxOSucU.s 			page 66


 3334      794C6973 
 3334      7400
 3335              	.LASF39:
 3336 085b 705F6E61 		.ascii	"p_name\000"
 3336      6D6500
 3337              	.LASF73:
 3338 0862 76745F74 		.ascii	"vt_time\000"
 3338      696D6500 
 3339              	.LASF152:
 3340 086a 64617461 		.ascii	"data\000"
 3340      00
 3341              	.LASF90:
 3342 086f 6D5F6E65 		.ascii	"m_next\000"
 3342      787400
 3343              	.LASF166:
 3344 0876 67707463 		.ascii	"gptcallback_t\000"
 3344      616C6C62 
 3344      61636B5F 
 3344      7400
 3345              	.LASF47:
 3346 0884 705F6D73 		.ascii	"p_msg\000"
 3346      6700
 3347              	.LASF93:
 3348 088a 656C5F6C 		.ascii	"el_listener\000"
 3348      69737465 
 3348      6E657200 
 3349              	.LASF40:
 3350 0896 705F7374 		.ascii	"p_state\000"
 3350      61746500 
 3351              		.ident	"GCC: (15:6.3.1+svn253039-1build1) 6.3.1 20170620"
ARM GAS  /tmp/ccxOSucU.s 			page 67


DEFINED SYMBOLS
                            *ABS*:0000000000000000 hal.c
     /tmp/ccxOSucU.s:16     .text.halInit:0000000000000000 $t
     /tmp/ccxOSucU.s:24     .text.halInit:0000000000000000 halInit
     /tmp/ccxOSucU.s:59     .text.halInit:000000000000001c $d
     /tmp/ccxOSucU.s:64     .text.halIsCounterWithin:0000000000000000 $t
     /tmp/ccxOSucU.s:72     .text.halIsCounterWithin:0000000000000000 halIsCounterWithin
     /tmp/ccxOSucU.s:117    .text.halIsCounterWithin:0000000000000024 $d
     /tmp/ccxOSucU.s:122    .text.halPolledDelay:0000000000000000 $t
     /tmp/ccxOSucU.s:130    .text.halPolledDelay:0000000000000000 halPolledDelay
     /tmp/ccxOSucU.s:188    .text.halPolledDelay:0000000000000024 $d
                     .debug_frame:0000000000000010 $d

UNDEFINED SYMBOLS
hal_lld_init
_pal_lld_init
gptInit
sdInit
boardInit
pal_default_config
