ARM GAS  /tmp/ccqg3FOh.s 			page 1


   1              		.cpu cortex-m3
   2              		.eabi_attribute 20, 1
   3              		.eabi_attribute 21, 1
   4              		.eabi_attribute 23, 3
   5              		.eabi_attribute 24, 1
   6              		.eabi_attribute 25, 1
   7              		.eabi_attribute 26, 1
   8              		.eabi_attribute 30, 2
   9              		.eabi_attribute 34, 1
  10              		.eabi_attribute 18, 4
  11              		.file	"hal.c"
  12              		.text
  13              	.Ltext0:
  14              		.cfi_sections	.debug_frame
  15              		.section	.text.halInit,"ax",%progbits
  16              		.align	1
  17              		.p2align 2,,3
  18              		.global	halInit
  19              		.syntax unified
  20              		.thumb
  21              		.thumb_func
  22              		.fpu softvfp
  23              		.type	halInit, %function
  24              	halInit:
  25              	.LFB63:
  26              		.file 1 "../../os/hal/src/hal.c"
  27              		.loc 1 61 0
  28              		.cfi_startproc
  29              		@ args = 0, pretend = 0, frame = 0
  30              		@ frame_needed = 0, uses_anonymous_args = 0
  31 0000 08B5     		push	{r3, lr}
  32              		.cfi_def_cfa_offset 8
  33              		.cfi_offset 3, -8
  34              		.cfi_offset 14, -4
  35              		.loc 1 63 0
  36 0002 FFF7FEFF 		bl	hal_lld_init
  37              	.LVL0:
  38              		.loc 1 69 0
  39 0006 0648     		ldr	r0, .L3
  40 0008 FFF7FEFF 		bl	_pal_lld_init
  41              	.LVL1:
  42              		.loc 1 84 0
  43 000c FFF7FEFF 		bl	gptInit
  44              	.LVL2:
  45              		.loc 1 99 0
  46 0010 FFF7FEFF 		bl	sdInit
  47              	.LVL3:
  48              		.loc 1 105 0
  49 0014 FFF7FEFF 		bl	spiInit
  50              	.LVL4:
  51              		.loc 1 124 0
  52 0018 BDE80840 		pop	{r3, lr}
  53              		.cfi_restore 14
  54              		.cfi_restore 3
  55              		.cfi_def_cfa_offset 0
  56              		.loc 1 123 0
  57 001c FFF7FEBF 		b	boardInit
ARM GAS  /tmp/ccqg3FOh.s 			page 2


  58              	.LVL5:
  59              	.L4:
  60              		.align	2
  61              	.L3:
  62 0020 00000000 		.word	pal_default_config
  63              		.cfi_endproc
  64              	.LFE63:
  65              		.size	halInit, .-halInit
  66              		.section	.text.halIsCounterWithin,"ax",%progbits
  67              		.align	1
  68              		.p2align 2,,3
  69              		.global	halIsCounterWithin
  70              		.syntax unified
  71              		.thumb
  72              		.thumb_func
  73              		.fpu softvfp
  74              		.type	halIsCounterWithin, %function
  75              	halIsCounterWithin:
  76              	.LFB64:
  77              		.loc 1 170 0
  78              		.cfi_startproc
  79              		@ args = 0, pretend = 0, frame = 0
  80              		@ frame_needed = 0, uses_anonymous_args = 0
  81              		@ link register save eliminated.
  82              	.LVL6:
  83              		.loc 1 171 0
  84 0000 084B     		ldr	r3, .L15
  85              		.loc 1 173 0
  86 0002 8142     		cmp	r1, r0
  87              		.loc 1 171 0
  88 0004 5B68     		ldr	r3, [r3, #4]
  89              	.LVL7:
  90              		.loc 1 173 0
  91 0006 06D9     		bls	.L6
  92              		.loc 1 173 0 is_stmt 0 discriminator 1
  93 0008 8342     		cmp	r3, r0
  94 000a 08D3     		bcc	.L14
  95              	.L12:
  96              		.loc 1 174 0 is_stmt 1 discriminator 2
  97 000c 8B42     		cmp	r3, r1
  98 000e 2CBF     		ite	cs
  99 0010 0020     		movcs	r0, #0
 100              	.LVL8:
 101 0012 0120     		movcc	r0, #1
 102 0014 7047     		bx	lr
 103              	.LVL9:
 104              	.L6:
 105              		.loc 1 174 0 is_stmt 0
 106 0016 8342     		cmp	r3, r0
 107 0018 F8D3     		bcc	.L12
 108 001a 0120     		movs	r0, #1
 109              	.LVL10:
 110              		.loc 1 175 0 is_stmt 1
 111 001c 7047     		bx	lr
 112              	.LVL11:
 113              	.L14:
 114 001e 0020     		movs	r0, #0
ARM GAS  /tmp/ccqg3FOh.s 			page 3


 115              	.LVL12:
 116 0020 7047     		bx	lr
 117              	.L16:
 118 0022 00BF     		.align	2
 119              	.L15:
 120 0024 001000E0 		.word	-536866816
 121              		.cfi_endproc
 122              	.LFE64:
 123              		.size	halIsCounterWithin, .-halIsCounterWithin
 124              		.section	.text.halPolledDelay,"ax",%progbits
 125              		.align	1
 126              		.p2align 2,,3
 127              		.global	halPolledDelay
 128              		.syntax unified
 129              		.thumb
 130              		.thumb_func
 131              		.fpu softvfp
 132              		.type	halPolledDelay, %function
 133              	halPolledDelay:
 134              	.LFB65:
 135              		.loc 1 189 0
 136              		.cfi_startproc
 137              		@ args = 0, pretend = 0, frame = 0
 138              		@ frame_needed = 0, uses_anonymous_args = 0
 139              		@ link register save eliminated.
 140              	.LVL13:
 141              		.loc 1 190 0
 142 0000 084B     		ldr	r3, .L23
 143              	.LBB4:
 144              	.LBB5:
 145              		.loc 1 171 0
 146 0002 1946     		mov	r1, r3
 147              	.LBE5:
 148              	.LBE4:
 149              		.loc 1 190 0
 150 0004 5A68     		ldr	r2, [r3, #4]
 151              	.LVL14:
 152              		.loc 1 191 0
 153 0006 1044     		add	r0, r0, r2
 154              	.LVL15:
 155              	.L21:
 156              	.LBB8:
 157              	.LBB6:
 158              		.loc 1 173 0 discriminator 1
 159 0008 8242     		cmp	r2, r0
 160              		.loc 1 171 0 discriminator 1
 161 000a 4B68     		ldr	r3, [r1, #4]
 162              	.LVL16:
 163              		.loc 1 173 0 discriminator 1
 164 000c 02D2     		bcs	.L18
 165              		.loc 1 173 0 is_stmt 0
 166 000e 9A42     		cmp	r2, r3
 167 0010 05D9     		bls	.L22
 168 0012 7047     		bx	lr
 169              	.L18:
 170              	.LVL17:
 171              		.loc 1 174 0 is_stmt 1
ARM GAS  /tmp/ccqg3FOh.s 			page 4


 172 0014 9A42     		cmp	r2, r3
 173 0016 F7D9     		bls	.L21
 174              	.LBE6:
 175              	.LBE8:
 176              		.loc 1 192 0
 177 0018 9842     		cmp	r0, r3
 178 001a F5D8     		bhi	.L21
 179 001c 7047     		bx	lr
 180              	.LVL18:
 181              	.L22:
 182              	.LBB9:
 183              	.LBB7:
 184              		.loc 1 173 0
 185 001e 9842     		cmp	r0, r3
 186 0020 F2D8     		bhi	.L21
 187 0022 7047     		bx	lr
 188              	.L24:
 189              		.align	2
 190              	.L23:
 191 0024 001000E0 		.word	-536866816
 192              	.LBE7:
 193              	.LBE9:
 194              		.cfi_endproc
 195              	.LFE65:
 196              		.size	halPolledDelay, .-halPolledDelay
 197              		.text
 198              	.Letext0:
 199              		.file 2 "/usr/lib/gcc/arm-none-eabi/6.3.1/include/stddef.h"
 200              		.file 3 "/usr/include/newlib/machine/_default_types.h"
 201              		.file 4 "/usr/include/newlib/sys/_stdint.h"
 202              		.file 5 "../../os/ports/GCC/ARMCMx/chtypes.h"
 203              		.file 6 "../../os/kernel/include/chlists.h"
 204              		.file 7 "../../os/kernel/include/chthreads.h"
 205              		.file 8 "../../os/ports/GCC/ARMCMx/chcore_v7m.h"
 206              		.file 9 "../../os/ports/common/ARMCMx/nvic.h"
 207              		.file 10 "../../os/kernel/include/chvt.h"
 208              		.file 11 "../../os/kernel/include/chschd.h"
 209              		.file 12 "../../os/kernel/include/chmtx.h"
 210              		.file 13 "../../os/kernel/include/chevents.h"
 211              		.file 14 "../../os/kernel/include/chregistry.h"
 212              		.file 15 "../../os/kernel/include/chqueues.h"
 213              		.file 16 "../../os/kernel/include/ch.h"
 214              		.file 17 "../../os/ports/common/ARMCMx/CMSIS/include/core_cm3.h"
 215              		.file 18 "../../os/hal/platforms/LPC17xx/system_LPC17xx.h"
 216              		.file 19 "../../os/hal/platforms/LPC17xx/LPC17xx.h"
 217              		.file 20 "../../os/hal/platforms/LPC17xx/hal_lld.h"
 218              		.file 21 "../../os/hal/platforms/LPC17xx/lpc17xx_dma.h"
 219              		.file 22 "../../os/hal/platforms/LPC17xx/pal_lld.h"
 220              		.file 23 "../../os/hal/include/gpt.h"
 221              		.file 24 "../../os/hal/platforms/LPC17xx/gpt_lld.h"
 222              		.file 25 "../../os/hal/include/serial.h"
 223              		.file 26 "../../os/hal/platforms/LPC17xx/serial_lld.h"
 224              		.file 27 "../../os/hal/include/spi.h"
 225              		.file 28 "../../os/hal/platforms/LPC17xx/spi_lld.h"
 226              		.file 29 "../../boards/LPC1766/board.h"
 227              		.section	.debug_info,"",%progbits
 228              	.Ldebug_info0:
ARM GAS  /tmp/ccqg3FOh.s 			page 5


 229 0000 D0140000 		.4byte	0x14d0
 230 0004 0400     		.2byte	0x4
 231 0006 00000000 		.4byte	.Ldebug_abbrev0
 232 000a 04       		.byte	0x4
 233 000b 01       		.uleb128 0x1
 234 000c 97060000 		.4byte	.LASF263
 235 0010 0C       		.byte	0xc
 236 0011 EA080000 		.4byte	.LASF264
 237 0015 96070000 		.4byte	.LASF265
 238 0019 20000000 		.4byte	.Ldebug_ranges0+0x20
 239 001d 00000000 		.4byte	0
 240 0021 00000000 		.4byte	.Ldebug_line0
 241 0025 02       		.uleb128 0x2
 242 0026 04       		.byte	0x4
 243 0027 05       		.byte	0x5
 244 0028 696E7400 		.ascii	"int\000"
 245 002c 03       		.uleb128 0x3
 246 002d 0E000000 		.4byte	.LASF4
 247 0031 02       		.byte	0x2
 248 0032 D8       		.byte	0xd8
 249 0033 37000000 		.4byte	0x37
 250 0037 04       		.uleb128 0x4
 251 0038 04       		.byte	0x4
 252 0039 07       		.byte	0x7
 253 003a B9050000 		.4byte	.LASF0
 254 003e 04       		.uleb128 0x4
 255 003f 08       		.byte	0x8
 256 0040 05       		.byte	0x5
 257 0041 27050000 		.4byte	.LASF1
 258 0045 04       		.uleb128 0x4
 259 0046 08       		.byte	0x8
 260 0047 04       		.byte	0x4
 261 0048 73070000 		.4byte	.LASF2
 262 004c 04       		.uleb128 0x4
 263 004d 01       		.byte	0x1
 264 004e 06       		.byte	0x6
 265 004f 34020000 		.4byte	.LASF3
 266 0053 03       		.uleb128 0x3
 267 0054 26010000 		.4byte	.LASF5
 268 0058 03       		.byte	0x3
 269 0059 1D       		.byte	0x1d
 270 005a 5E000000 		.4byte	0x5e
 271 005e 04       		.uleb128 0x4
 272 005f 01       		.byte	0x1
 273 0060 08       		.byte	0x8
 274 0061 95020000 		.4byte	.LASF6
 275 0065 04       		.uleb128 0x4
 276 0066 02       		.byte	0x2
 277 0067 05       		.byte	0x5
 278 0068 D7080000 		.4byte	.LASF7
 279 006c 03       		.uleb128 0x3
 280 006d 0F030000 		.4byte	.LASF8
 281 0071 03       		.byte	0x3
 282 0072 2B       		.byte	0x2b
 283 0073 77000000 		.4byte	0x77
 284 0077 04       		.uleb128 0x4
 285 0078 02       		.byte	0x2
ARM GAS  /tmp/ccqg3FOh.s 			page 6


 286 0079 07       		.byte	0x7
 287 007a EB090000 		.4byte	.LASF9
 288 007e 03       		.uleb128 0x3
 289 007f 260A0000 		.4byte	.LASF10
 290 0083 03       		.byte	0x3
 291 0084 3F       		.byte	0x3f
 292 0085 89000000 		.4byte	0x89
 293 0089 04       		.uleb128 0x4
 294 008a 04       		.byte	0x4
 295 008b 05       		.byte	0x5
 296 008c 87010000 		.4byte	.LASF11
 297 0090 03       		.uleb128 0x3
 298 0091 0C050000 		.4byte	.LASF12
 299 0095 03       		.byte	0x3
 300 0096 41       		.byte	0x41
 301 0097 9B000000 		.4byte	0x9b
 302 009b 04       		.uleb128 0x4
 303 009c 04       		.byte	0x4
 304 009d 07       		.byte	0x7
 305 009e 17040000 		.4byte	.LASF13
 306 00a2 03       		.uleb128 0x3
 307 00a3 0C040000 		.4byte	.LASF14
 308 00a7 03       		.byte	0x3
 309 00a8 5B       		.byte	0x5b
 310 00a9 AD000000 		.4byte	0xad
 311 00ad 04       		.uleb128 0x4
 312 00ae 08       		.byte	0x8
 313 00af 07       		.byte	0x7
 314 00b0 DC070000 		.4byte	.LASF15
 315 00b4 03       		.uleb128 0x3
 316 00b5 4A020000 		.4byte	.LASF16
 317 00b9 04       		.byte	0x4
 318 00ba 18       		.byte	0x18
 319 00bb 53000000 		.4byte	0x53
 320 00bf 05       		.uleb128 0x5
 321 00c0 B4000000 		.4byte	0xb4
 322 00c4 06       		.uleb128 0x6
 323 00c5 B4000000 		.4byte	0xb4
 324 00c9 03       		.uleb128 0x3
 325 00ca FB070000 		.4byte	.LASF17
 326 00ce 04       		.byte	0x4
 327 00cf 24       		.byte	0x24
 328 00d0 6C000000 		.4byte	0x6c
 329 00d4 05       		.uleb128 0x5
 330 00d5 C9000000 		.4byte	0xc9
 331 00d9 03       		.uleb128 0x3
 332 00da 78000000 		.4byte	.LASF18
 333 00de 04       		.byte	0x4
 334 00df 2C       		.byte	0x2c
 335 00e0 7E000000 		.4byte	0x7e
 336 00e4 05       		.uleb128 0x5
 337 00e5 D9000000 		.4byte	0xd9
 338 00e9 03       		.uleb128 0x3
 339 00ea 9A090000 		.4byte	.LASF19
 340 00ee 04       		.byte	0x4
 341 00ef 30       		.byte	0x30
 342 00f0 90000000 		.4byte	0x90
ARM GAS  /tmp/ccqg3FOh.s 			page 7


 343 00f4 05       		.uleb128 0x5
 344 00f5 E9000000 		.4byte	0xe9
 345 00f9 06       		.uleb128 0x6
 346 00fa F4000000 		.4byte	0xf4
 347 00fe 03       		.uleb128 0x3
 348 00ff E1080000 		.4byte	.LASF20
 349 0103 04       		.byte	0x4
 350 0104 3C       		.byte	0x3c
 351 0105 A2000000 		.4byte	0xa2
 352 0109 03       		.uleb128 0x3
 353 010a 33090000 		.4byte	.LASF21
 354 010e 05       		.byte	0x5
 355 010f 24       		.byte	0x24
 356 0110 14010000 		.4byte	0x114
 357 0114 04       		.uleb128 0x4
 358 0115 01       		.byte	0x1
 359 0116 02       		.byte	0x2
 360 0117 DC020000 		.4byte	.LASF22
 361 011b 03       		.uleb128 0x3
 362 011c 92080000 		.4byte	.LASF23
 363 0120 05       		.byte	0x5
 364 0121 25       		.byte	0x25
 365 0122 B4000000 		.4byte	0xb4
 366 0126 03       		.uleb128 0x3
 367 0127 E7010000 		.4byte	.LASF24
 368 012b 05       		.byte	0x5
 369 012c 26       		.byte	0x26
 370 012d B4000000 		.4byte	0xb4
 371 0131 03       		.uleb128 0x3
 372 0132 74090000 		.4byte	.LASF25
 373 0136 05       		.byte	0x5
 374 0137 27       		.byte	0x27
 375 0138 B4000000 		.4byte	0xb4
 376 013c 03       		.uleb128 0x3
 377 013d 1E080000 		.4byte	.LASF26
 378 0141 05       		.byte	0x5
 379 0142 28       		.byte	0x28
 380 0143 B4000000 		.4byte	0xb4
 381 0147 03       		.uleb128 0x3
 382 0148 4E000000 		.4byte	.LASF27
 383 014c 05       		.byte	0x5
 384 014d 29       		.byte	0x29
 385 014e E9000000 		.4byte	0xe9
 386 0152 03       		.uleb128 0x3
 387 0153 04080000 		.4byte	.LASF28
 388 0157 05       		.byte	0x5
 389 0158 2A       		.byte	0x2a
 390 0159 D9000000 		.4byte	0xd9
 391 015d 03       		.uleb128 0x3
 392 015e 6D020000 		.4byte	.LASF29
 393 0162 05       		.byte	0x5
 394 0163 2C       		.byte	0x2c
 395 0164 E9000000 		.4byte	0xe9
 396 0168 03       		.uleb128 0x3
 397 0169 36070000 		.4byte	.LASF30
 398 016d 05       		.byte	0x5
 399 016e 2D       		.byte	0x2d
ARM GAS  /tmp/ccqg3FOh.s 			page 8


 400 016f E9000000 		.4byte	0xe9
 401 0173 03       		.uleb128 0x3
 402 0174 30000000 		.4byte	.LASF31
 403 0178 05       		.byte	0x5
 404 0179 2E       		.byte	0x2e
 405 017a E9000000 		.4byte	0xe9
 406 017e 05       		.uleb128 0x5
 407 017f 73010000 		.4byte	0x173
 408 0183 03       		.uleb128 0x3
 409 0184 51090000 		.4byte	.LASF32
 410 0188 06       		.byte	0x6
 411 0189 23       		.byte	0x23
 412 018a 8E010000 		.4byte	0x18e
 413 018e 07       		.uleb128 0x7
 414 018f 51090000 		.4byte	.LASF32
 415 0193 48       		.byte	0x48
 416 0194 07       		.byte	0x7
 417 0195 57       		.byte	0x57
 418 0196 8B020000 		.4byte	0x28b
 419 019a 08       		.uleb128 0x8
 420 019b 9B010000 		.4byte	.LASF33
 421 019f 07       		.byte	0x7
 422 01a0 58       		.byte	0x58
 423 01a1 AC020000 		.4byte	0x2ac
 424 01a5 00       		.byte	0
 425 01a6 08       		.uleb128 0x8
 426 01a7 BD010000 		.4byte	.LASF34
 427 01ab 07       		.byte	0x7
 428 01ac 5A       		.byte	0x5a
 429 01ad AC020000 		.4byte	0x2ac
 430 01b1 04       		.byte	0x4
 431 01b2 08       		.uleb128 0x8
 432 01b3 08030000 		.4byte	.LASF35
 433 01b7 07       		.byte	0x7
 434 01b8 5C       		.byte	0x5c
 435 01b9 47010000 		.4byte	0x147
 436 01bd 08       		.byte	0x8
 437 01be 08       		.uleb128 0x8
 438 01bf 48000000 		.4byte	.LASF36
 439 01c3 07       		.byte	0x7
 440 01c4 5D       		.byte	0x5d
 441 01c5 71030000 		.4byte	0x371
 442 01c9 0C       		.byte	0xc
 443 01ca 08       		.uleb128 0x8
 444 01cb 76010000 		.4byte	.LASF37
 445 01cf 07       		.byte	0x7
 446 01d0 5F       		.byte	0x5f
 447 01d1 AC020000 		.4byte	0x2ac
 448 01d5 10       		.byte	0x10
 449 01d6 08       		.uleb128 0x8
 450 01d7 F3070000 		.4byte	.LASF38
 451 01db 07       		.byte	0x7
 452 01dc 60       		.byte	0x60
 453 01dd AC020000 		.4byte	0x2ac
 454 01e1 14       		.byte	0x14
 455 01e2 08       		.uleb128 0x8
 456 01e3 660A0000 		.4byte	.LASF39
ARM GAS  /tmp/ccqg3FOh.s 			page 9


 457 01e7 07       		.byte	0x7
 458 01e8 67       		.byte	0x67
 459 01e9 36060000 		.4byte	0x636
 460 01ed 18       		.byte	0x18
 461 01ee 08       		.uleb128 0x8
 462 01ef A10A0000 		.4byte	.LASF40
 463 01f3 07       		.byte	0x7
 464 01f4 72       		.byte	0x72
 465 01f5 26010000 		.4byte	0x126
 466 01f9 1C       		.byte	0x1c
 467 01fa 08       		.uleb128 0x8
 468 01fb AC050000 		.4byte	.LASF41
 469 01ff 07       		.byte	0x7
 470 0200 76       		.byte	0x76
 471 0201 1B010000 		.4byte	0x11b
 472 0205 1D       		.byte	0x1d
 473 0206 08       		.uleb128 0x8
 474 0207 44060000 		.4byte	.LASF42
 475 020b 07       		.byte	0x7
 476 020c 7B       		.byte	0x7b
 477 020d 31010000 		.4byte	0x131
 478 0211 1E       		.byte	0x1e
 479 0212 08       		.uleb128 0x8
 480 0213 40020000 		.4byte	.LASF43
 481 0217 07       		.byte	0x7
 482 0218 81       		.byte	0x81
 483 0219 3C010000 		.4byte	0x13c
 484 021d 1F       		.byte	0x1f
 485 021e 08       		.uleb128 0x8
 486 021f 42070000 		.4byte	.LASF44
 487 0223 07       		.byte	0x7
 488 0224 88       		.byte	0x88
 489 0225 7E010000 		.4byte	0x17e
 490 0229 20       		.byte	0x20
 491 022a 09       		.uleb128 0x9
 492 022b 705F7500 		.ascii	"p_u\000"
 493 022f 07       		.byte	0x7
 494 0230 AD       		.byte	0xad
 495 0231 01060000 		.4byte	0x601
 496 0235 24       		.byte	0x24
 497 0236 08       		.uleb128 0x8
 498 0237 9C050000 		.4byte	.LASF45
 499 023b 07       		.byte	0x7
 500 023c B2       		.byte	0xb2
 501 023d D2020000 		.4byte	0x2d2
 502 0241 28       		.byte	0x28
 503 0242 08       		.uleb128 0x8
 504 0243 67000000 		.4byte	.LASF46
 505 0247 07       		.byte	0x7
 506 0248 B8       		.byte	0xb8
 507 0249 B2020000 		.4byte	0x2b2
 508 024d 2C       		.byte	0x2c
 509 024e 08       		.uleb128 0x8
 510 024f 8F0A0000 		.4byte	.LASF47
 511 0253 07       		.byte	0x7
 512 0254 BC       		.byte	0xbc
 513 0255 52010000 		.4byte	0x152
ARM GAS  /tmp/ccqg3FOh.s 			page 10


 514 0259 34       		.byte	0x34
 515 025a 08       		.uleb128 0x8
 516 025b A9030000 		.4byte	.LASF48
 517 025f 07       		.byte	0x7
 518 0260 C2       		.byte	0xc2
 519 0261 5D010000 		.4byte	0x15d
 520 0265 38       		.byte	0x38
 521 0266 08       		.uleb128 0x8
 522 0267 F0010000 		.4byte	.LASF49
 523 026b 07       		.byte	0x7
 524 026c C9       		.byte	0xc9
 525 026d 48060000 		.4byte	0x648
 526 0271 3C       		.byte	0x3c
 527 0272 08       		.uleb128 0x8
 528 0273 7F070000 		.4byte	.LASF50
 529 0277 07       		.byte	0x7
 530 0278 CD       		.byte	0xcd
 531 0279 47010000 		.4byte	0x147
 532 027d 40       		.byte	0x40
 533 027e 08       		.uleb128 0x8
 534 027f 14060000 		.4byte	.LASF51
 535 0283 07       		.byte	0x7
 536 0284 D3       		.byte	0xd3
 537 0285 E8020000 		.4byte	0x2e8
 538 0289 44       		.byte	0x44
 539 028a 00       		.byte	0
 540 028b 0A       		.uleb128 0xa
 541 028c 08       		.byte	0x8
 542 028d 06       		.byte	0x6
 543 028e 5A       		.byte	0x5a
 544 028f AC020000 		.4byte	0x2ac
 545 0293 08       		.uleb128 0x8
 546 0294 9B010000 		.4byte	.LASF33
 547 0298 06       		.byte	0x6
 548 0299 5B       		.byte	0x5b
 549 029a AC020000 		.4byte	0x2ac
 550 029e 00       		.byte	0
 551 029f 08       		.uleb128 0x8
 552 02a0 BD010000 		.4byte	.LASF34
 553 02a4 06       		.byte	0x6
 554 02a5 5D       		.byte	0x5d
 555 02a6 AC020000 		.4byte	0x2ac
 556 02aa 04       		.byte	0x4
 557 02ab 00       		.byte	0
 558 02ac 0B       		.uleb128 0xb
 559 02ad 04       		.byte	0x4
 560 02ae 83010000 		.4byte	0x183
 561 02b2 03       		.uleb128 0x3
 562 02b3 B0090000 		.4byte	.LASF52
 563 02b7 06       		.byte	0x6
 564 02b8 5F       		.byte	0x5f
 565 02b9 8B020000 		.4byte	0x28b
 566 02bd 0A       		.uleb128 0xa
 567 02be 04       		.byte	0x4
 568 02bf 06       		.byte	0x6
 569 02c0 64       		.byte	0x64
 570 02c1 D2020000 		.4byte	0x2d2
ARM GAS  /tmp/ccqg3FOh.s 			page 11


 571 02c5 08       		.uleb128 0x8
 572 02c6 9B010000 		.4byte	.LASF33
 573 02ca 06       		.byte	0x6
 574 02cb 66       		.byte	0x66
 575 02cc AC020000 		.4byte	0x2ac
 576 02d0 00       		.byte	0
 577 02d1 00       		.byte	0
 578 02d2 03       		.uleb128 0x3
 579 02d3 2A070000 		.4byte	.LASF53
 580 02d7 06       		.byte	0x6
 581 02d8 69       		.byte	0x69
 582 02d9 BD020000 		.4byte	0x2bd
 583 02dd 03       		.uleb128 0x3
 584 02de 01020000 		.4byte	.LASF54
 585 02e2 08       		.byte	0x8
 586 02e3 DE       		.byte	0xde
 587 02e4 E8020000 		.4byte	0x2e8
 588 02e8 0C       		.uleb128 0xc
 589 02e9 04       		.byte	0x4
 590 02ea 03       		.uleb128 0x3
 591 02eb 47030000 		.4byte	.LASF55
 592 02ef 08       		.byte	0x8
 593 02f0 E4       		.byte	0xe4
 594 02f1 FE000000 		.4byte	0xfe
 595 02f5 0D       		.uleb128 0xd
 596 02f6 A2030000 		.4byte	.LASF56
 597 02fa 24       		.byte	0x24
 598 02fb 08       		.byte	0x8
 599 02fc 0501     		.2byte	0x105
 600 02fe 71030000 		.4byte	0x371
 601 0302 0E       		.uleb128 0xe
 602 0303 723400   		.ascii	"r4\000"
 603 0306 08       		.byte	0x8
 604 0307 1801     		.2byte	0x118
 605 0309 DD020000 		.4byte	0x2dd
 606 030d 00       		.byte	0
 607 030e 0E       		.uleb128 0xe
 608 030f 723500   		.ascii	"r5\000"
 609 0312 08       		.byte	0x8
 610 0313 1901     		.2byte	0x119
 611 0315 DD020000 		.4byte	0x2dd
 612 0319 04       		.byte	0x4
 613 031a 0E       		.uleb128 0xe
 614 031b 723600   		.ascii	"r6\000"
 615 031e 08       		.byte	0x8
 616 031f 1A01     		.2byte	0x11a
 617 0321 DD020000 		.4byte	0x2dd
 618 0325 08       		.byte	0x8
 619 0326 0E       		.uleb128 0xe
 620 0327 723700   		.ascii	"r7\000"
 621 032a 08       		.byte	0x8
 622 032b 1B01     		.2byte	0x11b
 623 032d DD020000 		.4byte	0x2dd
 624 0331 0C       		.byte	0xc
 625 0332 0E       		.uleb128 0xe
 626 0333 723800   		.ascii	"r8\000"
 627 0336 08       		.byte	0x8
ARM GAS  /tmp/ccqg3FOh.s 			page 12


 628 0337 1C01     		.2byte	0x11c
 629 0339 DD020000 		.4byte	0x2dd
 630 033d 10       		.byte	0x10
 631 033e 0E       		.uleb128 0xe
 632 033f 723900   		.ascii	"r9\000"
 633 0342 08       		.byte	0x8
 634 0343 1D01     		.2byte	0x11d
 635 0345 DD020000 		.4byte	0x2dd
 636 0349 14       		.byte	0x14
 637 034a 0E       		.uleb128 0xe
 638 034b 72313000 		.ascii	"r10\000"
 639 034f 08       		.byte	0x8
 640 0350 1E01     		.2byte	0x11e
 641 0352 DD020000 		.4byte	0x2dd
 642 0356 18       		.byte	0x18
 643 0357 0E       		.uleb128 0xe
 644 0358 72313100 		.ascii	"r11\000"
 645 035c 08       		.byte	0x8
 646 035d 1F01     		.2byte	0x11f
 647 035f DD020000 		.4byte	0x2dd
 648 0363 1C       		.byte	0x1c
 649 0364 0E       		.uleb128 0xe
 650 0365 6C7200   		.ascii	"lr\000"
 651 0368 08       		.byte	0x8
 652 0369 2001     		.2byte	0x120
 653 036b DD020000 		.4byte	0x2dd
 654 036f 20       		.byte	0x20
 655 0370 00       		.byte	0
 656 0371 0D       		.uleb128 0xd
 657 0372 79020000 		.4byte	.LASF57
 658 0376 04       		.byte	0x4
 659 0377 08       		.byte	0x8
 660 0378 2A01     		.2byte	0x12a
 661 037a 8C030000 		.4byte	0x38c
 662 037e 0E       		.uleb128 0xe
 663 037f 72313300 		.ascii	"r13\000"
 664 0383 08       		.byte	0x8
 665 0384 2B01     		.2byte	0x12b
 666 0386 8C030000 		.4byte	0x38c
 667 038a 00       		.byte	0
 668 038b 00       		.byte	0
 669 038c 0B       		.uleb128 0xb
 670 038d 04       		.byte	0x4
 671 038e F5020000 		.4byte	0x2f5
 672 0392 03       		.uleb128 0x3
 673 0393 7F060000 		.4byte	.LASF58
 674 0397 09       		.byte	0x9
 675 0398 33       		.byte	0x33
 676 0399 F4000000 		.4byte	0xf4
 677 039d 04       		.uleb128 0x4
 678 039e 04       		.byte	0x4
 679 039f 07       		.byte	0x7
 680 03a0 15000000 		.4byte	.LASF59
 681 03a4 0A       		.uleb128 0xa
 682 03a5 20       		.byte	0x20
 683 03a6 09       		.byte	0x9
 684 03a7 FF       		.byte	0xff
ARM GAS  /tmp/ccqg3FOh.s 			page 13


 685 03a8 15040000 		.4byte	0x415
 686 03ac 0F       		.uleb128 0xf
 687 03ad C6050000 		.4byte	.LASF60
 688 03b1 09       		.byte	0x9
 689 03b2 0001     		.2byte	0x100
 690 03b4 92030000 		.4byte	0x392
 691 03b8 00       		.byte	0
 692 03b9 0F       		.uleb128 0xf
 693 03ba 67090000 		.4byte	.LASF61
 694 03be 09       		.byte	0x9
 695 03bf 0101     		.2byte	0x101
 696 03c1 92030000 		.4byte	0x392
 697 03c5 04       		.byte	0x4
 698 03c6 0F       		.uleb128 0xf
 699 03c7 2E030000 		.4byte	.LASF62
 700 03cb 09       		.byte	0x9
 701 03cc 0201     		.2byte	0x102
 702 03ce 92030000 		.4byte	0x392
 703 03d2 08       		.byte	0x8
 704 03d3 0F       		.uleb128 0xf
 705 03d4 54060000 		.4byte	.LASF63
 706 03d8 09       		.byte	0x9
 707 03d9 0301     		.2byte	0x103
 708 03db 92030000 		.4byte	0x392
 709 03df 0C       		.byte	0xc
 710 03e0 0F       		.uleb128 0xf
 711 03e1 57020000 		.4byte	.LASF64
 712 03e5 09       		.byte	0x9
 713 03e6 0401     		.2byte	0x104
 714 03e8 92030000 		.4byte	0x392
 715 03ec 10       		.byte	0x10
 716 03ed 0F       		.uleb128 0xf
 717 03ee D9030000 		.4byte	.LASF65
 718 03f2 09       		.byte	0x9
 719 03f3 0501     		.2byte	0x105
 720 03f5 92030000 		.4byte	0x392
 721 03f9 14       		.byte	0x14
 722 03fa 0F       		.uleb128 0xf
 723 03fb 380A0000 		.4byte	.LASF66
 724 03ff 09       		.byte	0x9
 725 0400 0601     		.2byte	0x106
 726 0402 92030000 		.4byte	0x392
 727 0406 18       		.byte	0x18
 728 0407 0F       		.uleb128 0xf
 729 0408 63080000 		.4byte	.LASF67
 730 040c 09       		.byte	0x9
 731 040d 0701     		.2byte	0x107
 732 040f 92030000 		.4byte	0x392
 733 0413 1C       		.byte	0x1c
 734 0414 00       		.byte	0
 735 0415 10       		.uleb128 0x10
 736 0416 1C060000 		.4byte	.LASF68
 737 041a 09       		.byte	0x9
 738 041b 0801     		.2byte	0x108
 739 041d A4030000 		.4byte	0x3a4
 740 0421 03       		.uleb128 0x3
 741 0422 92000000 		.4byte	.LASF69
ARM GAS  /tmp/ccqg3FOh.s 			page 14


 742 0426 0A       		.byte	0xa
 743 0427 51       		.byte	0x51
 744 0428 2C040000 		.4byte	0x42c
 745 042c 0B       		.uleb128 0xb
 746 042d 04       		.byte	0x4
 747 042e 32040000 		.4byte	0x432
 748 0432 11       		.uleb128 0x11
 749 0433 3D040000 		.4byte	0x43d
 750 0437 12       		.uleb128 0x12
 751 0438 E8020000 		.4byte	0x2e8
 752 043c 00       		.byte	0
 753 043d 03       		.uleb128 0x3
 754 043e A3090000 		.4byte	.LASF70
 755 0442 0A       		.byte	0xa
 756 0443 56       		.byte	0x56
 757 0444 48040000 		.4byte	0x448
 758 0448 07       		.uleb128 0x7
 759 0449 A3090000 		.4byte	.LASF70
 760 044d 14       		.byte	0x14
 761 044e 0A       		.byte	0xa
 762 044f 5D       		.byte	0x5d
 763 0450 91040000 		.4byte	0x491
 764 0454 08       		.uleb128 0x8
 765 0455 52050000 		.4byte	.LASF71
 766 0459 0A       		.byte	0xa
 767 045a 5E       		.byte	0x5e
 768 045b 91040000 		.4byte	0x491
 769 045f 00       		.byte	0
 770 0460 08       		.uleb128 0x8
 771 0461 C2020000 		.4byte	.LASF72
 772 0465 0A       		.byte	0xa
 773 0466 60       		.byte	0x60
 774 0467 91040000 		.4byte	0x491
 775 046b 04       		.byte	0x4
 776 046c 08       		.uleb128 0x8
 777 046d 6D0A0000 		.4byte	.LASF73
 778 0471 0A       		.byte	0xa
 779 0472 62       		.byte	0x62
 780 0473 73010000 		.4byte	0x173
 781 0477 08       		.byte	0x8
 782 0478 08       		.uleb128 0x8
 783 0479 9A030000 		.4byte	.LASF74
 784 047d 0A       		.byte	0xa
 785 047e 63       		.byte	0x63
 786 047f 21040000 		.4byte	0x421
 787 0483 0C       		.byte	0xc
 788 0484 08       		.uleb128 0x8
 789 0485 0F010000 		.4byte	.LASF75
 790 0489 0A       		.byte	0xa
 791 048a 65       		.byte	0x65
 792 048b E8020000 		.4byte	0x2e8
 793 048f 10       		.byte	0x10
 794 0490 00       		.byte	0
 795 0491 0B       		.uleb128 0xb
 796 0492 04       		.byte	0x4
 797 0493 3D040000 		.4byte	0x43d
 798 0497 0A       		.uleb128 0xa
ARM GAS  /tmp/ccqg3FOh.s 			page 15


 799 0498 10       		.byte	0x10
 800 0499 0A       		.byte	0xa
 801 049a 6F       		.byte	0x6f
 802 049b D0040000 		.4byte	0x4d0
 803 049f 08       		.uleb128 0x8
 804 04a0 52050000 		.4byte	.LASF71
 805 04a4 0A       		.byte	0xa
 806 04a5 70       		.byte	0x70
 807 04a6 91040000 		.4byte	0x491
 808 04aa 00       		.byte	0
 809 04ab 08       		.uleb128 0x8
 810 04ac C2020000 		.4byte	.LASF72
 811 04b0 0A       		.byte	0xa
 812 04b1 72       		.byte	0x72
 813 04b2 91040000 		.4byte	0x491
 814 04b6 04       		.byte	0x4
 815 04b7 08       		.uleb128 0x8
 816 04b8 6D0A0000 		.4byte	.LASF73
 817 04bc 0A       		.byte	0xa
 818 04bd 74       		.byte	0x74
 819 04be 73010000 		.4byte	0x173
 820 04c2 08       		.byte	0x8
 821 04c3 08       		.uleb128 0x8
 822 04c4 A9080000 		.4byte	.LASF76
 823 04c8 0A       		.byte	0xa
 824 04c9 75       		.byte	0x75
 825 04ca 7E010000 		.4byte	0x17e
 826 04ce 0C       		.byte	0xc
 827 04cf 00       		.byte	0
 828 04d0 03       		.uleb128 0x3
 829 04d1 4B080000 		.4byte	.LASF77
 830 04d5 0A       		.byte	0xa
 831 04d6 76       		.byte	0x76
 832 04d7 97040000 		.4byte	0x497
 833 04db 13       		.uleb128 0x13
 834 04dc 58090000 		.4byte	.LASF85
 835 04e0 0A       		.byte	0xa
 836 04e1 EE       		.byte	0xee
 837 04e2 D0040000 		.4byte	0x4d0
 838 04e6 0A       		.uleb128 0xa
 839 04e7 1C       		.byte	0x1c
 840 04e8 0B       		.byte	0xb
 841 04e9 57       		.byte	0x57
 842 04ea 37050000 		.4byte	0x537
 843 04ee 08       		.uleb128 0x8
 844 04ef 6D080000 		.4byte	.LASF78
 845 04f3 0B       		.byte	0xb
 846 04f4 58       		.byte	0x58
 847 04f5 B2020000 		.4byte	0x2b2
 848 04f9 00       		.byte	0
 849 04fa 08       		.uleb128 0x8
 850 04fb 0D090000 		.4byte	.LASF79
 851 04ff 0B       		.byte	0xb
 852 0500 59       		.byte	0x59
 853 0501 47010000 		.4byte	0x147
 854 0505 08       		.byte	0x8
 855 0506 08       		.uleb128 0x8
ARM GAS  /tmp/ccqg3FOh.s 			page 16


 856 0507 72000000 		.4byte	.LASF80
 857 050b 0B       		.byte	0xb
 858 050c 5B       		.byte	0x5b
 859 050d 71030000 		.4byte	0x371
 860 0511 0C       		.byte	0xc
 861 0512 08       		.uleb128 0x8
 862 0513 CA020000 		.4byte	.LASF81
 863 0517 0B       		.byte	0xb
 864 0518 5E       		.byte	0x5e
 865 0519 AC020000 		.4byte	0x2ac
 866 051d 10       		.byte	0x10
 867 051e 08       		.uleb128 0x8
 868 051f C8080000 		.4byte	.LASF82
 869 0523 0B       		.byte	0xb
 870 0524 5F       		.byte	0x5f
 871 0525 AC020000 		.4byte	0x2ac
 872 0529 14       		.byte	0x14
 873 052a 08       		.uleb128 0x8
 874 052b 41080000 		.4byte	.LASF83
 875 052f 0B       		.byte	0xb
 876 0530 62       		.byte	0x62
 877 0531 AC020000 		.4byte	0x2ac
 878 0535 18       		.byte	0x18
 879 0536 00       		.byte	0
 880 0537 03       		.uleb128 0x3
 881 0538 480A0000 		.4byte	.LASF84
 882 053c 0B       		.byte	0xb
 883 053d 64       		.byte	0x64
 884 053e E6040000 		.4byte	0x4e6
 885 0542 13       		.uleb128 0x13
 886 0543 8C080000 		.4byte	.LASF86
 887 0547 0B       		.byte	0xb
 888 0548 68       		.byte	0x68
 889 0549 37050000 		.4byte	0x537
 890 054d 07       		.uleb128 0x7
 891 054e 17050000 		.4byte	.LASF87
 892 0552 10       		.byte	0x10
 893 0553 0C       		.byte	0xc
 894 0554 25       		.byte	0x25
 895 0555 7E050000 		.4byte	0x57e
 896 0559 08       		.uleb128 0x8
 897 055a 40050000 		.4byte	.LASF88
 898 055e 0C       		.byte	0xc
 899 055f 26       		.byte	0x26
 900 0560 B2020000 		.4byte	0x2b2
 901 0564 00       		.byte	0
 902 0565 08       		.uleb128 0x8
 903 0566 07010000 		.4byte	.LASF89
 904 056a 0C       		.byte	0xc
 905 056b 28       		.byte	0x28
 906 056c AC020000 		.4byte	0x2ac
 907 0570 08       		.byte	0x8
 908 0571 08       		.uleb128 0x8
 909 0572 7A0A0000 		.4byte	.LASF90
 910 0576 0C       		.byte	0xc
 911 0577 2A       		.byte	0x2a
 912 0578 7E050000 		.4byte	0x57e
ARM GAS  /tmp/ccqg3FOh.s 			page 17


 913 057c 0C       		.byte	0xc
 914 057d 00       		.byte	0
 915 057e 0B       		.uleb128 0xb
 916 057f 04       		.byte	0x4
 917 0580 4D050000 		.4byte	0x54d
 918 0584 03       		.uleb128 0x3
 919 0585 17050000 		.4byte	.LASF87
 920 0589 0C       		.byte	0xc
 921 058a 2C       		.byte	0x2c
 922 058b 4D050000 		.4byte	0x54d
 923 058f 03       		.uleb128 0x3
 924 0590 8C090000 		.4byte	.LASF91
 925 0594 0D       		.byte	0xd
 926 0595 25       		.byte	0x25
 927 0596 9A050000 		.4byte	0x59a
 928 059a 07       		.uleb128 0x7
 929 059b 8C090000 		.4byte	.LASF91
 930 059f 10       		.byte	0x10
 931 05a0 0D       		.byte	0xd
 932 05a1 2A       		.byte	0x2a
 933 05a2 D7050000 		.4byte	0x5d7
 934 05a6 08       		.uleb128 0x8
 935 05a7 64040000 		.4byte	.LASF92
 936 05ab 0D       		.byte	0xd
 937 05ac 2B       		.byte	0x2b
 938 05ad D7050000 		.4byte	0x5d7
 939 05b1 00       		.byte	0
 940 05b2 08       		.uleb128 0x8
 941 05b3 950A0000 		.4byte	.LASF93
 942 05b7 0D       		.byte	0xd
 943 05b8 2E       		.byte	0x2e
 944 05b9 AC020000 		.4byte	0x2ac
 945 05bd 04       		.byte	0x4
 946 05be 08       		.uleb128 0x8
 947 05bf 400A0000 		.4byte	.LASF94
 948 05c3 0D       		.byte	0xd
 949 05c4 30       		.byte	0x30
 950 05c5 5D010000 		.4byte	0x15d
 951 05c9 08       		.byte	0x8
 952 05ca 08       		.uleb128 0x8
 953 05cb C1000000 		.4byte	.LASF95
 954 05cf 0D       		.byte	0xd
 955 05d0 33       		.byte	0x33
 956 05d1 68010000 		.4byte	0x168
 957 05d5 0C       		.byte	0xc
 958 05d6 00       		.byte	0
 959 05d7 0B       		.uleb128 0xb
 960 05d8 04       		.byte	0x4
 961 05d9 8F050000 		.4byte	0x58f
 962 05dd 07       		.uleb128 0x7
 963 05de 00040000 		.4byte	.LASF96
 964 05e2 04       		.byte	0x4
 965 05e3 0D       		.byte	0xd
 966 05e4 3A       		.byte	0x3a
 967 05e5 F6050000 		.4byte	0x5f6
 968 05e9 08       		.uleb128 0x8
 969 05ea C7030000 		.4byte	.LASF97
ARM GAS  /tmp/ccqg3FOh.s 			page 18


 970 05ee 0D       		.byte	0xd
 971 05ef 3B       		.byte	0x3b
 972 05f0 D7050000 		.4byte	0x5d7
 973 05f4 00       		.byte	0
 974 05f5 00       		.byte	0
 975 05f6 03       		.uleb128 0x3
 976 05f7 00040000 		.4byte	.LASF96
 977 05fb 0D       		.byte	0xd
 978 05fc 3E       		.byte	0x3e
 979 05fd DD050000 		.4byte	0x5dd
 980 0601 14       		.uleb128 0x14
 981 0602 04       		.byte	0x4
 982 0603 07       		.byte	0x7
 983 0604 8F       		.byte	0x8f
 984 0605 36060000 		.4byte	0x636
 985 0609 15       		.uleb128 0x15
 986 060a DB090000 		.4byte	.LASF98
 987 060e 07       		.byte	0x7
 988 060f 96       		.byte	0x96
 989 0610 52010000 		.4byte	0x152
 990 0614 15       		.uleb128 0x15
 991 0615 1D010000 		.4byte	.LASF99
 992 0619 07       		.byte	0x7
 993 061a 9D       		.byte	0x9d
 994 061b 52010000 		.4byte	0x152
 995 061f 15       		.uleb128 0x15
 996 0620 27030000 		.4byte	.LASF100
 997 0624 07       		.byte	0x7
 998 0625 A4       		.byte	0xa4
 999 0626 E8020000 		.4byte	0x2e8
 1000 062a 15       		.uleb128 0x15
 1001 062b 40010000 		.4byte	.LASF101
 1002 062f 07       		.byte	0x7
 1003 0630 AB       		.byte	0xab
 1004 0631 5D010000 		.4byte	0x15d
 1005 0635 00       		.byte	0
 1006 0636 0B       		.uleb128 0xb
 1007 0637 04       		.byte	0x4
 1008 0638 43060000 		.4byte	0x643
 1009 063c 04       		.uleb128 0x4
 1010 063d 01       		.byte	0x1
 1011 063e 08       		.byte	0x8
 1012 063f F2020000 		.4byte	.LASF102
 1013 0643 06       		.uleb128 0x6
 1014 0644 3C060000 		.4byte	0x63c
 1015 0648 0B       		.uleb128 0xb
 1016 0649 04       		.byte	0x4
 1017 064a 84050000 		.4byte	0x584
 1018 064e 0B       		.uleb128 0xb
 1019 064f 04       		.byte	0x4
 1020 0650 54060000 		.4byte	0x654
 1021 0654 16       		.uleb128 0x16
 1022 0655 52010000 		.4byte	0x152
 1023 0659 63060000 		.4byte	0x663
 1024 065d 12       		.uleb128 0x12
 1025 065e E8020000 		.4byte	0x2e8
 1026 0662 00       		.byte	0
ARM GAS  /tmp/ccqg3FOh.s 			page 19


 1027 0663 0A       		.uleb128 0xa
 1028 0664 16       		.byte	0x16
 1029 0665 0E       		.byte	0xe
 1030 0666 25       		.byte	0x25
 1031 0667 44070000 		.4byte	0x744
 1032 066b 08       		.uleb128 0x8
 1033 066c 3A000000 		.4byte	.LASF103
 1034 0670 0E       		.byte	0xe
 1035 0671 26       		.byte	0x26
 1036 0672 44070000 		.4byte	0x744
 1037 0676 00       		.byte	0
 1038 0677 08       		.uleb128 0x8
 1039 0678 29040000 		.4byte	.LASF104
 1040 067c 0E       		.byte	0xe
 1041 067d 27       		.byte	0x27
 1042 067e B4000000 		.4byte	0xb4
 1043 0682 04       		.byte	0x4
 1044 0683 08       		.uleb128 0x8
 1045 0684 1E0A0000 		.4byte	.LASF105
 1046 0688 0E       		.byte	0xe
 1047 0689 28       		.byte	0x28
 1048 068a B4000000 		.4byte	0xb4
 1049 068e 05       		.byte	0x5
 1050 068f 08       		.uleb128 0x8
 1051 0690 35050000 		.4byte	.LASF106
 1052 0694 0E       		.byte	0xe
 1053 0695 29       		.byte	0x29
 1054 0696 C9000000 		.4byte	0xc9
 1055 069a 06       		.byte	0x6
 1056 069b 08       		.uleb128 0x8
 1057 069c F3000000 		.4byte	.LASF107
 1058 06a0 0E       		.byte	0xe
 1059 06a1 2A       		.byte	0x2a
 1060 06a2 B4000000 		.4byte	0xb4
 1061 06a6 08       		.byte	0x8
 1062 06a7 08       		.uleb128 0x8
 1063 06a8 64060000 		.4byte	.LASF108
 1064 06ac 0E       		.byte	0xe
 1065 06ad 2B       		.byte	0x2b
 1066 06ae B4000000 		.4byte	0xb4
 1067 06b2 09       		.byte	0x9
 1068 06b3 08       		.uleb128 0x8
 1069 06b4 47010000 		.4byte	.LASF109
 1070 06b8 0E       		.byte	0xe
 1071 06b9 2C       		.byte	0x2c
 1072 06ba B4000000 		.4byte	0xb4
 1073 06be 0A       		.byte	0xa
 1074 06bf 08       		.uleb128 0x8
 1075 06c0 86030000 		.4byte	.LASF110
 1076 06c4 0E       		.byte	0xe
 1077 06c5 2D       		.byte	0x2d
 1078 06c6 B4000000 		.4byte	0xb4
 1079 06ca 0B       		.byte	0xb
 1080 06cb 08       		.uleb128 0x8
 1081 06cc 87000000 		.4byte	.LASF111
 1082 06d0 0E       		.byte	0xe
 1083 06d1 2E       		.byte	0x2e
ARM GAS  /tmp/ccqg3FOh.s 			page 20


 1084 06d2 B4000000 		.4byte	0xb4
 1085 06d6 0C       		.byte	0xc
 1086 06d7 08       		.uleb128 0x8
 1087 06d8 35030000 		.4byte	.LASF112
 1088 06dc 0E       		.byte	0xe
 1089 06dd 2F       		.byte	0x2f
 1090 06de B4000000 		.4byte	0xb4
 1091 06e2 0D       		.byte	0xd
 1092 06e3 08       		.uleb128 0x8
 1093 06e4 3A090000 		.4byte	.LASF113
 1094 06e8 0E       		.byte	0xe
 1095 06e9 30       		.byte	0x30
 1096 06ea B4000000 		.4byte	0xb4
 1097 06ee 0E       		.byte	0xe
 1098 06ef 08       		.uleb128 0x8
 1099 06f0 24000000 		.4byte	.LASF114
 1100 06f4 0E       		.byte	0xe
 1101 06f5 31       		.byte	0x31
 1102 06f6 B4000000 		.4byte	0xb4
 1103 06fa 0F       		.byte	0xf
 1104 06fb 08       		.uleb128 0x8
 1105 06fc CB050000 		.4byte	.LASF115
 1106 0700 0E       		.byte	0xe
 1107 0701 32       		.byte	0x32
 1108 0702 B4000000 		.4byte	0xb4
 1109 0706 10       		.byte	0x10
 1110 0707 08       		.uleb128 0x8
 1111 0708 B0010000 		.4byte	.LASF116
 1112 070c 0E       		.byte	0xe
 1113 070d 34       		.byte	0x34
 1114 070e B4000000 		.4byte	0xb4
 1115 0712 11       		.byte	0x11
 1116 0713 08       		.uleb128 0x8
 1117 0714 11080000 		.4byte	.LASF117
 1118 0718 0E       		.byte	0xe
 1119 0719 35       		.byte	0x35
 1120 071a B4000000 		.4byte	0xb4
 1121 071e 12       		.byte	0x12
 1122 071f 08       		.uleb128 0x8
 1123 0720 50070000 		.4byte	.LASF118
 1124 0724 0E       		.byte	0xe
 1125 0725 36       		.byte	0x36
 1126 0726 B4000000 		.4byte	0xb4
 1127 072a 13       		.byte	0x13
 1128 072b 08       		.uleb128 0x8
 1129 072c ED040000 		.4byte	.LASF119
 1130 0730 0E       		.byte	0xe
 1131 0731 37       		.byte	0x37
 1132 0732 B4000000 		.4byte	0xb4
 1133 0736 14       		.byte	0x14
 1134 0737 08       		.uleb128 0x8
 1135 0738 8A070000 		.4byte	.LASF120
 1136 073c 0E       		.byte	0xe
 1137 073d 39       		.byte	0x39
 1138 073e B4000000 		.4byte	0xb4
 1139 0742 15       		.byte	0x15
 1140 0743 00       		.byte	0
ARM GAS  /tmp/ccqg3FOh.s 			page 21


 1141 0744 17       		.uleb128 0x17
 1142 0745 3C060000 		.4byte	0x63c
 1143 0749 54070000 		.4byte	0x754
 1144 074d 18       		.uleb128 0x18
 1145 074e 9D030000 		.4byte	0x39d
 1146 0752 03       		.byte	0x3
 1147 0753 00       		.byte	0
 1148 0754 03       		.uleb128 0x3
 1149 0755 FE090000 		.4byte	.LASF121
 1150 0759 0E       		.byte	0xe
 1151 075a 3A       		.byte	0x3a
 1152 075b 63060000 		.4byte	0x663
 1153 075f 06       		.uleb128 0x6
 1154 0760 54070000 		.4byte	0x754
 1155 0764 13       		.uleb128 0x13
 1156 0765 5E000000 		.4byte	.LASF122
 1157 0769 0E       		.byte	0xe
 1158 076a 77       		.byte	0x77
 1159 076b 5F070000 		.4byte	0x75f
 1160 076f 03       		.uleb128 0x3
 1161 0770 1A030000 		.4byte	.LASF123
 1162 0774 0F       		.byte	0xf
 1163 0775 30       		.byte	0x30
 1164 0776 7A070000 		.4byte	0x77a
 1165 077a 07       		.uleb128 0x7
 1166 077b 1A030000 		.4byte	.LASF123
 1167 077f 24       		.byte	0x24
 1168 0780 0F       		.byte	0xf
 1169 0781 3E       		.byte	0x3e
 1170 0782 E7070000 		.4byte	0x7e7
 1171 0786 08       		.uleb128 0x8
 1172 0787 82080000 		.4byte	.LASF124
 1173 078b 0F       		.byte	0xf
 1174 078c 3F       		.byte	0x3f
 1175 078d B2020000 		.4byte	0x2b2
 1176 0791 00       		.byte	0
 1177 0792 08       		.uleb128 0x8
 1178 0793 CF030000 		.4byte	.LASF125
 1179 0797 0F       		.byte	0xf
 1180 0798 40       		.byte	0x40
 1181 0799 2C000000 		.4byte	0x2c
 1182 079d 08       		.byte	0x8
 1183 079e 08       		.uleb128 0x8
 1184 079f 5B010000 		.4byte	.LASF126
 1185 07a3 0F       		.byte	0xf
 1186 07a4 41       		.byte	0x41
 1187 07a5 09080000 		.4byte	0x809
 1188 07a9 0C       		.byte	0xc
 1189 07aa 08       		.uleb128 0x8
 1190 07ab 30010000 		.4byte	.LASF127
 1191 07af 0F       		.byte	0xf
 1192 07b0 42       		.byte	0x42
 1193 07b1 09080000 		.4byte	0x809
 1194 07b5 10       		.byte	0x10
 1195 07b6 08       		.uleb128 0x8
 1196 07b7 6C040000 		.4byte	.LASF128
 1197 07bb 0F       		.byte	0xf
ARM GAS  /tmp/ccqg3FOh.s 			page 22


 1198 07bc 44       		.byte	0x44
 1199 07bd 09080000 		.4byte	0x809
 1200 07c1 14       		.byte	0x14
 1201 07c2 08       		.uleb128 0x8
 1202 07c3 A2010000 		.4byte	.LASF129
 1203 07c7 0F       		.byte	0xf
 1204 07c8 45       		.byte	0x45
 1205 07c9 09080000 		.4byte	0x809
 1206 07cd 18       		.byte	0x18
 1207 07ce 08       		.uleb128 0x8
 1208 07cf 6D010000 		.4byte	.LASF130
 1209 07d3 0F       		.byte	0xf
 1210 07d4 46       		.byte	0x46
 1211 07d5 E7070000 		.4byte	0x7e7
 1212 07d9 1C       		.byte	0x1c
 1213 07da 08       		.uleb128 0x8
 1214 07db AD020000 		.4byte	.LASF131
 1215 07df 0F       		.byte	0xf
 1216 07e0 47       		.byte	0x47
 1217 07e1 E8020000 		.4byte	0x2e8
 1218 07e5 20       		.byte	0x20
 1219 07e6 00       		.byte	0
 1220 07e7 03       		.uleb128 0x3
 1221 07e8 86050000 		.4byte	.LASF132
 1222 07ec 0F       		.byte	0xf
 1223 07ed 33       		.byte	0x33
 1224 07ee F2070000 		.4byte	0x7f2
 1225 07f2 0B       		.uleb128 0xb
 1226 07f3 04       		.byte	0x4
 1227 07f4 F8070000 		.4byte	0x7f8
 1228 07f8 11       		.uleb128 0x11
 1229 07f9 03080000 		.4byte	0x803
 1230 07fd 12       		.uleb128 0x12
 1231 07fe 03080000 		.4byte	0x803
 1232 0802 00       		.byte	0
 1233 0803 0B       		.uleb128 0xb
 1234 0804 04       		.byte	0x4
 1235 0805 6F070000 		.4byte	0x76f
 1236 0809 0B       		.uleb128 0xb
 1237 080a 04       		.byte	0x4
 1238 080b B4000000 		.4byte	0xb4
 1239 080f 03       		.uleb128 0x3
 1240 0810 130A0000 		.4byte	.LASF133
 1241 0814 0F       		.byte	0xf
 1242 0815 7B       		.byte	0x7b
 1243 0816 6F070000 		.4byte	0x76f
 1244 081a 03       		.uleb128 0x3
 1245 081b 6A030000 		.4byte	.LASF134
 1246 081f 0F       		.byte	0xf
 1247 0820 EE       		.byte	0xee
 1248 0821 6F070000 		.4byte	0x76f
 1249 0825 16       		.uleb128 0x16
 1250 0826 2C000000 		.4byte	0x2c
 1251 082a 3E080000 		.4byte	0x83e
 1252 082e 12       		.uleb128 0x12
 1253 082f E8020000 		.4byte	0x2e8
 1254 0833 12       		.uleb128 0x12
ARM GAS  /tmp/ccqg3FOh.s 			page 23


 1255 0834 3E080000 		.4byte	0x83e
 1256 0838 12       		.uleb128 0x12
 1257 0839 2C000000 		.4byte	0x2c
 1258 083d 00       		.byte	0
 1259 083e 0B       		.uleb128 0xb
 1260 083f 04       		.byte	0x4
 1261 0840 C4000000 		.4byte	0xc4
 1262 0844 0B       		.uleb128 0xb
 1263 0845 04       		.byte	0x4
 1264 0846 25080000 		.4byte	0x825
 1265 084a 16       		.uleb128 0x16
 1266 084b 2C000000 		.4byte	0x2c
 1267 084f 63080000 		.4byte	0x863
 1268 0853 12       		.uleb128 0x12
 1269 0854 E8020000 		.4byte	0x2e8
 1270 0858 12       		.uleb128 0x12
 1271 0859 09080000 		.4byte	0x809
 1272 085d 12       		.uleb128 0x12
 1273 085e 2C000000 		.4byte	0x2c
 1274 0862 00       		.byte	0
 1275 0863 0B       		.uleb128 0xb
 1276 0864 04       		.byte	0x4
 1277 0865 4A080000 		.4byte	0x84a
 1278 0869 16       		.uleb128 0x16
 1279 086a 52010000 		.4byte	0x152
 1280 086e 7D080000 		.4byte	0x87d
 1281 0872 12       		.uleb128 0x12
 1282 0873 E8020000 		.4byte	0x2e8
 1283 0877 12       		.uleb128 0x12
 1284 0878 B4000000 		.4byte	0xb4
 1285 087c 00       		.byte	0
 1286 087d 0B       		.uleb128 0xb
 1287 087e 04       		.byte	0x4
 1288 087f 69080000 		.4byte	0x869
 1289 0883 17       		.uleb128 0x17
 1290 0884 EA020000 		.4byte	0x2ea
 1291 0888 93080000 		.4byte	0x893
 1292 088c 18       		.uleb128 0x18
 1293 088d 9D030000 		.4byte	0x39d
 1294 0891 17       		.byte	0x17
 1295 0892 00       		.byte	0
 1296 0893 13       		.uleb128 0x13
 1297 0894 7C090000 		.4byte	.LASF135
 1298 0898 10       		.byte	0x10
 1299 0899 82       		.byte	0x82
 1300 089a 83080000 		.4byte	0x883
 1301 089e 17       		.uleb128 0x17
 1302 089f E9000000 		.4byte	0xe9
 1303 08a3 AE080000 		.4byte	0x8ae
 1304 08a7 18       		.uleb128 0x18
 1305 08a8 9D030000 		.4byte	0x39d
 1306 08ac 01       		.byte	0x1
 1307 08ad 00       		.byte	0
 1308 08ae 19       		.uleb128 0x19
 1309 08af 67050000 		.4byte	.LASF136
 1310 08b3 11       		.byte	0x11
 1311 08b4 0706     		.2byte	0x607
ARM GAS  /tmp/ccqg3FOh.s 			page 24


 1312 08b6 E4000000 		.4byte	0xe4
 1313 08ba 13       		.uleb128 0x13
 1314 08bb 41040000 		.4byte	.LASF137
 1315 08bf 12       		.byte	0x12
 1316 08c0 23       		.byte	0x23
 1317 08c1 E9000000 		.4byte	0xe9
 1318 08c5 17       		.uleb128 0x17
 1319 08c6 E9000000 		.4byte	0xe9
 1320 08ca D5080000 		.4byte	0x8d5
 1321 08ce 18       		.uleb128 0x18
 1322 08cf 9D030000 		.4byte	0x39d
 1323 08d3 0B       		.byte	0xb
 1324 08d4 00       		.byte	0
 1325 08d5 0A       		.uleb128 0xa
 1326 08d6 04       		.byte	0x4
 1327 08d7 13       		.byte	0x13
 1328 08d8 C7       		.byte	0xc7
 1329 08d9 F6080000 		.4byte	0x8f6
 1330 08dd 08       		.uleb128 0x8
 1331 08de 04050000 		.4byte	.LASF138
 1332 08e2 13       		.byte	0x13
 1333 08e3 C8       		.byte	0xc8
 1334 08e4 D4000000 		.4byte	0xd4
 1335 08e8 00       		.byte	0
 1336 08e9 08       		.uleb128 0x8
 1337 08ea FC040000 		.4byte	.LASF139
 1338 08ee 13       		.byte	0x13
 1339 08ef C9       		.byte	0xc9
 1340 08f0 D4000000 		.4byte	0xd4
 1341 08f4 02       		.byte	0x2
 1342 08f5 00       		.byte	0
 1343 08f6 0A       		.uleb128 0xa
 1344 08f7 04       		.byte	0x4
 1345 08f8 13       		.byte	0x13
 1346 08f9 CB       		.byte	0xcb
 1347 08fa 2F090000 		.4byte	0x92f
 1348 08fe 08       		.uleb128 0x8
 1349 08ff CD040000 		.4byte	.LASF140
 1350 0903 13       		.byte	0x13
 1351 0904 CC       		.byte	0xcc
 1352 0905 BF000000 		.4byte	0xbf
 1353 0909 00       		.byte	0
 1354 090a 08       		.uleb128 0x8
 1355 090b D5040000 		.4byte	.LASF141
 1356 090f 13       		.byte	0x13
 1357 0910 CD       		.byte	0xcd
 1358 0911 BF000000 		.4byte	0xbf
 1359 0915 01       		.byte	0x1
 1360 0916 08       		.uleb128 0x8
 1361 0917 DD040000 		.4byte	.LASF142
 1362 091b 13       		.byte	0x13
 1363 091c CE       		.byte	0xce
 1364 091d BF000000 		.4byte	0xbf
 1365 0921 02       		.byte	0x2
 1366 0922 08       		.uleb128 0x8
 1367 0923 E5040000 		.4byte	.LASF143
 1368 0927 13       		.byte	0x13
ARM GAS  /tmp/ccqg3FOh.s 			page 25


 1369 0928 CF       		.byte	0xcf
 1370 0929 BF000000 		.4byte	0xbf
 1371 092d 03       		.byte	0x3
 1372 092e 00       		.byte	0
 1373 092f 14       		.uleb128 0x14
 1374 0930 04       		.byte	0x4
 1375 0931 13       		.byte	0x13
 1376 0932 C5       		.byte	0xc5
 1377 0933 4D090000 		.4byte	0x94d
 1378 0937 15       		.uleb128 0x15
 1379 0938 49070000 		.4byte	.LASF144
 1380 093c 13       		.byte	0x13
 1381 093d C6       		.byte	0xc6
 1382 093e F4000000 		.4byte	0xf4
 1383 0942 1A       		.uleb128 0x1a
 1384 0943 D5080000 		.4byte	0x8d5
 1385 0947 1A       		.uleb128 0x1a
 1386 0948 F6080000 		.4byte	0x8f6
 1387 094c 00       		.byte	0
 1388 094d 0A       		.uleb128 0xa
 1389 094e 04       		.byte	0x4
 1390 094f 13       		.byte	0x13
 1391 0950 D5       		.byte	0xd5
 1392 0951 6E090000 		.4byte	0x96e
 1393 0955 08       		.uleb128 0x8
 1394 0956 5B060000 		.4byte	.LASF145
 1395 095a 13       		.byte	0x13
 1396 095b D6       		.byte	0xd6
 1397 095c D4000000 		.4byte	0xd4
 1398 0960 00       		.byte	0
 1399 0961 08       		.uleb128 0x8
 1400 0962 4B060000 		.4byte	.LASF146
 1401 0966 13       		.byte	0x13
 1402 0967 D7       		.byte	0xd7
 1403 0968 D4000000 		.4byte	0xd4
 1404 096c 02       		.byte	0x2
 1405 096d 00       		.byte	0
 1406 096e 0A       		.uleb128 0xa
 1407 096f 04       		.byte	0x4
 1408 0970 13       		.byte	0x13
 1409 0971 D9       		.byte	0xd9
 1410 0972 A7090000 		.4byte	0x9a7
 1411 0976 08       		.uleb128 0x8
 1412 0977 F0050000 		.4byte	.LASF147
 1413 097b 13       		.byte	0x13
 1414 097c DA       		.byte	0xda
 1415 097d BF000000 		.4byte	0xbf
 1416 0981 00       		.byte	0
 1417 0982 08       		.uleb128 0x8
 1418 0983 F9050000 		.4byte	.LASF148
 1419 0987 13       		.byte	0x13
 1420 0988 DB       		.byte	0xdb
 1421 0989 BF000000 		.4byte	0xbf
 1422 098d 01       		.byte	0x1
 1423 098e 08       		.uleb128 0x8
 1424 098f 02060000 		.4byte	.LASF149
 1425 0993 13       		.byte	0x13
ARM GAS  /tmp/ccqg3FOh.s 			page 26


 1426 0994 DC       		.byte	0xdc
 1427 0995 BF000000 		.4byte	0xbf
 1428 0999 02       		.byte	0x2
 1429 099a 08       		.uleb128 0x8
 1430 099b 0B060000 		.4byte	.LASF150
 1431 099f 13       		.byte	0x13
 1432 09a0 DD       		.byte	0xdd
 1433 09a1 BF000000 		.4byte	0xbf
 1434 09a5 03       		.byte	0x3
 1435 09a6 00       		.byte	0
 1436 09a7 14       		.uleb128 0x14
 1437 09a8 04       		.byte	0x4
 1438 09a9 13       		.byte	0x13
 1439 09aa D3       		.byte	0xd3
 1440 09ab C5090000 		.4byte	0x9c5
 1441 09af 15       		.uleb128 0x15
 1442 09b0 A2040000 		.4byte	.LASF151
 1443 09b4 13       		.byte	0x13
 1444 09b5 D4       		.byte	0xd4
 1445 09b6 F4000000 		.4byte	0xf4
 1446 09ba 1A       		.uleb128 0x1a
 1447 09bb 4D090000 		.4byte	0x94d
 1448 09bf 1A       		.uleb128 0x1a
 1449 09c0 6E090000 		.4byte	0x96e
 1450 09c4 00       		.byte	0
 1451 09c5 0A       		.uleb128 0xa
 1452 09c6 04       		.byte	0x4
 1453 09c7 13       		.byte	0x13
 1454 09c8 E2       		.byte	0xe2
 1455 09c9 E6090000 		.4byte	0x9e6
 1456 09cd 08       		.uleb128 0x8
 1457 09ce 39040000 		.4byte	.LASF152
 1458 09d2 13       		.byte	0x13
 1459 09d3 E3       		.byte	0xe3
 1460 09d4 D4000000 		.4byte	0xd4
 1461 09d8 00       		.byte	0
 1462 09d9 08       		.uleb128 0x8
 1463 09da 31040000 		.4byte	.LASF153
 1464 09de 13       		.byte	0x13
 1465 09df E4       		.byte	0xe4
 1466 09e0 D4000000 		.4byte	0xd4
 1467 09e4 02       		.byte	0x2
 1468 09e5 00       		.byte	0
 1469 09e6 0A       		.uleb128 0xa
 1470 09e7 04       		.byte	0x4
 1471 09e8 13       		.byte	0x13
 1472 09e9 E6       		.byte	0xe6
 1473 09ea 1F0A0000 		.4byte	0xa1f
 1474 09ee 08       		.uleb128 0x8
 1475 09ef E0030000 		.4byte	.LASF154
 1476 09f3 13       		.byte	0x13
 1477 09f4 E7       		.byte	0xe7
 1478 09f5 BF000000 		.4byte	0xbf
 1479 09f9 00       		.byte	0
 1480 09fa 08       		.uleb128 0x8
 1481 09fb E8030000 		.4byte	.LASF155
 1482 09ff 13       		.byte	0x13
ARM GAS  /tmp/ccqg3FOh.s 			page 27


 1483 0a00 E8       		.byte	0xe8
 1484 0a01 BF000000 		.4byte	0xbf
 1485 0a05 01       		.byte	0x1
 1486 0a06 08       		.uleb128 0x8
 1487 0a07 F0030000 		.4byte	.LASF156
 1488 0a0b 13       		.byte	0x13
 1489 0a0c E9       		.byte	0xe9
 1490 0a0d BF000000 		.4byte	0xbf
 1491 0a11 02       		.byte	0x2
 1492 0a12 08       		.uleb128 0x8
 1493 0a13 F8030000 		.4byte	.LASF157
 1494 0a17 13       		.byte	0x13
 1495 0a18 EA       		.byte	0xea
 1496 0a19 BF000000 		.4byte	0xbf
 1497 0a1d 03       		.byte	0x3
 1498 0a1e 00       		.byte	0
 1499 0a1f 14       		.uleb128 0x14
 1500 0a20 04       		.byte	0x4
 1501 0a21 13       		.byte	0x13
 1502 0a22 E0       		.byte	0xe0
 1503 0a23 3D0A0000 		.4byte	0xa3d
 1504 0a27 15       		.uleb128 0x15
 1505 0a28 0A080000 		.4byte	.LASF158
 1506 0a2c 13       		.byte	0x13
 1507 0a2d E1       		.byte	0xe1
 1508 0a2e F4000000 		.4byte	0xf4
 1509 0a32 1A       		.uleb128 0x1a
 1510 0a33 C5090000 		.4byte	0x9c5
 1511 0a37 1A       		.uleb128 0x1a
 1512 0a38 E6090000 		.4byte	0x9e6
 1513 0a3c 00       		.byte	0
 1514 0a3d 0A       		.uleb128 0xa
 1515 0a3e 04       		.byte	0x4
 1516 0a3f 13       		.byte	0x13
 1517 0a40 EF       		.byte	0xef
 1518 0a41 5E0A0000 		.4byte	0xa5e
 1519 0a45 08       		.uleb128 0x8
 1520 0a46 7E030000 		.4byte	.LASF159
 1521 0a4a 13       		.byte	0x13
 1522 0a4b F0       		.byte	0xf0
 1523 0a4c D4000000 		.4byte	0xd4
 1524 0a50 00       		.byte	0
 1525 0a51 08       		.uleb128 0x8
 1526 0a52 76030000 		.4byte	.LASF160
 1527 0a56 13       		.byte	0x13
 1528 0a57 F1       		.byte	0xf1
 1529 0a58 D4000000 		.4byte	0xd4
 1530 0a5c 02       		.byte	0x2
 1531 0a5d 00       		.byte	0
 1532 0a5e 0A       		.uleb128 0xa
 1533 0a5f 04       		.byte	0x4
 1534 0a60 13       		.byte	0x13
 1535 0a61 F3       		.byte	0xf3
 1536 0a62 970A0000 		.4byte	0xa97
 1537 0a66 08       		.uleb128 0x8
 1538 0a67 52030000 		.4byte	.LASF161
 1539 0a6b 13       		.byte	0x13
ARM GAS  /tmp/ccqg3FOh.s 			page 28


 1540 0a6c F4       		.byte	0xf4
 1541 0a6d BF000000 		.4byte	0xbf
 1542 0a71 00       		.byte	0
 1543 0a72 08       		.uleb128 0x8
 1544 0a73 5A030000 		.4byte	.LASF162
 1545 0a77 13       		.byte	0x13
 1546 0a78 F5       		.byte	0xf5
 1547 0a79 BF000000 		.4byte	0xbf
 1548 0a7d 01       		.byte	0x1
 1549 0a7e 08       		.uleb128 0x8
 1550 0a7f 62030000 		.4byte	.LASF163
 1551 0a83 13       		.byte	0x13
 1552 0a84 F6       		.byte	0xf6
 1553 0a85 BF000000 		.4byte	0xbf
 1554 0a89 02       		.byte	0x2
 1555 0a8a 08       		.uleb128 0x8
 1556 0a8b 580A0000 		.4byte	.LASF164
 1557 0a8f 13       		.byte	0x13
 1558 0a90 F7       		.byte	0xf7
 1559 0a91 BF000000 		.4byte	0xbf
 1560 0a95 03       		.byte	0x3
 1561 0a96 00       		.byte	0
 1562 0a97 14       		.uleb128 0x14
 1563 0a98 04       		.byte	0x4
 1564 0a99 13       		.byte	0x13
 1565 0a9a ED       		.byte	0xed
 1566 0a9b B50A0000 		.4byte	0xab5
 1567 0a9f 15       		.uleb128 0x15
 1568 0aa0 5A050000 		.4byte	.LASF165
 1569 0aa4 13       		.byte	0x13
 1570 0aa5 EE       		.byte	0xee
 1571 0aa6 F4000000 		.4byte	0xf4
 1572 0aaa 1A       		.uleb128 0x1a
 1573 0aab 3D0A0000 		.4byte	0xa3d
 1574 0aaf 1A       		.uleb128 0x1a
 1575 0ab0 5E0A0000 		.4byte	0xa5e
 1576 0ab4 00       		.byte	0
 1577 0ab5 0A       		.uleb128 0xa
 1578 0ab6 04       		.byte	0x4
 1579 0ab7 13       		.byte	0x13
 1580 0ab8 FC       		.byte	0xfc
 1581 0ab9 D60A0000 		.4byte	0xad6
 1582 0abd 08       		.uleb128 0x8
 1583 0abe 8F060000 		.4byte	.LASF166
 1584 0ac2 13       		.byte	0x13
 1585 0ac3 FD       		.byte	0xfd
 1586 0ac4 D4000000 		.4byte	0xd4
 1587 0ac8 00       		.byte	0
 1588 0ac9 08       		.uleb128 0x8
 1589 0aca 87060000 		.4byte	.LASF167
 1590 0ace 13       		.byte	0x13
 1591 0acf FE       		.byte	0xfe
 1592 0ad0 D4000000 		.4byte	0xd4
 1593 0ad4 02       		.byte	0x2
 1594 0ad5 00       		.byte	0
 1595 0ad6 1B       		.uleb128 0x1b
 1596 0ad7 04       		.byte	0x4
ARM GAS  /tmp/ccqg3FOh.s 			page 29


 1597 0ad8 13       		.byte	0x13
 1598 0ad9 0001     		.2byte	0x100
 1599 0adb 140B0000 		.4byte	0xb14
 1600 0adf 0F       		.uleb128 0xf
 1601 0ae0 24060000 		.4byte	.LASF168
 1602 0ae4 13       		.byte	0x13
 1603 0ae5 0101     		.2byte	0x101
 1604 0ae7 BF000000 		.4byte	0xbf
 1605 0aeb 00       		.byte	0
 1606 0aec 0F       		.uleb128 0xf
 1607 0aed 2C060000 		.4byte	.LASF169
 1608 0af1 13       		.byte	0x13
 1609 0af2 0201     		.2byte	0x102
 1610 0af4 BF000000 		.4byte	0xbf
 1611 0af8 01       		.byte	0x1
 1612 0af9 0F       		.uleb128 0xf
 1613 0afa 34060000 		.4byte	.LASF170
 1614 0afe 13       		.byte	0x13
 1615 0aff 0301     		.2byte	0x103
 1616 0b01 BF000000 		.4byte	0xbf
 1617 0b05 02       		.byte	0x2
 1618 0b06 0F       		.uleb128 0xf
 1619 0b07 3C060000 		.4byte	.LASF171
 1620 0b0b 13       		.byte	0x13
 1621 0b0c 0401     		.2byte	0x104
 1622 0b0e BF000000 		.4byte	0xbf
 1623 0b12 03       		.byte	0x3
 1624 0b13 00       		.byte	0
 1625 0b14 14       		.uleb128 0x14
 1626 0b15 04       		.byte	0x4
 1627 0b16 13       		.byte	0x13
 1628 0b17 FA       		.byte	0xfa
 1629 0b18 320B0000 		.4byte	0xb32
 1630 0b1c 15       		.uleb128 0x15
 1631 0b1d 6C070000 		.4byte	.LASF172
 1632 0b21 13       		.byte	0x13
 1633 0b22 FB       		.byte	0xfb
 1634 0b23 F4000000 		.4byte	0xf4
 1635 0b27 1A       		.uleb128 0x1a
 1636 0b28 B50A0000 		.4byte	0xab5
 1637 0b2c 1A       		.uleb128 0x1a
 1638 0b2d D60A0000 		.4byte	0xad6
 1639 0b31 00       		.byte	0
 1640 0b32 0A       		.uleb128 0xa
 1641 0b33 20       		.byte	0x20
 1642 0b34 13       		.byte	0x13
 1643 0b35 C3       		.byte	0xc3
 1644 0b36 650B0000 		.4byte	0xb65
 1645 0b3a 1C       		.uleb128 0x1c
 1646 0b3b 2F090000 		.4byte	0x92f
 1647 0b3f 00       		.byte	0
 1648 0b40 08       		.uleb128 0x8
 1649 0b41 81020000 		.4byte	.LASF173
 1650 0b45 13       		.byte	0x13
 1651 0b46 D2       		.byte	0xd2
 1652 0b47 650B0000 		.4byte	0xb65
 1653 0b4b 04       		.byte	0x4
ARM GAS  /tmp/ccqg3FOh.s 			page 30


 1654 0b4c 1C       		.uleb128 0x1c
 1655 0b4d A7090000 		.4byte	0x9a7
 1656 0b51 10       		.byte	0x10
 1657 0b52 1C       		.uleb128 0x1c
 1658 0b53 1F0A0000 		.4byte	0xa1f
 1659 0b57 14       		.byte	0x14
 1660 0b58 1C       		.uleb128 0x1c
 1661 0b59 970A0000 		.4byte	0xa97
 1662 0b5d 18       		.byte	0x18
 1663 0b5e 1C       		.uleb128 0x1c
 1664 0b5f 140B0000 		.4byte	0xb14
 1665 0b63 1C       		.byte	0x1c
 1666 0b64 00       		.byte	0
 1667 0b65 17       		.uleb128 0x17
 1668 0b66 E9000000 		.4byte	0xe9
 1669 0b6a 750B0000 		.4byte	0xb75
 1670 0b6e 18       		.uleb128 0x18
 1671 0b6f 9D030000 		.4byte	0x39d
 1672 0b73 02       		.byte	0x2
 1673 0b74 00       		.byte	0
 1674 0b75 10       		.uleb128 0x10
 1675 0b76 CA090000 		.4byte	.LASF174
 1676 0b7a 13       		.byte	0x13
 1677 0b7b 0701     		.2byte	0x107
 1678 0b7d 320B0000 		.4byte	0xb32
 1679 0b81 1B       		.uleb128 0x1b
 1680 0b82 74       		.byte	0x74
 1681 0b83 13       		.byte	0x13
 1682 0b84 1C01     		.2byte	0x11c
 1683 0b86 640C0000 		.4byte	0xc64
 1684 0b8a 0E       		.uleb128 0xe
 1685 0b8b 495200   		.ascii	"IR\000"
 1686 0b8e 13       		.byte	0x13
 1687 0b8f 1E01     		.2byte	0x11e
 1688 0b91 F4000000 		.4byte	0xf4
 1689 0b95 00       		.byte	0
 1690 0b96 0E       		.uleb128 0xe
 1691 0b97 54435200 		.ascii	"TCR\000"
 1692 0b9b 13       		.byte	0x13
 1693 0b9c 1F01     		.2byte	0x11f
 1694 0b9e F4000000 		.4byte	0xf4
 1695 0ba2 04       		.byte	0x4
 1696 0ba3 0E       		.uleb128 0xe
 1697 0ba4 544300   		.ascii	"TC\000"
 1698 0ba7 13       		.byte	0x13
 1699 0ba8 2001     		.2byte	0x120
 1700 0baa F4000000 		.4byte	0xf4
 1701 0bae 08       		.byte	0x8
 1702 0baf 0E       		.uleb128 0xe
 1703 0bb0 505200   		.ascii	"PR\000"
 1704 0bb3 13       		.byte	0x13
 1705 0bb4 2101     		.2byte	0x121
 1706 0bb6 F4000000 		.4byte	0xf4
 1707 0bba 0C       		.byte	0xc
 1708 0bbb 0E       		.uleb128 0xe
 1709 0bbc 504300   		.ascii	"PC\000"
 1710 0bbf 13       		.byte	0x13
ARM GAS  /tmp/ccqg3FOh.s 			page 31


 1711 0bc0 2201     		.2byte	0x122
 1712 0bc2 F4000000 		.4byte	0xf4
 1713 0bc6 10       		.byte	0x10
 1714 0bc7 0E       		.uleb128 0xe
 1715 0bc8 4D435200 		.ascii	"MCR\000"
 1716 0bcc 13       		.byte	0x13
 1717 0bcd 2301     		.2byte	0x123
 1718 0bcf F4000000 		.4byte	0xf4
 1719 0bd3 14       		.byte	0x14
 1720 0bd4 0E       		.uleb128 0xe
 1721 0bd5 4D523000 		.ascii	"MR0\000"
 1722 0bd9 13       		.byte	0x13
 1723 0bda 2401     		.2byte	0x124
 1724 0bdc F4000000 		.4byte	0xf4
 1725 0be0 18       		.byte	0x18
 1726 0be1 0E       		.uleb128 0xe
 1727 0be2 4D523100 		.ascii	"MR1\000"
 1728 0be6 13       		.byte	0x13
 1729 0be7 2501     		.2byte	0x125
 1730 0be9 F4000000 		.4byte	0xf4
 1731 0bed 1C       		.byte	0x1c
 1732 0bee 0E       		.uleb128 0xe
 1733 0bef 4D523200 		.ascii	"MR2\000"
 1734 0bf3 13       		.byte	0x13
 1735 0bf4 2601     		.2byte	0x126
 1736 0bf6 F4000000 		.4byte	0xf4
 1737 0bfa 20       		.byte	0x20
 1738 0bfb 0E       		.uleb128 0xe
 1739 0bfc 4D523300 		.ascii	"MR3\000"
 1740 0c00 13       		.byte	0x13
 1741 0c01 2701     		.2byte	0x127
 1742 0c03 F4000000 		.4byte	0xf4
 1743 0c07 24       		.byte	0x24
 1744 0c08 0E       		.uleb128 0xe
 1745 0c09 43435200 		.ascii	"CCR\000"
 1746 0c0d 13       		.byte	0x13
 1747 0c0e 2801     		.2byte	0x128
 1748 0c10 F4000000 		.4byte	0xf4
 1749 0c14 28       		.byte	0x28
 1750 0c15 0E       		.uleb128 0xe
 1751 0c16 43523000 		.ascii	"CR0\000"
 1752 0c1a 13       		.byte	0x13
 1753 0c1b 2901     		.2byte	0x129
 1754 0c1d F9000000 		.4byte	0xf9
 1755 0c21 2C       		.byte	0x2c
 1756 0c22 0E       		.uleb128 0xe
 1757 0c23 43523100 		.ascii	"CR1\000"
 1758 0c27 13       		.byte	0x13
 1759 0c28 2A01     		.2byte	0x12a
 1760 0c2a F9000000 		.4byte	0xf9
 1761 0c2e 30       		.byte	0x30
 1762 0c2f 0F       		.uleb128 0xf
 1763 0c30 81020000 		.4byte	.LASF173
 1764 0c34 13       		.byte	0x13
 1765 0c35 2B01     		.2byte	0x12b
 1766 0c37 9E080000 		.4byte	0x89e
 1767 0c3b 34       		.byte	0x34
ARM GAS  /tmp/ccqg3FOh.s 			page 32


 1768 0c3c 0E       		.uleb128 0xe
 1769 0c3d 454D5200 		.ascii	"EMR\000"
 1770 0c41 13       		.byte	0x13
 1771 0c42 2C01     		.2byte	0x12c
 1772 0c44 F4000000 		.4byte	0xf4
 1773 0c48 3C       		.byte	0x3c
 1774 0c49 0F       		.uleb128 0xf
 1775 0c4a 8B020000 		.4byte	.LASF175
 1776 0c4e 13       		.byte	0x13
 1777 0c4f 2D01     		.2byte	0x12d
 1778 0c51 C5080000 		.4byte	0x8c5
 1779 0c55 40       		.byte	0x40
 1780 0c56 0F       		.uleb128 0xf
 1781 0c57 BC000000 		.4byte	.LASF176
 1782 0c5b 13       		.byte	0x13
 1783 0c5c 2E01     		.2byte	0x12e
 1784 0c5e F4000000 		.4byte	0xf4
 1785 0c62 70       		.byte	0x70
 1786 0c63 00       		.byte	0
 1787 0c64 10       		.uleb128 0x10
 1788 0c65 5C070000 		.4byte	.LASF177
 1789 0c69 13       		.byte	0x13
 1790 0c6a 2F01     		.2byte	0x12f
 1791 0c6c 810B0000 		.4byte	0xb81
 1792 0c70 1D       		.uleb128 0x1d
 1793 0c71 04       		.byte	0x4
 1794 0c72 13       		.byte	0x13
 1795 0c73 5201     		.2byte	0x152
 1796 0c75 9E0C0000 		.4byte	0xc9e
 1797 0c79 1E       		.uleb128 0x1e
 1798 0c7a 52425200 		.ascii	"RBR\000"
 1799 0c7e 13       		.byte	0x13
 1800 0c7f 5301     		.2byte	0x153
 1801 0c81 F9000000 		.4byte	0xf9
 1802 0c85 1E       		.uleb128 0x1e
 1803 0c86 54485200 		.ascii	"THR\000"
 1804 0c8a 13       		.byte	0x13
 1805 0c8b 5401     		.2byte	0x154
 1806 0c8d F4000000 		.4byte	0xf4
 1807 0c91 1E       		.uleb128 0x1e
 1808 0c92 444C4C00 		.ascii	"DLL\000"
 1809 0c96 13       		.byte	0x13
 1810 0c97 5501     		.2byte	0x155
 1811 0c99 F4000000 		.4byte	0xf4
 1812 0c9d 00       		.byte	0
 1813 0c9e 1D       		.uleb128 0x1d
 1814 0c9f 04       		.byte	0x4
 1815 0ca0 13       		.byte	0x13
 1816 0ca1 5701     		.2byte	0x157
 1817 0ca3 C00C0000 		.4byte	0xcc0
 1818 0ca7 1E       		.uleb128 0x1e
 1819 0ca8 444C4D00 		.ascii	"DLM\000"
 1820 0cac 13       		.byte	0x13
 1821 0cad 5801     		.2byte	0x158
 1822 0caf F4000000 		.4byte	0xf4
 1823 0cb3 1E       		.uleb128 0x1e
 1824 0cb4 49455200 		.ascii	"IER\000"
ARM GAS  /tmp/ccqg3FOh.s 			page 33


 1825 0cb8 13       		.byte	0x13
 1826 0cb9 5901     		.2byte	0x159
 1827 0cbb F4000000 		.4byte	0xf4
 1828 0cbf 00       		.byte	0
 1829 0cc0 1D       		.uleb128 0x1d
 1830 0cc1 04       		.byte	0x4
 1831 0cc2 13       		.byte	0x13
 1832 0cc3 5B01     		.2byte	0x15b
 1833 0cc5 E20C0000 		.4byte	0xce2
 1834 0cc9 1E       		.uleb128 0x1e
 1835 0cca 49495200 		.ascii	"IIR\000"
 1836 0cce 13       		.byte	0x13
 1837 0ccf 5C01     		.2byte	0x15c
 1838 0cd1 F9000000 		.4byte	0xf9
 1839 0cd5 1E       		.uleb128 0x1e
 1840 0cd6 46435200 		.ascii	"FCR\000"
 1841 0cda 13       		.byte	0x13
 1842 0cdb 5D01     		.2byte	0x15d
 1843 0cdd F4000000 		.4byte	0xf4
 1844 0ce1 00       		.byte	0
 1845 0ce2 1B       		.uleb128 0x1b
 1846 0ce3 34       		.byte	0x34
 1847 0ce4 13       		.byte	0x13
 1848 0ce5 5001     		.2byte	0x150
 1849 0ce7 800D0000 		.4byte	0xd80
 1850 0ceb 1C       		.uleb128 0x1c
 1851 0cec 700C0000 		.4byte	0xc70
 1852 0cf0 00       		.byte	0
 1853 0cf1 1C       		.uleb128 0x1c
 1854 0cf2 9E0C0000 		.4byte	0xc9e
 1855 0cf6 04       		.byte	0x4
 1856 0cf7 1C       		.uleb128 0x1c
 1857 0cf8 C00C0000 		.4byte	0xcc0
 1858 0cfc 08       		.byte	0x8
 1859 0cfd 0E       		.uleb128 0xe
 1860 0cfe 4C435200 		.ascii	"LCR\000"
 1861 0d02 13       		.byte	0x13
 1862 0d03 5F01     		.2byte	0x15f
 1863 0d05 F4000000 		.4byte	0xf4
 1864 0d09 0C       		.byte	0xc
 1865 0d0a 0F       		.uleb128 0xf
 1866 0d0b 81020000 		.4byte	.LASF173
 1867 0d0f 13       		.byte	0x13
 1868 0d10 6001     		.2byte	0x160
 1869 0d12 E9000000 		.4byte	0xe9
 1870 0d16 10       		.byte	0x10
 1871 0d17 0E       		.uleb128 0xe
 1872 0d18 4C535200 		.ascii	"LSR\000"
 1873 0d1c 13       		.byte	0x13
 1874 0d1d 6101     		.2byte	0x161
 1875 0d1f F9000000 		.4byte	0xf9
 1876 0d23 14       		.byte	0x14
 1877 0d24 0F       		.uleb128 0xf
 1878 0d25 8B020000 		.4byte	.LASF175
 1879 0d29 13       		.byte	0x13
 1880 0d2a 6201     		.2byte	0x162
 1881 0d2c E9000000 		.4byte	0xe9
ARM GAS  /tmp/ccqg3FOh.s 			page 34


 1882 0d30 18       		.byte	0x18
 1883 0d31 0E       		.uleb128 0xe
 1884 0d32 53435200 		.ascii	"SCR\000"
 1885 0d36 13       		.byte	0x13
 1886 0d37 6301     		.2byte	0x163
 1887 0d39 F4000000 		.4byte	0xf4
 1888 0d3d 1C       		.byte	0x1c
 1889 0d3e 0E       		.uleb128 0xe
 1890 0d3f 41435200 		.ascii	"ACR\000"
 1891 0d43 13       		.byte	0x13
 1892 0d44 6401     		.2byte	0x164
 1893 0d46 F4000000 		.4byte	0xf4
 1894 0d4a 20       		.byte	0x20
 1895 0d4b 0E       		.uleb128 0xe
 1896 0d4c 49435200 		.ascii	"ICR\000"
 1897 0d50 13       		.byte	0x13
 1898 0d51 6501     		.2byte	0x165
 1899 0d53 F4000000 		.4byte	0xf4
 1900 0d57 24       		.byte	0x24
 1901 0d58 0E       		.uleb128 0xe
 1902 0d59 46445200 		.ascii	"FDR\000"
 1903 0d5d 13       		.byte	0x13
 1904 0d5e 6601     		.2byte	0x166
 1905 0d60 F4000000 		.4byte	0xf4
 1906 0d64 28       		.byte	0x28
 1907 0d65 0F       		.uleb128 0xf
 1908 0d66 E2020000 		.4byte	.LASF178
 1909 0d6a 13       		.byte	0x13
 1910 0d6b 6701     		.2byte	0x167
 1911 0d6d E9000000 		.4byte	0xe9
 1912 0d71 2C       		.byte	0x2c
 1913 0d72 0E       		.uleb128 0xe
 1914 0d73 54455200 		.ascii	"TER\000"
 1915 0d77 13       		.byte	0x13
 1916 0d78 6801     		.2byte	0x168
 1917 0d7a F4000000 		.4byte	0xf4
 1918 0d7e 30       		.byte	0x30
 1919 0d7f 00       		.byte	0
 1920 0d80 10       		.uleb128 0x10
 1921 0d81 52080000 		.4byte	.LASF179
 1922 0d85 13       		.byte	0x13
 1923 0d86 6901     		.2byte	0x169
 1924 0d88 E20C0000 		.4byte	0xce2
 1925 0d8c 1B       		.uleb128 0x1b
 1926 0d8d 28       		.byte	0x28
 1927 0d8e 13       		.byte	0x13
 1928 0d8f 9901     		.2byte	0x199
 1929 0d91 160E0000 		.4byte	0xe16
 1930 0d95 0E       		.uleb128 0xe
 1931 0d96 43523000 		.ascii	"CR0\000"
 1932 0d9a 13       		.byte	0x13
 1933 0d9b 9B01     		.2byte	0x19b
 1934 0d9d F4000000 		.4byte	0xf4
 1935 0da1 00       		.byte	0
 1936 0da2 0E       		.uleb128 0xe
 1937 0da3 43523100 		.ascii	"CR1\000"
 1938 0da7 13       		.byte	0x13
ARM GAS  /tmp/ccqg3FOh.s 			page 35


 1939 0da8 9C01     		.2byte	0x19c
 1940 0daa F4000000 		.4byte	0xf4
 1941 0dae 04       		.byte	0x4
 1942 0daf 0E       		.uleb128 0xe
 1943 0db0 445200   		.ascii	"DR\000"
 1944 0db3 13       		.byte	0x13
 1945 0db4 9D01     		.2byte	0x19d
 1946 0db6 F4000000 		.4byte	0xf4
 1947 0dba 08       		.byte	0x8
 1948 0dbb 0E       		.uleb128 0xe
 1949 0dbc 535200   		.ascii	"SR\000"
 1950 0dbf 13       		.byte	0x13
 1951 0dc0 9E01     		.2byte	0x19e
 1952 0dc2 F9000000 		.4byte	0xf9
 1953 0dc6 0C       		.byte	0xc
 1954 0dc7 0F       		.uleb128 0xf
 1955 0dc8 A4080000 		.4byte	.LASF180
 1956 0dcc 13       		.byte	0x13
 1957 0dcd 9F01     		.2byte	0x19f
 1958 0dcf F4000000 		.4byte	0xf4
 1959 0dd3 10       		.byte	0x10
 1960 0dd4 0F       		.uleb128 0xf
 1961 0dd5 52020000 		.4byte	.LASF181
 1962 0dd9 13       		.byte	0x13
 1963 0dda A001     		.2byte	0x1a0
 1964 0ddc F4000000 		.4byte	0xf4
 1965 0de0 14       		.byte	0x14
 1966 0de1 0E       		.uleb128 0xe
 1967 0de2 52495300 		.ascii	"RIS\000"
 1968 0de6 13       		.byte	0x13
 1969 0de7 A101     		.2byte	0x1a1
 1970 0de9 F4000000 		.4byte	0xf4
 1971 0ded 18       		.byte	0x18
 1972 0dee 0E       		.uleb128 0xe
 1973 0def 4D495300 		.ascii	"MIS\000"
 1974 0df3 13       		.byte	0x13
 1975 0df4 A201     		.2byte	0x1a2
 1976 0df6 F4000000 		.4byte	0xf4
 1977 0dfa 1C       		.byte	0x1c
 1978 0dfb 0E       		.uleb128 0xe
 1979 0dfc 49435200 		.ascii	"ICR\000"
 1980 0e00 13       		.byte	0x13
 1981 0e01 A301     		.2byte	0x1a3
 1982 0e03 F4000000 		.4byte	0xf4
 1983 0e07 20       		.byte	0x20
 1984 0e08 0F       		.uleb128 0xf
 1985 0e09 EC020000 		.4byte	.LASF182
 1986 0e0d 13       		.byte	0x13
 1987 0e0e A401     		.2byte	0x1a4
 1988 0e10 F4000000 		.4byte	0xf4
 1989 0e14 24       		.byte	0x24
 1990 0e15 00       		.byte	0
 1991 0e16 10       		.uleb128 0x10
 1992 0e17 11020000 		.4byte	.LASF183
 1993 0e1b 13       		.byte	0x13
 1994 0e1c A501     		.2byte	0x1a5
 1995 0e1e 8C0D0000 		.4byte	0xd8c
ARM GAS  /tmp/ccqg3FOh.s 			page 36


 1996 0e22 1B       		.uleb128 0x1b
 1997 0e23 14       		.byte	0x14
 1998 0e24 13       		.byte	0x13
 1999 0e25 B402     		.2byte	0x2b4
 2000 0e27 6D0E0000 		.4byte	0xe6d
 2001 0e2b 0F       		.uleb128 0xf
 2002 0e2c 64010000 		.4byte	.LASF184
 2003 0e30 13       		.byte	0x13
 2004 0e31 B602     		.2byte	0x2b6
 2005 0e33 F4000000 		.4byte	0xf4
 2006 0e37 00       		.byte	0
 2007 0e38 0F       		.uleb128 0xf
 2008 0e39 36010000 		.4byte	.LASF185
 2009 0e3d 13       		.byte	0x13
 2010 0e3e B702     		.2byte	0x2b7
 2011 0e40 F4000000 		.4byte	0xf4
 2012 0e44 04       		.byte	0x4
 2013 0e45 0F       		.uleb128 0xf
 2014 0e46 68080000 		.4byte	.LASF186
 2015 0e4a 13       		.byte	0x13
 2016 0e4b B802     		.2byte	0x2b8
 2017 0e4d F4000000 		.4byte	0xf4
 2018 0e51 08       		.byte	0x8
 2019 0e52 0F       		.uleb128 0xf
 2020 0e53 5B040000 		.4byte	.LASF187
 2021 0e57 13       		.byte	0x13
 2022 0e58 B902     		.2byte	0x2b9
 2023 0e5a F4000000 		.4byte	0xf4
 2024 0e5e 0C       		.byte	0xc
 2025 0e5f 0F       		.uleb128 0xf
 2026 0e60 5F090000 		.4byte	.LASF188
 2027 0e64 13       		.byte	0x13
 2028 0e65 BA02     		.2byte	0x2ba
 2029 0e67 F4000000 		.4byte	0xf4
 2030 0e6b 10       		.byte	0x10
 2031 0e6c 00       		.byte	0
 2032 0e6d 10       		.uleb128 0x10
 2033 0e6e A2000000 		.4byte	.LASF189
 2034 0e72 13       		.byte	0x13
 2035 0e73 BB02     		.2byte	0x2bb
 2036 0e75 220E0000 		.4byte	0xe22
 2037 0e79 10       		.uleb128 0x10
 2038 0e7a BD080000 		.4byte	.LASF190
 2039 0e7e 14       		.byte	0x14
 2040 0e7f 8401     		.2byte	0x184
 2041 0e81 E9000000 		.4byte	0xe9
 2042 0e85 17       		.uleb128 0x17
 2043 0e86 900E0000 		.4byte	0xe90
 2044 0e8a 900E0000 		.4byte	0xe90
 2045 0e8e 1F       		.uleb128 0x1f
 2046 0e8f 00       		.byte	0
 2047 0e90 0B       		.uleb128 0xb
 2048 0e91 04       		.byte	0x4
 2049 0e92 6D0E0000 		.4byte	0xe6d
 2050 0e96 19       		.uleb128 0x19
 2051 0e97 74040000 		.4byte	.LASF191
 2052 0e9b 15       		.byte	0x15
ARM GAS  /tmp/ccqg3FOh.s 			page 37


 2053 0e9c 9501     		.2byte	0x195
 2054 0e9e 850E0000 		.4byte	0xe85
 2055 0ea2 16       		.uleb128 0x16
 2056 0ea3 52010000 		.4byte	0x152
 2057 0ea7 BB0E0000 		.4byte	0xebb
 2058 0eab 12       		.uleb128 0x12
 2059 0eac E8020000 		.4byte	0x2e8
 2060 0eb0 12       		.uleb128 0x12
 2061 0eb1 B4000000 		.4byte	0xb4
 2062 0eb5 12       		.uleb128 0x12
 2063 0eb6 73010000 		.4byte	0x173
 2064 0eba 00       		.byte	0
 2065 0ebb 0B       		.uleb128 0xb
 2066 0ebc 04       		.byte	0x4
 2067 0ebd A20E0000 		.4byte	0xea2
 2068 0ec1 16       		.uleb128 0x16
 2069 0ec2 52010000 		.4byte	0x152
 2070 0ec6 D50E0000 		.4byte	0xed5
 2071 0eca 12       		.uleb128 0x12
 2072 0ecb E8020000 		.4byte	0x2e8
 2073 0ecf 12       		.uleb128 0x12
 2074 0ed0 73010000 		.4byte	0x173
 2075 0ed4 00       		.byte	0
 2076 0ed5 0B       		.uleb128 0xb
 2077 0ed6 04       		.byte	0x4
 2078 0ed7 C10E0000 		.4byte	0xec1
 2079 0edb 16       		.uleb128 0x16
 2080 0edc 2C000000 		.4byte	0x2c
 2081 0ee0 F90E0000 		.4byte	0xef9
 2082 0ee4 12       		.uleb128 0x12
 2083 0ee5 E8020000 		.4byte	0x2e8
 2084 0ee9 12       		.uleb128 0x12
 2085 0eea 3E080000 		.4byte	0x83e
 2086 0eee 12       		.uleb128 0x12
 2087 0eef 2C000000 		.4byte	0x2c
 2088 0ef3 12       		.uleb128 0x12
 2089 0ef4 73010000 		.4byte	0x173
 2090 0ef8 00       		.byte	0
 2091 0ef9 0B       		.uleb128 0xb
 2092 0efa 04       		.byte	0x4
 2093 0efb DB0E0000 		.4byte	0xedb
 2094 0eff 16       		.uleb128 0x16
 2095 0f00 2C000000 		.4byte	0x2c
 2096 0f04 1D0F0000 		.4byte	0xf1d
 2097 0f08 12       		.uleb128 0x12
 2098 0f09 E8020000 		.4byte	0x2e8
 2099 0f0d 12       		.uleb128 0x12
 2100 0f0e 09080000 		.4byte	0x809
 2101 0f12 12       		.uleb128 0x12
 2102 0f13 2C000000 		.4byte	0x2c
 2103 0f17 12       		.uleb128 0x12
 2104 0f18 73010000 		.4byte	0x173
 2105 0f1c 00       		.byte	0
 2106 0f1d 0B       		.uleb128 0xb
 2107 0f1e 04       		.byte	0x4
 2108 0f1f FF0E0000 		.4byte	0xeff
 2109 0f23 0A       		.uleb128 0xa
ARM GAS  /tmp/ccqg3FOh.s 			page 38


 2110 0f24 08       		.byte	0x8
 2111 0f25 16       		.byte	0x16
 2112 0f26 2E       		.byte	0x2e
 2113 0f27 440F0000 		.4byte	0xf44
 2114 0f2b 08       		.uleb128 0x8
 2115 0f2c 750A0000 		.4byte	.LASF192
 2116 0f30 16       		.byte	0x16
 2117 0f31 30       		.byte	0x30
 2118 0f32 E9000000 		.4byte	0xe9
 2119 0f36 00       		.byte	0
 2120 0f37 09       		.uleb128 0x9
 2121 0f38 64697200 		.ascii	"dir\000"
 2122 0f3c 16       		.byte	0x16
 2123 0f3d 32       		.byte	0x32
 2124 0f3e E9000000 		.4byte	0xe9
 2125 0f42 04       		.byte	0x4
 2126 0f43 00       		.byte	0
 2127 0f44 03       		.uleb128 0x3
 2128 0f45 1E090000 		.4byte	.LASF193
 2129 0f49 16       		.byte	0x16
 2130 0f4a 33       		.byte	0x33
 2131 0f4b 230F0000 		.4byte	0xf23
 2132 0f4f 0A       		.uleb128 0xa
 2133 0f50 28       		.byte	0x28
 2134 0f51 16       		.byte	0x16
 2135 0f52 41       		.byte	0x41
 2136 0f53 8F0F0000 		.4byte	0xf8f
 2137 0f57 09       		.uleb128 0x9
 2138 0f58 503000   		.ascii	"P0\000"
 2139 0f5b 16       		.byte	0x16
 2140 0f5c 43       		.byte	0x43
 2141 0f5d 440F0000 		.4byte	0xf44
 2142 0f61 00       		.byte	0
 2143 0f62 09       		.uleb128 0x9
 2144 0f63 503100   		.ascii	"P1\000"
 2145 0f66 16       		.byte	0x16
 2146 0f67 45       		.byte	0x45
 2147 0f68 440F0000 		.4byte	0xf44
 2148 0f6c 08       		.byte	0x8
 2149 0f6d 09       		.uleb128 0x9
 2150 0f6e 503200   		.ascii	"P2\000"
 2151 0f71 16       		.byte	0x16
 2152 0f72 47       		.byte	0x47
 2153 0f73 440F0000 		.4byte	0xf44
 2154 0f77 10       		.byte	0x10
 2155 0f78 09       		.uleb128 0x9
 2156 0f79 503300   		.ascii	"P3\000"
 2157 0f7c 16       		.byte	0x16
 2158 0f7d 49       		.byte	0x49
 2159 0f7e 440F0000 		.4byte	0xf44
 2160 0f82 18       		.byte	0x18
 2161 0f83 09       		.uleb128 0x9
 2162 0f84 503400   		.ascii	"P4\000"
 2163 0f87 16       		.byte	0x16
 2164 0f88 4B       		.byte	0x4b
 2165 0f89 440F0000 		.4byte	0xf44
 2166 0f8d 20       		.byte	0x20
ARM GAS  /tmp/ccqg3FOh.s 			page 39


 2167 0f8e 00       		.byte	0
 2168 0f8f 03       		.uleb128 0x3
 2169 0f90 47090000 		.4byte	.LASF194
 2170 0f94 16       		.byte	0x16
 2171 0f95 4C       		.byte	0x4c
 2172 0f96 4F0F0000 		.4byte	0xf4f
 2173 0f9a 06       		.uleb128 0x6
 2174 0f9b 8F0F0000 		.4byte	0xf8f
 2175 0f9f 03       		.uleb128 0x3
 2176 0fa0 DC010000 		.4byte	.LASF195
 2177 0fa4 16       		.byte	0x16
 2178 0fa5 66       		.byte	0x66
 2179 0fa6 AA0F0000 		.4byte	0xfaa
 2180 0faa 0B       		.uleb128 0xb
 2181 0fab 04       		.byte	0x4
 2182 0fac 750B0000 		.4byte	0xb75
 2183 0fb0 19       		.uleb128 0x19
 2184 0fb1 21020000 		.4byte	.LASF196
 2185 0fb5 16       		.byte	0x16
 2186 0fb6 3301     		.2byte	0x133
 2187 0fb8 9A0F0000 		.4byte	0xf9a
 2188 0fbc 20       		.uleb128 0x20
 2189 0fbd 01       		.byte	0x1
 2190 0fbe 5E000000 		.4byte	0x5e
 2191 0fc2 17       		.byte	0x17
 2192 0fc3 35       		.byte	0x35
 2193 0fc4 E70F0000 		.4byte	0xfe7
 2194 0fc8 21       		.uleb128 0x21
 2195 0fc9 FD020000 		.4byte	.LASF197
 2196 0fcd 00       		.byte	0
 2197 0fce 21       		.uleb128 0x21
 2198 0fcf E2090000 		.4byte	.LASF198
 2199 0fd3 01       		.byte	0x1
 2200 0fd4 21       		.uleb128 0x21
 2201 0fd5 28080000 		.4byte	.LASF199
 2202 0fd9 02       		.byte	0x2
 2203 0fda 21       		.uleb128 0x21
 2204 0fdb 32080000 		.4byte	.LASF200
 2205 0fdf 03       		.byte	0x3
 2206 0fe0 21       		.uleb128 0x21
 2207 0fe1 90050000 		.4byte	.LASF201
 2208 0fe5 04       		.byte	0x4
 2209 0fe6 00       		.byte	0
 2210 0fe7 03       		.uleb128 0x3
 2211 0fe8 CA000000 		.4byte	.LASF202
 2212 0fec 17       		.byte	0x17
 2213 0fed 3B       		.byte	0x3b
 2214 0fee BC0F0000 		.4byte	0xfbc
 2215 0ff2 03       		.uleb128 0x3
 2216 0ff3 48050000 		.4byte	.LASF203
 2217 0ff7 17       		.byte	0x17
 2218 0ff8 40       		.byte	0x40
 2219 0ff9 FD0F0000 		.4byte	0xffd
 2220 0ffd 07       		.uleb128 0x7
 2221 0ffe 48050000 		.4byte	.LASF203
 2222 1002 10       		.byte	0x10
 2223 1003 18       		.byte	0x18
ARM GAS  /tmp/ccqg3FOh.s 			page 40


 2224 1004 93       		.byte	0x93
 2225 1005 3A100000 		.4byte	0x103a
 2226 1009 08       		.uleb128 0x8
 2227 100a DC000000 		.4byte	.LASF204
 2228 100e 18       		.byte	0x18
 2229 100f 97       		.byte	0x97
 2230 1010 E70F0000 		.4byte	0xfe7
 2231 1014 00       		.byte	0
 2232 1015 08       		.uleb128 0x8
 2233 1016 D5000000 		.4byte	.LASF205
 2234 101a 18       		.byte	0x18
 2235 101b 9B       		.byte	0x9b
 2236 101c 98100000 		.4byte	0x1098
 2237 1020 04       		.byte	0x4
 2238 1021 08       		.uleb128 0x8
 2239 1022 AA040000 		.4byte	.LASF206
 2240 1026 18       		.byte	0x18
 2241 1027 A0       		.byte	0xa0
 2242 1028 E9000000 		.4byte	0xe9
 2243 102c 08       		.byte	0x8
 2244 102d 09       		.uleb128 0x9
 2245 102e 746D7200 		.ascii	"tmr\000"
 2246 1032 18       		.byte	0x18
 2247 1033 A4       		.byte	0xa4
 2248 1034 9E100000 		.4byte	0x109e
 2249 1038 0C       		.byte	0xc
 2250 1039 00       		.byte	0
 2251 103a 03       		.uleb128 0x3
 2252 103b 810A0000 		.4byte	.LASF207
 2253 103f 17       		.byte	0x17
 2254 1040 47       		.byte	0x47
 2255 1041 45100000 		.4byte	0x1045
 2256 1045 0B       		.uleb128 0xb
 2257 1046 04       		.byte	0x4
 2258 1047 4B100000 		.4byte	0x104b
 2259 104b 11       		.uleb128 0x11
 2260 104c 56100000 		.4byte	0x1056
 2261 1050 12       		.uleb128 0x12
 2262 1051 56100000 		.4byte	0x1056
 2263 1055 00       		.byte	0
 2264 1056 0B       		.uleb128 0xb
 2265 1057 04       		.byte	0x4
 2266 1058 F20F0000 		.4byte	0xff2
 2267 105c 03       		.uleb128 0x3
 2268 105d 51040000 		.4byte	.LASF208
 2269 1061 18       		.byte	0x18
 2270 1062 76       		.byte	0x76
 2271 1063 E9000000 		.4byte	0xe9
 2272 1067 0A       		.uleb128 0xa
 2273 1068 08       		.byte	0x8
 2274 1069 18       		.byte	0x18
 2275 106a 81       		.byte	0x81
 2276 106b 88100000 		.4byte	0x1088
 2277 106f 08       		.uleb128 0x8
 2278 1070 74050000 		.4byte	.LASF209
 2279 1074 18       		.byte	0x18
 2280 1075 87       		.byte	0x87
ARM GAS  /tmp/ccqg3FOh.s 			page 41


 2281 1076 5C100000 		.4byte	0x105c
 2282 107a 00       		.byte	0
 2283 107b 08       		.uleb128 0x8
 2284 107c FE000000 		.4byte	.LASF210
 2285 1080 18       		.byte	0x18
 2286 1081 8C       		.byte	0x8c
 2287 1082 3A100000 		.4byte	0x103a
 2288 1086 04       		.byte	0x4
 2289 1087 00       		.byte	0
 2290 1088 03       		.uleb128 0x3
 2291 1089 B0040000 		.4byte	.LASF211
 2292 108d 18       		.byte	0x18
 2293 108e 8E       		.byte	0x8e
 2294 108f 67100000 		.4byte	0x1067
 2295 1093 06       		.uleb128 0x6
 2296 1094 88100000 		.4byte	0x1088
 2297 1098 0B       		.uleb128 0xb
 2298 1099 04       		.byte	0x4
 2299 109a 93100000 		.4byte	0x1093
 2300 109e 0B       		.uleb128 0xb
 2301 109f 04       		.byte	0x4
 2302 10a0 640C0000 		.4byte	0xc64
 2303 10a4 13       		.uleb128 0x13
 2304 10a5 C4010000 		.4byte	.LASF212
 2305 10a9 18       		.byte	0x18
 2306 10aa B0       		.byte	0xb0
 2307 10ab F20F0000 		.4byte	0xff2
 2308 10af 13       		.uleb128 0x13
 2309 10b0 CA010000 		.4byte	.LASF213
 2310 10b4 18       		.byte	0x18
 2311 10b5 B4       		.byte	0xb4
 2312 10b6 F20F0000 		.4byte	0xff2
 2313 10ba 13       		.uleb128 0x13
 2314 10bb D0010000 		.4byte	.LASF214
 2315 10bf 18       		.byte	0x18
 2316 10c0 B8       		.byte	0xb8
 2317 10c1 F20F0000 		.4byte	0xff2
 2318 10c5 13       		.uleb128 0x13
 2319 10c6 D6010000 		.4byte	.LASF215
 2320 10ca 18       		.byte	0x18
 2321 10cb BC       		.byte	0xbc
 2322 10cc F20F0000 		.4byte	0xff2
 2323 10d0 20       		.uleb128 0x20
 2324 10d1 01       		.byte	0x1
 2325 10d2 5E000000 		.4byte	0x5e
 2326 10d6 19       		.byte	0x19
 2327 10d7 5D       		.byte	0x5d
 2328 10d8 EF100000 		.4byte	0x10ef
 2329 10dc 21       		.uleb128 0x21
 2330 10dd D2020000 		.4byte	.LASF216
 2331 10e1 00       		.byte	0
 2332 10e2 21       		.uleb128 0x21
 2333 10e3 300A0000 		.4byte	.LASF217
 2334 10e7 01       		.byte	0x1
 2335 10e8 21       		.uleb128 0x21
 2336 10e9 B4080000 		.4byte	.LASF218
 2337 10ed 02       		.byte	0x2
ARM GAS  /tmp/ccqg3FOh.s 			page 42


 2338 10ee 00       		.byte	0
 2339 10ef 03       		.uleb128 0x3
 2340 10f0 9A080000 		.4byte	.LASF219
 2341 10f4 19       		.byte	0x19
 2342 10f5 61       		.byte	0x61
 2343 10f6 D0100000 		.4byte	0x10d0
 2344 10fa 03       		.uleb128 0x3
 2345 10fb 75080000 		.4byte	.LASF220
 2346 10ff 19       		.byte	0x19
 2347 1100 66       		.byte	0x66
 2348 1101 05110000 		.4byte	0x1105
 2349 1105 07       		.uleb128 0x7
 2350 1106 75080000 		.4byte	.LASF220
 2351 110a 78       		.byte	0x78
 2352 110b 19       		.byte	0x19
 2353 110c 80       		.byte	0x80
 2354 110d 70110000 		.4byte	0x1170
 2355 1111 09       		.uleb128 0x9
 2356 1112 766D7400 		.ascii	"vmt\000"
 2357 1116 19       		.byte	0x19
 2358 1117 82       		.byte	0x82
 2359 1118 F8110000 		.4byte	0x11f8
 2360 111c 00       		.byte	0
 2361 111d 08       		.uleb128 0x8
 2362 111e A6050000 		.4byte	.LASF221
 2363 1122 19       		.byte	0x19
 2364 1123 83       		.byte	0x83
 2365 1124 F6050000 		.4byte	0x5f6
 2366 1128 04       		.byte	0x4
 2367 1129 08       		.uleb128 0x8
 2368 112a DC000000 		.4byte	.LASF204
 2369 112e 19       		.byte	0x19
 2370 112f 83       		.byte	0x83
 2371 1130 EF100000 		.4byte	0x10ef
 2372 1134 08       		.byte	0x8
 2373 1135 08       		.uleb128 0x8
 2374 1136 06090000 		.4byte	.LASF222
 2375 113a 19       		.byte	0x19
 2376 113b 83       		.byte	0x83
 2377 113c 0F080000 		.4byte	0x80f
 2378 1140 0C       		.byte	0xc
 2379 1141 08       		.uleb128 0x8
 2380 1142 FA010000 		.4byte	.LASF223
 2381 1146 19       		.byte	0x19
 2382 1147 83       		.byte	0x83
 2383 1148 1A080000 		.4byte	0x81a
 2384 114c 30       		.byte	0x30
 2385 114d 09       		.uleb128 0x9
 2386 114e 696200   		.ascii	"ib\000"
 2387 1151 19       		.byte	0x19
 2388 1152 83       		.byte	0x83
 2389 1153 FE110000 		.4byte	0x11fe
 2390 1157 54       		.byte	0x54
 2391 1158 09       		.uleb128 0x9
 2392 1159 6F6200   		.ascii	"ob\000"
 2393 115c 19       		.byte	0x19
 2394 115d 83       		.byte	0x83
ARM GAS  /tmp/ccqg3FOh.s 			page 43


 2395 115e FE110000 		.4byte	0x11fe
 2396 1162 64       		.byte	0x64
 2397 1163 08       		.uleb128 0x8
 2398 1164 01090000 		.4byte	.LASF224
 2399 1168 19       		.byte	0x19
 2400 1169 83       		.byte	0x83
 2401 116a 0E120000 		.4byte	0x120e
 2402 116e 74       		.byte	0x74
 2403 116f 00       		.byte	0
 2404 1170 22       		.uleb128 0x22
 2405 1171 53443100 		.ascii	"SD1\000"
 2406 1175 1A       		.byte	0x1a
 2407 1176 EF       		.byte	0xef
 2408 1177 FA100000 		.4byte	0x10fa
 2409 117b 22       		.uleb128 0x22
 2410 117c 53443300 		.ascii	"SD3\000"
 2411 1180 1A       		.byte	0x1a
 2412 1181 F7       		.byte	0xf7
 2413 1182 FA100000 		.4byte	0x10fa
 2414 1186 07       		.uleb128 0x7
 2415 1187 92040000 		.4byte	.LASF225
 2416 118b 20       		.byte	0x20
 2417 118c 19       		.byte	0x19
 2418 118d 75       		.byte	0x75
 2419 118e F3110000 		.4byte	0x11f3
 2420 1192 08       		.uleb128 0x8
 2421 1193 B6000000 		.4byte	.LASF226
 2422 1197 19       		.byte	0x19
 2423 1198 76       		.byte	0x76
 2424 1199 44080000 		.4byte	0x844
 2425 119d 00       		.byte	0
 2426 119e 08       		.uleb128 0x8
 2427 119f B4050000 		.4byte	.LASF227
 2428 11a3 19       		.byte	0x19
 2429 11a4 76       		.byte	0x76
 2430 11a5 63080000 		.4byte	0x863
 2431 11a9 04       		.byte	0x4
 2432 11aa 09       		.uleb128 0x9
 2433 11ab 70757400 		.ascii	"put\000"
 2434 11af 19       		.byte	0x19
 2435 11b0 76       		.byte	0x76
 2436 11b1 7D080000 		.4byte	0x87d
 2437 11b5 08       		.byte	0x8
 2438 11b6 09       		.uleb128 0x9
 2439 11b7 67657400 		.ascii	"get\000"
 2440 11bb 19       		.byte	0x19
 2441 11bc 76       		.byte	0x76
 2442 11bd 4E060000 		.4byte	0x64e
 2443 11c1 0C       		.byte	0xc
 2444 11c2 08       		.uleb128 0x8
 2445 11c3 E2000000 		.4byte	.LASF228
 2446 11c7 19       		.byte	0x19
 2447 11c8 76       		.byte	0x76
 2448 11c9 BB0E0000 		.4byte	0xebb
 2449 11cd 10       		.byte	0x10
 2450 11ce 08       		.uleb128 0x8
 2451 11cf 42030000 		.4byte	.LASF229
ARM GAS  /tmp/ccqg3FOh.s 			page 44


 2452 11d3 19       		.byte	0x19
 2453 11d4 76       		.byte	0x76
 2454 11d5 D50E0000 		.4byte	0xed5
 2455 11d9 14       		.byte	0x14
 2456 11da 08       		.uleb128 0x8
 2457 11db 80000000 		.4byte	.LASF230
 2458 11df 19       		.byte	0x19
 2459 11e0 76       		.byte	0x76
 2460 11e1 F90E0000 		.4byte	0xef9
 2461 11e5 18       		.byte	0x18
 2462 11e6 08       		.uleb128 0x8
 2463 11e7 55010000 		.4byte	.LASF231
 2464 11eb 19       		.byte	0x19
 2465 11ec 76       		.byte	0x76
 2466 11ed 1D0F0000 		.4byte	0xf1d
 2467 11f1 1C       		.byte	0x1c
 2468 11f2 00       		.byte	0
 2469 11f3 06       		.uleb128 0x6
 2470 11f4 86110000 		.4byte	0x1186
 2471 11f8 0B       		.uleb128 0xb
 2472 11f9 04       		.byte	0x4
 2473 11fa F3110000 		.4byte	0x11f3
 2474 11fe 17       		.uleb128 0x17
 2475 11ff B4000000 		.4byte	0xb4
 2476 1203 0E120000 		.4byte	0x120e
 2477 1207 18       		.uleb128 0x18
 2478 1208 9D030000 		.4byte	0x39d
 2479 120c 0F       		.byte	0xf
 2480 120d 00       		.byte	0
 2481 120e 0B       		.uleb128 0xb
 2482 120f 04       		.byte	0x4
 2483 1210 800D0000 		.4byte	0xd80
 2484 1214 20       		.uleb128 0x20
 2485 1215 01       		.byte	0x1
 2486 1216 5E000000 		.4byte	0x5e
 2487 121a 1B       		.byte	0x1b
 2488 121b 4E       		.byte	0x4e
 2489 121c 3F120000 		.4byte	0x123f
 2490 1220 21       		.uleb128 0x21
 2491 1221 90010000 		.4byte	.LASF232
 2492 1225 00       		.byte	0
 2493 1226 21       		.uleb128 0x21
 2494 1227 7E010000 		.4byte	.LASF233
 2495 122b 01       		.byte	0x1
 2496 122c 21       		.uleb128 0x21
 2497 122d 1D050000 		.4byte	.LASF234
 2498 1231 02       		.byte	0x2
 2499 1232 21       		.uleb128 0x21
 2500 1233 E5050000 		.4byte	.LASF235
 2501 1237 03       		.byte	0x3
 2502 1238 21       		.uleb128 0x21
 2503 1239 BD090000 		.4byte	.LASF236
 2504 123d 04       		.byte	0x4
 2505 123e 00       		.byte	0
 2506 123f 03       		.uleb128 0x3
 2507 1240 080A0000 		.4byte	.LASF237
 2508 1244 1B       		.byte	0x1b
ARM GAS  /tmp/ccqg3FOh.s 			page 45


 2509 1245 54       		.byte	0x54
 2510 1246 14120000 		.4byte	0x1214
 2511 124a 03       		.uleb128 0x3
 2512 124b A3020000 		.4byte	.LASF238
 2513 124f 1C       		.byte	0x1c
 2514 1250 D0       		.byte	0xd0
 2515 1251 55120000 		.4byte	0x1255
 2516 1255 07       		.uleb128 0x7
 2517 1256 A3020000 		.4byte	.LASF238
 2518 125a 30       		.byte	0x30
 2519 125b 1C       		.byte	0x1c
 2520 125c F8       		.byte	0xf8
 2521 125d D6120000 		.4byte	0x12d6
 2522 1261 08       		.uleb128 0x8
 2523 1262 DC000000 		.4byte	.LASF204
 2524 1266 1C       		.byte	0x1c
 2525 1267 FC       		.byte	0xfc
 2526 1268 3F120000 		.4byte	0x123f
 2527 126c 00       		.byte	0
 2528 126d 0F       		.uleb128 0xf
 2529 126e D5000000 		.4byte	.LASF205
 2530 1272 1C       		.byte	0x1c
 2531 1273 0001     		.2byte	0x100
 2532 1275 4D130000 		.4byte	0x134d
 2533 1279 04       		.byte	0x4
 2534 127a 0F       		.uleb128 0xf
 2535 127b D0080000 		.4byte	.LASF239
 2536 127f 1C       		.byte	0x1c
 2537 1280 0501     		.2byte	0x105
 2538 1282 AC020000 		.4byte	0x2ac
 2539 1286 08       		.byte	0x8
 2540 1287 0F       		.uleb128 0xf
 2541 1288 61050000 		.4byte	.LASF240
 2542 128c 1C       		.byte	0x1c
 2543 128d 0C01     		.2byte	0x10c
 2544 128f 84050000 		.4byte	0x584
 2545 1293 0C       		.byte	0xc
 2546 1294 0E       		.uleb128 0xe
 2547 1295 73737000 		.ascii	"ssp\000"
 2548 1299 1C       		.byte	0x1c
 2549 129a 1801     		.2byte	0x118
 2550 129c 53130000 		.4byte	0x1353
 2551 12a0 1C       		.byte	0x1c
 2552 12a1 0F       		.uleb128 0xf
 2553 12a2 C2040000 		.4byte	.LASF241
 2554 12a6 1C       		.byte	0x1c
 2555 12a7 1C01     		.2byte	0x11c
 2556 12a9 E9000000 		.4byte	0xe9
 2557 12ad 20       		.byte	0x20
 2558 12ae 0F       		.uleb128 0xf
 2559 12af F7020000 		.4byte	.LASF242
 2560 12b3 1C       		.byte	0x1c
 2561 12b4 2001     		.2byte	0x120
 2562 12b6 E8020000 		.4byte	0x2e8
 2563 12ba 24       		.byte	0x24
 2564 12bb 0F       		.uleb128 0xf
 2565 12bc AA010000 		.4byte	.LASF243
ARM GAS  /tmp/ccqg3FOh.s 			page 46


 2566 12c0 1C       		.byte	0x1c
 2567 12c1 2401     		.2byte	0x124
 2568 12c3 E9000000 		.4byte	0xe9
 2569 12c7 28       		.byte	0x28
 2570 12c8 0F       		.uleb128 0xf
 2571 12c9 600A0000 		.4byte	.LASF244
 2572 12cd 1C       		.byte	0x1c
 2573 12ce 2801     		.2byte	0x128
 2574 12d0 59130000 		.4byte	0x1359
 2575 12d4 2C       		.byte	0x2c
 2576 12d5 00       		.byte	0
 2577 12d6 03       		.uleb128 0x3
 2578 12d7 B4020000 		.4byte	.LASF245
 2579 12db 1C       		.byte	0x1c
 2580 12dc D8       		.byte	0xd8
 2581 12dd E1120000 		.4byte	0x12e1
 2582 12e1 0B       		.uleb128 0xb
 2583 12e2 04       		.byte	0x4
 2584 12e3 E7120000 		.4byte	0x12e7
 2585 12e7 11       		.uleb128 0x11
 2586 12e8 F2120000 		.4byte	0x12f2
 2587 12ec 12       		.uleb128 0x12
 2588 12ed F2120000 		.4byte	0x12f2
 2589 12f1 00       		.byte	0
 2590 12f2 0B       		.uleb128 0xb
 2591 12f3 04       		.byte	0x4
 2592 12f4 4A120000 		.4byte	0x124a
 2593 12f8 0A       		.uleb128 0xa
 2594 12f9 10       		.byte	0x10
 2595 12fa 1C       		.byte	0x1c
 2596 12fb DD       		.byte	0xdd
 2597 12fc 3D130000 		.4byte	0x133d
 2598 1300 08       		.uleb128 0x8
 2599 1301 16010000 		.4byte	.LASF246
 2600 1305 1C       		.byte	0x1c
 2601 1306 E1       		.byte	0xe1
 2602 1307 D6120000 		.4byte	0x12d6
 2603 130b 00       		.byte	0
 2604 130c 08       		.uleb128 0x8
 2605 130d 9B000000 		.4byte	.LASF247
 2606 1311 1C       		.byte	0x1c
 2607 1312 E6       		.byte	0xe6
 2608 1313 9F0F0000 		.4byte	0xf9f
 2609 1317 04       		.byte	0x4
 2610 1318 08       		.uleb128 0x8
 2611 1319 520A0000 		.4byte	.LASF248
 2612 131d 1C       		.byte	0x1c
 2613 131e EA       		.byte	0xea
 2614 131f C9000000 		.4byte	0xc9
 2615 1323 08       		.byte	0x8
 2616 1324 09       		.uleb128 0x9
 2617 1325 63723000 		.ascii	"cr0\000"
 2618 1329 1C       		.byte	0x1c
 2619 132a EE       		.byte	0xee
 2620 132b C9000000 		.4byte	0xc9
 2621 132f 0A       		.byte	0xa
 2622 1330 08       		.uleb128 0x8
ARM GAS  /tmp/ccqg3FOh.s 			page 47


 2623 1331 C8040000 		.4byte	.LASF249
 2624 1335 1C       		.byte	0x1c
 2625 1336 F2       		.byte	0xf2
 2626 1337 E9000000 		.4byte	0xe9
 2627 133b 0C       		.byte	0xc
 2628 133c 00       		.byte	0
 2629 133d 03       		.uleb128 0x3
 2630 133e DB050000 		.4byte	.LASF250
 2631 1342 1C       		.byte	0x1c
 2632 1343 F3       		.byte	0xf3
 2633 1344 F8120000 		.4byte	0x12f8
 2634 1348 06       		.uleb128 0x6
 2635 1349 3D130000 		.4byte	0x133d
 2636 134d 0B       		.uleb128 0xb
 2637 134e 04       		.byte	0x4
 2638 134f 48130000 		.4byte	0x1348
 2639 1353 0B       		.uleb128 0xb
 2640 1354 04       		.byte	0x4
 2641 1355 160E0000 		.4byte	0xe16
 2642 1359 0B       		.uleb128 0xb
 2643 135a 04       		.byte	0x4
 2644 135b 5F130000 		.4byte	0x135f
 2645 135f 23       		.uleb128 0x23
 2646 1360 19       		.uleb128 0x19
 2647 1361 E7000000 		.4byte	.LASF251
 2648 1365 1C       		.byte	0x1c
 2649 1366 3401     		.2byte	0x134
 2650 1368 4A120000 		.4byte	0x124a
 2651 136c 19       		.uleb128 0x19
 2652 136d ED000000 		.4byte	.LASF252
 2653 1371 1C       		.byte	0x1c
 2654 1372 3801     		.2byte	0x138
 2655 1374 4A120000 		.4byte	0x124a
 2656 1378 24       		.uleb128 0x24
 2657 1379 70060000 		.4byte	.LASF255
 2658 137d 01       		.byte	0x1
 2659 137e BD       		.byte	0xbd
 2660 137f 00000000 		.4byte	.LFB65
 2661 1383 28000000 		.4byte	.LFE65-.LFB65
 2662 1387 01       		.uleb128 0x1
 2663 1388 9C       		.byte	0x9c
 2664 1389 E4130000 		.4byte	0x13e4
 2665 138d 25       		.uleb128 0x25
 2666 138e 6E090000 		.4byte	.LASF266
 2667 1392 01       		.byte	0x1
 2668 1393 BD       		.byte	0xbd
 2669 1394 790E0000 		.4byte	0xe79
 2670 1398 00000000 		.4byte	.LLST1
 2671 139c 26       		.uleb128 0x26
 2672 139d 1E000000 		.4byte	.LASF253
 2673 13a1 01       		.byte	0x1
 2674 13a2 BE       		.byte	0xbe
 2675 13a3 790E0000 		.4byte	0xe79
 2676 13a7 01       		.uleb128 0x1
 2677 13a8 52       		.byte	0x52
 2678 13a9 26       		.uleb128 0x26
 2679 13aa 7E050000 		.4byte	.LASF254
ARM GAS  /tmp/ccqg3FOh.s 			page 48


 2680 13ae 01       		.byte	0x1
 2681 13af BF       		.byte	0xbf
 2682 13b0 790E0000 		.4byte	0xe79
 2683 13b4 01       		.uleb128 0x1
 2684 13b5 50       		.byte	0x50
 2685 13b6 27       		.uleb128 0x27
 2686 13b7 E4130000 		.4byte	0x13e4
 2687 13bb 02000000 		.4byte	.LBB4
 2688 13bf 00000000 		.4byte	.Ldebug_ranges0+0
 2689 13c3 01       		.byte	0x1
 2690 13c4 C0       		.byte	0xc0
 2691 13c5 28       		.uleb128 0x28
 2692 13c6 FF130000 		.4byte	0x13ff
 2693 13ca 21000000 		.4byte	.LLST2
 2694 13ce 28       		.uleb128 0x28
 2695 13cf F4130000 		.4byte	0x13f4
 2696 13d3 3F000000 		.4byte	.LLST3
 2697 13d7 29       		.uleb128 0x29
 2698 13d8 00000000 		.4byte	.Ldebug_ranges0+0
 2699 13dc 2A       		.uleb128 0x2a
 2700 13dd 85140000 		.4byte	0x1485
 2701 13e1 00       		.byte	0
 2702 13e2 00       		.byte	0
 2703 13e3 00       		.byte	0
 2704 13e4 2B       		.uleb128 0x2b
 2705 13e5 B4030000 		.4byte	.LASF267
 2706 13e9 01       		.byte	0x1
 2707 13ea AA       		.byte	0xaa
 2708 13eb 09010000 		.4byte	0x109
 2709 13ef 01       		.byte	0x1
 2710 13f0 16140000 		.4byte	0x1416
 2711 13f4 2C       		.uleb128 0x2c
 2712 13f5 1E000000 		.4byte	.LASF253
 2713 13f9 01       		.byte	0x1
 2714 13fa AA       		.byte	0xaa
 2715 13fb 790E0000 		.4byte	0xe79
 2716 13ff 2D       		.uleb128 0x2d
 2717 1400 656E6400 		.ascii	"end\000"
 2718 1404 01       		.byte	0x1
 2719 1405 AA       		.byte	0xaa
 2720 1406 790E0000 		.4byte	0xe79
 2721 140a 2E       		.uleb128 0x2e
 2722 140b 6E6F7700 		.ascii	"now\000"
 2723 140f 01       		.byte	0x1
 2724 1410 AB       		.byte	0xab
 2725 1411 790E0000 		.4byte	0xe79
 2726 1415 00       		.byte	0
 2727 1416 24       		.uleb128 0x24
 2728 1417 BA040000 		.4byte	.LASF256
 2729 141b 01       		.byte	0x1
 2730 141c 3D       		.byte	0x3d
 2731 141d 00000000 		.4byte	.LFB63
 2732 1421 24000000 		.4byte	.LFE63-.LFB63
 2733 1425 01       		.uleb128 0x1
 2734 1426 9C       		.byte	0x9c
 2735 1427 62140000 		.4byte	0x1462
 2736 142b 2F       		.uleb128 0x2f
ARM GAS  /tmp/ccqg3FOh.s 			page 49


 2737 142c 06000000 		.4byte	.LVL0
 2738 1430 8D140000 		.4byte	0x148d
 2739 1434 2F       		.uleb128 0x2f
 2740 1435 0C000000 		.4byte	.LVL1
 2741 1439 99140000 		.4byte	0x1499
 2742 143d 2F       		.uleb128 0x2f
 2743 143e 10000000 		.4byte	.LVL2
 2744 1442 A5140000 		.4byte	0x14a5
 2745 1446 2F       		.uleb128 0x2f
 2746 1447 14000000 		.4byte	.LVL3
 2747 144b B0140000 		.4byte	0x14b0
 2748 144f 2F       		.uleb128 0x2f
 2749 1450 18000000 		.4byte	.LVL4
 2750 1454 BC140000 		.4byte	0x14bc
 2751 1458 30       		.uleb128 0x30
 2752 1459 20000000 		.4byte	.LVL5
 2753 145d C8140000 		.4byte	0x14c8
 2754 1461 00       		.byte	0
 2755 1462 31       		.uleb128 0x31
 2756 1463 E4130000 		.4byte	0x13e4
 2757 1467 00000000 		.4byte	.LFB64
 2758 146b 28000000 		.4byte	.LFE64-.LFB64
 2759 146f 01       		.uleb128 0x1
 2760 1470 9C       		.byte	0x9c
 2761 1471 8D140000 		.4byte	0x148d
 2762 1475 28       		.uleb128 0x28
 2763 1476 F4130000 		.4byte	0x13f4
 2764 147a 5D000000 		.4byte	.LLST0
 2765 147e 32       		.uleb128 0x32
 2766 147f FF130000 		.4byte	0x13ff
 2767 1483 01       		.uleb128 0x1
 2768 1484 51       		.byte	0x51
 2769 1485 33       		.uleb128 0x33
 2770 1486 0A140000 		.4byte	0x140a
 2771 148a 01       		.uleb128 0x1
 2772 148b 53       		.byte	0x53
 2773 148c 00       		.byte	0
 2774 148d 34       		.uleb128 0x34
 2775 148e 60020000 		.4byte	.LASF257
 2776 1492 60020000 		.4byte	.LASF257
 2777 1496 14       		.byte	0x14
 2778 1497 AA01     		.2byte	0x1aa
 2779 1499 34       		.uleb128 0x34
 2780 149a 00000000 		.4byte	.LASF258
 2781 149e 00000000 		.4byte	.LASF258
 2782 14a2 16       		.byte	0x16
 2783 14a3 3901     		.2byte	0x139
 2784 14a5 35       		.uleb128 0x35
 2785 14a6 56000000 		.4byte	.LASF259
 2786 14aa 56000000 		.4byte	.LASF259
 2787 14ae 17       		.byte	0x17
 2788 14af 67       		.byte	0x67
 2789 14b0 34       		.uleb128 0x34
 2790 14b1 0A020000 		.4byte	.LASF260
 2791 14b5 0A020000 		.4byte	.LASF260
 2792 14b9 19       		.byte	0x19
 2793 14ba 2E01     		.2byte	0x12e
ARM GAS  /tmp/ccqg3FOh.s 			page 50


 2794 14bc 34       		.uleb128 0x34
 2795 14bd 92030000 		.4byte	.LASF261
 2796 14c1 92030000 		.4byte	.LASF261
 2797 14c5 1B       		.byte	0x1b
 2798 14c6 2701     		.2byte	0x127
 2799 14c8 35       		.uleb128 0x35
 2800 14c9 14090000 		.4byte	.LASF262
 2801 14cd 14090000 		.4byte	.LASF262
 2802 14d1 1D       		.byte	0x1d
 2803 14d2 5B       		.byte	0x5b
 2804 14d3 00       		.byte	0
 2805              		.section	.debug_abbrev,"",%progbits
 2806              	.Ldebug_abbrev0:
 2807 0000 01       		.uleb128 0x1
 2808 0001 11       		.uleb128 0x11
 2809 0002 01       		.byte	0x1
 2810 0003 25       		.uleb128 0x25
 2811 0004 0E       		.uleb128 0xe
 2812 0005 13       		.uleb128 0x13
 2813 0006 0B       		.uleb128 0xb
 2814 0007 03       		.uleb128 0x3
 2815 0008 0E       		.uleb128 0xe
 2816 0009 1B       		.uleb128 0x1b
 2817 000a 0E       		.uleb128 0xe
 2818 000b 55       		.uleb128 0x55
 2819 000c 17       		.uleb128 0x17
 2820 000d 11       		.uleb128 0x11
 2821 000e 01       		.uleb128 0x1
 2822 000f 10       		.uleb128 0x10
 2823 0010 17       		.uleb128 0x17
 2824 0011 00       		.byte	0
 2825 0012 00       		.byte	0
 2826 0013 02       		.uleb128 0x2
 2827 0014 24       		.uleb128 0x24
 2828 0015 00       		.byte	0
 2829 0016 0B       		.uleb128 0xb
 2830 0017 0B       		.uleb128 0xb
 2831 0018 3E       		.uleb128 0x3e
 2832 0019 0B       		.uleb128 0xb
 2833 001a 03       		.uleb128 0x3
 2834 001b 08       		.uleb128 0x8
 2835 001c 00       		.byte	0
 2836 001d 00       		.byte	0
 2837 001e 03       		.uleb128 0x3
 2838 001f 16       		.uleb128 0x16
 2839 0020 00       		.byte	0
 2840 0021 03       		.uleb128 0x3
 2841 0022 0E       		.uleb128 0xe
 2842 0023 3A       		.uleb128 0x3a
 2843 0024 0B       		.uleb128 0xb
 2844 0025 3B       		.uleb128 0x3b
 2845 0026 0B       		.uleb128 0xb
 2846 0027 49       		.uleb128 0x49
 2847 0028 13       		.uleb128 0x13
 2848 0029 00       		.byte	0
 2849 002a 00       		.byte	0
 2850 002b 04       		.uleb128 0x4
ARM GAS  /tmp/ccqg3FOh.s 			page 51


 2851 002c 24       		.uleb128 0x24
 2852 002d 00       		.byte	0
 2853 002e 0B       		.uleb128 0xb
 2854 002f 0B       		.uleb128 0xb
 2855 0030 3E       		.uleb128 0x3e
 2856 0031 0B       		.uleb128 0xb
 2857 0032 03       		.uleb128 0x3
 2858 0033 0E       		.uleb128 0xe
 2859 0034 00       		.byte	0
 2860 0035 00       		.byte	0
 2861 0036 05       		.uleb128 0x5
 2862 0037 35       		.uleb128 0x35
 2863 0038 00       		.byte	0
 2864 0039 49       		.uleb128 0x49
 2865 003a 13       		.uleb128 0x13
 2866 003b 00       		.byte	0
 2867 003c 00       		.byte	0
 2868 003d 06       		.uleb128 0x6
 2869 003e 26       		.uleb128 0x26
 2870 003f 00       		.byte	0
 2871 0040 49       		.uleb128 0x49
 2872 0041 13       		.uleb128 0x13
 2873 0042 00       		.byte	0
 2874 0043 00       		.byte	0
 2875 0044 07       		.uleb128 0x7
 2876 0045 13       		.uleb128 0x13
 2877 0046 01       		.byte	0x1
 2878 0047 03       		.uleb128 0x3
 2879 0048 0E       		.uleb128 0xe
 2880 0049 0B       		.uleb128 0xb
 2881 004a 0B       		.uleb128 0xb
 2882 004b 3A       		.uleb128 0x3a
 2883 004c 0B       		.uleb128 0xb
 2884 004d 3B       		.uleb128 0x3b
 2885 004e 0B       		.uleb128 0xb
 2886 004f 01       		.uleb128 0x1
 2887 0050 13       		.uleb128 0x13
 2888 0051 00       		.byte	0
 2889 0052 00       		.byte	0
 2890 0053 08       		.uleb128 0x8
 2891 0054 0D       		.uleb128 0xd
 2892 0055 00       		.byte	0
 2893 0056 03       		.uleb128 0x3
 2894 0057 0E       		.uleb128 0xe
 2895 0058 3A       		.uleb128 0x3a
 2896 0059 0B       		.uleb128 0xb
 2897 005a 3B       		.uleb128 0x3b
 2898 005b 0B       		.uleb128 0xb
 2899 005c 49       		.uleb128 0x49
 2900 005d 13       		.uleb128 0x13
 2901 005e 38       		.uleb128 0x38
 2902 005f 0B       		.uleb128 0xb
 2903 0060 00       		.byte	0
 2904 0061 00       		.byte	0
 2905 0062 09       		.uleb128 0x9
 2906 0063 0D       		.uleb128 0xd
 2907 0064 00       		.byte	0
ARM GAS  /tmp/ccqg3FOh.s 			page 52


 2908 0065 03       		.uleb128 0x3
 2909 0066 08       		.uleb128 0x8
 2910 0067 3A       		.uleb128 0x3a
 2911 0068 0B       		.uleb128 0xb
 2912 0069 3B       		.uleb128 0x3b
 2913 006a 0B       		.uleb128 0xb
 2914 006b 49       		.uleb128 0x49
 2915 006c 13       		.uleb128 0x13
 2916 006d 38       		.uleb128 0x38
 2917 006e 0B       		.uleb128 0xb
 2918 006f 00       		.byte	0
 2919 0070 00       		.byte	0
 2920 0071 0A       		.uleb128 0xa
 2921 0072 13       		.uleb128 0x13
 2922 0073 01       		.byte	0x1
 2923 0074 0B       		.uleb128 0xb
 2924 0075 0B       		.uleb128 0xb
 2925 0076 3A       		.uleb128 0x3a
 2926 0077 0B       		.uleb128 0xb
 2927 0078 3B       		.uleb128 0x3b
 2928 0079 0B       		.uleb128 0xb
 2929 007a 01       		.uleb128 0x1
 2930 007b 13       		.uleb128 0x13
 2931 007c 00       		.byte	0
 2932 007d 00       		.byte	0
 2933 007e 0B       		.uleb128 0xb
 2934 007f 0F       		.uleb128 0xf
 2935 0080 00       		.byte	0
 2936 0081 0B       		.uleb128 0xb
 2937 0082 0B       		.uleb128 0xb
 2938 0083 49       		.uleb128 0x49
 2939 0084 13       		.uleb128 0x13
 2940 0085 00       		.byte	0
 2941 0086 00       		.byte	0
 2942 0087 0C       		.uleb128 0xc
 2943 0088 0F       		.uleb128 0xf
 2944 0089 00       		.byte	0
 2945 008a 0B       		.uleb128 0xb
 2946 008b 0B       		.uleb128 0xb
 2947 008c 00       		.byte	0
 2948 008d 00       		.byte	0
 2949 008e 0D       		.uleb128 0xd
 2950 008f 13       		.uleb128 0x13
 2951 0090 01       		.byte	0x1
 2952 0091 03       		.uleb128 0x3
 2953 0092 0E       		.uleb128 0xe
 2954 0093 0B       		.uleb128 0xb
 2955 0094 0B       		.uleb128 0xb
 2956 0095 3A       		.uleb128 0x3a
 2957 0096 0B       		.uleb128 0xb
 2958 0097 3B       		.uleb128 0x3b
 2959 0098 05       		.uleb128 0x5
 2960 0099 01       		.uleb128 0x1
 2961 009a 13       		.uleb128 0x13
 2962 009b 00       		.byte	0
 2963 009c 00       		.byte	0
 2964 009d 0E       		.uleb128 0xe
ARM GAS  /tmp/ccqg3FOh.s 			page 53


 2965 009e 0D       		.uleb128 0xd
 2966 009f 00       		.byte	0
 2967 00a0 03       		.uleb128 0x3
 2968 00a1 08       		.uleb128 0x8
 2969 00a2 3A       		.uleb128 0x3a
 2970 00a3 0B       		.uleb128 0xb
 2971 00a4 3B       		.uleb128 0x3b
 2972 00a5 05       		.uleb128 0x5
 2973 00a6 49       		.uleb128 0x49
 2974 00a7 13       		.uleb128 0x13
 2975 00a8 38       		.uleb128 0x38
 2976 00a9 0B       		.uleb128 0xb
 2977 00aa 00       		.byte	0
 2978 00ab 00       		.byte	0
 2979 00ac 0F       		.uleb128 0xf
 2980 00ad 0D       		.uleb128 0xd
 2981 00ae 00       		.byte	0
 2982 00af 03       		.uleb128 0x3
 2983 00b0 0E       		.uleb128 0xe
 2984 00b1 3A       		.uleb128 0x3a
 2985 00b2 0B       		.uleb128 0xb
 2986 00b3 3B       		.uleb128 0x3b
 2987 00b4 05       		.uleb128 0x5
 2988 00b5 49       		.uleb128 0x49
 2989 00b6 13       		.uleb128 0x13
 2990 00b7 38       		.uleb128 0x38
 2991 00b8 0B       		.uleb128 0xb
 2992 00b9 00       		.byte	0
 2993 00ba 00       		.byte	0
 2994 00bb 10       		.uleb128 0x10
 2995 00bc 16       		.uleb128 0x16
 2996 00bd 00       		.byte	0
 2997 00be 03       		.uleb128 0x3
 2998 00bf 0E       		.uleb128 0xe
 2999 00c0 3A       		.uleb128 0x3a
 3000 00c1 0B       		.uleb128 0xb
 3001 00c2 3B       		.uleb128 0x3b
 3002 00c3 05       		.uleb128 0x5
 3003 00c4 49       		.uleb128 0x49
 3004 00c5 13       		.uleb128 0x13
 3005 00c6 00       		.byte	0
 3006 00c7 00       		.byte	0
 3007 00c8 11       		.uleb128 0x11
 3008 00c9 15       		.uleb128 0x15
 3009 00ca 01       		.byte	0x1
 3010 00cb 27       		.uleb128 0x27
 3011 00cc 19       		.uleb128 0x19
 3012 00cd 01       		.uleb128 0x1
 3013 00ce 13       		.uleb128 0x13
 3014 00cf 00       		.byte	0
 3015 00d0 00       		.byte	0
 3016 00d1 12       		.uleb128 0x12
 3017 00d2 05       		.uleb128 0x5
 3018 00d3 00       		.byte	0
 3019 00d4 49       		.uleb128 0x49
 3020 00d5 13       		.uleb128 0x13
 3021 00d6 00       		.byte	0
ARM GAS  /tmp/ccqg3FOh.s 			page 54


 3022 00d7 00       		.byte	0
 3023 00d8 13       		.uleb128 0x13
 3024 00d9 34       		.uleb128 0x34
 3025 00da 00       		.byte	0
 3026 00db 03       		.uleb128 0x3
 3027 00dc 0E       		.uleb128 0xe
 3028 00dd 3A       		.uleb128 0x3a
 3029 00de 0B       		.uleb128 0xb
 3030 00df 3B       		.uleb128 0x3b
 3031 00e0 0B       		.uleb128 0xb
 3032 00e1 49       		.uleb128 0x49
 3033 00e2 13       		.uleb128 0x13
 3034 00e3 3F       		.uleb128 0x3f
 3035 00e4 19       		.uleb128 0x19
 3036 00e5 3C       		.uleb128 0x3c
 3037 00e6 19       		.uleb128 0x19
 3038 00e7 00       		.byte	0
 3039 00e8 00       		.byte	0
 3040 00e9 14       		.uleb128 0x14
 3041 00ea 17       		.uleb128 0x17
 3042 00eb 01       		.byte	0x1
 3043 00ec 0B       		.uleb128 0xb
 3044 00ed 0B       		.uleb128 0xb
 3045 00ee 3A       		.uleb128 0x3a
 3046 00ef 0B       		.uleb128 0xb
 3047 00f0 3B       		.uleb128 0x3b
 3048 00f1 0B       		.uleb128 0xb
 3049 00f2 01       		.uleb128 0x1
 3050 00f3 13       		.uleb128 0x13
 3051 00f4 00       		.byte	0
 3052 00f5 00       		.byte	0
 3053 00f6 15       		.uleb128 0x15
 3054 00f7 0D       		.uleb128 0xd
 3055 00f8 00       		.byte	0
 3056 00f9 03       		.uleb128 0x3
 3057 00fa 0E       		.uleb128 0xe
 3058 00fb 3A       		.uleb128 0x3a
 3059 00fc 0B       		.uleb128 0xb
 3060 00fd 3B       		.uleb128 0x3b
 3061 00fe 0B       		.uleb128 0xb
 3062 00ff 49       		.uleb128 0x49
 3063 0100 13       		.uleb128 0x13
 3064 0101 00       		.byte	0
 3065 0102 00       		.byte	0
 3066 0103 16       		.uleb128 0x16
 3067 0104 15       		.uleb128 0x15
 3068 0105 01       		.byte	0x1
 3069 0106 27       		.uleb128 0x27
 3070 0107 19       		.uleb128 0x19
 3071 0108 49       		.uleb128 0x49
 3072 0109 13       		.uleb128 0x13
 3073 010a 01       		.uleb128 0x1
 3074 010b 13       		.uleb128 0x13
 3075 010c 00       		.byte	0
 3076 010d 00       		.byte	0
 3077 010e 17       		.uleb128 0x17
 3078 010f 01       		.uleb128 0x1
ARM GAS  /tmp/ccqg3FOh.s 			page 55


 3079 0110 01       		.byte	0x1
 3080 0111 49       		.uleb128 0x49
 3081 0112 13       		.uleb128 0x13
 3082 0113 01       		.uleb128 0x1
 3083 0114 13       		.uleb128 0x13
 3084 0115 00       		.byte	0
 3085 0116 00       		.byte	0
 3086 0117 18       		.uleb128 0x18
 3087 0118 21       		.uleb128 0x21
 3088 0119 00       		.byte	0
 3089 011a 49       		.uleb128 0x49
 3090 011b 13       		.uleb128 0x13
 3091 011c 2F       		.uleb128 0x2f
 3092 011d 0B       		.uleb128 0xb
 3093 011e 00       		.byte	0
 3094 011f 00       		.byte	0
 3095 0120 19       		.uleb128 0x19
 3096 0121 34       		.uleb128 0x34
 3097 0122 00       		.byte	0
 3098 0123 03       		.uleb128 0x3
 3099 0124 0E       		.uleb128 0xe
 3100 0125 3A       		.uleb128 0x3a
 3101 0126 0B       		.uleb128 0xb
 3102 0127 3B       		.uleb128 0x3b
 3103 0128 05       		.uleb128 0x5
 3104 0129 49       		.uleb128 0x49
 3105 012a 13       		.uleb128 0x13
 3106 012b 3F       		.uleb128 0x3f
 3107 012c 19       		.uleb128 0x19
 3108 012d 3C       		.uleb128 0x3c
 3109 012e 19       		.uleb128 0x19
 3110 012f 00       		.byte	0
 3111 0130 00       		.byte	0
 3112 0131 1A       		.uleb128 0x1a
 3113 0132 0D       		.uleb128 0xd
 3114 0133 00       		.byte	0
 3115 0134 49       		.uleb128 0x49
 3116 0135 13       		.uleb128 0x13
 3117 0136 00       		.byte	0
 3118 0137 00       		.byte	0
 3119 0138 1B       		.uleb128 0x1b
 3120 0139 13       		.uleb128 0x13
 3121 013a 01       		.byte	0x1
 3122 013b 0B       		.uleb128 0xb
 3123 013c 0B       		.uleb128 0xb
 3124 013d 3A       		.uleb128 0x3a
 3125 013e 0B       		.uleb128 0xb
 3126 013f 3B       		.uleb128 0x3b
 3127 0140 05       		.uleb128 0x5
 3128 0141 01       		.uleb128 0x1
 3129 0142 13       		.uleb128 0x13
 3130 0143 00       		.byte	0
 3131 0144 00       		.byte	0
 3132 0145 1C       		.uleb128 0x1c
 3133 0146 0D       		.uleb128 0xd
 3134 0147 00       		.byte	0
 3135 0148 49       		.uleb128 0x49
ARM GAS  /tmp/ccqg3FOh.s 			page 56


 3136 0149 13       		.uleb128 0x13
 3137 014a 38       		.uleb128 0x38
 3138 014b 0B       		.uleb128 0xb
 3139 014c 00       		.byte	0
 3140 014d 00       		.byte	0
 3141 014e 1D       		.uleb128 0x1d
 3142 014f 17       		.uleb128 0x17
 3143 0150 01       		.byte	0x1
 3144 0151 0B       		.uleb128 0xb
 3145 0152 0B       		.uleb128 0xb
 3146 0153 3A       		.uleb128 0x3a
 3147 0154 0B       		.uleb128 0xb
 3148 0155 3B       		.uleb128 0x3b
 3149 0156 05       		.uleb128 0x5
 3150 0157 01       		.uleb128 0x1
 3151 0158 13       		.uleb128 0x13
 3152 0159 00       		.byte	0
 3153 015a 00       		.byte	0
 3154 015b 1E       		.uleb128 0x1e
 3155 015c 0D       		.uleb128 0xd
 3156 015d 00       		.byte	0
 3157 015e 03       		.uleb128 0x3
 3158 015f 08       		.uleb128 0x8
 3159 0160 3A       		.uleb128 0x3a
 3160 0161 0B       		.uleb128 0xb
 3161 0162 3B       		.uleb128 0x3b
 3162 0163 05       		.uleb128 0x5
 3163 0164 49       		.uleb128 0x49
 3164 0165 13       		.uleb128 0x13
 3165 0166 00       		.byte	0
 3166 0167 00       		.byte	0
 3167 0168 1F       		.uleb128 0x1f
 3168 0169 21       		.uleb128 0x21
 3169 016a 00       		.byte	0
 3170 016b 00       		.byte	0
 3171 016c 00       		.byte	0
 3172 016d 20       		.uleb128 0x20
 3173 016e 04       		.uleb128 0x4
 3174 016f 01       		.byte	0x1
 3175 0170 0B       		.uleb128 0xb
 3176 0171 0B       		.uleb128 0xb
 3177 0172 49       		.uleb128 0x49
 3178 0173 13       		.uleb128 0x13
 3179 0174 3A       		.uleb128 0x3a
 3180 0175 0B       		.uleb128 0xb
 3181 0176 3B       		.uleb128 0x3b
 3182 0177 0B       		.uleb128 0xb
 3183 0178 01       		.uleb128 0x1
 3184 0179 13       		.uleb128 0x13
 3185 017a 00       		.byte	0
 3186 017b 00       		.byte	0
 3187 017c 21       		.uleb128 0x21
 3188 017d 28       		.uleb128 0x28
 3189 017e 00       		.byte	0
 3190 017f 03       		.uleb128 0x3
 3191 0180 0E       		.uleb128 0xe
 3192 0181 1C       		.uleb128 0x1c
ARM GAS  /tmp/ccqg3FOh.s 			page 57


 3193 0182 0B       		.uleb128 0xb
 3194 0183 00       		.byte	0
 3195 0184 00       		.byte	0
 3196 0185 22       		.uleb128 0x22
 3197 0186 34       		.uleb128 0x34
 3198 0187 00       		.byte	0
 3199 0188 03       		.uleb128 0x3
 3200 0189 08       		.uleb128 0x8
 3201 018a 3A       		.uleb128 0x3a
 3202 018b 0B       		.uleb128 0xb
 3203 018c 3B       		.uleb128 0x3b
 3204 018d 0B       		.uleb128 0xb
 3205 018e 49       		.uleb128 0x49
 3206 018f 13       		.uleb128 0x13
 3207 0190 3F       		.uleb128 0x3f
 3208 0191 19       		.uleb128 0x19
 3209 0192 3C       		.uleb128 0x3c
 3210 0193 19       		.uleb128 0x19
 3211 0194 00       		.byte	0
 3212 0195 00       		.byte	0
 3213 0196 23       		.uleb128 0x23
 3214 0197 26       		.uleb128 0x26
 3215 0198 00       		.byte	0
 3216 0199 00       		.byte	0
 3217 019a 00       		.byte	0
 3218 019b 24       		.uleb128 0x24
 3219 019c 2E       		.uleb128 0x2e
 3220 019d 01       		.byte	0x1
 3221 019e 3F       		.uleb128 0x3f
 3222 019f 19       		.uleb128 0x19
 3223 01a0 03       		.uleb128 0x3
 3224 01a1 0E       		.uleb128 0xe
 3225 01a2 3A       		.uleb128 0x3a
 3226 01a3 0B       		.uleb128 0xb
 3227 01a4 3B       		.uleb128 0x3b
 3228 01a5 0B       		.uleb128 0xb
 3229 01a6 27       		.uleb128 0x27
 3230 01a7 19       		.uleb128 0x19
 3231 01a8 11       		.uleb128 0x11
 3232 01a9 01       		.uleb128 0x1
 3233 01aa 12       		.uleb128 0x12
 3234 01ab 06       		.uleb128 0x6
 3235 01ac 40       		.uleb128 0x40
 3236 01ad 18       		.uleb128 0x18
 3237 01ae 9742     		.uleb128 0x2117
 3238 01b0 19       		.uleb128 0x19
 3239 01b1 01       		.uleb128 0x1
 3240 01b2 13       		.uleb128 0x13
 3241 01b3 00       		.byte	0
 3242 01b4 00       		.byte	0
 3243 01b5 25       		.uleb128 0x25
 3244 01b6 05       		.uleb128 0x5
 3245 01b7 00       		.byte	0
 3246 01b8 03       		.uleb128 0x3
 3247 01b9 0E       		.uleb128 0xe
 3248 01ba 3A       		.uleb128 0x3a
 3249 01bb 0B       		.uleb128 0xb
ARM GAS  /tmp/ccqg3FOh.s 			page 58


 3250 01bc 3B       		.uleb128 0x3b
 3251 01bd 0B       		.uleb128 0xb
 3252 01be 49       		.uleb128 0x49
 3253 01bf 13       		.uleb128 0x13
 3254 01c0 02       		.uleb128 0x2
 3255 01c1 17       		.uleb128 0x17
 3256 01c2 00       		.byte	0
 3257 01c3 00       		.byte	0
 3258 01c4 26       		.uleb128 0x26
 3259 01c5 34       		.uleb128 0x34
 3260 01c6 00       		.byte	0
 3261 01c7 03       		.uleb128 0x3
 3262 01c8 0E       		.uleb128 0xe
 3263 01c9 3A       		.uleb128 0x3a
 3264 01ca 0B       		.uleb128 0xb
 3265 01cb 3B       		.uleb128 0x3b
 3266 01cc 0B       		.uleb128 0xb
 3267 01cd 49       		.uleb128 0x49
 3268 01ce 13       		.uleb128 0x13
 3269 01cf 02       		.uleb128 0x2
 3270 01d0 18       		.uleb128 0x18
 3271 01d1 00       		.byte	0
 3272 01d2 00       		.byte	0
 3273 01d3 27       		.uleb128 0x27
 3274 01d4 1D       		.uleb128 0x1d
 3275 01d5 01       		.byte	0x1
 3276 01d6 31       		.uleb128 0x31
 3277 01d7 13       		.uleb128 0x13
 3278 01d8 52       		.uleb128 0x52
 3279 01d9 01       		.uleb128 0x1
 3280 01da 55       		.uleb128 0x55
 3281 01db 17       		.uleb128 0x17
 3282 01dc 58       		.uleb128 0x58
 3283 01dd 0B       		.uleb128 0xb
 3284 01de 59       		.uleb128 0x59
 3285 01df 0B       		.uleb128 0xb
 3286 01e0 00       		.byte	0
 3287 01e1 00       		.byte	0
 3288 01e2 28       		.uleb128 0x28
 3289 01e3 05       		.uleb128 0x5
 3290 01e4 00       		.byte	0
 3291 01e5 31       		.uleb128 0x31
 3292 01e6 13       		.uleb128 0x13
 3293 01e7 02       		.uleb128 0x2
 3294 01e8 17       		.uleb128 0x17
 3295 01e9 00       		.byte	0
 3296 01ea 00       		.byte	0
 3297 01eb 29       		.uleb128 0x29
 3298 01ec 0B       		.uleb128 0xb
 3299 01ed 01       		.byte	0x1
 3300 01ee 55       		.uleb128 0x55
 3301 01ef 17       		.uleb128 0x17
 3302 01f0 00       		.byte	0
 3303 01f1 00       		.byte	0
 3304 01f2 2A       		.uleb128 0x2a
 3305 01f3 34       		.uleb128 0x34
 3306 01f4 00       		.byte	0
ARM GAS  /tmp/ccqg3FOh.s 			page 59


 3307 01f5 31       		.uleb128 0x31
 3308 01f6 13       		.uleb128 0x13
 3309 01f7 00       		.byte	0
 3310 01f8 00       		.byte	0
 3311 01f9 2B       		.uleb128 0x2b
 3312 01fa 2E       		.uleb128 0x2e
 3313 01fb 01       		.byte	0x1
 3314 01fc 3F       		.uleb128 0x3f
 3315 01fd 19       		.uleb128 0x19
 3316 01fe 03       		.uleb128 0x3
 3317 01ff 0E       		.uleb128 0xe
 3318 0200 3A       		.uleb128 0x3a
 3319 0201 0B       		.uleb128 0xb
 3320 0202 3B       		.uleb128 0x3b
 3321 0203 0B       		.uleb128 0xb
 3322 0204 27       		.uleb128 0x27
 3323 0205 19       		.uleb128 0x19
 3324 0206 49       		.uleb128 0x49
 3325 0207 13       		.uleb128 0x13
 3326 0208 20       		.uleb128 0x20
 3327 0209 0B       		.uleb128 0xb
 3328 020a 01       		.uleb128 0x1
 3329 020b 13       		.uleb128 0x13
 3330 020c 00       		.byte	0
 3331 020d 00       		.byte	0
 3332 020e 2C       		.uleb128 0x2c
 3333 020f 05       		.uleb128 0x5
 3334 0210 00       		.byte	0
 3335 0211 03       		.uleb128 0x3
 3336 0212 0E       		.uleb128 0xe
 3337 0213 3A       		.uleb128 0x3a
 3338 0214 0B       		.uleb128 0xb
 3339 0215 3B       		.uleb128 0x3b
 3340 0216 0B       		.uleb128 0xb
 3341 0217 49       		.uleb128 0x49
 3342 0218 13       		.uleb128 0x13
 3343 0219 00       		.byte	0
 3344 021a 00       		.byte	0
 3345 021b 2D       		.uleb128 0x2d
 3346 021c 05       		.uleb128 0x5
 3347 021d 00       		.byte	0
 3348 021e 03       		.uleb128 0x3
 3349 021f 08       		.uleb128 0x8
 3350 0220 3A       		.uleb128 0x3a
 3351 0221 0B       		.uleb128 0xb
 3352 0222 3B       		.uleb128 0x3b
 3353 0223 0B       		.uleb128 0xb
 3354 0224 49       		.uleb128 0x49
 3355 0225 13       		.uleb128 0x13
 3356 0226 00       		.byte	0
 3357 0227 00       		.byte	0
 3358 0228 2E       		.uleb128 0x2e
 3359 0229 34       		.uleb128 0x34
 3360 022a 00       		.byte	0
 3361 022b 03       		.uleb128 0x3
 3362 022c 08       		.uleb128 0x8
 3363 022d 3A       		.uleb128 0x3a
ARM GAS  /tmp/ccqg3FOh.s 			page 60


 3364 022e 0B       		.uleb128 0xb
 3365 022f 3B       		.uleb128 0x3b
 3366 0230 0B       		.uleb128 0xb
 3367 0231 49       		.uleb128 0x49
 3368 0232 13       		.uleb128 0x13
 3369 0233 00       		.byte	0
 3370 0234 00       		.byte	0
 3371 0235 2F       		.uleb128 0x2f
 3372 0236 898201   		.uleb128 0x4109
 3373 0239 00       		.byte	0
 3374 023a 11       		.uleb128 0x11
 3375 023b 01       		.uleb128 0x1
 3376 023c 31       		.uleb128 0x31
 3377 023d 13       		.uleb128 0x13
 3378 023e 00       		.byte	0
 3379 023f 00       		.byte	0
 3380 0240 30       		.uleb128 0x30
 3381 0241 898201   		.uleb128 0x4109
 3382 0244 00       		.byte	0
 3383 0245 11       		.uleb128 0x11
 3384 0246 01       		.uleb128 0x1
 3385 0247 9542     		.uleb128 0x2115
 3386 0249 19       		.uleb128 0x19
 3387 024a 31       		.uleb128 0x31
 3388 024b 13       		.uleb128 0x13
 3389 024c 00       		.byte	0
 3390 024d 00       		.byte	0
 3391 024e 31       		.uleb128 0x31
 3392 024f 2E       		.uleb128 0x2e
 3393 0250 01       		.byte	0x1
 3394 0251 31       		.uleb128 0x31
 3395 0252 13       		.uleb128 0x13
 3396 0253 11       		.uleb128 0x11
 3397 0254 01       		.uleb128 0x1
 3398 0255 12       		.uleb128 0x12
 3399 0256 06       		.uleb128 0x6
 3400 0257 40       		.uleb128 0x40
 3401 0258 18       		.uleb128 0x18
 3402 0259 9742     		.uleb128 0x2117
 3403 025b 19       		.uleb128 0x19
 3404 025c 01       		.uleb128 0x1
 3405 025d 13       		.uleb128 0x13
 3406 025e 00       		.byte	0
 3407 025f 00       		.byte	0
 3408 0260 32       		.uleb128 0x32
 3409 0261 05       		.uleb128 0x5
 3410 0262 00       		.byte	0
 3411 0263 31       		.uleb128 0x31
 3412 0264 13       		.uleb128 0x13
 3413 0265 02       		.uleb128 0x2
 3414 0266 18       		.uleb128 0x18
 3415 0267 00       		.byte	0
 3416 0268 00       		.byte	0
 3417 0269 33       		.uleb128 0x33
 3418 026a 34       		.uleb128 0x34
 3419 026b 00       		.byte	0
 3420 026c 31       		.uleb128 0x31
ARM GAS  /tmp/ccqg3FOh.s 			page 61


 3421 026d 13       		.uleb128 0x13
 3422 026e 02       		.uleb128 0x2
 3423 026f 18       		.uleb128 0x18
 3424 0270 00       		.byte	0
 3425 0271 00       		.byte	0
 3426 0272 34       		.uleb128 0x34
 3427 0273 2E       		.uleb128 0x2e
 3428 0274 00       		.byte	0
 3429 0275 3F       		.uleb128 0x3f
 3430 0276 19       		.uleb128 0x19
 3431 0277 3C       		.uleb128 0x3c
 3432 0278 19       		.uleb128 0x19
 3433 0279 6E       		.uleb128 0x6e
 3434 027a 0E       		.uleb128 0xe
 3435 027b 03       		.uleb128 0x3
 3436 027c 0E       		.uleb128 0xe
 3437 027d 3A       		.uleb128 0x3a
 3438 027e 0B       		.uleb128 0xb
 3439 027f 3B       		.uleb128 0x3b
 3440 0280 05       		.uleb128 0x5
 3441 0281 00       		.byte	0
 3442 0282 00       		.byte	0
 3443 0283 35       		.uleb128 0x35
 3444 0284 2E       		.uleb128 0x2e
 3445 0285 00       		.byte	0
 3446 0286 3F       		.uleb128 0x3f
 3447 0287 19       		.uleb128 0x19
 3448 0288 3C       		.uleb128 0x3c
 3449 0289 19       		.uleb128 0x19
 3450 028a 6E       		.uleb128 0x6e
 3451 028b 0E       		.uleb128 0xe
 3452 028c 03       		.uleb128 0x3
 3453 028d 0E       		.uleb128 0xe
 3454 028e 3A       		.uleb128 0x3a
 3455 028f 0B       		.uleb128 0xb
 3456 0290 3B       		.uleb128 0x3b
 3457 0291 0B       		.uleb128 0xb
 3458 0292 00       		.byte	0
 3459 0293 00       		.byte	0
 3460 0294 00       		.byte	0
 3461              		.section	.debug_loc,"",%progbits
 3462              	.Ldebug_loc0:
 3463              	.LLST1:
 3464 0000 00000000 		.4byte	.LVL13
 3465 0004 08000000 		.4byte	.LVL15
 3466 0008 0100     		.2byte	0x1
 3467 000a 50       		.byte	0x50
 3468 000b 08000000 		.4byte	.LVL15
 3469 000f 28000000 		.4byte	.LFE65
 3470 0013 0400     		.2byte	0x4
 3471 0015 F3       		.byte	0xf3
 3472 0016 01       		.uleb128 0x1
 3473 0017 50       		.byte	0x50
 3474 0018 9F       		.byte	0x9f
 3475 0019 00000000 		.4byte	0
 3476 001d 00000000 		.4byte	0
 3477              	.LLST2:
ARM GAS  /tmp/ccqg3FOh.s 			page 62


 3478 0021 08000000 		.4byte	.LVL15
 3479 0025 14000000 		.4byte	.LVL17
 3480 0029 0100     		.2byte	0x1
 3481 002b 50       		.byte	0x50
 3482 002c 1E000000 		.4byte	.LVL18
 3483 0030 28000000 		.4byte	.LFE65
 3484 0034 0100     		.2byte	0x1
 3485 0036 50       		.byte	0x50
 3486 0037 00000000 		.4byte	0
 3487 003b 00000000 		.4byte	0
 3488              	.LLST3:
 3489 003f 08000000 		.4byte	.LVL15
 3490 0043 14000000 		.4byte	.LVL17
 3491 0047 0100     		.2byte	0x1
 3492 0049 52       		.byte	0x52
 3493 004a 1E000000 		.4byte	.LVL18
 3494 004e 28000000 		.4byte	.LFE65
 3495 0052 0100     		.2byte	0x1
 3496 0054 52       		.byte	0x52
 3497 0055 00000000 		.4byte	0
 3498 0059 00000000 		.4byte	0
 3499              	.LLST0:
 3500 005d 00000000 		.4byte	.LVL6
 3501 0061 12000000 		.4byte	.LVL8
 3502 0065 0100     		.2byte	0x1
 3503 0067 50       		.byte	0x50
 3504 0068 12000000 		.4byte	.LVL8
 3505 006c 16000000 		.4byte	.LVL9
 3506 0070 0400     		.2byte	0x4
 3507 0072 F3       		.byte	0xf3
 3508 0073 01       		.uleb128 0x1
 3509 0074 50       		.byte	0x50
 3510 0075 9F       		.byte	0x9f
 3511 0076 16000000 		.4byte	.LVL9
 3512 007a 1C000000 		.4byte	.LVL10
 3513 007e 0100     		.2byte	0x1
 3514 0080 50       		.byte	0x50
 3515 0081 1C000000 		.4byte	.LVL10
 3516 0085 1E000000 		.4byte	.LVL11
 3517 0089 0400     		.2byte	0x4
 3518 008b F3       		.byte	0xf3
 3519 008c 01       		.uleb128 0x1
 3520 008d 50       		.byte	0x50
 3521 008e 9F       		.byte	0x9f
 3522 008f 1E000000 		.4byte	.LVL11
 3523 0093 20000000 		.4byte	.LVL12
 3524 0097 0100     		.2byte	0x1
 3525 0099 50       		.byte	0x50
 3526 009a 20000000 		.4byte	.LVL12
 3527 009e 28000000 		.4byte	.LFE64
 3528 00a2 0400     		.2byte	0x4
 3529 00a4 F3       		.byte	0xf3
 3530 00a5 01       		.uleb128 0x1
 3531 00a6 50       		.byte	0x50
 3532 00a7 9F       		.byte	0x9f
 3533 00a8 00000000 		.4byte	0
 3534 00ac 00000000 		.4byte	0
ARM GAS  /tmp/ccqg3FOh.s 			page 63


 3535              		.section	.debug_aranges,"",%progbits
 3536 0000 2C000000 		.4byte	0x2c
 3537 0004 0200     		.2byte	0x2
 3538 0006 00000000 		.4byte	.Ldebug_info0
 3539 000a 04       		.byte	0x4
 3540 000b 00       		.byte	0
 3541 000c 0000     		.2byte	0
 3542 000e 0000     		.2byte	0
 3543 0010 00000000 		.4byte	.LFB63
 3544 0014 24000000 		.4byte	.LFE63-.LFB63
 3545 0018 00000000 		.4byte	.LFB64
 3546 001c 28000000 		.4byte	.LFE64-.LFB64
 3547 0020 00000000 		.4byte	.LFB65
 3548 0024 28000000 		.4byte	.LFE65-.LFB65
 3549 0028 00000000 		.4byte	0
 3550 002c 00000000 		.4byte	0
 3551              		.section	.debug_ranges,"",%progbits
 3552              	.Ldebug_ranges0:
 3553 0000 02000000 		.4byte	.LBB4
 3554 0004 04000000 		.4byte	.LBE4
 3555 0008 08000000 		.4byte	.LBB8
 3556 000c 18000000 		.4byte	.LBE8
 3557 0010 1E000000 		.4byte	.LBB9
 3558 0014 28000000 		.4byte	.LBE9
 3559 0018 00000000 		.4byte	0
 3560 001c 00000000 		.4byte	0
 3561 0020 00000000 		.4byte	.LFB63
 3562 0024 24000000 		.4byte	.LFE63
 3563 0028 00000000 		.4byte	.LFB64
 3564 002c 28000000 		.4byte	.LFE64
 3565 0030 00000000 		.4byte	.LFB65
 3566 0034 28000000 		.4byte	.LFE65
 3567 0038 00000000 		.4byte	0
 3568 003c 00000000 		.4byte	0
 3569              		.section	.debug_line,"",%progbits
 3570              	.Ldebug_line0:
 3571 0000 38030000 		.section	.debug_str,"MS",%progbits,1
 3571      0200BF02 
 3571      00000201 
 3571      FB0E0D00 
 3571      01010101 
 3572              	.LASF258:
 3573 0000 5F70616C 		.ascii	"_pal_lld_init\000"
 3573      5F6C6C64 
 3573      5F696E69 
 3573      7400
 3574              	.LASF4:
 3575 000e 73697A65 		.ascii	"size_t\000"
 3575      5F7400
 3576              	.LASF59:
 3577 0015 73697A65 		.ascii	"sizetype\000"
 3577      74797065 
 3577      00
 3578              	.LASF253:
 3579 001e 73746172 		.ascii	"start\000"
 3579      7400
 3580              	.LASF114:
ARM GAS  /tmp/ccqg3FOh.s 			page 64


 3581 0024 63665F6F 		.ascii	"cf_off_name\000"
 3581      66665F6E 
 3581      616D6500 
 3582              	.LASF31:
 3583 0030 73797374 		.ascii	"systime_t\000"
 3583      696D655F 
 3583      7400
 3584              	.LASF103:
 3585 003a 63685F69 		.ascii	"ch_identifier\000"
 3585      64656E74 
 3585      69666965 
 3585      7200
 3586              	.LASF36:
 3587 0048 705F6374 		.ascii	"p_ctx\000"
 3587      7800
 3588              	.LASF27:
 3589 004e 74707269 		.ascii	"tprio_t\000"
 3589      6F5F7400 
 3590              	.LASF259:
 3591 0056 67707449 		.ascii	"gptInit\000"
 3591      6E697400 
 3592              	.LASF122:
 3593 005e 63685F64 		.ascii	"ch_debug\000"
 3593      65627567 
 3593      00
 3594              	.LASF46:
 3595 0067 705F6D73 		.ascii	"p_msgqueue\000"
 3595      67717565 
 3595      756500
 3596              	.LASF80:
 3597 0072 725F6374 		.ascii	"r_ctx\000"
 3597      7800
 3598              	.LASF18:
 3599 0078 696E7433 		.ascii	"int32_t\000"
 3599      325F7400 
 3600              	.LASF230:
 3601 0080 77726974 		.ascii	"writet\000"
 3601      657400
 3602              	.LASF111:
 3603 0087 63665F6F 		.ascii	"cf_off_ctx\000"
 3603      66665F63 
 3603      747800
 3604              	.LASF69:
 3605 0092 76746675 		.ascii	"vtfunc_t\000"
 3605      6E635F74 
 3605      00
 3606              	.LASF247:
 3607 009b 7373706F 		.ascii	"ssport\000"
 3607      727400
 3608              	.LASF189:
 3609 00a2 4C50435F 		.ascii	"LPC_GPDMACH_TypeDef\000"
 3609      4750444D 
 3609      4143485F 
 3609      54797065 
 3609      44656600 
 3610              	.LASF226:
 3611 00b6 77726974 		.ascii	"write\000"
ARM GAS  /tmp/ccqg3FOh.s 			page 65


 3611      6500
 3612              	.LASF176:
 3613 00bc 43544352 		.ascii	"CTCR\000"
 3613      00
 3614              	.LASF95:
 3615 00c1 656C5F66 		.ascii	"el_flags\000"
 3615      6C616773 
 3615      00
 3616              	.LASF202:
 3617 00ca 67707473 		.ascii	"gptstate_t\000"
 3617      74617465 
 3617      5F7400
 3618              	.LASF205:
 3619 00d5 636F6E66 		.ascii	"config\000"
 3619      696700
 3620              	.LASF204:
 3621 00dc 73746174 		.ascii	"state\000"
 3621      6500
 3622              	.LASF228:
 3623 00e2 70757474 		.ascii	"putt\000"
 3623      00
 3624              	.LASF251:
 3625 00e7 53504944 		.ascii	"SPID1\000"
 3625      3100
 3626              	.LASF252:
 3627 00ed 53504944 		.ascii	"SPID2\000"
 3627      3200
 3628              	.LASF107:
 3629 00f3 63685F70 		.ascii	"ch_ptrsize\000"
 3629      74727369 
 3629      7A6500
 3630              	.LASF210:
 3631 00fe 63616C6C 		.ascii	"callback\000"
 3631      6261636B 
 3631      00
 3632              	.LASF89:
 3633 0107 6D5F6F77 		.ascii	"m_owner\000"
 3633      6E657200 
 3634              	.LASF75:
 3635 010f 76745F70 		.ascii	"vt_par\000"
 3635      617200
 3636              	.LASF246:
 3637 0116 656E645F 		.ascii	"end_cb\000"
 3637      636200
 3638              	.LASF99:
 3639 011d 65786974 		.ascii	"exitcode\000"
 3639      636F6465 
 3639      00
 3640              	.LASF5:
 3641 0126 5F5F7569 		.ascii	"__uint8_t\000"
 3641      6E74385F 
 3641      7400
 3642              	.LASF127:
 3643 0130 715F746F 		.ascii	"q_top\000"
 3643      7000
 3644              	.LASF185:
 3645 0136 43446573 		.ascii	"CDestAddr\000"
ARM GAS  /tmp/ccqg3FOh.s 			page 66


 3645      74416464 
 3645      7200
 3646              	.LASF101:
 3647 0140 65776D61 		.ascii	"ewmask\000"
 3647      736B00
 3648              	.LASF109:
 3649 0147 63685F74 		.ascii	"ch_threadsize\000"
 3649      68726561 
 3649      6473697A 
 3649      6500
 3650              	.LASF231:
 3651 0155 72656164 		.ascii	"readt\000"
 3651      7400
 3652              	.LASF126:
 3653 015b 715F6275 		.ascii	"q_buffer\000"
 3653      66666572 
 3653      00
 3654              	.LASF184:
 3655 0164 43537263 		.ascii	"CSrcAddr\000"
 3655      41646472 
 3655      00
 3656              	.LASF130:
 3657 016d 715F6E6F 		.ascii	"q_notify\000"
 3657      74696679 
 3657      00
 3658              	.LASF37:
 3659 0176 705F6E65 		.ascii	"p_newer\000"
 3659      77657200 
 3660              	.LASF233:
 3661 017e 5350495F 		.ascii	"SPI_STOP\000"
 3661      53544F50 
 3661      00
 3662              	.LASF11:
 3663 0187 6C6F6E67 		.ascii	"long int\000"
 3663      20696E74 
 3663      00
 3664              	.LASF232:
 3665 0190 5350495F 		.ascii	"SPI_UNINIT\000"
 3665      554E494E 
 3665      495400
 3666              	.LASF33:
 3667 019b 705F6E65 		.ascii	"p_next\000"
 3667      787400
 3668              	.LASF129:
 3669 01a2 715F7264 		.ascii	"q_rdptr\000"
 3669      70747200 
 3670              	.LASF243:
 3671 01aa 7478636E 		.ascii	"txcnt\000"
 3671      7400
 3672              	.LASF116:
 3673 01b0 63665F6F 		.ascii	"cf_off_state\000"
 3673      66665F73 
 3673      74617465 
 3673      00
 3674              	.LASF34:
 3675 01bd 705F7072 		.ascii	"p_prev\000"
 3675      657600
ARM GAS  /tmp/ccqg3FOh.s 			page 67


 3676              	.LASF212:
 3677 01c4 47505444 		.ascii	"GPTD1\000"
 3677      3100
 3678              	.LASF213:
 3679 01ca 47505444 		.ascii	"GPTD2\000"
 3679      3200
 3680              	.LASF214:
 3681 01d0 47505444 		.ascii	"GPTD3\000"
 3681      3300
 3682              	.LASF215:
 3683 01d6 47505444 		.ascii	"GPTD4\000"
 3683      3400
 3684              	.LASF195:
 3685 01dc 696F706F 		.ascii	"ioportid_t\000"
 3685      72746964 
 3685      5F7400
 3686              	.LASF24:
 3687 01e7 74737461 		.ascii	"tstate_t\000"
 3687      74655F74 
 3687      00
 3688              	.LASF49:
 3689 01f0 705F6D74 		.ascii	"p_mtxlist\000"
 3689      786C6973 
 3689      7400
 3690              	.LASF223:
 3691 01fa 6F717565 		.ascii	"oqueue\000"
 3691      756500
 3692              	.LASF54:
 3693 0201 72656761 		.ascii	"regarm_t\000"
 3693      726D5F74 
 3693      00
 3694              	.LASF260:
 3695 020a 7364496E 		.ascii	"sdInit\000"
 3695      697400
 3696              	.LASF183:
 3697 0211 4C50435F 		.ascii	"LPC_SSP_TypeDef\000"
 3697      5353505F 
 3697      54797065 
 3697      44656600 
 3698              	.LASF196:
 3699 0221 70616C5F 		.ascii	"pal_default_config\000"
 3699      64656661 
 3699      756C745F 
 3699      636F6E66 
 3699      696700
 3700              	.LASF3:
 3701 0234 7369676E 		.ascii	"signed char\000"
 3701      65642063 
 3701      68617200 
 3702              	.LASF43:
 3703 0240 705F7072 		.ascii	"p_preempt\000"
 3703      65656D70 
 3703      7400
 3704              	.LASF16:
 3705 024a 75696E74 		.ascii	"uint8_t\000"
 3705      385F7400 
 3706              	.LASF181:
ARM GAS  /tmp/ccqg3FOh.s 			page 68


 3707 0252 494D5343 		.ascii	"IMSC\000"
 3707      00
 3708              	.LASF64:
 3709 0257 534C4545 		.ascii	"SLEEPCNT\000"
 3709      50434E54 
 3709      00
 3710              	.LASF257:
 3711 0260 68616C5F 		.ascii	"hal_lld_init\000"
 3711      6C6C645F 
 3711      696E6974 
 3711      00
 3712              	.LASF29:
 3713 026d 6576656E 		.ascii	"eventmask_t\000"
 3713      746D6173 
 3713      6B5F7400 
 3714              	.LASF57:
 3715 0279 636F6E74 		.ascii	"context\000"
 3715      65787400 
 3716              	.LASF173:
 3717 0281 52455345 		.ascii	"RESERVED0\000"
 3717      52564544 
 3717      3000
 3718              	.LASF175:
 3719 028b 52455345 		.ascii	"RESERVED1\000"
 3719      52564544 
 3719      3100
 3720              	.LASF6:
 3721 0295 756E7369 		.ascii	"unsigned char\000"
 3721      676E6564 
 3721      20636861 
 3721      7200
 3722              	.LASF238:
 3723 02a3 53504944 		.ascii	"SPIDriver\000"
 3723      72697665 
 3723      7200
 3724              	.LASF131:
 3725 02ad 715F6C69 		.ascii	"q_link\000"
 3725      6E6B00
 3726              	.LASF245:
 3727 02b4 73706963 		.ascii	"spicallback_t\000"
 3727      616C6C62 
 3727      61636B5F 
 3727      7400
 3728              	.LASF72:
 3729 02c2 76745F70 		.ascii	"vt_prev\000"
 3729      72657600 
 3730              	.LASF81:
 3731 02ca 725F6E65 		.ascii	"r_newer\000"
 3731      77657200 
 3732              	.LASF216:
 3733 02d2 53445F55 		.ascii	"SD_UNINIT\000"
 3733      4E494E49 
 3733      5400
 3734              	.LASF22:
 3735 02dc 5F426F6F 		.ascii	"_Bool\000"
 3735      6C00
 3736              	.LASF178:
ARM GAS  /tmp/ccqg3FOh.s 			page 69


 3737 02e2 52455345 		.ascii	"RESERVED2\000"
 3737      52564544 
 3737      3200
 3738              	.LASF182:
 3739 02ec 444D4143 		.ascii	"DMACR\000"
 3739      5200
 3740              	.LASF102:
 3741 02f2 63686172 		.ascii	"char\000"
 3741      00
 3742              	.LASF242:
 3743 02f7 72787074 		.ascii	"rxptr\000"
 3743      7200
 3744              	.LASF197:
 3745 02fd 4750545F 		.ascii	"GPT_UNINIT\000"
 3745      554E494E 
 3745      495400
 3746              	.LASF35:
 3747 0308 705F7072 		.ascii	"p_prio\000"
 3747      696F00
 3748              	.LASF8:
 3749 030f 5F5F7569 		.ascii	"__uint16_t\000"
 3749      6E743136 
 3749      5F7400
 3750              	.LASF123:
 3751 031a 47656E65 		.ascii	"GenericQueue\000"
 3751      72696351 
 3751      75657565 
 3751      00
 3752              	.LASF100:
 3753 0327 77746F62 		.ascii	"wtobjp\000"
 3753      6A7000
 3754              	.LASF62:
 3755 032e 43504943 		.ascii	"CPICNT\000"
 3755      4E5400
 3756              	.LASF112:
 3757 0335 63665F6F 		.ascii	"cf_off_newer\000"
 3757      66665F6E 
 3757      65776572 
 3757      00
 3758              	.LASF229:
 3759 0342 67657474 		.ascii	"gett\000"
 3759      00
 3760              	.LASF55:
 3761 0347 73746B61 		.ascii	"stkalign_t\000"
 3761      6C69676E 
 3761      5F7400
 3762              	.LASF161:
 3763 0352 46494F53 		.ascii	"FIOSET0\000"
 3763      45543000 
 3764              	.LASF162:
 3765 035a 46494F53 		.ascii	"FIOSET1\000"
 3765      45543100 
 3766              	.LASF163:
 3767 0362 46494F53 		.ascii	"FIOSET2\000"
 3767      45543200 
 3768              	.LASF134:
 3769 036a 4F757470 		.ascii	"OutputQueue\000"
ARM GAS  /tmp/ccqg3FOh.s 			page 70


 3769      75745175 
 3769      65756500 
 3770              	.LASF160:
 3771 0376 46494F53 		.ascii	"FIOSETH\000"
 3771      45544800 
 3772              	.LASF159:
 3773 037e 46494F53 		.ascii	"FIOSETL\000"
 3773      45544C00 
 3774              	.LASF110:
 3775 0386 63665F6F 		.ascii	"cf_off_prio\000"
 3775      66665F70 
 3775      72696F00 
 3776              	.LASF261:
 3777 0392 73706949 		.ascii	"spiInit\000"
 3777      6E697400 
 3778              	.LASF74:
 3779 039a 76745F66 		.ascii	"vt_func\000"
 3779      756E6300 
 3780              	.LASF56:
 3781 03a2 696E7463 		.ascii	"intctx\000"
 3781      747800
 3782              	.LASF48:
 3783 03a9 705F6570 		.ascii	"p_epending\000"
 3783      656E6469 
 3783      6E6700
 3784              	.LASF267:
 3785 03b4 68616C49 		.ascii	"halIsCounterWithin\000"
 3785      73436F75 
 3785      6E746572 
 3785      57697468 
 3785      696E00
 3786              	.LASF97:
 3787 03c7 65735F6E 		.ascii	"es_next\000"
 3787      65787400 
 3788              	.LASF125:
 3789 03cf 715F636F 		.ascii	"q_counter\000"
 3789      756E7465 
 3789      7200
 3790              	.LASF65:
 3791 03d9 4C535543 		.ascii	"LSUCNT\000"
 3791      4E5400
 3792              	.LASF154:
 3793 03e0 46494F50 		.ascii	"FIOPIN0\000"
 3793      494E3000 
 3794              	.LASF155:
 3795 03e8 46494F50 		.ascii	"FIOPIN1\000"
 3795      494E3100 
 3796              	.LASF156:
 3797 03f0 46494F50 		.ascii	"FIOPIN2\000"
 3797      494E3200 
 3798              	.LASF157:
 3799 03f8 46494F50 		.ascii	"FIOPIN3\000"
 3799      494E3300 
 3800              	.LASF96:
 3801 0400 4576656E 		.ascii	"EventSource\000"
 3801      74536F75 
 3801      72636500 
ARM GAS  /tmp/ccqg3FOh.s 			page 71


 3802              	.LASF14:
 3803 040c 5F5F7569 		.ascii	"__uint64_t\000"
 3803      6E743634 
 3803      5F7400
 3804              	.LASF13:
 3805 0417 6C6F6E67 		.ascii	"long unsigned int\000"
 3805      20756E73 
 3805      69676E65 
 3805      6420696E 
 3805      7400
 3806              	.LASF104:
 3807 0429 63685F7A 		.ascii	"ch_zero\000"
 3807      65726F00 
 3808              	.LASF153:
 3809 0431 46494F50 		.ascii	"FIOPINH\000"
 3809      494E4800 
 3810              	.LASF152:
 3811 0439 46494F50 		.ascii	"FIOPINL\000"
 3811      494E4C00 
 3812              	.LASF137:
 3813 0441 53797374 		.ascii	"SystemCoreClock\000"
 3813      656D436F 
 3813      7265436C 
 3813      6F636B00 
 3814              	.LASF208:
 3815 0451 67707466 		.ascii	"gptfreq_t\000"
 3815      7265715F 
 3815      7400
 3816              	.LASF187:
 3817 045b 43436F6E 		.ascii	"CControl\000"
 3817      74726F6C 
 3817      00
 3818              	.LASF92:
 3819 0464 656C5F6E 		.ascii	"el_next\000"
 3819      65787400 
 3820              	.LASF128:
 3821 046c 715F7772 		.ascii	"q_wrptr\000"
 3821      70747200 
 3822              	.LASF191:
 3823 0474 5F6C7063 		.ascii	"_lpc17xx_dma_channel_config_t\000"
 3823      31377878 
 3823      5F646D61 
 3823      5F636861 
 3823      6E6E656C 
 3824              	.LASF225:
 3825 0492 53657269 		.ascii	"SerialDriverVMT\000"
 3825      616C4472 
 3825      69766572 
 3825      564D5400 
 3826              	.LASF151:
 3827 04a2 46494F4D 		.ascii	"FIOMASK\000"
 3827      41534B00 
 3828              	.LASF206:
 3829 04aa 636C6F63 		.ascii	"clock\000"
 3829      6B00
 3830              	.LASF211:
 3831 04b0 47505443 		.ascii	"GPTConfig\000"
ARM GAS  /tmp/ccqg3FOh.s 			page 72


 3831      6F6E6669 
 3831      6700
 3832              	.LASF256:
 3833 04ba 68616C49 		.ascii	"halInit\000"
 3833      6E697400 
 3834              	.LASF241:
 3835 04c2 7278636E 		.ascii	"rxcnt\000"
 3835      7400
 3836              	.LASF249:
 3837 04c8 63707372 		.ascii	"cpsr\000"
 3837      00
 3838              	.LASF140:
 3839 04cd 46494F44 		.ascii	"FIODIR0\000"
 3839      49523000 
 3840              	.LASF141:
 3841 04d5 46494F44 		.ascii	"FIODIR1\000"
 3841      49523100 
 3842              	.LASF142:
 3843 04dd 46494F44 		.ascii	"FIODIR2\000"
 3843      49523200 
 3844              	.LASF143:
 3845 04e5 46494F44 		.ascii	"FIODIR3\000"
 3845      49523300 
 3846              	.LASF119:
 3847 04ed 63665F6F 		.ascii	"cf_off_preempt\000"
 3847      66665F70 
 3847      7265656D 
 3847      707400
 3848              	.LASF139:
 3849 04fc 46494F44 		.ascii	"FIODIRH\000"
 3849      49524800 
 3850              	.LASF138:
 3851 0504 46494F44 		.ascii	"FIODIRL\000"
 3851      49524C00 
 3852              	.LASF12:
 3853 050c 5F5F7569 		.ascii	"__uint32_t\000"
 3853      6E743332 
 3853      5F7400
 3854              	.LASF87:
 3855 0517 4D757465 		.ascii	"Mutex\000"
 3855      7800
 3856              	.LASF234:
 3857 051d 5350495F 		.ascii	"SPI_READY\000"
 3857      52454144 
 3857      5900
 3858              	.LASF1:
 3859 0527 6C6F6E67 		.ascii	"long long int\000"
 3859      206C6F6E 
 3859      6720696E 
 3859      7400
 3860              	.LASF106:
 3861 0535 63685F76 		.ascii	"ch_version\000"
 3861      65727369 
 3861      6F6E00
 3862              	.LASF88:
 3863 0540 6D5F7175 		.ascii	"m_queue\000"
 3863      65756500 
ARM GAS  /tmp/ccqg3FOh.s 			page 73


 3864              	.LASF203:
 3865 0548 47505444 		.ascii	"GPTDriver\000"
 3865      72697665 
 3865      7200
 3866              	.LASF71:
 3867 0552 76745F6E 		.ascii	"vt_next\000"
 3867      65787400 
 3868              	.LASF165:
 3869 055a 46494F53 		.ascii	"FIOSET\000"
 3869      455400
 3870              	.LASF240:
 3871 0561 6D757465 		.ascii	"mutex\000"
 3871      7800
 3872              	.LASF136:
 3873 0567 49544D5F 		.ascii	"ITM_RxBuffer\000"
 3873      52784275 
 3873      66666572 
 3873      00
 3874              	.LASF209:
 3875 0574 66726571 		.ascii	"frequency\000"
 3875      75656E63 
 3875      7900
 3876              	.LASF254:
 3877 057e 74696D65 		.ascii	"timeout\000"
 3877      6F757400 
 3878              	.LASF132:
 3879 0586 716E6F74 		.ascii	"qnotify_t\000"
 3879      6966795F 
 3879      7400
 3880              	.LASF201:
 3881 0590 4750545F 		.ascii	"GPT_ONESHOT\000"
 3881      4F4E4553 
 3881      484F5400 
 3882              	.LASF45:
 3883 059c 705F7761 		.ascii	"p_waiting\000"
 3883      6974696E 
 3883      6700
 3884              	.LASF221:
 3885 05a6 6576656E 		.ascii	"event\000"
 3885      7400
 3886              	.LASF41:
 3887 05ac 705F666C 		.ascii	"p_flags\000"
 3887      61677300 
 3888              	.LASF227:
 3889 05b4 72656164 		.ascii	"read\000"
 3889      00
 3890              	.LASF0:
 3891 05b9 756E7369 		.ascii	"unsigned int\000"
 3891      676E6564 
 3891      20696E74 
 3891      00
 3892              	.LASF60:
 3893 05c6 4354524C 		.ascii	"CTRL\000"
 3893      00
 3894              	.LASF115:
 3895 05cb 63665F6F 		.ascii	"cf_off_stklimit\000"
 3895      66665F73 
ARM GAS  /tmp/ccqg3FOh.s 			page 74


 3895      746B6C69 
 3895      6D697400 
 3896              	.LASF250:
 3897 05db 53504943 		.ascii	"SPIConfig\000"
 3897      6F6E6669 
 3897      6700
 3898              	.LASF235:
 3899 05e5 5350495F 		.ascii	"SPI_ACTIVE\000"
 3899      41435449 
 3899      564500
 3900              	.LASF147:
 3901 05f0 46494F4D 		.ascii	"FIOMASK0\000"
 3901      41534B30 
 3901      00
 3902              	.LASF148:
 3903 05f9 46494F4D 		.ascii	"FIOMASK1\000"
 3903      41534B31 
 3903      00
 3904              	.LASF149:
 3905 0602 46494F4D 		.ascii	"FIOMASK2\000"
 3905      41534B32 
 3905      00
 3906              	.LASF150:
 3907 060b 46494F4D 		.ascii	"FIOMASK3\000"
 3907      41534B33 
 3907      00
 3908              	.LASF51:
 3909 0614 705F6D70 		.ascii	"p_mpool\000"
 3909      6F6F6C00 
 3910              	.LASF68:
 3911 061c 434D785F 		.ascii	"CMx_DWT\000"
 3911      44575400 
 3912              	.LASF168:
 3913 0624 46494F43 		.ascii	"FIOCLR0\000"
 3913      4C523000 
 3914              	.LASF169:
 3915 062c 46494F43 		.ascii	"FIOCLR1\000"
 3915      4C523100 
 3916              	.LASF170:
 3917 0634 46494F43 		.ascii	"FIOCLR2\000"
 3917      4C523200 
 3918              	.LASF171:
 3919 063c 46494F43 		.ascii	"FIOCLR3\000"
 3919      4C523300 
 3920              	.LASF42:
 3921 0644 705F7265 		.ascii	"p_refs\000"
 3921      667300
 3922              	.LASF146:
 3923 064b 46494F4D 		.ascii	"FIOMASKH\000"
 3923      41534B48 
 3923      00
 3924              	.LASF63:
 3925 0654 45584343 		.ascii	"EXCCNT\000"
 3925      4E5400
 3926              	.LASF145:
 3927 065b 46494F4D 		.ascii	"FIOMASKL\000"
 3927      41534B4C 
ARM GAS  /tmp/ccqg3FOh.s 			page 75


 3927      00
 3928              	.LASF108:
 3929 0664 63685F74 		.ascii	"ch_timesize\000"
 3929      696D6573 
 3929      697A6500 
 3930              	.LASF255:
 3931 0670 68616C50 		.ascii	"halPolledDelay\000"
 3931      6F6C6C65 
 3931      6444656C 
 3931      617900
 3932              	.LASF58:
 3933 067f 494F5245 		.ascii	"IOREG32\000"
 3933      47333200 
 3934              	.LASF167:
 3935 0687 46494F43 		.ascii	"FIOCLRH\000"
 3935      4C524800 
 3936              	.LASF166:
 3937 068f 46494F43 		.ascii	"FIOCLRL\000"
 3937      4C524C00 
 3938              	.LASF263:
 3939 0697 474E5520 		.ascii	"GNU C11 6.3.1 20170620 -mcpu=cortex-m3 -mno-thumb-i"
 3939      43313120 
 3939      362E332E 
 3939      31203230 
 3939      31373036 
 3940 06ca 6E746572 		.ascii	"nterwork -mthumb -ggdb -O2 -fomit-frame-pointer -ff"
 3940      776F726B 
 3940      202D6D74 
 3940      68756D62 
 3940      202D6767 
 3941 06fd 756E6374 		.ascii	"unction-sections -fdata-sections -fno-common\000"
 3941      696F6E2D 
 3941      73656374 
 3941      696F6E73 
 3941      202D6664 
 3942              	.LASF53:
 3943 072a 54687265 		.ascii	"ThreadsList\000"
 3943      6164734C 
 3943      69737400 
 3944              	.LASF30:
 3945 0736 666C6167 		.ascii	"flagsmask_t\000"
 3945      736D6173 
 3945      6B5F7400 
 3946              	.LASF44:
 3947 0742 705F7469 		.ascii	"p_time\000"
 3947      6D6500
 3948              	.LASF144:
 3949 0749 46494F44 		.ascii	"FIODIR\000"
 3949      495200
 3950              	.LASF118:
 3951 0750 63665F6F 		.ascii	"cf_off_refs\000"
 3951      66665F72 
 3951      65667300 
 3952              	.LASF177:
 3953 075c 4C50435F 		.ascii	"LPC_TIM_TypeDef\000"
 3953      54494D5F 
 3953      54797065 
ARM GAS  /tmp/ccqg3FOh.s 			page 76


 3953      44656600 
 3954              	.LASF172:
 3955 076c 46494F43 		.ascii	"FIOCLR\000"
 3955      4C5200
 3956              	.LASF2:
 3957 0773 6C6F6E67 		.ascii	"long double\000"
 3957      20646F75 
 3957      626C6500 
 3958              	.LASF50:
 3959 077f 705F7265 		.ascii	"p_realprio\000"
 3959      616C7072 
 3959      696F00
 3960              	.LASF120:
 3961 078a 63665F6F 		.ascii	"cf_off_time\000"
 3961      66665F74 
 3961      696D6500 
 3962              	.LASF265:
 3963 0796 2F686F6D 		.ascii	"/home/ekobayu/Arok-Gandring-Lokajaya/LPC/ChibiOS-RT"
 3963      652F656B 
 3963      6F626179 
 3963      752F4172 
 3963      6F6B2D47 
 3964 07c9 2D4C5043 		.ascii	"-LPC/demos/LPC1766\000"
 3964      2F64656D 
 3964      6F732F4C 
 3964      50433137 
 3964      363600
 3965              	.LASF15:
 3966 07dc 6C6F6E67 		.ascii	"long long unsigned int\000"
 3966      206C6F6E 
 3966      6720756E 
 3966      7369676E 
 3966      65642069 
 3967              	.LASF38:
 3968 07f3 705F6F6C 		.ascii	"p_older\000"
 3968      64657200 
 3969              	.LASF17:
 3970 07fb 75696E74 		.ascii	"uint16_t\000"
 3970      31365F74 
 3970      00
 3971              	.LASF28:
 3972 0804 6D73675F 		.ascii	"msg_t\000"
 3972      7400
 3973              	.LASF158:
 3974 080a 46494F50 		.ascii	"FIOPIN\000"
 3974      494E00
 3975              	.LASF117:
 3976 0811 63665F6F 		.ascii	"cf_off_flags\000"
 3976      66665F66 
 3976      6C616773 
 3976      00
 3977              	.LASF26:
 3978 081e 74736C69 		.ascii	"tslices_t\000"
 3978      6365735F 
 3978      7400
 3979              	.LASF199:
 3980 0828 4750545F 		.ascii	"GPT_READY\000"
ARM GAS  /tmp/ccqg3FOh.s 			page 77


 3980      52454144 
 3980      5900
 3981              	.LASF200:
 3982 0832 4750545F 		.ascii	"GPT_CONTINUOUS\000"
 3982      434F4E54 
 3982      494E554F 
 3982      555300
 3983              	.LASF83:
 3984 0841 725F6375 		.ascii	"r_current\000"
 3984      7272656E 
 3984      7400
 3985              	.LASF77:
 3986 084b 56544C69 		.ascii	"VTList\000"
 3986      737400
 3987              	.LASF179:
 3988 0852 4C50435F 		.ascii	"LPC_UART_TypeDef\000"
 3988      55415254 
 3988      5F547970 
 3988      65446566 
 3988      00
 3989              	.LASF67:
 3990 0863 50435352 		.ascii	"PCSR\000"
 3990      00
 3991              	.LASF186:
 3992 0868 434C4C49 		.ascii	"CLLI\000"
 3992      00
 3993              	.LASF78:
 3994 086d 725F7175 		.ascii	"r_queue\000"
 3994      65756500 
 3995              	.LASF220:
 3996 0875 53657269 		.ascii	"SerialDriver\000"
 3996      616C4472 
 3996      69766572 
 3996      00
 3997              	.LASF124:
 3998 0882 715F7761 		.ascii	"q_waiting\000"
 3998      6974696E 
 3998      6700
 3999              	.LASF86:
 4000 088c 726C6973 		.ascii	"rlist\000"
 4000      7400
 4001              	.LASF23:
 4002 0892 746D6F64 		.ascii	"tmode_t\000"
 4002      655F7400 
 4003              	.LASF219:
 4004 089a 73647374 		.ascii	"sdstate_t\000"
 4004      6174655F 
 4004      7400
 4005              	.LASF180:
 4006 08a4 43505352 		.ascii	"CPSR\000"
 4006      00
 4007              	.LASF76:
 4008 08a9 76745F73 		.ascii	"vt_systime\000"
 4008      79737469 
 4008      6D6500
 4009              	.LASF218:
 4010 08b4 53445F52 		.ascii	"SD_READY\000"
ARM GAS  /tmp/ccqg3FOh.s 			page 78


 4010      45414459 
 4010      00
 4011              	.LASF190:
 4012 08bd 68616C72 		.ascii	"halrtcnt_t\000"
 4012      74636E74 
 4012      5F7400
 4013              	.LASF82:
 4014 08c8 725F6F6C 		.ascii	"r_older\000"
 4014      64657200 
 4015              	.LASF239:
 4016 08d0 74687265 		.ascii	"thread\000"
 4016      616400
 4017              	.LASF7:
 4018 08d7 73686F72 		.ascii	"short int\000"
 4018      7420696E 
 4018      7400
 4019              	.LASF20:
 4020 08e1 75696E74 		.ascii	"uint64_t\000"
 4020      36345F74 
 4020      00
 4021              	.LASF264:
 4022 08ea 2E2E2F2E 		.ascii	"../../os/hal/src/hal.c\000"
 4022      2E2F6F73 
 4022      2F68616C 
 4022      2F737263 
 4022      2F68616C 
 4023              	.LASF224:
 4024 0901 75617274 		.ascii	"uart\000"
 4024      00
 4025              	.LASF222:
 4026 0906 69717565 		.ascii	"iqueue\000"
 4026      756500
 4027              	.LASF79:
 4028 090d 725F7072 		.ascii	"r_prio\000"
 4028      696F00
 4029              	.LASF262:
 4030 0914 626F6172 		.ascii	"boardInit\000"
 4030      64496E69 
 4030      7400
 4031              	.LASF193:
 4032 091e 6C706331 		.ascii	"lpc17xx_gpio_setup_t\000"
 4032      3778785F 
 4032      6770696F 
 4032      5F736574 
 4032      75705F74 
 4033              	.LASF21:
 4034 0933 626F6F6C 		.ascii	"bool_t\000"
 4034      5F7400
 4035              	.LASF113:
 4036 093a 63665F6F 		.ascii	"cf_off_older\000"
 4036      66665F6F 
 4036      6C646572 
 4036      00
 4037              	.LASF194:
 4038 0947 50414C43 		.ascii	"PALConfig\000"
 4038      6F6E6669 
 4038      6700
ARM GAS  /tmp/ccqg3FOh.s 			page 79


 4039              	.LASF32:
 4040 0951 54687265 		.ascii	"Thread\000"
 4040      616400
 4041              	.LASF85:
 4042 0958 76746C69 		.ascii	"vtlist\000"
 4042      737400
 4043              	.LASF188:
 4044 095f 43436F6E 		.ascii	"CConfig\000"
 4044      66696700 
 4045              	.LASF61:
 4046 0967 43594343 		.ascii	"CYCCNT\000"
 4046      4E5400
 4047              	.LASF266:
 4048 096e 7469636B 		.ascii	"ticks\000"
 4048      7300
 4049              	.LASF25:
 4050 0974 74726566 		.ascii	"trefs_t\000"
 4050      735F7400 
 4051              	.LASF135:
 4052 097c 5F69646C 		.ascii	"_idle_thread_wa\000"
 4052      655F7468 
 4052      72656164 
 4052      5F776100 
 4053              	.LASF91:
 4054 098c 4576656E 		.ascii	"EventListener\000"
 4054      744C6973 
 4054      74656E65 
 4054      7200
 4055              	.LASF19:
 4056 099a 75696E74 		.ascii	"uint32_t\000"
 4056      33325F74 
 4056      00
 4057              	.LASF70:
 4058 09a3 56697274 		.ascii	"VirtualTimer\000"
 4058      75616C54 
 4058      696D6572 
 4058      00
 4059              	.LASF52:
 4060 09b0 54687265 		.ascii	"ThreadsQueue\000"
 4060      61647351 
 4060      75657565 
 4060      00
 4061              	.LASF236:
 4062 09bd 5350495F 		.ascii	"SPI_COMPLETE\000"
 4062      434F4D50 
 4062      4C455445 
 4062      00
 4063              	.LASF174:
 4064 09ca 4C50435F 		.ascii	"LPC_GPIO_TypeDef\000"
 4064      4750494F 
 4064      5F547970 
 4064      65446566 
 4064      00
 4065              	.LASF98:
 4066 09db 7264796D 		.ascii	"rdymsg\000"
 4066      736700
 4067              	.LASF198:
ARM GAS  /tmp/ccqg3FOh.s 			page 80


 4068 09e2 4750545F 		.ascii	"GPT_STOP\000"
 4068      53544F50 
 4068      00
 4069              	.LASF9:
 4070 09eb 73686F72 		.ascii	"short unsigned int\000"
 4070      7420756E 
 4070      7369676E 
 4070      65642069 
 4070      6E7400
 4071              	.LASF121:
 4072 09fe 63686465 		.ascii	"chdebug_t\000"
 4072      6275675F 
 4072      7400
 4073              	.LASF237:
 4074 0a08 73706973 		.ascii	"spistate_t\000"
 4074      74617465 
 4074      5F7400
 4075              	.LASF133:
 4076 0a13 496E7075 		.ascii	"InputQueue\000"
 4076      74517565 
 4076      756500
 4077              	.LASF105:
 4078 0a1e 63685F73 		.ascii	"ch_size\000"
 4078      697A6500 
 4079              	.LASF10:
 4080 0a26 5F5F696E 		.ascii	"__int32_t\000"
 4080      7433325F 
 4080      7400
 4081              	.LASF217:
 4082 0a30 53445F53 		.ascii	"SD_STOP\000"
 4082      544F5000 
 4083              	.LASF66:
 4084 0a38 464F4C44 		.ascii	"FOLDCNT\000"
 4084      434E5400 
 4085              	.LASF94:
 4086 0a40 656C5F6D 		.ascii	"el_mask\000"
 4086      61736B00 
 4087              	.LASF84:
 4088 0a48 52656164 		.ascii	"ReadyList\000"
 4088      794C6973 
 4088      7400
 4089              	.LASF248:
 4090 0a52 73737061 		.ascii	"sspad\000"
 4090      6400
 4091              	.LASF164:
 4092 0a58 46494F53 		.ascii	"FIOSET3\000"
 4092      45543300 
 4093              	.LASF244:
 4094 0a60 74787074 		.ascii	"txptr\000"
 4094      7200
 4095              	.LASF39:
 4096 0a66 705F6E61 		.ascii	"p_name\000"
 4096      6D6500
 4097              	.LASF73:
 4098 0a6d 76745F74 		.ascii	"vt_time\000"
 4098      696D6500 
 4099              	.LASF192:
ARM GAS  /tmp/ccqg3FOh.s 			page 81


 4100 0a75 64617461 		.ascii	"data\000"
 4100      00
 4101              	.LASF90:
 4102 0a7a 6D5F6E65 		.ascii	"m_next\000"
 4102      787400
 4103              	.LASF207:
 4104 0a81 67707463 		.ascii	"gptcallback_t\000"
 4104      616C6C62 
 4104      61636B5F 
 4104      7400
 4105              	.LASF47:
 4106 0a8f 705F6D73 		.ascii	"p_msg\000"
 4106      6700
 4107              	.LASF93:
 4108 0a95 656C5F6C 		.ascii	"el_listener\000"
 4108      69737465 
 4108      6E657200 
 4109              	.LASF40:
 4110 0aa1 705F7374 		.ascii	"p_state\000"
 4110      61746500 
 4111              		.ident	"GCC: (15:6.3.1+svn253039-1build1) 6.3.1 20170620"
ARM GAS  /tmp/ccqg3FOh.s 			page 82


DEFINED SYMBOLS
                            *ABS*:0000000000000000 hal.c
     /tmp/ccqg3FOh.s:16     .text.halInit:0000000000000000 $t
     /tmp/ccqg3FOh.s:24     .text.halInit:0000000000000000 halInit
     /tmp/ccqg3FOh.s:62     .text.halInit:0000000000000020 $d
     /tmp/ccqg3FOh.s:67     .text.halIsCounterWithin:0000000000000000 $t
     /tmp/ccqg3FOh.s:75     .text.halIsCounterWithin:0000000000000000 halIsCounterWithin
     /tmp/ccqg3FOh.s:120    .text.halIsCounterWithin:0000000000000024 $d
     /tmp/ccqg3FOh.s:125    .text.halPolledDelay:0000000000000000 $t
     /tmp/ccqg3FOh.s:133    .text.halPolledDelay:0000000000000000 halPolledDelay
     /tmp/ccqg3FOh.s:191    .text.halPolledDelay:0000000000000024 $d
                     .debug_frame:0000000000000010 $d

UNDEFINED SYMBOLS
hal_lld_init
_pal_lld_init
gptInit
sdInit
spiInit
boardInit
pal_default_config
