ARM GAS  /tmp/ccqg3FOh.s 			page 1


   1              		.cpu cortex-m3
   2              		.eabi_attribute 20, 1
   3              		.eabi_attribute 21, 1
   4              		.eabi_attribute 23, 3
   5              		.eabi_attribute 24, 1
   6              		.eabi_attribute 25, 1
   7              		.eabi_attribute 26, 1
   8              		.eabi_attribute 30, 2
   9              		.eabi_attribute 34, 1
  10              		.eabi_attribute 18, 4
  11              		.file	"hal.c"
  12              		.text
  13              	.Ltext0:
  14              		.cfi_sections	.debug_frame
  15              		.section	.text.halInit,"ax",%progbits
  16              		.align	1
  17              		.p2align 2,,3
  18              		.global	halInit
  19              		.syntax unified
  20              		.thumb
  21              		.thumb_func
  22              		.fpu softvfp
  23              		.type	halInit, %function
  24              	halInit:
  25              	.LFB63:
  26              		.file 1 "../../os/hal/src/hal.c"
  27              		.loc 1 61 0
  28              		.cfi_startproc
  29              		@ args = 0, pretend = 0, frame = 0
  30              		@ frame_needed = 0, uses_anonymous_args = 0
  31 0000 08B5     		push	{r3, lr}
  32              		.cfi_def_cfa_offset 8
  33              		.cfi_offset 3, -8
  34              		.cfi_offset 14, -4
  35              		.loc 1 63 0
  36 0002 FFF7FEFF 		bl	hal_lld_init
  37              	.LVL0:
  38              		.loc 1 69 0
  39 0006 0648     		ldr	r0, .L3
  40 0008 FFF7FEFF 		bl	_pal_lld_init
  41              	.LVL1:
  42              		.loc 1 84 0
  43 000c FFF7FEFF 		bl	gptInit
  44              	.LVL2:
  45              		.loc 1 99 0
  46 0010 FFF7FEFF 		bl	sdInit
  47              	.LVL3:
  48              		.loc 1 105 0
  49 0014 FFF7FEFF 		bl	spiInit
  50              	.LVL4:
  51              		.loc 1 124 0
  52 0018 BDE80840 		pop	{r3, lr}
  53              		.cfi_restore 14
  54              		.cfi_restore 3
  55              		.cfi_def_cfa_offset 0
  56              		.loc 1 123 0
  57 001c FFF7FEBF 		b	boardInit
ARM GAS  /tmp/ccqg3FOh.s 			page 2


  58              	.LVL5:
  59              	.L4:
  60              		.align	2
  61              	.L3:
  62 0020 00000000 		.word	pal_default_config
  63              		.cfi_endproc
  64              	.LFE63:
  65              		.size	halInit, .-halInit
  66              		.section	.text.halIsCounterWithin,"ax",%progbits
  67              		.align	1
  68              		.p2align 2,,3
  69              		.global	halIsCounterWithin
  70              		.syntax unified
  71              		.thumb
  72              		.thumb_func
  73              		.fpu softvfp
  74              		.type	halIsCounterWithin, %function
  75              	halIsCounterWithin:
  76              	.LFB64:
  77              		.loc 1 170 0
  78              		.cfi_startproc
  79              		@ args = 0, pretend = 0, frame = 0
  80              		@ frame_needed = 0, uses_anonymous_args = 0
  81              		@ link register save eliminated.
  82              	.LVL6:
  83              		.loc 1 171 0
  84 0000 084B     		ldr	r3, .L15
  85              		.loc 1 173 0
  86 0002 8142     		cmp	r1, r0
  87              		.loc 1 171 0
  88 0004 5B68     		ldr	r3, [r3, #4]
  89              	.LVL7:
  90              		.loc 1 173 0
  91 0006 06D9     		bls	.L6
  92              		.loc 1 173 0 is_stmt 0 discriminator 1
  93 0008 8342     		cmp	r3, r0
  94 000a 08D3     		bcc	.L14
  95              	.L12:
  96              		.loc 1 174 0 is_stmt 1 discriminator 2
  97 000c 8B42     		cmp	r3, r1
  98 000e 2CBF     		ite	cs
  99 0010 0020     		movcs	r0, #0
 100              	.LVL8:
 101 0012 0120     		movcc	r0, #1
 102 0014 7047     		bx	lr
 103              	.LVL9:
 104              	.L6:
 105              		.loc 1 174 0 is_stmt 0
 106 0016 8342     		cmp	r3, r0
 107 0018 F8D3     		bcc	.L12
 108 001a 0120     		movs	r0, #1
 109              	.LVL10:
 110              		.loc 1 175 0 is_stmt 1
 111 001c 7047     		bx	lr
 112              	.LVL11:
 113              	.L14:
 114 001e 0020     		movs	r0, #0
ARM GAS  /tmp/ccqg3FOh.s 			page 3


 115              	.LVL12:
 116 0020 7047     		bx	lr
 117              	.L16:
 118 0022 00BF     		.align	2
 119              	.L15:
 120 0024 001000E0 		.word	-536866816
 121              		.cfi_endproc
 122              	.LFE64:
 123              		.size	halIsCounterWithin, .-halIsCounterWithin
 124              		.section	.text.halPolledDelay,"ax",%progbits
 125              		.align	1
 126              		.p2align 2,,3
 127              		.global	halPolledDelay
 128              		.syntax unified
 129              		.thumb
 130              		.thumb_func
 131              		.fpu softvfp
 132              		.type	halPolledDelay, %function
 133              	halPolledDelay:
 134              	.LFB65:
 135              		.loc 1 189 0
 136              		.cfi_startproc
 137              		@ args = 0, pretend = 0, frame = 0
 138              		@ frame_needed = 0, uses_anonymous_args = 0
 139              		@ link register save eliminated.
 140              	.LVL13:
 141              		.loc 1 190 0
 142 0000 084B     		ldr	r3, .L23
 143              	.LBB4:
 144              	.LBB5:
 145              		.loc 1 171 0
 146 0002 1946     		mov	r1, r3
 147              	.LBE5:
 148              	.LBE4:
 149              		.loc 1 190 0
 150 0004 5A68     		ldr	r2, [r3, #4]
 151              	.LVL14:
 152              		.loc 1 191 0
 153 0006 1044     		add	r0, r0, r2
 154              	.LVL15:
 155              	.L21:
 156              	.LBB8:
 157              	.LBB6:
 158              		.loc 1 173 0 discriminator 1
 159 0008 8242     		cmp	r2, r0
 160              		.loc 1 171 0 discriminator 1
 161 000a 4B68     		ldr	r3, [r1, #4]
 162              	.LVL16:
 163              		.loc 1 173 0 discriminator 1
 164 000c 02D2     		bcs	.L18
 165              		.loc 1 173 0 is_stmt 0
 166 000e 9A42     		cmp	r2, r3
 167 0010 05D9     		bls	.L22
 168 0012 7047     		bx	lr
 169              	.L18:
 170              	.LVL17:
 171              		.loc 1 174 0 is_stmt 1
ARM GAS  /tmp/ccqg3FOh.s 			page 4


 172 0014 9A42     		cmp	r2, r3
 173 0016 F7D9     		bls	.L21
 174              	.LBE6:
 175              	.LBE8:
 176              		.loc 1 192 0
 177 0018 9842     		cmp	r0, r3
 178 001a F5D8     		bhi	.L21
 179 001c 7047     		bx	lr
 180              	.LVL18:
 181              	.L22:
 182              	.LBB9:
 183              	.LBB7:
 184              		.loc 1 173 0
 185 001e 9842     		cmp	r0, r3
 186 0020 F2D8     		bhi	.L21
 187 0022 7047     		bx	lr
 188              	.L24:
 189              		.align	2
 190              	.L23:
 191 0024 001000E0 		.word	-536866816
 192              	.LBE7:
 193              	.LBE9:
 194              		.cfi_endproc
 195              	.LFE65:
 196              		.size	halPolledDelay, .-halPolledDelay
 197              		.text
 198              	.Letext0:
 199              		.file 2 "/usr/lib/gcc/arm-none-eabi/6.3.1/include/stddef.h"
 200              		.file 3 "/usr/include/newlib/machine/_default_types.h"
 201              		.file 4 "/usr/include/newlib/sys/_stdint.h"
 202              		.file 5 "../../os/ports/GCC/ARMCMx/chtypes.h"
 203              		.file 6 "../../os/kernel/include/chlists.h"
 204              		.file 7 "../../os/kernel/include/chthreads.h"
 205              		.file 8 "../../os/ports/GCC/ARMCMx/chcore_v7m.h"
 206              		.file 9 "../../os/ports/common/ARMCMx/nvic.h"
 207              		.file 10 "../../os/kernel/include/chvt.h"
 208              		.file 11 "../../os/kernel/include/chschd.h"
 209              		.file 12 "../../os/kernel/include/chmtx.h"
 210              		.file 13 "../../os/kernel/include/chevents.h"
 211              		.file 14 "../../os/kernel/include/chregistry.h"
 212              		.file 15 "../../os/kernel/include/chqueues.h"
 213              		.file 16 "../../os/kernel/include/ch.h"
 214              		.file 17 "../../os/ports/common/ARMCMx/CMSIS/include/core_cm3.h"
 215              		.file 18 "../../os/hal/platforms/LPC17xx/system_LPC17xx.h"
 216              		.file 19 "../../os/hal/platforms/LPC17xx/LPC17xx.h"
 217              		.file 20 "../../os/hal/platforms/LPC17xx/hal_lld.h"
 218              		.file 21 "../../os/hal/platforms/LPC17xx/lpc17xx_dma.h"
 219              		.file 22 "../../os/hal/platforms/LPC17xx/pal_lld.h"
 220              		.file 23 "../../os/hal/include/gpt.h"
 221              		.file 24 "../../os/hal/platforms/LPC17xx/gpt_lld.h"
 222              		.file 25 "../../os/hal/include/serial.h"
 223              		.file 26 "../../os/hal/platforms/LPC17xx/serial_lld.h"
 224              		.file 27 "../../os/hal/include/spi.h"
 225              		.file 28 "../../os/hal/platforms/LPC17xx/spi_lld.h"
 226              		.file 29 "../../boards/LPC1766/board.h"