ARM GAS  /tmp/ccQAqQtk.s 			page 1


   1              		.cpu cortex-m3
   2              		.eabi_attribute 20, 1
   3              		.eabi_attribute 21, 1
   4              		.eabi_attribute 23, 3
   5              		.eabi_attribute 24, 1
   6              		.eabi_attribute 25, 1
   7              		.eabi_attribute 26, 1
   8              		.eabi_attribute 30, 2
   9              		.eabi_attribute 34, 1
  10              		.eabi_attribute 18, 4
  11              		.file	"hal_lld.c"
  12              		.text
  13              	.Ltext0:
  14              		.cfi_sections	.debug_frame
  15              		.section	.text.hal_lld_init,"ax",%progbits
  16              		.align	1
  17              		.p2align 2,,3
  18              		.global	hal_lld_init
  19              		.syntax unified
  20              		.thumb
  21              		.thumb_func
  22              		.fpu softvfp
  23              		.type	hal_lld_init, %function
  24              	hal_lld_init:
  25              	.LFB63:
  26              		.file 1 "../../os/hal/platforms/LPC17xx/hal_lld.c"
  27              		.loc 1 58 0
  28              		.cfi_startproc
  29              		@ args = 0, pretend = 0, frame = 0
  30              		@ frame_needed = 0, uses_anonymous_args = 0
  31 0000 10B5     		push	{r4, lr}
  32              		.cfi_def_cfa_offset 8
  33              		.cfi_offset 4, -8
  34              		.cfi_offset 14, -4
  35              		.loc 1 61 0
  36 0002 0421     		movs	r1, #4
  37 0004 0B20     		movs	r0, #11
  38 0006 FFF7FEFF 		bl	nvicSetSystemHandlerPriority
  39              	.LVL0:
  40              		.loc 1 64 0
  41 000a 0722     		movs	r2, #7
  42              		.loc 1 63 0
  43 000c 0020     		movs	r0, #0
  44              		.loc 1 62 0
  45 000e 084B     		ldr	r3, .L3
  46 0010 084C     		ldr	r4, .L3+4
  47              		.loc 1 69 0
  48 0012 0949     		ldr	r1, .L3+8
  49              		.loc 1 62 0
  50 0014 5C60     		str	r4, [r3, #4]
  51              		.loc 1 63 0
  52 0016 9860     		str	r0, [r3, #8]
  53              		.loc 1 64 0
  54 0018 1A60     		str	r2, [r3]
  55              		.loc 1 69 0
  56 001a CB68     		ldr	r3, [r1, #12]
  57              		.loc 1 70 0
ARM GAS  /tmp/ccQAqQtk.s 			page 2


  58 001c 074A     		ldr	r2, .L3+12
  59              		.loc 1 69 0
  60 001e 43F08073 		orr	r3, r3, #16777216
  61 0022 CB60     		str	r3, [r1, #12]
  62              		.loc 1 70 0
  63 0024 1368     		ldr	r3, [r2]
  64 0026 43F00103 		orr	r3, r3, #1
  65 002a 1360     		str	r3, [r2]
  66 002c 10BD     		pop	{r4, pc}
  67              	.L4:
  68 002e 00BF     		.align	2
  69              	.L3:
  70 0030 10E000E0 		.word	-536813552
  71 0034 69810100 		.word	98665
  72 0038 F0ED00E0 		.word	-536810000
  73 003c 001000E0 		.word	-536866816
  74              		.cfi_endproc
  75              	.LFE63:
  76              		.size	hal_lld_init, .-hal_lld_init
  77              		.section	.text.LPC17xx_clock_init,"ax",%progbits
  78              		.align	1
  79              		.p2align 2,,3
  80              		.global	LPC17xx_clock_init
  81              		.syntax unified
  82              		.thumb
  83              		.thumb_func
  84              		.fpu softvfp
  85              		.type	LPC17xx_clock_init, %function
  86              	LPC17xx_clock_init:
  87              	.LFB64:
  88              		.loc 1 84 0
  89              		.cfi_startproc
  90              		@ args = 0, pretend = 0, frame = 0
  91              		@ frame_needed = 0, uses_anonymous_args = 0
  92              		.loc 1 87 0
  93 0000 1F4B     		ldr	r3, .L14
  94              		.loc 1 84 0
  95 0002 F0B5     		push	{r4, r5, r6, r7, lr}
  96              		.cfi_def_cfa_offset 20
  97              		.cfi_offset 4, -20
  98              		.cfi_offset 5, -16
  99              		.cfi_offset 6, -12
 100              		.cfi_offset 7, -8
 101              		.cfi_offset 14, -4
 102              		.loc 1 111 0
 103 0004 5520     		movs	r0, #85
 104              		.loc 1 110 0
 105 0006 AA24     		movs	r4, #170
 106              		.loc 1 102 0
 107 0008 4FF0020E 		mov	lr, #2
 108              		.loc 1 104 0
 109 000c 0027     		movs	r7, #0
 110              		.loc 1 109 0
 111 000e 2426     		movs	r6, #36
 112              		.loc 1 113 0
 113 0010 0125     		movs	r5, #1
 114              		.loc 1 116 0
ARM GAS  /tmp/ccQAqQtk.s 			page 3


 115 0012 1A46     		mov	r2, r3
 116              		.loc 1 87 0
 117 0014 1968     		ldr	r1, [r3]
 118              		.loc 1 99 0
 119 0016 DFF870C0 		ldr	ip, .L14+8
 120              		.loc 1 87 0
 121 001a 21F47041 		bic	r1, r1, #61440
 122 001e 41F48041 		orr	r1, r1, #16384
 123 0022 1960     		str	r1, [r3]
 124              		.loc 1 100 0
 125 0024 1749     		ldr	r1, .L14+4
 126              		.loc 1 99 0
 127 0026 C3F8A8C1 		str	ip, [r3, #424]
 128              		.loc 1 100 0
 129 002a C3F8AC11 		str	r1, [r3, #428]
 130              		.loc 1 102 0
 131 002e C3F804E1 		str	lr, [r3, #260]
 132              		.loc 1 104 0
 133 0032 C3F80C71 		str	r7, [r3, #268]
 134              		.loc 1 109 0
 135 0036 C3F88460 		str	r6, [r3, #132]
 136              		.loc 1 110 0
 137 003a C3F88C40 		str	r4, [r3, #140]
 138              		.loc 1 111 0
 139 003e C3F88C00 		str	r0, [r3, #140]
 140              		.loc 1 113 0
 141 0042 C3F88050 		str	r5, [r3, #128]
 142              		.loc 1 114 0
 143 0046 C3F88C40 		str	r4, [r3, #140]
 144              		.loc 1 115 0
 145 004a C3F88C00 		str	r0, [r3, #140]
 146              	.L6:
 147              		.loc 1 116 0 discriminator 1
 148 004e D2F88830 		ldr	r3, [r2, #136]
 149 0052 5B01     		lsls	r3, r3, #5
 150 0054 FBD5     		bpl	.L6
 151              		.loc 1 119 0
 152 0056 0324     		movs	r4, #3
 153              		.loc 1 120 0
 154 0058 AA20     		movs	r0, #170
 155              		.loc 1 121 0
 156 005a 5523     		movs	r3, #85
 157              		.loc 1 122 0
 158 005c 0849     		ldr	r1, .L14
 159              		.loc 1 119 0
 160 005e C2F88040 		str	r4, [r2, #128]
 161              		.loc 1 120 0
 162 0062 C2F88C00 		str	r0, [r2, #140]
 163              		.loc 1 121 0
 164 0066 C2F88C30 		str	r3, [r2, #140]
 165              	.L7:
 166              		.loc 1 122 0 discriminator 1
 167 006a D1F88830 		ldr	r3, [r1, #136]
 168 006e 13F0407F 		tst	r3, #50331648
 169 0072 FAD0     		beq	.L7
 170              		.loc 1 151 0
 171 0074 4FF40243 		mov	r3, #33280
ARM GAS  /tmp/ccQAqQtk.s 			page 4


 172 0078 C1F8C430 		str	r3, [r1, #196]
 173 007c F0BD     		pop	{r4, r5, r6, r7, pc}
 174              	.L15:
 175 007e 00BF     		.align	2
 176              	.L14:
 177 0080 00C00F40 		.word	1074774016
 178 0084 55545554 		.word	1414878293
 179 0088 55515155 		.word	1431392597
 180              		.cfi_endproc
 181              	.LFE64:
 182              		.size	LPC17xx_clock_init, .-LPC17xx_clock_init
 183              		.text
 184              	.Letext0:
 185              		.file 2 "/usr/lib/gcc/arm-none-eabi/6.3.1/include/stddef.h"
 186              		.file 3 "/usr/include/newlib/machine/_default_types.h"
 187              		.file 4 "/usr/include/newlib/sys/_stdint.h"
 188              		.file 5 "../../os/ports/GCC/ARMCMx/chtypes.h"
 189              		.file 6 "../../os/kernel/include/chlists.h"
 190              		.file 7 "../../os/kernel/include/chthreads.h"
 191              		.file 8 "../../os/ports/GCC/ARMCMx/chcore_v7m.h"
 192              		.file 9 "../../os/ports/common/ARMCMx/nvic.h"
 193              		.file 10 "../../os/kernel/include/chvt.h"
 194              		.file 11 "../../os/kernel/include/chschd.h"
 195              		.file 12 "../../os/kernel/include/chmtx.h"
 196              		.file 13 "../../os/kernel/include/chevents.h"
 197              		.file 14 "../../os/kernel/include/chregistry.h"
 198              		.file 15 "../../os/kernel/include/chqueues.h"
 199              		.file 16 "../../os/kernel/include/ch.h"
 200              		.file 17 "../../os/ports/common/ARMCMx/CMSIS/include/core_cm3.h"
 201              		.file 18 "../../os/hal/platforms/LPC17xx/system_LPC17xx.h"
 202              		.file 19 "../../os/hal/platforms/LPC17xx/LPC17xx.h"
 203              		.file 20 "../../os/hal/platforms/LPC17xx/lpc17xx_dma.h"
 204              		.file 21 "../../os/hal/platforms/LPC17xx/pal_lld.h"
 205              		.file 22 "../../os/hal/include/gpt.h"
 206              		.file 23 "../../os/hal/platforms/LPC17xx/gpt_lld.h"
 207              		.file 24 "../../os/hal/include/serial.h"
 208              		.file 25 "../../os/hal/platforms/LPC17xx/serial_lld.h"
 209              		.section	.debug_info,"",%progbits
 210              	.Ldebug_info0:
 211 0000 AC110000 		.4byte	0x11ac
 212 0004 0400     		.2byte	0x4
 213 0006 00000000 		.4byte	.Ldebug_abbrev0
 214 000a 04       		.byte	0x4
 215 000b 01       		.uleb128 0x1
 216 000c BC050000 		.4byte	.LASF230
 217 0010 0C       		.byte	0xc
 218 0011 61050000 		.4byte	.LASF231
 219 0015 E8060000 		.4byte	.LASF232
 220 0019 00000000 		.4byte	.Ldebug_ranges0+0
 221 001d 00000000 		.4byte	0
 222 0021 00000000 		.4byte	.Ldebug_line0
 223 0025 02       		.uleb128 0x2
 224 0026 04       		.byte	0x4
 225 0027 05       		.byte	0x5
 226 0028 696E7400 		.ascii	"int\000"
 227 002c 03       		.uleb128 0x3
 228 002d 00000000 		.4byte	.LASF4
ARM GAS  /tmp/ccQAqQtk.s 			page 5


 229 0031 02       		.byte	0x2
 230 0032 D8       		.byte	0xd8
 231 0033 37000000 		.4byte	0x37
 232 0037 04       		.uleb128 0x4
 233 0038 04       		.byte	0x4
 234 0039 07       		.byte	0x7
 235 003a 4F050000 		.4byte	.LASF0
 236 003e 04       		.uleb128 0x4
 237 003f 08       		.byte	0x8
 238 0040 05       		.byte	0x5
 239 0041 C3040000 		.4byte	.LASF1
 240 0045 04       		.uleb128 0x4
 241 0046 08       		.byte	0x8
 242 0047 04       		.byte	0x4
 243 0048 B9060000 		.4byte	.LASF2
 244 004c 04       		.uleb128 0x4
 245 004d 01       		.byte	0x1
 246 004e 06       		.byte	0x6
 247 004f FB010000 		.4byte	.LASF3
 248 0053 03       		.uleb128 0x3
 249 0054 23010000 		.4byte	.LASF5
 250 0058 03       		.byte	0x3
 251 0059 1D       		.byte	0x1d
 252 005a 5E000000 		.4byte	0x5e
 253 005e 04       		.uleb128 0x4
 254 005f 01       		.byte	0x1
 255 0060 08       		.byte	0x8
 256 0061 57020000 		.4byte	.LASF6
 257 0065 04       		.uleb128 0x4
 258 0066 02       		.byte	0x2
 259 0067 05       		.byte	0x5
 260 0068 34080000 		.4byte	.LASF7
 261 006c 03       		.uleb128 0x3
 262 006d 03030000 		.4byte	.LASF8
 263 0071 03       		.byte	0x3
 264 0072 2B       		.byte	0x2b
 265 0073 77000000 		.4byte	0x77
 266 0077 04       		.uleb128 0x4
 267 0078 02       		.byte	0x2
 268 0079 07       		.byte	0x7
 269 007a 19090000 		.4byte	.LASF9
 270 007e 03       		.uleb128 0x3
 271 007f 5E090000 		.4byte	.LASF10
 272 0083 03       		.byte	0x3
 273 0084 3F       		.byte	0x3f
 274 0085 89000000 		.4byte	0x89
 275 0089 04       		.uleb128 0x4
 276 008a 04       		.byte	0x4
 277 008b 05       		.byte	0x5
 278 008c 7B010000 		.4byte	.LASF11
 279 0090 03       		.uleb128 0x3
 280 0091 B2040000 		.4byte	.LASF12
 281 0095 03       		.byte	0x3
 282 0096 41       		.byte	0x41
 283 0097 9B000000 		.4byte	0x9b
 284 009b 04       		.uleb128 0x4
 285 009c 04       		.byte	0x4
ARM GAS  /tmp/ccQAqQtk.s 			page 6


 286 009d 07       		.byte	0x7
 287 009e DB030000 		.4byte	.LASF13
 288 00a2 03       		.uleb128 0x3
 289 00a3 D0030000 		.4byte	.LASF14
 290 00a7 03       		.byte	0x3
 291 00a8 5B       		.byte	0x5b
 292 00a9 AD000000 		.4byte	0xad
 293 00ad 04       		.uleb128 0x4
 294 00ae 08       		.byte	0x8
 295 00af 07       		.byte	0x7
 296 00b0 2E070000 		.4byte	.LASF15
 297 00b4 03       		.uleb128 0x3
 298 00b5 11020000 		.4byte	.LASF16
 299 00b9 04       		.byte	0x4
 300 00ba 18       		.byte	0x18
 301 00bb 53000000 		.4byte	0x53
 302 00bf 05       		.uleb128 0x5
 303 00c0 B4000000 		.4byte	0xb4
 304 00c4 03       		.uleb128 0x3
 305 00c5 4D070000 		.4byte	.LASF17
 306 00c9 04       		.byte	0x4
 307 00ca 24       		.byte	0x24
 308 00cb 6C000000 		.4byte	0x6c
 309 00cf 03       		.uleb128 0x3
 310 00d0 74000000 		.4byte	.LASF18
 311 00d4 04       		.byte	0x4
 312 00d5 2C       		.byte	0x2c
 313 00d6 7E000000 		.4byte	0x7e
 314 00da 06       		.uleb128 0x6
 315 00db CF000000 		.4byte	0xcf
 316 00df 03       		.uleb128 0x3
 317 00e0 E6080000 		.4byte	.LASF19
 318 00e4 04       		.byte	0x4
 319 00e5 30       		.byte	0x30
 320 00e6 90000000 		.4byte	0x90
 321 00ea 06       		.uleb128 0x6
 322 00eb DF000000 		.4byte	0xdf
 323 00ef 05       		.uleb128 0x5
 324 00f0 EA000000 		.4byte	0xea
 325 00f4 03       		.uleb128 0x3
 326 00f5 3E080000 		.4byte	.LASF20
 327 00f9 04       		.byte	0x4
 328 00fa 3C       		.byte	0x3c
 329 00fb A2000000 		.4byte	0xa2
 330 00ff 04       		.uleb128 0x4
 331 0100 01       		.byte	0x1
 332 0101 02       		.byte	0x2
 333 0102 C9020000 		.4byte	.LASF21
 334 0106 03       		.uleb128 0x3
 335 0107 FE070000 		.4byte	.LASF22
 336 010b 05       		.byte	0x5
 337 010c 25       		.byte	0x25
 338 010d B4000000 		.4byte	0xb4
 339 0111 03       		.uleb128 0x3
 340 0112 C5010000 		.4byte	.LASF23
 341 0116 05       		.byte	0x5
 342 0117 26       		.byte	0x26
ARM GAS  /tmp/ccQAqQtk.s 			page 7


 343 0118 B4000000 		.4byte	0xb4
 344 011c 03       		.uleb128 0x3
 345 011d B0080000 		.4byte	.LASF24
 346 0121 05       		.byte	0x5
 347 0122 27       		.byte	0x27
 348 0123 B4000000 		.4byte	0xb4
 349 0127 03       		.uleb128 0x3
 350 0128 72070000 		.4byte	.LASF25
 351 012c 05       		.byte	0x5
 352 012d 28       		.byte	0x28
 353 012e B4000000 		.4byte	0xb4
 354 0132 03       		.uleb128 0x3
 355 0133 49000000 		.4byte	.LASF26
 356 0137 05       		.byte	0x5
 357 0138 29       		.byte	0x29
 358 0139 DF000000 		.4byte	0xdf
 359 013d 03       		.uleb128 0x3
 360 013e 56070000 		.4byte	.LASF27
 361 0142 05       		.byte	0x5
 362 0143 2A       		.byte	0x2a
 363 0144 CF000000 		.4byte	0xcf
 364 0148 03       		.uleb128 0x3
 365 0149 2F020000 		.4byte	.LASF28
 366 014d 05       		.byte	0x5
 367 014e 2C       		.byte	0x2c
 368 014f DF000000 		.4byte	0xdf
 369 0153 03       		.uleb128 0x3
 370 0154 60060000 		.4byte	.LASF29
 371 0158 05       		.byte	0x5
 372 0159 2D       		.byte	0x2d
 373 015a DF000000 		.4byte	0xdf
 374 015e 03       		.uleb128 0x3
 375 015f 1C000000 		.4byte	.LASF30
 376 0163 05       		.byte	0x5
 377 0164 2E       		.byte	0x2e
 378 0165 DF000000 		.4byte	0xdf
 379 0169 06       		.uleb128 0x6
 380 016a 5E010000 		.4byte	0x15e
 381 016e 03       		.uleb128 0x3
 382 016f 86080000 		.4byte	.LASF31
 383 0173 06       		.byte	0x6
 384 0174 23       		.byte	0x23
 385 0175 79010000 		.4byte	0x179
 386 0179 07       		.uleb128 0x7
 387 017a 86080000 		.4byte	.LASF31
 388 017e 48       		.byte	0x48
 389 017f 07       		.byte	0x7
 390 0180 57       		.byte	0x57
 391 0181 76020000 		.4byte	0x276
 392 0185 08       		.uleb128 0x8
 393 0186 84010000 		.4byte	.LASF32
 394 018a 07       		.byte	0x7
 395 018b 58       		.byte	0x58
 396 018c 97020000 		.4byte	0x297
 397 0190 00       		.byte	0
 398 0191 08       		.uleb128 0x8
 399 0192 A0010000 		.4byte	.LASF33
ARM GAS  /tmp/ccQAqQtk.s 			page 8


 400 0196 07       		.byte	0x7
 401 0197 5A       		.byte	0x5a
 402 0198 97020000 		.4byte	0x297
 403 019c 04       		.byte	0x4
 404 019d 08       		.uleb128 0x8
 405 019e FC020000 		.4byte	.LASF34
 406 01a2 07       		.byte	0x7
 407 01a3 5C       		.byte	0x5c
 408 01a4 32010000 		.4byte	0x132
 409 01a8 08       		.byte	0x8
 410 01a9 08       		.uleb128 0x8
 411 01aa 43000000 		.4byte	.LASF35
 412 01ae 07       		.byte	0x7
 413 01af 5D       		.byte	0x5d
 414 01b0 5C030000 		.4byte	0x35c
 415 01b4 0C       		.byte	0xc
 416 01b5 08       		.uleb128 0x8
 417 01b6 73010000 		.4byte	.LASF36
 418 01ba 07       		.byte	0x7
 419 01bb 5F       		.byte	0x5f
 420 01bc 97020000 		.4byte	0x297
 421 01c0 10       		.byte	0x10
 422 01c1 08       		.uleb128 0x8
 423 01c2 45070000 		.4byte	.LASF37
 424 01c6 07       		.byte	0x7
 425 01c7 60       		.byte	0x60
 426 01c8 97020000 		.4byte	0x297
 427 01cc 14       		.byte	0x14
 428 01cd 08       		.uleb128 0x8
 429 01ce 8A090000 		.4byte	.LASF38
 430 01d2 07       		.byte	0x7
 431 01d3 67       		.byte	0x67
 432 01d4 65060000 		.4byte	0x665
 433 01d8 18       		.byte	0x18
 434 01d9 08       		.uleb128 0x8
 435 01da C5090000 		.4byte	.LASF39
 436 01de 07       		.byte	0x7
 437 01df 72       		.byte	0x72
 438 01e0 11010000 		.4byte	0x111
 439 01e4 1C       		.byte	0x1c
 440 01e5 08       		.uleb128 0x8
 441 01e6 39050000 		.4byte	.LASF40
 442 01ea 07       		.byte	0x7
 443 01eb 76       		.byte	0x76
 444 01ec 06010000 		.4byte	0x106
 445 01f0 1D       		.byte	0x1d
 446 01f1 08       		.uleb128 0x8
 447 01f2 9A050000 		.4byte	.LASF41
 448 01f6 07       		.byte	0x7
 449 01f7 7B       		.byte	0x7b
 450 01f8 1C010000 		.4byte	0x11c
 451 01fc 1E       		.byte	0x1e
 452 01fd 08       		.uleb128 0x8
 453 01fe 07020000 		.4byte	.LASF42
 454 0202 07       		.byte	0x7
 455 0203 81       		.byte	0x81
 456 0204 27010000 		.4byte	0x127
ARM GAS  /tmp/ccQAqQtk.s 			page 9


 457 0208 1F       		.byte	0x1f
 458 0209 08       		.uleb128 0x8
 459 020a 7E060000 		.4byte	.LASF43
 460 020e 07       		.byte	0x7
 461 020f 88       		.byte	0x88
 462 0210 69010000 		.4byte	0x169
 463 0214 20       		.byte	0x20
 464 0215 09       		.uleb128 0x9
 465 0216 705F7500 		.ascii	"p_u\000"
 466 021a 07       		.byte	0x7
 467 021b AD       		.byte	0xad
 468 021c 30060000 		.4byte	0x630
 469 0220 24       		.byte	0x24
 470 0221 08       		.uleb128 0x8
 471 0222 29050000 		.4byte	.LASF44
 472 0226 07       		.byte	0x7
 473 0227 B2       		.byte	0xb2
 474 0228 BD020000 		.4byte	0x2bd
 475 022c 28       		.byte	0x28
 476 022d 08       		.uleb128 0x8
 477 022e 63000000 		.4byte	.LASF45
 478 0232 07       		.byte	0x7
 479 0233 B8       		.byte	0xb8
 480 0234 9D020000 		.4byte	0x29d
 481 0238 2C       		.byte	0x2c
 482 0239 08       		.uleb128 0x8
 483 023a B3090000 		.4byte	.LASF46
 484 023e 07       		.byte	0x7
 485 023f BC       		.byte	0xbc
 486 0240 3D010000 		.4byte	0x13d
 487 0244 34       		.byte	0x34
 488 0245 08       		.uleb128 0x8
 489 0246 76030000 		.4byte	.LASF47
 490 024a 07       		.byte	0x7
 491 024b C2       		.byte	0xc2
 492 024c 48010000 		.4byte	0x148
 493 0250 38       		.byte	0x38
 494 0251 08       		.uleb128 0x8
 495 0252 CE010000 		.4byte	.LASF48
 496 0256 07       		.byte	0x7
 497 0257 C9       		.byte	0xc9
 498 0258 77060000 		.4byte	0x677
 499 025c 3C       		.byte	0x3c
 500 025d 08       		.uleb128 0x8
 501 025e C5060000 		.4byte	.LASF49
 502 0262 07       		.byte	0x7
 503 0263 CD       		.byte	0xcd
 504 0264 32010000 		.4byte	0x132
 505 0268 40       		.byte	0x40
 506 0269 08       		.uleb128 0x8
 507 026a 8A050000 		.4byte	.LASF50
 508 026e 07       		.byte	0x7
 509 026f D3       		.byte	0xd3
 510 0270 D3020000 		.4byte	0x2d3
 511 0274 44       		.byte	0x44
 512 0275 00       		.byte	0
 513 0276 0A       		.uleb128 0xa
ARM GAS  /tmp/ccQAqQtk.s 			page 10


 514 0277 08       		.byte	0x8
 515 0278 06       		.byte	0x6
 516 0279 5A       		.byte	0x5a
 517 027a 97020000 		.4byte	0x297
 518 027e 08       		.uleb128 0x8
 519 027f 84010000 		.4byte	.LASF32
 520 0283 06       		.byte	0x6
 521 0284 5B       		.byte	0x5b
 522 0285 97020000 		.4byte	0x297
 523 0289 00       		.byte	0
 524 028a 08       		.uleb128 0x8
 525 028b A0010000 		.4byte	.LASF33
 526 028f 06       		.byte	0x6
 527 0290 5D       		.byte	0x5d
 528 0291 97020000 		.4byte	0x297
 529 0295 04       		.byte	0x4
 530 0296 00       		.byte	0
 531 0297 0B       		.uleb128 0xb
 532 0298 04       		.byte	0x4
 533 0299 6E010000 		.4byte	0x16e
 534 029d 03       		.uleb128 0x3
 535 029e FC080000 		.4byte	.LASF51
 536 02a2 06       		.byte	0x6
 537 02a3 5F       		.byte	0x5f
 538 02a4 76020000 		.4byte	0x276
 539 02a8 0A       		.uleb128 0xa
 540 02a9 04       		.byte	0x4
 541 02aa 06       		.byte	0x6
 542 02ab 64       		.byte	0x64
 543 02ac BD020000 		.4byte	0x2bd
 544 02b0 08       		.uleb128 0x8
 545 02b1 84010000 		.4byte	.LASF32
 546 02b5 06       		.byte	0x6
 547 02b6 66       		.byte	0x66
 548 02b7 97020000 		.4byte	0x297
 549 02bb 00       		.byte	0
 550 02bc 00       		.byte	0
 551 02bd 03       		.uleb128 0x3
 552 02be 4F060000 		.4byte	.LASF52
 553 02c2 06       		.byte	0x6
 554 02c3 69       		.byte	0x69
 555 02c4 A8020000 		.4byte	0x2a8
 556 02c8 03       		.uleb128 0x3
 557 02c9 DF010000 		.4byte	.LASF53
 558 02cd 08       		.byte	0x8
 559 02ce DE       		.byte	0xde
 560 02cf D3020000 		.4byte	0x2d3
 561 02d3 0C       		.uleb128 0xc
 562 02d4 04       		.byte	0x4
 563 02d5 03       		.uleb128 0x3
 564 02d6 44030000 		.4byte	.LASF54
 565 02da 08       		.byte	0x8
 566 02db E4       		.byte	0xe4
 567 02dc F4000000 		.4byte	0xf4
 568 02e0 0D       		.uleb128 0xd
 569 02e1 6F030000 		.4byte	.LASF55
 570 02e5 24       		.byte	0x24
ARM GAS  /tmp/ccQAqQtk.s 			page 11


 571 02e6 08       		.byte	0x8
 572 02e7 0501     		.2byte	0x105
 573 02e9 5C030000 		.4byte	0x35c
 574 02ed 0E       		.uleb128 0xe
 575 02ee 723400   		.ascii	"r4\000"
 576 02f1 08       		.byte	0x8
 577 02f2 1801     		.2byte	0x118
 578 02f4 C8020000 		.4byte	0x2c8
 579 02f8 00       		.byte	0
 580 02f9 0E       		.uleb128 0xe
 581 02fa 723500   		.ascii	"r5\000"
 582 02fd 08       		.byte	0x8
 583 02fe 1901     		.2byte	0x119
 584 0300 C8020000 		.4byte	0x2c8
 585 0304 04       		.byte	0x4
 586 0305 0E       		.uleb128 0xe
 587 0306 723600   		.ascii	"r6\000"
 588 0309 08       		.byte	0x8
 589 030a 1A01     		.2byte	0x11a
 590 030c C8020000 		.4byte	0x2c8
 591 0310 08       		.byte	0x8
 592 0311 0E       		.uleb128 0xe
 593 0312 723700   		.ascii	"r7\000"
 594 0315 08       		.byte	0x8
 595 0316 1B01     		.2byte	0x11b
 596 0318 C8020000 		.4byte	0x2c8
 597 031c 0C       		.byte	0xc
 598 031d 0E       		.uleb128 0xe
 599 031e 723800   		.ascii	"r8\000"
 600 0321 08       		.byte	0x8
 601 0322 1C01     		.2byte	0x11c
 602 0324 C8020000 		.4byte	0x2c8
 603 0328 10       		.byte	0x10
 604 0329 0E       		.uleb128 0xe
 605 032a 723900   		.ascii	"r9\000"
 606 032d 08       		.byte	0x8
 607 032e 1D01     		.2byte	0x11d
 608 0330 C8020000 		.4byte	0x2c8
 609 0334 14       		.byte	0x14
 610 0335 0E       		.uleb128 0xe
 611 0336 72313000 		.ascii	"r10\000"
 612 033a 08       		.byte	0x8
 613 033b 1E01     		.2byte	0x11e
 614 033d C8020000 		.4byte	0x2c8
 615 0341 18       		.byte	0x18
 616 0342 0E       		.uleb128 0xe
 617 0343 72313100 		.ascii	"r11\000"
 618 0347 08       		.byte	0x8
 619 0348 1F01     		.2byte	0x11f
 620 034a C8020000 		.4byte	0x2c8
 621 034e 1C       		.byte	0x1c
 622 034f 0E       		.uleb128 0xe
 623 0350 6C7200   		.ascii	"lr\000"
 624 0353 08       		.byte	0x8
 625 0354 2001     		.2byte	0x120
 626 0356 C8020000 		.4byte	0x2c8
 627 035a 20       		.byte	0x20
ARM GAS  /tmp/ccQAqQtk.s 			page 12


 628 035b 00       		.byte	0
 629 035c 0D       		.uleb128 0xd
 630 035d 3B020000 		.4byte	.LASF56
 631 0361 04       		.byte	0x4
 632 0362 08       		.byte	0x8
 633 0363 2A01     		.2byte	0x12a
 634 0365 77030000 		.4byte	0x377
 635 0369 0E       		.uleb128 0xe
 636 036a 72313300 		.ascii	"r13\000"
 637 036e 08       		.byte	0x8
 638 036f 2B01     		.2byte	0x12b
 639 0371 77030000 		.4byte	0x377
 640 0375 00       		.byte	0
 641 0376 00       		.byte	0
 642 0377 0B       		.uleb128 0xb
 643 0378 04       		.byte	0x4
 644 0379 E0020000 		.4byte	0x2e0
 645 037d 03       		.uleb128 0x3
 646 037e B4050000 		.4byte	.LASF57
 647 0382 09       		.byte	0x9
 648 0383 33       		.byte	0x33
 649 0384 EA000000 		.4byte	0xea
 650 0388 04       		.uleb128 0x4
 651 0389 04       		.byte	0x4
 652 038a 07       		.byte	0x7
 653 038b 07000000 		.4byte	.LASF58
 654 038f 0A       		.uleb128 0xa
 655 0390 10       		.byte	0x10
 656 0391 09       		.byte	0x9
 657 0392 EA       		.byte	0xea
 658 0393 C8030000 		.4byte	0x3c8
 659 0397 08       		.uleb128 0x8
 660 0398 DC060000 		.4byte	.LASF59
 661 039c 09       		.byte	0x9
 662 039d EB       		.byte	0xeb
 663 039e 7D030000 		.4byte	0x37d
 664 03a2 00       		.byte	0
 665 03a3 08       		.uleb128 0x8
 666 03a4 BF010000 		.4byte	.LASF60
 667 03a8 09       		.byte	0x9
 668 03a9 EC       		.byte	0xec
 669 03aa 7D030000 		.4byte	0x37d
 670 03ae 04       		.byte	0x4
 671 03af 08       		.uleb128 0x8
 672 03b0 E2060000 		.4byte	.LASF61
 673 03b4 09       		.byte	0x9
 674 03b5 ED       		.byte	0xed
 675 03b6 7D030000 		.4byte	0x37d
 676 03ba 08       		.byte	0x8
 677 03bb 08       		.uleb128 0x8
 678 03bc B3060000 		.4byte	.LASF62
 679 03c0 09       		.byte	0x9
 680 03c1 EE       		.byte	0xee
 681 03c2 7D030000 		.4byte	0x37d
 682 03c6 0C       		.byte	0xc
 683 03c7 00       		.byte	0
 684 03c8 03       		.uleb128 0x3
ARM GAS  /tmp/ccQAqQtk.s 			page 13


 685 03c9 2C090000 		.4byte	.LASF63
 686 03cd 09       		.byte	0x9
 687 03ce EF       		.byte	0xef
 688 03cf 8F030000 		.4byte	0x38f
 689 03d3 0A       		.uleb128 0xa
 690 03d4 20       		.byte	0x20
 691 03d5 09       		.byte	0x9
 692 03d6 FF       		.byte	0xff
 693 03d7 44040000 		.4byte	0x444
 694 03db 0F       		.uleb128 0xf
 695 03dc 5C050000 		.4byte	.LASF64
 696 03e0 09       		.byte	0x9
 697 03e1 0001     		.2byte	0x100
 698 03e3 7D030000 		.4byte	0x37d
 699 03e7 00       		.byte	0
 700 03e8 0F       		.uleb128 0xf
 701 03e9 A9080000 		.4byte	.LASF65
 702 03ed 09       		.byte	0x9
 703 03ee 0101     		.2byte	0x101
 704 03f0 7D030000 		.4byte	0x37d
 705 03f4 04       		.byte	0x4
 706 03f5 0F       		.uleb128 0xf
 707 03f6 2B030000 		.4byte	.LASF66
 708 03fa 09       		.byte	0x9
 709 03fb 0201     		.2byte	0x102
 710 03fd 7D030000 		.4byte	0x37d
 711 0401 08       		.byte	0x8
 712 0402 0F       		.uleb128 0xf
 713 0403 A1050000 		.4byte	.LASF67
 714 0407 09       		.byte	0x9
 715 0408 0301     		.2byte	0x103
 716 040a 7D030000 		.4byte	0x37d
 717 040e 0C       		.byte	0xc
 718 040f 0F       		.uleb128 0xf
 719 0410 19020000 		.4byte	.LASF68
 720 0414 09       		.byte	0x9
 721 0415 0401     		.2byte	0x104
 722 0417 7D030000 		.4byte	0x37d
 723 041b 10       		.byte	0x10
 724 041c 0F       		.uleb128 0xf
 725 041d B4030000 		.4byte	.LASF69
 726 0421 09       		.byte	0x9
 727 0422 0501     		.2byte	0x105
 728 0424 7D030000 		.4byte	0x37d
 729 0428 14       		.byte	0x14
 730 0429 0F       		.uleb128 0xf
 731 042a 70090000 		.4byte	.LASF70
 732 042e 09       		.byte	0x9
 733 042f 0601     		.2byte	0x106
 734 0431 7D030000 		.4byte	0x37d
 735 0435 18       		.byte	0x18
 736 0436 0F       		.uleb128 0xf
 737 0437 B7070000 		.4byte	.LASF71
 738 043b 09       		.byte	0x9
 739 043c 0701     		.2byte	0x107
 740 043e 7D030000 		.4byte	0x37d
 741 0442 1C       		.byte	0x1c
ARM GAS  /tmp/ccQAqQtk.s 			page 14


 742 0443 00       		.byte	0
 743 0444 10       		.uleb128 0x10
 744 0445 92050000 		.4byte	.LASF72
 745 0449 09       		.byte	0x9
 746 044a 0801     		.2byte	0x108
 747 044c D3030000 		.4byte	0x3d3
 748 0450 03       		.uleb128 0x3
 749 0451 96000000 		.4byte	.LASF73
 750 0455 0A       		.byte	0xa
 751 0456 51       		.byte	0x51
 752 0457 5B040000 		.4byte	0x45b
 753 045b 0B       		.uleb128 0xb
 754 045c 04       		.byte	0x4
 755 045d 61040000 		.4byte	0x461
 756 0461 11       		.uleb128 0x11
 757 0462 6C040000 		.4byte	0x46c
 758 0466 12       		.uleb128 0x12
 759 0467 D3020000 		.4byte	0x2d3
 760 046b 00       		.byte	0
 761 046c 03       		.uleb128 0x3
 762 046d EF080000 		.4byte	.LASF74
 763 0471 0A       		.byte	0xa
 764 0472 56       		.byte	0x56
 765 0473 77040000 		.4byte	0x477
 766 0477 07       		.uleb128 0x7
 767 0478 EF080000 		.4byte	.LASF74
 768 047c 14       		.byte	0x14
 769 047d 0A       		.byte	0xa
 770 047e 5D       		.byte	0x5d
 771 047f C0040000 		.4byte	0x4c0
 772 0483 08       		.uleb128 0x8
 773 0484 EE040000 		.4byte	.LASF75
 774 0488 0A       		.byte	0xa
 775 0489 5E       		.byte	0x5e
 776 048a C0040000 		.4byte	0x4c0
 777 048e 00       		.byte	0
 778 048f 08       		.uleb128 0x8
 779 0490 9E020000 		.4byte	.LASF76
 780 0494 0A       		.byte	0xa
 781 0495 60       		.byte	0x60
 782 0496 C0040000 		.4byte	0x4c0
 783 049a 04       		.byte	0x4
 784 049b 08       		.uleb128 0x8
 785 049c 91090000 		.4byte	.LASF77
 786 04a0 0A       		.byte	0xa
 787 04a1 62       		.byte	0x62
 788 04a2 5E010000 		.4byte	0x15e
 789 04a6 08       		.byte	0x8
 790 04a7 08       		.uleb128 0x8
 791 04a8 67030000 		.4byte	.LASF78
 792 04ac 0A       		.byte	0xa
 793 04ad 63       		.byte	0x63
 794 04ae 50040000 		.4byte	0x450
 795 04b2 0C       		.byte	0xc
 796 04b3 08       		.uleb128 0x8
 797 04b4 13010000 		.4byte	.LASF79
 798 04b8 0A       		.byte	0xa
ARM GAS  /tmp/ccQAqQtk.s 			page 15


 799 04b9 65       		.byte	0x65
 800 04ba D3020000 		.4byte	0x2d3
 801 04be 10       		.byte	0x10
 802 04bf 00       		.byte	0
 803 04c0 0B       		.uleb128 0xb
 804 04c1 04       		.byte	0x4
 805 04c2 6C040000 		.4byte	0x46c
 806 04c6 0A       		.uleb128 0xa
 807 04c7 10       		.byte	0x10
 808 04c8 0A       		.byte	0xa
 809 04c9 6F       		.byte	0x6f
 810 04ca FF040000 		.4byte	0x4ff
 811 04ce 08       		.uleb128 0x8
 812 04cf EE040000 		.4byte	.LASF75
 813 04d3 0A       		.byte	0xa
 814 04d4 70       		.byte	0x70
 815 04d5 C0040000 		.4byte	0x4c0
 816 04d9 00       		.byte	0
 817 04da 08       		.uleb128 0x8
 818 04db 9E020000 		.4byte	.LASF76
 819 04df 0A       		.byte	0xa
 820 04e0 72       		.byte	0x72
 821 04e1 C0040000 		.4byte	0x4c0
 822 04e5 04       		.byte	0x4
 823 04e6 08       		.uleb128 0x8
 824 04e7 91090000 		.4byte	.LASF77
 825 04eb 0A       		.byte	0xa
 826 04ec 74       		.byte	0x74
 827 04ed 5E010000 		.4byte	0x15e
 828 04f1 08       		.byte	0x8
 829 04f2 08       		.uleb128 0x8
 830 04f3 10080000 		.4byte	.LASF80
 831 04f7 0A       		.byte	0xa
 832 04f8 75       		.byte	0x75
 833 04f9 69010000 		.4byte	0x169
 834 04fd 0C       		.byte	0xc
 835 04fe 00       		.byte	0
 836 04ff 03       		.uleb128 0x3
 837 0500 9F070000 		.4byte	.LASF81
 838 0504 0A       		.byte	0xa
 839 0505 76       		.byte	0x76
 840 0506 C6040000 		.4byte	0x4c6
 841 050a 13       		.uleb128 0x13
 842 050b 9A080000 		.4byte	.LASF89
 843 050f 0A       		.byte	0xa
 844 0510 EE       		.byte	0xee
 845 0511 FF040000 		.4byte	0x4ff
 846 0515 0A       		.uleb128 0xa
 847 0516 1C       		.byte	0x1c
 848 0517 0B       		.byte	0xb
 849 0518 57       		.byte	0x57
 850 0519 66050000 		.4byte	0x566
 851 051d 08       		.uleb128 0x8
 852 051e C9070000 		.4byte	.LASF82
 853 0522 0B       		.byte	0xb
 854 0523 58       		.byte	0x58
 855 0524 9D020000 		.4byte	0x29d
ARM GAS  /tmp/ccQAqQtk.s 			page 16


 856 0528 00       		.byte	0
 857 0529 08       		.uleb128 0x8
 858 052a 53080000 		.4byte	.LASF83
 859 052e 0B       		.byte	0xb
 860 052f 59       		.byte	0x59
 861 0530 32010000 		.4byte	0x132
 862 0534 08       		.byte	0x8
 863 0535 08       		.uleb128 0x8
 864 0536 6E000000 		.4byte	.LASF84
 865 053a 0B       		.byte	0xb
 866 053b 5B       		.byte	0x5b
 867 053c 5C030000 		.4byte	0x35c
 868 0540 0C       		.byte	0xc
 869 0541 08       		.uleb128 0x8
 870 0542 B7020000 		.4byte	.LASF85
 871 0546 0B       		.byte	0xb
 872 0547 5E       		.byte	0x5e
 873 0548 97020000 		.4byte	0x297
 874 054c 10       		.byte	0x10
 875 054d 08       		.uleb128 0x8
 876 054e 24080000 		.4byte	.LASF86
 877 0552 0B       		.byte	0xb
 878 0553 5F       		.byte	0x5f
 879 0554 97020000 		.4byte	0x297
 880 0558 14       		.byte	0x14
 881 0559 08       		.uleb128 0x8
 882 055a 95070000 		.4byte	.LASF87
 883 055e 0B       		.byte	0xb
 884 055f 62       		.byte	0x62
 885 0560 97020000 		.4byte	0x297
 886 0564 18       		.byte	0x18
 887 0565 00       		.byte	0
 888 0566 03       		.uleb128 0x3
 889 0567 80090000 		.4byte	.LASF88
 890 056b 0B       		.byte	0xb
 891 056c 64       		.byte	0x64
 892 056d 15050000 		.4byte	0x515
 893 0571 13       		.uleb128 0x13
 894 0572 F8070000 		.4byte	.LASF90
 895 0576 0B       		.byte	0xb
 896 0577 68       		.byte	0x68
 897 0578 66050000 		.4byte	0x566
 898 057c 07       		.uleb128 0x7
 899 057d BD040000 		.4byte	.LASF91
 900 0581 10       		.byte	0x10
 901 0582 0C       		.byte	0xc
 902 0583 25       		.byte	0x25
 903 0584 AD050000 		.4byte	0x5ad
 904 0588 08       		.uleb128 0x8
 905 0589 DC040000 		.4byte	.LASF92
 906 058d 0C       		.byte	0xc
 907 058e 26       		.byte	0x26
 908 058f 9D020000 		.4byte	0x29d
 909 0593 00       		.byte	0
 910 0594 08       		.uleb128 0x8
 911 0595 0B010000 		.4byte	.LASF93
 912 0599 0C       		.byte	0xc
ARM GAS  /tmp/ccQAqQtk.s 			page 17


 913 059a 28       		.byte	0x28
 914 059b 97020000 		.4byte	0x297
 915 059f 08       		.byte	0x8
 916 05a0 08       		.uleb128 0x8
 917 05a1 9E090000 		.4byte	.LASF94
 918 05a5 0C       		.byte	0xc
 919 05a6 2A       		.byte	0x2a
 920 05a7 AD050000 		.4byte	0x5ad
 921 05ab 0C       		.byte	0xc
 922 05ac 00       		.byte	0
 923 05ad 0B       		.uleb128 0xb
 924 05ae 04       		.byte	0x4
 925 05af 7C050000 		.4byte	0x57c
 926 05b3 03       		.uleb128 0x3
 927 05b4 BD040000 		.4byte	.LASF91
 928 05b8 0C       		.byte	0xc
 929 05b9 2C       		.byte	0x2c
 930 05ba 7C050000 		.4byte	0x57c
 931 05be 03       		.uleb128 0x3
 932 05bf D8080000 		.4byte	.LASF95
 933 05c3 0D       		.byte	0xd
 934 05c4 25       		.byte	0x25
 935 05c5 C9050000 		.4byte	0x5c9
 936 05c9 07       		.uleb128 0x7
 937 05ca D8080000 		.4byte	.LASF95
 938 05ce 10       		.byte	0x10
 939 05cf 0D       		.byte	0xd
 940 05d0 2A       		.byte	0x2a
 941 05d1 06060000 		.4byte	0x606
 942 05d5 08       		.uleb128 0x8
 943 05d6 4B040000 		.4byte	.LASF96
 944 05da 0D       		.byte	0xd
 945 05db 2B       		.byte	0x2b
 946 05dc 06060000 		.4byte	0x606
 947 05e0 00       		.byte	0
 948 05e1 08       		.uleb128 0x8
 949 05e2 B9090000 		.4byte	.LASF97
 950 05e6 0D       		.byte	0xd
 951 05e7 2E       		.byte	0x2e
 952 05e8 97020000 		.4byte	0x297
 953 05ec 04       		.byte	0x4
 954 05ed 08       		.uleb128 0x8
 955 05ee 78090000 		.4byte	.LASF98
 956 05f2 0D       		.byte	0xd
 957 05f3 30       		.byte	0x30
 958 05f4 48010000 		.4byte	0x148
 959 05f8 08       		.byte	0x8
 960 05f9 08       		.uleb128 0x8
 961 05fa C8000000 		.4byte	.LASF99
 962 05fe 0D       		.byte	0xd
 963 05ff 33       		.byte	0x33
 964 0600 53010000 		.4byte	0x153
 965 0604 0C       		.byte	0xc
 966 0605 00       		.byte	0
 967 0606 0B       		.uleb128 0xb
 968 0607 04       		.byte	0x4
 969 0608 BE050000 		.4byte	0x5be
ARM GAS  /tmp/ccQAqQtk.s 			page 18


 970 060c 07       		.uleb128 0x7
 971 060d C4030000 		.4byte	.LASF100
 972 0611 04       		.byte	0x4
 973 0612 0D       		.byte	0xd
 974 0613 3A       		.byte	0x3a
 975 0614 25060000 		.4byte	0x625
 976 0618 08       		.uleb128 0x8
 977 0619 A2030000 		.4byte	.LASF101
 978 061d 0D       		.byte	0xd
 979 061e 3B       		.byte	0x3b
 980 061f 06060000 		.4byte	0x606
 981 0623 00       		.byte	0
 982 0624 00       		.byte	0
 983 0625 03       		.uleb128 0x3
 984 0626 C4030000 		.4byte	.LASF100
 985 062a 0D       		.byte	0xd
 986 062b 3E       		.byte	0x3e
 987 062c 0C060000 		.4byte	0x60c
 988 0630 14       		.uleb128 0x14
 989 0631 04       		.byte	0x4
 990 0632 07       		.byte	0x7
 991 0633 8F       		.byte	0x8f
 992 0634 65060000 		.4byte	0x665
 993 0638 15       		.uleb128 0x15
 994 0639 09090000 		.4byte	.LASF102
 995 063d 07       		.byte	0x7
 996 063e 96       		.byte	0x96
 997 063f 3D010000 		.4byte	0x13d
 998 0643 15       		.uleb128 0x15
 999 0644 1A010000 		.4byte	.LASF103
 1000 0648 07       		.byte	0x7
 1001 0649 9D       		.byte	0x9d
 1002 064a 3D010000 		.4byte	0x13d
 1003 064e 15       		.uleb128 0x15
 1004 064f 24030000 		.4byte	.LASF104
 1005 0653 07       		.byte	0x7
 1006 0654 A4       		.byte	0xa4
 1007 0655 D3020000 		.4byte	0x2d3
 1008 0659 15       		.uleb128 0x15
 1009 065a 3D010000 		.4byte	.LASF105
 1010 065e 07       		.byte	0x7
 1011 065f AB       		.byte	0xab
 1012 0660 48010000 		.4byte	0x148
 1013 0664 00       		.byte	0
 1014 0665 0B       		.uleb128 0xb
 1015 0666 04       		.byte	0x4
 1016 0667 72060000 		.4byte	0x672
 1017 066b 04       		.uleb128 0x4
 1018 066c 01       		.byte	0x1
 1019 066d 08       		.byte	0x8
 1020 066e EC020000 		.4byte	.LASF106
 1021 0672 05       		.uleb128 0x5
 1022 0673 6B060000 		.4byte	0x66b
 1023 0677 0B       		.uleb128 0xb
 1024 0678 04       		.byte	0x4
 1025 0679 B3050000 		.4byte	0x5b3
 1026 067d 0B       		.uleb128 0xb
ARM GAS  /tmp/ccQAqQtk.s 			page 19


 1027 067e 04       		.byte	0x4
 1028 067f 83060000 		.4byte	0x683
 1029 0683 16       		.uleb128 0x16
 1030 0684 3D010000 		.4byte	0x13d
 1031 0688 92060000 		.4byte	0x692
 1032 068c 12       		.uleb128 0x12
 1033 068d D3020000 		.4byte	0x2d3
 1034 0691 00       		.byte	0
 1035 0692 0A       		.uleb128 0xa
 1036 0693 16       		.byte	0x16
 1037 0694 0E       		.byte	0xe
 1038 0695 25       		.byte	0x25
 1039 0696 73070000 		.4byte	0x773
 1040 069a 08       		.uleb128 0x8
 1041 069b 26000000 		.4byte	.LASF107
 1042 069f 0E       		.byte	0xe
 1043 06a0 26       		.byte	0x26
 1044 06a1 73070000 		.4byte	0x773
 1045 06a5 00       		.byte	0
 1046 06a6 08       		.uleb128 0x8
 1047 06a7 ED030000 		.4byte	.LASF108
 1048 06ab 0E       		.byte	0xe
 1049 06ac 27       		.byte	0x27
 1050 06ad B4000000 		.4byte	0xb4
 1051 06b1 04       		.byte	0x4
 1052 06b2 08       		.uleb128 0x8
 1053 06b3 49090000 		.4byte	.LASF109
 1054 06b7 0E       		.byte	0xe
 1055 06b8 28       		.byte	0x28
 1056 06b9 B4000000 		.4byte	0xb4
 1057 06bd 05       		.byte	0x5
 1058 06be 08       		.uleb128 0x8
 1059 06bf D1040000 		.4byte	.LASF110
 1060 06c3 0E       		.byte	0xe
 1061 06c4 29       		.byte	0x29
 1062 06c5 C4000000 		.4byte	0xc4
 1063 06c9 06       		.byte	0x6
 1064 06ca 08       		.uleb128 0x8
 1065 06cb EE000000 		.4byte	.LASF111
 1066 06cf 0E       		.byte	0xe
 1067 06d0 2A       		.byte	0x2a
 1068 06d1 B4000000 		.4byte	0xb4
 1069 06d5 08       		.byte	0x8
 1070 06d6 08       		.uleb128 0x8
 1071 06d7 A8050000 		.4byte	.LASF112
 1072 06db 0E       		.byte	0xe
 1073 06dc 2B       		.byte	0x2b
 1074 06dd B4000000 		.4byte	0xb4
 1075 06e1 09       		.byte	0x9
 1076 06e2 08       		.uleb128 0x8
 1077 06e3 44010000 		.4byte	.LASF113
 1078 06e7 0E       		.byte	0xe
 1079 06e8 2C       		.byte	0x2c
 1080 06e9 B4000000 		.4byte	0xb4
 1081 06ed 0A       		.byte	0xa
 1082 06ee 08       		.uleb128 0x8
 1083 06ef 5B030000 		.4byte	.LASF114
ARM GAS  /tmp/ccQAqQtk.s 			page 20


 1084 06f3 0E       		.byte	0xe
 1085 06f4 2D       		.byte	0x2d
 1086 06f5 B4000000 		.4byte	0xb4
 1087 06f9 0B       		.byte	0xb
 1088 06fa 08       		.uleb128 0x8
 1089 06fb 83000000 		.4byte	.LASF115
 1090 06ff 0E       		.byte	0xe
 1091 0700 2E       		.byte	0x2e
 1092 0701 B4000000 		.4byte	0xb4
 1093 0705 0C       		.byte	0xc
 1094 0706 08       		.uleb128 0x8
 1095 0707 32030000 		.4byte	.LASF116
 1096 070b 0E       		.byte	0xe
 1097 070c 2F       		.byte	0x2f
 1098 070d B4000000 		.4byte	0xb4
 1099 0711 0D       		.byte	0xd
 1100 0712 08       		.uleb128 0x8
 1101 0713 6F080000 		.4byte	.LASF117
 1102 0717 0E       		.byte	0xe
 1103 0718 30       		.byte	0x30
 1104 0719 B4000000 		.4byte	0xb4
 1105 071d 0E       		.byte	0xe
 1106 071e 08       		.uleb128 0x8
 1107 071f 10000000 		.4byte	.LASF118
 1108 0723 0E       		.byte	0xe
 1109 0724 31       		.byte	0x31
 1110 0725 B4000000 		.4byte	0xb4
 1111 0729 0F       		.byte	0xf
 1112 072a 08       		.uleb128 0x8
 1113 072b C8080000 		.4byte	.LASF119
 1114 072f 0E       		.byte	0xe
 1115 0730 32       		.byte	0x32
 1116 0731 B4000000 		.4byte	0xb4
 1117 0735 10       		.byte	0x10
 1118 0736 08       		.uleb128 0x8
 1119 0737 93010000 		.4byte	.LASF120
 1120 073b 0E       		.byte	0xe
 1121 073c 34       		.byte	0x34
 1122 073d B4000000 		.4byte	0xb4
 1123 0741 11       		.byte	0x11
 1124 0742 08       		.uleb128 0x8
 1125 0743 5C070000 		.4byte	.LASF121
 1126 0747 0E       		.byte	0xe
 1127 0748 35       		.byte	0x35
 1128 0749 B4000000 		.4byte	0xb4
 1129 074d 12       		.byte	0x12
 1130 074e 08       		.uleb128 0x8
 1131 074f 85060000 		.4byte	.LASF122
 1132 0753 0E       		.byte	0xe
 1133 0754 36       		.byte	0x36
 1134 0755 B4000000 		.4byte	0xb4
 1135 0759 13       		.byte	0x13
 1136 075a 08       		.uleb128 0x8
 1137 075b A3040000 		.4byte	.LASF123
 1138 075f 0E       		.byte	0xe
 1139 0760 37       		.byte	0x37
 1140 0761 B4000000 		.4byte	0xb4
ARM GAS  /tmp/ccQAqQtk.s 			page 21


 1141 0765 14       		.byte	0x14
 1142 0766 08       		.uleb128 0x8
 1143 0767 D0060000 		.4byte	.LASF124
 1144 076b 0E       		.byte	0xe
 1145 076c 39       		.byte	0x39
 1146 076d B4000000 		.4byte	0xb4
 1147 0771 15       		.byte	0x15
 1148 0772 00       		.byte	0
 1149 0773 17       		.uleb128 0x17
 1150 0774 6B060000 		.4byte	0x66b
 1151 0778 83070000 		.4byte	0x783
 1152 077c 18       		.uleb128 0x18
 1153 077d 88030000 		.4byte	0x388
 1154 0781 03       		.byte	0x3
 1155 0782 00       		.byte	0
 1156 0783 03       		.uleb128 0x3
 1157 0784 34090000 		.4byte	.LASF125
 1158 0788 0E       		.byte	0xe
 1159 0789 3A       		.byte	0x3a
 1160 078a 92060000 		.4byte	0x692
 1161 078e 05       		.uleb128 0x5
 1162 078f 83070000 		.4byte	0x783
 1163 0793 13       		.uleb128 0x13
 1164 0794 51000000 		.4byte	.LASF126
 1165 0798 0E       		.byte	0xe
 1166 0799 77       		.byte	0x77
 1167 079a 8E070000 		.4byte	0x78e
 1168 079e 03       		.uleb128 0x3
 1169 079f 0E030000 		.4byte	.LASF127
 1170 07a3 0F       		.byte	0xf
 1171 07a4 30       		.byte	0x30
 1172 07a5 A9070000 		.4byte	0x7a9
 1173 07a9 07       		.uleb128 0x7
 1174 07aa 0E030000 		.4byte	.LASF127
 1175 07ae 24       		.byte	0x24
 1176 07af 0F       		.byte	0xf
 1177 07b0 3E       		.byte	0x3e
 1178 07b1 16080000 		.4byte	0x816
 1179 07b5 08       		.uleb128 0x8
 1180 07b6 EE070000 		.4byte	.LASF128
 1181 07ba 0F       		.byte	0xf
 1182 07bb 3F       		.byte	0x3f
 1183 07bc 9D020000 		.4byte	0x29d
 1184 07c0 00       		.byte	0
 1185 07c1 08       		.uleb128 0x8
 1186 07c2 AA030000 		.4byte	.LASF129
 1187 07c6 0F       		.byte	0xf
 1188 07c7 40       		.byte	0x40
 1189 07c8 2C000000 		.4byte	0x2c
 1190 07cc 08       		.byte	0x8
 1191 07cd 08       		.uleb128 0x8
 1192 07ce 58010000 		.4byte	.LASF130
 1193 07d2 0F       		.byte	0xf
 1194 07d3 41       		.byte	0x41
 1195 07d4 38080000 		.4byte	0x838
 1196 07d8 0C       		.byte	0xc
 1197 07d9 08       		.uleb128 0x8
ARM GAS  /tmp/ccQAqQtk.s 			page 22


 1198 07da 2D010000 		.4byte	.LASF131
 1199 07de 0F       		.byte	0xf
 1200 07df 42       		.byte	0x42
 1201 07e0 38080000 		.4byte	0x838
 1202 07e4 10       		.byte	0x10
 1203 07e5 08       		.uleb128 0x8
 1204 07e6 53040000 		.4byte	.LASF132
 1205 07ea 0F       		.byte	0xf
 1206 07eb 44       		.byte	0x44
 1207 07ec 38080000 		.4byte	0x838
 1208 07f0 14       		.byte	0x14
 1209 07f1 08       		.uleb128 0x8
 1210 07f2 8B010000 		.4byte	.LASF133
 1211 07f6 0F       		.byte	0xf
 1212 07f7 45       		.byte	0x45
 1213 07f8 38080000 		.4byte	0x838
 1214 07fc 18       		.byte	0x18
 1215 07fd 08       		.uleb128 0x8
 1216 07fe 6A010000 		.4byte	.LASF134
 1217 0802 0F       		.byte	0xf
 1218 0803 46       		.byte	0x46
 1219 0804 16080000 		.4byte	0x816
 1220 0808 1C       		.byte	0x1c
 1221 0809 08       		.uleb128 0x8
 1222 080a 79020000 		.4byte	.LASF135
 1223 080e 0F       		.byte	0xf
 1224 080f 47       		.byte	0x47
 1225 0810 D3020000 		.4byte	0x2d3
 1226 0814 20       		.byte	0x20
 1227 0815 00       		.byte	0
 1228 0816 03       		.uleb128 0x3
 1229 0817 13050000 		.4byte	.LASF136
 1230 081b 0F       		.byte	0xf
 1231 081c 33       		.byte	0x33
 1232 081d 21080000 		.4byte	0x821
 1233 0821 0B       		.uleb128 0xb
 1234 0822 04       		.byte	0x4
 1235 0823 27080000 		.4byte	0x827
 1236 0827 11       		.uleb128 0x11
 1237 0828 32080000 		.4byte	0x832
 1238 082c 12       		.uleb128 0x12
 1239 082d 32080000 		.4byte	0x832
 1240 0831 00       		.byte	0
 1241 0832 0B       		.uleb128 0xb
 1242 0833 04       		.byte	0x4
 1243 0834 9E070000 		.4byte	0x79e
 1244 0838 0B       		.uleb128 0xb
 1245 0839 04       		.byte	0x4
 1246 083a B4000000 		.4byte	0xb4
 1247 083e 03       		.uleb128 0x3
 1248 083f 3E090000 		.4byte	.LASF137
 1249 0843 0F       		.byte	0xf
 1250 0844 7B       		.byte	0x7b
 1251 0845 9E070000 		.4byte	0x79e
 1252 0849 03       		.uleb128 0x3
 1253 084a 4F030000 		.4byte	.LASF138
 1254 084e 0F       		.byte	0xf
ARM GAS  /tmp/ccQAqQtk.s 			page 23


 1255 084f EE       		.byte	0xee
 1256 0850 9E070000 		.4byte	0x79e
 1257 0854 16       		.uleb128 0x16
 1258 0855 2C000000 		.4byte	0x2c
 1259 0859 6D080000 		.4byte	0x86d
 1260 085d 12       		.uleb128 0x12
 1261 085e D3020000 		.4byte	0x2d3
 1262 0862 12       		.uleb128 0x12
 1263 0863 6D080000 		.4byte	0x86d
 1264 0867 12       		.uleb128 0x12
 1265 0868 2C000000 		.4byte	0x2c
 1266 086c 00       		.byte	0
 1267 086d 0B       		.uleb128 0xb
 1268 086e 04       		.byte	0x4
 1269 086f BF000000 		.4byte	0xbf
 1270 0873 0B       		.uleb128 0xb
 1271 0874 04       		.byte	0x4
 1272 0875 54080000 		.4byte	0x854
 1273 0879 16       		.uleb128 0x16
 1274 087a 2C000000 		.4byte	0x2c
 1275 087e 92080000 		.4byte	0x892
 1276 0882 12       		.uleb128 0x12
 1277 0883 D3020000 		.4byte	0x2d3
 1278 0887 12       		.uleb128 0x12
 1279 0888 38080000 		.4byte	0x838
 1280 088c 12       		.uleb128 0x12
 1281 088d 2C000000 		.4byte	0x2c
 1282 0891 00       		.byte	0
 1283 0892 0B       		.uleb128 0xb
 1284 0893 04       		.byte	0x4
 1285 0894 79080000 		.4byte	0x879
 1286 0898 16       		.uleb128 0x16
 1287 0899 3D010000 		.4byte	0x13d
 1288 089d AC080000 		.4byte	0x8ac
 1289 08a1 12       		.uleb128 0x12
 1290 08a2 D3020000 		.4byte	0x2d3
 1291 08a6 12       		.uleb128 0x12
 1292 08a7 B4000000 		.4byte	0xb4
 1293 08ab 00       		.byte	0
 1294 08ac 0B       		.uleb128 0xb
 1295 08ad 04       		.byte	0x4
 1296 08ae 98080000 		.4byte	0x898
 1297 08b2 17       		.uleb128 0x17
 1298 08b3 D5020000 		.4byte	0x2d5
 1299 08b7 C2080000 		.4byte	0x8c2
 1300 08bb 18       		.uleb128 0x18
 1301 08bc 88030000 		.4byte	0x388
 1302 08c0 17       		.byte	0x17
 1303 08c1 00       		.byte	0
 1304 08c2 13       		.uleb128 0x13
 1305 08c3 B8080000 		.4byte	.LASF139
 1306 08c7 10       		.byte	0x10
 1307 08c8 82       		.byte	0x82
 1308 08c9 B2080000 		.4byte	0x8b2
 1309 08cd 17       		.uleb128 0x17
 1310 08ce DF000000 		.4byte	0xdf
 1311 08d2 DD080000 		.4byte	0x8dd
ARM GAS  /tmp/ccQAqQtk.s 			page 24


 1312 08d6 18       		.uleb128 0x18
 1313 08d7 88030000 		.4byte	0x388
 1314 08db 00       		.byte	0
 1315 08dc 00       		.byte	0
 1316 08dd 19       		.uleb128 0x19
 1317 08de 10       		.byte	0x10
 1318 08df 11       		.byte	0x11
 1319 08e0 3F02     		.2byte	0x23f
 1320 08e2 1B090000 		.4byte	0x91b
 1321 08e6 0F       		.uleb128 0xf
 1322 08e7 5C050000 		.4byte	.LASF64
 1323 08eb 11       		.byte	0x11
 1324 08ec 4102     		.2byte	0x241
 1325 08ee EA000000 		.4byte	0xea
 1326 08f2 00       		.byte	0
 1327 08f3 0F       		.uleb128 0xf
 1328 08f4 FE040000 		.4byte	.LASF140
 1329 08f8 11       		.byte	0x11
 1330 08f9 4202     		.2byte	0x242
 1331 08fb EA000000 		.4byte	0xea
 1332 08ff 04       		.byte	0x4
 1333 0900 0E       		.uleb128 0xe
 1334 0901 56414C00 		.ascii	"VAL\000"
 1335 0905 11       		.byte	0x11
 1336 0906 4302     		.2byte	0x243
 1337 0908 EA000000 		.4byte	0xea
 1338 090c 08       		.byte	0x8
 1339 090d 0F       		.uleb128 0xf
 1340 090e DE070000 		.4byte	.LASF141
 1341 0912 11       		.byte	0x11
 1342 0913 4402     		.2byte	0x244
 1343 0915 EF000000 		.4byte	0xef
 1344 0919 0C       		.byte	0xc
 1345 091a 00       		.byte	0
 1346 091b 10       		.uleb128 0x10
 1347 091c A1060000 		.4byte	.LASF142
 1348 0920 11       		.byte	0x11
 1349 0921 4502     		.2byte	0x245
 1350 0923 DD080000 		.4byte	0x8dd
 1351 0927 17       		.uleb128 0x17
 1352 0928 DF000000 		.4byte	0xdf
 1353 092c 37090000 		.4byte	0x937
 1354 0930 18       		.uleb128 0x18
 1355 0931 88030000 		.4byte	0x388
 1356 0935 0E       		.byte	0xe
 1357 0936 00       		.byte	0
 1358 0937 17       		.uleb128 0x17
 1359 0938 DF000000 		.4byte	0xdf
 1360 093c 47090000 		.4byte	0x947
 1361 0940 18       		.uleb128 0x18
 1362 0941 88030000 		.4byte	0x388
 1363 0945 01       		.byte	0x1
 1364 0946 00       		.byte	0
 1365 0947 1A       		.uleb128 0x1a
 1366 0948 8D080000 		.4byte	.LASF143
 1367 094c 11       		.byte	0x11
 1368 094d 0706     		.2byte	0x607
ARM GAS  /tmp/ccQAqQtk.s 			page 25


 1369 094f DA000000 		.4byte	0xda
 1370 0953 13       		.uleb128 0x13
 1371 0954 08040000 		.4byte	.LASF144
 1372 0958 12       		.byte	0x12
 1373 0959 23       		.byte	0x23
 1374 095a DF000000 		.4byte	0xdf
 1375 095e 1B       		.uleb128 0x1b
 1376 095f CC01     		.2byte	0x1cc
 1377 0961 13       		.byte	0x13
 1378 0962 76       		.byte	0x76
 1379 0963 2D0B0000 		.4byte	0xb2d
 1380 0967 08       		.uleb128 0x8
 1381 0968 5A000000 		.4byte	.LASF145
 1382 096c 13       		.byte	0x13
 1383 096d 78       		.byte	0x78
 1384 096e EA000000 		.4byte	0xea
 1385 0972 00       		.byte	0
 1386 0973 08       		.uleb128 0x8
 1387 0974 43020000 		.4byte	.LASF146
 1388 0978 13       		.byte	0x13
 1389 0979 79       		.byte	0x79
 1390 097a 2D0B0000 		.4byte	0xb2d
 1391 097e 04       		.byte	0x4
 1392 097f 08       		.uleb128 0x8
 1393 0980 F6040000 		.4byte	.LASF147
 1394 0984 13       		.byte	0x13
 1395 0985 7A       		.byte	0x7a
 1396 0986 EA000000 		.4byte	0xea
 1397 098a 80       		.byte	0x80
 1398 098b 08       		.uleb128 0x8
 1399 098c A6020000 		.4byte	.LASF148
 1400 0990 13       		.byte	0x13
 1401 0991 7B       		.byte	0x7b
 1402 0992 EA000000 		.4byte	0xea
 1403 0996 84       		.byte	0x84
 1404 0997 08       		.uleb128 0x8
 1405 0998 69070000 		.4byte	.LASF149
 1406 099c 13       		.byte	0x13
 1407 099d 7C       		.byte	0x7c
 1408 099e EF000000 		.4byte	0xef
 1409 09a2 88       		.byte	0x88
 1410 09a3 08       		.uleb128 0x8
 1411 09a4 AE020000 		.4byte	.LASF150
 1412 09a8 13       		.byte	0x13
 1413 09a9 7D       		.byte	0x7d
 1414 09aa EA000000 		.4byte	0xea
 1415 09ae 8C       		.byte	0x8c
 1416 09af 08       		.uleb128 0x8
 1417 09b0 4D020000 		.4byte	.LASF151
 1418 09b4 13       		.byte	0x13
 1419 09b5 7E       		.byte	0x7e
 1420 09b6 3D0B0000 		.4byte	0xb3d
 1421 09ba 90       		.byte	0x90
 1422 09bb 08       		.uleb128 0x8
 1423 09bc 8E000000 		.4byte	.LASF152
 1424 09c0 13       		.byte	0x13
 1425 09c1 7F       		.byte	0x7f
ARM GAS  /tmp/ccQAqQtk.s 			page 26


 1426 09c2 EA000000 		.4byte	0xea
 1427 09c6 A0       		.byte	0xa0
 1428 09c7 08       		.uleb128 0x8
 1429 09c8 BC070000 		.4byte	.LASF153
 1430 09cc 13       		.byte	0x13
 1431 09cd 80       		.byte	0x80
 1432 09ce EA000000 		.4byte	0xea
 1433 09d2 A4       		.byte	0xa4
 1434 09d3 08       		.uleb128 0x8
 1435 09d4 46050000 		.4byte	.LASF154
 1436 09d8 13       		.byte	0x13
 1437 09d9 81       		.byte	0x81
 1438 09da EF000000 		.4byte	0xef
 1439 09de A8       		.byte	0xa8
 1440 09df 08       		.uleb128 0x8
 1441 09e0 F9000000 		.4byte	.LASF155
 1442 09e4 13       		.byte	0x13
 1443 09e5 82       		.byte	0x82
 1444 09e6 EA000000 		.4byte	0xea
 1445 09ea AC       		.byte	0xac
 1446 09eb 08       		.uleb128 0x8
 1447 09ec D8020000 		.4byte	.LASF156
 1448 09f0 13       		.byte	0x13
 1449 09f1 83       		.byte	0x83
 1450 09f2 3D0B0000 		.4byte	0xb3d
 1451 09f6 B0       		.byte	0xb0
 1452 09f7 08       		.uleb128 0x8
 1453 09f8 5B060000 		.4byte	.LASF157
 1454 09fc 13       		.byte	0x13
 1455 09fd 84       		.byte	0x84
 1456 09fe EA000000 		.4byte	0xea
 1457 0a02 C0       		.byte	0xc0
 1458 0a03 08       		.uleb128 0x8
 1459 0a04 03050000 		.4byte	.LASF158
 1460 0a08 13       		.byte	0x13
 1461 0a09 85       		.byte	0x85
 1462 0a0a EA000000 		.4byte	0xea
 1463 0a0e C4       		.byte	0xc4
 1464 0a0f 08       		.uleb128 0x8
 1465 0a10 65020000 		.4byte	.LASF159
 1466 0a14 13       		.byte	0x13
 1467 0a15 86       		.byte	0x86
 1468 0a16 27090000 		.4byte	0x927
 1469 0a1a C8       		.byte	0xc8
 1470 0a1b 1C       		.uleb128 0x1c
 1471 0a1c 88030000 		.4byte	.LASF160
 1472 0a20 13       		.byte	0x13
 1473 0a21 87       		.byte	0x87
 1474 0a22 EA000000 		.4byte	0xea
 1475 0a26 0401     		.2byte	0x104
 1476 0a28 1C       		.uleb128 0x1c
 1477 0a29 E4070000 		.4byte	.LASF161
 1478 0a2d 13       		.byte	0x13
 1479 0a2e 88       		.byte	0x88
 1480 0a2f EA000000 		.4byte	0xea
 1481 0a33 0801     		.2byte	0x108
 1482 0a35 1C       		.uleb128 0x1c
ARM GAS  /tmp/ccQAqQtk.s 			page 27


 1483 0a36 99040000 		.4byte	.LASF162
 1484 0a3a 13       		.byte	0x13
 1485 0a3b 89       		.byte	0x89
 1486 0a3c EA000000 		.4byte	0xea
 1487 0a40 0C01     		.2byte	0x10c
 1488 0a42 1C       		.uleb128 0x1c
 1489 0a43 3F040000 		.4byte	.LASF163
 1490 0a47 13       		.byte	0x13
 1491 0a48 8A       		.byte	0x8a
 1492 0a49 EA000000 		.4byte	0xea
 1493 0a4d 1001     		.2byte	0x110
 1494 0a4f 1C       		.uleb128 0x1c
 1495 0a50 51090000 		.4byte	.LASF164
 1496 0a54 13       		.byte	0x13
 1497 0a55 8B       		.byte	0x8b
 1498 0a56 EA000000 		.4byte	0xea
 1499 0a5a 1401     		.2byte	0x114
 1500 0a5c 1C       		.uleb128 0x1c
 1501 0a5d 6F020000 		.4byte	.LASF165
 1502 0a61 13       		.byte	0x13
 1503 0a62 8C       		.byte	0x8c
 1504 0a63 4D0B0000 		.4byte	0xb4d
 1505 0a67 1801     		.2byte	0x118
 1506 0a69 1C       		.uleb128 0x1c
 1507 0a6a 81030000 		.4byte	.LASF166
 1508 0a6e 13       		.byte	0x13
 1509 0a6f 8D       		.byte	0x8d
 1510 0a70 EA000000 		.4byte	0xea
 1511 0a74 4001     		.2byte	0x140
 1512 0a76 1C       		.uleb128 0x1c
 1513 0a77 E2020000 		.4byte	.LASF167
 1514 0a7b 13       		.byte	0x13
 1515 0a7c 8E       		.byte	0x8e
 1516 0a7d CD080000 		.4byte	0x8cd
 1517 0a81 4401     		.2byte	0x144
 1518 0a83 1C       		.uleb128 0x1c
 1519 0a84 2C080000 		.4byte	.LASF168
 1520 0a88 13       		.byte	0x13
 1521 0a89 8F       		.byte	0x8f
 1522 0a8a EA000000 		.4byte	0xea
 1523 0a8e 4801     		.2byte	0x148
 1524 0a90 1C       		.uleb128 0x1c
 1525 0a91 1B030000 		.4byte	.LASF169
 1526 0a95 13       		.byte	0x13
 1527 0a96 90       		.byte	0x90
 1528 0a97 EA000000 		.4byte	0xea
 1529 0a9b 4C01     		.2byte	0x14c
 1530 0a9d 1C       		.uleb128 0x1c
 1531 0a9e 80020000 		.4byte	.LASF170
 1532 0aa2 13       		.byte	0x13
 1533 0aa3 91       		.byte	0x91
 1534 0aa4 5D0B0000 		.4byte	0xb5d
 1535 0aa8 5001     		.2byte	0x150
 1536 0aaa 1C       		.uleb128 0x1c
 1537 0aab AE060000 		.4byte	.LASF171
 1538 0aaf 13       		.byte	0x13
 1539 0ab0 92       		.byte	0x92
ARM GAS  /tmp/ccQAqQtk.s 			page 28


 1540 0ab1 EA000000 		.4byte	0xea
 1541 0ab5 8001     		.2byte	0x180
 1542 0ab7 1C       		.uleb128 0x1c
 1543 0ab8 8A020000 		.4byte	.LASF172
 1544 0abc 13       		.byte	0x13
 1545 0abd 93       		.byte	0x93
 1546 0abe 6D0B0000 		.4byte	0xb6d
 1547 0ac2 8401     		.2byte	0x184
 1548 0ac4 1D       		.uleb128 0x1d
 1549 0ac5 53435300 		.ascii	"SCS\000"
 1550 0ac9 13       		.byte	0x13
 1551 0aca 94       		.byte	0x94
 1552 0acb EA000000 		.4byte	0xea
 1553 0acf A001     		.2byte	0x1a0
 1554 0ad1 1C       		.uleb128 0x1c
 1555 0ad2 6C060000 		.4byte	.LASF173
 1556 0ad6 13       		.byte	0x13
 1557 0ad7 95       		.byte	0x95
 1558 0ad8 EA000000 		.4byte	0xea
 1559 0adc A401     		.2byte	0x1a4
 1560 0ade 1C       		.uleb128 0x1c
 1561 0adf 90030000 		.4byte	.LASF174
 1562 0ae3 13       		.byte	0x13
 1563 0ae4 96       		.byte	0x96
 1564 0ae5 EA000000 		.4byte	0xea
 1565 0ae9 A801     		.2byte	0x1a8
 1566 0aeb 1C       		.uleb128 0x1c
 1567 0aec 99030000 		.4byte	.LASF175
 1568 0af0 13       		.byte	0x13
 1569 0af1 97       		.byte	0x97
 1570 0af2 EA000000 		.4byte	0xea
 1571 0af6 AC01     		.2byte	0x1ac
 1572 0af8 1C       		.uleb128 0x1c
 1573 0af9 94020000 		.4byte	.LASF176
 1574 0afd 13       		.byte	0x13
 1575 0afe 98       		.byte	0x98
 1576 0aff 3D0B0000 		.4byte	0xb3d
 1577 0b03 B001     		.2byte	0x1b0
 1578 0b05 1C       		.uleb128 0x1c
 1579 0b06 CF020000 		.4byte	.LASF177
 1580 0b0a 13       		.byte	0x13
 1581 0b0b 99       		.byte	0x99
 1582 0b0c EA000000 		.4byte	0xea
 1583 0b10 C001     		.2byte	0x1c0
 1584 0b12 1C       		.uleb128 0x1c
 1585 0b13 9F000000 		.4byte	.LASF178
 1586 0b17 13       		.byte	0x13
 1587 0b18 9A       		.byte	0x9a
 1588 0b19 EA000000 		.4byte	0xea
 1589 0b1d C401     		.2byte	0x1c4
 1590 0b1f 1C       		.uleb128 0x1c
 1591 0b20 74060000 		.4byte	.LASF179
 1592 0b24 13       		.byte	0x13
 1593 0b25 9B       		.byte	0x9b
 1594 0b26 EA000000 		.4byte	0xea
 1595 0b2a C801     		.2byte	0x1c8
 1596 0b2c 00       		.byte	0
ARM GAS  /tmp/ccQAqQtk.s 			page 29


 1597 0b2d 17       		.uleb128 0x17
 1598 0b2e DF000000 		.4byte	0xdf
 1599 0b32 3D0B0000 		.4byte	0xb3d
 1600 0b36 18       		.uleb128 0x18
 1601 0b37 88030000 		.4byte	0x388
 1602 0b3b 1E       		.byte	0x1e
 1603 0b3c 00       		.byte	0
 1604 0b3d 17       		.uleb128 0x17
 1605 0b3e DF000000 		.4byte	0xdf
 1606 0b42 4D0B0000 		.4byte	0xb4d
 1607 0b46 18       		.uleb128 0x18
 1608 0b47 88030000 		.4byte	0x388
 1609 0b4b 03       		.byte	0x3
 1610 0b4c 00       		.byte	0
 1611 0b4d 17       		.uleb128 0x17
 1612 0b4e DF000000 		.4byte	0xdf
 1613 0b52 5D0B0000 		.4byte	0xb5d
 1614 0b56 18       		.uleb128 0x18
 1615 0b57 88030000 		.4byte	0x388
 1616 0b5b 09       		.byte	0x9
 1617 0b5c 00       		.byte	0
 1618 0b5d 17       		.uleb128 0x17
 1619 0b5e DF000000 		.4byte	0xdf
 1620 0b62 6D0B0000 		.4byte	0xb6d
 1621 0b66 18       		.uleb128 0x18
 1622 0b67 88030000 		.4byte	0x388
 1623 0b6b 0B       		.byte	0xb
 1624 0b6c 00       		.byte	0
 1625 0b6d 17       		.uleb128 0x17
 1626 0b6e DF000000 		.4byte	0xdf
 1627 0b72 7D0B0000 		.4byte	0xb7d
 1628 0b76 18       		.uleb128 0x18
 1629 0b77 88030000 		.4byte	0x388
 1630 0b7b 06       		.byte	0x6
 1631 0b7c 00       		.byte	0
 1632 0b7d 03       		.uleb128 0x3
 1633 0b7e 34000000 		.4byte	.LASF180
 1634 0b82 13       		.byte	0x13
 1635 0b83 9D       		.byte	0x9d
 1636 0b84 5E090000 		.4byte	0x95e
 1637 0b88 19       		.uleb128 0x19
 1638 0b89 74       		.byte	0x74
 1639 0b8a 13       		.byte	0x13
 1640 0b8b 1C01     		.2byte	0x11c
 1641 0b8d 6B0C0000 		.4byte	0xc6b
 1642 0b91 0E       		.uleb128 0xe
 1643 0b92 495200   		.ascii	"IR\000"
 1644 0b95 13       		.byte	0x13
 1645 0b96 1E01     		.2byte	0x11e
 1646 0b98 EA000000 		.4byte	0xea
 1647 0b9c 00       		.byte	0
 1648 0b9d 0E       		.uleb128 0xe
 1649 0b9e 54435200 		.ascii	"TCR\000"
 1650 0ba2 13       		.byte	0x13
 1651 0ba3 1F01     		.2byte	0x11f
 1652 0ba5 EA000000 		.4byte	0xea
 1653 0ba9 04       		.byte	0x4
ARM GAS  /tmp/ccQAqQtk.s 			page 30


 1654 0baa 0E       		.uleb128 0xe
 1655 0bab 544300   		.ascii	"TC\000"
 1656 0bae 13       		.byte	0x13
 1657 0baf 2001     		.2byte	0x120
 1658 0bb1 EA000000 		.4byte	0xea
 1659 0bb5 08       		.byte	0x8
 1660 0bb6 0E       		.uleb128 0xe
 1661 0bb7 505200   		.ascii	"PR\000"
 1662 0bba 13       		.byte	0x13
 1663 0bbb 2101     		.2byte	0x121
 1664 0bbd EA000000 		.4byte	0xea
 1665 0bc1 0C       		.byte	0xc
 1666 0bc2 0E       		.uleb128 0xe
 1667 0bc3 504300   		.ascii	"PC\000"
 1668 0bc6 13       		.byte	0x13
 1669 0bc7 2201     		.2byte	0x122
 1670 0bc9 EA000000 		.4byte	0xea
 1671 0bcd 10       		.byte	0x10
 1672 0bce 0E       		.uleb128 0xe
 1673 0bcf 4D435200 		.ascii	"MCR\000"
 1674 0bd3 13       		.byte	0x13
 1675 0bd4 2301     		.2byte	0x123
 1676 0bd6 EA000000 		.4byte	0xea
 1677 0bda 14       		.byte	0x14
 1678 0bdb 0E       		.uleb128 0xe
 1679 0bdc 4D523000 		.ascii	"MR0\000"
 1680 0be0 13       		.byte	0x13
 1681 0be1 2401     		.2byte	0x124
 1682 0be3 EA000000 		.4byte	0xea
 1683 0be7 18       		.byte	0x18
 1684 0be8 0E       		.uleb128 0xe
 1685 0be9 4D523100 		.ascii	"MR1\000"
 1686 0bed 13       		.byte	0x13
 1687 0bee 2501     		.2byte	0x125
 1688 0bf0 EA000000 		.4byte	0xea
 1689 0bf4 1C       		.byte	0x1c
 1690 0bf5 0E       		.uleb128 0xe
 1691 0bf6 4D523200 		.ascii	"MR2\000"
 1692 0bfa 13       		.byte	0x13
 1693 0bfb 2601     		.2byte	0x126
 1694 0bfd EA000000 		.4byte	0xea
 1695 0c01 20       		.byte	0x20
 1696 0c02 0E       		.uleb128 0xe
 1697 0c03 4D523300 		.ascii	"MR3\000"
 1698 0c07 13       		.byte	0x13
 1699 0c08 2701     		.2byte	0x127
 1700 0c0a EA000000 		.4byte	0xea
 1701 0c0e 24       		.byte	0x24
 1702 0c0f 0E       		.uleb128 0xe
 1703 0c10 43435200 		.ascii	"CCR\000"
 1704 0c14 13       		.byte	0x13
 1705 0c15 2801     		.2byte	0x128
 1706 0c17 EA000000 		.4byte	0xea
 1707 0c1b 28       		.byte	0x28
 1708 0c1c 0E       		.uleb128 0xe
 1709 0c1d 43523000 		.ascii	"CR0\000"
 1710 0c21 13       		.byte	0x13
ARM GAS  /tmp/ccQAqQtk.s 			page 31


 1711 0c22 2901     		.2byte	0x129
 1712 0c24 EF000000 		.4byte	0xef
 1713 0c28 2C       		.byte	0x2c
 1714 0c29 0E       		.uleb128 0xe
 1715 0c2a 43523100 		.ascii	"CR1\000"
 1716 0c2e 13       		.byte	0x13
 1717 0c2f 2A01     		.2byte	0x12a
 1718 0c31 EF000000 		.4byte	0xef
 1719 0c35 30       		.byte	0x30
 1720 0c36 0F       		.uleb128 0xf
 1721 0c37 43020000 		.4byte	.LASF146
 1722 0c3b 13       		.byte	0x13
 1723 0c3c 2B01     		.2byte	0x12b
 1724 0c3e 37090000 		.4byte	0x937
 1725 0c42 34       		.byte	0x34
 1726 0c43 0E       		.uleb128 0xe
 1727 0c44 454D5200 		.ascii	"EMR\000"
 1728 0c48 13       		.byte	0x13
 1729 0c49 2C01     		.2byte	0x12c
 1730 0c4b EA000000 		.4byte	0xea
 1731 0c4f 3C       		.byte	0x3c
 1732 0c50 0F       		.uleb128 0xf
 1733 0c51 4D020000 		.4byte	.LASF151
 1734 0c55 13       		.byte	0x13
 1735 0c56 2D01     		.2byte	0x12d
 1736 0c58 5D0B0000 		.4byte	0xb5d
 1737 0c5c 40       		.byte	0x40
 1738 0c5d 0F       		.uleb128 0xf
 1739 0c5e C3000000 		.4byte	.LASF181
 1740 0c62 13       		.byte	0x13
 1741 0c63 2E01     		.2byte	0x12e
 1742 0c65 EA000000 		.4byte	0xea
 1743 0c69 70       		.byte	0x70
 1744 0c6a 00       		.byte	0
 1745 0c6b 10       		.uleb128 0x10
 1746 0c6c 91060000 		.4byte	.LASF182
 1747 0c70 13       		.byte	0x13
 1748 0c71 2F01     		.2byte	0x12f
 1749 0c73 880B0000 		.4byte	0xb88
 1750 0c77 1E       		.uleb128 0x1e
 1751 0c78 04       		.byte	0x4
 1752 0c79 13       		.byte	0x13
 1753 0c7a 5201     		.2byte	0x152
 1754 0c7c A50C0000 		.4byte	0xca5
 1755 0c80 1F       		.uleb128 0x1f
 1756 0c81 52425200 		.ascii	"RBR\000"
 1757 0c85 13       		.byte	0x13
 1758 0c86 5301     		.2byte	0x153
 1759 0c88 EF000000 		.4byte	0xef
 1760 0c8c 1F       		.uleb128 0x1f
 1761 0c8d 54485200 		.ascii	"THR\000"
 1762 0c91 13       		.byte	0x13
 1763 0c92 5401     		.2byte	0x154
 1764 0c94 EA000000 		.4byte	0xea
 1765 0c98 1F       		.uleb128 0x1f
 1766 0c99 444C4C00 		.ascii	"DLL\000"
 1767 0c9d 13       		.byte	0x13
ARM GAS  /tmp/ccQAqQtk.s 			page 32


 1768 0c9e 5501     		.2byte	0x155
 1769 0ca0 EA000000 		.4byte	0xea
 1770 0ca4 00       		.byte	0
 1771 0ca5 1E       		.uleb128 0x1e
 1772 0ca6 04       		.byte	0x4
 1773 0ca7 13       		.byte	0x13
 1774 0ca8 5701     		.2byte	0x157
 1775 0caa C70C0000 		.4byte	0xcc7
 1776 0cae 1F       		.uleb128 0x1f
 1777 0caf 444C4D00 		.ascii	"DLM\000"
 1778 0cb3 13       		.byte	0x13
 1779 0cb4 5801     		.2byte	0x158
 1780 0cb6 EA000000 		.4byte	0xea
 1781 0cba 1F       		.uleb128 0x1f
 1782 0cbb 49455200 		.ascii	"IER\000"
 1783 0cbf 13       		.byte	0x13
 1784 0cc0 5901     		.2byte	0x159
 1785 0cc2 EA000000 		.4byte	0xea
 1786 0cc6 00       		.byte	0
 1787 0cc7 1E       		.uleb128 0x1e
 1788 0cc8 04       		.byte	0x4
 1789 0cc9 13       		.byte	0x13
 1790 0cca 5B01     		.2byte	0x15b
 1791 0ccc E90C0000 		.4byte	0xce9
 1792 0cd0 1F       		.uleb128 0x1f
 1793 0cd1 49495200 		.ascii	"IIR\000"
 1794 0cd5 13       		.byte	0x13
 1795 0cd6 5C01     		.2byte	0x15c
 1796 0cd8 EF000000 		.4byte	0xef
 1797 0cdc 1F       		.uleb128 0x1f
 1798 0cdd 46435200 		.ascii	"FCR\000"
 1799 0ce1 13       		.byte	0x13
 1800 0ce2 5D01     		.2byte	0x15d
 1801 0ce4 EA000000 		.4byte	0xea
 1802 0ce8 00       		.byte	0
 1803 0ce9 19       		.uleb128 0x19
 1804 0cea 34       		.byte	0x34
 1805 0ceb 13       		.byte	0x13
 1806 0cec 5001     		.2byte	0x150
 1807 0cee 870D0000 		.4byte	0xd87
 1808 0cf2 20       		.uleb128 0x20
 1809 0cf3 770C0000 		.4byte	0xc77
 1810 0cf7 00       		.byte	0
 1811 0cf8 20       		.uleb128 0x20
 1812 0cf9 A50C0000 		.4byte	0xca5
 1813 0cfd 04       		.byte	0x4
 1814 0cfe 20       		.uleb128 0x20
 1815 0cff C70C0000 		.4byte	0xcc7
 1816 0d03 08       		.byte	0x8
 1817 0d04 0E       		.uleb128 0xe
 1818 0d05 4C435200 		.ascii	"LCR\000"
 1819 0d09 13       		.byte	0x13
 1820 0d0a 5F01     		.2byte	0x15f
 1821 0d0c EA000000 		.4byte	0xea
 1822 0d10 0C       		.byte	0xc
 1823 0d11 0F       		.uleb128 0xf
 1824 0d12 43020000 		.4byte	.LASF146
ARM GAS  /tmp/ccQAqQtk.s 			page 33


 1825 0d16 13       		.byte	0x13
 1826 0d17 6001     		.2byte	0x160
 1827 0d19 DF000000 		.4byte	0xdf
 1828 0d1d 10       		.byte	0x10
 1829 0d1e 0E       		.uleb128 0xe
 1830 0d1f 4C535200 		.ascii	"LSR\000"
 1831 0d23 13       		.byte	0x13
 1832 0d24 6101     		.2byte	0x161
 1833 0d26 EF000000 		.4byte	0xef
 1834 0d2a 14       		.byte	0x14
 1835 0d2b 0F       		.uleb128 0xf
 1836 0d2c 4D020000 		.4byte	.LASF151
 1837 0d30 13       		.byte	0x13
 1838 0d31 6201     		.2byte	0x162
 1839 0d33 DF000000 		.4byte	0xdf
 1840 0d37 18       		.byte	0x18
 1841 0d38 0E       		.uleb128 0xe
 1842 0d39 53435200 		.ascii	"SCR\000"
 1843 0d3d 13       		.byte	0x13
 1844 0d3e 6301     		.2byte	0x163
 1845 0d40 EA000000 		.4byte	0xea
 1846 0d44 1C       		.byte	0x1c
 1847 0d45 0E       		.uleb128 0xe
 1848 0d46 41435200 		.ascii	"ACR\000"
 1849 0d4a 13       		.byte	0x13
 1850 0d4b 6401     		.2byte	0x164
 1851 0d4d EA000000 		.4byte	0xea
 1852 0d51 20       		.byte	0x20
 1853 0d52 0E       		.uleb128 0xe
 1854 0d53 49435200 		.ascii	"ICR\000"
 1855 0d57 13       		.byte	0x13
 1856 0d58 6501     		.2byte	0x165
 1857 0d5a EA000000 		.4byte	0xea
 1858 0d5e 24       		.byte	0x24
 1859 0d5f 0E       		.uleb128 0xe
 1860 0d60 46445200 		.ascii	"FDR\000"
 1861 0d64 13       		.byte	0x13
 1862 0d65 6601     		.2byte	0x166
 1863 0d67 EA000000 		.4byte	0xea
 1864 0d6b 28       		.byte	0x28
 1865 0d6c 0F       		.uleb128 0xf
 1866 0d6d D8020000 		.4byte	.LASF156
 1867 0d71 13       		.byte	0x13
 1868 0d72 6701     		.2byte	0x167
 1869 0d74 DF000000 		.4byte	0xdf
 1870 0d78 2C       		.byte	0x2c
 1871 0d79 0E       		.uleb128 0xe
 1872 0d7a 54455200 		.ascii	"TER\000"
 1873 0d7e 13       		.byte	0x13
 1874 0d7f 6801     		.2byte	0x168
 1875 0d81 EA000000 		.4byte	0xea
 1876 0d85 30       		.byte	0x30
 1877 0d86 00       		.byte	0
 1878 0d87 10       		.uleb128 0x10
 1879 0d88 A6070000 		.4byte	.LASF183
 1880 0d8c 13       		.byte	0x13
 1881 0d8d 6901     		.2byte	0x169
ARM GAS  /tmp/ccQAqQtk.s 			page 34


 1882 0d8f E90C0000 		.4byte	0xce9
 1883 0d93 19       		.uleb128 0x19
 1884 0d94 14       		.byte	0x14
 1885 0d95 13       		.byte	0x13
 1886 0d96 B402     		.2byte	0x2b4
 1887 0d98 DE0D0000 		.4byte	0xdde
 1888 0d9c 0F       		.uleb128 0xf
 1889 0d9d 61010000 		.4byte	.LASF184
 1890 0da1 13       		.byte	0x13
 1891 0da2 B602     		.2byte	0x2b6
 1892 0da4 EA000000 		.4byte	0xea
 1893 0da8 00       		.byte	0
 1894 0da9 0F       		.uleb128 0xf
 1895 0daa 33010000 		.4byte	.LASF185
 1896 0dae 13       		.byte	0x13
 1897 0daf B702     		.2byte	0x2b7
 1898 0db1 EA000000 		.4byte	0xea
 1899 0db5 04       		.byte	0x4
 1900 0db6 0F       		.uleb128 0xf
 1901 0db7 C4070000 		.4byte	.LASF186
 1902 0dbb 13       		.byte	0x13
 1903 0dbc B802     		.2byte	0x2b8
 1904 0dbe EA000000 		.4byte	0xea
 1905 0dc2 08       		.byte	0x8
 1906 0dc3 0F       		.uleb128 0xf
 1907 0dc4 BB030000 		.4byte	.LASF187
 1908 0dc8 13       		.byte	0x13
 1909 0dc9 B902     		.2byte	0x2b9
 1910 0dcb EA000000 		.4byte	0xea
 1911 0dcf 0C       		.byte	0xc
 1912 0dd0 0F       		.uleb128 0xf
 1913 0dd1 A1080000 		.4byte	.LASF188
 1914 0dd5 13       		.byte	0x13
 1915 0dd6 BA02     		.2byte	0x2ba
 1916 0dd8 EA000000 		.4byte	0xea
 1917 0ddc 10       		.byte	0x10
 1918 0ddd 00       		.byte	0
 1919 0dde 10       		.uleb128 0x10
 1920 0ddf A9000000 		.4byte	.LASF189
 1921 0de3 13       		.byte	0x13
 1922 0de4 BB02     		.2byte	0x2bb
 1923 0de6 930D0000 		.4byte	0xd93
 1924 0dea 17       		.uleb128 0x17
 1925 0deb F50D0000 		.4byte	0xdf5
 1926 0def F50D0000 		.4byte	0xdf5
 1927 0df3 21       		.uleb128 0x21
 1928 0df4 00       		.byte	0
 1929 0df5 0B       		.uleb128 0xb
 1930 0df6 04       		.byte	0x4
 1931 0df7 DE0D0000 		.4byte	0xdde
 1932 0dfb 1A       		.uleb128 0x1a
 1933 0dfc 5B040000 		.4byte	.LASF190
 1934 0e00 14       		.byte	0x14
 1935 0e01 9501     		.2byte	0x195
 1936 0e03 EA0D0000 		.4byte	0xdea
 1937 0e07 16       		.uleb128 0x16
 1938 0e08 3D010000 		.4byte	0x13d
ARM GAS  /tmp/ccQAqQtk.s 			page 35


 1939 0e0c 200E0000 		.4byte	0xe20
 1940 0e10 12       		.uleb128 0x12
 1941 0e11 D3020000 		.4byte	0x2d3
 1942 0e15 12       		.uleb128 0x12
 1943 0e16 B4000000 		.4byte	0xb4
 1944 0e1a 12       		.uleb128 0x12
 1945 0e1b 5E010000 		.4byte	0x15e
 1946 0e1f 00       		.byte	0
 1947 0e20 0B       		.uleb128 0xb
 1948 0e21 04       		.byte	0x4
 1949 0e22 070E0000 		.4byte	0xe07
 1950 0e26 16       		.uleb128 0x16
 1951 0e27 3D010000 		.4byte	0x13d
 1952 0e2b 3A0E0000 		.4byte	0xe3a
 1953 0e2f 12       		.uleb128 0x12
 1954 0e30 D3020000 		.4byte	0x2d3
 1955 0e34 12       		.uleb128 0x12
 1956 0e35 5E010000 		.4byte	0x15e
 1957 0e39 00       		.byte	0
 1958 0e3a 0B       		.uleb128 0xb
 1959 0e3b 04       		.byte	0x4
 1960 0e3c 260E0000 		.4byte	0xe26
 1961 0e40 16       		.uleb128 0x16
 1962 0e41 2C000000 		.4byte	0x2c
 1963 0e45 5E0E0000 		.4byte	0xe5e
 1964 0e49 12       		.uleb128 0x12
 1965 0e4a D3020000 		.4byte	0x2d3
 1966 0e4e 12       		.uleb128 0x12
 1967 0e4f 6D080000 		.4byte	0x86d
 1968 0e53 12       		.uleb128 0x12
 1969 0e54 2C000000 		.4byte	0x2c
 1970 0e58 12       		.uleb128 0x12
 1971 0e59 5E010000 		.4byte	0x15e
 1972 0e5d 00       		.byte	0
 1973 0e5e 0B       		.uleb128 0xb
 1974 0e5f 04       		.byte	0x4
 1975 0e60 400E0000 		.4byte	0xe40
 1976 0e64 16       		.uleb128 0x16
 1977 0e65 2C000000 		.4byte	0x2c
 1978 0e69 820E0000 		.4byte	0xe82
 1979 0e6d 12       		.uleb128 0x12
 1980 0e6e D3020000 		.4byte	0x2d3
 1981 0e72 12       		.uleb128 0x12
 1982 0e73 38080000 		.4byte	0x838
 1983 0e77 12       		.uleb128 0x12
 1984 0e78 2C000000 		.4byte	0x2c
 1985 0e7c 12       		.uleb128 0x12
 1986 0e7d 5E010000 		.4byte	0x15e
 1987 0e81 00       		.byte	0
 1988 0e82 0B       		.uleb128 0xb
 1989 0e83 04       		.byte	0x4
 1990 0e84 640E0000 		.4byte	0xe64
 1991 0e88 0A       		.uleb128 0xa
 1992 0e89 08       		.byte	0x8
 1993 0e8a 15       		.byte	0x15
 1994 0e8b 2E       		.byte	0x2e
 1995 0e8c A90E0000 		.4byte	0xea9
ARM GAS  /tmp/ccQAqQtk.s 			page 36


 1996 0e90 08       		.uleb128 0x8
 1997 0e91 99090000 		.4byte	.LASF191
 1998 0e95 15       		.byte	0x15
 1999 0e96 30       		.byte	0x30
 2000 0e97 DF000000 		.4byte	0xdf
 2001 0e9b 00       		.byte	0
 2002 0e9c 09       		.uleb128 0x9
 2003 0e9d 64697200 		.ascii	"dir\000"
 2004 0ea1 15       		.byte	0x15
 2005 0ea2 32       		.byte	0x32
 2006 0ea3 DF000000 		.4byte	0xdf
 2007 0ea7 04       		.byte	0x4
 2008 0ea8 00       		.byte	0
 2009 0ea9 03       		.uleb128 0x3
 2010 0eaa 5A080000 		.4byte	.LASF192
 2011 0eae 15       		.byte	0x15
 2012 0eaf 33       		.byte	0x33
 2013 0eb0 880E0000 		.4byte	0xe88
 2014 0eb4 0A       		.uleb128 0xa
 2015 0eb5 28       		.byte	0x28
 2016 0eb6 15       		.byte	0x15
 2017 0eb7 41       		.byte	0x41
 2018 0eb8 F40E0000 		.4byte	0xef4
 2019 0ebc 09       		.uleb128 0x9
 2020 0ebd 503000   		.ascii	"P0\000"
 2021 0ec0 15       		.byte	0x15
 2022 0ec1 43       		.byte	0x43
 2023 0ec2 A90E0000 		.4byte	0xea9
 2024 0ec6 00       		.byte	0
 2025 0ec7 09       		.uleb128 0x9
 2026 0ec8 503100   		.ascii	"P1\000"
 2027 0ecb 15       		.byte	0x15
 2028 0ecc 45       		.byte	0x45
 2029 0ecd A90E0000 		.4byte	0xea9
 2030 0ed1 08       		.byte	0x8
 2031 0ed2 09       		.uleb128 0x9
 2032 0ed3 503200   		.ascii	"P2\000"
 2033 0ed6 15       		.byte	0x15
 2034 0ed7 47       		.byte	0x47
 2035 0ed8 A90E0000 		.4byte	0xea9
 2036 0edc 10       		.byte	0x10
 2037 0edd 09       		.uleb128 0x9
 2038 0ede 503300   		.ascii	"P3\000"
 2039 0ee1 15       		.byte	0x15
 2040 0ee2 49       		.byte	0x49
 2041 0ee3 A90E0000 		.4byte	0xea9
 2042 0ee7 18       		.byte	0x18
 2043 0ee8 09       		.uleb128 0x9
 2044 0ee9 503400   		.ascii	"P4\000"
 2045 0eec 15       		.byte	0x15
 2046 0eed 4B       		.byte	0x4b
 2047 0eee A90E0000 		.4byte	0xea9
 2048 0ef2 20       		.byte	0x20
 2049 0ef3 00       		.byte	0
 2050 0ef4 03       		.uleb128 0x3
 2051 0ef5 7C080000 		.4byte	.LASF193
 2052 0ef9 15       		.byte	0x15
ARM GAS  /tmp/ccQAqQtk.s 			page 37


 2053 0efa 4C       		.byte	0x4c
 2054 0efb B40E0000 		.4byte	0xeb4
 2055 0eff 05       		.uleb128 0x5
 2056 0f00 F40E0000 		.4byte	0xef4
 2057 0f04 1A       		.uleb128 0x1a
 2058 0f05 E8010000 		.4byte	.LASF194
 2059 0f09 15       		.byte	0x15
 2060 0f0a 3301     		.2byte	0x133
 2061 0f0c FF0E0000 		.4byte	0xeff
 2062 0f10 22       		.uleb128 0x22
 2063 0f11 01       		.byte	0x1
 2064 0f12 5E000000 		.4byte	0x5e
 2065 0f16 16       		.byte	0x16
 2066 0f17 35       		.byte	0x35
 2067 0f18 3B0F0000 		.4byte	0xf3b
 2068 0f1c 23       		.uleb128 0x23
 2069 0f1d F1020000 		.4byte	.LASF195
 2070 0f21 00       		.byte	0
 2071 0f22 23       		.uleb128 0x23
 2072 0f23 10090000 		.4byte	.LASF196
 2073 0f27 01       		.byte	0x1
 2074 0f28 23       		.uleb128 0x23
 2075 0f29 7C070000 		.4byte	.LASF197
 2076 0f2d 02       		.byte	0x2
 2077 0f2e 23       		.uleb128 0x23
 2078 0f2f 86070000 		.4byte	.LASF198
 2079 0f33 03       		.byte	0x3
 2080 0f34 23       		.uleb128 0x23
 2081 0f35 1D050000 		.4byte	.LASF199
 2082 0f39 04       		.byte	0x4
 2083 0f3a 00       		.byte	0
 2084 0f3b 03       		.uleb128 0x3
 2085 0f3c D1000000 		.4byte	.LASF200
 2086 0f40 16       		.byte	0x16
 2087 0f41 3B       		.byte	0x3b
 2088 0f42 100F0000 		.4byte	0xf10
 2089 0f46 03       		.uleb128 0x3
 2090 0f47 E4040000 		.4byte	.LASF201
 2091 0f4b 16       		.byte	0x16
 2092 0f4c 40       		.byte	0x40
 2093 0f4d 510F0000 		.4byte	0xf51
 2094 0f51 07       		.uleb128 0x7
 2095 0f52 E4040000 		.4byte	.LASF201
 2096 0f56 10       		.byte	0x10
 2097 0f57 17       		.byte	0x17
 2098 0f58 93       		.byte	0x93
 2099 0f59 8E0F0000 		.4byte	0xf8e
 2100 0f5d 08       		.uleb128 0x8
 2101 0f5e E3000000 		.4byte	.LASF202
 2102 0f62 17       		.byte	0x17
 2103 0f63 97       		.byte	0x97
 2104 0f64 3B0F0000 		.4byte	0xf3b
 2105 0f68 00       		.byte	0
 2106 0f69 08       		.uleb128 0x8
 2107 0f6a DC000000 		.4byte	.LASF203
 2108 0f6e 17       		.byte	0x17
 2109 0f6f 9B       		.byte	0x9b
ARM GAS  /tmp/ccQAqQtk.s 			page 38


 2110 0f70 EC0F0000 		.4byte	0xfec
 2111 0f74 04       		.byte	0x4
 2112 0f75 08       		.uleb128 0x8
 2113 0f76 89040000 		.4byte	.LASF204
 2114 0f7a 17       		.byte	0x17
 2115 0f7b A0       		.byte	0xa0
 2116 0f7c DF000000 		.4byte	0xdf
 2117 0f80 08       		.byte	0x8
 2118 0f81 09       		.uleb128 0x9
 2119 0f82 746D7200 		.ascii	"tmr\000"
 2120 0f86 17       		.byte	0x17
 2121 0f87 A4       		.byte	0xa4
 2122 0f88 F20F0000 		.4byte	0xff2
 2123 0f8c 0C       		.byte	0xc
 2124 0f8d 00       		.byte	0
 2125 0f8e 03       		.uleb128 0x3
 2126 0f8f A5090000 		.4byte	.LASF205
 2127 0f93 16       		.byte	0x16
 2128 0f94 47       		.byte	0x47
 2129 0f95 990F0000 		.4byte	0xf99
 2130 0f99 0B       		.uleb128 0xb
 2131 0f9a 04       		.byte	0x4
 2132 0f9b 9F0F0000 		.4byte	0xf9f
 2133 0f9f 11       		.uleb128 0x11
 2134 0fa0 AA0F0000 		.4byte	0xfaa
 2135 0fa4 12       		.uleb128 0x12
 2136 0fa5 AA0F0000 		.4byte	0xfaa
 2137 0fa9 00       		.byte	0
 2138 0faa 0B       		.uleb128 0xb
 2139 0fab 04       		.byte	0x4
 2140 0fac 460F0000 		.4byte	0xf46
 2141 0fb0 03       		.uleb128 0x3
 2142 0fb1 18040000 		.4byte	.LASF206
 2143 0fb5 17       		.byte	0x17
 2144 0fb6 76       		.byte	0x76
 2145 0fb7 DF000000 		.4byte	0xdf
 2146 0fbb 0A       		.uleb128 0xa
 2147 0fbc 08       		.byte	0x8
 2148 0fbd 17       		.byte	0x17
 2149 0fbe 81       		.byte	0x81
 2150 0fbf DC0F0000 		.4byte	0xfdc
 2151 0fc3 08       		.uleb128 0x8
 2152 0fc4 09050000 		.4byte	.LASF207
 2153 0fc8 17       		.byte	0x17
 2154 0fc9 87       		.byte	0x87
 2155 0fca B00F0000 		.4byte	0xfb0
 2156 0fce 00       		.byte	0
 2157 0fcf 08       		.uleb128 0x8
 2158 0fd0 02010000 		.4byte	.LASF208
 2159 0fd4 17       		.byte	0x17
 2160 0fd5 8C       		.byte	0x8c
 2161 0fd6 8E0F0000 		.4byte	0xf8e
 2162 0fda 04       		.byte	0x4
 2163 0fdb 00       		.byte	0
 2164 0fdc 03       		.uleb128 0x3
 2165 0fdd 8F040000 		.4byte	.LASF209
 2166 0fe1 17       		.byte	0x17
ARM GAS  /tmp/ccQAqQtk.s 			page 39


 2167 0fe2 8E       		.byte	0x8e
 2168 0fe3 BB0F0000 		.4byte	0xfbb
 2169 0fe7 05       		.uleb128 0x5
 2170 0fe8 DC0F0000 		.4byte	0xfdc
 2171 0fec 0B       		.uleb128 0xb
 2172 0fed 04       		.byte	0x4
 2173 0fee E70F0000 		.4byte	0xfe7
 2174 0ff2 0B       		.uleb128 0xb
 2175 0ff3 04       		.byte	0x4
 2176 0ff4 6B0C0000 		.4byte	0xc6b
 2177 0ff8 13       		.uleb128 0x13
 2178 0ff9 A7010000 		.4byte	.LASF210
 2179 0ffd 17       		.byte	0x17
 2180 0ffe B0       		.byte	0xb0
 2181 0fff 460F0000 		.4byte	0xf46
 2182 1003 13       		.uleb128 0x13
 2183 1004 AD010000 		.4byte	.LASF211
 2184 1008 17       		.byte	0x17
 2185 1009 B4       		.byte	0xb4
 2186 100a 460F0000 		.4byte	0xf46
 2187 100e 13       		.uleb128 0x13
 2188 100f B3010000 		.4byte	.LASF212
 2189 1013 17       		.byte	0x17
 2190 1014 B8       		.byte	0xb8
 2191 1015 460F0000 		.4byte	0xf46
 2192 1019 13       		.uleb128 0x13
 2193 101a B9010000 		.4byte	.LASF213
 2194 101e 17       		.byte	0x17
 2195 101f BC       		.byte	0xbc
 2196 1020 460F0000 		.4byte	0xf46
 2197 1024 22       		.uleb128 0x22
 2198 1025 01       		.byte	0x1
 2199 1026 5E000000 		.4byte	0x5e
 2200 102a 18       		.byte	0x18
 2201 102b 5D       		.byte	0x5d
 2202 102c 43100000 		.4byte	0x1043
 2203 1030 23       		.uleb128 0x23
 2204 1031 BF020000 		.4byte	.LASF214
 2205 1035 00       		.byte	0
 2206 1036 23       		.uleb128 0x23
 2207 1037 68090000 		.4byte	.LASF215
 2208 103b 01       		.byte	0x1
 2209 103c 23       		.uleb128 0x23
 2210 103d 1B080000 		.4byte	.LASF216
 2211 1041 02       		.byte	0x2
 2212 1042 00       		.byte	0
 2213 1043 03       		.uleb128 0x3
 2214 1044 06080000 		.4byte	.LASF217
 2215 1048 18       		.byte	0x18
 2216 1049 61       		.byte	0x61
 2217 104a 24100000 		.4byte	0x1024
 2218 104e 03       		.uleb128 0x3
 2219 104f D1070000 		.4byte	.LASF218
 2220 1053 18       		.byte	0x18
 2221 1054 66       		.byte	0x66
 2222 1055 59100000 		.4byte	0x1059
 2223 1059 07       		.uleb128 0x7
ARM GAS  /tmp/ccQAqQtk.s 			page 40


 2224 105a D1070000 		.4byte	.LASF218
 2225 105e 78       		.byte	0x78
 2226 105f 18       		.byte	0x18
 2227 1060 80       		.byte	0x80
 2228 1061 C4100000 		.4byte	0x10c4
 2229 1065 09       		.uleb128 0x9
 2230 1066 766D7400 		.ascii	"vmt\000"
 2231 106a 18       		.byte	0x18
 2232 106b 82       		.byte	0x82
 2233 106c 4C110000 		.4byte	0x114c
 2234 1070 00       		.byte	0
 2235 1071 08       		.uleb128 0x8
 2236 1072 33050000 		.4byte	.LASF219
 2237 1076 18       		.byte	0x18
 2238 1077 83       		.byte	0x83
 2239 1078 25060000 		.4byte	0x625
 2240 107c 04       		.byte	0x4
 2241 107d 08       		.uleb128 0x8
 2242 107e E3000000 		.4byte	.LASF202
 2243 1082 18       		.byte	0x18
 2244 1083 83       		.byte	0x83
 2245 1084 43100000 		.4byte	0x1043
 2246 1088 08       		.byte	0x8
 2247 1089 08       		.uleb128 0x8
 2248 108a 4C080000 		.4byte	.LASF220
 2249 108e 18       		.byte	0x18
 2250 108f 83       		.byte	0x83
 2251 1090 3E080000 		.4byte	0x83e
 2252 1094 0C       		.byte	0xc
 2253 1095 08       		.uleb128 0x8
 2254 1096 D8010000 		.4byte	.LASF221
 2255 109a 18       		.byte	0x18
 2256 109b 83       		.byte	0x83
 2257 109c 49080000 		.4byte	0x849
 2258 10a0 30       		.byte	0x30
 2259 10a1 09       		.uleb128 0x9
 2260 10a2 696200   		.ascii	"ib\000"
 2261 10a5 18       		.byte	0x18
 2262 10a6 83       		.byte	0x83
 2263 10a7 52110000 		.4byte	0x1152
 2264 10ab 54       		.byte	0x54
 2265 10ac 09       		.uleb128 0x9
 2266 10ad 6F6200   		.ascii	"ob\000"
 2267 10b0 18       		.byte	0x18
 2268 10b1 83       		.byte	0x83
 2269 10b2 52110000 		.4byte	0x1152
 2270 10b6 64       		.byte	0x64
 2271 10b7 08       		.uleb128 0x8
 2272 10b8 47080000 		.4byte	.LASF222
 2273 10bc 18       		.byte	0x18
 2274 10bd 83       		.byte	0x83
 2275 10be 62110000 		.4byte	0x1162
 2276 10c2 74       		.byte	0x74
 2277 10c3 00       		.byte	0
 2278 10c4 24       		.uleb128 0x24
 2279 10c5 53443100 		.ascii	"SD1\000"
 2280 10c9 19       		.byte	0x19
ARM GAS  /tmp/ccQAqQtk.s 			page 41


 2281 10ca EF       		.byte	0xef
 2282 10cb 4E100000 		.4byte	0x104e
 2283 10cf 24       		.uleb128 0x24
 2284 10d0 53443300 		.ascii	"SD3\000"
 2285 10d4 19       		.byte	0x19
 2286 10d5 F7       		.byte	0xf7
 2287 10d6 4E100000 		.4byte	0x104e
 2288 10da 07       		.uleb128 0x7
 2289 10db 79040000 		.4byte	.LASF223
 2290 10df 20       		.byte	0x20
 2291 10e0 18       		.byte	0x18
 2292 10e1 75       		.byte	0x75
 2293 10e2 47110000 		.4byte	0x1147
 2294 10e6 08       		.uleb128 0x8
 2295 10e7 BD000000 		.4byte	.LASF224
 2296 10eb 18       		.byte	0x18
 2297 10ec 76       		.byte	0x76
 2298 10ed 73080000 		.4byte	0x873
 2299 10f1 00       		.byte	0
 2300 10f2 08       		.uleb128 0x8
 2301 10f3 41050000 		.4byte	.LASF225
 2302 10f7 18       		.byte	0x18
 2303 10f8 76       		.byte	0x76
 2304 10f9 92080000 		.4byte	0x892
 2305 10fd 04       		.byte	0x4
 2306 10fe 09       		.uleb128 0x9
 2307 10ff 70757400 		.ascii	"put\000"
 2308 1103 18       		.byte	0x18
 2309 1104 76       		.byte	0x76
 2310 1105 AC080000 		.4byte	0x8ac
 2311 1109 08       		.byte	0x8
 2312 110a 09       		.uleb128 0x9
 2313 110b 67657400 		.ascii	"get\000"
 2314 110f 18       		.byte	0x18
 2315 1110 76       		.byte	0x76
 2316 1111 7D060000 		.4byte	0x67d
 2317 1115 0C       		.byte	0xc
 2318 1116 08       		.uleb128 0x8
 2319 1117 E9000000 		.4byte	.LASF226
 2320 111b 18       		.byte	0x18
 2321 111c 76       		.byte	0x76
 2322 111d 200E0000 		.4byte	0xe20
 2323 1121 10       		.byte	0x10
 2324 1122 08       		.uleb128 0x8
 2325 1123 3F030000 		.4byte	.LASF227
 2326 1127 18       		.byte	0x18
 2327 1128 76       		.byte	0x76
 2328 1129 3A0E0000 		.4byte	0xe3a
 2329 112d 14       		.byte	0x14
 2330 112e 08       		.uleb128 0x8
 2331 112f 7C000000 		.4byte	.LASF228
 2332 1133 18       		.byte	0x18
 2333 1134 76       		.byte	0x76
 2334 1135 5E0E0000 		.4byte	0xe5e
 2335 1139 18       		.byte	0x18
 2336 113a 08       		.uleb128 0x8
 2337 113b 52010000 		.4byte	.LASF229
ARM GAS  /tmp/ccQAqQtk.s 			page 42


 2338 113f 18       		.byte	0x18
 2339 1140 76       		.byte	0x76
 2340 1141 820E0000 		.4byte	0xe82
 2341 1145 1C       		.byte	0x1c
 2342 1146 00       		.byte	0
 2343 1147 05       		.uleb128 0x5
 2344 1148 DA100000 		.4byte	0x10da
 2345 114c 0B       		.uleb128 0xb
 2346 114d 04       		.byte	0x4
 2347 114e 47110000 		.4byte	0x1147
 2348 1152 17       		.uleb128 0x17
 2349 1153 B4000000 		.4byte	0xb4
 2350 1157 62110000 		.4byte	0x1162
 2351 115b 18       		.uleb128 0x18
 2352 115c 88030000 		.4byte	0x388
 2353 1160 0F       		.byte	0xf
 2354 1161 00       		.byte	0
 2355 1162 0B       		.uleb128 0xb
 2356 1163 04       		.byte	0x4
 2357 1164 870D0000 		.4byte	0xd87
 2358 1168 25       		.uleb128 0x25
 2359 1169 F5030000 		.4byte	.LASF233
 2360 116d 01       		.byte	0x1
 2361 116e 54       		.byte	0x54
 2362 116f 00000000 		.4byte	.LFB64
 2363 1173 8C000000 		.4byte	.LFE64-.LFB64
 2364 1177 01       		.uleb128 0x1
 2365 1178 9C       		.byte	0x9c
 2366 1179 26       		.uleb128 0x26
 2367 117a 22020000 		.4byte	.LASF234
 2368 117e 01       		.byte	0x1
 2369 117f 3A       		.byte	0x3a
 2370 1180 00000000 		.4byte	.LFB63
 2371 1184 40000000 		.4byte	.LFE63-.LFB63
 2372 1188 01       		.uleb128 0x1
 2373 1189 9C       		.byte	0x9c
 2374 118a A3110000 		.4byte	0x11a3
 2375 118e 27       		.uleb128 0x27
 2376 118f 0A000000 		.4byte	.LVL0
 2377 1193 A3110000 		.4byte	0x11a3
 2378 1197 28       		.uleb128 0x28
 2379 1198 01       		.uleb128 0x1
 2380 1199 50       		.byte	0x50
 2381 119a 01       		.uleb128 0x1
 2382 119b 3B       		.byte	0x3b
 2383 119c 28       		.uleb128 0x28
 2384 119d 01       		.uleb128 0x1
 2385 119e 51       		.byte	0x51
 2386 119f 01       		.uleb128 0x1
 2387 11a0 34       		.byte	0x34
 2388 11a1 00       		.byte	0
 2389 11a2 00       		.byte	0
 2390 11a3 29       		.uleb128 0x29
 2391 11a4 22040000 		.4byte	.LASF235
 2392 11a8 22040000 		.4byte	.LASF235
 2393 11ac 09       		.byte	0x9
 2394 11ad 1E01     		.2byte	0x11e
ARM GAS  /tmp/ccQAqQtk.s 			page 43


 2395 11af 00       		.byte	0
 2396              		.section	.debug_abbrev,"",%progbits
 2397              	.Ldebug_abbrev0:
 2398 0000 01       		.uleb128 0x1
 2399 0001 11       		.uleb128 0x11
 2400 0002 01       		.byte	0x1
 2401 0003 25       		.uleb128 0x25
 2402 0004 0E       		.uleb128 0xe
 2403 0005 13       		.uleb128 0x13
 2404 0006 0B       		.uleb128 0xb
 2405 0007 03       		.uleb128 0x3
 2406 0008 0E       		.uleb128 0xe
 2407 0009 1B       		.uleb128 0x1b
 2408 000a 0E       		.uleb128 0xe
 2409 000b 55       		.uleb128 0x55
 2410 000c 17       		.uleb128 0x17
 2411 000d 11       		.uleb128 0x11
 2412 000e 01       		.uleb128 0x1
 2413 000f 10       		.uleb128 0x10
 2414 0010 17       		.uleb128 0x17
 2415 0011 00       		.byte	0
 2416 0012 00       		.byte	0
 2417 0013 02       		.uleb128 0x2
 2418 0014 24       		.uleb128 0x24
 2419 0015 00       		.byte	0
 2420 0016 0B       		.uleb128 0xb
 2421 0017 0B       		.uleb128 0xb
 2422 0018 3E       		.uleb128 0x3e
 2423 0019 0B       		.uleb128 0xb
 2424 001a 03       		.uleb128 0x3
 2425 001b 08       		.uleb128 0x8
 2426 001c 00       		.byte	0
 2427 001d 00       		.byte	0
 2428 001e 03       		.uleb128 0x3
 2429 001f 16       		.uleb128 0x16
 2430 0020 00       		.byte	0
 2431 0021 03       		.uleb128 0x3
 2432 0022 0E       		.uleb128 0xe
 2433 0023 3A       		.uleb128 0x3a
 2434 0024 0B       		.uleb128 0xb
 2435 0025 3B       		.uleb128 0x3b
 2436 0026 0B       		.uleb128 0xb
 2437 0027 49       		.uleb128 0x49
 2438 0028 13       		.uleb128 0x13
 2439 0029 00       		.byte	0
 2440 002a 00       		.byte	0
 2441 002b 04       		.uleb128 0x4
 2442 002c 24       		.uleb128 0x24
 2443 002d 00       		.byte	0
 2444 002e 0B       		.uleb128 0xb
 2445 002f 0B       		.uleb128 0xb
 2446 0030 3E       		.uleb128 0x3e
 2447 0031 0B       		.uleb128 0xb
 2448 0032 03       		.uleb128 0x3
 2449 0033 0E       		.uleb128 0xe
 2450 0034 00       		.byte	0
 2451 0035 00       		.byte	0
ARM GAS  /tmp/ccQAqQtk.s 			page 44


 2452 0036 05       		.uleb128 0x5
 2453 0037 26       		.uleb128 0x26
 2454 0038 00       		.byte	0
 2455 0039 49       		.uleb128 0x49
 2456 003a 13       		.uleb128 0x13
 2457 003b 00       		.byte	0
 2458 003c 00       		.byte	0
 2459 003d 06       		.uleb128 0x6
 2460 003e 35       		.uleb128 0x35
 2461 003f 00       		.byte	0
 2462 0040 49       		.uleb128 0x49
 2463 0041 13       		.uleb128 0x13
 2464 0042 00       		.byte	0
 2465 0043 00       		.byte	0
 2466 0044 07       		.uleb128 0x7
 2467 0045 13       		.uleb128 0x13
 2468 0046 01       		.byte	0x1
 2469 0047 03       		.uleb128 0x3
 2470 0048 0E       		.uleb128 0xe
 2471 0049 0B       		.uleb128 0xb
 2472 004a 0B       		.uleb128 0xb
 2473 004b 3A       		.uleb128 0x3a
 2474 004c 0B       		.uleb128 0xb
 2475 004d 3B       		.uleb128 0x3b
 2476 004e 0B       		.uleb128 0xb
 2477 004f 01       		.uleb128 0x1
 2478 0050 13       		.uleb128 0x13
 2479 0051 00       		.byte	0
 2480 0052 00       		.byte	0
 2481 0053 08       		.uleb128 0x8
 2482 0054 0D       		.uleb128 0xd
 2483 0055 00       		.byte	0
 2484 0056 03       		.uleb128 0x3
 2485 0057 0E       		.uleb128 0xe
 2486 0058 3A       		.uleb128 0x3a
 2487 0059 0B       		.uleb128 0xb
 2488 005a 3B       		.uleb128 0x3b
 2489 005b 0B       		.uleb128 0xb
 2490 005c 49       		.uleb128 0x49
 2491 005d 13       		.uleb128 0x13
 2492 005e 38       		.uleb128 0x38
 2493 005f 0B       		.uleb128 0xb
 2494 0060 00       		.byte	0
 2495 0061 00       		.byte	0
 2496 0062 09       		.uleb128 0x9
 2497 0063 0D       		.uleb128 0xd
 2498 0064 00       		.byte	0
 2499 0065 03       		.uleb128 0x3
 2500 0066 08       		.uleb128 0x8
 2501 0067 3A       		.uleb128 0x3a
 2502 0068 0B       		.uleb128 0xb
 2503 0069 3B       		.uleb128 0x3b
 2504 006a 0B       		.uleb128 0xb
 2505 006b 49       		.uleb128 0x49
 2506 006c 13       		.uleb128 0x13
 2507 006d 38       		.uleb128 0x38
 2508 006e 0B       		.uleb128 0xb
ARM GAS  /tmp/ccQAqQtk.s 			page 45


 2509 006f 00       		.byte	0
 2510 0070 00       		.byte	0
 2511 0071 0A       		.uleb128 0xa
 2512 0072 13       		.uleb128 0x13
 2513 0073 01       		.byte	0x1
 2514 0074 0B       		.uleb128 0xb
 2515 0075 0B       		.uleb128 0xb
 2516 0076 3A       		.uleb128 0x3a
 2517 0077 0B       		.uleb128 0xb
 2518 0078 3B       		.uleb128 0x3b
 2519 0079 0B       		.uleb128 0xb
 2520 007a 01       		.uleb128 0x1
 2521 007b 13       		.uleb128 0x13
 2522 007c 00       		.byte	0
 2523 007d 00       		.byte	0
 2524 007e 0B       		.uleb128 0xb
 2525 007f 0F       		.uleb128 0xf
 2526 0080 00       		.byte	0
 2527 0081 0B       		.uleb128 0xb
 2528 0082 0B       		.uleb128 0xb
 2529 0083 49       		.uleb128 0x49
 2530 0084 13       		.uleb128 0x13
 2531 0085 00       		.byte	0
 2532 0086 00       		.byte	0
 2533 0087 0C       		.uleb128 0xc
 2534 0088 0F       		.uleb128 0xf
 2535 0089 00       		.byte	0
 2536 008a 0B       		.uleb128 0xb
 2537 008b 0B       		.uleb128 0xb
 2538 008c 00       		.byte	0
 2539 008d 00       		.byte	0
 2540 008e 0D       		.uleb128 0xd
 2541 008f 13       		.uleb128 0x13
 2542 0090 01       		.byte	0x1
 2543 0091 03       		.uleb128 0x3
 2544 0092 0E       		.uleb128 0xe
 2545 0093 0B       		.uleb128 0xb
 2546 0094 0B       		.uleb128 0xb
 2547 0095 3A       		.uleb128 0x3a
 2548 0096 0B       		.uleb128 0xb
 2549 0097 3B       		.uleb128 0x3b
 2550 0098 05       		.uleb128 0x5
 2551 0099 01       		.uleb128 0x1
 2552 009a 13       		.uleb128 0x13
 2553 009b 00       		.byte	0
 2554 009c 00       		.byte	0
 2555 009d 0E       		.uleb128 0xe
 2556 009e 0D       		.uleb128 0xd
 2557 009f 00       		.byte	0
 2558 00a0 03       		.uleb128 0x3
 2559 00a1 08       		.uleb128 0x8
 2560 00a2 3A       		.uleb128 0x3a
 2561 00a3 0B       		.uleb128 0xb
 2562 00a4 3B       		.uleb128 0x3b
 2563 00a5 05       		.uleb128 0x5
 2564 00a6 49       		.uleb128 0x49
 2565 00a7 13       		.uleb128 0x13
ARM GAS  /tmp/ccQAqQtk.s 			page 46


 2566 00a8 38       		.uleb128 0x38
 2567 00a9 0B       		.uleb128 0xb
 2568 00aa 00       		.byte	0
 2569 00ab 00       		.byte	0
 2570 00ac 0F       		.uleb128 0xf
 2571 00ad 0D       		.uleb128 0xd
 2572 00ae 00       		.byte	0
 2573 00af 03       		.uleb128 0x3
 2574 00b0 0E       		.uleb128 0xe
 2575 00b1 3A       		.uleb128 0x3a
 2576 00b2 0B       		.uleb128 0xb
 2577 00b3 3B       		.uleb128 0x3b
 2578 00b4 05       		.uleb128 0x5
 2579 00b5 49       		.uleb128 0x49
 2580 00b6 13       		.uleb128 0x13
 2581 00b7 38       		.uleb128 0x38
 2582 00b8 0B       		.uleb128 0xb
 2583 00b9 00       		.byte	0
 2584 00ba 00       		.byte	0
 2585 00bb 10       		.uleb128 0x10
 2586 00bc 16       		.uleb128 0x16
 2587 00bd 00       		.byte	0
 2588 00be 03       		.uleb128 0x3
 2589 00bf 0E       		.uleb128 0xe
 2590 00c0 3A       		.uleb128 0x3a
 2591 00c1 0B       		.uleb128 0xb
 2592 00c2 3B       		.uleb128 0x3b
 2593 00c3 05       		.uleb128 0x5
 2594 00c4 49       		.uleb128 0x49
 2595 00c5 13       		.uleb128 0x13
 2596 00c6 00       		.byte	0
 2597 00c7 00       		.byte	0
 2598 00c8 11       		.uleb128 0x11
 2599 00c9 15       		.uleb128 0x15
 2600 00ca 01       		.byte	0x1
 2601 00cb 27       		.uleb128 0x27
 2602 00cc 19       		.uleb128 0x19
 2603 00cd 01       		.uleb128 0x1
 2604 00ce 13       		.uleb128 0x13
 2605 00cf 00       		.byte	0
 2606 00d0 00       		.byte	0
 2607 00d1 12       		.uleb128 0x12
 2608 00d2 05       		.uleb128 0x5
 2609 00d3 00       		.byte	0
 2610 00d4 49       		.uleb128 0x49
 2611 00d5 13       		.uleb128 0x13
 2612 00d6 00       		.byte	0
 2613 00d7 00       		.byte	0
 2614 00d8 13       		.uleb128 0x13
 2615 00d9 34       		.uleb128 0x34
 2616 00da 00       		.byte	0
 2617 00db 03       		.uleb128 0x3
 2618 00dc 0E       		.uleb128 0xe
 2619 00dd 3A       		.uleb128 0x3a
 2620 00de 0B       		.uleb128 0xb
 2621 00df 3B       		.uleb128 0x3b
 2622 00e0 0B       		.uleb128 0xb
ARM GAS  /tmp/ccQAqQtk.s 			page 47


 2623 00e1 49       		.uleb128 0x49
 2624 00e2 13       		.uleb128 0x13
 2625 00e3 3F       		.uleb128 0x3f
 2626 00e4 19       		.uleb128 0x19
 2627 00e5 3C       		.uleb128 0x3c
 2628 00e6 19       		.uleb128 0x19
 2629 00e7 00       		.byte	0
 2630 00e8 00       		.byte	0
 2631 00e9 14       		.uleb128 0x14
 2632 00ea 17       		.uleb128 0x17
 2633 00eb 01       		.byte	0x1
 2634 00ec 0B       		.uleb128 0xb
 2635 00ed 0B       		.uleb128 0xb
 2636 00ee 3A       		.uleb128 0x3a
 2637 00ef 0B       		.uleb128 0xb
 2638 00f0 3B       		.uleb128 0x3b
 2639 00f1 0B       		.uleb128 0xb
 2640 00f2 01       		.uleb128 0x1
 2641 00f3 13       		.uleb128 0x13
 2642 00f4 00       		.byte	0
 2643 00f5 00       		.byte	0
 2644 00f6 15       		.uleb128 0x15
 2645 00f7 0D       		.uleb128 0xd
 2646 00f8 00       		.byte	0
 2647 00f9 03       		.uleb128 0x3
 2648 00fa 0E       		.uleb128 0xe
 2649 00fb 3A       		.uleb128 0x3a
 2650 00fc 0B       		.uleb128 0xb
 2651 00fd 3B       		.uleb128 0x3b
 2652 00fe 0B       		.uleb128 0xb
 2653 00ff 49       		.uleb128 0x49
 2654 0100 13       		.uleb128 0x13
 2655 0101 00       		.byte	0
 2656 0102 00       		.byte	0
 2657 0103 16       		.uleb128 0x16
 2658 0104 15       		.uleb128 0x15
 2659 0105 01       		.byte	0x1
 2660 0106 27       		.uleb128 0x27
 2661 0107 19       		.uleb128 0x19
 2662 0108 49       		.uleb128 0x49
 2663 0109 13       		.uleb128 0x13
 2664 010a 01       		.uleb128 0x1
 2665 010b 13       		.uleb128 0x13
 2666 010c 00       		.byte	0
 2667 010d 00       		.byte	0
 2668 010e 17       		.uleb128 0x17
 2669 010f 01       		.uleb128 0x1
 2670 0110 01       		.byte	0x1
 2671 0111 49       		.uleb128 0x49
 2672 0112 13       		.uleb128 0x13
 2673 0113 01       		.uleb128 0x1
 2674 0114 13       		.uleb128 0x13
 2675 0115 00       		.byte	0
 2676 0116 00       		.byte	0
 2677 0117 18       		.uleb128 0x18
 2678 0118 21       		.uleb128 0x21
 2679 0119 00       		.byte	0
ARM GAS  /tmp/ccQAqQtk.s 			page 48


 2680 011a 49       		.uleb128 0x49
 2681 011b 13       		.uleb128 0x13
 2682 011c 2F       		.uleb128 0x2f
 2683 011d 0B       		.uleb128 0xb
 2684 011e 00       		.byte	0
 2685 011f 00       		.byte	0
 2686 0120 19       		.uleb128 0x19
 2687 0121 13       		.uleb128 0x13
 2688 0122 01       		.byte	0x1
 2689 0123 0B       		.uleb128 0xb
 2690 0124 0B       		.uleb128 0xb
 2691 0125 3A       		.uleb128 0x3a
 2692 0126 0B       		.uleb128 0xb
 2693 0127 3B       		.uleb128 0x3b
 2694 0128 05       		.uleb128 0x5
 2695 0129 01       		.uleb128 0x1
 2696 012a 13       		.uleb128 0x13
 2697 012b 00       		.byte	0
 2698 012c 00       		.byte	0
 2699 012d 1A       		.uleb128 0x1a
 2700 012e 34       		.uleb128 0x34
 2701 012f 00       		.byte	0
 2702 0130 03       		.uleb128 0x3
 2703 0131 0E       		.uleb128 0xe
 2704 0132 3A       		.uleb128 0x3a
 2705 0133 0B       		.uleb128 0xb
 2706 0134 3B       		.uleb128 0x3b
 2707 0135 05       		.uleb128 0x5
 2708 0136 49       		.uleb128 0x49
 2709 0137 13       		.uleb128 0x13
 2710 0138 3F       		.uleb128 0x3f
 2711 0139 19       		.uleb128 0x19
 2712 013a 3C       		.uleb128 0x3c
 2713 013b 19       		.uleb128 0x19
 2714 013c 00       		.byte	0
 2715 013d 00       		.byte	0
 2716 013e 1B       		.uleb128 0x1b
 2717 013f 13       		.uleb128 0x13
 2718 0140 01       		.byte	0x1
 2719 0141 0B       		.uleb128 0xb
 2720 0142 05       		.uleb128 0x5
 2721 0143 3A       		.uleb128 0x3a
 2722 0144 0B       		.uleb128 0xb
 2723 0145 3B       		.uleb128 0x3b
 2724 0146 0B       		.uleb128 0xb
 2725 0147 01       		.uleb128 0x1
 2726 0148 13       		.uleb128 0x13
 2727 0149 00       		.byte	0
 2728 014a 00       		.byte	0
 2729 014b 1C       		.uleb128 0x1c
 2730 014c 0D       		.uleb128 0xd
 2731 014d 00       		.byte	0
 2732 014e 03       		.uleb128 0x3
 2733 014f 0E       		.uleb128 0xe
 2734 0150 3A       		.uleb128 0x3a
 2735 0151 0B       		.uleb128 0xb
 2736 0152 3B       		.uleb128 0x3b
ARM GAS  /tmp/ccQAqQtk.s 			page 49


 2737 0153 0B       		.uleb128 0xb
 2738 0154 49       		.uleb128 0x49
 2739 0155 13       		.uleb128 0x13
 2740 0156 38       		.uleb128 0x38
 2741 0157 05       		.uleb128 0x5
 2742 0158 00       		.byte	0
 2743 0159 00       		.byte	0
 2744 015a 1D       		.uleb128 0x1d
 2745 015b 0D       		.uleb128 0xd
 2746 015c 00       		.byte	0
 2747 015d 03       		.uleb128 0x3
 2748 015e 08       		.uleb128 0x8
 2749 015f 3A       		.uleb128 0x3a
 2750 0160 0B       		.uleb128 0xb
 2751 0161 3B       		.uleb128 0x3b
 2752 0162 0B       		.uleb128 0xb
 2753 0163 49       		.uleb128 0x49
 2754 0164 13       		.uleb128 0x13
 2755 0165 38       		.uleb128 0x38
 2756 0166 05       		.uleb128 0x5
 2757 0167 00       		.byte	0
 2758 0168 00       		.byte	0
 2759 0169 1E       		.uleb128 0x1e
 2760 016a 17       		.uleb128 0x17
 2761 016b 01       		.byte	0x1
 2762 016c 0B       		.uleb128 0xb
 2763 016d 0B       		.uleb128 0xb
 2764 016e 3A       		.uleb128 0x3a
 2765 016f 0B       		.uleb128 0xb
 2766 0170 3B       		.uleb128 0x3b
 2767 0171 05       		.uleb128 0x5
 2768 0172 01       		.uleb128 0x1
 2769 0173 13       		.uleb128 0x13
 2770 0174 00       		.byte	0
 2771 0175 00       		.byte	0
 2772 0176 1F       		.uleb128 0x1f
 2773 0177 0D       		.uleb128 0xd
 2774 0178 00       		.byte	0
 2775 0179 03       		.uleb128 0x3
 2776 017a 08       		.uleb128 0x8
 2777 017b 3A       		.uleb128 0x3a
 2778 017c 0B       		.uleb128 0xb
 2779 017d 3B       		.uleb128 0x3b
 2780 017e 05       		.uleb128 0x5
 2781 017f 49       		.uleb128 0x49
 2782 0180 13       		.uleb128 0x13
 2783 0181 00       		.byte	0
 2784 0182 00       		.byte	0
 2785 0183 20       		.uleb128 0x20
 2786 0184 0D       		.uleb128 0xd
 2787 0185 00       		.byte	0
 2788 0186 49       		.uleb128 0x49
 2789 0187 13       		.uleb128 0x13
 2790 0188 38       		.uleb128 0x38
 2791 0189 0B       		.uleb128 0xb
 2792 018a 00       		.byte	0
 2793 018b 00       		.byte	0
ARM GAS  /tmp/ccQAqQtk.s 			page 50


 2794 018c 21       		.uleb128 0x21
 2795 018d 21       		.uleb128 0x21
 2796 018e 00       		.byte	0
 2797 018f 00       		.byte	0
 2798 0190 00       		.byte	0
 2799 0191 22       		.uleb128 0x22
 2800 0192 04       		.uleb128 0x4
 2801 0193 01       		.byte	0x1
 2802 0194 0B       		.uleb128 0xb
 2803 0195 0B       		.uleb128 0xb
 2804 0196 49       		.uleb128 0x49
 2805 0197 13       		.uleb128 0x13
 2806 0198 3A       		.uleb128 0x3a
 2807 0199 0B       		.uleb128 0xb
 2808 019a 3B       		.uleb128 0x3b
 2809 019b 0B       		.uleb128 0xb
 2810 019c 01       		.uleb128 0x1
 2811 019d 13       		.uleb128 0x13
 2812 019e 00       		.byte	0
 2813 019f 00       		.byte	0
 2814 01a0 23       		.uleb128 0x23
 2815 01a1 28       		.uleb128 0x28
 2816 01a2 00       		.byte	0
 2817 01a3 03       		.uleb128 0x3
 2818 01a4 0E       		.uleb128 0xe
 2819 01a5 1C       		.uleb128 0x1c
 2820 01a6 0B       		.uleb128 0xb
 2821 01a7 00       		.byte	0
 2822 01a8 00       		.byte	0
 2823 01a9 24       		.uleb128 0x24
 2824 01aa 34       		.uleb128 0x34
 2825 01ab 00       		.byte	0
 2826 01ac 03       		.uleb128 0x3
 2827 01ad 08       		.uleb128 0x8
 2828 01ae 3A       		.uleb128 0x3a
 2829 01af 0B       		.uleb128 0xb
 2830 01b0 3B       		.uleb128 0x3b
 2831 01b1 0B       		.uleb128 0xb
 2832 01b2 49       		.uleb128 0x49
 2833 01b3 13       		.uleb128 0x13
 2834 01b4 3F       		.uleb128 0x3f
 2835 01b5 19       		.uleb128 0x19
 2836 01b6 3C       		.uleb128 0x3c
 2837 01b7 19       		.uleb128 0x19
 2838 01b8 00       		.byte	0
 2839 01b9 00       		.byte	0
 2840 01ba 25       		.uleb128 0x25
 2841 01bb 2E       		.uleb128 0x2e
 2842 01bc 00       		.byte	0
 2843 01bd 3F       		.uleb128 0x3f
 2844 01be 19       		.uleb128 0x19
 2845 01bf 03       		.uleb128 0x3
 2846 01c0 0E       		.uleb128 0xe
 2847 01c1 3A       		.uleb128 0x3a
 2848 01c2 0B       		.uleb128 0xb
 2849 01c3 3B       		.uleb128 0x3b
 2850 01c4 0B       		.uleb128 0xb
ARM GAS  /tmp/ccQAqQtk.s 			page 51


 2851 01c5 27       		.uleb128 0x27
 2852 01c6 19       		.uleb128 0x19
 2853 01c7 11       		.uleb128 0x11
 2854 01c8 01       		.uleb128 0x1
 2855 01c9 12       		.uleb128 0x12
 2856 01ca 06       		.uleb128 0x6
 2857 01cb 40       		.uleb128 0x40
 2858 01cc 18       		.uleb128 0x18
 2859 01cd 9742     		.uleb128 0x2117
 2860 01cf 19       		.uleb128 0x19
 2861 01d0 00       		.byte	0
 2862 01d1 00       		.byte	0
 2863 01d2 26       		.uleb128 0x26
 2864 01d3 2E       		.uleb128 0x2e
 2865 01d4 01       		.byte	0x1
 2866 01d5 3F       		.uleb128 0x3f
 2867 01d6 19       		.uleb128 0x19
 2868 01d7 03       		.uleb128 0x3
 2869 01d8 0E       		.uleb128 0xe
 2870 01d9 3A       		.uleb128 0x3a
 2871 01da 0B       		.uleb128 0xb
 2872 01db 3B       		.uleb128 0x3b
 2873 01dc 0B       		.uleb128 0xb
 2874 01dd 27       		.uleb128 0x27
 2875 01de 19       		.uleb128 0x19
 2876 01df 11       		.uleb128 0x11
 2877 01e0 01       		.uleb128 0x1
 2878 01e1 12       		.uleb128 0x12
 2879 01e2 06       		.uleb128 0x6
 2880 01e3 40       		.uleb128 0x40
 2881 01e4 18       		.uleb128 0x18
 2882 01e5 9742     		.uleb128 0x2117
 2883 01e7 19       		.uleb128 0x19
 2884 01e8 01       		.uleb128 0x1
 2885 01e9 13       		.uleb128 0x13
 2886 01ea 00       		.byte	0
 2887 01eb 00       		.byte	0
 2888 01ec 27       		.uleb128 0x27
 2889 01ed 898201   		.uleb128 0x4109
 2890 01f0 01       		.byte	0x1
 2891 01f1 11       		.uleb128 0x11
 2892 01f2 01       		.uleb128 0x1
 2893 01f3 31       		.uleb128 0x31
 2894 01f4 13       		.uleb128 0x13
 2895 01f5 00       		.byte	0
 2896 01f6 00       		.byte	0
 2897 01f7 28       		.uleb128 0x28
 2898 01f8 8A8201   		.uleb128 0x410a
 2899 01fb 00       		.byte	0
 2900 01fc 02       		.uleb128 0x2
 2901 01fd 18       		.uleb128 0x18
 2902 01fe 9142     		.uleb128 0x2111
 2903 0200 18       		.uleb128 0x18
 2904 0201 00       		.byte	0
 2905 0202 00       		.byte	0
 2906 0203 29       		.uleb128 0x29
 2907 0204 2E       		.uleb128 0x2e
ARM GAS  /tmp/ccQAqQtk.s 			page 52


 2908 0205 00       		.byte	0
 2909 0206 3F       		.uleb128 0x3f
 2910 0207 19       		.uleb128 0x19
 2911 0208 3C       		.uleb128 0x3c
 2912 0209 19       		.uleb128 0x19
 2913 020a 6E       		.uleb128 0x6e
 2914 020b 0E       		.uleb128 0xe
 2915 020c 03       		.uleb128 0x3
 2916 020d 0E       		.uleb128 0xe
 2917 020e 3A       		.uleb128 0x3a
 2918 020f 0B       		.uleb128 0xb
 2919 0210 3B       		.uleb128 0x3b
 2920 0211 05       		.uleb128 0x5
 2921 0212 00       		.byte	0
 2922 0213 00       		.byte	0
 2923 0214 00       		.byte	0
 2924              		.section	.debug_aranges,"",%progbits
 2925 0000 24000000 		.4byte	0x24
 2926 0004 0200     		.2byte	0x2
 2927 0006 00000000 		.4byte	.Ldebug_info0
 2928 000a 04       		.byte	0x4
 2929 000b 00       		.byte	0
 2930 000c 0000     		.2byte	0
 2931 000e 0000     		.2byte	0
 2932 0010 00000000 		.4byte	.LFB63
 2933 0014 40000000 		.4byte	.LFE63-.LFB63
 2934 0018 00000000 		.4byte	.LFB64
 2935 001c 8C000000 		.4byte	.LFE64-.LFB64
 2936 0020 00000000 		.4byte	0
 2937 0024 00000000 		.4byte	0
 2938              		.section	.debug_ranges,"",%progbits
 2939              	.Ldebug_ranges0:
 2940 0000 00000000 		.4byte	.LFB63
 2941 0004 40000000 		.4byte	.LFE63
 2942 0008 00000000 		.4byte	.LFB64
 2943 000c 8C000000 		.4byte	.LFE64
 2944 0010 00000000 		.4byte	0
 2945 0014 00000000 		.4byte	0
 2946              		.section	.debug_line,"",%progbits
 2947              	.Ldebug_line0:
 2948 0000 D9020000 		.section	.debug_str,"MS",%progbits,1
 2948      02006F02 
 2948      00000201 
 2948      FB0E0D00 
 2948      01010101 
 2949              	.LASF4:
 2950 0000 73697A65 		.ascii	"size_t\000"
 2950      5F7400
 2951              	.LASF58:
 2952 0007 73697A65 		.ascii	"sizetype\000"
 2952      74797065 
 2952      00
 2953              	.LASF118:
 2954 0010 63665F6F 		.ascii	"cf_off_name\000"
 2954      66665F6E 
 2954      616D6500 
 2955              	.LASF30:
ARM GAS  /tmp/ccQAqQtk.s 			page 53


 2956 001c 73797374 		.ascii	"systime_t\000"
 2956      696D655F 
 2956      7400
 2957              	.LASF107:
 2958 0026 63685F69 		.ascii	"ch_identifier\000"
 2958      64656E74 
 2958      69666965 
 2958      7200
 2959              	.LASF180:
 2960 0034 4C50435F 		.ascii	"LPC_SC_TypeDef\000"
 2960      53435F54 
 2960      79706544 
 2960      656600
 2961              	.LASF35:
 2962 0043 705F6374 		.ascii	"p_ctx\000"
 2962      7800
 2963              	.LASF26:
 2964 0049 74707269 		.ascii	"tprio_t\000"
 2964      6F5F7400 
 2965              	.LASF126:
 2966 0051 63685F64 		.ascii	"ch_debug\000"
 2966      65627567 
 2966      00
 2967              	.LASF145:
 2968 005a 464C4153 		.ascii	"FLASHCFG\000"
 2968      48434647 
 2968      00
 2969              	.LASF45:
 2970 0063 705F6D73 		.ascii	"p_msgqueue\000"
 2970      67717565 
 2970      756500
 2971              	.LASF84:
 2972 006e 725F6374 		.ascii	"r_ctx\000"
 2972      7800
 2973              	.LASF18:
 2974 0074 696E7433 		.ascii	"int32_t\000"
 2974      325F7400 
 2975              	.LASF228:
 2976 007c 77726974 		.ascii	"writet\000"
 2976      657400
 2977              	.LASF115:
 2978 0083 63665F6F 		.ascii	"cf_off_ctx\000"
 2978      66665F63 
 2978      747800
 2979              	.LASF152:
 2980 008e 504C4C31 		.ascii	"PLL1CON\000"
 2980      434F4E00 
 2981              	.LASF73:
 2982 0096 76746675 		.ascii	"vtfunc_t\000"
 2982      6E635F74 
 2982      00
 2983              	.LASF178:
 2984 009f 444D4152 		.ascii	"DMAREQSEL\000"
 2984      45515345 
 2984      4C00
 2985              	.LASF189:
 2986 00a9 4C50435F 		.ascii	"LPC_GPDMACH_TypeDef\000"
ARM GAS  /tmp/ccQAqQtk.s 			page 54


 2986      4750444D 
 2986      4143485F 
 2986      54797065 
 2986      44656600 
 2987              	.LASF224:
 2988 00bd 77726974 		.ascii	"write\000"
 2988      6500
 2989              	.LASF181:
 2990 00c3 43544352 		.ascii	"CTCR\000"
 2990      00
 2991              	.LASF99:
 2992 00c8 656C5F66 		.ascii	"el_flags\000"
 2992      6C616773 
 2992      00
 2993              	.LASF200:
 2994 00d1 67707473 		.ascii	"gptstate_t\000"
 2994      74617465 
 2994      5F7400
 2995              	.LASF203:
 2996 00dc 636F6E66 		.ascii	"config\000"
 2996      696700
 2997              	.LASF202:
 2998 00e3 73746174 		.ascii	"state\000"
 2998      6500
 2999              	.LASF226:
 3000 00e9 70757474 		.ascii	"putt\000"
 3000      00
 3001              	.LASF111:
 3002 00ee 63685F70 		.ascii	"ch_ptrsize\000"
 3002      74727369 
 3002      7A6500
 3003              	.LASF155:
 3004 00f9 504C4C31 		.ascii	"PLL1FEED\000"
 3004      46454544 
 3004      00
 3005              	.LASF208:
 3006 0102 63616C6C 		.ascii	"callback\000"
 3006      6261636B 
 3006      00
 3007              	.LASF93:
 3008 010b 6D5F6F77 		.ascii	"m_owner\000"
 3008      6E657200 
 3009              	.LASF79:
 3010 0113 76745F70 		.ascii	"vt_par\000"
 3010      617200
 3011              	.LASF103:
 3012 011a 65786974 		.ascii	"exitcode\000"
 3012      636F6465 
 3012      00
 3013              	.LASF5:
 3014 0123 5F5F7569 		.ascii	"__uint8_t\000"
 3014      6E74385F 
 3014      7400
 3015              	.LASF131:
 3016 012d 715F746F 		.ascii	"q_top\000"
 3016      7000
 3017              	.LASF185:
ARM GAS  /tmp/ccQAqQtk.s 			page 55


 3018 0133 43446573 		.ascii	"CDestAddr\000"
 3018      74416464 
 3018      7200
 3019              	.LASF105:
 3020 013d 65776D61 		.ascii	"ewmask\000"
 3020      736B00
 3021              	.LASF113:
 3022 0144 63685F74 		.ascii	"ch_threadsize\000"
 3022      68726561 
 3022      6473697A 
 3022      6500
 3023              	.LASF229:
 3024 0152 72656164 		.ascii	"readt\000"
 3024      7400
 3025              	.LASF130:
 3026 0158 715F6275 		.ascii	"q_buffer\000"
 3026      66666572 
 3026      00
 3027              	.LASF184:
 3028 0161 43537263 		.ascii	"CSrcAddr\000"
 3028      41646472 
 3028      00
 3029              	.LASF134:
 3030 016a 715F6E6F 		.ascii	"q_notify\000"
 3030      74696679 
 3030      00
 3031              	.LASF36:
 3032 0173 705F6E65 		.ascii	"p_newer\000"
 3032      77657200 
 3033              	.LASF11:
 3034 017b 6C6F6E67 		.ascii	"long int\000"
 3034      20696E74 
 3034      00
 3035              	.LASF32:
 3036 0184 705F6E65 		.ascii	"p_next\000"
 3036      787400
 3037              	.LASF133:
 3038 018b 715F7264 		.ascii	"q_rdptr\000"
 3038      70747200 
 3039              	.LASF120:
 3040 0193 63665F6F 		.ascii	"cf_off_state\000"
 3040      66665F73 
 3040      74617465 
 3040      00
 3041              	.LASF33:
 3042 01a0 705F7072 		.ascii	"p_prev\000"
 3042      657600
 3043              	.LASF210:
 3044 01a7 47505444 		.ascii	"GPTD1\000"
 3044      3100
 3045              	.LASF211:
 3046 01ad 47505444 		.ascii	"GPTD2\000"
 3046      3200
 3047              	.LASF212:
 3048 01b3 47505444 		.ascii	"GPTD3\000"
 3048      3300
 3049              	.LASF213:
ARM GAS  /tmp/ccQAqQtk.s 			page 56


 3050 01b9 47505444 		.ascii	"GPTD4\000"
 3050      3400
 3051              	.LASF60:
 3052 01bf 44435253 		.ascii	"DCRSR\000"
 3052      5200
 3053              	.LASF23:
 3054 01c5 74737461 		.ascii	"tstate_t\000"
 3054      74655F74 
 3054      00
 3055              	.LASF48:
 3056 01ce 705F6D74 		.ascii	"p_mtxlist\000"
 3056      786C6973 
 3056      7400
 3057              	.LASF221:
 3058 01d8 6F717565 		.ascii	"oqueue\000"
 3058      756500
 3059              	.LASF53:
 3060 01df 72656761 		.ascii	"regarm_t\000"
 3060      726D5F74 
 3060      00
 3061              	.LASF194:
 3062 01e8 70616C5F 		.ascii	"pal_default_config\000"
 3062      64656661 
 3062      756C745F 
 3062      636F6E66 
 3062      696700
 3063              	.LASF3:
 3064 01fb 7369676E 		.ascii	"signed char\000"
 3064      65642063 
 3064      68617200 
 3065              	.LASF42:
 3066 0207 705F7072 		.ascii	"p_preempt\000"
 3066      65656D70 
 3066      7400
 3067              	.LASF16:
 3068 0211 75696E74 		.ascii	"uint8_t\000"
 3068      385F7400 
 3069              	.LASF68:
 3070 0219 534C4545 		.ascii	"SLEEPCNT\000"
 3070      50434E54 
 3070      00
 3071              	.LASF234:
 3072 0222 68616C5F 		.ascii	"hal_lld_init\000"
 3072      6C6C645F 
 3072      696E6974 
 3072      00
 3073              	.LASF28:
 3074 022f 6576656E 		.ascii	"eventmask_t\000"
 3074      746D6173 
 3074      6B5F7400 
 3075              	.LASF56:
 3076 023b 636F6E74 		.ascii	"context\000"
 3076      65787400 
 3077              	.LASF146:
 3078 0243 52455345 		.ascii	"RESERVED0\000"
 3078      52564544 
 3078      3000
ARM GAS  /tmp/ccQAqQtk.s 			page 57


 3079              	.LASF151:
 3080 024d 52455345 		.ascii	"RESERVED1\000"
 3080      52564544 
 3080      3100
 3081              	.LASF6:
 3082 0257 756E7369 		.ascii	"unsigned char\000"
 3082      676E6564 
 3082      20636861 
 3082      7200
 3083              	.LASF159:
 3084 0265 52455345 		.ascii	"RESERVED3\000"
 3084      52564544 
 3084      3300
 3085              	.LASF165:
 3086 026f 52455345 		.ascii	"RESERVED4\000"
 3086      52564544 
 3086      3400
 3087              	.LASF135:
 3088 0279 715F6C69 		.ascii	"q_link\000"
 3088      6E6B00
 3089              	.LASF170:
 3090 0280 52455345 		.ascii	"RESERVED6\000"
 3090      52564544 
 3090      3600
 3091              	.LASF172:
 3092 028a 52455345 		.ascii	"RESERVED7\000"
 3092      52564544 
 3092      3700
 3093              	.LASF176:
 3094 0294 52455345 		.ascii	"RESERVED8\000"
 3094      52564544 
 3094      3800
 3095              	.LASF76:
 3096 029e 76745F70 		.ascii	"vt_prev\000"
 3096      72657600 
 3097              	.LASF148:
 3098 02a6 504C4C30 		.ascii	"PLL0CFG\000"
 3098      43464700 
 3099              	.LASF150:
 3100 02ae 504C4C30 		.ascii	"PLL0FEED\000"
 3100      46454544 
 3100      00
 3101              	.LASF85:
 3102 02b7 725F6E65 		.ascii	"r_newer\000"
 3102      77657200 
 3103              	.LASF214:
 3104 02bf 53445F55 		.ascii	"SD_UNINIT\000"
 3104      4E494E49 
 3104      5400
 3105              	.LASF21:
 3106 02c9 5F426F6F 		.ascii	"_Bool\000"
 3106      6C00
 3107              	.LASF177:
 3108 02cf 55534249 		.ascii	"USBIntSt\000"
 3108      6E745374 
 3108      00
 3109              	.LASF156:
ARM GAS  /tmp/ccQAqQtk.s 			page 58


 3110 02d8 52455345 		.ascii	"RESERVED2\000"
 3110      52564544 
 3110      3200
 3111              	.LASF167:
 3112 02e2 52455345 		.ascii	"RESERVED5\000"
 3112      52564544 
 3112      3500
 3113              	.LASF106:
 3114 02ec 63686172 		.ascii	"char\000"
 3114      00
 3115              	.LASF195:
 3116 02f1 4750545F 		.ascii	"GPT_UNINIT\000"
 3116      554E494E 
 3116      495400
 3117              	.LASF34:
 3118 02fc 705F7072 		.ascii	"p_prio\000"
 3118      696F00
 3119              	.LASF8:
 3120 0303 5F5F7569 		.ascii	"__uint16_t\000"
 3120      6E743136 
 3120      5F7400
 3121              	.LASF127:
 3122 030e 47656E65 		.ascii	"GenericQueue\000"
 3122      72696351 
 3122      75657565 
 3122      00
 3123              	.LASF169:
 3124 031b 45585450 		.ascii	"EXTPOLAR\000"
 3124      4F4C4152 
 3124      00
 3125              	.LASF104:
 3126 0324 77746F62 		.ascii	"wtobjp\000"
 3126      6A7000
 3127              	.LASF66:
 3128 032b 43504943 		.ascii	"CPICNT\000"
 3128      4E5400
 3129              	.LASF116:
 3130 0332 63665F6F 		.ascii	"cf_off_newer\000"
 3130      66665F6E 
 3130      65776572 
 3130      00
 3131              	.LASF227:
 3132 033f 67657474 		.ascii	"gett\000"
 3132      00
 3133              	.LASF54:
 3134 0344 73746B61 		.ascii	"stkalign_t\000"
 3134      6C69676E 
 3134      5F7400
 3135              	.LASF138:
 3136 034f 4F757470 		.ascii	"OutputQueue\000"
 3136      75745175 
 3136      65756500 
 3137              	.LASF114:
 3138 035b 63665F6F 		.ascii	"cf_off_prio\000"
 3138      66665F70 
 3138      72696F00 
 3139              	.LASF78:
ARM GAS  /tmp/ccQAqQtk.s 			page 59


 3140 0367 76745F66 		.ascii	"vt_func\000"
 3140      756E6300 
 3141              	.LASF55:
 3142 036f 696E7463 		.ascii	"intctx\000"
 3142      747800
 3143              	.LASF47:
 3144 0376 705F6570 		.ascii	"p_epending\000"
 3144      656E6469 
 3144      6E6700
 3145              	.LASF166:
 3146 0381 45585449 		.ascii	"EXTINT\000"
 3146      4E5400
 3147              	.LASF160:
 3148 0388 43434C4B 		.ascii	"CCLKCFG\000"
 3148      43464700 
 3149              	.LASF174:
 3150 0390 50434C4B 		.ascii	"PCLKSEL0\000"
 3150      53454C30 
 3150      00
 3151              	.LASF175:
 3152 0399 50434C4B 		.ascii	"PCLKSEL1\000"
 3152      53454C31 
 3152      00
 3153              	.LASF101:
 3154 03a2 65735F6E 		.ascii	"es_next\000"
 3154      65787400 
 3155              	.LASF129:
 3156 03aa 715F636F 		.ascii	"q_counter\000"
 3156      756E7465 
 3156      7200
 3157              	.LASF69:
 3158 03b4 4C535543 		.ascii	"LSUCNT\000"
 3158      4E5400
 3159              	.LASF187:
 3160 03bb 43436F6E 		.ascii	"CControl\000"
 3160      74726F6C 
 3160      00
 3161              	.LASF100:
 3162 03c4 4576656E 		.ascii	"EventSource\000"
 3162      74536F75 
 3162      72636500 
 3163              	.LASF14:
 3164 03d0 5F5F7569 		.ascii	"__uint64_t\000"
 3164      6E743634 
 3164      5F7400
 3165              	.LASF13:
 3166 03db 6C6F6E67 		.ascii	"long unsigned int\000"
 3166      20756E73 
 3166      69676E65 
 3166      6420696E 
 3166      7400
 3167              	.LASF108:
 3168 03ed 63685F7A 		.ascii	"ch_zero\000"
 3168      65726F00 
 3169              	.LASF233:
 3170 03f5 4C504331 		.ascii	"LPC17xx_clock_init\000"
 3170      3778785F 
ARM GAS  /tmp/ccQAqQtk.s 			page 60


 3170      636C6F63 
 3170      6B5F696E 
 3170      697400
 3171              	.LASF144:
 3172 0408 53797374 		.ascii	"SystemCoreClock\000"
 3172      656D436F 
 3172      7265436C 
 3172      6F636B00 
 3173              	.LASF206:
 3174 0418 67707466 		.ascii	"gptfreq_t\000"
 3174      7265715F 
 3174      7400
 3175              	.LASF235:
 3176 0422 6E766963 		.ascii	"nvicSetSystemHandlerPriority\000"
 3176      53657453 
 3176      79737465 
 3176      6D48616E 
 3176      646C6572 
 3177              	.LASF163:
 3178 043f 43414E53 		.ascii	"CANSLEEPCLR\000"
 3178      4C454550 
 3178      434C5200 
 3179              	.LASF96:
 3180 044b 656C5F6E 		.ascii	"el_next\000"
 3180      65787400 
 3181              	.LASF132:
 3182 0453 715F7772 		.ascii	"q_wrptr\000"
 3182      70747200 
 3183              	.LASF190:
 3184 045b 5F6C7063 		.ascii	"_lpc17xx_dma_channel_config_t\000"
 3184      31377878 
 3184      5F646D61 
 3184      5F636861 
 3184      6E6E656C 
 3185              	.LASF223:
 3186 0479 53657269 		.ascii	"SerialDriverVMT\000"
 3186      616C4472 
 3186      69766572 
 3186      564D5400 
 3187              	.LASF204:
 3188 0489 636C6F63 		.ascii	"clock\000"
 3188      6B00
 3189              	.LASF209:
 3190 048f 47505443 		.ascii	"GPTConfig\000"
 3190      6F6E6669 
 3190      6700
 3191              	.LASF162:
 3192 0499 434C4B53 		.ascii	"CLKSRCSEL\000"
 3192      52435345 
 3192      4C00
 3193              	.LASF123:
 3194 04a3 63665F6F 		.ascii	"cf_off_preempt\000"
 3194      66665F70 
 3194      7265656D 
 3194      707400
 3195              	.LASF12:
 3196 04b2 5F5F7569 		.ascii	"__uint32_t\000"
ARM GAS  /tmp/ccQAqQtk.s 			page 61


 3196      6E743332 
 3196      5F7400
 3197              	.LASF91:
 3198 04bd 4D757465 		.ascii	"Mutex\000"
 3198      7800
 3199              	.LASF1:
 3200 04c3 6C6F6E67 		.ascii	"long long int\000"
 3200      206C6F6E 
 3200      6720696E 
 3200      7400
 3201              	.LASF110:
 3202 04d1 63685F76 		.ascii	"ch_version\000"
 3202      65727369 
 3202      6F6E00
 3203              	.LASF92:
 3204 04dc 6D5F7175 		.ascii	"m_queue\000"
 3204      65756500 
 3205              	.LASF201:
 3206 04e4 47505444 		.ascii	"GPTDriver\000"
 3206      72697665 
 3206      7200
 3207              	.LASF75:
 3208 04ee 76745F6E 		.ascii	"vt_next\000"
 3208      65787400 
 3209              	.LASF147:
 3210 04f6 504C4C30 		.ascii	"PLL0CON\000"
 3210      434F4E00 
 3211              	.LASF140:
 3212 04fe 4C4F4144 		.ascii	"LOAD\000"
 3212      00
 3213              	.LASF158:
 3214 0503 50434F4E 		.ascii	"PCONP\000"
 3214      5000
 3215              	.LASF207:
 3216 0509 66726571 		.ascii	"frequency\000"
 3216      75656E63 
 3216      7900
 3217              	.LASF136:
 3218 0513 716E6F74 		.ascii	"qnotify_t\000"
 3218      6966795F 
 3218      7400
 3219              	.LASF199:
 3220 051d 4750545F 		.ascii	"GPT_ONESHOT\000"
 3220      4F4E4553 
 3220      484F5400 
 3221              	.LASF44:
 3222 0529 705F7761 		.ascii	"p_waiting\000"
 3222      6974696E 
 3222      6700
 3223              	.LASF219:
 3224 0533 6576656E 		.ascii	"event\000"
 3224      7400
 3225              	.LASF40:
 3226 0539 705F666C 		.ascii	"p_flags\000"
 3226      61677300 
 3227              	.LASF225:
 3228 0541 72656164 		.ascii	"read\000"
ARM GAS  /tmp/ccQAqQtk.s 			page 62


 3228      00
 3229              	.LASF154:
 3230 0546 504C4C31 		.ascii	"PLL1STAT\000"
 3230      53544154 
 3230      00
 3231              	.LASF0:
 3232 054f 756E7369 		.ascii	"unsigned int\000"
 3232      676E6564 
 3232      20696E74 
 3232      00
 3233              	.LASF64:
 3234 055c 4354524C 		.ascii	"CTRL\000"
 3234      00
 3235              	.LASF231:
 3236 0561 2E2E2F2E 		.ascii	"../../os/hal/platforms/LPC17xx/hal_lld.c\000"
 3236      2E2F6F73 
 3236      2F68616C 
 3236      2F706C61 
 3236      74666F72 
 3237              	.LASF50:
 3238 058a 705F6D70 		.ascii	"p_mpool\000"
 3238      6F6F6C00 
 3239              	.LASF72:
 3240 0592 434D785F 		.ascii	"CMx_DWT\000"
 3240      44575400 
 3241              	.LASF41:
 3242 059a 705F7265 		.ascii	"p_refs\000"
 3242      667300
 3243              	.LASF67:
 3244 05a1 45584343 		.ascii	"EXCCNT\000"
 3244      4E5400
 3245              	.LASF112:
 3246 05a8 63685F74 		.ascii	"ch_timesize\000"
 3246      696D6573 
 3246      697A6500 
 3247              	.LASF57:
 3248 05b4 494F5245 		.ascii	"IOREG32\000"
 3248      47333200 
 3249              	.LASF230:
 3250 05bc 474E5520 		.ascii	"GNU C11 6.3.1 20170620 -mcpu=cortex-m3 -mno-thumb-i"
 3250      43313120 
 3250      362E332E 
 3250      31203230 
 3250      31373036 
 3251 05ef 6E746572 		.ascii	"nterwork -mthumb -ggdb -O2 -fomit-frame-pointer -ff"
 3251      776F726B 
 3251      202D6D74 
 3251      68756D62 
 3251      202D6767 
 3252 0622 756E6374 		.ascii	"unction-sections -fdata-sections -fno-common\000"
 3252      696F6E2D 
 3252      73656374 
 3252      696F6E73 
 3252      202D6664 
 3253              	.LASF52:
 3254 064f 54687265 		.ascii	"ThreadsList\000"
 3254      6164734C 
ARM GAS  /tmp/ccQAqQtk.s 			page 63


 3254      69737400 
 3255              	.LASF157:
 3256 065b 50434F4E 		.ascii	"PCON\000"
 3256      00
 3257              	.LASF29:
 3258 0660 666C6167 		.ascii	"flagsmask_t\000"
 3258      736D6173 
 3258      6B5F7400 
 3259              	.LASF173:
 3260 066c 49524354 		.ascii	"IRCTRIM\000"
 3260      52494D00 
 3261              	.LASF179:
 3262 0674 434C4B4F 		.ascii	"CLKOUTCFG\000"
 3262      55544346 
 3262      4700
 3263              	.LASF43:
 3264 067e 705F7469 		.ascii	"p_time\000"
 3264      6D6500
 3265              	.LASF122:
 3266 0685 63665F6F 		.ascii	"cf_off_refs\000"
 3266      66665F72 
 3266      65667300 
 3267              	.LASF182:
 3268 0691 4C50435F 		.ascii	"LPC_TIM_TypeDef\000"
 3268      54494D5F 
 3268      54797065 
 3268      44656600 
 3269              	.LASF142:
 3270 06a1 53797354 		.ascii	"SysTick_Type\000"
 3270      69636B5F 
 3270      54797065 
 3270      00
 3271              	.LASF171:
 3272 06ae 52534944 		.ascii	"RSID\000"
 3272      00
 3273              	.LASF62:
 3274 06b3 44454D43 		.ascii	"DEMCR\000"
 3274      5200
 3275              	.LASF2:
 3276 06b9 6C6F6E67 		.ascii	"long double\000"
 3276      20646F75 
 3276      626C6500 
 3277              	.LASF49:
 3278 06c5 705F7265 		.ascii	"p_realprio\000"
 3278      616C7072 
 3278      696F00
 3279              	.LASF124:
 3280 06d0 63665F6F 		.ascii	"cf_off_time\000"
 3280      66665F74 
 3280      696D6500 
 3281              	.LASF59:
 3282 06dc 44484353 		.ascii	"DHCSR\000"
 3282      5200
 3283              	.LASF61:
 3284 06e2 44435244 		.ascii	"DCRDR\000"
 3284      5200
 3285              	.LASF232:
ARM GAS  /tmp/ccQAqQtk.s 			page 64


 3286 06e8 2F686F6D 		.ascii	"/home/ekobayu/Arok-Gandring-Lokajaya/LPC/ChibiOS-RT"
 3286      652F656B 
 3286      6F626179 
 3286      752F4172 
 3286      6F6B2D47 
 3287 071b 2D4C5043 		.ascii	"-LPC/demos/LPC1766\000"
 3287      2F64656D 
 3287      6F732F4C 
 3287      50433137 
 3287      363600
 3288              	.LASF15:
 3289 072e 6C6F6E67 		.ascii	"long long unsigned int\000"
 3289      206C6F6E 
 3289      6720756E 
 3289      7369676E 
 3289      65642069 
 3290              	.LASF37:
 3291 0745 705F6F6C 		.ascii	"p_older\000"
 3291      64657200 
 3292              	.LASF17:
 3293 074d 75696E74 		.ascii	"uint16_t\000"
 3293      31365F74 
 3293      00
 3294              	.LASF27:
 3295 0756 6D73675F 		.ascii	"msg_t\000"
 3295      7400
 3296              	.LASF121:
 3297 075c 63665F6F 		.ascii	"cf_off_flags\000"
 3297      66665F66 
 3297      6C616773 
 3297      00
 3298              	.LASF149:
 3299 0769 504C4C30 		.ascii	"PLL0STAT\000"
 3299      53544154 
 3299      00
 3300              	.LASF25:
 3301 0772 74736C69 		.ascii	"tslices_t\000"
 3301      6365735F 
 3301      7400
 3302              	.LASF197:
 3303 077c 4750545F 		.ascii	"GPT_READY\000"
 3303      52454144 
 3303      5900
 3304              	.LASF198:
 3305 0786 4750545F 		.ascii	"GPT_CONTINUOUS\000"
 3305      434F4E54 
 3305      494E554F 
 3305      555300
 3306              	.LASF87:
 3307 0795 725F6375 		.ascii	"r_current\000"
 3307      7272656E 
 3307      7400
 3308              	.LASF81:
 3309 079f 56544C69 		.ascii	"VTList\000"
 3309      737400
 3310              	.LASF183:
 3311 07a6 4C50435F 		.ascii	"LPC_UART_TypeDef\000"
ARM GAS  /tmp/ccQAqQtk.s 			page 65


 3311      55415254 
 3311      5F547970 
 3311      65446566 
 3311      00
 3312              	.LASF71:
 3313 07b7 50435352 		.ascii	"PCSR\000"
 3313      00
 3314              	.LASF153:
 3315 07bc 504C4C31 		.ascii	"PLL1CFG\000"
 3315      43464700 
 3316              	.LASF186:
 3317 07c4 434C4C49 		.ascii	"CLLI\000"
 3317      00
 3318              	.LASF82:
 3319 07c9 725F7175 		.ascii	"r_queue\000"
 3319      65756500 
 3320              	.LASF218:
 3321 07d1 53657269 		.ascii	"SerialDriver\000"
 3321      616C4472 
 3321      69766572 
 3321      00
 3322              	.LASF141:
 3323 07de 43414C49 		.ascii	"CALIB\000"
 3323      4200
 3324              	.LASF161:
 3325 07e4 55534243 		.ascii	"USBCLKCFG\000"
 3325      4C4B4346 
 3325      4700
 3326              	.LASF128:
 3327 07ee 715F7761 		.ascii	"q_waiting\000"
 3327      6974696E 
 3327      6700
 3328              	.LASF90:
 3329 07f8 726C6973 		.ascii	"rlist\000"
 3329      7400
 3330              	.LASF22:
 3331 07fe 746D6F64 		.ascii	"tmode_t\000"
 3331      655F7400 
 3332              	.LASF217:
 3333 0806 73647374 		.ascii	"sdstate_t\000"
 3333      6174655F 
 3333      7400
 3334              	.LASF80:
 3335 0810 76745F73 		.ascii	"vt_systime\000"
 3335      79737469 
 3335      6D6500
 3336              	.LASF216:
 3337 081b 53445F52 		.ascii	"SD_READY\000"
 3337      45414459 
 3337      00
 3338              	.LASF86:
 3339 0824 725F6F6C 		.ascii	"r_older\000"
 3339      64657200 
 3340              	.LASF168:
 3341 082c 4558544D 		.ascii	"EXTMODE\000"
 3341      4F444500 
 3342              	.LASF7:
ARM GAS  /tmp/ccQAqQtk.s 			page 66


 3343 0834 73686F72 		.ascii	"short int\000"
 3343      7420696E 
 3343      7400
 3344              	.LASF20:
 3345 083e 75696E74 		.ascii	"uint64_t\000"
 3345      36345F74 
 3345      00
 3346              	.LASF222:
 3347 0847 75617274 		.ascii	"uart\000"
 3347      00
 3348              	.LASF220:
 3349 084c 69717565 		.ascii	"iqueue\000"
 3349      756500
 3350              	.LASF83:
 3351 0853 725F7072 		.ascii	"r_prio\000"
 3351      696F00
 3352              	.LASF192:
 3353 085a 6C706331 		.ascii	"lpc17xx_gpio_setup_t\000"
 3353      3778785F 
 3353      6770696F 
 3353      5F736574 
 3353      75705F74 
 3354              	.LASF117:
 3355 086f 63665F6F 		.ascii	"cf_off_older\000"
 3355      66665F6F 
 3355      6C646572 
 3355      00
 3356              	.LASF193:
 3357 087c 50414C43 		.ascii	"PALConfig\000"
 3357      6F6E6669 
 3357      6700
 3358              	.LASF31:
 3359 0886 54687265 		.ascii	"Thread\000"
 3359      616400
 3360              	.LASF143:
 3361 088d 49544D5F 		.ascii	"ITM_RxBuffer\000"
 3361      52784275 
 3361      66666572 
 3361      00
 3362              	.LASF89:
 3363 089a 76746C69 		.ascii	"vtlist\000"
 3363      737400
 3364              	.LASF188:
 3365 08a1 43436F6E 		.ascii	"CConfig\000"
 3365      66696700 
 3366              	.LASF65:
 3367 08a9 43594343 		.ascii	"CYCCNT\000"
 3367      4E5400
 3368              	.LASF24:
 3369 08b0 74726566 		.ascii	"trefs_t\000"
 3369      735F7400 
 3370              	.LASF139:
 3371 08b8 5F69646C 		.ascii	"_idle_thread_wa\000"
 3371      655F7468 
 3371      72656164 
 3371      5F776100 
 3372              	.LASF119:
ARM GAS  /tmp/ccQAqQtk.s 			page 67


 3373 08c8 63665F6F 		.ascii	"cf_off_stklimit\000"
 3373      66665F73 
 3373      746B6C69 
 3373      6D697400 
 3374              	.LASF95:
 3375 08d8 4576656E 		.ascii	"EventListener\000"
 3375      744C6973 
 3375      74656E65 
 3375      7200
 3376              	.LASF19:
 3377 08e6 75696E74 		.ascii	"uint32_t\000"
 3377      33325F74 
 3377      00
 3378              	.LASF74:
 3379 08ef 56697274 		.ascii	"VirtualTimer\000"
 3379      75616C54 
 3379      696D6572 
 3379      00
 3380              	.LASF51:
 3381 08fc 54687265 		.ascii	"ThreadsQueue\000"
 3381      61647351 
 3381      75657565 
 3381      00
 3382              	.LASF102:
 3383 0909 7264796D 		.ascii	"rdymsg\000"
 3383      736700
 3384              	.LASF196:
 3385 0910 4750545F 		.ascii	"GPT_STOP\000"
 3385      53544F50 
 3385      00
 3386              	.LASF9:
 3387 0919 73686F72 		.ascii	"short unsigned int\000"
 3387      7420756E 
 3387      7369676E 
 3387      65642069 
 3387      6E7400
 3388              	.LASF63:
 3389 092c 434D785F 		.ascii	"CMx_SCS\000"
 3389      53435300 
 3390              	.LASF125:
 3391 0934 63686465 		.ascii	"chdebug_t\000"
 3391      6275675F 
 3391      7400
 3392              	.LASF137:
 3393 093e 496E7075 		.ascii	"InputQueue\000"
 3393      74517565 
 3393      756500
 3394              	.LASF109:
 3395 0949 63685F73 		.ascii	"ch_size\000"
 3395      697A6500 
 3396              	.LASF164:
 3397 0951 43414E57 		.ascii	"CANWAKEFLAGS\000"
 3397      414B4546 
 3397      4C414753 
 3397      00
 3398              	.LASF10:
 3399 095e 5F5F696E 		.ascii	"__int32_t\000"
ARM GAS  /tmp/ccQAqQtk.s 			page 68


 3399      7433325F 
 3399      7400
 3400              	.LASF215:
 3401 0968 53445F53 		.ascii	"SD_STOP\000"
 3401      544F5000 
 3402              	.LASF70:
 3403 0970 464F4C44 		.ascii	"FOLDCNT\000"
 3403      434E5400 
 3404              	.LASF98:
 3405 0978 656C5F6D 		.ascii	"el_mask\000"
 3405      61736B00 
 3406              	.LASF88:
 3407 0980 52656164 		.ascii	"ReadyList\000"
 3407      794C6973 
 3407      7400
 3408              	.LASF38:
 3409 098a 705F6E61 		.ascii	"p_name\000"
 3409      6D6500
 3410              	.LASF77:
 3411 0991 76745F74 		.ascii	"vt_time\000"
 3411      696D6500 
 3412              	.LASF191:
 3413 0999 64617461 		.ascii	"data\000"
 3413      00
 3414              	.LASF94:
 3415 099e 6D5F6E65 		.ascii	"m_next\000"
 3415      787400
 3416              	.LASF205:
 3417 09a5 67707463 		.ascii	"gptcallback_t\000"
 3417      616C6C62 
 3417      61636B5F 
 3417      7400
 3418              	.LASF46:
 3419 09b3 705F6D73 		.ascii	"p_msg\000"
 3419      6700
 3420              	.LASF97:
 3421 09b9 656C5F6C 		.ascii	"el_listener\000"
 3421      69737465 
 3421      6E657200 
 3422              	.LASF39:
 3423 09c5 705F7374 		.ascii	"p_state\000"
 3423      61746500 
 3424              		.ident	"GCC: (15:6.3.1+svn253039-1build1) 6.3.1 20170620"
ARM GAS  /tmp/ccQAqQtk.s 			page 69


DEFINED SYMBOLS
                            *ABS*:0000000000000000 hal_lld.c
     /tmp/ccQAqQtk.s:16     .text.hal_lld_init:0000000000000000 $t
     /tmp/ccQAqQtk.s:24     .text.hal_lld_init:0000000000000000 hal_lld_init
     /tmp/ccQAqQtk.s:70     .text.hal_lld_init:0000000000000030 $d
     /tmp/ccQAqQtk.s:78     .text.LPC17xx_clock_init:0000000000000000 $t
     /tmp/ccQAqQtk.s:86     .text.LPC17xx_clock_init:0000000000000000 LPC17xx_clock_init
     /tmp/ccQAqQtk.s:177    .text.LPC17xx_clock_init:0000000000000080 $d
                     .debug_frame:0000000000000010 $d

UNDEFINED SYMBOLS
nvicSetSystemHandlerPriority
