ARM GAS  /tmp/ccebz8JA.s 			page 1


   1              		.cpu cortex-m3
   2              		.eabi_attribute 20, 1
   3              		.eabi_attribute 21, 1
   4              		.eabi_attribute 23, 3
   5              		.eabi_attribute 24, 1
   6              		.eabi_attribute 25, 1
   7              		.eabi_attribute 26, 1
   8              		.eabi_attribute 30, 2
   9              		.eabi_attribute 34, 1
  10              		.eabi_attribute 18, 4
  11              		.file	"hal_lld.c"
  12              		.text
  13              	.Ltext0:
  14              		.cfi_sections	.debug_frame
  15              		.section	.text.hal_lld_init,"ax",%progbits
  16              		.align	1
  17              		.p2align 2,,3
  18              		.global	hal_lld_init
  19              		.syntax unified
  20              		.thumb
  21              		.thumb_func
  22              		.fpu softvfp
  23              		.type	hal_lld_init, %function
  24              	hal_lld_init:
  25              	.LFB63:
  26              		.file 1 "../../os/hal/platforms/LPC17xx/hal_lld.c"
  27              		.loc 1 58 0
  28              		.cfi_startproc
  29              		@ args = 0, pretend = 0, frame = 0
  30              		@ frame_needed = 0, uses_anonymous_args = 0
  31 0000 10B5     		push	{r4, lr}
  32              		.cfi_def_cfa_offset 8
  33              		.cfi_offset 4, -8
  34              		.cfi_offset 14, -4
  35              		.loc 1 61 0
  36 0002 0421     		movs	r1, #4
  37 0004 0B20     		movs	r0, #11
  38 0006 FFF7FEFF 		bl	nvicSetSystemHandlerPriority
  39              	.LVL0:
  40              		.loc 1 64 0
  41 000a 0722     		movs	r2, #7
  42              		.loc 1 63 0
  43 000c 0020     		movs	r0, #0
  44              		.loc 1 62 0
  45 000e 084B     		ldr	r3, .L3
  46 0010 084C     		ldr	r4, .L3+4
  47              		.loc 1 69 0
  48 0012 0949     		ldr	r1, .L3+8
  49              		.loc 1 62 0
  50 0014 5C60     		str	r4, [r3, #4]
  51              		.loc 1 63 0
  52 0016 9860     		str	r0, [r3, #8]
  53              		.loc 1 64 0
  54 0018 1A60     		str	r2, [r3]
  55              		.loc 1 69 0
  56 001a CB68     		ldr	r3, [r1, #12]
  57              		.loc 1 70 0
ARM GAS  /tmp/ccebz8JA.s 			page 2


  58 001c 074A     		ldr	r2, .L3+12
  59              		.loc 1 69 0
  60 001e 43F08073 		orr	r3, r3, #16777216
  61 0022 CB60     		str	r3, [r1, #12]
  62              		.loc 1 70 0
  63 0024 1368     		ldr	r3, [r2]
  64 0026 43F00103 		orr	r3, r3, #1
  65 002a 1360     		str	r3, [r2]
  66 002c 10BD     		pop	{r4, pc}
  67              	.L4:
  68 002e 00BF     		.align	2
  69              	.L3:
  70 0030 10E000E0 		.word	-536813552
  71 0034 69810100 		.word	98665
  72 0038 F0ED00E0 		.word	-536810000
  73 003c 001000E0 		.word	-536866816
  74              		.cfi_endproc
  75              	.LFE63:
  76              		.size	hal_lld_init, .-hal_lld_init
  77              		.section	.text.LPC17xx_clock_init,"ax",%progbits
  78              		.align	1
  79              		.p2align 2,,3
  80              		.global	LPC17xx_clock_init
  81              		.syntax unified
  82              		.thumb
  83              		.thumb_func
  84              		.fpu softvfp
  85              		.type	LPC17xx_clock_init, %function
  86              	LPC17xx_clock_init:
  87              	.LFB64:
  88              		.loc 1 84 0
  89              		.cfi_startproc
  90              		@ args = 0, pretend = 0, frame = 0
  91              		@ frame_needed = 0, uses_anonymous_args = 0
  92              		.loc 1 87 0
  93 0000 1F4B     		ldr	r3, .L14
  94              		.loc 1 84 0
  95 0002 F0B5     		push	{r4, r5, r6, r7, lr}
  96              		.cfi_def_cfa_offset 20
  97              		.cfi_offset 4, -20
  98              		.cfi_offset 5, -16
  99              		.cfi_offset 6, -12
 100              		.cfi_offset 7, -8
 101              		.cfi_offset 14, -4
 102              		.loc 1 111 0
 103 0004 5520     		movs	r0, #85
 104              		.loc 1 110 0
 105 0006 AA24     		movs	r4, #170
 106              		.loc 1 102 0
 107 0008 4FF0020E 		mov	lr, #2
 108              		.loc 1 104 0
 109 000c 0027     		movs	r7, #0
 110              		.loc 1 109 0
 111 000e 2426     		movs	r6, #36
 112              		.loc 1 113 0
 113 0010 0125     		movs	r5, #1
 114              		.loc 1 116 0
ARM GAS  /tmp/ccebz8JA.s 			page 3


 115 0012 1A46     		mov	r2, r3
 116              		.loc 1 87 0
 117 0014 1968     		ldr	r1, [r3]
 118              		.loc 1 99 0
 119 0016 DFF870C0 		ldr	ip, .L14+8
 120              		.loc 1 87 0
 121 001a 21F47041 		bic	r1, r1, #61440
 122 001e 41F48041 		orr	r1, r1, #16384
 123 0022 1960     		str	r1, [r3]
 124              		.loc 1 100 0
 125 0024 1749     		ldr	r1, .L14+4
 126              		.loc 1 99 0
 127 0026 C3F8A8C1 		str	ip, [r3, #424]
 128              		.loc 1 100 0
 129 002a C3F8AC11 		str	r1, [r3, #428]
 130              		.loc 1 102 0
 131 002e C3F804E1 		str	lr, [r3, #260]
 132              		.loc 1 104 0
 133 0032 C3F80C71 		str	r7, [r3, #268]
 134              		.loc 1 109 0
 135 0036 C3F88460 		str	r6, [r3, #132]
 136              		.loc 1 110 0
 137 003a C3F88C40 		str	r4, [r3, #140]
 138              		.loc 1 111 0
 139 003e C3F88C00 		str	r0, [r3, #140]
 140              		.loc 1 113 0
 141 0042 C3F88050 		str	r5, [r3, #128]
 142              		.loc 1 114 0
 143 0046 C3F88C40 		str	r4, [r3, #140]
 144              		.loc 1 115 0
 145 004a C3F88C00 		str	r0, [r3, #140]
 146              	.L6:
 147              		.loc 1 116 0 discriminator 1
 148 004e D2F88830 		ldr	r3, [r2, #136]
 149 0052 5B01     		lsls	r3, r3, #5
 150 0054 FBD5     		bpl	.L6
 151              		.loc 1 119 0
 152 0056 0324     		movs	r4, #3
 153              		.loc 1 120 0
 154 0058 AA20     		movs	r0, #170
 155              		.loc 1 121 0
 156 005a 5523     		movs	r3, #85
 157              		.loc 1 122 0
 158 005c 0849     		ldr	r1, .L14
 159              		.loc 1 119 0
 160 005e C2F88040 		str	r4, [r2, #128]
 161              		.loc 1 120 0
 162 0062 C2F88C00 		str	r0, [r2, #140]
 163              		.loc 1 121 0
 164 0066 C2F88C30 		str	r3, [r2, #140]
 165              	.L7:
 166              		.loc 1 122 0 discriminator 1
 167 006a D1F88830 		ldr	r3, [r1, #136]
 168 006e 13F0407F 		tst	r3, #50331648
 169 0072 FAD0     		beq	.L7
 170              		.loc 1 151 0
 171 0074 4FF40243 		mov	r3, #33280
ARM GAS  /tmp/ccebz8JA.s 			page 4


 172 0078 C1F8C430 		str	r3, [r1, #196]
 173 007c F0BD     		pop	{r4, r5, r6, r7, pc}
 174              	.L15:
 175 007e 00BF     		.align	2
 176              	.L14:
 177 0080 00C00F40 		.word	1074774016
 178 0084 55545554 		.word	1414878293
 179 0088 55515155 		.word	1431392597
 180              		.cfi_endproc
 181              	.LFE64:
 182              		.size	LPC17xx_clock_init, .-LPC17xx_clock_init
 183              		.text
 184              	.Letext0:
 185              		.file 2 "/usr/lib/gcc/arm-none-eabi/6.3.1/include/stddef.h"
 186              		.file 3 "/usr/include/newlib/machine/_default_types.h"
 187              		.file 4 "/usr/include/newlib/sys/_stdint.h"
 188              		.file 5 "../../os/ports/GCC/ARMCMx/chtypes.h"
 189              		.file 6 "../../os/kernel/include/chlists.h"
 190              		.file 7 "../../os/kernel/include/chthreads.h"
 191              		.file 8 "../../os/ports/GCC/ARMCMx/chcore_v7m.h"
 192              		.file 9 "../../os/ports/common/ARMCMx/nvic.h"
 193              		.file 10 "../../os/kernel/include/chvt.h"
 194              		.file 11 "../../os/kernel/include/chschd.h"
 195              		.file 12 "../../os/kernel/include/chmtx.h"
 196              		.file 13 "../../os/kernel/include/chevents.h"
 197              		.file 14 "../../os/kernel/include/chregistry.h"
 198              		.file 15 "../../os/kernel/include/chqueues.h"
 199              		.file 16 "../../os/kernel/include/ch.h"
 200              		.file 17 "../../os/ports/common/ARMCMx/CMSIS/include/core_cm3.h"
 201              		.file 18 "../../os/hal/platforms/LPC17xx/system_LPC17xx.h"
 202              		.file 19 "../../os/hal/platforms/LPC17xx/LPC17xx.h"
 203              		.file 20 "../../os/hal/platforms/LPC17xx/lpc17xx_dma.h"
 204              		.file 21 "../../os/hal/platforms/LPC17xx/pal_lld.h"
 205              		.file 22 "../../os/hal/include/gpt.h"
 206              		.file 23 "../../os/hal/platforms/LPC17xx/gpt_lld.h"
 207              		.file 24 "../../os/hal/include/serial.h"
 208              		.file 25 "../../os/hal/platforms/LPC17xx/serial_lld.h"
 209              		.file 26 "../../os/hal/include/spi.h"
 210              		.file 27 "../../os/hal/platforms/LPC17xx/spi_lld.h"
 211              		.section	.debug_info,"",%progbits
 212              	.Ldebug_info0:
 213 0000 6D160000 		.4byte	0x166d
 214 0004 0400     		.2byte	0x4
 215 0006 00000000 		.4byte	.Ldebug_abbrev0
 216 000a 04       		.byte	0x4
 217 000b 01       		.uleb128 0x1
 218 000c 53070000 		.4byte	.LASF292
 219 0010 0C       		.byte	0xc
 220 0011 7D060000 		.4byte	.LASF293
 221 0015 8D080000 		.4byte	.LASF294
 222 0019 00000000 		.4byte	.Ldebug_ranges0+0
 223 001d 00000000 		.4byte	0
 224 0021 00000000 		.4byte	.Ldebug_line0
 225 0025 02       		.uleb128 0x2
 226 0026 04       		.byte	0x4
 227 0027 05       		.byte	0x5
 228 0028 696E7400 		.ascii	"int\000"
ARM GAS  /tmp/ccebz8JA.s 			page 5


 229 002c 03       		.uleb128 0x3
 230 002d 00000000 		.4byte	.LASF4
 231 0031 02       		.byte	0x2
 232 0032 D8       		.byte	0xd8
 233 0033 37000000 		.4byte	0x37
 234 0037 04       		.uleb128 0x4
 235 0038 04       		.byte	0x4
 236 0039 07       		.byte	0x7
 237 003a 6B060000 		.4byte	.LASF0
 238 003e 04       		.uleb128 0x4
 239 003f 08       		.byte	0x8
 240 0040 05       		.byte	0x5
 241 0041 D2050000 		.4byte	.LASF1
 242 0045 04       		.uleb128 0x4
 243 0046 08       		.byte	0x8
 244 0047 04       		.byte	0x4
 245 0048 5E080000 		.4byte	.LASF2
 246 004c 04       		.uleb128 0x4
 247 004d 01       		.byte	0x1
 248 004e 06       		.byte	0x6
 249 004f 54020000 		.4byte	.LASF3
 250 0053 03       		.uleb128 0x3
 251 0054 3D010000 		.4byte	.LASF5
 252 0058 03       		.byte	0x3
 253 0059 1D       		.byte	0x1d
 254 005a 5E000000 		.4byte	0x5e
 255 005e 04       		.uleb128 0x4
 256 005f 01       		.byte	0x1
 257 0060 08       		.byte	0x8
 258 0061 B5020000 		.4byte	.LASF6
 259 0065 04       		.uleb128 0x4
 260 0066 02       		.byte	0x2
 261 0067 05       		.byte	0x5
 262 0068 EC090000 		.4byte	.LASF7
 263 006c 03       		.uleb128 0x3
 264 006d 6D030000 		.4byte	.LASF8
 265 0071 03       		.byte	0x3
 266 0072 2B       		.byte	0x2b
 267 0073 77000000 		.4byte	0x77
 268 0077 04       		.uleb128 0x4
 269 0078 02       		.byte	0x2
 270 0079 07       		.byte	0x7
 271 007a FD0A0000 		.4byte	.LASF9
 272 007e 03       		.uleb128 0x3
 273 007f 4D0B0000 		.4byte	.LASF10
 274 0083 03       		.byte	0x3
 275 0084 3F       		.byte	0x3f
 276 0085 89000000 		.4byte	0x89
 277 0089 04       		.uleb128 0x4
 278 008a 04       		.byte	0x4
 279 008b 05       		.byte	0x5
 280 008c 9E010000 		.4byte	.LASF11
 281 0090 03       		.uleb128 0x3
 282 0091 B7050000 		.4byte	.LASF12
 283 0095 03       		.byte	0x3
 284 0096 41       		.byte	0x41
 285 0097 9B000000 		.4byte	0x9b
ARM GAS  /tmp/ccebz8JA.s 			page 6


 286 009b 04       		.uleb128 0x4
 287 009c 04       		.byte	0x4
 288 009d 07       		.byte	0x7
 289 009e 84040000 		.4byte	.LASF13
 290 00a2 03       		.uleb128 0x3
 291 00a3 79040000 		.4byte	.LASF14
 292 00a7 03       		.byte	0x3
 293 00a8 5B       		.byte	0x5b
 294 00a9 AD000000 		.4byte	0xad
 295 00ad 04       		.uleb128 0x4
 296 00ae 08       		.byte	0x8
 297 00af 07       		.byte	0x7
 298 00b0 D3080000 		.4byte	.LASF15
 299 00b4 03       		.uleb128 0x3
 300 00b5 6A020000 		.4byte	.LASF16
 301 00b9 04       		.byte	0x4
 302 00ba 18       		.byte	0x18
 303 00bb 53000000 		.4byte	0x53
 304 00bf 05       		.uleb128 0x5
 305 00c0 B4000000 		.4byte	0xb4
 306 00c4 06       		.uleb128 0x6
 307 00c5 B4000000 		.4byte	0xb4
 308 00c9 03       		.uleb128 0x3
 309 00ca F2080000 		.4byte	.LASF17
 310 00ce 04       		.byte	0x4
 311 00cf 24       		.byte	0x24
 312 00d0 6C000000 		.4byte	0x6c
 313 00d4 05       		.uleb128 0x5
 314 00d5 C9000000 		.4byte	0xc9
 315 00d9 03       		.uleb128 0x3
 316 00da 74000000 		.4byte	.LASF18
 317 00de 04       		.byte	0x4
 318 00df 2C       		.byte	0x2c
 319 00e0 7E000000 		.4byte	0x7e
 320 00e4 05       		.uleb128 0x5
 321 00e5 D9000000 		.4byte	0xd9
 322 00e9 03       		.uleb128 0x3
 323 00ea AC0A0000 		.4byte	.LASF19
 324 00ee 04       		.byte	0x4
 325 00ef 30       		.byte	0x30
 326 00f0 90000000 		.4byte	0x90
 327 00f4 05       		.uleb128 0x5
 328 00f5 E9000000 		.4byte	0xe9
 329 00f9 06       		.uleb128 0x6
 330 00fa F4000000 		.4byte	0xf4
 331 00fe 03       		.uleb128 0x3
 332 00ff F6090000 		.4byte	.LASF20
 333 0103 04       		.byte	0x4
 334 0104 3C       		.byte	0x3c
 335 0105 A2000000 		.4byte	0xa2
 336 0109 04       		.uleb128 0x4
 337 010a 01       		.byte	0x1
 338 010b 02       		.byte	0x2
 339 010c 27030000 		.4byte	.LASF21
 340 0110 03       		.uleb128 0x3
 341 0111 AA090000 		.4byte	.LASF22
 342 0115 05       		.byte	0x5
ARM GAS  /tmp/ccebz8JA.s 			page 7


 343 0116 25       		.byte	0x25
 344 0117 B4000000 		.4byte	0xb4
 345 011b 03       		.uleb128 0x3
 346 011c 04020000 		.4byte	.LASF23
 347 0120 05       		.byte	0x5
 348 0121 26       		.byte	0x26
 349 0122 B4000000 		.4byte	0xb4
 350 0126 03       		.uleb128 0x3
 351 0127 680A0000 		.4byte	.LASF24
 352 012b 05       		.byte	0x5
 353 012c 27       		.byte	0x27
 354 012d B4000000 		.4byte	0xb4
 355 0131 03       		.uleb128 0x3
 356 0132 1E090000 		.4byte	.LASF25
 357 0136 05       		.byte	0x5
 358 0137 28       		.byte	0x28
 359 0138 B4000000 		.4byte	0xb4
 360 013c 03       		.uleb128 0x3
 361 013d 49000000 		.4byte	.LASF26
 362 0141 05       		.byte	0x5
 363 0142 29       		.byte	0x29
 364 0143 E9000000 		.4byte	0xe9
 365 0147 03       		.uleb128 0x3
 366 0148 FB080000 		.4byte	.LASF27
 367 014c 05       		.byte	0x5
 368 014d 2A       		.byte	0x2a
 369 014e D9000000 		.4byte	0xd9
 370 0152 03       		.uleb128 0x3
 371 0153 8D020000 		.4byte	.LASF28
 372 0157 05       		.byte	0x5
 373 0158 2C       		.byte	0x2c
 374 0159 E9000000 		.4byte	0xe9
 375 015d 03       		.uleb128 0x3
 376 015e F7070000 		.4byte	.LASF29
 377 0162 05       		.byte	0x5
 378 0163 2D       		.byte	0x2d
 379 0164 E9000000 		.4byte	0xe9
 380 0168 03       		.uleb128 0x3
 381 0169 1C000000 		.4byte	.LASF30
 382 016d 05       		.byte	0x5
 383 016e 2E       		.byte	0x2e
 384 016f E9000000 		.4byte	0xe9
 385 0173 05       		.uleb128 0x5
 386 0174 68010000 		.4byte	0x168
 387 0178 03       		.uleb128 0x3
 388 0179 3E0A0000 		.4byte	.LASF31
 389 017d 06       		.byte	0x6
 390 017e 23       		.byte	0x23
 391 017f 83010000 		.4byte	0x183
 392 0183 07       		.uleb128 0x7
 393 0184 3E0A0000 		.4byte	.LASF31
 394 0188 48       		.byte	0x48
 395 0189 07       		.byte	0x7
 396 018a 57       		.byte	0x57
 397 018b 80020000 		.4byte	0x280
 398 018f 08       		.uleb128 0x8
 399 0190 B2010000 		.4byte	.LASF32
ARM GAS  /tmp/ccebz8JA.s 			page 8


 400 0194 07       		.byte	0x7
 401 0195 58       		.byte	0x58
 402 0196 A1020000 		.4byte	0x2a1
 403 019a 00       		.byte	0
 404 019b 08       		.uleb128 0x8
 405 019c D4010000 		.4byte	.LASF33
 406 01a0 07       		.byte	0x7
 407 01a1 5A       		.byte	0x5a
 408 01a2 A1020000 		.4byte	0x2a1
 409 01a6 04       		.byte	0x4
 410 01a7 08       		.uleb128 0x8
 411 01a8 66030000 		.4byte	.LASF34
 412 01ac 07       		.byte	0x7
 413 01ad 5C       		.byte	0x5c
 414 01ae 3C010000 		.4byte	0x13c
 415 01b2 08       		.byte	0x8
 416 01b3 08       		.uleb128 0x8
 417 01b4 43000000 		.4byte	.LASF35
 418 01b8 07       		.byte	0x7
 419 01b9 5D       		.byte	0x5d
 420 01ba 66030000 		.4byte	0x366
 421 01be 0C       		.byte	0xc
 422 01bf 08       		.uleb128 0x8
 423 01c0 8D010000 		.4byte	.LASF36
 424 01c4 07       		.byte	0x7
 425 01c5 5F       		.byte	0x5f
 426 01c6 A1020000 		.4byte	0x2a1
 427 01ca 10       		.byte	0x10
 428 01cb 08       		.uleb128 0x8
 429 01cc EA080000 		.4byte	.LASF37
 430 01d0 07       		.byte	0x7
 431 01d1 60       		.byte	0x60
 432 01d2 A1020000 		.4byte	0x2a1
 433 01d6 14       		.byte	0x14
 434 01d7 08       		.uleb128 0x8
 435 01d8 8D0B0000 		.4byte	.LASF38
 436 01dc 07       		.byte	0x7
 437 01dd 67       		.byte	0x67
 438 01de 6F060000 		.4byte	0x66f
 439 01e2 18       		.byte	0x18
 440 01e3 08       		.uleb128 0x8
 441 01e4 C80B0000 		.4byte	.LASF39
 442 01e8 07       		.byte	0x7
 443 01e9 72       		.byte	0x72
 444 01ea 1B010000 		.4byte	0x11b
 445 01ee 1C       		.byte	0x1c
 446 01ef 08       		.uleb128 0x8
 447 01f0 55060000 		.4byte	.LASF40
 448 01f4 07       		.byte	0x7
 449 01f5 76       		.byte	0x76
 450 01f6 10010000 		.4byte	0x110
 451 01fa 1D       		.byte	0x1d
 452 01fb 08       		.uleb128 0x8
 453 01fc 0F070000 		.4byte	.LASF41
 454 0200 07       		.byte	0x7
 455 0201 7B       		.byte	0x7b
 456 0202 26010000 		.4byte	0x126
ARM GAS  /tmp/ccebz8JA.s 			page 9


 457 0206 1E       		.byte	0x1e
 458 0207 08       		.uleb128 0x8
 459 0208 60020000 		.4byte	.LASF42
 460 020c 07       		.byte	0x7
 461 020d 81       		.byte	0x81
 462 020e 31010000 		.4byte	0x131
 463 0212 1F       		.byte	0x1f
 464 0213 08       		.uleb128 0x8
 465 0214 15080000 		.4byte	.LASF43
 466 0218 07       		.byte	0x7
 467 0219 88       		.byte	0x88
 468 021a 73010000 		.4byte	0x173
 469 021e 20       		.byte	0x20
 470 021f 09       		.uleb128 0x9
 471 0220 705F7500 		.ascii	"p_u\000"
 472 0224 07       		.byte	0x7
 473 0225 AD       		.byte	0xad
 474 0226 3A060000 		.4byte	0x63a
 475 022a 24       		.byte	0x24
 476 022b 08       		.uleb128 0x8
 477 022c 45060000 		.4byte	.LASF44
 478 0230 07       		.byte	0x7
 479 0231 B2       		.byte	0xb2
 480 0232 C7020000 		.4byte	0x2c7
 481 0236 28       		.byte	0x28
 482 0237 08       		.uleb128 0x8
 483 0238 63000000 		.4byte	.LASF45
 484 023c 07       		.byte	0x7
 485 023d B8       		.byte	0xb8
 486 023e A7020000 		.4byte	0x2a7
 487 0242 2C       		.byte	0x2c
 488 0243 08       		.uleb128 0x8
 489 0244 B60B0000 		.4byte	.LASF46
 490 0248 07       		.byte	0x7
 491 0249 BC       		.byte	0xbc
 492 024a 47010000 		.4byte	0x147
 493 024e 34       		.byte	0x34
 494 024f 08       		.uleb128 0x8
 495 0250 08040000 		.4byte	.LASF47
 496 0254 07       		.byte	0x7
 497 0255 C2       		.byte	0xc2
 498 0256 52010000 		.4byte	0x152
 499 025a 38       		.byte	0x38
 500 025b 08       		.uleb128 0x8
 501 025c 17020000 		.4byte	.LASF48
 502 0260 07       		.byte	0x7
 503 0261 C9       		.byte	0xc9
 504 0262 81060000 		.4byte	0x681
 505 0266 3C       		.byte	0x3c
 506 0267 08       		.uleb128 0x8
 507 0268 6A080000 		.4byte	.LASF49
 508 026c 07       		.byte	0x7
 509 026d CD       		.byte	0xcd
 510 026e 3C010000 		.4byte	0x13c
 511 0272 40       		.byte	0x40
 512 0273 08       		.uleb128 0x8
 513 0274 DF060000 		.4byte	.LASF50
ARM GAS  /tmp/ccebz8JA.s 			page 10


 514 0278 07       		.byte	0x7
 515 0279 D3       		.byte	0xd3
 516 027a DD020000 		.4byte	0x2dd
 517 027e 44       		.byte	0x44
 518 027f 00       		.byte	0
 519 0280 0A       		.uleb128 0xa
 520 0281 08       		.byte	0x8
 521 0282 06       		.byte	0x6
 522 0283 5A       		.byte	0x5a
 523 0284 A1020000 		.4byte	0x2a1
 524 0288 08       		.uleb128 0x8
 525 0289 B2010000 		.4byte	.LASF32
 526 028d 06       		.byte	0x6
 527 028e 5B       		.byte	0x5b
 528 028f A1020000 		.4byte	0x2a1
 529 0293 00       		.byte	0
 530 0294 08       		.uleb128 0x8
 531 0295 D4010000 		.4byte	.LASF33
 532 0299 06       		.byte	0x6
 533 029a 5D       		.byte	0x5d
 534 029b A1020000 		.4byte	0x2a1
 535 029f 04       		.byte	0x4
 536 02a0 00       		.byte	0
 537 02a1 0B       		.uleb128 0xb
 538 02a2 04       		.byte	0x4
 539 02a3 78010000 		.4byte	0x178
 540 02a7 03       		.uleb128 0x3
 541 02a8 C20A0000 		.4byte	.LASF51
 542 02ac 06       		.byte	0x6
 543 02ad 5F       		.byte	0x5f
 544 02ae 80020000 		.4byte	0x280
 545 02b2 0A       		.uleb128 0xa
 546 02b3 04       		.byte	0x4
 547 02b4 06       		.byte	0x6
 548 02b5 64       		.byte	0x64
 549 02b6 C7020000 		.4byte	0x2c7
 550 02ba 08       		.uleb128 0x8
 551 02bb B2010000 		.4byte	.LASF32
 552 02bf 06       		.byte	0x6
 553 02c0 66       		.byte	0x66
 554 02c1 A1020000 		.4byte	0x2a1
 555 02c5 00       		.byte	0
 556 02c6 00       		.byte	0
 557 02c7 03       		.uleb128 0x3
 558 02c8 E6070000 		.4byte	.LASF52
 559 02cc 06       		.byte	0x6
 560 02cd 69       		.byte	0x69
 561 02ce B2020000 		.4byte	0x2b2
 562 02d2 03       		.uleb128 0x3
 563 02d3 28020000 		.4byte	.LASF53
 564 02d7 08       		.byte	0x8
 565 02d8 DE       		.byte	0xde
 566 02d9 DD020000 		.4byte	0x2dd
 567 02dd 0C       		.uleb128 0xc
 568 02de 04       		.byte	0x4
 569 02df 03       		.uleb128 0x3
 570 02e0 AE030000 		.4byte	.LASF54
ARM GAS  /tmp/ccebz8JA.s 			page 11


 571 02e4 08       		.byte	0x8
 572 02e5 E4       		.byte	0xe4
 573 02e6 FE000000 		.4byte	0xfe
 574 02ea 0D       		.uleb128 0xd
 575 02eb 01040000 		.4byte	.LASF55
 576 02ef 24       		.byte	0x24
 577 02f0 08       		.byte	0x8
 578 02f1 0501     		.2byte	0x105
 579 02f3 66030000 		.4byte	0x366
 580 02f7 0E       		.uleb128 0xe
 581 02f8 723400   		.ascii	"r4\000"
 582 02fb 08       		.byte	0x8
 583 02fc 1801     		.2byte	0x118
 584 02fe D2020000 		.4byte	0x2d2
 585 0302 00       		.byte	0
 586 0303 0E       		.uleb128 0xe
 587 0304 723500   		.ascii	"r5\000"
 588 0307 08       		.byte	0x8
 589 0308 1901     		.2byte	0x119
 590 030a D2020000 		.4byte	0x2d2
 591 030e 04       		.byte	0x4
 592 030f 0E       		.uleb128 0xe
 593 0310 723600   		.ascii	"r6\000"
 594 0313 08       		.byte	0x8
 595 0314 1A01     		.2byte	0x11a
 596 0316 D2020000 		.4byte	0x2d2
 597 031a 08       		.byte	0x8
 598 031b 0E       		.uleb128 0xe
 599 031c 723700   		.ascii	"r7\000"
 600 031f 08       		.byte	0x8
 601 0320 1B01     		.2byte	0x11b
 602 0322 D2020000 		.4byte	0x2d2
 603 0326 0C       		.byte	0xc
 604 0327 0E       		.uleb128 0xe
 605 0328 723800   		.ascii	"r8\000"
 606 032b 08       		.byte	0x8
 607 032c 1C01     		.2byte	0x11c
 608 032e D2020000 		.4byte	0x2d2
 609 0332 10       		.byte	0x10
 610 0333 0E       		.uleb128 0xe
 611 0334 723900   		.ascii	"r9\000"
 612 0337 08       		.byte	0x8
 613 0338 1D01     		.2byte	0x11d
 614 033a D2020000 		.4byte	0x2d2
 615 033e 14       		.byte	0x14
 616 033f 0E       		.uleb128 0xe
 617 0340 72313000 		.ascii	"r10\000"
 618 0344 08       		.byte	0x8
 619 0345 1E01     		.2byte	0x11e
 620 0347 D2020000 		.4byte	0x2d2
 621 034b 18       		.byte	0x18
 622 034c 0E       		.uleb128 0xe
 623 034d 72313100 		.ascii	"r11\000"
 624 0351 08       		.byte	0x8
 625 0352 1F01     		.2byte	0x11f
 626 0354 D2020000 		.4byte	0x2d2
 627 0358 1C       		.byte	0x1c
ARM GAS  /tmp/ccebz8JA.s 			page 12


 628 0359 0E       		.uleb128 0xe
 629 035a 6C7200   		.ascii	"lr\000"
 630 035d 08       		.byte	0x8
 631 035e 2001     		.2byte	0x120
 632 0360 D2020000 		.4byte	0x2d2
 633 0364 20       		.byte	0x20
 634 0365 00       		.byte	0
 635 0366 0D       		.uleb128 0xd
 636 0367 99020000 		.4byte	.LASF56
 637 036b 04       		.byte	0x4
 638 036c 08       		.byte	0x8
 639 036d 2A01     		.2byte	0x12a
 640 036f 81030000 		.4byte	0x381
 641 0373 0E       		.uleb128 0xe
 642 0374 72313300 		.ascii	"r13\000"
 643 0378 08       		.byte	0x8
 644 0379 2B01     		.2byte	0x12b
 645 037b 81030000 		.4byte	0x381
 646 037f 00       		.byte	0
 647 0380 00       		.byte	0
 648 0381 0B       		.uleb128 0xb
 649 0382 04       		.byte	0x4
 650 0383 EA020000 		.4byte	0x2ea
 651 0387 03       		.uleb128 0x3
 652 0388 3B070000 		.4byte	.LASF57
 653 038c 09       		.byte	0x9
 654 038d 33       		.byte	0x33
 655 038e F4000000 		.4byte	0xf4
 656 0392 04       		.uleb128 0x4
 657 0393 04       		.byte	0x4
 658 0394 07       		.byte	0x7
 659 0395 07000000 		.4byte	.LASF58
 660 0399 0A       		.uleb128 0xa
 661 039a 10       		.byte	0x10
 662 039b 09       		.byte	0x9
 663 039c EA       		.byte	0xea
 664 039d D2030000 		.4byte	0x3d2
 665 03a1 08       		.uleb128 0x8
 666 03a2 81080000 		.4byte	.LASF59
 667 03a6 09       		.byte	0x9
 668 03a7 EB       		.byte	0xeb
 669 03a8 87030000 		.4byte	0x387
 670 03ac 00       		.byte	0
 671 03ad 08       		.uleb128 0x8
 672 03ae FE010000 		.4byte	.LASF60
 673 03b2 09       		.byte	0x9
 674 03b3 EC       		.byte	0xec
 675 03b4 87030000 		.4byte	0x387
 676 03b8 04       		.byte	0x4
 677 03b9 08       		.uleb128 0x8
 678 03ba 87080000 		.4byte	.LASF61
 679 03be 09       		.byte	0x9
 680 03bf ED       		.byte	0xed
 681 03c0 87030000 		.4byte	0x387
 682 03c4 08       		.byte	0x8
 683 03c5 08       		.uleb128 0x8
 684 03c6 58080000 		.4byte	.LASF62
ARM GAS  /tmp/ccebz8JA.s 			page 13


 685 03ca 09       		.byte	0x9
 686 03cb EE       		.byte	0xee
 687 03cc 87030000 		.4byte	0x387
 688 03d0 0C       		.byte	0xc
 689 03d1 00       		.byte	0
 690 03d2 03       		.uleb128 0x3
 691 03d3 100B0000 		.4byte	.LASF63
 692 03d7 09       		.byte	0x9
 693 03d8 EF       		.byte	0xef
 694 03d9 99030000 		.4byte	0x399
 695 03dd 0A       		.uleb128 0xa
 696 03de 20       		.byte	0x20
 697 03df 09       		.byte	0x9
 698 03e0 FF       		.byte	0xff
 699 03e1 4E040000 		.4byte	0x44e
 700 03e5 0F       		.uleb128 0xf
 701 03e6 78060000 		.4byte	.LASF64
 702 03ea 09       		.byte	0x9
 703 03eb 0001     		.2byte	0x100
 704 03ed 87030000 		.4byte	0x387
 705 03f1 00       		.byte	0
 706 03f2 0F       		.uleb128 0xf
 707 03f3 610A0000 		.4byte	.LASF65
 708 03f7 09       		.byte	0x9
 709 03f8 0101     		.2byte	0x101
 710 03fa 87030000 		.4byte	0x387
 711 03fe 04       		.byte	0x4
 712 03ff 0F       		.uleb128 0xf
 713 0400 95030000 		.4byte	.LASF66
 714 0404 09       		.byte	0x9
 715 0405 0201     		.2byte	0x102
 716 0407 87030000 		.4byte	0x387
 717 040b 08       		.byte	0x8
 718 040c 0F       		.uleb128 0xf
 719 040d 1F070000 		.4byte	.LASF67
 720 0411 09       		.byte	0x9
 721 0412 0301     		.2byte	0x103
 722 0414 87030000 		.4byte	0x387
 723 0418 0C       		.byte	0xc
 724 0419 0F       		.uleb128 0xf
 725 041a 77020000 		.4byte	.LASF68
 726 041e 09       		.byte	0x9
 727 041f 0401     		.2byte	0x104
 728 0421 87030000 		.4byte	0x387
 729 0425 10       		.byte	0x10
 730 0426 0F       		.uleb128 0xf
 731 0427 46040000 		.4byte	.LASF69
 732 042b 09       		.byte	0x9
 733 042c 0501     		.2byte	0x105
 734 042e 87030000 		.4byte	0x387
 735 0432 14       		.byte	0x14
 736 0433 0F       		.uleb128 0xf
 737 0434 5F0B0000 		.4byte	.LASF70
 738 0438 09       		.byte	0x9
 739 0439 0601     		.2byte	0x106
 740 043b 87030000 		.4byte	0x387
 741 043f 18       		.byte	0x18
ARM GAS  /tmp/ccebz8JA.s 			page 14


 742 0440 0F       		.uleb128 0xf
 743 0441 63090000 		.4byte	.LASF71
 744 0445 09       		.byte	0x9
 745 0446 0701     		.2byte	0x107
 746 0448 87030000 		.4byte	0x387
 747 044c 1C       		.byte	0x1c
 748 044d 00       		.byte	0
 749 044e 10       		.uleb128 0x10
 750 044f E7060000 		.4byte	.LASF72
 751 0453 09       		.byte	0x9
 752 0454 0801     		.2byte	0x108
 753 0456 DD030000 		.4byte	0x3dd
 754 045a 03       		.uleb128 0x3
 755 045b 96000000 		.4byte	.LASF73
 756 045f 0A       		.byte	0xa
 757 0460 51       		.byte	0x51
 758 0461 65040000 		.4byte	0x465
 759 0465 0B       		.uleb128 0xb
 760 0466 04       		.byte	0x4
 761 0467 6B040000 		.4byte	0x46b
 762 046b 11       		.uleb128 0x11
 763 046c 76040000 		.4byte	0x476
 764 0470 12       		.uleb128 0x12
 765 0471 DD020000 		.4byte	0x2dd
 766 0475 00       		.byte	0
 767 0476 03       		.uleb128 0x3
 768 0477 B50A0000 		.4byte	.LASF74
 769 047b 0A       		.byte	0xa
 770 047c 56       		.byte	0x56
 771 047d 81040000 		.4byte	0x481
 772 0481 07       		.uleb128 0x7
 773 0482 B50A0000 		.4byte	.LASF74
 774 0486 14       		.byte	0x14
 775 0487 0A       		.byte	0xa
 776 0488 5D       		.byte	0x5d
 777 0489 CA040000 		.4byte	0x4ca
 778 048d 08       		.uleb128 0x8
 779 048e FD050000 		.4byte	.LASF75
 780 0492 0A       		.byte	0xa
 781 0493 5E       		.byte	0x5e
 782 0494 CA040000 		.4byte	0x4ca
 783 0498 00       		.byte	0
 784 0499 08       		.uleb128 0x8
 785 049a FC020000 		.4byte	.LASF76
 786 049e 0A       		.byte	0xa
 787 049f 60       		.byte	0x60
 788 04a0 CA040000 		.4byte	0x4ca
 789 04a4 04       		.byte	0x4
 790 04a5 08       		.uleb128 0x8
 791 04a6 940B0000 		.4byte	.LASF77
 792 04aa 0A       		.byte	0xa
 793 04ab 62       		.byte	0x62
 794 04ac 68010000 		.4byte	0x168
 795 04b0 08       		.byte	0x8
 796 04b1 08       		.uleb128 0x8
 797 04b2 F9030000 		.4byte	.LASF78
 798 04b6 0A       		.byte	0xa
ARM GAS  /tmp/ccebz8JA.s 			page 15


 799 04b7 63       		.byte	0x63
 800 04b8 5A040000 		.4byte	0x45a
 801 04bc 0C       		.byte	0xc
 802 04bd 08       		.uleb128 0x8
 803 04be 26010000 		.4byte	.LASF79
 804 04c2 0A       		.byte	0xa
 805 04c3 65       		.byte	0x65
 806 04c4 DD020000 		.4byte	0x2dd
 807 04c8 10       		.byte	0x10
 808 04c9 00       		.byte	0
 809 04ca 0B       		.uleb128 0xb
 810 04cb 04       		.byte	0x4
 811 04cc 76040000 		.4byte	0x476
 812 04d0 0A       		.uleb128 0xa
 813 04d1 10       		.byte	0x10
 814 04d2 0A       		.byte	0xa
 815 04d3 6F       		.byte	0x6f
 816 04d4 09050000 		.4byte	0x509
 817 04d8 08       		.uleb128 0x8
 818 04d9 FD050000 		.4byte	.LASF75
 819 04dd 0A       		.byte	0xa
 820 04de 70       		.byte	0x70
 821 04df CA040000 		.4byte	0x4ca
 822 04e3 00       		.byte	0
 823 04e4 08       		.uleb128 0x8
 824 04e5 FC020000 		.4byte	.LASF76
 825 04e9 0A       		.byte	0xa
 826 04ea 72       		.byte	0x72
 827 04eb CA040000 		.4byte	0x4ca
 828 04ef 04       		.byte	0x4
 829 04f0 08       		.uleb128 0x8
 830 04f1 940B0000 		.4byte	.LASF77
 831 04f5 0A       		.byte	0xa
 832 04f6 74       		.byte	0x74
 833 04f7 68010000 		.4byte	0x168
 834 04fb 08       		.byte	0x8
 835 04fc 08       		.uleb128 0x8
 836 04fd C1090000 		.4byte	.LASF80
 837 0501 0A       		.byte	0xa
 838 0502 75       		.byte	0x75
 839 0503 73010000 		.4byte	0x173
 840 0507 0C       		.byte	0xc
 841 0508 00       		.byte	0
 842 0509 03       		.uleb128 0x3
 843 050a 4B090000 		.4byte	.LASF81
 844 050e 0A       		.byte	0xa
 845 050f 76       		.byte	0x76
 846 0510 D0040000 		.4byte	0x4d0
 847 0514 13       		.uleb128 0x13
 848 0515 520A0000 		.4byte	.LASF89
 849 0519 0A       		.byte	0xa
 850 051a EE       		.byte	0xee
 851 051b 09050000 		.4byte	0x509
 852 051f 0A       		.uleb128 0xa
 853 0520 1C       		.byte	0x1c
 854 0521 0B       		.byte	0xb
 855 0522 57       		.byte	0x57
ARM GAS  /tmp/ccebz8JA.s 			page 16


 856 0523 70050000 		.4byte	0x570
 857 0527 08       		.uleb128 0x8
 858 0528 75090000 		.4byte	.LASF82
 859 052c 0B       		.byte	0xb
 860 052d 58       		.byte	0x58
 861 052e A7020000 		.4byte	0x2a7
 862 0532 00       		.byte	0
 863 0533 08       		.uleb128 0x8
 864 0534 0B0A0000 		.4byte	.LASF83
 865 0538 0B       		.byte	0xb
 866 0539 59       		.byte	0x59
 867 053a 3C010000 		.4byte	0x13c
 868 053e 08       		.byte	0x8
 869 053f 08       		.uleb128 0x8
 870 0540 6E000000 		.4byte	.LASF84
 871 0544 0B       		.byte	0xb
 872 0545 5B       		.byte	0x5b
 873 0546 66030000 		.4byte	0x366
 874 054a 0C       		.byte	0xc
 875 054b 08       		.uleb128 0x8
 876 054c 15030000 		.4byte	.LASF85
 877 0550 0B       		.byte	0xb
 878 0551 5E       		.byte	0x5e
 879 0552 A1020000 		.4byte	0x2a1
 880 0556 10       		.byte	0x10
 881 0557 08       		.uleb128 0x8
 882 0558 D5090000 		.4byte	.LASF86
 883 055c 0B       		.byte	0xb
 884 055d 5F       		.byte	0x5f
 885 055e A1020000 		.4byte	0x2a1
 886 0562 14       		.byte	0x14
 887 0563 08       		.uleb128 0x8
 888 0564 41090000 		.4byte	.LASF87
 889 0568 0B       		.byte	0xb
 890 0569 62       		.byte	0x62
 891 056a A1020000 		.4byte	0x2a1
 892 056e 18       		.byte	0x18
 893 056f 00       		.byte	0
 894 0570 03       		.uleb128 0x3
 895 0571 6F0B0000 		.4byte	.LASF88
 896 0575 0B       		.byte	0xb
 897 0576 64       		.byte	0x64
 898 0577 1F050000 		.4byte	0x51f
 899 057b 13       		.uleb128 0x13
 900 057c A4090000 		.4byte	.LASF90
 901 0580 0B       		.byte	0xb
 902 0581 68       		.byte	0x68
 903 0582 70050000 		.4byte	0x570
 904 0586 07       		.uleb128 0x7
 905 0587 C2050000 		.4byte	.LASF91
 906 058b 10       		.byte	0x10
 907 058c 0C       		.byte	0xc
 908 058d 25       		.byte	0x25
 909 058e B7050000 		.4byte	0x5b7
 910 0592 08       		.uleb128 0x8
 911 0593 EB050000 		.4byte	.LASF92
 912 0597 0C       		.byte	0xc
ARM GAS  /tmp/ccebz8JA.s 			page 17


 913 0598 26       		.byte	0x26
 914 0599 A7020000 		.4byte	0x2a7
 915 059d 00       		.byte	0
 916 059e 08       		.uleb128 0x8
 917 059f 1E010000 		.4byte	.LASF93
 918 05a3 0C       		.byte	0xc
 919 05a4 28       		.byte	0x28
 920 05a5 A1020000 		.4byte	0x2a1
 921 05a9 08       		.byte	0x8
 922 05aa 08       		.uleb128 0x8
 923 05ab A10B0000 		.4byte	.LASF94
 924 05af 0C       		.byte	0xc
 925 05b0 2A       		.byte	0x2a
 926 05b1 B7050000 		.4byte	0x5b7
 927 05b5 0C       		.byte	0xc
 928 05b6 00       		.byte	0
 929 05b7 0B       		.uleb128 0xb
 930 05b8 04       		.byte	0x4
 931 05b9 86050000 		.4byte	0x586
 932 05bd 03       		.uleb128 0x3
 933 05be C2050000 		.4byte	.LASF91
 934 05c2 0C       		.byte	0xc
 935 05c3 2C       		.byte	0x2c
 936 05c4 86050000 		.4byte	0x586
 937 05c8 03       		.uleb128 0x3
 938 05c9 900A0000 		.4byte	.LASF95
 939 05cd 0D       		.byte	0xd
 940 05ce 25       		.byte	0x25
 941 05cf D3050000 		.4byte	0x5d3
 942 05d3 07       		.uleb128 0x7
 943 05d4 900A0000 		.4byte	.LASF95
 944 05d8 10       		.byte	0x10
 945 05d9 0D       		.byte	0xd
 946 05da 2A       		.byte	0x2a
 947 05db 10060000 		.4byte	0x610
 948 05df 08       		.uleb128 0x8
 949 05e0 0D050000 		.4byte	.LASF96
 950 05e4 0D       		.byte	0xd
 951 05e5 2B       		.byte	0x2b
 952 05e6 10060000 		.4byte	0x610
 953 05ea 00       		.byte	0
 954 05eb 08       		.uleb128 0x8
 955 05ec BC0B0000 		.4byte	.LASF97
 956 05f0 0D       		.byte	0xd
 957 05f1 2E       		.byte	0x2e
 958 05f2 A1020000 		.4byte	0x2a1
 959 05f6 04       		.byte	0x4
 960 05f7 08       		.uleb128 0x8
 961 05f8 670B0000 		.4byte	.LASF98
 962 05fc 0D       		.byte	0xd
 963 05fd 30       		.byte	0x30
 964 05fe 52010000 		.4byte	0x152
 965 0602 08       		.byte	0x8
 966 0603 08       		.uleb128 0x8
 967 0604 CF000000 		.4byte	.LASF99
 968 0608 0D       		.byte	0xd
 969 0609 33       		.byte	0x33
ARM GAS  /tmp/ccebz8JA.s 			page 18


 970 060a 5D010000 		.4byte	0x15d
 971 060e 0C       		.byte	0xc
 972 060f 00       		.byte	0
 973 0610 0B       		.uleb128 0xb
 974 0611 04       		.byte	0x4
 975 0612 C8050000 		.4byte	0x5c8
 976 0616 07       		.uleb128 0x7
 977 0617 6D040000 		.4byte	.LASF100
 978 061b 04       		.byte	0x4
 979 061c 0D       		.byte	0xd
 980 061d 3A       		.byte	0x3a
 981 061e 2F060000 		.4byte	0x62f
 982 0622 08       		.uleb128 0x8
 983 0623 34040000 		.4byte	.LASF101
 984 0627 0D       		.byte	0xd
 985 0628 3B       		.byte	0x3b
 986 0629 10060000 		.4byte	0x610
 987 062d 00       		.byte	0
 988 062e 00       		.byte	0
 989 062f 03       		.uleb128 0x3
 990 0630 6D040000 		.4byte	.LASF100
 991 0634 0D       		.byte	0xd
 992 0635 3E       		.byte	0x3e
 993 0636 16060000 		.4byte	0x616
 994 063a 14       		.uleb128 0x14
 995 063b 04       		.byte	0x4
 996 063c 07       		.byte	0x7
 997 063d 8F       		.byte	0x8f
 998 063e 6F060000 		.4byte	0x66f
 999 0642 15       		.uleb128 0x15
 1000 0643 ED0A0000 		.4byte	.LASF102
 1001 0647 07       		.byte	0x7
 1002 0648 96       		.byte	0x96
 1003 0649 47010000 		.4byte	0x147
 1004 064d 15       		.uleb128 0x15
 1005 064e 34010000 		.4byte	.LASF103
 1006 0652 07       		.byte	0x7
 1007 0653 9D       		.byte	0x9d
 1008 0654 47010000 		.4byte	0x147
 1009 0658 15       		.uleb128 0x15
 1010 0659 8E030000 		.4byte	.LASF104
 1011 065d 07       		.byte	0x7
 1012 065e A4       		.byte	0xa4
 1013 065f DD020000 		.4byte	0x2dd
 1014 0663 15       		.uleb128 0x15
 1015 0664 57010000 		.4byte	.LASF105
 1016 0668 07       		.byte	0x7
 1017 0669 AB       		.byte	0xab
 1018 066a 52010000 		.4byte	0x152
 1019 066e 00       		.byte	0
 1020 066f 0B       		.uleb128 0xb
 1021 0670 04       		.byte	0x4
 1022 0671 7C060000 		.4byte	0x67c
 1023 0675 04       		.uleb128 0x4
 1024 0676 01       		.byte	0x1
 1025 0677 08       		.byte	0x8
 1026 0678 50030000 		.4byte	.LASF106
ARM GAS  /tmp/ccebz8JA.s 			page 19


 1027 067c 06       		.uleb128 0x6
 1028 067d 75060000 		.4byte	0x675
 1029 0681 0B       		.uleb128 0xb
 1030 0682 04       		.byte	0x4
 1031 0683 BD050000 		.4byte	0x5bd
 1032 0687 0B       		.uleb128 0xb
 1033 0688 04       		.byte	0x4
 1034 0689 8D060000 		.4byte	0x68d
 1035 068d 16       		.uleb128 0x16
 1036 068e 47010000 		.4byte	0x147
 1037 0692 9C060000 		.4byte	0x69c
 1038 0696 12       		.uleb128 0x12
 1039 0697 DD020000 		.4byte	0x2dd
 1040 069b 00       		.byte	0
 1041 069c 0A       		.uleb128 0xa
 1042 069d 16       		.byte	0x16
 1043 069e 0E       		.byte	0xe
 1044 069f 25       		.byte	0x25
 1045 06a0 7D070000 		.4byte	0x77d
 1046 06a4 08       		.uleb128 0x8
 1047 06a5 26000000 		.4byte	.LASF107
 1048 06a9 0E       		.byte	0xe
 1049 06aa 26       		.byte	0x26
 1050 06ab 7D070000 		.4byte	0x77d
 1051 06af 00       		.byte	0
 1052 06b0 08       		.uleb128 0x8
 1053 06b1 96040000 		.4byte	.LASF108
 1054 06b5 0E       		.byte	0xe
 1055 06b6 27       		.byte	0x27
 1056 06b7 B4000000 		.4byte	0xb4
 1057 06bb 04       		.byte	0x4
 1058 06bc 08       		.uleb128 0x8
 1059 06bd 380B0000 		.4byte	.LASF109
 1060 06c1 0E       		.byte	0xe
 1061 06c2 28       		.byte	0x28
 1062 06c3 B4000000 		.4byte	0xb4
 1063 06c7 05       		.byte	0x5
 1064 06c8 08       		.uleb128 0x8
 1065 06c9 E0050000 		.4byte	.LASF110
 1066 06cd 0E       		.byte	0xe
 1067 06ce 29       		.byte	0x29
 1068 06cf C9000000 		.4byte	0xc9
 1069 06d3 06       		.byte	0x6
 1070 06d4 08       		.uleb128 0x8
 1071 06d5 01010000 		.4byte	.LASF111
 1072 06d9 0E       		.byte	0xe
 1073 06da 2A       		.byte	0x2a
 1074 06db B4000000 		.4byte	0xb4
 1075 06df 08       		.byte	0x8
 1076 06e0 08       		.uleb128 0x8
 1077 06e1 2F070000 		.4byte	.LASF112
 1078 06e5 0E       		.byte	0xe
 1079 06e6 2B       		.byte	0x2b
 1080 06e7 B4000000 		.4byte	0xb4
 1081 06eb 09       		.byte	0x9
 1082 06ec 08       		.uleb128 0x8
 1083 06ed 5E010000 		.4byte	.LASF113
ARM GAS  /tmp/ccebz8JA.s 			page 20


 1084 06f1 0E       		.byte	0xe
 1085 06f2 2C       		.byte	0x2c
 1086 06f3 B4000000 		.4byte	0xb4
 1087 06f7 0A       		.byte	0xa
 1088 06f8 08       		.uleb128 0x8
 1089 06f9 ED030000 		.4byte	.LASF114
 1090 06fd 0E       		.byte	0xe
 1091 06fe 2D       		.byte	0x2d
 1092 06ff B4000000 		.4byte	0xb4
 1093 0703 0B       		.byte	0xb
 1094 0704 08       		.uleb128 0x8
 1095 0705 83000000 		.4byte	.LASF115
 1096 0709 0E       		.byte	0xe
 1097 070a 2E       		.byte	0x2e
 1098 070b B4000000 		.4byte	0xb4
 1099 070f 0C       		.byte	0xc
 1100 0710 08       		.uleb128 0x8
 1101 0711 9C030000 		.4byte	.LASF116
 1102 0715 0E       		.byte	0xe
 1103 0716 2F       		.byte	0x2f
 1104 0717 B4000000 		.4byte	0xb4
 1105 071b 0D       		.byte	0xd
 1106 071c 08       		.uleb128 0x8
 1107 071d 270A0000 		.4byte	.LASF117
 1108 0721 0E       		.byte	0xe
 1109 0722 30       		.byte	0x30
 1110 0723 B4000000 		.4byte	0xb4
 1111 0727 0E       		.byte	0xe
 1112 0728 08       		.uleb128 0x8
 1113 0729 10000000 		.4byte	.LASF118
 1114 072d 0E       		.byte	0xe
 1115 072e 31       		.byte	0x31
 1116 072f B4000000 		.4byte	0xb4
 1117 0733 0F       		.byte	0xf
 1118 0734 08       		.uleb128 0x8
 1119 0735 800A0000 		.4byte	.LASF119
 1120 0739 0E       		.byte	0xe
 1121 073a 32       		.byte	0x32
 1122 073b B4000000 		.4byte	0xb4
 1123 073f 10       		.byte	0x10
 1124 0740 08       		.uleb128 0x8
 1125 0741 C7010000 		.4byte	.LASF120
 1126 0745 0E       		.byte	0xe
 1127 0746 34       		.byte	0x34
 1128 0747 B4000000 		.4byte	0xb4
 1129 074b 11       		.byte	0x11
 1130 074c 08       		.uleb128 0x8
 1131 074d 08090000 		.4byte	.LASF121
 1132 0751 0E       		.byte	0xe
 1133 0752 35       		.byte	0x35
 1134 0753 B4000000 		.4byte	0xb4
 1135 0757 12       		.byte	0x12
 1136 0758 08       		.uleb128 0x8
 1137 0759 23080000 		.4byte	.LASF122
 1138 075d 0E       		.byte	0xe
 1139 075e 36       		.byte	0x36
 1140 075f B4000000 		.4byte	0xb4
ARM GAS  /tmp/ccebz8JA.s 			page 21


 1141 0763 13       		.byte	0x13
 1142 0764 08       		.uleb128 0x8
 1143 0765 98050000 		.4byte	.LASF123
 1144 0769 0E       		.byte	0xe
 1145 076a 37       		.byte	0x37
 1146 076b B4000000 		.4byte	0xb4
 1147 076f 14       		.byte	0x14
 1148 0770 08       		.uleb128 0x8
 1149 0771 75080000 		.4byte	.LASF124
 1150 0775 0E       		.byte	0xe
 1151 0776 39       		.byte	0x39
 1152 0777 B4000000 		.4byte	0xb4
 1153 077b 15       		.byte	0x15
 1154 077c 00       		.byte	0
 1155 077d 17       		.uleb128 0x17
 1156 077e 75060000 		.4byte	0x675
 1157 0782 8D070000 		.4byte	0x78d
 1158 0786 18       		.uleb128 0x18
 1159 0787 92030000 		.4byte	0x392
 1160 078b 03       		.byte	0x3
 1161 078c 00       		.byte	0
 1162 078d 03       		.uleb128 0x3
 1163 078e 180B0000 		.4byte	.LASF125
 1164 0792 0E       		.byte	0xe
 1165 0793 3A       		.byte	0x3a
 1166 0794 9C060000 		.4byte	0x69c
 1167 0798 06       		.uleb128 0x6
 1168 0799 8D070000 		.4byte	0x78d
 1169 079d 13       		.uleb128 0x13
 1170 079e 51000000 		.4byte	.LASF126
 1171 07a2 0E       		.byte	0xe
 1172 07a3 77       		.byte	0x77
 1173 07a4 98070000 		.4byte	0x798
 1174 07a8 03       		.uleb128 0x3
 1175 07a9 78030000 		.4byte	.LASF127
 1176 07ad 0F       		.byte	0xf
 1177 07ae 30       		.byte	0x30
 1178 07af B3070000 		.4byte	0x7b3
 1179 07b3 07       		.uleb128 0x7
 1180 07b4 78030000 		.4byte	.LASF127
 1181 07b8 24       		.byte	0x24
 1182 07b9 0F       		.byte	0xf
 1183 07ba 3E       		.byte	0x3e
 1184 07bb 20080000 		.4byte	0x820
 1185 07bf 08       		.uleb128 0x8
 1186 07c0 9A090000 		.4byte	.LASF128
 1187 07c4 0F       		.byte	0xf
 1188 07c5 3F       		.byte	0x3f
 1189 07c6 A7020000 		.4byte	0x2a7
 1190 07ca 00       		.byte	0
 1191 07cb 08       		.uleb128 0x8
 1192 07cc 3C040000 		.4byte	.LASF129
 1193 07d0 0F       		.byte	0xf
 1194 07d1 40       		.byte	0x40
 1195 07d2 2C000000 		.4byte	0x2c
 1196 07d6 08       		.byte	0x8
 1197 07d7 08       		.uleb128 0x8
ARM GAS  /tmp/ccebz8JA.s 			page 22


 1198 07d8 72010000 		.4byte	.LASF130
 1199 07dc 0F       		.byte	0xf
 1200 07dd 41       		.byte	0x41
 1201 07de 42080000 		.4byte	0x842
 1202 07e2 0C       		.byte	0xc
 1203 07e3 08       		.uleb128 0x8
 1204 07e4 47010000 		.4byte	.LASF131
 1205 07e8 0F       		.byte	0xf
 1206 07e9 42       		.byte	0x42
 1207 07ea 42080000 		.4byte	0x842
 1208 07ee 10       		.byte	0x10
 1209 07ef 08       		.uleb128 0x8
 1210 07f0 15050000 		.4byte	.LASF132
 1211 07f4 0F       		.byte	0xf
 1212 07f5 44       		.byte	0x44
 1213 07f6 42080000 		.4byte	0x842
 1214 07fa 14       		.byte	0x14
 1215 07fb 08       		.uleb128 0x8
 1216 07fc B9010000 		.4byte	.LASF133
 1217 0800 0F       		.byte	0xf
 1218 0801 45       		.byte	0x45
 1219 0802 42080000 		.4byte	0x842
 1220 0806 18       		.byte	0x18
 1221 0807 08       		.uleb128 0x8
 1222 0808 84010000 		.4byte	.LASF134
 1223 080c 0F       		.byte	0xf
 1224 080d 46       		.byte	0x46
 1225 080e 20080000 		.4byte	0x820
 1226 0812 1C       		.byte	0x1c
 1227 0813 08       		.uleb128 0x8
 1228 0814 D7020000 		.4byte	.LASF135
 1229 0818 0F       		.byte	0xf
 1230 0819 47       		.byte	0x47
 1231 081a DD020000 		.4byte	0x2dd
 1232 081e 20       		.byte	0x20
 1233 081f 00       		.byte	0
 1234 0820 03       		.uleb128 0x3
 1235 0821 2F060000 		.4byte	.LASF136
 1236 0825 0F       		.byte	0xf
 1237 0826 33       		.byte	0x33
 1238 0827 2B080000 		.4byte	0x82b
 1239 082b 0B       		.uleb128 0xb
 1240 082c 04       		.byte	0x4
 1241 082d 31080000 		.4byte	0x831
 1242 0831 11       		.uleb128 0x11
 1243 0832 3C080000 		.4byte	0x83c
 1244 0836 12       		.uleb128 0x12
 1245 0837 3C080000 		.4byte	0x83c
 1246 083b 00       		.byte	0
 1247 083c 0B       		.uleb128 0xb
 1248 083d 04       		.byte	0x4
 1249 083e A8070000 		.4byte	0x7a8
 1250 0842 0B       		.uleb128 0xb
 1251 0843 04       		.byte	0x4
 1252 0844 B4000000 		.4byte	0xb4
 1253 0848 03       		.uleb128 0x3
 1254 0849 2D0B0000 		.4byte	.LASF137
ARM GAS  /tmp/ccebz8JA.s 			page 23


 1255 084d 0F       		.byte	0xf
 1256 084e 7B       		.byte	0x7b
 1257 084f A8070000 		.4byte	0x7a8
 1258 0853 03       		.uleb128 0x3
 1259 0854 D1030000 		.4byte	.LASF138
 1260 0858 0F       		.byte	0xf
 1261 0859 EE       		.byte	0xee
 1262 085a A8070000 		.4byte	0x7a8
 1263 085e 16       		.uleb128 0x16
 1264 085f 2C000000 		.4byte	0x2c
 1265 0863 77080000 		.4byte	0x877
 1266 0867 12       		.uleb128 0x12
 1267 0868 DD020000 		.4byte	0x2dd
 1268 086c 12       		.uleb128 0x12
 1269 086d 77080000 		.4byte	0x877
 1270 0871 12       		.uleb128 0x12
 1271 0872 2C000000 		.4byte	0x2c
 1272 0876 00       		.byte	0
 1273 0877 0B       		.uleb128 0xb
 1274 0878 04       		.byte	0x4
 1275 0879 C4000000 		.4byte	0xc4
 1276 087d 0B       		.uleb128 0xb
 1277 087e 04       		.byte	0x4
 1278 087f 5E080000 		.4byte	0x85e
 1279 0883 16       		.uleb128 0x16
 1280 0884 2C000000 		.4byte	0x2c
 1281 0888 9C080000 		.4byte	0x89c
 1282 088c 12       		.uleb128 0x12
 1283 088d DD020000 		.4byte	0x2dd
 1284 0891 12       		.uleb128 0x12
 1285 0892 42080000 		.4byte	0x842
 1286 0896 12       		.uleb128 0x12
 1287 0897 2C000000 		.4byte	0x2c
 1288 089b 00       		.byte	0
 1289 089c 0B       		.uleb128 0xb
 1290 089d 04       		.byte	0x4
 1291 089e 83080000 		.4byte	0x883
 1292 08a2 16       		.uleb128 0x16
 1293 08a3 47010000 		.4byte	0x147
 1294 08a7 B6080000 		.4byte	0x8b6
 1295 08ab 12       		.uleb128 0x12
 1296 08ac DD020000 		.4byte	0x2dd
 1297 08b0 12       		.uleb128 0x12
 1298 08b1 B4000000 		.4byte	0xb4
 1299 08b5 00       		.byte	0
 1300 08b6 0B       		.uleb128 0xb
 1301 08b7 04       		.byte	0x4
 1302 08b8 A2080000 		.4byte	0x8a2
 1303 08bc 17       		.uleb128 0x17
 1304 08bd DF020000 		.4byte	0x2df
 1305 08c1 CC080000 		.4byte	0x8cc
 1306 08c5 18       		.uleb128 0x18
 1307 08c6 92030000 		.4byte	0x392
 1308 08ca 17       		.byte	0x17
 1309 08cb 00       		.byte	0
 1310 08cc 13       		.uleb128 0x13
 1311 08cd 700A0000 		.4byte	.LASF139
ARM GAS  /tmp/ccebz8JA.s 			page 24


 1312 08d1 10       		.byte	0x10
 1313 08d2 82       		.byte	0x82
 1314 08d3 BC080000 		.4byte	0x8bc
 1315 08d7 17       		.uleb128 0x17
 1316 08d8 E9000000 		.4byte	0xe9
 1317 08dc E7080000 		.4byte	0x8e7
 1318 08e0 18       		.uleb128 0x18
 1319 08e1 92030000 		.4byte	0x392
 1320 08e5 00       		.byte	0
 1321 08e6 00       		.byte	0
 1322 08e7 19       		.uleb128 0x19
 1323 08e8 10       		.byte	0x10
 1324 08e9 11       		.byte	0x11
 1325 08ea 3F02     		.2byte	0x23f
 1326 08ec 25090000 		.4byte	0x925
 1327 08f0 0F       		.uleb128 0xf
 1328 08f1 78060000 		.4byte	.LASF64
 1329 08f5 11       		.byte	0x11
 1330 08f6 4102     		.2byte	0x241
 1331 08f8 F4000000 		.4byte	0xf4
 1332 08fc 00       		.byte	0
 1333 08fd 0F       		.uleb128 0xf
 1334 08fe 1A060000 		.4byte	.LASF140
 1335 0902 11       		.byte	0x11
 1336 0903 4202     		.2byte	0x242
 1337 0905 F4000000 		.4byte	0xf4
 1338 0909 04       		.byte	0x4
 1339 090a 0E       		.uleb128 0xe
 1340 090b 56414C00 		.ascii	"VAL\000"
 1341 090f 11       		.byte	0x11
 1342 0910 4302     		.2byte	0x243
 1343 0912 F4000000 		.4byte	0xf4
 1344 0916 08       		.byte	0x8
 1345 0917 0F       		.uleb128 0xf
 1346 0918 8A090000 		.4byte	.LASF141
 1347 091c 11       		.byte	0x11
 1348 091d 4402     		.2byte	0x244
 1349 091f F9000000 		.4byte	0xf9
 1350 0923 0C       		.byte	0xc
 1351 0924 00       		.byte	0
 1352 0925 10       		.uleb128 0x10
 1353 0926 3F080000 		.4byte	.LASF142
 1354 092a 11       		.byte	0x11
 1355 092b 4502     		.2byte	0x245
 1356 092d E7080000 		.4byte	0x8e7
 1357 0931 17       		.uleb128 0x17
 1358 0932 E9000000 		.4byte	0xe9
 1359 0936 41090000 		.4byte	0x941
 1360 093a 18       		.uleb128 0x18
 1361 093b 92030000 		.4byte	0x392
 1362 093f 0E       		.byte	0xe
 1363 0940 00       		.byte	0
 1364 0941 17       		.uleb128 0x17
 1365 0942 E9000000 		.4byte	0xe9
 1366 0946 51090000 		.4byte	0x951
 1367 094a 18       		.uleb128 0x18
 1368 094b 92030000 		.4byte	0x392
ARM GAS  /tmp/ccebz8JA.s 			page 25


 1369 094f 01       		.byte	0x1
 1370 0950 00       		.byte	0
 1371 0951 1A       		.uleb128 0x1a
 1372 0952 450A0000 		.4byte	.LASF143
 1373 0956 11       		.byte	0x11
 1374 0957 0706     		.2byte	0x607
 1375 0959 E4000000 		.4byte	0xe4
 1376 095d 13       		.uleb128 0x13
 1377 095e C1040000 		.4byte	.LASF144
 1378 0962 12       		.byte	0x12
 1379 0963 23       		.byte	0x23
 1380 0964 E9000000 		.4byte	0xe9
 1381 0968 1B       		.uleb128 0x1b
 1382 0969 CC01     		.2byte	0x1cc
 1383 096b 13       		.byte	0x13
 1384 096c 76       		.byte	0x76
 1385 096d 370B0000 		.4byte	0xb37
 1386 0971 08       		.uleb128 0x8
 1387 0972 5A000000 		.4byte	.LASF145
 1388 0976 13       		.byte	0x13
 1389 0977 78       		.byte	0x78
 1390 0978 F4000000 		.4byte	0xf4
 1391 097c 00       		.byte	0
 1392 097d 08       		.uleb128 0x8
 1393 097e A1020000 		.4byte	.LASF146
 1394 0982 13       		.byte	0x13
 1395 0983 79       		.byte	0x79
 1396 0984 370B0000 		.4byte	0xb37
 1397 0988 04       		.byte	0x4
 1398 0989 08       		.uleb128 0x8
 1399 098a 12060000 		.4byte	.LASF147
 1400 098e 13       		.byte	0x13
 1401 098f 7A       		.byte	0x7a
 1402 0990 F4000000 		.4byte	0xf4
 1403 0994 80       		.byte	0x80
 1404 0995 08       		.uleb128 0x8
 1405 0996 04030000 		.4byte	.LASF148
 1406 099a 13       		.byte	0x13
 1407 099b 7B       		.byte	0x7b
 1408 099c F4000000 		.4byte	0xf4
 1409 09a0 84       		.byte	0x84
 1410 09a1 08       		.uleb128 0x8
 1411 09a2 15090000 		.4byte	.LASF149
 1412 09a6 13       		.byte	0x13
 1413 09a7 7C       		.byte	0x7c
 1414 09a8 F9000000 		.4byte	0xf9
 1415 09ac 88       		.byte	0x88
 1416 09ad 08       		.uleb128 0x8
 1417 09ae 0C030000 		.4byte	.LASF150
 1418 09b2 13       		.byte	0x13
 1419 09b3 7D       		.byte	0x7d
 1420 09b4 F4000000 		.4byte	0xf4
 1421 09b8 8C       		.byte	0x8c
 1422 09b9 08       		.uleb128 0x8
 1423 09ba AB020000 		.4byte	.LASF151
 1424 09be 13       		.byte	0x13
 1425 09bf 7E       		.byte	0x7e
ARM GAS  /tmp/ccebz8JA.s 			page 26


 1426 09c0 470B0000 		.4byte	0xb47
 1427 09c4 90       		.byte	0x90
 1428 09c5 08       		.uleb128 0x8
 1429 09c6 8E000000 		.4byte	.LASF152
 1430 09ca 13       		.byte	0x13
 1431 09cb 7F       		.byte	0x7f
 1432 09cc F4000000 		.4byte	0xf4
 1433 09d0 A0       		.byte	0xa0
 1434 09d1 08       		.uleb128 0x8
 1435 09d2 68090000 		.4byte	.LASF153
 1436 09d6 13       		.byte	0x13
 1437 09d7 80       		.byte	0x80
 1438 09d8 F4000000 		.4byte	0xf4
 1439 09dc A4       		.byte	0xa4
 1440 09dd 08       		.uleb128 0x8
 1441 09de 62060000 		.4byte	.LASF154
 1442 09e2 13       		.byte	0x13
 1443 09e3 81       		.byte	0x81
 1444 09e4 F9000000 		.4byte	0xf9
 1445 09e8 A8       		.byte	0xa8
 1446 09e9 08       		.uleb128 0x8
 1447 09ea 0C010000 		.4byte	.LASF155
 1448 09ee 13       		.byte	0x13
 1449 09ef 82       		.byte	0x82
 1450 09f0 F4000000 		.4byte	0xf4
 1451 09f4 AC       		.byte	0xac
 1452 09f5 08       		.uleb128 0x8
 1453 09f6 36030000 		.4byte	.LASF156
 1454 09fa 13       		.byte	0x13
 1455 09fb 83       		.byte	0x83
 1456 09fc 470B0000 		.4byte	0xb47
 1457 0a00 B0       		.byte	0xb0
 1458 0a01 08       		.uleb128 0x8
 1459 0a02 F2070000 		.4byte	.LASF157
 1460 0a06 13       		.byte	0x13
 1461 0a07 84       		.byte	0x84
 1462 0a08 F4000000 		.4byte	0xf4
 1463 0a0c C0       		.byte	0xc0
 1464 0a0d 08       		.uleb128 0x8
 1465 0a0e 1F060000 		.4byte	.LASF158
 1466 0a12 13       		.byte	0x13
 1467 0a13 85       		.byte	0x85
 1468 0a14 F4000000 		.4byte	0xf4
 1469 0a18 C4       		.byte	0xc4
 1470 0a19 08       		.uleb128 0x8
 1471 0a1a C3020000 		.4byte	.LASF159
 1472 0a1e 13       		.byte	0x13
 1473 0a1f 86       		.byte	0x86
 1474 0a20 31090000 		.4byte	0x931
 1475 0a24 C8       		.byte	0xc8
 1476 0a25 1C       		.uleb128 0x1c
 1477 0a26 1A040000 		.4byte	.LASF160
 1478 0a2a 13       		.byte	0x13
 1479 0a2b 87       		.byte	0x87
 1480 0a2c F4000000 		.4byte	0xf4
 1481 0a30 0401     		.2byte	0x104
 1482 0a32 1C       		.uleb128 0x1c
ARM GAS  /tmp/ccebz8JA.s 			page 27


 1483 0a33 90090000 		.4byte	.LASF161
 1484 0a37 13       		.byte	0x13
 1485 0a38 88       		.byte	0x88
 1486 0a39 F4000000 		.4byte	0xf4
 1487 0a3d 0801     		.2byte	0x108
 1488 0a3f 1C       		.uleb128 0x1c
 1489 0a40 6E050000 		.4byte	.LASF162
 1490 0a44 13       		.byte	0x13
 1491 0a45 89       		.byte	0x89
 1492 0a46 F4000000 		.4byte	0xf4
 1493 0a4a 0C01     		.2byte	0x10c
 1494 0a4c 1C       		.uleb128 0x1c
 1495 0a4d 01050000 		.4byte	.LASF163
 1496 0a51 13       		.byte	0x13
 1497 0a52 8A       		.byte	0x8a
 1498 0a53 F4000000 		.4byte	0xf4
 1499 0a57 1001     		.2byte	0x110
 1500 0a59 1C       		.uleb128 0x1c
 1501 0a5a 400B0000 		.4byte	.LASF164
 1502 0a5e 13       		.byte	0x13
 1503 0a5f 8B       		.byte	0x8b
 1504 0a60 F4000000 		.4byte	0xf4
 1505 0a64 1401     		.2byte	0x114
 1506 0a66 1C       		.uleb128 0x1c
 1507 0a67 CD020000 		.4byte	.LASF165
 1508 0a6b 13       		.byte	0x13
 1509 0a6c 8C       		.byte	0x8c
 1510 0a6d 570B0000 		.4byte	0xb57
 1511 0a71 1801     		.2byte	0x118
 1512 0a73 1C       		.uleb128 0x1c
 1513 0a74 13040000 		.4byte	.LASF166
 1514 0a78 13       		.byte	0x13
 1515 0a79 8D       		.byte	0x8d
 1516 0a7a F4000000 		.4byte	0xf4
 1517 0a7e 4001     		.2byte	0x140
 1518 0a80 1C       		.uleb128 0x1c
 1519 0a81 40030000 		.4byte	.LASF167
 1520 0a85 13       		.byte	0x13
 1521 0a86 8E       		.byte	0x8e
 1522 0a87 D7080000 		.4byte	0x8d7
 1523 0a8b 4401     		.2byte	0x144
 1524 0a8d 1C       		.uleb128 0x1c
 1525 0a8e E4090000 		.4byte	.LASF168
 1526 0a92 13       		.byte	0x13
 1527 0a93 8F       		.byte	0x8f
 1528 0a94 F4000000 		.4byte	0xf4
 1529 0a98 4801     		.2byte	0x148
 1530 0a9a 1C       		.uleb128 0x1c
 1531 0a9b 85030000 		.4byte	.LASF169
 1532 0a9f 13       		.byte	0x13
 1533 0aa0 90       		.byte	0x90
 1534 0aa1 F4000000 		.4byte	0xf4
 1535 0aa5 4C01     		.2byte	0x14c
 1536 0aa7 1C       		.uleb128 0x1c
 1537 0aa8 DE020000 		.4byte	.LASF170
 1538 0aac 13       		.byte	0x13
 1539 0aad 91       		.byte	0x91
ARM GAS  /tmp/ccebz8JA.s 			page 28


 1540 0aae 670B0000 		.4byte	0xb67
 1541 0ab2 5001     		.2byte	0x150
 1542 0ab4 1C       		.uleb128 0x1c
 1543 0ab5 4C080000 		.4byte	.LASF171
 1544 0ab9 13       		.byte	0x13
 1545 0aba 92       		.byte	0x92
 1546 0abb F4000000 		.4byte	0xf4
 1547 0abf 8001     		.2byte	0x180
 1548 0ac1 1C       		.uleb128 0x1c
 1549 0ac2 E8020000 		.4byte	.LASF172
 1550 0ac6 13       		.byte	0x13
 1551 0ac7 93       		.byte	0x93
 1552 0ac8 770B0000 		.4byte	0xb77
 1553 0acc 8401     		.2byte	0x184
 1554 0ace 1D       		.uleb128 0x1d
 1555 0acf 53435300 		.ascii	"SCS\000"
 1556 0ad3 13       		.byte	0x13
 1557 0ad4 94       		.byte	0x94
 1558 0ad5 F4000000 		.4byte	0xf4
 1559 0ad9 A001     		.2byte	0x1a0
 1560 0adb 1C       		.uleb128 0x1c
 1561 0adc 03080000 		.4byte	.LASF173
 1562 0ae0 13       		.byte	0x13
 1563 0ae1 95       		.byte	0x95
 1564 0ae2 F4000000 		.4byte	0xf4
 1565 0ae6 A401     		.2byte	0x1a4
 1566 0ae8 1C       		.uleb128 0x1c
 1567 0ae9 22040000 		.4byte	.LASF174
 1568 0aed 13       		.byte	0x13
 1569 0aee 96       		.byte	0x96
 1570 0aef F4000000 		.4byte	0xf4
 1571 0af3 A801     		.2byte	0x1a8
 1572 0af5 1C       		.uleb128 0x1c
 1573 0af6 2B040000 		.4byte	.LASF175
 1574 0afa 13       		.byte	0x13
 1575 0afb 97       		.byte	0x97
 1576 0afc F4000000 		.4byte	0xf4
 1577 0b00 AC01     		.2byte	0x1ac
 1578 0b02 1C       		.uleb128 0x1c
 1579 0b03 F2020000 		.4byte	.LASF176
 1580 0b07 13       		.byte	0x13
 1581 0b08 98       		.byte	0x98
 1582 0b09 470B0000 		.4byte	0xb47
 1583 0b0d B001     		.2byte	0x1b0
 1584 0b0f 1C       		.uleb128 0x1c
 1585 0b10 2D030000 		.4byte	.LASF177
 1586 0b14 13       		.byte	0x13
 1587 0b15 99       		.byte	0x99
 1588 0b16 F4000000 		.4byte	0xf4
 1589 0b1a C001     		.2byte	0x1c0
 1590 0b1c 1C       		.uleb128 0x1c
 1591 0b1d 9F000000 		.4byte	.LASF178
 1592 0b21 13       		.byte	0x13
 1593 0b22 9A       		.byte	0x9a
 1594 0b23 F4000000 		.4byte	0xf4
 1595 0b27 C401     		.2byte	0x1c4
 1596 0b29 1C       		.uleb128 0x1c
ARM GAS  /tmp/ccebz8JA.s 			page 29


 1597 0b2a 0B080000 		.4byte	.LASF179
 1598 0b2e 13       		.byte	0x13
 1599 0b2f 9B       		.byte	0x9b
 1600 0b30 F4000000 		.4byte	0xf4
 1601 0b34 C801     		.2byte	0x1c8
 1602 0b36 00       		.byte	0
 1603 0b37 17       		.uleb128 0x17
 1604 0b38 E9000000 		.4byte	0xe9
 1605 0b3c 470B0000 		.4byte	0xb47
 1606 0b40 18       		.uleb128 0x18
 1607 0b41 92030000 		.4byte	0x392
 1608 0b45 1E       		.byte	0x1e
 1609 0b46 00       		.byte	0
 1610 0b47 17       		.uleb128 0x17
 1611 0b48 E9000000 		.4byte	0xe9
 1612 0b4c 570B0000 		.4byte	0xb57
 1613 0b50 18       		.uleb128 0x18
 1614 0b51 92030000 		.4byte	0x392
 1615 0b55 03       		.byte	0x3
 1616 0b56 00       		.byte	0
 1617 0b57 17       		.uleb128 0x17
 1618 0b58 E9000000 		.4byte	0xe9
 1619 0b5c 670B0000 		.4byte	0xb67
 1620 0b60 18       		.uleb128 0x18
 1621 0b61 92030000 		.4byte	0x392
 1622 0b65 09       		.byte	0x9
 1623 0b66 00       		.byte	0
 1624 0b67 17       		.uleb128 0x17
 1625 0b68 E9000000 		.4byte	0xe9
 1626 0b6c 770B0000 		.4byte	0xb77
 1627 0b70 18       		.uleb128 0x18
 1628 0b71 92030000 		.4byte	0x392
 1629 0b75 0B       		.byte	0xb
 1630 0b76 00       		.byte	0
 1631 0b77 17       		.uleb128 0x17
 1632 0b78 E9000000 		.4byte	0xe9
 1633 0b7c 870B0000 		.4byte	0xb87
 1634 0b80 18       		.uleb128 0x18
 1635 0b81 92030000 		.4byte	0x392
 1636 0b85 06       		.byte	0x6
 1637 0b86 00       		.byte	0
 1638 0b87 03       		.uleb128 0x3
 1639 0b88 34000000 		.4byte	.LASF180
 1640 0b8c 13       		.byte	0x13
 1641 0b8d 9D       		.byte	0x9d
 1642 0b8e 68090000 		.4byte	0x968
 1643 0b92 0A       		.uleb128 0xa
 1644 0b93 04       		.byte	0x4
 1645 0b94 13       		.byte	0x13
 1646 0b95 C7       		.byte	0xc7
 1647 0b96 B30B0000 		.4byte	0xbb3
 1648 0b9a 08       		.uleb128 0x8
 1649 0b9b AF050000 		.4byte	.LASF181
 1650 0b9f 13       		.byte	0x13
 1651 0ba0 C8       		.byte	0xc8
 1652 0ba1 D4000000 		.4byte	0xd4
 1653 0ba5 00       		.byte	0
ARM GAS  /tmp/ccebz8JA.s 			page 30


 1654 0ba6 08       		.uleb128 0x8
 1655 0ba7 A7050000 		.4byte	.LASF182
 1656 0bab 13       		.byte	0x13
 1657 0bac C9       		.byte	0xc9
 1658 0bad D4000000 		.4byte	0xd4
 1659 0bb1 02       		.byte	0x2
 1660 0bb2 00       		.byte	0
 1661 0bb3 0A       		.uleb128 0xa
 1662 0bb4 04       		.byte	0x4
 1663 0bb5 13       		.byte	0x13
 1664 0bb6 CB       		.byte	0xcb
 1665 0bb7 EC0B0000 		.4byte	0xbec
 1666 0bbb 08       		.uleb128 0x8
 1667 0bbc 78050000 		.4byte	.LASF183
 1668 0bc0 13       		.byte	0x13
 1669 0bc1 CC       		.byte	0xcc
 1670 0bc2 BF000000 		.4byte	0xbf
 1671 0bc6 00       		.byte	0
 1672 0bc7 08       		.uleb128 0x8
 1673 0bc8 80050000 		.4byte	.LASF184
 1674 0bcc 13       		.byte	0x13
 1675 0bcd CD       		.byte	0xcd
 1676 0bce BF000000 		.4byte	0xbf
 1677 0bd2 01       		.byte	0x1
 1678 0bd3 08       		.uleb128 0x8
 1679 0bd4 88050000 		.4byte	.LASF185
 1680 0bd8 13       		.byte	0x13
 1681 0bd9 CE       		.byte	0xce
 1682 0bda BF000000 		.4byte	0xbf
 1683 0bde 02       		.byte	0x2
 1684 0bdf 08       		.uleb128 0x8
 1685 0be0 90050000 		.4byte	.LASF186
 1686 0be4 13       		.byte	0x13
 1687 0be5 CF       		.byte	0xcf
 1688 0be6 BF000000 		.4byte	0xbf
 1689 0bea 03       		.byte	0x3
 1690 0beb 00       		.byte	0
 1691 0bec 14       		.uleb128 0x14
 1692 0bed 04       		.byte	0x4
 1693 0bee 13       		.byte	0x13
 1694 0bef C5       		.byte	0xc5
 1695 0bf0 0A0C0000 		.4byte	0xc0a
 1696 0bf4 15       		.uleb128 0x15
 1697 0bf5 1C080000 		.4byte	.LASF187
 1698 0bf9 13       		.byte	0x13
 1699 0bfa C6       		.byte	0xc6
 1700 0bfb F4000000 		.4byte	0xf4
 1701 0bff 1E       		.uleb128 0x1e
 1702 0c00 920B0000 		.4byte	0xb92
 1703 0c04 1E       		.uleb128 0x1e
 1704 0c05 B30B0000 		.4byte	0xbb3
 1705 0c09 00       		.byte	0
 1706 0c0a 0A       		.uleb128 0xa
 1707 0c0b 04       		.byte	0x4
 1708 0c0c 13       		.byte	0x13
 1709 0c0d D5       		.byte	0xd5
 1710 0c0e 2B0C0000 		.4byte	0xc2b
ARM GAS  /tmp/ccebz8JA.s 			page 31


 1711 0c12 08       		.uleb128 0x8
 1712 0c13 26070000 		.4byte	.LASF188
 1713 0c17 13       		.byte	0x13
 1714 0c18 D6       		.byte	0xd6
 1715 0c19 D4000000 		.4byte	0xd4
 1716 0c1d 00       		.byte	0
 1717 0c1e 08       		.uleb128 0x8
 1718 0c1f 16070000 		.4byte	.LASF189
 1719 0c23 13       		.byte	0x13
 1720 0c24 D7       		.byte	0xd7
 1721 0c25 D4000000 		.4byte	0xd4
 1722 0c29 02       		.byte	0x2
 1723 0c2a 00       		.byte	0
 1724 0c2b 0A       		.uleb128 0xa
 1725 0c2c 04       		.byte	0x4
 1726 0c2d 13       		.byte	0x13
 1727 0c2e D9       		.byte	0xd9
 1728 0c2f 640C0000 		.4byte	0xc64
 1729 0c33 08       		.uleb128 0x8
 1730 0c34 BB060000 		.4byte	.LASF190
 1731 0c38 13       		.byte	0x13
 1732 0c39 DA       		.byte	0xda
 1733 0c3a BF000000 		.4byte	0xbf
 1734 0c3e 00       		.byte	0
 1735 0c3f 08       		.uleb128 0x8
 1736 0c40 C4060000 		.4byte	.LASF191
 1737 0c44 13       		.byte	0x13
 1738 0c45 DB       		.byte	0xdb
 1739 0c46 BF000000 		.4byte	0xbf
 1740 0c4a 01       		.byte	0x1
 1741 0c4b 08       		.uleb128 0x8
 1742 0c4c CD060000 		.4byte	.LASF192
 1743 0c50 13       		.byte	0x13
 1744 0c51 DC       		.byte	0xdc
 1745 0c52 BF000000 		.4byte	0xbf
 1746 0c56 02       		.byte	0x2
 1747 0c57 08       		.uleb128 0x8
 1748 0c58 D6060000 		.4byte	.LASF193
 1749 0c5c 13       		.byte	0x13
 1750 0c5d DD       		.byte	0xdd
 1751 0c5e BF000000 		.4byte	0xbf
 1752 0c62 03       		.byte	0x3
 1753 0c63 00       		.byte	0
 1754 0c64 14       		.uleb128 0x14
 1755 0c65 04       		.byte	0x4
 1756 0c66 13       		.byte	0x13
 1757 0c67 D3       		.byte	0xd3
 1758 0c68 820C0000 		.4byte	0xc82
 1759 0c6c 15       		.uleb128 0x15
 1760 0c6d 4B050000 		.4byte	.LASF194
 1761 0c71 13       		.byte	0x13
 1762 0c72 D4       		.byte	0xd4
 1763 0c73 F4000000 		.4byte	0xf4
 1764 0c77 1E       		.uleb128 0x1e
 1765 0c78 0A0C0000 		.4byte	0xc0a
 1766 0c7c 1E       		.uleb128 0x1e
 1767 0c7d 2B0C0000 		.4byte	0xc2b
ARM GAS  /tmp/ccebz8JA.s 			page 32


 1768 0c81 00       		.byte	0
 1769 0c82 0A       		.uleb128 0xa
 1770 0c83 04       		.byte	0x4
 1771 0c84 13       		.byte	0x13
 1772 0c85 E2       		.byte	0xe2
 1773 0c86 A30C0000 		.4byte	0xca3
 1774 0c8a 08       		.uleb128 0x8
 1775 0c8b A6040000 		.4byte	.LASF195
 1776 0c8f 13       		.byte	0x13
 1777 0c90 E3       		.byte	0xe3
 1778 0c91 D4000000 		.4byte	0xd4
 1779 0c95 00       		.byte	0
 1780 0c96 08       		.uleb128 0x8
 1781 0c97 9E040000 		.4byte	.LASF196
 1782 0c9b 13       		.byte	0x13
 1783 0c9c E4       		.byte	0xe4
 1784 0c9d D4000000 		.4byte	0xd4
 1785 0ca1 02       		.byte	0x2
 1786 0ca2 00       		.byte	0
 1787 0ca3 0A       		.uleb128 0xa
 1788 0ca4 04       		.byte	0x4
 1789 0ca5 13       		.byte	0x13
 1790 0ca6 E6       		.byte	0xe6
 1791 0ca7 DC0C0000 		.4byte	0xcdc
 1792 0cab 08       		.uleb128 0x8
 1793 0cac 4D040000 		.4byte	.LASF197
 1794 0cb0 13       		.byte	0x13
 1795 0cb1 E7       		.byte	0xe7
 1796 0cb2 BF000000 		.4byte	0xbf
 1797 0cb6 00       		.byte	0
 1798 0cb7 08       		.uleb128 0x8
 1799 0cb8 55040000 		.4byte	.LASF198
 1800 0cbc 13       		.byte	0x13
 1801 0cbd E8       		.byte	0xe8
 1802 0cbe BF000000 		.4byte	0xbf
 1803 0cc2 01       		.byte	0x1
 1804 0cc3 08       		.uleb128 0x8
 1805 0cc4 5D040000 		.4byte	.LASF199
 1806 0cc8 13       		.byte	0x13
 1807 0cc9 E9       		.byte	0xe9
 1808 0cca BF000000 		.4byte	0xbf
 1809 0cce 02       		.byte	0x2
 1810 0ccf 08       		.uleb128 0x8
 1811 0cd0 65040000 		.4byte	.LASF200
 1812 0cd4 13       		.byte	0x13
 1813 0cd5 EA       		.byte	0xea
 1814 0cd6 BF000000 		.4byte	0xbf
 1815 0cda 03       		.byte	0x3
 1816 0cdb 00       		.byte	0
 1817 0cdc 14       		.uleb128 0x14
 1818 0cdd 04       		.byte	0x4
 1819 0cde 13       		.byte	0x13
 1820 0cdf E0       		.byte	0xe0
 1821 0ce0 FA0C0000 		.4byte	0xcfa
 1822 0ce4 15       		.uleb128 0x15
 1823 0ce5 01090000 		.4byte	.LASF201
 1824 0ce9 13       		.byte	0x13
ARM GAS  /tmp/ccebz8JA.s 			page 33


 1825 0cea E1       		.byte	0xe1
 1826 0ceb F4000000 		.4byte	0xf4
 1827 0cef 1E       		.uleb128 0x1e
 1828 0cf0 820C0000 		.4byte	0xc82
 1829 0cf4 1E       		.uleb128 0x1e
 1830 0cf5 A30C0000 		.4byte	0xca3
 1831 0cf9 00       		.byte	0
 1832 0cfa 0A       		.uleb128 0xa
 1833 0cfb 04       		.byte	0x4
 1834 0cfc 13       		.byte	0x13
 1835 0cfd EF       		.byte	0xef
 1836 0cfe 1B0D0000 		.4byte	0xd1b
 1837 0d02 08       		.uleb128 0x8
 1838 0d03 E5030000 		.4byte	.LASF202
 1839 0d07 13       		.byte	0x13
 1840 0d08 F0       		.byte	0xf0
 1841 0d09 D4000000 		.4byte	0xd4
 1842 0d0d 00       		.byte	0
 1843 0d0e 08       		.uleb128 0x8
 1844 0d0f DD030000 		.4byte	.LASF203
 1845 0d13 13       		.byte	0x13
 1846 0d14 F1       		.byte	0xf1
 1847 0d15 D4000000 		.4byte	0xd4
 1848 0d19 02       		.byte	0x2
 1849 0d1a 00       		.byte	0
 1850 0d1b 0A       		.uleb128 0xa
 1851 0d1c 04       		.byte	0x4
 1852 0d1d 13       		.byte	0x13
 1853 0d1e F3       		.byte	0xf3
 1854 0d1f 540D0000 		.4byte	0xd54
 1855 0d23 08       		.uleb128 0x8
 1856 0d24 B9030000 		.4byte	.LASF204
 1857 0d28 13       		.byte	0x13
 1858 0d29 F4       		.byte	0xf4
 1859 0d2a BF000000 		.4byte	0xbf
 1860 0d2e 00       		.byte	0
 1861 0d2f 08       		.uleb128 0x8
 1862 0d30 C1030000 		.4byte	.LASF205
 1863 0d34 13       		.byte	0x13
 1864 0d35 F5       		.byte	0xf5
 1865 0d36 BF000000 		.4byte	0xbf
 1866 0d3a 01       		.byte	0x1
 1867 0d3b 08       		.uleb128 0x8
 1868 0d3c C9030000 		.4byte	.LASF206
 1869 0d40 13       		.byte	0x13
 1870 0d41 F6       		.byte	0xf6
 1871 0d42 BF000000 		.4byte	0xbf
 1872 0d46 02       		.byte	0x2
 1873 0d47 08       		.uleb128 0x8
 1874 0d48 7F0B0000 		.4byte	.LASF207
 1875 0d4c 13       		.byte	0x13
 1876 0d4d F7       		.byte	0xf7
 1877 0d4e BF000000 		.4byte	0xbf
 1878 0d52 03       		.byte	0x3
 1879 0d53 00       		.byte	0
 1880 0d54 14       		.uleb128 0x14
 1881 0d55 04       		.byte	0x4
ARM GAS  /tmp/ccebz8JA.s 			page 34


 1882 0d56 13       		.byte	0x13
 1883 0d57 ED       		.byte	0xed
 1884 0d58 720D0000 		.4byte	0xd72
 1885 0d5c 15       		.uleb128 0x15
 1886 0d5d 05060000 		.4byte	.LASF208
 1887 0d61 13       		.byte	0x13
 1888 0d62 EE       		.byte	0xee
 1889 0d63 F4000000 		.4byte	0xf4
 1890 0d67 1E       		.uleb128 0x1e
 1891 0d68 FA0C0000 		.4byte	0xcfa
 1892 0d6c 1E       		.uleb128 0x1e
 1893 0d6d 1B0D0000 		.4byte	0xd1b
 1894 0d71 00       		.byte	0
 1895 0d72 0A       		.uleb128 0xa
 1896 0d73 04       		.byte	0x4
 1897 0d74 13       		.byte	0x13
 1898 0d75 FC       		.byte	0xfc
 1899 0d76 930D0000 		.4byte	0xd93
 1900 0d7a 08       		.uleb128 0x8
 1901 0d7b 4B070000 		.4byte	.LASF209
 1902 0d7f 13       		.byte	0x13
 1903 0d80 FD       		.byte	0xfd
 1904 0d81 D4000000 		.4byte	0xd4
 1905 0d85 00       		.byte	0
 1906 0d86 08       		.uleb128 0x8
 1907 0d87 43070000 		.4byte	.LASF210
 1908 0d8b 13       		.byte	0x13
 1909 0d8c FE       		.byte	0xfe
 1910 0d8d D4000000 		.4byte	0xd4
 1911 0d91 02       		.byte	0x2
 1912 0d92 00       		.byte	0
 1913 0d93 19       		.uleb128 0x19
 1914 0d94 04       		.byte	0x4
 1915 0d95 13       		.byte	0x13
 1916 0d96 0001     		.2byte	0x100
 1917 0d98 D10D0000 		.4byte	0xdd1
 1918 0d9c 0F       		.uleb128 0xf
 1919 0d9d EF060000 		.4byte	.LASF211
 1920 0da1 13       		.byte	0x13
 1921 0da2 0101     		.2byte	0x101
 1922 0da4 BF000000 		.4byte	0xbf
 1923 0da8 00       		.byte	0
 1924 0da9 0F       		.uleb128 0xf
 1925 0daa F7060000 		.4byte	.LASF212
 1926 0dae 13       		.byte	0x13
 1927 0daf 0201     		.2byte	0x102
 1928 0db1 BF000000 		.4byte	0xbf
 1929 0db5 01       		.byte	0x1
 1930 0db6 0F       		.uleb128 0xf
 1931 0db7 FF060000 		.4byte	.LASF213
 1932 0dbb 13       		.byte	0x13
 1933 0dbc 0301     		.2byte	0x103
 1934 0dbe BF000000 		.4byte	0xbf
 1935 0dc2 02       		.byte	0x2
 1936 0dc3 0F       		.uleb128 0xf
 1937 0dc4 07070000 		.4byte	.LASF214
 1938 0dc8 13       		.byte	0x13
ARM GAS  /tmp/ccebz8JA.s 			page 35


 1939 0dc9 0401     		.2byte	0x104
 1940 0dcb BF000000 		.4byte	0xbf
 1941 0dcf 03       		.byte	0x3
 1942 0dd0 00       		.byte	0
 1943 0dd1 14       		.uleb128 0x14
 1944 0dd2 04       		.byte	0x4
 1945 0dd3 13       		.byte	0x13
 1946 0dd4 FA       		.byte	0xfa
 1947 0dd5 EF0D0000 		.4byte	0xdef
 1948 0dd9 15       		.uleb128 0x15
 1949 0dda 51080000 		.4byte	.LASF215
 1950 0dde 13       		.byte	0x13
 1951 0ddf FB       		.byte	0xfb
 1952 0de0 F4000000 		.4byte	0xf4
 1953 0de4 1E       		.uleb128 0x1e
 1954 0de5 720D0000 		.4byte	0xd72
 1955 0de9 1E       		.uleb128 0x1e
 1956 0dea 930D0000 		.4byte	0xd93
 1957 0dee 00       		.byte	0
 1958 0def 0A       		.uleb128 0xa
 1959 0df0 20       		.byte	0x20
 1960 0df1 13       		.byte	0x13
 1961 0df2 C3       		.byte	0xc3
 1962 0df3 220E0000 		.4byte	0xe22
 1963 0df7 1F       		.uleb128 0x1f
 1964 0df8 EC0B0000 		.4byte	0xbec
 1965 0dfc 00       		.byte	0
 1966 0dfd 08       		.uleb128 0x8
 1967 0dfe A1020000 		.4byte	.LASF146
 1968 0e02 13       		.byte	0x13
 1969 0e03 D2       		.byte	0xd2
 1970 0e04 220E0000 		.4byte	0xe22
 1971 0e08 04       		.byte	0x4
 1972 0e09 1F       		.uleb128 0x1f
 1973 0e0a 640C0000 		.4byte	0xc64
 1974 0e0e 10       		.byte	0x10
 1975 0e0f 1F       		.uleb128 0x1f
 1976 0e10 DC0C0000 		.4byte	0xcdc
 1977 0e14 14       		.byte	0x14
 1978 0e15 1F       		.uleb128 0x1f
 1979 0e16 540D0000 		.4byte	0xd54
 1980 0e1a 18       		.byte	0x18
 1981 0e1b 1F       		.uleb128 0x1f
 1982 0e1c D10D0000 		.4byte	0xdd1
 1983 0e20 1C       		.byte	0x1c
 1984 0e21 00       		.byte	0
 1985 0e22 17       		.uleb128 0x17
 1986 0e23 E9000000 		.4byte	0xe9
 1987 0e27 320E0000 		.4byte	0xe32
 1988 0e2b 18       		.uleb128 0x18
 1989 0e2c 92030000 		.4byte	0x392
 1990 0e30 02       		.byte	0x2
 1991 0e31 00       		.byte	0
 1992 0e32 10       		.uleb128 0x10
 1993 0e33 DC0A0000 		.4byte	.LASF216
 1994 0e37 13       		.byte	0x13
 1995 0e38 0701     		.2byte	0x107
ARM GAS  /tmp/ccebz8JA.s 			page 36


 1996 0e3a EF0D0000 		.4byte	0xdef
 1997 0e3e 19       		.uleb128 0x19
 1998 0e3f 74       		.byte	0x74
 1999 0e40 13       		.byte	0x13
 2000 0e41 1C01     		.2byte	0x11c
 2001 0e43 210F0000 		.4byte	0xf21
 2002 0e47 0E       		.uleb128 0xe
 2003 0e48 495200   		.ascii	"IR\000"
 2004 0e4b 13       		.byte	0x13
 2005 0e4c 1E01     		.2byte	0x11e
 2006 0e4e F4000000 		.4byte	0xf4
 2007 0e52 00       		.byte	0
 2008 0e53 0E       		.uleb128 0xe
 2009 0e54 54435200 		.ascii	"TCR\000"
 2010 0e58 13       		.byte	0x13
 2011 0e59 1F01     		.2byte	0x11f
 2012 0e5b F4000000 		.4byte	0xf4
 2013 0e5f 04       		.byte	0x4
 2014 0e60 0E       		.uleb128 0xe
 2015 0e61 544300   		.ascii	"TC\000"
 2016 0e64 13       		.byte	0x13
 2017 0e65 2001     		.2byte	0x120
 2018 0e67 F4000000 		.4byte	0xf4
 2019 0e6b 08       		.byte	0x8
 2020 0e6c 0E       		.uleb128 0xe
 2021 0e6d 505200   		.ascii	"PR\000"
 2022 0e70 13       		.byte	0x13
 2023 0e71 2101     		.2byte	0x121
 2024 0e73 F4000000 		.4byte	0xf4
 2025 0e77 0C       		.byte	0xc
 2026 0e78 0E       		.uleb128 0xe
 2027 0e79 504300   		.ascii	"PC\000"
 2028 0e7c 13       		.byte	0x13
 2029 0e7d 2201     		.2byte	0x122
 2030 0e7f F4000000 		.4byte	0xf4
 2031 0e83 10       		.byte	0x10
 2032 0e84 0E       		.uleb128 0xe
 2033 0e85 4D435200 		.ascii	"MCR\000"
 2034 0e89 13       		.byte	0x13
 2035 0e8a 2301     		.2byte	0x123
 2036 0e8c F4000000 		.4byte	0xf4
 2037 0e90 14       		.byte	0x14
 2038 0e91 0E       		.uleb128 0xe
 2039 0e92 4D523000 		.ascii	"MR0\000"
 2040 0e96 13       		.byte	0x13
 2041 0e97 2401     		.2byte	0x124
 2042 0e99 F4000000 		.4byte	0xf4
 2043 0e9d 18       		.byte	0x18
 2044 0e9e 0E       		.uleb128 0xe
 2045 0e9f 4D523100 		.ascii	"MR1\000"
 2046 0ea3 13       		.byte	0x13
 2047 0ea4 2501     		.2byte	0x125
 2048 0ea6 F4000000 		.4byte	0xf4
 2049 0eaa 1C       		.byte	0x1c
 2050 0eab 0E       		.uleb128 0xe
 2051 0eac 4D523200 		.ascii	"MR2\000"
 2052 0eb0 13       		.byte	0x13
ARM GAS  /tmp/ccebz8JA.s 			page 37


 2053 0eb1 2601     		.2byte	0x126
 2054 0eb3 F4000000 		.4byte	0xf4
 2055 0eb7 20       		.byte	0x20
 2056 0eb8 0E       		.uleb128 0xe
 2057 0eb9 4D523300 		.ascii	"MR3\000"
 2058 0ebd 13       		.byte	0x13
 2059 0ebe 2701     		.2byte	0x127
 2060 0ec0 F4000000 		.4byte	0xf4
 2061 0ec4 24       		.byte	0x24
 2062 0ec5 0E       		.uleb128 0xe
 2063 0ec6 43435200 		.ascii	"CCR\000"
 2064 0eca 13       		.byte	0x13
 2065 0ecb 2801     		.2byte	0x128
 2066 0ecd F4000000 		.4byte	0xf4
 2067 0ed1 28       		.byte	0x28
 2068 0ed2 0E       		.uleb128 0xe
 2069 0ed3 43523000 		.ascii	"CR0\000"
 2070 0ed7 13       		.byte	0x13
 2071 0ed8 2901     		.2byte	0x129
 2072 0eda F9000000 		.4byte	0xf9
 2073 0ede 2C       		.byte	0x2c
 2074 0edf 0E       		.uleb128 0xe
 2075 0ee0 43523100 		.ascii	"CR1\000"
 2076 0ee4 13       		.byte	0x13
 2077 0ee5 2A01     		.2byte	0x12a
 2078 0ee7 F9000000 		.4byte	0xf9
 2079 0eeb 30       		.byte	0x30
 2080 0eec 0F       		.uleb128 0xf
 2081 0eed A1020000 		.4byte	.LASF146
 2082 0ef1 13       		.byte	0x13
 2083 0ef2 2B01     		.2byte	0x12b
 2084 0ef4 41090000 		.4byte	0x941
 2085 0ef8 34       		.byte	0x34
 2086 0ef9 0E       		.uleb128 0xe
 2087 0efa 454D5200 		.ascii	"EMR\000"
 2088 0efe 13       		.byte	0x13
 2089 0eff 2C01     		.2byte	0x12c
 2090 0f01 F4000000 		.4byte	0xf4
 2091 0f05 3C       		.byte	0x3c
 2092 0f06 0F       		.uleb128 0xf
 2093 0f07 AB020000 		.4byte	.LASF151
 2094 0f0b 13       		.byte	0x13
 2095 0f0c 2D01     		.2byte	0x12d
 2096 0f0e 670B0000 		.4byte	0xb67
 2097 0f12 40       		.byte	0x40
 2098 0f13 0F       		.uleb128 0xf
 2099 0f14 CA000000 		.4byte	.LASF217
 2100 0f18 13       		.byte	0x13
 2101 0f19 2E01     		.2byte	0x12e
 2102 0f1b F4000000 		.4byte	0xf4
 2103 0f1f 70       		.byte	0x70
 2104 0f20 00       		.byte	0
 2105 0f21 10       		.uleb128 0x10
 2106 0f22 2F080000 		.4byte	.LASF218
 2107 0f26 13       		.byte	0x13
 2108 0f27 2F01     		.2byte	0x12f
 2109 0f29 3E0E0000 		.4byte	0xe3e
ARM GAS  /tmp/ccebz8JA.s 			page 38


 2110 0f2d 20       		.uleb128 0x20
 2111 0f2e 04       		.byte	0x4
 2112 0f2f 13       		.byte	0x13
 2113 0f30 5201     		.2byte	0x152
 2114 0f32 5B0F0000 		.4byte	0xf5b
 2115 0f36 21       		.uleb128 0x21
 2116 0f37 52425200 		.ascii	"RBR\000"
 2117 0f3b 13       		.byte	0x13
 2118 0f3c 5301     		.2byte	0x153
 2119 0f3e F9000000 		.4byte	0xf9
 2120 0f42 21       		.uleb128 0x21
 2121 0f43 54485200 		.ascii	"THR\000"
 2122 0f47 13       		.byte	0x13
 2123 0f48 5401     		.2byte	0x154
 2124 0f4a F4000000 		.4byte	0xf4
 2125 0f4e 21       		.uleb128 0x21
 2126 0f4f 444C4C00 		.ascii	"DLL\000"
 2127 0f53 13       		.byte	0x13
 2128 0f54 5501     		.2byte	0x155
 2129 0f56 F4000000 		.4byte	0xf4
 2130 0f5a 00       		.byte	0
 2131 0f5b 20       		.uleb128 0x20
 2132 0f5c 04       		.byte	0x4
 2133 0f5d 13       		.byte	0x13
 2134 0f5e 5701     		.2byte	0x157
 2135 0f60 7D0F0000 		.4byte	0xf7d
 2136 0f64 21       		.uleb128 0x21
 2137 0f65 444C4D00 		.ascii	"DLM\000"
 2138 0f69 13       		.byte	0x13
 2139 0f6a 5801     		.2byte	0x158
 2140 0f6c F4000000 		.4byte	0xf4
 2141 0f70 21       		.uleb128 0x21
 2142 0f71 49455200 		.ascii	"IER\000"
 2143 0f75 13       		.byte	0x13
 2144 0f76 5901     		.2byte	0x159
 2145 0f78 F4000000 		.4byte	0xf4
 2146 0f7c 00       		.byte	0
 2147 0f7d 20       		.uleb128 0x20
 2148 0f7e 04       		.byte	0x4
 2149 0f7f 13       		.byte	0x13
 2150 0f80 5B01     		.2byte	0x15b
 2151 0f82 9F0F0000 		.4byte	0xf9f
 2152 0f86 21       		.uleb128 0x21
 2153 0f87 49495200 		.ascii	"IIR\000"
 2154 0f8b 13       		.byte	0x13
 2155 0f8c 5C01     		.2byte	0x15c
 2156 0f8e F9000000 		.4byte	0xf9
 2157 0f92 21       		.uleb128 0x21
 2158 0f93 46435200 		.ascii	"FCR\000"
 2159 0f97 13       		.byte	0x13
 2160 0f98 5D01     		.2byte	0x15d
 2161 0f9a F4000000 		.4byte	0xf4
 2162 0f9e 00       		.byte	0
 2163 0f9f 19       		.uleb128 0x19
 2164 0fa0 34       		.byte	0x34
 2165 0fa1 13       		.byte	0x13
 2166 0fa2 5001     		.2byte	0x150
ARM GAS  /tmp/ccebz8JA.s 			page 39


 2167 0fa4 3D100000 		.4byte	0x103d
 2168 0fa8 1F       		.uleb128 0x1f
 2169 0fa9 2D0F0000 		.4byte	0xf2d
 2170 0fad 00       		.byte	0
 2171 0fae 1F       		.uleb128 0x1f
 2172 0faf 5B0F0000 		.4byte	0xf5b
 2173 0fb3 04       		.byte	0x4
 2174 0fb4 1F       		.uleb128 0x1f
 2175 0fb5 7D0F0000 		.4byte	0xf7d
 2176 0fb9 08       		.byte	0x8
 2177 0fba 0E       		.uleb128 0xe
 2178 0fbb 4C435200 		.ascii	"LCR\000"
 2179 0fbf 13       		.byte	0x13
 2180 0fc0 5F01     		.2byte	0x15f
 2181 0fc2 F4000000 		.4byte	0xf4
 2182 0fc6 0C       		.byte	0xc
 2183 0fc7 0F       		.uleb128 0xf
 2184 0fc8 A1020000 		.4byte	.LASF146
 2185 0fcc 13       		.byte	0x13
 2186 0fcd 6001     		.2byte	0x160
 2187 0fcf E9000000 		.4byte	0xe9
 2188 0fd3 10       		.byte	0x10
 2189 0fd4 0E       		.uleb128 0xe
 2190 0fd5 4C535200 		.ascii	"LSR\000"
 2191 0fd9 13       		.byte	0x13
 2192 0fda 6101     		.2byte	0x161
 2193 0fdc F9000000 		.4byte	0xf9
 2194 0fe0 14       		.byte	0x14
 2195 0fe1 0F       		.uleb128 0xf
 2196 0fe2 AB020000 		.4byte	.LASF151
 2197 0fe6 13       		.byte	0x13
 2198 0fe7 6201     		.2byte	0x162
 2199 0fe9 E9000000 		.4byte	0xe9
 2200 0fed 18       		.byte	0x18
 2201 0fee 0E       		.uleb128 0xe
 2202 0fef 53435200 		.ascii	"SCR\000"
 2203 0ff3 13       		.byte	0x13
 2204 0ff4 6301     		.2byte	0x163
 2205 0ff6 F4000000 		.4byte	0xf4
 2206 0ffa 1C       		.byte	0x1c
 2207 0ffb 0E       		.uleb128 0xe
 2208 0ffc 41435200 		.ascii	"ACR\000"
 2209 1000 13       		.byte	0x13
 2210 1001 6401     		.2byte	0x164
 2211 1003 F4000000 		.4byte	0xf4
 2212 1007 20       		.byte	0x20
 2213 1008 0E       		.uleb128 0xe
 2214 1009 49435200 		.ascii	"ICR\000"
 2215 100d 13       		.byte	0x13
 2216 100e 6501     		.2byte	0x165
 2217 1010 F4000000 		.4byte	0xf4
 2218 1014 24       		.byte	0x24
 2219 1015 0E       		.uleb128 0xe
 2220 1016 46445200 		.ascii	"FDR\000"
 2221 101a 13       		.byte	0x13
 2222 101b 6601     		.2byte	0x166
 2223 101d F4000000 		.4byte	0xf4
ARM GAS  /tmp/ccebz8JA.s 			page 40


 2224 1021 28       		.byte	0x28
 2225 1022 0F       		.uleb128 0xf
 2226 1023 36030000 		.4byte	.LASF156
 2227 1027 13       		.byte	0x13
 2228 1028 6701     		.2byte	0x167
 2229 102a E9000000 		.4byte	0xe9
 2230 102e 2C       		.byte	0x2c
 2231 102f 0E       		.uleb128 0xe
 2232 1030 54455200 		.ascii	"TER\000"
 2233 1034 13       		.byte	0x13
 2234 1035 6801     		.2byte	0x168
 2235 1037 F4000000 		.4byte	0xf4
 2236 103b 30       		.byte	0x30
 2237 103c 00       		.byte	0
 2238 103d 10       		.uleb128 0x10
 2239 103e 52090000 		.4byte	.LASF219
 2240 1042 13       		.byte	0x13
 2241 1043 6901     		.2byte	0x169
 2242 1045 9F0F0000 		.4byte	0xf9f
 2243 1049 19       		.uleb128 0x19
 2244 104a 28       		.byte	0x28
 2245 104b 13       		.byte	0x13
 2246 104c 9901     		.2byte	0x199
 2247 104e D3100000 		.4byte	0x10d3
 2248 1052 0E       		.uleb128 0xe
 2249 1053 43523000 		.ascii	"CR0\000"
 2250 1057 13       		.byte	0x13
 2251 1058 9B01     		.2byte	0x19b
 2252 105a F4000000 		.4byte	0xf4
 2253 105e 00       		.byte	0
 2254 105f 0E       		.uleb128 0xe
 2255 1060 43523100 		.ascii	"CR1\000"
 2256 1064 13       		.byte	0x13
 2257 1065 9C01     		.2byte	0x19c
 2258 1067 F4000000 		.4byte	0xf4
 2259 106b 04       		.byte	0x4
 2260 106c 0E       		.uleb128 0xe
 2261 106d 445200   		.ascii	"DR\000"
 2262 1070 13       		.byte	0x13
 2263 1071 9D01     		.2byte	0x19d
 2264 1073 F4000000 		.4byte	0xf4
 2265 1077 08       		.byte	0x8
 2266 1078 0E       		.uleb128 0xe
 2267 1079 535200   		.ascii	"SR\000"
 2268 107c 13       		.byte	0x13
 2269 107d 9E01     		.2byte	0x19e
 2270 107f F9000000 		.4byte	0xf9
 2271 1083 0C       		.byte	0xc
 2272 1084 0F       		.uleb128 0xf
 2273 1085 BC090000 		.4byte	.LASF220
 2274 1089 13       		.byte	0x13
 2275 108a 9F01     		.2byte	0x19f
 2276 108c F4000000 		.4byte	0xf4
 2277 1090 10       		.byte	0x10
 2278 1091 0F       		.uleb128 0xf
 2279 1092 72020000 		.4byte	.LASF221
 2280 1096 13       		.byte	0x13
ARM GAS  /tmp/ccebz8JA.s 			page 41


 2281 1097 A001     		.2byte	0x1a0
 2282 1099 F4000000 		.4byte	0xf4
 2283 109d 14       		.byte	0x14
 2284 109e 0E       		.uleb128 0xe
 2285 109f 52495300 		.ascii	"RIS\000"
 2286 10a3 13       		.byte	0x13
 2287 10a4 A101     		.2byte	0x1a1
 2288 10a6 F4000000 		.4byte	0xf4
 2289 10aa 18       		.byte	0x18
 2290 10ab 0E       		.uleb128 0xe
 2291 10ac 4D495300 		.ascii	"MIS\000"
 2292 10b0 13       		.byte	0x13
 2293 10b1 A201     		.2byte	0x1a2
 2294 10b3 F4000000 		.4byte	0xf4
 2295 10b7 1C       		.byte	0x1c
 2296 10b8 0E       		.uleb128 0xe
 2297 10b9 49435200 		.ascii	"ICR\000"
 2298 10bd 13       		.byte	0x13
 2299 10be A301     		.2byte	0x1a3
 2300 10c0 F4000000 		.4byte	0xf4
 2301 10c4 20       		.byte	0x20
 2302 10c5 0F       		.uleb128 0xf
 2303 10c6 4A030000 		.4byte	.LASF222
 2304 10ca 13       		.byte	0x13
 2305 10cb A401     		.2byte	0x1a4
 2306 10cd F4000000 		.4byte	0xf4
 2307 10d1 24       		.byte	0x24
 2308 10d2 00       		.byte	0
 2309 10d3 10       		.uleb128 0x10
 2310 10d4 31020000 		.4byte	.LASF223
 2311 10d8 13       		.byte	0x13
 2312 10d9 A501     		.2byte	0x1a5
 2313 10db 49100000 		.4byte	0x1049
 2314 10df 19       		.uleb128 0x19
 2315 10e0 14       		.byte	0x14
 2316 10e1 13       		.byte	0x13
 2317 10e2 B402     		.2byte	0x2b4
 2318 10e4 2A110000 		.4byte	0x112a
 2319 10e8 0F       		.uleb128 0xf
 2320 10e9 7B010000 		.4byte	.LASF224
 2321 10ed 13       		.byte	0x13
 2322 10ee B602     		.2byte	0x2b6
 2323 10f0 F4000000 		.4byte	0xf4
 2324 10f4 00       		.byte	0
 2325 10f5 0F       		.uleb128 0xf
 2326 10f6 4D010000 		.4byte	.LASF225
 2327 10fa 13       		.byte	0x13
 2328 10fb B702     		.2byte	0x2b7
 2329 10fd F4000000 		.4byte	0xf4
 2330 1101 04       		.byte	0x4
 2331 1102 0F       		.uleb128 0xf
 2332 1103 70090000 		.4byte	.LASF226
 2333 1107 13       		.byte	0x13
 2334 1108 B802     		.2byte	0x2b8
 2335 110a F4000000 		.4byte	0xf4
 2336 110e 08       		.byte	0x8
 2337 110f 0F       		.uleb128 0xf
ARM GAS  /tmp/ccebz8JA.s 			page 42


 2338 1110 F8040000 		.4byte	.LASF227
 2339 1114 13       		.byte	0x13
 2340 1115 B902     		.2byte	0x2b9
 2341 1117 F4000000 		.4byte	0xf4
 2342 111b 0C       		.byte	0xc
 2343 111c 0F       		.uleb128 0xf
 2344 111d 590A0000 		.4byte	.LASF228
 2345 1121 13       		.byte	0x13
 2346 1122 BA02     		.2byte	0x2ba
 2347 1124 F4000000 		.4byte	0xf4
 2348 1128 10       		.byte	0x10
 2349 1129 00       		.byte	0
 2350 112a 10       		.uleb128 0x10
 2351 112b B0000000 		.4byte	.LASF229
 2352 112f 13       		.byte	0x13
 2353 1130 BB02     		.2byte	0x2bb
 2354 1132 DF100000 		.4byte	0x10df
 2355 1136 17       		.uleb128 0x17
 2356 1137 41110000 		.4byte	0x1141
 2357 113b 41110000 		.4byte	0x1141
 2358 113f 22       		.uleb128 0x22
 2359 1140 00       		.byte	0
 2360 1141 0B       		.uleb128 0xb
 2361 1142 04       		.byte	0x4
 2362 1143 2A110000 		.4byte	0x112a
 2363 1147 1A       		.uleb128 0x1a
 2364 1148 1D050000 		.4byte	.LASF230
 2365 114c 14       		.byte	0x14
 2366 114d 9501     		.2byte	0x195
 2367 114f 36110000 		.4byte	0x1136
 2368 1153 16       		.uleb128 0x16
 2369 1154 47010000 		.4byte	0x147
 2370 1158 6C110000 		.4byte	0x116c
 2371 115c 12       		.uleb128 0x12
 2372 115d DD020000 		.4byte	0x2dd
 2373 1161 12       		.uleb128 0x12
 2374 1162 B4000000 		.4byte	0xb4
 2375 1166 12       		.uleb128 0x12
 2376 1167 68010000 		.4byte	0x168
 2377 116b 00       		.byte	0
 2378 116c 0B       		.uleb128 0xb
 2379 116d 04       		.byte	0x4
 2380 116e 53110000 		.4byte	0x1153
 2381 1172 16       		.uleb128 0x16
 2382 1173 47010000 		.4byte	0x147
 2383 1177 86110000 		.4byte	0x1186
 2384 117b 12       		.uleb128 0x12
 2385 117c DD020000 		.4byte	0x2dd
 2386 1180 12       		.uleb128 0x12
 2387 1181 68010000 		.4byte	0x168
 2388 1185 00       		.byte	0
 2389 1186 0B       		.uleb128 0xb
 2390 1187 04       		.byte	0x4
 2391 1188 72110000 		.4byte	0x1172
 2392 118c 16       		.uleb128 0x16
 2393 118d 2C000000 		.4byte	0x2c
 2394 1191 AA110000 		.4byte	0x11aa
ARM GAS  /tmp/ccebz8JA.s 			page 43


 2395 1195 12       		.uleb128 0x12
 2396 1196 DD020000 		.4byte	0x2dd
 2397 119a 12       		.uleb128 0x12
 2398 119b 77080000 		.4byte	0x877
 2399 119f 12       		.uleb128 0x12
 2400 11a0 2C000000 		.4byte	0x2c
 2401 11a4 12       		.uleb128 0x12
 2402 11a5 68010000 		.4byte	0x168
 2403 11a9 00       		.byte	0
 2404 11aa 0B       		.uleb128 0xb
 2405 11ab 04       		.byte	0x4
 2406 11ac 8C110000 		.4byte	0x118c
 2407 11b0 16       		.uleb128 0x16
 2408 11b1 2C000000 		.4byte	0x2c
 2409 11b5 CE110000 		.4byte	0x11ce
 2410 11b9 12       		.uleb128 0x12
 2411 11ba DD020000 		.4byte	0x2dd
 2412 11be 12       		.uleb128 0x12
 2413 11bf 42080000 		.4byte	0x842
 2414 11c3 12       		.uleb128 0x12
 2415 11c4 2C000000 		.4byte	0x2c
 2416 11c8 12       		.uleb128 0x12
 2417 11c9 68010000 		.4byte	0x168
 2418 11cd 00       		.byte	0
 2419 11ce 0B       		.uleb128 0xb
 2420 11cf 04       		.byte	0x4
 2421 11d0 B0110000 		.4byte	0x11b0
 2422 11d4 0A       		.uleb128 0xa
 2423 11d5 08       		.byte	0x8
 2424 11d6 15       		.byte	0x15
 2425 11d7 2E       		.byte	0x2e
 2426 11d8 F5110000 		.4byte	0x11f5
 2427 11dc 08       		.uleb128 0x8
 2428 11dd 9C0B0000 		.4byte	.LASF231
 2429 11e1 15       		.byte	0x15
 2430 11e2 30       		.byte	0x30
 2431 11e3 E9000000 		.4byte	0xe9
 2432 11e7 00       		.byte	0
 2433 11e8 09       		.uleb128 0x9
 2434 11e9 64697200 		.ascii	"dir\000"
 2435 11ed 15       		.byte	0x15
 2436 11ee 32       		.byte	0x32
 2437 11ef E9000000 		.4byte	0xe9
 2438 11f3 04       		.byte	0x4
 2439 11f4 00       		.byte	0
 2440 11f5 03       		.uleb128 0x3
 2441 11f6 120A0000 		.4byte	.LASF232
 2442 11fa 15       		.byte	0x15
 2443 11fb 33       		.byte	0x33
 2444 11fc D4110000 		.4byte	0x11d4
 2445 1200 0A       		.uleb128 0xa
 2446 1201 28       		.byte	0x28
 2447 1202 15       		.byte	0x15
 2448 1203 41       		.byte	0x41
 2449 1204 40120000 		.4byte	0x1240
 2450 1208 09       		.uleb128 0x9
 2451 1209 503000   		.ascii	"P0\000"
ARM GAS  /tmp/ccebz8JA.s 			page 44


 2452 120c 15       		.byte	0x15
 2453 120d 43       		.byte	0x43
 2454 120e F5110000 		.4byte	0x11f5
 2455 1212 00       		.byte	0
 2456 1213 09       		.uleb128 0x9
 2457 1214 503100   		.ascii	"P1\000"
 2458 1217 15       		.byte	0x15
 2459 1218 45       		.byte	0x45
 2460 1219 F5110000 		.4byte	0x11f5
 2461 121d 08       		.byte	0x8
 2462 121e 09       		.uleb128 0x9
 2463 121f 503200   		.ascii	"P2\000"
 2464 1222 15       		.byte	0x15
 2465 1223 47       		.byte	0x47
 2466 1224 F5110000 		.4byte	0x11f5
 2467 1228 10       		.byte	0x10
 2468 1229 09       		.uleb128 0x9
 2469 122a 503300   		.ascii	"P3\000"
 2470 122d 15       		.byte	0x15
 2471 122e 49       		.byte	0x49
 2472 122f F5110000 		.4byte	0x11f5
 2473 1233 18       		.byte	0x18
 2474 1234 09       		.uleb128 0x9
 2475 1235 503400   		.ascii	"P4\000"
 2476 1238 15       		.byte	0x15
 2477 1239 4B       		.byte	0x4b
 2478 123a F5110000 		.4byte	0x11f5
 2479 123e 20       		.byte	0x20
 2480 123f 00       		.byte	0
 2481 1240 03       		.uleb128 0x3
 2482 1241 340A0000 		.4byte	.LASF233
 2483 1245 15       		.byte	0x15
 2484 1246 4C       		.byte	0x4c
 2485 1247 00120000 		.4byte	0x1200
 2486 124b 06       		.uleb128 0x6
 2487 124c 40120000 		.4byte	0x1240
 2488 1250 03       		.uleb128 0x3
 2489 1251 F3010000 		.4byte	.LASF234
 2490 1255 15       		.byte	0x15
 2491 1256 66       		.byte	0x66
 2492 1257 5B120000 		.4byte	0x125b
 2493 125b 0B       		.uleb128 0xb
 2494 125c 04       		.byte	0x4
 2495 125d 320E0000 		.4byte	0xe32
 2496 1261 1A       		.uleb128 0x1a
 2497 1262 41020000 		.4byte	.LASF235
 2498 1266 15       		.byte	0x15
 2499 1267 3301     		.2byte	0x133
 2500 1269 4B120000 		.4byte	0x124b
 2501 126d 23       		.uleb128 0x23
 2502 126e 01       		.byte	0x1
 2503 126f 5E000000 		.4byte	0x5e
 2504 1273 16       		.byte	0x16
 2505 1274 35       		.byte	0x35
 2506 1275 98120000 		.4byte	0x1298
 2507 1279 24       		.uleb128 0x24
 2508 127a 5B030000 		.4byte	.LASF236
ARM GAS  /tmp/ccebz8JA.s 			page 45


 2509 127e 00       		.byte	0
 2510 127f 24       		.uleb128 0x24
 2511 1280 F40A0000 		.4byte	.LASF237
 2512 1284 01       		.byte	0x1
 2513 1285 24       		.uleb128 0x24
 2514 1286 28090000 		.4byte	.LASF238
 2515 128a 02       		.byte	0x2
 2516 128b 24       		.uleb128 0x24
 2517 128c 32090000 		.4byte	.LASF239
 2518 1290 03       		.byte	0x3
 2519 1291 24       		.uleb128 0x24
 2520 1292 39060000 		.4byte	.LASF240
 2521 1296 04       		.byte	0x4
 2522 1297 00       		.byte	0
 2523 1298 03       		.uleb128 0x3
 2524 1299 D8000000 		.4byte	.LASF241
 2525 129d 16       		.byte	0x16
 2526 129e 3B       		.byte	0x3b
 2527 129f 6D120000 		.4byte	0x126d
 2528 12a3 03       		.uleb128 0x3
 2529 12a4 F3050000 		.4byte	.LASF242
 2530 12a8 16       		.byte	0x16
 2531 12a9 40       		.byte	0x40
 2532 12aa AE120000 		.4byte	0x12ae
 2533 12ae 07       		.uleb128 0x7
 2534 12af F3050000 		.4byte	.LASF242
 2535 12b3 10       		.byte	0x10
 2536 12b4 17       		.byte	0x17
 2537 12b5 93       		.byte	0x93
 2538 12b6 EB120000 		.4byte	0x12eb
 2539 12ba 08       		.uleb128 0x8
 2540 12bb EA000000 		.4byte	.LASF243
 2541 12bf 17       		.byte	0x17
 2542 12c0 97       		.byte	0x97
 2543 12c1 98120000 		.4byte	0x1298
 2544 12c5 00       		.byte	0
 2545 12c6 08       		.uleb128 0x8
 2546 12c7 E3000000 		.4byte	.LASF244
 2547 12cb 17       		.byte	0x17
 2548 12cc 9B       		.byte	0x9b
 2549 12cd 49130000 		.4byte	0x1349
 2550 12d1 04       		.byte	0x4
 2551 12d2 08       		.uleb128 0x8
 2552 12d3 53050000 		.4byte	.LASF245
 2553 12d7 17       		.byte	0x17
 2554 12d8 A0       		.byte	0xa0
 2555 12d9 E9000000 		.4byte	0xe9
 2556 12dd 08       		.byte	0x8
 2557 12de 09       		.uleb128 0x9
 2558 12df 746D7200 		.ascii	"tmr\000"
 2559 12e3 17       		.byte	0x17
 2560 12e4 A4       		.byte	0xa4
 2561 12e5 4F130000 		.4byte	0x134f
 2562 12e9 0C       		.byte	0xc
 2563 12ea 00       		.byte	0
 2564 12eb 03       		.uleb128 0x3
 2565 12ec A80B0000 		.4byte	.LASF246
ARM GAS  /tmp/ccebz8JA.s 			page 46


 2566 12f0 16       		.byte	0x16
 2567 12f1 47       		.byte	0x47
 2568 12f2 F6120000 		.4byte	0x12f6
 2569 12f6 0B       		.uleb128 0xb
 2570 12f7 04       		.byte	0x4
 2571 12f8 FC120000 		.4byte	0x12fc
 2572 12fc 11       		.uleb128 0x11
 2573 12fd 07130000 		.4byte	0x1307
 2574 1301 12       		.uleb128 0x12
 2575 1302 07130000 		.4byte	0x1307
 2576 1306 00       		.byte	0
 2577 1307 0B       		.uleb128 0xb
 2578 1308 04       		.byte	0x4
 2579 1309 A3120000 		.4byte	0x12a3
 2580 130d 03       		.uleb128 0x3
 2581 130e D1040000 		.4byte	.LASF247
 2582 1312 17       		.byte	0x17
 2583 1313 76       		.byte	0x76
 2584 1314 E9000000 		.4byte	0xe9
 2585 1318 0A       		.uleb128 0xa
 2586 1319 08       		.byte	0x8
 2587 131a 17       		.byte	0x17
 2588 131b 81       		.byte	0x81
 2589 131c 39130000 		.4byte	0x1339
 2590 1320 08       		.uleb128 0x8
 2591 1321 25060000 		.4byte	.LASF248
 2592 1325 17       		.byte	0x17
 2593 1326 87       		.byte	0x87
 2594 1327 0D130000 		.4byte	0x130d
 2595 132b 00       		.byte	0
 2596 132c 08       		.uleb128 0x8
 2597 132d 15010000 		.4byte	.LASF249
 2598 1331 17       		.byte	0x17
 2599 1332 8C       		.byte	0x8c
 2600 1333 EB120000 		.4byte	0x12eb
 2601 1337 04       		.byte	0x4
 2602 1338 00       		.byte	0
 2603 1339 03       		.uleb128 0x3
 2604 133a 59050000 		.4byte	.LASF250
 2605 133e 17       		.byte	0x17
 2606 133f 8E       		.byte	0x8e
 2607 1340 18130000 		.4byte	0x1318
 2608 1344 06       		.uleb128 0x6
 2609 1345 39130000 		.4byte	0x1339
 2610 1349 0B       		.uleb128 0xb
 2611 134a 04       		.byte	0x4
 2612 134b 44130000 		.4byte	0x1344
 2613 134f 0B       		.uleb128 0xb
 2614 1350 04       		.byte	0x4
 2615 1351 210F0000 		.4byte	0xf21
 2616 1355 13       		.uleb128 0x13
 2617 1356 DB010000 		.4byte	.LASF251
 2618 135a 17       		.byte	0x17
 2619 135b B0       		.byte	0xb0
 2620 135c A3120000 		.4byte	0x12a3
 2621 1360 13       		.uleb128 0x13
 2622 1361 E1010000 		.4byte	.LASF252
ARM GAS  /tmp/ccebz8JA.s 			page 47


 2623 1365 17       		.byte	0x17
 2624 1366 B4       		.byte	0xb4
 2625 1367 A3120000 		.4byte	0x12a3
 2626 136b 13       		.uleb128 0x13
 2627 136c E7010000 		.4byte	.LASF253
 2628 1370 17       		.byte	0x17
 2629 1371 B8       		.byte	0xb8
 2630 1372 A3120000 		.4byte	0x12a3
 2631 1376 13       		.uleb128 0x13
 2632 1377 ED010000 		.4byte	.LASF254
 2633 137b 17       		.byte	0x17
 2634 137c BC       		.byte	0xbc
 2635 137d A3120000 		.4byte	0x12a3
 2636 1381 23       		.uleb128 0x23
 2637 1382 01       		.byte	0x1
 2638 1383 5E000000 		.4byte	0x5e
 2639 1387 18       		.byte	0x18
 2640 1388 5D       		.byte	0x5d
 2641 1389 A0130000 		.4byte	0x13a0
 2642 138d 24       		.uleb128 0x24
 2643 138e 1D030000 		.4byte	.LASF255
 2644 1392 00       		.byte	0
 2645 1393 24       		.uleb128 0x24
 2646 1394 570B0000 		.4byte	.LASF256
 2647 1398 01       		.byte	0x1
 2648 1399 24       		.uleb128 0x24
 2649 139a CC090000 		.4byte	.LASF257
 2650 139e 02       		.byte	0x2
 2651 139f 00       		.byte	0
 2652 13a0 03       		.uleb128 0x3
 2653 13a1 B2090000 		.4byte	.LASF258
 2654 13a5 18       		.byte	0x18
 2655 13a6 61       		.byte	0x61
 2656 13a7 81130000 		.4byte	0x1381
 2657 13ab 03       		.uleb128 0x3
 2658 13ac 7D090000 		.4byte	.LASF259
 2659 13b0 18       		.byte	0x18
 2660 13b1 66       		.byte	0x66
 2661 13b2 B6130000 		.4byte	0x13b6
 2662 13b6 07       		.uleb128 0x7
 2663 13b7 7D090000 		.4byte	.LASF259
 2664 13bb 78       		.byte	0x78
 2665 13bc 18       		.byte	0x18
 2666 13bd 80       		.byte	0x80
 2667 13be 21140000 		.4byte	0x1421
 2668 13c2 09       		.uleb128 0x9
 2669 13c3 766D7400 		.ascii	"vmt\000"
 2670 13c7 18       		.byte	0x18
 2671 13c8 82       		.byte	0x82
 2672 13c9 A9140000 		.4byte	0x14a9
 2673 13cd 00       		.byte	0
 2674 13ce 08       		.uleb128 0x8
 2675 13cf 4F060000 		.4byte	.LASF260
 2676 13d3 18       		.byte	0x18
 2677 13d4 83       		.byte	0x83
 2678 13d5 2F060000 		.4byte	0x62f
 2679 13d9 04       		.byte	0x4
ARM GAS  /tmp/ccebz8JA.s 			page 48


 2680 13da 08       		.uleb128 0x8
 2681 13db EA000000 		.4byte	.LASF243
 2682 13df 18       		.byte	0x18
 2683 13e0 83       		.byte	0x83
 2684 13e1 A0130000 		.4byte	0x13a0
 2685 13e5 08       		.byte	0x8
 2686 13e6 08       		.uleb128 0x8
 2687 13e7 040A0000 		.4byte	.LASF261
 2688 13eb 18       		.byte	0x18
 2689 13ec 83       		.byte	0x83
 2690 13ed 48080000 		.4byte	0x848
 2691 13f1 0C       		.byte	0xc
 2692 13f2 08       		.uleb128 0x8
 2693 13f3 21020000 		.4byte	.LASF262
 2694 13f7 18       		.byte	0x18
 2695 13f8 83       		.byte	0x83
 2696 13f9 53080000 		.4byte	0x853
 2697 13fd 30       		.byte	0x30
 2698 13fe 09       		.uleb128 0x9
 2699 13ff 696200   		.ascii	"ib\000"
 2700 1402 18       		.byte	0x18
 2701 1403 83       		.byte	0x83
 2702 1404 AF140000 		.4byte	0x14af
 2703 1408 54       		.byte	0x54
 2704 1409 09       		.uleb128 0x9
 2705 140a 6F6200   		.ascii	"ob\000"
 2706 140d 18       		.byte	0x18
 2707 140e 83       		.byte	0x83
 2708 140f AF140000 		.4byte	0x14af
 2709 1413 64       		.byte	0x64
 2710 1414 08       		.uleb128 0x8
 2711 1415 FF090000 		.4byte	.LASF263
 2712 1419 18       		.byte	0x18
 2713 141a 83       		.byte	0x83
 2714 141b BF140000 		.4byte	0x14bf
 2715 141f 74       		.byte	0x74
 2716 1420 00       		.byte	0
 2717 1421 25       		.uleb128 0x25
 2718 1422 53443100 		.ascii	"SD1\000"
 2719 1426 19       		.byte	0x19
 2720 1427 EF       		.byte	0xef
 2721 1428 AB130000 		.4byte	0x13ab
 2722 142c 25       		.uleb128 0x25
 2723 142d 53443300 		.ascii	"SD3\000"
 2724 1431 19       		.byte	0x19
 2725 1432 F7       		.byte	0xf7
 2726 1433 AB130000 		.4byte	0x13ab
 2727 1437 07       		.uleb128 0x7
 2728 1438 3B050000 		.4byte	.LASF264
 2729 143c 20       		.byte	0x20
 2730 143d 18       		.byte	0x18
 2731 143e 75       		.byte	0x75
 2732 143f A4140000 		.4byte	0x14a4
 2733 1443 08       		.uleb128 0x8
 2734 1444 C4000000 		.4byte	.LASF265
 2735 1448 18       		.byte	0x18
 2736 1449 76       		.byte	0x76
ARM GAS  /tmp/ccebz8JA.s 			page 49


 2737 144a 7D080000 		.4byte	0x87d
 2738 144e 00       		.byte	0
 2739 144f 08       		.uleb128 0x8
 2740 1450 5D060000 		.4byte	.LASF266
 2741 1454 18       		.byte	0x18
 2742 1455 76       		.byte	0x76
 2743 1456 9C080000 		.4byte	0x89c
 2744 145a 04       		.byte	0x4
 2745 145b 09       		.uleb128 0x9
 2746 145c 70757400 		.ascii	"put\000"
 2747 1460 18       		.byte	0x18
 2748 1461 76       		.byte	0x76
 2749 1462 B6080000 		.4byte	0x8b6
 2750 1466 08       		.byte	0x8
 2751 1467 09       		.uleb128 0x9
 2752 1468 67657400 		.ascii	"get\000"
 2753 146c 18       		.byte	0x18
 2754 146d 76       		.byte	0x76
 2755 146e 87060000 		.4byte	0x687
 2756 1472 0C       		.byte	0xc
 2757 1473 08       		.uleb128 0x8
 2758 1474 F0000000 		.4byte	.LASF267
 2759 1478 18       		.byte	0x18
 2760 1479 76       		.byte	0x76
 2761 147a 6C110000 		.4byte	0x116c
 2762 147e 10       		.byte	0x10
 2763 147f 08       		.uleb128 0x8
 2764 1480 A9030000 		.4byte	.LASF268
 2765 1484 18       		.byte	0x18
 2766 1485 76       		.byte	0x76
 2767 1486 86110000 		.4byte	0x1186
 2768 148a 14       		.byte	0x14
 2769 148b 08       		.uleb128 0x8
 2770 148c 7C000000 		.4byte	.LASF269
 2771 1490 18       		.byte	0x18
 2772 1491 76       		.byte	0x76
 2773 1492 AA110000 		.4byte	0x11aa
 2774 1496 18       		.byte	0x18
 2775 1497 08       		.uleb128 0x8
 2776 1498 6C010000 		.4byte	.LASF270
 2777 149c 18       		.byte	0x18
 2778 149d 76       		.byte	0x76
 2779 149e CE110000 		.4byte	0x11ce
 2780 14a2 1C       		.byte	0x1c
 2781 14a3 00       		.byte	0
 2782 14a4 06       		.uleb128 0x6
 2783 14a5 37140000 		.4byte	0x1437
 2784 14a9 0B       		.uleb128 0xb
 2785 14aa 04       		.byte	0x4
 2786 14ab A4140000 		.4byte	0x14a4
 2787 14af 17       		.uleb128 0x17
 2788 14b0 B4000000 		.4byte	0xb4
 2789 14b4 BF140000 		.4byte	0x14bf
 2790 14b8 18       		.uleb128 0x18
 2791 14b9 92030000 		.4byte	0x392
 2792 14bd 0F       		.byte	0xf
 2793 14be 00       		.byte	0
ARM GAS  /tmp/ccebz8JA.s 			page 50


 2794 14bf 0B       		.uleb128 0xb
 2795 14c0 04       		.byte	0x4
 2796 14c1 3D100000 		.4byte	0x103d
 2797 14c5 23       		.uleb128 0x23
 2798 14c6 01       		.byte	0x1
 2799 14c7 5E000000 		.4byte	0x5e
 2800 14cb 1A       		.byte	0x1a
 2801 14cc 4E       		.byte	0x4e
 2802 14cd F0140000 		.4byte	0x14f0
 2803 14d1 24       		.uleb128 0x24
 2804 14d2 A7010000 		.4byte	.LASF271
 2805 14d6 00       		.byte	0
 2806 14d7 24       		.uleb128 0x24
 2807 14d8 95010000 		.4byte	.LASF272
 2808 14dc 01       		.byte	0x1
 2809 14dd 24       		.uleb128 0x24
 2810 14de C8050000 		.4byte	.LASF273
 2811 14e2 02       		.byte	0x2
 2812 14e3 24       		.uleb128 0x24
 2813 14e4 B0060000 		.4byte	.LASF274
 2814 14e8 03       		.byte	0x3
 2815 14e9 24       		.uleb128 0x24
 2816 14ea CF0A0000 		.4byte	.LASF275
 2817 14ee 04       		.byte	0x4
 2818 14ef 00       		.byte	0
 2819 14f0 03       		.uleb128 0x3
 2820 14f1 220B0000 		.4byte	.LASF276
 2821 14f5 1A       		.byte	0x1a
 2822 14f6 54       		.byte	0x54
 2823 14f7 C5140000 		.4byte	0x14c5
 2824 14fb 03       		.uleb128 0x3
 2825 14fc 0D020000 		.4byte	.LASF277
 2826 1500 1B       		.byte	0x1b
 2827 1501 D0       		.byte	0xd0
 2828 1502 06150000 		.4byte	0x1506
 2829 1506 07       		.uleb128 0x7
 2830 1507 0D020000 		.4byte	.LASF277
 2831 150b 30       		.byte	0x30
 2832 150c 1B       		.byte	0x1b
 2833 150d F8       		.byte	0xf8
 2834 150e 87150000 		.4byte	0x1587
 2835 1512 08       		.uleb128 0x8
 2836 1513 EA000000 		.4byte	.LASF243
 2837 1517 1B       		.byte	0x1b
 2838 1518 FC       		.byte	0xfc
 2839 1519 F0140000 		.4byte	0x14f0
 2840 151d 00       		.byte	0
 2841 151e 0F       		.uleb128 0xf
 2842 151f E3000000 		.4byte	.LASF244
 2843 1523 1B       		.byte	0x1b
 2844 1524 0001     		.2byte	0x100
 2845 1526 FE150000 		.4byte	0x15fe
 2846 152a 04       		.byte	0x4
 2847 152b 0F       		.uleb128 0xf
 2848 152c DD090000 		.4byte	.LASF278
 2849 1530 1B       		.byte	0x1b
 2850 1531 0501     		.2byte	0x105
ARM GAS  /tmp/ccebz8JA.s 			page 51


 2851 1533 A1020000 		.4byte	0x2a1
 2852 1537 08       		.byte	0x8
 2853 1538 0F       		.uleb128 0xf
 2854 1539 0C060000 		.4byte	.LASF279
 2855 153d 1B       		.byte	0x1b
 2856 153e 0C01     		.2byte	0x10c
 2857 1540 BD050000 		.4byte	0x5bd
 2858 1544 0C       		.byte	0xc
 2859 1545 0E       		.uleb128 0xe
 2860 1546 73737000 		.ascii	"ssp\000"
 2861 154a 1B       		.byte	0x1b
 2862 154b 1801     		.2byte	0x118
 2863 154d 04160000 		.4byte	0x1604
 2864 1551 1C       		.byte	0x1c
 2865 1552 0F       		.uleb128 0xf
 2866 1553 63050000 		.4byte	.LASF280
 2867 1557 1B       		.byte	0x1b
 2868 1558 1C01     		.2byte	0x11c
 2869 155a E9000000 		.4byte	0xe9
 2870 155e 20       		.byte	0x20
 2871 155f 0F       		.uleb128 0xf
 2872 1560 55030000 		.4byte	.LASF281
 2873 1564 1B       		.byte	0x1b
 2874 1565 2001     		.2byte	0x120
 2875 1567 DD020000 		.4byte	0x2dd
 2876 156b 24       		.byte	0x24
 2877 156c 0F       		.uleb128 0xf
 2878 156d C1010000 		.4byte	.LASF282
 2879 1571 1B       		.byte	0x1b
 2880 1572 2401     		.2byte	0x124
 2881 1574 E9000000 		.4byte	0xe9
 2882 1578 28       		.byte	0x28
 2883 1579 0F       		.uleb128 0xf
 2884 157a 870B0000 		.4byte	.LASF283
 2885 157e 1B       		.byte	0x1b
 2886 157f 2801     		.2byte	0x128
 2887 1581 0A160000 		.4byte	0x160a
 2888 1585 2C       		.byte	0x2c
 2889 1586 00       		.byte	0
 2890 1587 03       		.uleb128 0x3
 2891 1588 9E0A0000 		.4byte	.LASF284
 2892 158c 1B       		.byte	0x1b
 2893 158d D8       		.byte	0xd8
 2894 158e 92150000 		.4byte	0x1592
 2895 1592 0B       		.uleb128 0xb
 2896 1593 04       		.byte	0x4
 2897 1594 98150000 		.4byte	0x1598
 2898 1598 11       		.uleb128 0x11
 2899 1599 A3150000 		.4byte	0x15a3
 2900 159d 12       		.uleb128 0x12
 2901 159e A3150000 		.4byte	0x15a3
 2902 15a2 00       		.byte	0
 2903 15a3 0B       		.uleb128 0xb
 2904 15a4 04       		.byte	0x4
 2905 15a5 FB140000 		.4byte	0x14fb
 2906 15a9 0A       		.uleb128 0xa
 2907 15aa 10       		.byte	0x10
ARM GAS  /tmp/ccebz8JA.s 			page 52


 2908 15ab 1B       		.byte	0x1b
 2909 15ac DD       		.byte	0xdd
 2910 15ad EE150000 		.4byte	0x15ee
 2911 15b1 08       		.uleb128 0x8
 2912 15b2 2D010000 		.4byte	.LASF285
 2913 15b6 1B       		.byte	0x1b
 2914 15b7 E1       		.byte	0xe1
 2915 15b8 87150000 		.4byte	0x1587
 2916 15bc 00       		.byte	0
 2917 15bd 08       		.uleb128 0x8
 2918 15be A9000000 		.4byte	.LASF286
 2919 15c2 1B       		.byte	0x1b
 2920 15c3 E6       		.byte	0xe6
 2921 15c4 50120000 		.4byte	0x1250
 2922 15c8 04       		.byte	0x4
 2923 15c9 08       		.uleb128 0x8
 2924 15ca 790B0000 		.4byte	.LASF287
 2925 15ce 1B       		.byte	0x1b
 2926 15cf EA       		.byte	0xea
 2927 15d0 C9000000 		.4byte	0xc9
 2928 15d4 08       		.byte	0x8
 2929 15d5 09       		.uleb128 0x9
 2930 15d6 63723000 		.ascii	"cr0\000"
 2931 15da 1B       		.byte	0x1b
 2932 15db EE       		.byte	0xee
 2933 15dc C9000000 		.4byte	0xc9
 2934 15e0 0A       		.byte	0xa
 2935 15e1 08       		.uleb128 0x8
 2936 15e2 69050000 		.4byte	.LASF288
 2937 15e6 1B       		.byte	0x1b
 2938 15e7 F2       		.byte	0xf2
 2939 15e8 E9000000 		.4byte	0xe9
 2940 15ec 0C       		.byte	0xc
 2941 15ed 00       		.byte	0
 2942 15ee 03       		.uleb128 0x3
 2943 15ef A6060000 		.4byte	.LASF289
 2944 15f3 1B       		.byte	0x1b
 2945 15f4 F3       		.byte	0xf3
 2946 15f5 A9150000 		.4byte	0x15a9
 2947 15f9 06       		.uleb128 0x6
 2948 15fa EE150000 		.4byte	0x15ee
 2949 15fe 0B       		.uleb128 0xb
 2950 15ff 04       		.byte	0x4
 2951 1600 F9150000 		.4byte	0x15f9
 2952 1604 0B       		.uleb128 0xb
 2953 1605 04       		.byte	0x4
 2954 1606 D3100000 		.4byte	0x10d3
 2955 160a 0B       		.uleb128 0xb
 2956 160b 04       		.byte	0x4
 2957 160c 10160000 		.4byte	0x1610
 2958 1610 26       		.uleb128 0x26
 2959 1611 1A       		.uleb128 0x1a
 2960 1612 F5000000 		.4byte	.LASF290
 2961 1616 1B       		.byte	0x1b
 2962 1617 3401     		.2byte	0x134
 2963 1619 FB140000 		.4byte	0x14fb
 2964 161d 1A       		.uleb128 0x1a
ARM GAS  /tmp/ccebz8JA.s 			page 53


 2965 161e FB000000 		.4byte	.LASF291
 2966 1622 1B       		.byte	0x1b
 2967 1623 3801     		.2byte	0x138
 2968 1625 FB140000 		.4byte	0x14fb
 2969 1629 27       		.uleb128 0x27
 2970 162a AE040000 		.4byte	.LASF295
 2971 162e 01       		.byte	0x1
 2972 162f 54       		.byte	0x54
 2973 1630 00000000 		.4byte	.LFB64
 2974 1634 8C000000 		.4byte	.LFE64-.LFB64
 2975 1638 01       		.uleb128 0x1
 2976 1639 9C       		.byte	0x9c
 2977 163a 28       		.uleb128 0x28
 2978 163b 80020000 		.4byte	.LASF296
 2979 163f 01       		.byte	0x1
 2980 1640 3A       		.byte	0x3a
 2981 1641 00000000 		.4byte	.LFB63
 2982 1645 40000000 		.4byte	.LFE63-.LFB63
 2983 1649 01       		.uleb128 0x1
 2984 164a 9C       		.byte	0x9c
 2985 164b 64160000 		.4byte	0x1664
 2986 164f 29       		.uleb128 0x29
 2987 1650 0A000000 		.4byte	.LVL0
 2988 1654 64160000 		.4byte	0x1664
 2989 1658 2A       		.uleb128 0x2a
 2990 1659 01       		.uleb128 0x1
 2991 165a 50       		.byte	0x50
 2992 165b 01       		.uleb128 0x1
 2993 165c 3B       		.byte	0x3b
 2994 165d 2A       		.uleb128 0x2a
 2995 165e 01       		.uleb128 0x1
 2996 165f 51       		.byte	0x51
 2997 1660 01       		.uleb128 0x1
 2998 1661 34       		.byte	0x34
 2999 1662 00       		.byte	0
 3000 1663 00       		.byte	0
 3001 1664 2B       		.uleb128 0x2b
 3002 1665 DB040000 		.4byte	.LASF297
 3003 1669 DB040000 		.4byte	.LASF297
 3004 166d 09       		.byte	0x9
 3005 166e 1E01     		.2byte	0x11e
 3006 1670 00       		.byte	0
 3007              		.section	.debug_abbrev,"",%progbits
 3008              	.Ldebug_abbrev0:
 3009 0000 01       		.uleb128 0x1
 3010 0001 11       		.uleb128 0x11
 3011 0002 01       		.byte	0x1
 3012 0003 25       		.uleb128 0x25
 3013 0004 0E       		.uleb128 0xe
 3014 0005 13       		.uleb128 0x13
 3015 0006 0B       		.uleb128 0xb
 3016 0007 03       		.uleb128 0x3
 3017 0008 0E       		.uleb128 0xe
 3018 0009 1B       		.uleb128 0x1b
 3019 000a 0E       		.uleb128 0xe
 3020 000b 55       		.uleb128 0x55
 3021 000c 17       		.uleb128 0x17
ARM GAS  /tmp/ccebz8JA.s 			page 54


 3022 000d 11       		.uleb128 0x11
 3023 000e 01       		.uleb128 0x1
 3024 000f 10       		.uleb128 0x10
 3025 0010 17       		.uleb128 0x17
 3026 0011 00       		.byte	0
 3027 0012 00       		.byte	0
 3028 0013 02       		.uleb128 0x2
 3029 0014 24       		.uleb128 0x24
 3030 0015 00       		.byte	0
 3031 0016 0B       		.uleb128 0xb
 3032 0017 0B       		.uleb128 0xb
 3033 0018 3E       		.uleb128 0x3e
 3034 0019 0B       		.uleb128 0xb
 3035 001a 03       		.uleb128 0x3
 3036 001b 08       		.uleb128 0x8
 3037 001c 00       		.byte	0
 3038 001d 00       		.byte	0
 3039 001e 03       		.uleb128 0x3
 3040 001f 16       		.uleb128 0x16
 3041 0020 00       		.byte	0
 3042 0021 03       		.uleb128 0x3
 3043 0022 0E       		.uleb128 0xe
 3044 0023 3A       		.uleb128 0x3a
 3045 0024 0B       		.uleb128 0xb
 3046 0025 3B       		.uleb128 0x3b
 3047 0026 0B       		.uleb128 0xb
 3048 0027 49       		.uleb128 0x49
 3049 0028 13       		.uleb128 0x13
 3050 0029 00       		.byte	0
 3051 002a 00       		.byte	0
 3052 002b 04       		.uleb128 0x4
 3053 002c 24       		.uleb128 0x24
 3054 002d 00       		.byte	0
 3055 002e 0B       		.uleb128 0xb
 3056 002f 0B       		.uleb128 0xb
 3057 0030 3E       		.uleb128 0x3e
 3058 0031 0B       		.uleb128 0xb
 3059 0032 03       		.uleb128 0x3
 3060 0033 0E       		.uleb128 0xe
 3061 0034 00       		.byte	0
 3062 0035 00       		.byte	0
 3063 0036 05       		.uleb128 0x5
 3064 0037 35       		.uleb128 0x35
 3065 0038 00       		.byte	0
 3066 0039 49       		.uleb128 0x49
 3067 003a 13       		.uleb128 0x13
 3068 003b 00       		.byte	0
 3069 003c 00       		.byte	0
 3070 003d 06       		.uleb128 0x6
 3071 003e 26       		.uleb128 0x26
 3072 003f 00       		.byte	0
 3073 0040 49       		.uleb128 0x49
 3074 0041 13       		.uleb128 0x13
 3075 0042 00       		.byte	0
 3076 0043 00       		.byte	0
 3077 0044 07       		.uleb128 0x7
 3078 0045 13       		.uleb128 0x13
ARM GAS  /tmp/ccebz8JA.s 			page 55


 3079 0046 01       		.byte	0x1
 3080 0047 03       		.uleb128 0x3
 3081 0048 0E       		.uleb128 0xe
 3082 0049 0B       		.uleb128 0xb
 3083 004a 0B       		.uleb128 0xb
 3084 004b 3A       		.uleb128 0x3a
 3085 004c 0B       		.uleb128 0xb
 3086 004d 3B       		.uleb128 0x3b
 3087 004e 0B       		.uleb128 0xb
 3088 004f 01       		.uleb128 0x1
 3089 0050 13       		.uleb128 0x13
 3090 0051 00       		.byte	0
 3091 0052 00       		.byte	0
 3092 0053 08       		.uleb128 0x8
 3093 0054 0D       		.uleb128 0xd
 3094 0055 00       		.byte	0
 3095 0056 03       		.uleb128 0x3
 3096 0057 0E       		.uleb128 0xe
 3097 0058 3A       		.uleb128 0x3a
 3098 0059 0B       		.uleb128 0xb
 3099 005a 3B       		.uleb128 0x3b
 3100 005b 0B       		.uleb128 0xb
 3101 005c 49       		.uleb128 0x49
 3102 005d 13       		.uleb128 0x13
 3103 005e 38       		.uleb128 0x38
 3104 005f 0B       		.uleb128 0xb
 3105 0060 00       		.byte	0
 3106 0061 00       		.byte	0
 3107 0062 09       		.uleb128 0x9
 3108 0063 0D       		.uleb128 0xd
 3109 0064 00       		.byte	0
 3110 0065 03       		.uleb128 0x3
 3111 0066 08       		.uleb128 0x8
 3112 0067 3A       		.uleb128 0x3a
 3113 0068 0B       		.uleb128 0xb
 3114 0069 3B       		.uleb128 0x3b
 3115 006a 0B       		.uleb128 0xb
 3116 006b 49       		.uleb128 0x49
 3117 006c 13       		.uleb128 0x13
 3118 006d 38       		.uleb128 0x38
 3119 006e 0B       		.uleb128 0xb
 3120 006f 00       		.byte	0
 3121 0070 00       		.byte	0
 3122 0071 0A       		.uleb128 0xa
 3123 0072 13       		.uleb128 0x13
 3124 0073 01       		.byte	0x1
 3125 0074 0B       		.uleb128 0xb
 3126 0075 0B       		.uleb128 0xb
 3127 0076 3A       		.uleb128 0x3a
 3128 0077 0B       		.uleb128 0xb
 3129 0078 3B       		.uleb128 0x3b
 3130 0079 0B       		.uleb128 0xb
 3131 007a 01       		.uleb128 0x1
 3132 007b 13       		.uleb128 0x13
 3133 007c 00       		.byte	0
 3134 007d 00       		.byte	0
 3135 007e 0B       		.uleb128 0xb
ARM GAS  /tmp/ccebz8JA.s 			page 56


 3136 007f 0F       		.uleb128 0xf
 3137 0080 00       		.byte	0
 3138 0081 0B       		.uleb128 0xb
 3139 0082 0B       		.uleb128 0xb
 3140 0083 49       		.uleb128 0x49
 3141 0084 13       		.uleb128 0x13
 3142 0085 00       		.byte	0
 3143 0086 00       		.byte	0
 3144 0087 0C       		.uleb128 0xc
 3145 0088 0F       		.uleb128 0xf
 3146 0089 00       		.byte	0
 3147 008a 0B       		.uleb128 0xb
 3148 008b 0B       		.uleb128 0xb
 3149 008c 00       		.byte	0
 3150 008d 00       		.byte	0
 3151 008e 0D       		.uleb128 0xd
 3152 008f 13       		.uleb128 0x13
 3153 0090 01       		.byte	0x1
 3154 0091 03       		.uleb128 0x3
 3155 0092 0E       		.uleb128 0xe
 3156 0093 0B       		.uleb128 0xb
 3157 0094 0B       		.uleb128 0xb
 3158 0095 3A       		.uleb128 0x3a
 3159 0096 0B       		.uleb128 0xb
 3160 0097 3B       		.uleb128 0x3b
 3161 0098 05       		.uleb128 0x5
 3162 0099 01       		.uleb128 0x1
 3163 009a 13       		.uleb128 0x13
 3164 009b 00       		.byte	0
 3165 009c 00       		.byte	0
 3166 009d 0E       		.uleb128 0xe
 3167 009e 0D       		.uleb128 0xd
 3168 009f 00       		.byte	0
 3169 00a0 03       		.uleb128 0x3
 3170 00a1 08       		.uleb128 0x8
 3171 00a2 3A       		.uleb128 0x3a
 3172 00a3 0B       		.uleb128 0xb
 3173 00a4 3B       		.uleb128 0x3b
 3174 00a5 05       		.uleb128 0x5
 3175 00a6 49       		.uleb128 0x49
 3176 00a7 13       		.uleb128 0x13
 3177 00a8 38       		.uleb128 0x38
 3178 00a9 0B       		.uleb128 0xb
 3179 00aa 00       		.byte	0
 3180 00ab 00       		.byte	0
 3181 00ac 0F       		.uleb128 0xf
 3182 00ad 0D       		.uleb128 0xd
 3183 00ae 00       		.byte	0
 3184 00af 03       		.uleb128 0x3
 3185 00b0 0E       		.uleb128 0xe
 3186 00b1 3A       		.uleb128 0x3a
 3187 00b2 0B       		.uleb128 0xb
 3188 00b3 3B       		.uleb128 0x3b
 3189 00b4 05       		.uleb128 0x5
 3190 00b5 49       		.uleb128 0x49
 3191 00b6 13       		.uleb128 0x13
 3192 00b7 38       		.uleb128 0x38
ARM GAS  /tmp/ccebz8JA.s 			page 57


 3193 00b8 0B       		.uleb128 0xb
 3194 00b9 00       		.byte	0
 3195 00ba 00       		.byte	0
 3196 00bb 10       		.uleb128 0x10
 3197 00bc 16       		.uleb128 0x16
 3198 00bd 00       		.byte	0
 3199 00be 03       		.uleb128 0x3
 3200 00bf 0E       		.uleb128 0xe
 3201 00c0 3A       		.uleb128 0x3a
 3202 00c1 0B       		.uleb128 0xb
 3203 00c2 3B       		.uleb128 0x3b
 3204 00c3 05       		.uleb128 0x5
 3205 00c4 49       		.uleb128 0x49
 3206 00c5 13       		.uleb128 0x13
 3207 00c6 00       		.byte	0
 3208 00c7 00       		.byte	0
 3209 00c8 11       		.uleb128 0x11
 3210 00c9 15       		.uleb128 0x15
 3211 00ca 01       		.byte	0x1
 3212 00cb 27       		.uleb128 0x27
 3213 00cc 19       		.uleb128 0x19
 3214 00cd 01       		.uleb128 0x1
 3215 00ce 13       		.uleb128 0x13
 3216 00cf 00       		.byte	0
 3217 00d0 00       		.byte	0
 3218 00d1 12       		.uleb128 0x12
 3219 00d2 05       		.uleb128 0x5
 3220 00d3 00       		.byte	0
 3221 00d4 49       		.uleb128 0x49
 3222 00d5 13       		.uleb128 0x13
 3223 00d6 00       		.byte	0
 3224 00d7 00       		.byte	0
 3225 00d8 13       		.uleb128 0x13
 3226 00d9 34       		.uleb128 0x34
 3227 00da 00       		.byte	0
 3228 00db 03       		.uleb128 0x3
 3229 00dc 0E       		.uleb128 0xe
 3230 00dd 3A       		.uleb128 0x3a
 3231 00de 0B       		.uleb128 0xb
 3232 00df 3B       		.uleb128 0x3b
 3233 00e0 0B       		.uleb128 0xb
 3234 00e1 49       		.uleb128 0x49
 3235 00e2 13       		.uleb128 0x13
 3236 00e3 3F       		.uleb128 0x3f
 3237 00e4 19       		.uleb128 0x19
 3238 00e5 3C       		.uleb128 0x3c
 3239 00e6 19       		.uleb128 0x19
 3240 00e7 00       		.byte	0
 3241 00e8 00       		.byte	0
 3242 00e9 14       		.uleb128 0x14
 3243 00ea 17       		.uleb128 0x17
 3244 00eb 01       		.byte	0x1
 3245 00ec 0B       		.uleb128 0xb
 3246 00ed 0B       		.uleb128 0xb
 3247 00ee 3A       		.uleb128 0x3a
 3248 00ef 0B       		.uleb128 0xb
 3249 00f0 3B       		.uleb128 0x3b
ARM GAS  /tmp/ccebz8JA.s 			page 58


 3250 00f1 0B       		.uleb128 0xb
 3251 00f2 01       		.uleb128 0x1
 3252 00f3 13       		.uleb128 0x13
 3253 00f4 00       		.byte	0
 3254 00f5 00       		.byte	0
 3255 00f6 15       		.uleb128 0x15
 3256 00f7 0D       		.uleb128 0xd
 3257 00f8 00       		.byte	0
 3258 00f9 03       		.uleb128 0x3
 3259 00fa 0E       		.uleb128 0xe
 3260 00fb 3A       		.uleb128 0x3a
 3261 00fc 0B       		.uleb128 0xb
 3262 00fd 3B       		.uleb128 0x3b
 3263 00fe 0B       		.uleb128 0xb
 3264 00ff 49       		.uleb128 0x49
 3265 0100 13       		.uleb128 0x13
 3266 0101 00       		.byte	0
 3267 0102 00       		.byte	0
 3268 0103 16       		.uleb128 0x16
 3269 0104 15       		.uleb128 0x15
 3270 0105 01       		.byte	0x1
 3271 0106 27       		.uleb128 0x27
 3272 0107 19       		.uleb128 0x19
 3273 0108 49       		.uleb128 0x49
 3274 0109 13       		.uleb128 0x13
 3275 010a 01       		.uleb128 0x1
 3276 010b 13       		.uleb128 0x13
 3277 010c 00       		.byte	0
 3278 010d 00       		.byte	0
 3279 010e 17       		.uleb128 0x17
 3280 010f 01       		.uleb128 0x1
 3281 0110 01       		.byte	0x1
 3282 0111 49       		.uleb128 0x49
 3283 0112 13       		.uleb128 0x13
 3284 0113 01       		.uleb128 0x1
 3285 0114 13       		.uleb128 0x13
 3286 0115 00       		.byte	0
 3287 0116 00       		.byte	0
 3288 0117 18       		.uleb128 0x18
 3289 0118 21       		.uleb128 0x21
 3290 0119 00       		.byte	0
 3291 011a 49       		.uleb128 0x49
 3292 011b 13       		.uleb128 0x13
 3293 011c 2F       		.uleb128 0x2f
 3294 011d 0B       		.uleb128 0xb
 3295 011e 00       		.byte	0
 3296 011f 00       		.byte	0
 3297 0120 19       		.uleb128 0x19
 3298 0121 13       		.uleb128 0x13
 3299 0122 01       		.byte	0x1
 3300 0123 0B       		.uleb128 0xb
 3301 0124 0B       		.uleb128 0xb
 3302 0125 3A       		.uleb128 0x3a
 3303 0126 0B       		.uleb128 0xb
 3304 0127 3B       		.uleb128 0x3b
 3305 0128 05       		.uleb128 0x5
 3306 0129 01       		.uleb128 0x1
ARM GAS  /tmp/ccebz8JA.s 			page 59


 3307 012a 13       		.uleb128 0x13
 3308 012b 00       		.byte	0
 3309 012c 00       		.byte	0
 3310 012d 1A       		.uleb128 0x1a
 3311 012e 34       		.uleb128 0x34
 3312 012f 00       		.byte	0
 3313 0130 03       		.uleb128 0x3
 3314 0131 0E       		.uleb128 0xe
 3315 0132 3A       		.uleb128 0x3a
 3316 0133 0B       		.uleb128 0xb
 3317 0134 3B       		.uleb128 0x3b
 3318 0135 05       		.uleb128 0x5
 3319 0136 49       		.uleb128 0x49
 3320 0137 13       		.uleb128 0x13
 3321 0138 3F       		.uleb128 0x3f
 3322 0139 19       		.uleb128 0x19
 3323 013a 3C       		.uleb128 0x3c
 3324 013b 19       		.uleb128 0x19
 3325 013c 00       		.byte	0
 3326 013d 00       		.byte	0
 3327 013e 1B       		.uleb128 0x1b
 3328 013f 13       		.uleb128 0x13
 3329 0140 01       		.byte	0x1
 3330 0141 0B       		.uleb128 0xb
 3331 0142 05       		.uleb128 0x5
 3332 0143 3A       		.uleb128 0x3a
 3333 0144 0B       		.uleb128 0xb
 3334 0145 3B       		.uleb128 0x3b
 3335 0146 0B       		.uleb128 0xb
 3336 0147 01       		.uleb128 0x1
 3337 0148 13       		.uleb128 0x13
 3338 0149 00       		.byte	0
 3339 014a 00       		.byte	0
 3340 014b 1C       		.uleb128 0x1c
 3341 014c 0D       		.uleb128 0xd
 3342 014d 00       		.byte	0
 3343 014e 03       		.uleb128 0x3
 3344 014f 0E       		.uleb128 0xe
 3345 0150 3A       		.uleb128 0x3a
 3346 0151 0B       		.uleb128 0xb
 3347 0152 3B       		.uleb128 0x3b
 3348 0153 0B       		.uleb128 0xb
 3349 0154 49       		.uleb128 0x49
 3350 0155 13       		.uleb128 0x13
 3351 0156 38       		.uleb128 0x38
 3352 0157 05       		.uleb128 0x5
 3353 0158 00       		.byte	0
 3354 0159 00       		.byte	0
 3355 015a 1D       		.uleb128 0x1d
 3356 015b 0D       		.uleb128 0xd
 3357 015c 00       		.byte	0
 3358 015d 03       		.uleb128 0x3
 3359 015e 08       		.uleb128 0x8
 3360 015f 3A       		.uleb128 0x3a
 3361 0160 0B       		.uleb128 0xb
 3362 0161 3B       		.uleb128 0x3b
 3363 0162 0B       		.uleb128 0xb
ARM GAS  /tmp/ccebz8JA.s 			page 60


 3364 0163 49       		.uleb128 0x49
 3365 0164 13       		.uleb128 0x13
 3366 0165 38       		.uleb128 0x38
 3367 0166 05       		.uleb128 0x5
 3368 0167 00       		.byte	0
 3369 0168 00       		.byte	0
 3370 0169 1E       		.uleb128 0x1e
 3371 016a 0D       		.uleb128 0xd
 3372 016b 00       		.byte	0
 3373 016c 49       		.uleb128 0x49
 3374 016d 13       		.uleb128 0x13
 3375 016e 00       		.byte	0
 3376 016f 00       		.byte	0
 3377 0170 1F       		.uleb128 0x1f
 3378 0171 0D       		.uleb128 0xd
 3379 0172 00       		.byte	0
 3380 0173 49       		.uleb128 0x49
 3381 0174 13       		.uleb128 0x13
 3382 0175 38       		.uleb128 0x38
 3383 0176 0B       		.uleb128 0xb
 3384 0177 00       		.byte	0
 3385 0178 00       		.byte	0
 3386 0179 20       		.uleb128 0x20
 3387 017a 17       		.uleb128 0x17
 3388 017b 01       		.byte	0x1
 3389 017c 0B       		.uleb128 0xb
 3390 017d 0B       		.uleb128 0xb
 3391 017e 3A       		.uleb128 0x3a
 3392 017f 0B       		.uleb128 0xb
 3393 0180 3B       		.uleb128 0x3b
 3394 0181 05       		.uleb128 0x5
 3395 0182 01       		.uleb128 0x1
 3396 0183 13       		.uleb128 0x13
 3397 0184 00       		.byte	0
 3398 0185 00       		.byte	0
 3399 0186 21       		.uleb128 0x21
 3400 0187 0D       		.uleb128 0xd
 3401 0188 00       		.byte	0
 3402 0189 03       		.uleb128 0x3
 3403 018a 08       		.uleb128 0x8
 3404 018b 3A       		.uleb128 0x3a
 3405 018c 0B       		.uleb128 0xb
 3406 018d 3B       		.uleb128 0x3b
 3407 018e 05       		.uleb128 0x5
 3408 018f 49       		.uleb128 0x49
 3409 0190 13       		.uleb128 0x13
 3410 0191 00       		.byte	0
 3411 0192 00       		.byte	0
 3412 0193 22       		.uleb128 0x22
 3413 0194 21       		.uleb128 0x21
 3414 0195 00       		.byte	0
 3415 0196 00       		.byte	0
 3416 0197 00       		.byte	0
 3417 0198 23       		.uleb128 0x23
 3418 0199 04       		.uleb128 0x4
 3419 019a 01       		.byte	0x1
 3420 019b 0B       		.uleb128 0xb
ARM GAS  /tmp/ccebz8JA.s 			page 61


 3421 019c 0B       		.uleb128 0xb
 3422 019d 49       		.uleb128 0x49
 3423 019e 13       		.uleb128 0x13
 3424 019f 3A       		.uleb128 0x3a
 3425 01a0 0B       		.uleb128 0xb
 3426 01a1 3B       		.uleb128 0x3b
 3427 01a2 0B       		.uleb128 0xb
 3428 01a3 01       		.uleb128 0x1
 3429 01a4 13       		.uleb128 0x13
 3430 01a5 00       		.byte	0
 3431 01a6 00       		.byte	0
 3432 01a7 24       		.uleb128 0x24
 3433 01a8 28       		.uleb128 0x28
 3434 01a9 00       		.byte	0
 3435 01aa 03       		.uleb128 0x3
 3436 01ab 0E       		.uleb128 0xe
 3437 01ac 1C       		.uleb128 0x1c
 3438 01ad 0B       		.uleb128 0xb
 3439 01ae 00       		.byte	0
 3440 01af 00       		.byte	0
 3441 01b0 25       		.uleb128 0x25
 3442 01b1 34       		.uleb128 0x34
 3443 01b2 00       		.byte	0
 3444 01b3 03       		.uleb128 0x3
 3445 01b4 08       		.uleb128 0x8
 3446 01b5 3A       		.uleb128 0x3a
 3447 01b6 0B       		.uleb128 0xb
 3448 01b7 3B       		.uleb128 0x3b
 3449 01b8 0B       		.uleb128 0xb
 3450 01b9 49       		.uleb128 0x49
 3451 01ba 13       		.uleb128 0x13
 3452 01bb 3F       		.uleb128 0x3f
 3453 01bc 19       		.uleb128 0x19
 3454 01bd 3C       		.uleb128 0x3c
 3455 01be 19       		.uleb128 0x19
 3456 01bf 00       		.byte	0
 3457 01c0 00       		.byte	0
 3458 01c1 26       		.uleb128 0x26
 3459 01c2 26       		.uleb128 0x26
 3460 01c3 00       		.byte	0
 3461 01c4 00       		.byte	0
 3462 01c5 00       		.byte	0
 3463 01c6 27       		.uleb128 0x27
 3464 01c7 2E       		.uleb128 0x2e
 3465 01c8 00       		.byte	0
 3466 01c9 3F       		.uleb128 0x3f
 3467 01ca 19       		.uleb128 0x19
 3468 01cb 03       		.uleb128 0x3
 3469 01cc 0E       		.uleb128 0xe
 3470 01cd 3A       		.uleb128 0x3a
 3471 01ce 0B       		.uleb128 0xb
 3472 01cf 3B       		.uleb128 0x3b
 3473 01d0 0B       		.uleb128 0xb
 3474 01d1 27       		.uleb128 0x27
 3475 01d2 19       		.uleb128 0x19
 3476 01d3 11       		.uleb128 0x11
 3477 01d4 01       		.uleb128 0x1
ARM GAS  /tmp/ccebz8JA.s 			page 62


 3478 01d5 12       		.uleb128 0x12
 3479 01d6 06       		.uleb128 0x6
 3480 01d7 40       		.uleb128 0x40
 3481 01d8 18       		.uleb128 0x18
 3482 01d9 9742     		.uleb128 0x2117
 3483 01db 19       		.uleb128 0x19
 3484 01dc 00       		.byte	0
 3485 01dd 00       		.byte	0
 3486 01de 28       		.uleb128 0x28
 3487 01df 2E       		.uleb128 0x2e
 3488 01e0 01       		.byte	0x1
 3489 01e1 3F       		.uleb128 0x3f
 3490 01e2 19       		.uleb128 0x19
 3491 01e3 03       		.uleb128 0x3
 3492 01e4 0E       		.uleb128 0xe
 3493 01e5 3A       		.uleb128 0x3a
 3494 01e6 0B       		.uleb128 0xb
 3495 01e7 3B       		.uleb128 0x3b
 3496 01e8 0B       		.uleb128 0xb
 3497 01e9 27       		.uleb128 0x27
 3498 01ea 19       		.uleb128 0x19
 3499 01eb 11       		.uleb128 0x11
 3500 01ec 01       		.uleb128 0x1
 3501 01ed 12       		.uleb128 0x12
 3502 01ee 06       		.uleb128 0x6
 3503 01ef 40       		.uleb128 0x40
 3504 01f0 18       		.uleb128 0x18
 3505 01f1 9742     		.uleb128 0x2117
 3506 01f3 19       		.uleb128 0x19
 3507 01f4 01       		.uleb128 0x1
 3508 01f5 13       		.uleb128 0x13
 3509 01f6 00       		.byte	0
 3510 01f7 00       		.byte	0
 3511 01f8 29       		.uleb128 0x29
 3512 01f9 898201   		.uleb128 0x4109
 3513 01fc 01       		.byte	0x1
 3514 01fd 11       		.uleb128 0x11
 3515 01fe 01       		.uleb128 0x1
 3516 01ff 31       		.uleb128 0x31
 3517 0200 13       		.uleb128 0x13
 3518 0201 00       		.byte	0
 3519 0202 00       		.byte	0
 3520 0203 2A       		.uleb128 0x2a
 3521 0204 8A8201   		.uleb128 0x410a
 3522 0207 00       		.byte	0
 3523 0208 02       		.uleb128 0x2
 3524 0209 18       		.uleb128 0x18
 3525 020a 9142     		.uleb128 0x2111
 3526 020c 18       		.uleb128 0x18
 3527 020d 00       		.byte	0
 3528 020e 00       		.byte	0
 3529 020f 2B       		.uleb128 0x2b
 3530 0210 2E       		.uleb128 0x2e
 3531 0211 00       		.byte	0
 3532 0212 3F       		.uleb128 0x3f
 3533 0213 19       		.uleb128 0x19
 3534 0214 3C       		.uleb128 0x3c
ARM GAS  /tmp/ccebz8JA.s 			page 63


 3535 0215 19       		.uleb128 0x19
 3536 0216 6E       		.uleb128 0x6e
 3537 0217 0E       		.uleb128 0xe
 3538 0218 03       		.uleb128 0x3
 3539 0219 0E       		.uleb128 0xe
 3540 021a 3A       		.uleb128 0x3a
 3541 021b 0B       		.uleb128 0xb
 3542 021c 3B       		.uleb128 0x3b
 3543 021d 05       		.uleb128 0x5
 3544 021e 00       		.byte	0
 3545 021f 00       		.byte	0
 3546 0220 00       		.byte	0
 3547              		.section	.debug_aranges,"",%progbits
 3548 0000 24000000 		.4byte	0x24
 3549 0004 0200     		.2byte	0x2
 3550 0006 00000000 		.4byte	.Ldebug_info0
 3551 000a 04       		.byte	0x4
 3552 000b 00       		.byte	0
 3553 000c 0000     		.2byte	0
 3554 000e 0000     		.2byte	0
 3555 0010 00000000 		.4byte	.LFB63
 3556 0014 40000000 		.4byte	.LFE63-.LFB63
 3557 0018 00000000 		.4byte	.LFB64
 3558 001c 8C000000 		.4byte	.LFE64-.LFB64
 3559 0020 00000000 		.4byte	0
 3560 0024 00000000 		.4byte	0
 3561              		.section	.debug_ranges,"",%progbits
 3562              	.Ldebug_ranges0:
 3563 0000 00000000 		.4byte	.LFB63
 3564 0004 40000000 		.4byte	.LFE63
 3565 0008 00000000 		.4byte	.LFB64
 3566 000c 8C000000 		.4byte	.LFE64
 3567 0010 00000000 		.4byte	0
 3568 0014 00000000 		.4byte	0
 3569              		.section	.debug_line,"",%progbits
 3570              	.Ldebug_line0:
 3571 0000 EF020000 		.section	.debug_str,"MS",%progbits,1
 3571      02008502 
 3571      00000201 
 3571      FB0E0D00 
 3571      01010101 
 3572              	.LASF4:
 3573 0000 73697A65 		.ascii	"size_t\000"
 3573      5F7400
 3574              	.LASF58:
 3575 0007 73697A65 		.ascii	"sizetype\000"
 3575      74797065 
 3575      00
 3576              	.LASF118:
 3577 0010 63665F6F 		.ascii	"cf_off_name\000"
 3577      66665F6E 
 3577      616D6500 
 3578              	.LASF30:
 3579 001c 73797374 		.ascii	"systime_t\000"
 3579      696D655F 
 3579      7400
 3580              	.LASF107:
ARM GAS  /tmp/ccebz8JA.s 			page 64


 3581 0026 63685F69 		.ascii	"ch_identifier\000"
 3581      64656E74 
 3581      69666965 
 3581      7200
 3582              	.LASF180:
 3583 0034 4C50435F 		.ascii	"LPC_SC_TypeDef\000"
 3583      53435F54 
 3583      79706544 
 3583      656600
 3584              	.LASF35:
 3585 0043 705F6374 		.ascii	"p_ctx\000"
 3585      7800
 3586              	.LASF26:
 3587 0049 74707269 		.ascii	"tprio_t\000"
 3587      6F5F7400 
 3588              	.LASF126:
 3589 0051 63685F64 		.ascii	"ch_debug\000"
 3589      65627567 
 3589      00
 3590              	.LASF145:
 3591 005a 464C4153 		.ascii	"FLASHCFG\000"
 3591      48434647 
 3591      00
 3592              	.LASF45:
 3593 0063 705F6D73 		.ascii	"p_msgqueue\000"
 3593      67717565 
 3593      756500
 3594              	.LASF84:
 3595 006e 725F6374 		.ascii	"r_ctx\000"
 3595      7800
 3596              	.LASF18:
 3597 0074 696E7433 		.ascii	"int32_t\000"
 3597      325F7400 
 3598              	.LASF269:
 3599 007c 77726974 		.ascii	"writet\000"
 3599      657400
 3600              	.LASF115:
 3601 0083 63665F6F 		.ascii	"cf_off_ctx\000"
 3601      66665F63 
 3601      747800
 3602              	.LASF152:
 3603 008e 504C4C31 		.ascii	"PLL1CON\000"
 3603      434F4E00 
 3604              	.LASF73:
 3605 0096 76746675 		.ascii	"vtfunc_t\000"
 3605      6E635F74 
 3605      00
 3606              	.LASF178:
 3607 009f 444D4152 		.ascii	"DMAREQSEL\000"
 3607      45515345 
 3607      4C00
 3608              	.LASF286:
 3609 00a9 7373706F 		.ascii	"ssport\000"
 3609      727400
 3610              	.LASF229:
 3611 00b0 4C50435F 		.ascii	"LPC_GPDMACH_TypeDef\000"
 3611      4750444D 
ARM GAS  /tmp/ccebz8JA.s 			page 65


 3611      4143485F 
 3611      54797065 
 3611      44656600 
 3612              	.LASF265:
 3613 00c4 77726974 		.ascii	"write\000"
 3613      6500
 3614              	.LASF217:
 3615 00ca 43544352 		.ascii	"CTCR\000"
 3615      00
 3616              	.LASF99:
 3617 00cf 656C5F66 		.ascii	"el_flags\000"
 3617      6C616773 
 3617      00
 3618              	.LASF241:
 3619 00d8 67707473 		.ascii	"gptstate_t\000"
 3619      74617465 
 3619      5F7400
 3620              	.LASF244:
 3621 00e3 636F6E66 		.ascii	"config\000"
 3621      696700
 3622              	.LASF243:
 3623 00ea 73746174 		.ascii	"state\000"
 3623      6500
 3624              	.LASF267:
 3625 00f0 70757474 		.ascii	"putt\000"
 3625      00
 3626              	.LASF290:
 3627 00f5 53504944 		.ascii	"SPID1\000"
 3627      3100
 3628              	.LASF291:
 3629 00fb 53504944 		.ascii	"SPID2\000"
 3629      3200
 3630              	.LASF111:
 3631 0101 63685F70 		.ascii	"ch_ptrsize\000"
 3631      74727369 
 3631      7A6500
 3632              	.LASF155:
 3633 010c 504C4C31 		.ascii	"PLL1FEED\000"
 3633      46454544 
 3633      00
 3634              	.LASF249:
 3635 0115 63616C6C 		.ascii	"callback\000"
 3635      6261636B 
 3635      00
 3636              	.LASF93:
 3637 011e 6D5F6F77 		.ascii	"m_owner\000"
 3637      6E657200 
 3638              	.LASF79:
 3639 0126 76745F70 		.ascii	"vt_par\000"
 3639      617200
 3640              	.LASF285:
 3641 012d 656E645F 		.ascii	"end_cb\000"
 3641      636200
 3642              	.LASF103:
 3643 0134 65786974 		.ascii	"exitcode\000"
 3643      636F6465 
 3643      00
ARM GAS  /tmp/ccebz8JA.s 			page 66


 3644              	.LASF5:
 3645 013d 5F5F7569 		.ascii	"__uint8_t\000"
 3645      6E74385F 
 3645      7400
 3646              	.LASF131:
 3647 0147 715F746F 		.ascii	"q_top\000"
 3647      7000
 3648              	.LASF225:
 3649 014d 43446573 		.ascii	"CDestAddr\000"
 3649      74416464 
 3649      7200
 3650              	.LASF105:
 3651 0157 65776D61 		.ascii	"ewmask\000"
 3651      736B00
 3652              	.LASF113:
 3653 015e 63685F74 		.ascii	"ch_threadsize\000"
 3653      68726561 
 3653      6473697A 
 3653      6500
 3654              	.LASF270:
 3655 016c 72656164 		.ascii	"readt\000"
 3655      7400
 3656              	.LASF130:
 3657 0172 715F6275 		.ascii	"q_buffer\000"
 3657      66666572 
 3657      00
 3658              	.LASF224:
 3659 017b 43537263 		.ascii	"CSrcAddr\000"
 3659      41646472 
 3659      00
 3660              	.LASF134:
 3661 0184 715F6E6F 		.ascii	"q_notify\000"
 3661      74696679 
 3661      00
 3662              	.LASF36:
 3663 018d 705F6E65 		.ascii	"p_newer\000"
 3663      77657200 
 3664              	.LASF272:
 3665 0195 5350495F 		.ascii	"SPI_STOP\000"
 3665      53544F50 
 3665      00
 3666              	.LASF11:
 3667 019e 6C6F6E67 		.ascii	"long int\000"
 3667      20696E74 
 3667      00
 3668              	.LASF271:
 3669 01a7 5350495F 		.ascii	"SPI_UNINIT\000"
 3669      554E494E 
 3669      495400
 3670              	.LASF32:
 3671 01b2 705F6E65 		.ascii	"p_next\000"
 3671      787400
 3672              	.LASF133:
 3673 01b9 715F7264 		.ascii	"q_rdptr\000"
 3673      70747200 
 3674              	.LASF282:
 3675 01c1 7478636E 		.ascii	"txcnt\000"
ARM GAS  /tmp/ccebz8JA.s 			page 67


 3675      7400
 3676              	.LASF120:
 3677 01c7 63665F6F 		.ascii	"cf_off_state\000"
 3677      66665F73 
 3677      74617465 
 3677      00
 3678              	.LASF33:
 3679 01d4 705F7072 		.ascii	"p_prev\000"
 3679      657600
 3680              	.LASF251:
 3681 01db 47505444 		.ascii	"GPTD1\000"
 3681      3100
 3682              	.LASF252:
 3683 01e1 47505444 		.ascii	"GPTD2\000"
 3683      3200
 3684              	.LASF253:
 3685 01e7 47505444 		.ascii	"GPTD3\000"
 3685      3300
 3686              	.LASF254:
 3687 01ed 47505444 		.ascii	"GPTD4\000"
 3687      3400
 3688              	.LASF234:
 3689 01f3 696F706F 		.ascii	"ioportid_t\000"
 3689      72746964 
 3689      5F7400
 3690              	.LASF60:
 3691 01fe 44435253 		.ascii	"DCRSR\000"
 3691      5200
 3692              	.LASF23:
 3693 0204 74737461 		.ascii	"tstate_t\000"
 3693      74655F74 
 3693      00
 3694              	.LASF277:
 3695 020d 53504944 		.ascii	"SPIDriver\000"
 3695      72697665 
 3695      7200
 3696              	.LASF48:
 3697 0217 705F6D74 		.ascii	"p_mtxlist\000"
 3697      786C6973 
 3697      7400
 3698              	.LASF262:
 3699 0221 6F717565 		.ascii	"oqueue\000"
 3699      756500
 3700              	.LASF53:
 3701 0228 72656761 		.ascii	"regarm_t\000"
 3701      726D5F74 
 3701      00
 3702              	.LASF223:
 3703 0231 4C50435F 		.ascii	"LPC_SSP_TypeDef\000"
 3703      5353505F 
 3703      54797065 
 3703      44656600 
 3704              	.LASF235:
 3705 0241 70616C5F 		.ascii	"pal_default_config\000"
 3705      64656661 
 3705      756C745F 
 3705      636F6E66 
ARM GAS  /tmp/ccebz8JA.s 			page 68


 3705      696700
 3706              	.LASF3:
 3707 0254 7369676E 		.ascii	"signed char\000"
 3707      65642063 
 3707      68617200 
 3708              	.LASF42:
 3709 0260 705F7072 		.ascii	"p_preempt\000"
 3709      65656D70 
 3709      7400
 3710              	.LASF16:
 3711 026a 75696E74 		.ascii	"uint8_t\000"
 3711      385F7400 
 3712              	.LASF221:
 3713 0272 494D5343 		.ascii	"IMSC\000"
 3713      00
 3714              	.LASF68:
 3715 0277 534C4545 		.ascii	"SLEEPCNT\000"
 3715      50434E54 
 3715      00
 3716              	.LASF296:
 3717 0280 68616C5F 		.ascii	"hal_lld_init\000"
 3717      6C6C645F 
 3717      696E6974 
 3717      00
 3718              	.LASF28:
 3719 028d 6576656E 		.ascii	"eventmask_t\000"
 3719      746D6173 
 3719      6B5F7400 
 3720              	.LASF56:
 3721 0299 636F6E74 		.ascii	"context\000"
 3721      65787400 
 3722              	.LASF146:
 3723 02a1 52455345 		.ascii	"RESERVED0\000"
 3723      52564544 
 3723      3000
 3724              	.LASF151:
 3725 02ab 52455345 		.ascii	"RESERVED1\000"
 3725      52564544 
 3725      3100
 3726              	.LASF6:
 3727 02b5 756E7369 		.ascii	"unsigned char\000"
 3727      676E6564 
 3727      20636861 
 3727      7200
 3728              	.LASF159:
 3729 02c3 52455345 		.ascii	"RESERVED3\000"
 3729      52564544 
 3729      3300
 3730              	.LASF165:
 3731 02cd 52455345 		.ascii	"RESERVED4\000"
 3731      52564544 
 3731      3400
 3732              	.LASF135:
 3733 02d7 715F6C69 		.ascii	"q_link\000"
 3733      6E6B00
 3734              	.LASF170:
 3735 02de 52455345 		.ascii	"RESERVED6\000"
ARM GAS  /tmp/ccebz8JA.s 			page 69


 3735      52564544 
 3735      3600
 3736              	.LASF172:
 3737 02e8 52455345 		.ascii	"RESERVED7\000"
 3737      52564544 
 3737      3700
 3738              	.LASF176:
 3739 02f2 52455345 		.ascii	"RESERVED8\000"
 3739      52564544 
 3739      3800
 3740              	.LASF76:
 3741 02fc 76745F70 		.ascii	"vt_prev\000"
 3741      72657600 
 3742              	.LASF148:
 3743 0304 504C4C30 		.ascii	"PLL0CFG\000"
 3743      43464700 
 3744              	.LASF150:
 3745 030c 504C4C30 		.ascii	"PLL0FEED\000"
 3745      46454544 
 3745      00
 3746              	.LASF85:
 3747 0315 725F6E65 		.ascii	"r_newer\000"
 3747      77657200 
 3748              	.LASF255:
 3749 031d 53445F55 		.ascii	"SD_UNINIT\000"
 3749      4E494E49 
 3749      5400
 3750              	.LASF21:
 3751 0327 5F426F6F 		.ascii	"_Bool\000"
 3751      6C00
 3752              	.LASF177:
 3753 032d 55534249 		.ascii	"USBIntSt\000"
 3753      6E745374 
 3753      00
 3754              	.LASF156:
 3755 0336 52455345 		.ascii	"RESERVED2\000"
 3755      52564544 
 3755      3200
 3756              	.LASF167:
 3757 0340 52455345 		.ascii	"RESERVED5\000"
 3757      52564544 
 3757      3500
 3758              	.LASF222:
 3759 034a 444D4143 		.ascii	"DMACR\000"
 3759      5200
 3760              	.LASF106:
 3761 0350 63686172 		.ascii	"char\000"
 3761      00
 3762              	.LASF281:
 3763 0355 72787074 		.ascii	"rxptr\000"
 3763      7200
 3764              	.LASF236:
 3765 035b 4750545F 		.ascii	"GPT_UNINIT\000"
 3765      554E494E 
 3765      495400
 3766              	.LASF34:
 3767 0366 705F7072 		.ascii	"p_prio\000"
ARM GAS  /tmp/ccebz8JA.s 			page 70


 3767      696F00
 3768              	.LASF8:
 3769 036d 5F5F7569 		.ascii	"__uint16_t\000"
 3769      6E743136 
 3769      5F7400
 3770              	.LASF127:
 3771 0378 47656E65 		.ascii	"GenericQueue\000"
 3771      72696351 
 3771      75657565 
 3771      00
 3772              	.LASF169:
 3773 0385 45585450 		.ascii	"EXTPOLAR\000"
 3773      4F4C4152 
 3773      00
 3774              	.LASF104:
 3775 038e 77746F62 		.ascii	"wtobjp\000"
 3775      6A7000
 3776              	.LASF66:
 3777 0395 43504943 		.ascii	"CPICNT\000"
 3777      4E5400
 3778              	.LASF116:
 3779 039c 63665F6F 		.ascii	"cf_off_newer\000"
 3779      66665F6E 
 3779      65776572 
 3779      00
 3780              	.LASF268:
 3781 03a9 67657474 		.ascii	"gett\000"
 3781      00
 3782              	.LASF54:
 3783 03ae 73746B61 		.ascii	"stkalign_t\000"
 3783      6C69676E 
 3783      5F7400
 3784              	.LASF204:
 3785 03b9 46494F53 		.ascii	"FIOSET0\000"
 3785      45543000 
 3786              	.LASF205:
 3787 03c1 46494F53 		.ascii	"FIOSET1\000"
 3787      45543100 
 3788              	.LASF206:
 3789 03c9 46494F53 		.ascii	"FIOSET2\000"
 3789      45543200 
 3790              	.LASF138:
 3791 03d1 4F757470 		.ascii	"OutputQueue\000"
 3791      75745175 
 3791      65756500 
 3792              	.LASF203:
 3793 03dd 46494F53 		.ascii	"FIOSETH\000"
 3793      45544800 
 3794              	.LASF202:
 3795 03e5 46494F53 		.ascii	"FIOSETL\000"
 3795      45544C00 
 3796              	.LASF114:
 3797 03ed 63665F6F 		.ascii	"cf_off_prio\000"
 3797      66665F70 
 3797      72696F00 
 3798              	.LASF78:
 3799 03f9 76745F66 		.ascii	"vt_func\000"
ARM GAS  /tmp/ccebz8JA.s 			page 71


 3799      756E6300 
 3800              	.LASF55:
 3801 0401 696E7463 		.ascii	"intctx\000"
 3801      747800
 3802              	.LASF47:
 3803 0408 705F6570 		.ascii	"p_epending\000"
 3803      656E6469 
 3803      6E6700
 3804              	.LASF166:
 3805 0413 45585449 		.ascii	"EXTINT\000"
 3805      4E5400
 3806              	.LASF160:
 3807 041a 43434C4B 		.ascii	"CCLKCFG\000"
 3807      43464700 
 3808              	.LASF174:
 3809 0422 50434C4B 		.ascii	"PCLKSEL0\000"
 3809      53454C30 
 3809      00
 3810              	.LASF175:
 3811 042b 50434C4B 		.ascii	"PCLKSEL1\000"
 3811      53454C31 
 3811      00
 3812              	.LASF101:
 3813 0434 65735F6E 		.ascii	"es_next\000"
 3813      65787400 
 3814              	.LASF129:
 3815 043c 715F636F 		.ascii	"q_counter\000"
 3815      756E7465 
 3815      7200
 3816              	.LASF69:
 3817 0446 4C535543 		.ascii	"LSUCNT\000"
 3817      4E5400
 3818              	.LASF197:
 3819 044d 46494F50 		.ascii	"FIOPIN0\000"
 3819      494E3000 
 3820              	.LASF198:
 3821 0455 46494F50 		.ascii	"FIOPIN1\000"
 3821      494E3100 
 3822              	.LASF199:
 3823 045d 46494F50 		.ascii	"FIOPIN2\000"
 3823      494E3200 
 3824              	.LASF200:
 3825 0465 46494F50 		.ascii	"FIOPIN3\000"
 3825      494E3300 
 3826              	.LASF100:
 3827 046d 4576656E 		.ascii	"EventSource\000"
 3827      74536F75 
 3827      72636500 
 3828              	.LASF14:
 3829 0479 5F5F7569 		.ascii	"__uint64_t\000"
 3829      6E743634 
 3829      5F7400
 3830              	.LASF13:
 3831 0484 6C6F6E67 		.ascii	"long unsigned int\000"
 3831      20756E73 
 3831      69676E65 
 3831      6420696E 
ARM GAS  /tmp/ccebz8JA.s 			page 72


 3831      7400
 3832              	.LASF108:
 3833 0496 63685F7A 		.ascii	"ch_zero\000"
 3833      65726F00 
 3834              	.LASF196:
 3835 049e 46494F50 		.ascii	"FIOPINH\000"
 3835      494E4800 
 3836              	.LASF195:
 3837 04a6 46494F50 		.ascii	"FIOPINL\000"
 3837      494E4C00 
 3838              	.LASF295:
 3839 04ae 4C504331 		.ascii	"LPC17xx_clock_init\000"
 3839      3778785F 
 3839      636C6F63 
 3839      6B5F696E 
 3839      697400
 3840              	.LASF144:
 3841 04c1 53797374 		.ascii	"SystemCoreClock\000"
 3841      656D436F 
 3841      7265436C 
 3841      6F636B00 
 3842              	.LASF247:
 3843 04d1 67707466 		.ascii	"gptfreq_t\000"
 3843      7265715F 
 3843      7400
 3844              	.LASF297:
 3845 04db 6E766963 		.ascii	"nvicSetSystemHandlerPriority\000"
 3845      53657453 
 3845      79737465 
 3845      6D48616E 
 3845      646C6572 
 3846              	.LASF227:
 3847 04f8 43436F6E 		.ascii	"CControl\000"
 3847      74726F6C 
 3847      00
 3848              	.LASF163:
 3849 0501 43414E53 		.ascii	"CANSLEEPCLR\000"
 3849      4C454550 
 3849      434C5200 
 3850              	.LASF96:
 3851 050d 656C5F6E 		.ascii	"el_next\000"
 3851      65787400 
 3852              	.LASF132:
 3853 0515 715F7772 		.ascii	"q_wrptr\000"
 3853      70747200 
 3854              	.LASF230:
 3855 051d 5F6C7063 		.ascii	"_lpc17xx_dma_channel_config_t\000"
 3855      31377878 
 3855      5F646D61 
 3855      5F636861 
 3855      6E6E656C 
 3856              	.LASF264:
 3857 053b 53657269 		.ascii	"SerialDriverVMT\000"
 3857      616C4472 
 3857      69766572 
 3857      564D5400 
 3858              	.LASF194:
ARM GAS  /tmp/ccebz8JA.s 			page 73


 3859 054b 46494F4D 		.ascii	"FIOMASK\000"
 3859      41534B00 
 3860              	.LASF245:
 3861 0553 636C6F63 		.ascii	"clock\000"
 3861      6B00
 3862              	.LASF250:
 3863 0559 47505443 		.ascii	"GPTConfig\000"
 3863      6F6E6669 
 3863      6700
 3864              	.LASF280:
 3865 0563 7278636E 		.ascii	"rxcnt\000"
 3865      7400
 3866              	.LASF288:
 3867 0569 63707372 		.ascii	"cpsr\000"
 3867      00
 3868              	.LASF162:
 3869 056e 434C4B53 		.ascii	"CLKSRCSEL\000"
 3869      52435345 
 3869      4C00
 3870              	.LASF183:
 3871 0578 46494F44 		.ascii	"FIODIR0\000"
 3871      49523000 
 3872              	.LASF184:
 3873 0580 46494F44 		.ascii	"FIODIR1\000"
 3873      49523100 
 3874              	.LASF185:
 3875 0588 46494F44 		.ascii	"FIODIR2\000"
 3875      49523200 
 3876              	.LASF186:
 3877 0590 46494F44 		.ascii	"FIODIR3\000"
 3877      49523300 
 3878              	.LASF123:
 3879 0598 63665F6F 		.ascii	"cf_off_preempt\000"
 3879      66665F70 
 3879      7265656D 
 3879      707400
 3880              	.LASF182:
 3881 05a7 46494F44 		.ascii	"FIODIRH\000"
 3881      49524800 
 3882              	.LASF181:
 3883 05af 46494F44 		.ascii	"FIODIRL\000"
 3883      49524C00 
 3884              	.LASF12:
 3885 05b7 5F5F7569 		.ascii	"__uint32_t\000"
 3885      6E743332 
 3885      5F7400
 3886              	.LASF91:
 3887 05c2 4D757465 		.ascii	"Mutex\000"
 3887      7800
 3888              	.LASF273:
 3889 05c8 5350495F 		.ascii	"SPI_READY\000"
 3889      52454144 
 3889      5900
 3890              	.LASF1:
 3891 05d2 6C6F6E67 		.ascii	"long long int\000"
 3891      206C6F6E 
 3891      6720696E 
ARM GAS  /tmp/ccebz8JA.s 			page 74


 3891      7400
 3892              	.LASF110:
 3893 05e0 63685F76 		.ascii	"ch_version\000"
 3893      65727369 
 3893      6F6E00
 3894              	.LASF92:
 3895 05eb 6D5F7175 		.ascii	"m_queue\000"
 3895      65756500 
 3896              	.LASF242:
 3897 05f3 47505444 		.ascii	"GPTDriver\000"
 3897      72697665 
 3897      7200
 3898              	.LASF75:
 3899 05fd 76745F6E 		.ascii	"vt_next\000"
 3899      65787400 
 3900              	.LASF208:
 3901 0605 46494F53 		.ascii	"FIOSET\000"
 3901      455400
 3902              	.LASF279:
 3903 060c 6D757465 		.ascii	"mutex\000"
 3903      7800
 3904              	.LASF147:
 3905 0612 504C4C30 		.ascii	"PLL0CON\000"
 3905      434F4E00 
 3906              	.LASF140:
 3907 061a 4C4F4144 		.ascii	"LOAD\000"
 3907      00
 3908              	.LASF158:
 3909 061f 50434F4E 		.ascii	"PCONP\000"
 3909      5000
 3910              	.LASF248:
 3911 0625 66726571 		.ascii	"frequency\000"
 3911      75656E63 
 3911      7900
 3912              	.LASF136:
 3913 062f 716E6F74 		.ascii	"qnotify_t\000"
 3913      6966795F 
 3913      7400
 3914              	.LASF240:
 3915 0639 4750545F 		.ascii	"GPT_ONESHOT\000"
 3915      4F4E4553 
 3915      484F5400 
 3916              	.LASF44:
 3917 0645 705F7761 		.ascii	"p_waiting\000"
 3917      6974696E 
 3917      6700
 3918              	.LASF260:
 3919 064f 6576656E 		.ascii	"event\000"
 3919      7400
 3920              	.LASF40:
 3921 0655 705F666C 		.ascii	"p_flags\000"
 3921      61677300 
 3922              	.LASF266:
 3923 065d 72656164 		.ascii	"read\000"
 3923      00
 3924              	.LASF154:
 3925 0662 504C4C31 		.ascii	"PLL1STAT\000"
ARM GAS  /tmp/ccebz8JA.s 			page 75


 3925      53544154 
 3925      00
 3926              	.LASF0:
 3927 066b 756E7369 		.ascii	"unsigned int\000"
 3927      676E6564 
 3927      20696E74 
 3927      00
 3928              	.LASF64:
 3929 0678 4354524C 		.ascii	"CTRL\000"
 3929      00
 3930              	.LASF293:
 3931 067d 2E2E2F2E 		.ascii	"../../os/hal/platforms/LPC17xx/hal_lld.c\000"
 3931      2E2F6F73 
 3931      2F68616C 
 3931      2F706C61 
 3931      74666F72 
 3932              	.LASF289:
 3933 06a6 53504943 		.ascii	"SPIConfig\000"
 3933      6F6E6669 
 3933      6700
 3934              	.LASF274:
 3935 06b0 5350495F 		.ascii	"SPI_ACTIVE\000"
 3935      41435449 
 3935      564500
 3936              	.LASF190:
 3937 06bb 46494F4D 		.ascii	"FIOMASK0\000"
 3937      41534B30 
 3937      00
 3938              	.LASF191:
 3939 06c4 46494F4D 		.ascii	"FIOMASK1\000"
 3939      41534B31 
 3939      00
 3940              	.LASF192:
 3941 06cd 46494F4D 		.ascii	"FIOMASK2\000"
 3941      41534B32 
 3941      00
 3942              	.LASF193:
 3943 06d6 46494F4D 		.ascii	"FIOMASK3\000"
 3943      41534B33 
 3943      00
 3944              	.LASF50:
 3945 06df 705F6D70 		.ascii	"p_mpool\000"
 3945      6F6F6C00 
 3946              	.LASF72:
 3947 06e7 434D785F 		.ascii	"CMx_DWT\000"
 3947      44575400 
 3948              	.LASF211:
 3949 06ef 46494F43 		.ascii	"FIOCLR0\000"
 3949      4C523000 
 3950              	.LASF212:
 3951 06f7 46494F43 		.ascii	"FIOCLR1\000"
 3951      4C523100 
 3952              	.LASF213:
 3953 06ff 46494F43 		.ascii	"FIOCLR2\000"
 3953      4C523200 
 3954              	.LASF214:
 3955 0707 46494F43 		.ascii	"FIOCLR3\000"
ARM GAS  /tmp/ccebz8JA.s 			page 76


 3955      4C523300 
 3956              	.LASF41:
 3957 070f 705F7265 		.ascii	"p_refs\000"
 3957      667300
 3958              	.LASF189:
 3959 0716 46494F4D 		.ascii	"FIOMASKH\000"
 3959      41534B48 
 3959      00
 3960              	.LASF67:
 3961 071f 45584343 		.ascii	"EXCCNT\000"
 3961      4E5400
 3962              	.LASF188:
 3963 0726 46494F4D 		.ascii	"FIOMASKL\000"
 3963      41534B4C 
 3963      00
 3964              	.LASF112:
 3965 072f 63685F74 		.ascii	"ch_timesize\000"
 3965      696D6573 
 3965      697A6500 
 3966              	.LASF57:
 3967 073b 494F5245 		.ascii	"IOREG32\000"
 3967      47333200 
 3968              	.LASF210:
 3969 0743 46494F43 		.ascii	"FIOCLRH\000"
 3969      4C524800 
 3970              	.LASF209:
 3971 074b 46494F43 		.ascii	"FIOCLRL\000"
 3971      4C524C00 
 3972              	.LASF292:
 3973 0753 474E5520 		.ascii	"GNU C11 6.3.1 20170620 -mcpu=cortex-m3 -mno-thumb-i"
 3973      43313120 
 3973      362E332E 
 3973      31203230 
 3973      31373036 
 3974 0786 6E746572 		.ascii	"nterwork -mthumb -ggdb -O2 -fomit-frame-pointer -ff"
 3974      776F726B 
 3974      202D6D74 
 3974      68756D62 
 3974      202D6767 
 3975 07b9 756E6374 		.ascii	"unction-sections -fdata-sections -fno-common\000"
 3975      696F6E2D 
 3975      73656374 
 3975      696F6E73 
 3975      202D6664 
 3976              	.LASF52:
 3977 07e6 54687265 		.ascii	"ThreadsList\000"
 3977      6164734C 
 3977      69737400 
 3978              	.LASF157:
 3979 07f2 50434F4E 		.ascii	"PCON\000"
 3979      00
 3980              	.LASF29:
 3981 07f7 666C6167 		.ascii	"flagsmask_t\000"
 3981      736D6173 
 3981      6B5F7400 
 3982              	.LASF173:
 3983 0803 49524354 		.ascii	"IRCTRIM\000"
ARM GAS  /tmp/ccebz8JA.s 			page 77


 3983      52494D00 
 3984              	.LASF179:
 3985 080b 434C4B4F 		.ascii	"CLKOUTCFG\000"
 3985      55544346 
 3985      4700
 3986              	.LASF43:
 3987 0815 705F7469 		.ascii	"p_time\000"
 3987      6D6500
 3988              	.LASF187:
 3989 081c 46494F44 		.ascii	"FIODIR\000"
 3989      495200
 3990              	.LASF122:
 3991 0823 63665F6F 		.ascii	"cf_off_refs\000"
 3991      66665F72 
 3991      65667300 
 3992              	.LASF218:
 3993 082f 4C50435F 		.ascii	"LPC_TIM_TypeDef\000"
 3993      54494D5F 
 3993      54797065 
 3993      44656600 
 3994              	.LASF142:
 3995 083f 53797354 		.ascii	"SysTick_Type\000"
 3995      69636B5F 
 3995      54797065 
 3995      00
 3996              	.LASF171:
 3997 084c 52534944 		.ascii	"RSID\000"
 3997      00
 3998              	.LASF215:
 3999 0851 46494F43 		.ascii	"FIOCLR\000"
 3999      4C5200
 4000              	.LASF62:
 4001 0858 44454D43 		.ascii	"DEMCR\000"
 4001      5200
 4002              	.LASF2:
 4003 085e 6C6F6E67 		.ascii	"long double\000"
 4003      20646F75 
 4003      626C6500 
 4004              	.LASF49:
 4005 086a 705F7265 		.ascii	"p_realprio\000"
 4005      616C7072 
 4005      696F00
 4006              	.LASF124:
 4007 0875 63665F6F 		.ascii	"cf_off_time\000"
 4007      66665F74 
 4007      696D6500 
 4008              	.LASF59:
 4009 0881 44484353 		.ascii	"DHCSR\000"
 4009      5200
 4010              	.LASF61:
 4011 0887 44435244 		.ascii	"DCRDR\000"
 4011      5200
 4012              	.LASF294:
 4013 088d 2F686F6D 		.ascii	"/home/ekobayu/Arok-Gandring-Lokajaya/LPC/ChibiOS-RT"
 4013      652F656B 
 4013      6F626179 
 4013      752F4172 
ARM GAS  /tmp/ccebz8JA.s 			page 78


 4013      6F6B2D47 
 4014 08c0 2D4C5043 		.ascii	"-LPC/demos/LPC1766\000"
 4014      2F64656D 
 4014      6F732F4C 
 4014      50433137 
 4014      363600
 4015              	.LASF15:
 4016 08d3 6C6F6E67 		.ascii	"long long unsigned int\000"
 4016      206C6F6E 
 4016      6720756E 
 4016      7369676E 
 4016      65642069 
 4017              	.LASF37:
 4018 08ea 705F6F6C 		.ascii	"p_older\000"
 4018      64657200 
 4019              	.LASF17:
 4020 08f2 75696E74 		.ascii	"uint16_t\000"
 4020      31365F74 
 4020      00
 4021              	.LASF27:
 4022 08fb 6D73675F 		.ascii	"msg_t\000"
 4022      7400
 4023              	.LASF201:
 4024 0901 46494F50 		.ascii	"FIOPIN\000"
 4024      494E00
 4025              	.LASF121:
 4026 0908 63665F6F 		.ascii	"cf_off_flags\000"
 4026      66665F66 
 4026      6C616773 
 4026      00
 4027              	.LASF149:
 4028 0915 504C4C30 		.ascii	"PLL0STAT\000"
 4028      53544154 
 4028      00
 4029              	.LASF25:
 4030 091e 74736C69 		.ascii	"tslices_t\000"
 4030      6365735F 
 4030      7400
 4031              	.LASF238:
 4032 0928 4750545F 		.ascii	"GPT_READY\000"
 4032      52454144 
 4032      5900
 4033              	.LASF239:
 4034 0932 4750545F 		.ascii	"GPT_CONTINUOUS\000"
 4034      434F4E54 
 4034      494E554F 
 4034      555300
 4035              	.LASF87:
 4036 0941 725F6375 		.ascii	"r_current\000"
 4036      7272656E 
 4036      7400
 4037              	.LASF81:
 4038 094b 56544C69 		.ascii	"VTList\000"
 4038      737400
 4039              	.LASF219:
 4040 0952 4C50435F 		.ascii	"LPC_UART_TypeDef\000"
 4040      55415254 
ARM GAS  /tmp/ccebz8JA.s 			page 79


 4040      5F547970 
 4040      65446566 
 4040      00
 4041              	.LASF71:
 4042 0963 50435352 		.ascii	"PCSR\000"
 4042      00
 4043              	.LASF153:
 4044 0968 504C4C31 		.ascii	"PLL1CFG\000"
 4044      43464700 
 4045              	.LASF226:
 4046 0970 434C4C49 		.ascii	"CLLI\000"
 4046      00
 4047              	.LASF82:
 4048 0975 725F7175 		.ascii	"r_queue\000"
 4048      65756500 
 4049              	.LASF259:
 4050 097d 53657269 		.ascii	"SerialDriver\000"
 4050      616C4472 
 4050      69766572 
 4050      00
 4051              	.LASF141:
 4052 098a 43414C49 		.ascii	"CALIB\000"
 4052      4200
 4053              	.LASF161:
 4054 0990 55534243 		.ascii	"USBCLKCFG\000"
 4054      4C4B4346 
 4054      4700
 4055              	.LASF128:
 4056 099a 715F7761 		.ascii	"q_waiting\000"
 4056      6974696E 
 4056      6700
 4057              	.LASF90:
 4058 09a4 726C6973 		.ascii	"rlist\000"
 4058      7400
 4059              	.LASF22:
 4060 09aa 746D6F64 		.ascii	"tmode_t\000"
 4060      655F7400 
 4061              	.LASF258:
 4062 09b2 73647374 		.ascii	"sdstate_t\000"
 4062      6174655F 
 4062      7400
 4063              	.LASF220:
 4064 09bc 43505352 		.ascii	"CPSR\000"
 4064      00
 4065              	.LASF80:
 4066 09c1 76745F73 		.ascii	"vt_systime\000"
 4066      79737469 
 4066      6D6500
 4067              	.LASF257:
 4068 09cc 53445F52 		.ascii	"SD_READY\000"
 4068      45414459 
 4068      00
 4069              	.LASF86:
 4070 09d5 725F6F6C 		.ascii	"r_older\000"
 4070      64657200 
 4071              	.LASF278:
 4072 09dd 74687265 		.ascii	"thread\000"
ARM GAS  /tmp/ccebz8JA.s 			page 80


 4072      616400
 4073              	.LASF168:
 4074 09e4 4558544D 		.ascii	"EXTMODE\000"
 4074      4F444500 
 4075              	.LASF7:
 4076 09ec 73686F72 		.ascii	"short int\000"
 4076      7420696E 
 4076      7400
 4077              	.LASF20:
 4078 09f6 75696E74 		.ascii	"uint64_t\000"
 4078      36345F74 
 4078      00
 4079              	.LASF263:
 4080 09ff 75617274 		.ascii	"uart\000"
 4080      00
 4081              	.LASF261:
 4082 0a04 69717565 		.ascii	"iqueue\000"
 4082      756500
 4083              	.LASF83:
 4084 0a0b 725F7072 		.ascii	"r_prio\000"
 4084      696F00
 4085              	.LASF232:
 4086 0a12 6C706331 		.ascii	"lpc17xx_gpio_setup_t\000"
 4086      3778785F 
 4086      6770696F 
 4086      5F736574 
 4086      75705F74 
 4087              	.LASF117:
 4088 0a27 63665F6F 		.ascii	"cf_off_older\000"
 4088      66665F6F 
 4088      6C646572 
 4088      00
 4089              	.LASF233:
 4090 0a34 50414C43 		.ascii	"PALConfig\000"
 4090      6F6E6669 
 4090      6700
 4091              	.LASF31:
 4092 0a3e 54687265 		.ascii	"Thread\000"
 4092      616400
 4093              	.LASF143:
 4094 0a45 49544D5F 		.ascii	"ITM_RxBuffer\000"
 4094      52784275 
 4094      66666572 
 4094      00
 4095              	.LASF89:
 4096 0a52 76746C69 		.ascii	"vtlist\000"
 4096      737400
 4097              	.LASF228:
 4098 0a59 43436F6E 		.ascii	"CConfig\000"
 4098      66696700 
 4099              	.LASF65:
 4100 0a61 43594343 		.ascii	"CYCCNT\000"
 4100      4E5400
 4101              	.LASF24:
 4102 0a68 74726566 		.ascii	"trefs_t\000"
 4102      735F7400 
 4103              	.LASF139:
ARM GAS  /tmp/ccebz8JA.s 			page 81


 4104 0a70 5F69646C 		.ascii	"_idle_thread_wa\000"
 4104      655F7468 
 4104      72656164 
 4104      5F776100 
 4105              	.LASF119:
 4106 0a80 63665F6F 		.ascii	"cf_off_stklimit\000"
 4106      66665F73 
 4106      746B6C69 
 4106      6D697400 
 4107              	.LASF95:
 4108 0a90 4576656E 		.ascii	"EventListener\000"
 4108      744C6973 
 4108      74656E65 
 4108      7200
 4109              	.LASF284:
 4110 0a9e 73706963 		.ascii	"spicallback_t\000"
 4110      616C6C62 
 4110      61636B5F 
 4110      7400
 4111              	.LASF19:
 4112 0aac 75696E74 		.ascii	"uint32_t\000"
 4112      33325F74 
 4112      00
 4113              	.LASF74:
 4114 0ab5 56697274 		.ascii	"VirtualTimer\000"
 4114      75616C54 
 4114      696D6572 
 4114      00
 4115              	.LASF51:
 4116 0ac2 54687265 		.ascii	"ThreadsQueue\000"
 4116      61647351 
 4116      75657565 
 4116      00
 4117              	.LASF275:
 4118 0acf 5350495F 		.ascii	"SPI_COMPLETE\000"
 4118      434F4D50 
 4118      4C455445 
 4118      00
 4119              	.LASF216:
 4120 0adc 4C50435F 		.ascii	"LPC_GPIO_TypeDef\000"
 4120      4750494F 
 4120      5F547970 
 4120      65446566 
 4120      00
 4121              	.LASF102:
 4122 0aed 7264796D 		.ascii	"rdymsg\000"
 4122      736700
 4123              	.LASF237:
 4124 0af4 4750545F 		.ascii	"GPT_STOP\000"
 4124      53544F50 
 4124      00
 4125              	.LASF9:
 4126 0afd 73686F72 		.ascii	"short unsigned int\000"
 4126      7420756E 
 4126      7369676E 
 4126      65642069 
 4126      6E7400
ARM GAS  /tmp/ccebz8JA.s 			page 82


 4127              	.LASF63:
 4128 0b10 434D785F 		.ascii	"CMx_SCS\000"
 4128      53435300 
 4129              	.LASF125:
 4130 0b18 63686465 		.ascii	"chdebug_t\000"
 4130      6275675F 
 4130      7400
 4131              	.LASF276:
 4132 0b22 73706973 		.ascii	"spistate_t\000"
 4132      74617465 
 4132      5F7400
 4133              	.LASF137:
 4134 0b2d 496E7075 		.ascii	"InputQueue\000"
 4134      74517565 
 4134      756500
 4135              	.LASF109:
 4136 0b38 63685F73 		.ascii	"ch_size\000"
 4136      697A6500 
 4137              	.LASF164:
 4138 0b40 43414E57 		.ascii	"CANWAKEFLAGS\000"
 4138      414B4546 
 4138      4C414753 
 4138      00
 4139              	.LASF10:
 4140 0b4d 5F5F696E 		.ascii	"__int32_t\000"
 4140      7433325F 
 4140      7400
 4141              	.LASF256:
 4142 0b57 53445F53 		.ascii	"SD_STOP\000"
 4142      544F5000 
 4143              	.LASF70:
 4144 0b5f 464F4C44 		.ascii	"FOLDCNT\000"
 4144      434E5400 
 4145              	.LASF98:
 4146 0b67 656C5F6D 		.ascii	"el_mask\000"
 4146      61736B00 
 4147              	.LASF88:
 4148 0b6f 52656164 		.ascii	"ReadyList\000"
 4148      794C6973 
 4148      7400
 4149              	.LASF287:
 4150 0b79 73737061 		.ascii	"sspad\000"
 4150      6400
 4151              	.LASF207:
 4152 0b7f 46494F53 		.ascii	"FIOSET3\000"
 4152      45543300 
 4153              	.LASF283:
 4154 0b87 74787074 		.ascii	"txptr\000"
 4154      7200
 4155              	.LASF38:
 4156 0b8d 705F6E61 		.ascii	"p_name\000"
 4156      6D6500
 4157              	.LASF77:
 4158 0b94 76745F74 		.ascii	"vt_time\000"
 4158      696D6500 
 4159              	.LASF231:
 4160 0b9c 64617461 		.ascii	"data\000"
ARM GAS  /tmp/ccebz8JA.s 			page 83


 4160      00
 4161              	.LASF94:
 4162 0ba1 6D5F6E65 		.ascii	"m_next\000"
 4162      787400
 4163              	.LASF246:
 4164 0ba8 67707463 		.ascii	"gptcallback_t\000"
 4164      616C6C62 
 4164      61636B5F 
 4164      7400
 4165              	.LASF46:
 4166 0bb6 705F6D73 		.ascii	"p_msg\000"
 4166      6700
 4167              	.LASF97:
 4168 0bbc 656C5F6C 		.ascii	"el_listener\000"
 4168      69737465 
 4168      6E657200 
 4169              	.LASF39:
 4170 0bc8 705F7374 		.ascii	"p_state\000"
 4170      61746500 
 4171              		.ident	"GCC: (15:6.3.1+svn253039-1build1) 6.3.1 20170620"
ARM GAS  /tmp/ccebz8JA.s 			page 84


DEFINED SYMBOLS
                            *ABS*:0000000000000000 hal_lld.c
     /tmp/ccebz8JA.s:16     .text.hal_lld_init:0000000000000000 $t
     /tmp/ccebz8JA.s:24     .text.hal_lld_init:0000000000000000 hal_lld_init
     /tmp/ccebz8JA.s:70     .text.hal_lld_init:0000000000000030 $d
     /tmp/ccebz8JA.s:78     .text.LPC17xx_clock_init:0000000000000000 $t
     /tmp/ccebz8JA.s:86     .text.LPC17xx_clock_init:0000000000000000 LPC17xx_clock_init
     /tmp/ccebz8JA.s:177    .text.LPC17xx_clock_init:0000000000000080 $d
                     .debug_frame:0000000000000010 $d

UNDEFINED SYMBOLS
nvicSetSystemHandlerPriority
