ARM GAS  /tmp/cc3CDeUi.s 			page 1


   1              		.cpu cortex-m3
   2              		.eabi_attribute 20, 1
   3              		.eabi_attribute 21, 1
   4              		.eabi_attribute 23, 3
   5              		.eabi_attribute 24, 1
   6              		.eabi_attribute 25, 1
   7              		.eabi_attribute 26, 1
   8              		.eabi_attribute 30, 2
   9              		.eabi_attribute 34, 1
  10              		.eabi_attribute 18, 4
  11              		.file	"main.c"
  12              		.text
  13              	.Ltext0:
  14              		.cfi_sections	.debug_frame
  15              		.section	.text.Thread1,"ax",%progbits
  16              		.align	1
  17              		.p2align 2,,3
  18              		.syntax unified
  19              		.thumb
  20              		.thumb_func
  21              		.fpu softvfp
  22              		.type	Thread1, %function
  23              	Thread1:
  24              	.LFB63:
  25              		.file 1 "main.c"
  26              		.loc 1 33 0
  27              		.cfi_startproc
  28              		@ Volatile: function does not return.
  29              		@ args = 0, pretend = 0, frame = 0
  30              		@ frame_needed = 0, uses_anonymous_args = 0
  31              	.LVL0:
  32 0000 08B5     		push	{r3, lr}
  33              		.cfi_def_cfa_offset 8
  34              		.cfi_offset 3, -8
  35              		.cfi_offset 14, -4
  36              		.loc 1 38 0
  37 0002 0B4B     		ldr	r3, .L5
  38              		.loc 1 37 0
  39 0004 0B4A     		ldr	r2, .L5+4
  40              		.loc 1 40 0
  41 0006 1C46     		mov	r4, r3
  42              		.loc 1 36 0
  43 0008 0B49     		ldr	r1, .L5+8
  44 000a 0C4D     		ldr	r5, .L5+12
  45 000c 8869     		ldr	r0, [r1, #24]
  46              	.LVL1:
  47              		.loc 1 37 0
  48 000e 1169     		ldr	r1, [r2, #16]
  49              		.loc 1 36 0
  50 0010 8561     		str	r5, [r0, #24]
  51              		.loc 1 37 0
  52 0012 1161     		str	r1, [r2, #16]
  53              		.loc 1 38 0
  54 0014 1A68     		ldr	r2, [r3]
  55 0016 42F00102 		orr	r2, r2, #1
  56 001a 1A60     		str	r2, [r3]
  57              	.L2:
ARM GAS  /tmp/cc3CDeUi.s 			page 2


  58              		.loc 1 40 0 discriminator 1
  59 001c 6369     		ldr	r3, [r4, #20]
  60              		.loc 1 41 0 discriminator 1
  61 001e 4FF47A70 		mov	r0, #1000
  62              		.loc 1 40 0 discriminator 1
  63 0022 83F00103 		eor	r3, r3, #1
  64 0026 6361     		str	r3, [r4, #20]
  65              		.loc 1 41 0 discriminator 1
  66 0028 FFF7FEFF 		bl	chThdSleep
  67              	.LVL2:
  68 002c F6E7     		b	.L2
  69              	.L6:
  70 002e 00BF     		.align	2
  71              	.L5:
  72 0030 40C00920 		.word	537509952
  73 0034 00C00240 		.word	1073922048
  74 0038 00000000 		.word	rlist
  75 003c 00000000 		.word	.LC0
  76              		.cfi_endproc
  77              	.LFE63:
  78              		.size	Thread1, .-Thread1
  79              		.section	.text.startup.main,"ax",%progbits
  80              		.align	1
  81              		.p2align 2,,3
  82              		.global	main
  83              		.syntax unified
  84              		.thumb
  85              		.thumb_func
  86              		.fpu softvfp
  87              		.type	main, %function
  88              	main:
  89              	.LFB64:
  90              		.loc 1 48 0
  91              		.cfi_startproc
  92              		@ args = 0, pretend = 0, frame = 0
  93              		@ frame_needed = 0, uses_anonymous_args = 0
  94 0000 70B5     		push	{r4, r5, r6, lr}
  95              		.cfi_def_cfa_offset 16
  96              		.cfi_offset 4, -16
  97              		.cfi_offset 5, -12
  98              		.cfi_offset 6, -8
  99              		.cfi_offset 14, -4
 100              		.loc 1 69 0
 101 0002 0024     		movs	r4, #0
 102              		.loc 1 48 0
 103 0004 82B0     		sub	sp, sp, #8
 104              		.cfi_def_cfa_offset 24
 105              		.loc 1 57 0
 106 0006 FFF7FEFF 		bl	halInit
 107              	.LVL3:
 108              		.loc 1 58 0
 109 000a FFF7FEFF 		bl	chSysInit
 110              	.LVL4:
 111              		.loc 1 59 0
 112 000e 4FF47A70 		mov	r0, #1000
 113 0012 FFF7FEFF 		bl	chThdSleep
 114              	.LVL5:
ARM GAS  /tmp/cc3CDeUi.s 			page 3


 115              		.loc 1 64 0
 116 0016 1049     		ldr	r1, .L10
 117 0018 1048     		ldr	r0, .L10+4
 118 001a FFF7FEFF 		bl	sdStart
 119              	.LVL6:
 120              		.loc 1 65 0
 121 001e 1049     		ldr	r1, .L10+8
 122 0020 0E48     		ldr	r0, .L10+4
 123 0022 FFF7FEFF 		bl	chprintf
 124              	.LVL7:
 125              		.loc 1 66 0
 126 0026 4FF47A70 		mov	r0, #1000
 127 002a FFF7FEFF 		bl	chThdSleep
 128              	.LVL8:
 129              		.loc 1 69 0
 130 002e 0094     		str	r4, [sp]
 131 0030 0C4B     		ldr	r3, .L10+12
 132 0032 4522     		movs	r2, #69
 133 0034 4FF49871 		mov	r1, #304
 134 0038 0B48     		ldr	r0, .L10+16
 135 003a FFF7FEFF 		bl	chThdCreateStatic
 136              	.LVL9:
 137              		.loc 1 76 0
 138 003e 0B4E     		ldr	r6, .L10+20
 139 0040 064D     		ldr	r5, .L10+4
 140              	.LVL10:
 141              	.L8:
 142              		.loc 1 76 0 is_stmt 0 discriminator 1
 143 0042 2246     		mov	r2, r4
 144 0044 2846     		mov	r0, r5
 145 0046 3146     		mov	r1, r6
 146 0048 FFF7FEFF 		bl	chprintf
 147              	.LVL11:
 148              		.loc 1 78 0 is_stmt 1 discriminator 1
 149 004c 4FF47A70 		mov	r0, #1000
 150              		.loc 1 77 0 discriminator 1
 151 0050 0134     		adds	r4, r4, #1
 152              	.LVL12:
 153              		.loc 1 78 0 discriminator 1
 154 0052 FFF7FEFF 		bl	chThdSleep
 155              	.LVL13:
 156 0056 F4E7     		b	.L8
 157              	.L11:
 158              		.align	2
 159              	.L10:
 160 0058 00000000 		.word	.LANCHOR0
 161 005c 00000000 		.word	SD3
 162 0060 00000000 		.word	.LC1
 163 0064 00000000 		.word	Thread1
 164 0068 00000000 		.word	.LANCHOR1
 165 006c 20000000 		.word	.LC2
 166              		.cfi_endproc
 167              	.LFE64:
 168              		.size	main, .-main
 169              		.section	.bss.waThread1,"aw",%nobits
 170              		.align	3
 171              		.set	.LANCHOR1,. + 0
ARM GAS  /tmp/cc3CDeUi.s 			page 4


 172              		.type	waThread1, %object
 173              		.size	waThread1, 304
 174              	waThread1:
 175 0000 00000000 		.space	304
 175      00000000 
 175      00000000 
 175      00000000 
 175      00000000 
 176              		.section	.rodata.Thread1.str1.4,"aMS",%progbits,1
 177              		.align	2
 178              	.LC0:
 179 0000 626C696E 		.ascii	"blinker1\000"
 179      6B657231 
 179      00
 180              		.section	.rodata.main.str1.4,"aMS",%progbits,1
 181              		.align	2
 182              	.LC1:
 183 0000 44656275 		.ascii	"Debug Via Serial Using UART2 \015\012\000"
 183      67205669 
 183      61205365 
 183      7269616C 
 183      20557369 
 184              	.LC2:
 185 0020 69203D20 		.ascii	"i = %d \015\012\000"
 185      2564200D 
 185      0A00
 186              		.section	.rodata.uart2_cfg,"a",%progbits
 187              		.align	2
 188              		.set	.LANCHOR0,. + 0
 189              		.type	uart2_cfg, %object
 190              		.size	uart2_cfg, 12
 191              	uart2_cfg:
 192 0000 00C20100 		.word	115200
 193 0004 03000000 		.word	3
 194 0008 00000000 		.word	0
 195              		.text
 196              	.Letext0:
 197              		.file 2 "/usr/lib/gcc/arm-none-eabi/6.3.1/include/stddef.h"
 198              		.file 3 "/usr/include/newlib/machine/_default_types.h"
 199              		.file 4 "/usr/include/newlib/sys/_stdint.h"
 200              		.file 5 "../../os/ports/GCC/ARMCMx/chtypes.h"
 201              		.file 6 "../../os/kernel/include/chlists.h"
 202              		.file 7 "../../os/kernel/include/chthreads.h"
 203              		.file 8 "../../os/ports/GCC/ARMCMx/chcore_v7m.h"
 204              		.file 9 "../../os/kernel/include/chvt.h"
 205              		.file 10 "../../os/kernel/include/chschd.h"
 206              		.file 11 "../../os/kernel/include/chmtx.h"
 207              		.file 12 "../../os/kernel/include/chevents.h"
 208              		.file 13 "../../os/kernel/include/chregistry.h"
 209              		.file 14 "../../os/kernel/include/chqueues.h"
 210              		.file 15 "../../os/kernel/include/chstreams.h"
 211              		.file 16 "../../os/kernel/include/ch.h"
 212              		.file 17 "../../os/ports/common/ARMCMx/CMSIS/include/core_cm3.h"
 213              		.file 18 "../../os/hal/platforms/LPC17xx/system_LPC17xx.h"
 214              		.file 19 "../../os/hal/platforms/LPC17xx/LPC17xx.h"
 215              		.file 20 "../../os/hal/platforms/LPC17xx/lpc17xx_dma.h"
 216              		.file 21 "../../os/hal/platforms/LPC17xx/pal_lld.h"
ARM GAS  /tmp/cc3CDeUi.s 			page 5


 217              		.file 22 "../../os/hal/include/gpt.h"
 218              		.file 23 "../../os/hal/platforms/LPC17xx/gpt_lld.h"
 219              		.file 24 "../../os/hal/include/serial.h"
 220              		.file 25 "../../os/hal/platforms/LPC17xx/serial_lld.h"
 221              		.file 26 "/usr/include/newlib/sys/lock.h"
 222              		.file 27 "/usr/include/newlib/sys/_types.h"
 223              		.file 28 "/usr/include/newlib/sys/reent.h"
 224              		.file 29 "/usr/include/newlib/stdlib.h"
 225              		.file 30 "../../os/hal/include/hal.h"
 226              		.file 31 "../../os/kernel/include/chsys.h"
 227              		.file 32 "../../os/various/chprintf.h"