ARM GAS  /tmp/ccxlM041.s 			page 1


   1              		.cpu cortex-m3
   2              		.eabi_attribute 20, 1
   3              		.eabi_attribute 21, 1
   4              		.eabi_attribute 23, 3
   5              		.eabi_attribute 24, 1
   6              		.eabi_attribute 25, 1
   7              		.eabi_attribute 26, 1
   8              		.eabi_attribute 30, 2
   9              		.eabi_attribute 34, 1
  10              		.eabi_attribute 18, 4
  11              		.file	"pal.c"
  12              		.text
  13              	.Ltext0:
  14              		.cfi_sections	.debug_frame
  15              		.section	.text.palReadBus,"ax",%progbits
  16              		.align	1
  17              		.p2align 2,,3
  18              		.global	palReadBus
  19              		.syntax unified
  20              		.thumb
  21              		.thumb_func
  22              		.fpu softvfp
  23              		.type	palReadBus, %function
  24              	palReadBus:
  25              	.LFB63:
  26              		.file 1 "../../os/hal/src/pal.c"
  27              		.loc 1 70 0
  28              		.cfi_startproc
  29              		@ args = 0, pretend = 0, frame = 0
  30              		@ frame_needed = 0, uses_anonymous_args = 0
  31              		@ link register save eliminated.
  32              	.LVL0:
  33              		.loc 1 75 0
  34 0000 07C8     		ldm	r0, {r0, r1, r2}
  35              	.LVL1:
  36 0002 FFF7FEBF 		b	_pal_lld_readgroup
  37              	.LVL2:
  38              		.cfi_endproc
  39              	.LFE63:
  40              		.size	palReadBus, .-palReadBus
  41 0006 00BF     		.section	.text.palWriteBus,"ax",%progbits
  42              		.align	1
  43              		.p2align 2,,3
  44              		.global	palWriteBus
  45              		.syntax unified
  46              		.thumb
  47              		.thumb_func
  48              		.fpu softvfp
  49              		.type	palWriteBus, %function
  50              	palWriteBus:
  51              	.LFB64:
  52              		.loc 1 96 0
  53              		.cfi_startproc
  54              		@ args = 0, pretend = 0, frame = 0
  55              		@ frame_needed = 0, uses_anonymous_args = 0
  56              		@ link register save eliminated.
  57              	.LVL3:
ARM GAS  /tmp/ccxlM041.s 			page 2


  58              		.loc 1 101 0
  59 0000 0B46     		mov	r3, r1
  60 0002 07C8     		ldm	r0, {r0, r1, r2}
  61              	.LVL4:
  62 0004 FFF7FEBF 		b	_pal_lld_writegroup
  63              	.LVL5:
  64              		.cfi_endproc
  65              	.LFE64:
  66              		.size	palWriteBus, .-palWriteBus
  67              		.section	.text.palSetBusMode,"ax",%progbits
  68              		.align	1
  69              		.p2align 2,,3
  70              		.global	palSetBusMode
  71              		.syntax unified
  72              		.thumb
  73              		.thumb_func
  74              		.fpu softvfp
  75              		.type	palSetBusMode, %function
  76              	palSetBusMode:
  77              	.LFB65:
  78              		.loc 1 120 0
  79              		.cfi_startproc
  80              		@ args = 0, pretend = 0, frame = 0
  81              		@ frame_needed = 0, uses_anonymous_args = 0
  82              		@ link register save eliminated.
  83              	.LVL6:
  84 0000 10B4     		push	{r4}
  85              		.cfi_def_cfa_offset 4
  86              		.cfi_offset 4, -4
  87              		.loc 1 125 0
  88 0002 8368     		ldr	r3, [r0, #8]
  89 0004 4468     		ldr	r4, [r0, #4]
  90 0006 0A46     		mov	r2, r1
  91 0008 0068     		ldr	r0, [r0]
  92              	.LVL7:
  93 000a 04FA03F1 		lsl	r1, r4, r3
  94              	.LVL8:
  95              		.loc 1 126 0
  96 000e 10BC     		pop	{r4}
  97              		.cfi_restore 4
  98              		.cfi_def_cfa_offset 0
  99              		.loc 1 125 0
 100 0010 FFF7FEBF 		b	_pal_lld_setgroupmode
 101              	.LVL9:
 102              		.cfi_endproc
 103              	.LFE65:
 104              		.size	palSetBusMode, .-palSetBusMode
 105              		.text
 106              	.Letext0:
 107              		.file 2 "/usr/lib/gcc/arm-none-eabi/6.3.1/include/stddef.h"
 108              		.file 3 "/usr/include/newlib/machine/_default_types.h"
 109              		.file 4 "/usr/include/newlib/sys/_stdint.h"
 110              		.file 5 "/usr/include/newlib/stdint.h"
 111              		.file 6 "../../os/ports/GCC/ARMCMx/chtypes.h"
 112              		.file 7 "../../os/kernel/include/chlists.h"
 113              		.file 8 "../../os/kernel/include/chthreads.h"
 114              		.file 9 "../../os/ports/GCC/ARMCMx/chcore_v7m.h"
ARM GAS  /tmp/ccxlM041.s 			page 3


 115              		.file 10 "../../os/kernel/include/chvt.h"
 116              		.file 11 "../../os/kernel/include/chschd.h"
 117              		.file 12 "../../os/kernel/include/chmtx.h"
 118              		.file 13 "../../os/kernel/include/chevents.h"
 119              		.file 14 "../../os/kernel/include/chregistry.h"
 120              		.file 15 "../../os/kernel/include/chqueues.h"
 121              		.file 16 "../../os/kernel/include/ch.h"
 122              		.file 17 "../../os/ports/common/ARMCMx/CMSIS/include/core_cm3.h"
 123              		.file 18 "../../os/hal/platforms/LPC17xx/system_LPC17xx.h"
 124              		.file 19 "../../os/hal/platforms/LPC17xx/LPC17xx.h"
 125              		.file 20 "../../os/hal/platforms/LPC17xx/lpc17xx_dma.h"
 126              		.file 21 "../../os/hal/platforms/LPC17xx/pal_lld.h"
 127              		.file 22 "../../os/hal/include/pal.h"
 128              		.file 23 "../../os/hal/include/gpt.h"
 129              		.file 24 "../../os/hal/platforms/LPC17xx/gpt_lld.h"
 130              		.file 25 "../../os/hal/include/serial.h"
 131              		.file 26 "../../os/hal/platforms/LPC17xx/serial_lld.h"
 132              		.file 27 "../../os/hal/include/spi.h"
 133              		.file 28 "../../os/hal/platforms/LPC17xx/spi_lld.h"
 134              		.section	.debug_info,"",%progbits
 135              	.Ldebug_info0:
 136 0000 15140000 		.4byte	0x1415
 137 0004 0400     		.2byte	0x4
 138 0006 00000000 		.4byte	.Ldebug_abbrev0
 139 000a 04       		.byte	0x4
 140 000b 01       		.uleb128 0x1
 141 000c 54060000 		.4byte	.LASF255
 142 0010 0C       		.byte	0xc
 143 0011 28060000 		.4byte	.LASF256
 144 0015 6E070000 		.4byte	.LASF257
 145 0019 00000000 		.4byte	.Ldebug_ranges0+0
 146 001d 00000000 		.4byte	0
 147 0021 00000000 		.4byte	.Ldebug_line0
 148 0025 02       		.uleb128 0x2
 149 0026 04       		.byte	0x4
 150 0027 05       		.byte	0x5
 151 0028 696E7400 		.ascii	"int\000"
 152 002c 03       		.uleb128 0x3
 153 002d 00000000 		.4byte	.LASF4
 154 0031 02       		.byte	0x2
 155 0032 D8       		.byte	0xd8
 156 0033 37000000 		.4byte	0x37
 157 0037 04       		.uleb128 0x4
 158 0038 04       		.byte	0x4
 159 0039 07       		.byte	0x7
 160 003a 85050000 		.4byte	.LASF0
 161 003e 04       		.uleb128 0x4
 162 003f 08       		.byte	0x8
 163 0040 05       		.byte	0x5
 164 0041 F6040000 		.4byte	.LASF1
 165 0045 04       		.uleb128 0x4
 166 0046 08       		.byte	0x8
 167 0047 04       		.byte	0x4
 168 0048 4B070000 		.4byte	.LASF2
 169 004c 04       		.uleb128 0x4
 170 004d 01       		.byte	0x1
 171 004e 06       		.byte	0x6
ARM GAS  /tmp/ccxlM041.s 			page 4


 172 004f 30020000 		.4byte	.LASF3
 173 0053 03       		.uleb128 0x3
 174 0054 29010000 		.4byte	.LASF5
 175 0058 03       		.byte	0x3
 176 0059 1D       		.byte	0x1d
 177 005a 5E000000 		.4byte	0x5e
 178 005e 04       		.uleb128 0x4
 179 005f 01       		.byte	0x1
 180 0060 08       		.byte	0x8
 181 0061 82020000 		.4byte	.LASF6
 182 0065 04       		.uleb128 0x4
 183 0066 02       		.byte	0x2
 184 0067 05       		.byte	0x5
 185 0068 AC080000 		.4byte	.LASF7
 186 006c 03       		.uleb128 0x3
 187 006d FC020000 		.4byte	.LASF8
 188 0071 03       		.byte	0x3
 189 0072 2B       		.byte	0x2b
 190 0073 77000000 		.4byte	0x77
 191 0077 04       		.uleb128 0x4
 192 0078 02       		.byte	0x2
 193 0079 07       		.byte	0x7
 194 007a B5090000 		.4byte	.LASF9
 195 007e 03       		.uleb128 0x3
 196 007f 030A0000 		.4byte	.LASF10
 197 0083 03       		.byte	0x3
 198 0084 3F       		.byte	0x3f
 199 0085 89000000 		.4byte	0x89
 200 0089 04       		.uleb128 0x4
 201 008a 04       		.byte	0x4
 202 008b 05       		.byte	0x5
 203 008c 8A010000 		.4byte	.LASF11
 204 0090 03       		.uleb128 0x3
 205 0091 DB040000 		.4byte	.LASF12
 206 0095 03       		.byte	0x3
 207 0096 41       		.byte	0x41
 208 0097 9B000000 		.4byte	0x9b
 209 009b 04       		.uleb128 0x4
 210 009c 04       		.byte	0x4
 211 009d 07       		.byte	0x7
 212 009e EE030000 		.4byte	.LASF13
 213 00a2 03       		.uleb128 0x3
 214 00a3 E3030000 		.4byte	.LASF14
 215 00a7 03       		.byte	0x3
 216 00a8 5B       		.byte	0x5b
 217 00a9 AD000000 		.4byte	0xad
 218 00ad 04       		.uleb128 0x4
 219 00ae 08       		.byte	0x8
 220 00af 07       		.byte	0x7
 221 00b0 B4070000 		.4byte	.LASF15
 222 00b4 03       		.uleb128 0x3
 223 00b5 46020000 		.4byte	.LASF16
 224 00b9 04       		.byte	0x4
 225 00ba 18       		.byte	0x18
 226 00bb 53000000 		.4byte	0x53
 227 00bf 05       		.uleb128 0x5
 228 00c0 B4000000 		.4byte	0xb4
ARM GAS  /tmp/ccxlM041.s 			page 5


 229 00c4 06       		.uleb128 0x6
 230 00c5 B4000000 		.4byte	0xb4
 231 00c9 03       		.uleb128 0x3
 232 00ca D3070000 		.4byte	.LASF17
 233 00ce 04       		.byte	0x4
 234 00cf 24       		.byte	0x24
 235 00d0 6C000000 		.4byte	0x6c
 236 00d4 05       		.uleb128 0x5
 237 00d5 C9000000 		.4byte	0xc9
 238 00d9 03       		.uleb128 0x3
 239 00da 5C000000 		.4byte	.LASF18
 240 00de 04       		.byte	0x4
 241 00df 2C       		.byte	0x2c
 242 00e0 7E000000 		.4byte	0x7e
 243 00e4 05       		.uleb128 0x5
 244 00e5 D9000000 		.4byte	0xd9
 245 00e9 03       		.uleb128 0x3
 246 00ea 64090000 		.4byte	.LASF19
 247 00ee 04       		.byte	0x4
 248 00ef 30       		.byte	0x30
 249 00f0 90000000 		.4byte	0x90
 250 00f4 05       		.uleb128 0x5
 251 00f5 E9000000 		.4byte	0xe9
 252 00f9 06       		.uleb128 0x6
 253 00fa F4000000 		.4byte	0xf4
 254 00fe 03       		.uleb128 0x3
 255 00ff B6080000 		.4byte	.LASF20
 256 0103 04       		.byte	0x4
 257 0104 3C       		.byte	0x3c
 258 0105 A2000000 		.4byte	0xa2
 259 0109 03       		.uleb128 0x3
 260 010a 9F080000 		.4byte	.LASF21
 261 010e 05       		.byte	0x5
 262 010f 34       		.byte	0x34
 263 0110 37000000 		.4byte	0x37
 264 0114 04       		.uleb128 0x4
 265 0115 01       		.byte	0x1
 266 0116 02       		.byte	0x2
 267 0117 C9020000 		.4byte	.LASF22
 268 011b 03       		.uleb128 0x3
 269 011c 65080000 		.4byte	.LASF23
 270 0120 06       		.byte	0x6
 271 0121 25       		.byte	0x25
 272 0122 B4000000 		.4byte	0xb4
 273 0126 03       		.uleb128 0x3
 274 0127 EA010000 		.4byte	.LASF24
 275 012b 06       		.byte	0x6
 276 012c 26       		.byte	0x26
 277 012d B4000000 		.4byte	0xb4
 278 0131 03       		.uleb128 0x3
 279 0132 32090000 		.4byte	.LASF25
 280 0136 06       		.byte	0x6
 281 0137 27       		.byte	0x27
 282 0138 B4000000 		.4byte	0xb4
 283 013c 03       		.uleb128 0x3
 284 013d F6070000 		.4byte	.LASF26
 285 0141 06       		.byte	0x6
ARM GAS  /tmp/ccxlM041.s 			page 6


 286 0142 28       		.byte	0x28
 287 0143 B4000000 		.4byte	0xb4
 288 0147 03       		.uleb128 0x3
 289 0148 3A000000 		.4byte	.LASF27
 290 014c 06       		.byte	0x6
 291 014d 29       		.byte	0x29
 292 014e E9000000 		.4byte	0xe9
 293 0152 03       		.uleb128 0x3
 294 0153 DC070000 		.4byte	.LASF28
 295 0157 06       		.byte	0x6
 296 0158 2A       		.byte	0x2a
 297 0159 D9000000 		.4byte	0xd9
 298 015d 03       		.uleb128 0x3
 299 015e 5A020000 		.4byte	.LASF29
 300 0162 06       		.byte	0x6
 301 0163 2C       		.byte	0x2c
 302 0164 E9000000 		.4byte	0xe9
 303 0168 03       		.uleb128 0x3
 304 0169 FA060000 		.4byte	.LASF30
 305 016d 06       		.byte	0x6
 306 016e 2D       		.byte	0x2d
 307 016f E9000000 		.4byte	0xe9
 308 0173 03       		.uleb128 0x3
 309 0174 1C000000 		.4byte	.LASF31
 310 0178 06       		.byte	0x6
 311 0179 2E       		.byte	0x2e
 312 017a E9000000 		.4byte	0xe9
 313 017e 05       		.uleb128 0x5
 314 017f 73010000 		.4byte	0x173
 315 0183 03       		.uleb128 0x3
 316 0184 0E090000 		.4byte	.LASF32
 317 0188 07       		.byte	0x7
 318 0189 23       		.byte	0x23
 319 018a 8E010000 		.4byte	0x18e
 320 018e 07       		.uleb128 0x7
 321 018f 0E090000 		.4byte	.LASF32
 322 0193 48       		.byte	0x48
 323 0194 08       		.byte	0x8
 324 0195 57       		.byte	0x57
 325 0196 8B020000 		.4byte	0x28b
 326 019a 08       		.uleb128 0x8
 327 019b 9E010000 		.4byte	.LASF33
 328 019f 08       		.byte	0x8
 329 01a0 58       		.byte	0x58
 330 01a1 AC020000 		.4byte	0x2ac
 331 01a5 00       		.byte	0
 332 01a6 08       		.uleb128 0x8
 333 01a7 C0010000 		.4byte	.LASF34
 334 01ab 08       		.byte	0x8
 335 01ac 5A       		.byte	0x5a
 336 01ad AC020000 		.4byte	0x2ac
 337 01b1 04       		.byte	0x4
 338 01b2 08       		.uleb128 0x8
 339 01b3 F5020000 		.4byte	.LASF35
 340 01b7 08       		.byte	0x8
 341 01b8 5C       		.byte	0x5c
 342 01b9 47010000 		.4byte	0x147
ARM GAS  /tmp/ccxlM041.s 			page 7


 343 01bd 08       		.byte	0x8
 344 01be 08       		.uleb128 0x8
 345 01bf 34000000 		.4byte	.LASF36
 346 01c3 08       		.byte	0x8
 347 01c4 5D       		.byte	0x5d
 348 01c5 71030000 		.4byte	0x371
 349 01c9 0C       		.byte	0xc
 350 01ca 08       		.uleb128 0x8
 351 01cb 79010000 		.4byte	.LASF37
 352 01cf 08       		.byte	0x8
 353 01d0 5F       		.byte	0x5f
 354 01d1 AC020000 		.4byte	0x2ac
 355 01d5 10       		.byte	0x10
 356 01d6 08       		.uleb128 0x8
 357 01d7 CB070000 		.4byte	.LASF38
 358 01db 08       		.byte	0x8
 359 01dc 60       		.byte	0x60
 360 01dd AC020000 		.4byte	0x2ac
 361 01e1 14       		.byte	0x14
 362 01e2 08       		.uleb128 0x8
 363 01e3 3B0A0000 		.4byte	.LASF39
 364 01e7 08       		.byte	0x8
 365 01e8 67       		.byte	0x67
 366 01e9 AE050000 		.4byte	0x5ae
 367 01ed 18       		.byte	0x18
 368 01ee 08       		.uleb128 0x8
 369 01ef 760A0000 		.4byte	.LASF40
 370 01f3 08       		.byte	0x8
 371 01f4 72       		.byte	0x72
 372 01f5 26010000 		.4byte	0x126
 373 01f9 1C       		.byte	0x1c
 374 01fa 08       		.uleb128 0x8
 375 01fb 78050000 		.4byte	.LASF41
 376 01ff 08       		.byte	0x8
 377 0200 76       		.byte	0x76
 378 0201 1B010000 		.4byte	0x11b
 379 0205 1D       		.byte	0x1d
 380 0206 08       		.uleb128 0x8
 381 0207 03060000 		.4byte	.LASF42
 382 020b 08       		.byte	0x8
 383 020c 7B       		.byte	0x7b
 384 020d 31010000 		.4byte	0x131
 385 0211 1E       		.byte	0x1e
 386 0212 08       		.uleb128 0x8
 387 0213 3C020000 		.4byte	.LASF43
 388 0217 08       		.byte	0x8
 389 0218 81       		.byte	0x81
 390 0219 3C010000 		.4byte	0x13c
 391 021d 1F       		.byte	0x1f
 392 021e 08       		.uleb128 0x8
 393 021f 06070000 		.4byte	.LASF44
 394 0223 08       		.byte	0x8
 395 0224 88       		.byte	0x88
 396 0225 7E010000 		.4byte	0x17e
 397 0229 20       		.byte	0x20
 398 022a 09       		.uleb128 0x9
 399 022b 705F7500 		.ascii	"p_u\000"
ARM GAS  /tmp/ccxlM041.s 			page 8


 400 022f 08       		.byte	0x8
 401 0230 AD       		.byte	0xad
 402 0231 79050000 		.4byte	0x579
 403 0235 24       		.byte	0x24
 404 0236 08       		.uleb128 0x8
 405 0237 68050000 		.4byte	.LASF45
 406 023b 08       		.byte	0x8
 407 023c B2       		.byte	0xb2
 408 023d D2020000 		.4byte	0x2d2
 409 0241 28       		.byte	0x28
 410 0242 08       		.uleb128 0x8
 411 0243 4B000000 		.4byte	.LASF46
 412 0247 08       		.byte	0x8
 413 0248 B8       		.byte	0xb8
 414 0249 B2020000 		.4byte	0x2b2
 415 024d 2C       		.byte	0x2c
 416 024e 08       		.uleb128 0x8
 417 024f 640A0000 		.4byte	.LASF47
 418 0253 08       		.byte	0x8
 419 0254 BC       		.byte	0xbc
 420 0255 52010000 		.4byte	0x152
 421 0259 34       		.byte	0x34
 422 025a 08       		.uleb128 0x8
 423 025b 9A030000 		.4byte	.LASF48
 424 025f 08       		.byte	0x8
 425 0260 C2       		.byte	0xc2
 426 0261 5D010000 		.4byte	0x15d
 427 0265 38       		.byte	0x38
 428 0266 08       		.uleb128 0x8
 429 0267 F3010000 		.4byte	.LASF49
 430 026b 08       		.byte	0x8
 431 026c C9       		.byte	0xc9
 432 026d C0050000 		.4byte	0x5c0
 433 0271 3C       		.byte	0x3c
 434 0272 08       		.uleb128 0x8
 435 0273 57070000 		.4byte	.LASF50
 436 0277 08       		.byte	0x8
 437 0278 CD       		.byte	0xcd
 438 0279 47010000 		.4byte	0x147
 439 027d 40       		.byte	0x40
 440 027e 08       		.uleb128 0x8
 441 027f DB050000 		.4byte	.LASF51
 442 0283 08       		.byte	0x8
 443 0284 D3       		.byte	0xd3
 444 0285 E8020000 		.4byte	0x2e8
 445 0289 44       		.byte	0x44
 446 028a 00       		.byte	0
 447 028b 0A       		.uleb128 0xa
 448 028c 08       		.byte	0x8
 449 028d 07       		.byte	0x7
 450 028e 5A       		.byte	0x5a
 451 028f AC020000 		.4byte	0x2ac
 452 0293 08       		.uleb128 0x8
 453 0294 9E010000 		.4byte	.LASF33
 454 0298 07       		.byte	0x7
 455 0299 5B       		.byte	0x5b
 456 029a AC020000 		.4byte	0x2ac
ARM GAS  /tmp/ccxlM041.s 			page 9


 457 029e 00       		.byte	0
 458 029f 08       		.uleb128 0x8
 459 02a0 C0010000 		.4byte	.LASF34
 460 02a4 07       		.byte	0x7
 461 02a5 5D       		.byte	0x5d
 462 02a6 AC020000 		.4byte	0x2ac
 463 02aa 04       		.byte	0x4
 464 02ab 00       		.byte	0
 465 02ac 0B       		.uleb128 0xb
 466 02ad 04       		.byte	0x4
 467 02ae 83010000 		.4byte	0x183
 468 02b2 03       		.uleb128 0x3
 469 02b3 7A090000 		.4byte	.LASF52
 470 02b7 07       		.byte	0x7
 471 02b8 5F       		.byte	0x5f
 472 02b9 8B020000 		.4byte	0x28b
 473 02bd 0A       		.uleb128 0xa
 474 02be 04       		.byte	0x4
 475 02bf 07       		.byte	0x7
 476 02c0 64       		.byte	0x64
 477 02c1 D2020000 		.4byte	0x2d2
 478 02c5 08       		.uleb128 0x8
 479 02c6 9E010000 		.4byte	.LASF33
 480 02ca 07       		.byte	0x7
 481 02cb 66       		.byte	0x66
 482 02cc AC020000 		.4byte	0x2ac
 483 02d0 00       		.byte	0
 484 02d1 00       		.byte	0
 485 02d2 03       		.uleb128 0x3
 486 02d3 E7060000 		.4byte	.LASF53
 487 02d7 07       		.byte	0x7
 488 02d8 69       		.byte	0x69
 489 02d9 BD020000 		.4byte	0x2bd
 490 02dd 03       		.uleb128 0x3
 491 02de 04020000 		.4byte	.LASF54
 492 02e2 09       		.byte	0x9
 493 02e3 DE       		.byte	0xde
 494 02e4 E8020000 		.4byte	0x2e8
 495 02e8 0C       		.uleb128 0xc
 496 02e9 04       		.byte	0x4
 497 02ea 03       		.uleb128 0x3
 498 02eb 2D030000 		.4byte	.LASF55
 499 02ef 09       		.byte	0x9
 500 02f0 E4       		.byte	0xe4
 501 02f1 FE000000 		.4byte	0xfe
 502 02f5 0D       		.uleb128 0xd
 503 02f6 93030000 		.4byte	.LASF56
 504 02fa 24       		.byte	0x24
 505 02fb 09       		.byte	0x9
 506 02fc 0501     		.2byte	0x105
 507 02fe 71030000 		.4byte	0x371
 508 0302 0E       		.uleb128 0xe
 509 0303 723400   		.ascii	"r4\000"
 510 0306 09       		.byte	0x9
 511 0307 1801     		.2byte	0x118
 512 0309 DD020000 		.4byte	0x2dd
 513 030d 00       		.byte	0
ARM GAS  /tmp/ccxlM041.s 			page 10


 514 030e 0E       		.uleb128 0xe
 515 030f 723500   		.ascii	"r5\000"
 516 0312 09       		.byte	0x9
 517 0313 1901     		.2byte	0x119
 518 0315 DD020000 		.4byte	0x2dd
 519 0319 04       		.byte	0x4
 520 031a 0E       		.uleb128 0xe
 521 031b 723600   		.ascii	"r6\000"
 522 031e 09       		.byte	0x9
 523 031f 1A01     		.2byte	0x11a
 524 0321 DD020000 		.4byte	0x2dd
 525 0325 08       		.byte	0x8
 526 0326 0E       		.uleb128 0xe
 527 0327 723700   		.ascii	"r7\000"
 528 032a 09       		.byte	0x9
 529 032b 1B01     		.2byte	0x11b
 530 032d DD020000 		.4byte	0x2dd
 531 0331 0C       		.byte	0xc
 532 0332 0E       		.uleb128 0xe
 533 0333 723800   		.ascii	"r8\000"
 534 0336 09       		.byte	0x9
 535 0337 1C01     		.2byte	0x11c
 536 0339 DD020000 		.4byte	0x2dd
 537 033d 10       		.byte	0x10
 538 033e 0E       		.uleb128 0xe
 539 033f 723900   		.ascii	"r9\000"
 540 0342 09       		.byte	0x9
 541 0343 1D01     		.2byte	0x11d
 542 0345 DD020000 		.4byte	0x2dd
 543 0349 14       		.byte	0x14
 544 034a 0E       		.uleb128 0xe
 545 034b 72313000 		.ascii	"r10\000"
 546 034f 09       		.byte	0x9
 547 0350 1E01     		.2byte	0x11e
 548 0352 DD020000 		.4byte	0x2dd
 549 0356 18       		.byte	0x18
 550 0357 0E       		.uleb128 0xe
 551 0358 72313100 		.ascii	"r11\000"
 552 035c 09       		.byte	0x9
 553 035d 1F01     		.2byte	0x11f
 554 035f DD020000 		.4byte	0x2dd
 555 0363 1C       		.byte	0x1c
 556 0364 0E       		.uleb128 0xe
 557 0365 6C7200   		.ascii	"lr\000"
 558 0368 09       		.byte	0x9
 559 0369 2001     		.2byte	0x120
 560 036b DD020000 		.4byte	0x2dd
 561 036f 20       		.byte	0x20
 562 0370 00       		.byte	0
 563 0371 0D       		.uleb128 0xd
 564 0372 66020000 		.4byte	.LASF57
 565 0376 04       		.byte	0x4
 566 0377 09       		.byte	0x9
 567 0378 2A01     		.2byte	0x12a
 568 037a 8C030000 		.4byte	0x38c
 569 037e 0E       		.uleb128 0xe
 570 037f 72313300 		.ascii	"r13\000"
ARM GAS  /tmp/ccxlM041.s 			page 11


 571 0383 09       		.byte	0x9
 572 0384 2B01     		.2byte	0x12b
 573 0386 8C030000 		.4byte	0x38c
 574 038a 00       		.byte	0
 575 038b 00       		.byte	0
 576 038c 0B       		.uleb128 0xb
 577 038d 04       		.byte	0x4
 578 038e F5020000 		.4byte	0x2f5
 579 0392 04       		.uleb128 0x4
 580 0393 04       		.byte	0x4
 581 0394 07       		.byte	0x7
 582 0395 07000000 		.4byte	.LASF58
 583 0399 03       		.uleb128 0x3
 584 039a 76000000 		.4byte	.LASF59
 585 039e 0A       		.byte	0xa
 586 039f 51       		.byte	0x51
 587 03a0 A4030000 		.4byte	0x3a4
 588 03a4 0B       		.uleb128 0xb
 589 03a5 04       		.byte	0x4
 590 03a6 AA030000 		.4byte	0x3aa
 591 03aa 0F       		.uleb128 0xf
 592 03ab B5030000 		.4byte	0x3b5
 593 03af 10       		.uleb128 0x10
 594 03b0 E8020000 		.4byte	0x2e8
 595 03b4 00       		.byte	0
 596 03b5 03       		.uleb128 0x3
 597 03b6 6D090000 		.4byte	.LASF60
 598 03ba 0A       		.byte	0xa
 599 03bb 56       		.byte	0x56
 600 03bc C0030000 		.4byte	0x3c0
 601 03c0 07       		.uleb128 0x7
 602 03c1 6D090000 		.4byte	.LASF60
 603 03c5 14       		.byte	0x14
 604 03c6 0A       		.byte	0xa
 605 03c7 5D       		.byte	0x5d
 606 03c8 09040000 		.4byte	0x409
 607 03cc 08       		.uleb128 0x8
 608 03cd 21050000 		.4byte	.LASF61
 609 03d1 0A       		.byte	0xa
 610 03d2 5E       		.byte	0x5e
 611 03d3 09040000 		.4byte	0x409
 612 03d7 00       		.byte	0
 613 03d8 08       		.uleb128 0x8
 614 03d9 AF020000 		.4byte	.LASF62
 615 03dd 0A       		.byte	0xa
 616 03de 60       		.byte	0x60
 617 03df 09040000 		.4byte	0x409
 618 03e3 04       		.byte	0x4
 619 03e4 08       		.uleb128 0x8
 620 03e5 420A0000 		.4byte	.LASF63
 621 03e9 0A       		.byte	0xa
 622 03ea 62       		.byte	0x62
 623 03eb 73010000 		.4byte	0x173
 624 03ef 08       		.byte	0x8
 625 03f0 08       		.uleb128 0x8
 626 03f1 85030000 		.4byte	.LASF64
 627 03f5 0A       		.byte	0xa
ARM GAS  /tmp/ccxlM041.s 			page 12


 628 03f6 63       		.byte	0x63
 629 03f7 99030000 		.4byte	0x399
 630 03fb 0C       		.byte	0xc
 631 03fc 08       		.uleb128 0x8
 632 03fd 12010000 		.4byte	.LASF65
 633 0401 0A       		.byte	0xa
 634 0402 65       		.byte	0x65
 635 0403 E8020000 		.4byte	0x2e8
 636 0407 10       		.byte	0x10
 637 0408 00       		.byte	0
 638 0409 0B       		.uleb128 0xb
 639 040a 04       		.byte	0x4
 640 040b B5030000 		.4byte	0x3b5
 641 040f 0A       		.uleb128 0xa
 642 0410 10       		.byte	0x10
 643 0411 0A       		.byte	0xa
 644 0412 6F       		.byte	0x6f
 645 0413 48040000 		.4byte	0x448
 646 0417 08       		.uleb128 0x8
 647 0418 21050000 		.4byte	.LASF61
 648 041c 0A       		.byte	0xa
 649 041d 70       		.byte	0x70
 650 041e 09040000 		.4byte	0x409
 651 0422 00       		.byte	0
 652 0423 08       		.uleb128 0x8
 653 0424 AF020000 		.4byte	.LASF62
 654 0428 0A       		.byte	0xa
 655 0429 72       		.byte	0x72
 656 042a 09040000 		.4byte	0x409
 657 042e 04       		.byte	0x4
 658 042f 08       		.uleb128 0x8
 659 0430 420A0000 		.4byte	.LASF63
 660 0434 0A       		.byte	0xa
 661 0435 74       		.byte	0x74
 662 0436 73010000 		.4byte	0x173
 663 043a 08       		.byte	0x8
 664 043b 08       		.uleb128 0x8
 665 043c 7C080000 		.4byte	.LASF66
 666 0440 0A       		.byte	0xa
 667 0441 75       		.byte	0x75
 668 0442 7E010000 		.4byte	0x17e
 669 0446 0C       		.byte	0xc
 670 0447 00       		.byte	0
 671 0448 03       		.uleb128 0x3
 672 0449 23080000 		.4byte	.LASF67
 673 044d 0A       		.byte	0xa
 674 044e 76       		.byte	0x76
 675 044f 0F040000 		.4byte	0x40f
 676 0453 11       		.uleb128 0x11
 677 0454 15090000 		.4byte	.LASF75
 678 0458 0A       		.byte	0xa
 679 0459 EE       		.byte	0xee
 680 045a 48040000 		.4byte	0x448
 681 045e 0A       		.uleb128 0xa
 682 045f 1C       		.byte	0x1c
 683 0460 0B       		.byte	0xb
 684 0461 57       		.byte	0x57
ARM GAS  /tmp/ccxlM041.s 			page 13


 685 0462 AF040000 		.4byte	0x4af
 686 0466 08       		.uleb128 0x8
 687 0467 40080000 		.4byte	.LASF68
 688 046b 0B       		.byte	0xb
 689 046c 58       		.byte	0x58
 690 046d B2020000 		.4byte	0x2b2
 691 0471 00       		.byte	0
 692 0472 08       		.uleb128 0x8
 693 0473 DB080000 		.4byte	.LASF69
 694 0477 0B       		.byte	0xb
 695 0478 59       		.byte	0x59
 696 0479 47010000 		.4byte	0x147
 697 047d 08       		.byte	0x8
 698 047e 08       		.uleb128 0x8
 699 047f 56000000 		.4byte	.LASF70
 700 0483 0B       		.byte	0xb
 701 0484 5B       		.byte	0x5b
 702 0485 71030000 		.4byte	0x371
 703 0489 0C       		.byte	0xc
 704 048a 08       		.uleb128 0x8
 705 048b B7020000 		.4byte	.LASF71
 706 048f 0B       		.byte	0xb
 707 0490 5E       		.byte	0x5e
 708 0491 AC020000 		.4byte	0x2ac
 709 0495 10       		.byte	0x10
 710 0496 08       		.uleb128 0x8
 711 0497 90080000 		.4byte	.LASF72
 712 049b 0B       		.byte	0xb
 713 049c 5F       		.byte	0x5f
 714 049d AC020000 		.4byte	0x2ac
 715 04a1 14       		.byte	0x14
 716 04a2 08       		.uleb128 0x8
 717 04a3 19080000 		.4byte	.LASF73
 718 04a7 0B       		.byte	0xb
 719 04a8 62       		.byte	0x62
 720 04a9 AC020000 		.4byte	0x2ac
 721 04ad 18       		.byte	0x18
 722 04ae 00       		.byte	0
 723 04af 03       		.uleb128 0x3
 724 04b0 1D0A0000 		.4byte	.LASF74
 725 04b4 0B       		.byte	0xb
 726 04b5 64       		.byte	0x64
 727 04b6 5E040000 		.4byte	0x45e
 728 04ba 11       		.uleb128 0x11
 729 04bb 5F080000 		.4byte	.LASF76
 730 04bf 0B       		.byte	0xb
 731 04c0 68       		.byte	0x68
 732 04c1 AF040000 		.4byte	0x4af
 733 04c5 07       		.uleb128 0x7
 734 04c6 E6040000 		.4byte	.LASF77
 735 04ca 10       		.byte	0x10
 736 04cb 0C       		.byte	0xc
 737 04cc 25       		.byte	0x25
 738 04cd F6040000 		.4byte	0x4f6
 739 04d1 08       		.uleb128 0x8
 740 04d2 0F050000 		.4byte	.LASF78
 741 04d6 0C       		.byte	0xc
ARM GAS  /tmp/ccxlM041.s 			page 14


 742 04d7 26       		.byte	0x26
 743 04d8 B2020000 		.4byte	0x2b2
 744 04dc 00       		.byte	0
 745 04dd 08       		.uleb128 0x8
 746 04de 0A010000 		.4byte	.LASF79
 747 04e2 0C       		.byte	0xc
 748 04e3 28       		.byte	0x28
 749 04e4 AC020000 		.4byte	0x2ac
 750 04e8 08       		.byte	0x8
 751 04e9 08       		.uleb128 0x8
 752 04ea 4F0A0000 		.4byte	.LASF80
 753 04ee 0C       		.byte	0xc
 754 04ef 2A       		.byte	0x2a
 755 04f0 F6040000 		.4byte	0x4f6
 756 04f4 0C       		.byte	0xc
 757 04f5 00       		.byte	0
 758 04f6 0B       		.uleb128 0xb
 759 04f7 04       		.byte	0x4
 760 04f8 C5040000 		.4byte	0x4c5
 761 04fc 03       		.uleb128 0x3
 762 04fd E6040000 		.4byte	.LASF77
 763 0501 0C       		.byte	0xc
 764 0502 2C       		.byte	0x2c
 765 0503 C5040000 		.4byte	0x4c5
 766 0507 03       		.uleb128 0x3
 767 0508 4A090000 		.4byte	.LASF81
 768 050c 0D       		.byte	0xd
 769 050d 25       		.byte	0x25
 770 050e 12050000 		.4byte	0x512
 771 0512 07       		.uleb128 0x7
 772 0513 4A090000 		.4byte	.LASF81
 773 0517 10       		.byte	0x10
 774 0518 0D       		.byte	0xd
 775 0519 2A       		.byte	0x2a
 776 051a 4F050000 		.4byte	0x54f
 777 051e 08       		.uleb128 0x8
 778 051f 3B040000 		.4byte	.LASF82
 779 0523 0D       		.byte	0xd
 780 0524 2B       		.byte	0x2b
 781 0525 4F050000 		.4byte	0x54f
 782 0529 00       		.byte	0
 783 052a 08       		.uleb128 0x8
 784 052b 6A0A0000 		.4byte	.LASF83
 785 052f 0D       		.byte	0xd
 786 0530 2E       		.byte	0x2e
 787 0531 AC020000 		.4byte	0x2ac
 788 0535 04       		.byte	0x4
 789 0536 08       		.uleb128 0x8
 790 0537 150A0000 		.4byte	.LASF84
 791 053b 0D       		.byte	0xd
 792 053c 30       		.byte	0x30
 793 053d 5D010000 		.4byte	0x15d
 794 0541 08       		.byte	0x8
 795 0542 08       		.uleb128 0x8
 796 0543 A5000000 		.4byte	.LASF85
 797 0547 0D       		.byte	0xd
 798 0548 33       		.byte	0x33
ARM GAS  /tmp/ccxlM041.s 			page 15


 799 0549 68010000 		.4byte	0x168
 800 054d 0C       		.byte	0xc
 801 054e 00       		.byte	0
 802 054f 0B       		.uleb128 0xb
 803 0550 04       		.byte	0x4
 804 0551 07050000 		.4byte	0x507
 805 0555 07       		.uleb128 0x7
 806 0556 D7030000 		.4byte	.LASF86
 807 055a 04       		.byte	0x4
 808 055b 0D       		.byte	0xd
 809 055c 3A       		.byte	0x3a
 810 055d 6E050000 		.4byte	0x56e
 811 0561 08       		.uleb128 0x8
 812 0562 A5030000 		.4byte	.LASF87
 813 0566 0D       		.byte	0xd
 814 0567 3B       		.byte	0x3b
 815 0568 4F050000 		.4byte	0x54f
 816 056c 00       		.byte	0
 817 056d 00       		.byte	0
 818 056e 03       		.uleb128 0x3
 819 056f D7030000 		.4byte	.LASF86
 820 0573 0D       		.byte	0xd
 821 0574 3E       		.byte	0x3e
 822 0575 55050000 		.4byte	0x555
 823 0579 12       		.uleb128 0x12
 824 057a 04       		.byte	0x4
 825 057b 08       		.byte	0x8
 826 057c 8F       		.byte	0x8f
 827 057d AE050000 		.4byte	0x5ae
 828 0581 13       		.uleb128 0x13
 829 0582 A5090000 		.4byte	.LASF88
 830 0586 08       		.byte	0x8
 831 0587 96       		.byte	0x96
 832 0588 52010000 		.4byte	0x152
 833 058c 13       		.uleb128 0x13
 834 058d 20010000 		.4byte	.LASF89
 835 0591 08       		.byte	0x8
 836 0592 9D       		.byte	0x9d
 837 0593 52010000 		.4byte	0x152
 838 0597 13       		.uleb128 0x13
 839 0598 14030000 		.4byte	.LASF90
 840 059c 08       		.byte	0x8
 841 059d A4       		.byte	0xa4
 842 059e E8020000 		.4byte	0x2e8
 843 05a2 13       		.uleb128 0x13
 844 05a3 43010000 		.4byte	.LASF91
 845 05a7 08       		.byte	0x8
 846 05a8 AB       		.byte	0xab
 847 05a9 5D010000 		.4byte	0x15d
 848 05ad 00       		.byte	0
 849 05ae 0B       		.uleb128 0xb
 850 05af 04       		.byte	0x4
 851 05b0 BB050000 		.4byte	0x5bb
 852 05b4 04       		.uleb128 0x4
 853 05b5 01       		.byte	0x1
 854 05b6 08       		.byte	0x8
 855 05b7 DF020000 		.4byte	.LASF92
ARM GAS  /tmp/ccxlM041.s 			page 16


 856 05bb 06       		.uleb128 0x6
 857 05bc B4050000 		.4byte	0x5b4
 858 05c0 0B       		.uleb128 0xb
 859 05c1 04       		.byte	0x4
 860 05c2 FC040000 		.4byte	0x4fc
 861 05c6 0B       		.uleb128 0xb
 862 05c7 04       		.byte	0x4
 863 05c8 CC050000 		.4byte	0x5cc
 864 05cc 14       		.uleb128 0x14
 865 05cd 52010000 		.4byte	0x152
 866 05d1 DB050000 		.4byte	0x5db
 867 05d5 10       		.uleb128 0x10
 868 05d6 E8020000 		.4byte	0x2e8
 869 05da 00       		.byte	0
 870 05db 0A       		.uleb128 0xa
 871 05dc 16       		.byte	0x16
 872 05dd 0E       		.byte	0xe
 873 05de 25       		.byte	0x25
 874 05df BC060000 		.4byte	0x6bc
 875 05e3 08       		.uleb128 0x8
 876 05e4 26000000 		.4byte	.LASF93
 877 05e8 0E       		.byte	0xe
 878 05e9 26       		.byte	0x26
 879 05ea BC060000 		.4byte	0x6bc
 880 05ee 00       		.byte	0
 881 05ef 08       		.uleb128 0x8
 882 05f0 00040000 		.4byte	.LASF94
 883 05f4 0E       		.byte	0xe
 884 05f5 27       		.byte	0x27
 885 05f6 B4000000 		.4byte	0xb4
 886 05fa 04       		.byte	0x4
 887 05fb 08       		.uleb128 0x8
 888 05fc E8090000 		.4byte	.LASF95
 889 0600 0E       		.byte	0xe
 890 0601 28       		.byte	0x28
 891 0602 B4000000 		.4byte	0xb4
 892 0606 05       		.byte	0x5
 893 0607 08       		.uleb128 0x8
 894 0608 04050000 		.4byte	.LASF96
 895 060c 0E       		.byte	0xe
 896 060d 29       		.byte	0x29
 897 060e C9000000 		.4byte	0xc9
 898 0612 06       		.byte	0x6
 899 0613 08       		.uleb128 0x8
 900 0614 D7000000 		.4byte	.LASF97
 901 0618 0E       		.byte	0xe
 902 0619 2A       		.byte	0x2a
 903 061a B4000000 		.4byte	0xb4
 904 061e 08       		.byte	0x8
 905 061f 08       		.uleb128 0x8
 906 0620 1C060000 		.4byte	.LASF98
 907 0624 0E       		.byte	0xe
 908 0625 2B       		.byte	0x2b
 909 0626 B4000000 		.4byte	0xb4
 910 062a 09       		.byte	0x9
 911 062b 08       		.uleb128 0x8
 912 062c 4A010000 		.4byte	.LASF99
ARM GAS  /tmp/ccxlM041.s 			page 17


 913 0630 0E       		.byte	0xe
 914 0631 2C       		.byte	0x2c
 915 0632 B4000000 		.4byte	0xb4
 916 0636 0A       		.byte	0xa
 917 0637 08       		.uleb128 0x8
 918 0638 6C030000 		.4byte	.LASF100
 919 063c 0E       		.byte	0xe
 920 063d 2D       		.byte	0x2d
 921 063e B4000000 		.4byte	0xb4
 922 0642 0B       		.byte	0xb
 923 0643 08       		.uleb128 0x8
 924 0644 6B000000 		.4byte	.LASF101
 925 0648 0E       		.byte	0xe
 926 0649 2E       		.byte	0x2e
 927 064a B4000000 		.4byte	0xb4
 928 064e 0C       		.byte	0xc
 929 064f 08       		.uleb128 0x8
 930 0650 1B030000 		.4byte	.LASF102
 931 0654 0E       		.byte	0xe
 932 0655 2F       		.byte	0x2f
 933 0656 B4000000 		.4byte	0xb4
 934 065a 0D       		.byte	0xd
 935 065b 08       		.uleb128 0x8
 936 065c F7080000 		.4byte	.LASF103
 937 0660 0E       		.byte	0xe
 938 0661 30       		.byte	0x30
 939 0662 B4000000 		.4byte	0xb4
 940 0666 0E       		.byte	0xe
 941 0667 08       		.uleb128 0x8
 942 0668 10000000 		.4byte	.LASF104
 943 066c 0E       		.byte	0xe
 944 066d 31       		.byte	0x31
 945 066e B4000000 		.4byte	0xb4
 946 0672 0F       		.byte	0xf
 947 0673 08       		.uleb128 0x8
 948 0674 92050000 		.4byte	.LASF105
 949 0678 0E       		.byte	0xe
 950 0679 32       		.byte	0x32
 951 067a B4000000 		.4byte	0xb4
 952 067e 10       		.byte	0x10
 953 067f 08       		.uleb128 0x8
 954 0680 B3010000 		.4byte	.LASF106
 955 0684 0E       		.byte	0xe
 956 0685 34       		.byte	0x34
 957 0686 B4000000 		.4byte	0xb4
 958 068a 11       		.byte	0x11
 959 068b 08       		.uleb128 0x8
 960 068c E9070000 		.4byte	.LASF107
 961 0690 0E       		.byte	0xe
 962 0691 35       		.byte	0x35
 963 0692 B4000000 		.4byte	0xb4
 964 0696 12       		.byte	0x12
 965 0697 08       		.uleb128 0x8
 966 0698 14070000 		.4byte	.LASF108
 967 069c 0E       		.byte	0xe
 968 069d 36       		.byte	0x36
 969 069e B4000000 		.4byte	0xb4
ARM GAS  /tmp/ccxlM041.s 			page 18


 970 06a2 13       		.byte	0x13
 971 06a3 08       		.uleb128 0x8
 972 06a4 BC040000 		.4byte	.LASF109
 973 06a8 0E       		.byte	0xe
 974 06a9 37       		.byte	0x37
 975 06aa B4000000 		.4byte	0xb4
 976 06ae 14       		.byte	0x14
 977 06af 08       		.uleb128 0x8
 978 06b0 62070000 		.4byte	.LASF110
 979 06b4 0E       		.byte	0xe
 980 06b5 39       		.byte	0x39
 981 06b6 B4000000 		.4byte	0xb4
 982 06ba 15       		.byte	0x15
 983 06bb 00       		.byte	0
 984 06bc 15       		.uleb128 0x15
 985 06bd B4050000 		.4byte	0x5b4
 986 06c1 CC060000 		.4byte	0x6cc
 987 06c5 16       		.uleb128 0x16
 988 06c6 92030000 		.4byte	0x392
 989 06ca 03       		.byte	0x3
 990 06cb 00       		.byte	0
 991 06cc 03       		.uleb128 0x3
 992 06cd C8090000 		.4byte	.LASF111
 993 06d1 0E       		.byte	0xe
 994 06d2 3A       		.byte	0x3a
 995 06d3 DB050000 		.4byte	0x5db
 996 06d7 06       		.uleb128 0x6
 997 06d8 CC060000 		.4byte	0x6cc
 998 06dc 11       		.uleb128 0x11
 999 06dd 42000000 		.4byte	.LASF112
 1000 06e1 0E       		.byte	0xe
 1001 06e2 77       		.byte	0x77
 1002 06e3 D7060000 		.4byte	0x6d7
 1003 06e7 03       		.uleb128 0x3
 1004 06e8 07030000 		.4byte	.LASF113
 1005 06ec 0F       		.byte	0xf
 1006 06ed 30       		.byte	0x30
 1007 06ee F2060000 		.4byte	0x6f2
 1008 06f2 07       		.uleb128 0x7
 1009 06f3 07030000 		.4byte	.LASF113
 1010 06f7 24       		.byte	0x24
 1011 06f8 0F       		.byte	0xf
 1012 06f9 3E       		.byte	0x3e
 1013 06fa 5F070000 		.4byte	0x75f
 1014 06fe 08       		.uleb128 0x8
 1015 06ff 55080000 		.4byte	.LASF114
 1016 0703 0F       		.byte	0xf
 1017 0704 3F       		.byte	0x3f
 1018 0705 B2020000 		.4byte	0x2b2
 1019 0709 00       		.byte	0
 1020 070a 08       		.uleb128 0x8
 1021 070b AD030000 		.4byte	.LASF115
 1022 070f 0F       		.byte	0xf
 1023 0710 40       		.byte	0x40
 1024 0711 2C000000 		.4byte	0x2c
 1025 0715 08       		.byte	0x8
 1026 0716 08       		.uleb128 0x8
ARM GAS  /tmp/ccxlM041.s 			page 19


 1027 0717 5E010000 		.4byte	.LASF116
 1028 071b 0F       		.byte	0xf
 1029 071c 41       		.byte	0x41
 1030 071d 81070000 		.4byte	0x781
 1031 0721 0C       		.byte	0xc
 1032 0722 08       		.uleb128 0x8
 1033 0723 33010000 		.4byte	.LASF117
 1034 0727 0F       		.byte	0xf
 1035 0728 42       		.byte	0x42
 1036 0729 81070000 		.4byte	0x781
 1037 072d 10       		.byte	0x10
 1038 072e 08       		.uleb128 0x8
 1039 072f 43040000 		.4byte	.LASF118
 1040 0733 0F       		.byte	0xf
 1041 0734 44       		.byte	0x44
 1042 0735 81070000 		.4byte	0x781
 1043 0739 14       		.byte	0x14
 1044 073a 08       		.uleb128 0x8
 1045 073b A5010000 		.4byte	.LASF119
 1046 073f 0F       		.byte	0xf
 1047 0740 45       		.byte	0x45
 1048 0741 81070000 		.4byte	0x781
 1049 0745 18       		.byte	0x18
 1050 0746 08       		.uleb128 0x8
 1051 0747 70010000 		.4byte	.LASF120
 1052 074b 0F       		.byte	0xf
 1053 074c 46       		.byte	0x46
 1054 074d 5F070000 		.4byte	0x75f
 1055 0751 1C       		.byte	0x1c
 1056 0752 08       		.uleb128 0x8
 1057 0753 9A020000 		.4byte	.LASF121
 1058 0757 0F       		.byte	0xf
 1059 0758 47       		.byte	0x47
 1060 0759 E8020000 		.4byte	0x2e8
 1061 075d 20       		.byte	0x20
 1062 075e 00       		.byte	0
 1063 075f 03       		.uleb128 0x3
 1064 0760 52050000 		.4byte	.LASF122
 1065 0764 0F       		.byte	0xf
 1066 0765 33       		.byte	0x33
 1067 0766 6A070000 		.4byte	0x76a
 1068 076a 0B       		.uleb128 0xb
 1069 076b 04       		.byte	0x4
 1070 076c 70070000 		.4byte	0x770
 1071 0770 0F       		.uleb128 0xf
 1072 0771 7B070000 		.4byte	0x77b
 1073 0775 10       		.uleb128 0x10
 1074 0776 7B070000 		.4byte	0x77b
 1075 077a 00       		.byte	0
 1076 077b 0B       		.uleb128 0xb
 1077 077c 04       		.byte	0x4
 1078 077d E7060000 		.4byte	0x6e7
 1079 0781 0B       		.uleb128 0xb
 1080 0782 04       		.byte	0x4
 1081 0783 B4000000 		.4byte	0xb4
 1082 0787 03       		.uleb128 0x3
 1083 0788 DD090000 		.4byte	.LASF123
ARM GAS  /tmp/ccxlM041.s 			page 20


 1084 078c 0F       		.byte	0xf
 1085 078d 7B       		.byte	0x7b
 1086 078e E7060000 		.4byte	0x6e7
 1087 0792 03       		.uleb128 0x3
 1088 0793 50030000 		.4byte	.LASF124
 1089 0797 0F       		.byte	0xf
 1090 0798 EE       		.byte	0xee
 1091 0799 E7060000 		.4byte	0x6e7
 1092 079d 14       		.uleb128 0x14
 1093 079e 2C000000 		.4byte	0x2c
 1094 07a2 B6070000 		.4byte	0x7b6
 1095 07a6 10       		.uleb128 0x10
 1096 07a7 E8020000 		.4byte	0x2e8
 1097 07ab 10       		.uleb128 0x10
 1098 07ac B6070000 		.4byte	0x7b6
 1099 07b0 10       		.uleb128 0x10
 1100 07b1 2C000000 		.4byte	0x2c
 1101 07b5 00       		.byte	0
 1102 07b6 0B       		.uleb128 0xb
 1103 07b7 04       		.byte	0x4
 1104 07b8 C4000000 		.4byte	0xc4
 1105 07bc 0B       		.uleb128 0xb
 1106 07bd 04       		.byte	0x4
 1107 07be 9D070000 		.4byte	0x79d
 1108 07c2 14       		.uleb128 0x14
 1109 07c3 2C000000 		.4byte	0x2c
 1110 07c7 DB070000 		.4byte	0x7db
 1111 07cb 10       		.uleb128 0x10
 1112 07cc E8020000 		.4byte	0x2e8
 1113 07d0 10       		.uleb128 0x10
 1114 07d1 81070000 		.4byte	0x781
 1115 07d5 10       		.uleb128 0x10
 1116 07d6 2C000000 		.4byte	0x2c
 1117 07da 00       		.byte	0
 1118 07db 0B       		.uleb128 0xb
 1119 07dc 04       		.byte	0x4
 1120 07dd C2070000 		.4byte	0x7c2
 1121 07e1 14       		.uleb128 0x14
 1122 07e2 52010000 		.4byte	0x152
 1123 07e6 F5070000 		.4byte	0x7f5
 1124 07ea 10       		.uleb128 0x10
 1125 07eb E8020000 		.4byte	0x2e8
 1126 07ef 10       		.uleb128 0x10
 1127 07f0 B4000000 		.4byte	0xb4
 1128 07f4 00       		.byte	0
 1129 07f5 0B       		.uleb128 0xb
 1130 07f6 04       		.byte	0x4
 1131 07f7 E1070000 		.4byte	0x7e1
 1132 07fb 15       		.uleb128 0x15
 1133 07fc EA020000 		.4byte	0x2ea
 1134 0800 0B080000 		.4byte	0x80b
 1135 0804 16       		.uleb128 0x16
 1136 0805 92030000 		.4byte	0x392
 1137 0809 17       		.byte	0x17
 1138 080a 00       		.byte	0
 1139 080b 11       		.uleb128 0x11
 1140 080c 3A090000 		.4byte	.LASF125
ARM GAS  /tmp/ccxlM041.s 			page 21


 1141 0810 10       		.byte	0x10
 1142 0811 82       		.byte	0x82
 1143 0812 FB070000 		.4byte	0x7fb
 1144 0816 15       		.uleb128 0x15
 1145 0817 E9000000 		.4byte	0xe9
 1146 081b 26080000 		.4byte	0x826
 1147 081f 16       		.uleb128 0x16
 1148 0820 92030000 		.4byte	0x392
 1149 0824 01       		.byte	0x1
 1150 0825 00       		.byte	0
 1151 0826 17       		.uleb128 0x17
 1152 0827 3B050000 		.4byte	.LASF126
 1153 082b 11       		.byte	0x11
 1154 082c 0706     		.2byte	0x607
 1155 082e E4000000 		.4byte	0xe4
 1156 0832 11       		.uleb128 0x11
 1157 0833 18040000 		.4byte	.LASF127
 1158 0837 12       		.byte	0x12
 1159 0838 23       		.byte	0x23
 1160 0839 E9000000 		.4byte	0xe9
 1161 083d 15       		.uleb128 0x15
 1162 083e E9000000 		.4byte	0xe9
 1163 0842 4D080000 		.4byte	0x84d
 1164 0846 16       		.uleb128 0x16
 1165 0847 92030000 		.4byte	0x392
 1166 084b 0B       		.byte	0xb
 1167 084c 00       		.byte	0
 1168 084d 0A       		.uleb128 0xa
 1169 084e 04       		.byte	0x4
 1170 084f 13       		.byte	0x13
 1171 0850 C7       		.byte	0xc7
 1172 0851 6E080000 		.4byte	0x86e
 1173 0855 08       		.uleb128 0x8
 1174 0856 D3040000 		.4byte	.LASF128
 1175 085a 13       		.byte	0x13
 1176 085b C8       		.byte	0xc8
 1177 085c D4000000 		.4byte	0xd4
 1178 0860 00       		.byte	0
 1179 0861 08       		.uleb128 0x8
 1180 0862 CB040000 		.4byte	.LASF129
 1181 0866 13       		.byte	0x13
 1182 0867 C9       		.byte	0xc9
 1183 0868 D4000000 		.4byte	0xd4
 1184 086c 02       		.byte	0x2
 1185 086d 00       		.byte	0
 1186 086e 0A       		.uleb128 0xa
 1187 086f 04       		.byte	0x4
 1188 0870 13       		.byte	0x13
 1189 0871 CB       		.byte	0xcb
 1190 0872 A7080000 		.4byte	0x8a7
 1191 0876 08       		.uleb128 0x8
 1192 0877 9C040000 		.4byte	.LASF130
 1193 087b 13       		.byte	0x13
 1194 087c CC       		.byte	0xcc
 1195 087d BF000000 		.4byte	0xbf
 1196 0881 00       		.byte	0
 1197 0882 08       		.uleb128 0x8
ARM GAS  /tmp/ccxlM041.s 			page 22


 1198 0883 A4040000 		.4byte	.LASF131
 1199 0887 13       		.byte	0x13
 1200 0888 CD       		.byte	0xcd
 1201 0889 BF000000 		.4byte	0xbf
 1202 088d 01       		.byte	0x1
 1203 088e 08       		.uleb128 0x8
 1204 088f AC040000 		.4byte	.LASF132
 1205 0893 13       		.byte	0x13
 1206 0894 CE       		.byte	0xce
 1207 0895 BF000000 		.4byte	0xbf
 1208 0899 02       		.byte	0x2
 1209 089a 08       		.uleb128 0x8
 1210 089b B4040000 		.4byte	.LASF133
 1211 089f 13       		.byte	0x13
 1212 08a0 CF       		.byte	0xcf
 1213 08a1 BF000000 		.4byte	0xbf
 1214 08a5 03       		.byte	0x3
 1215 08a6 00       		.byte	0
 1216 08a7 12       		.uleb128 0x12
 1217 08a8 04       		.byte	0x4
 1218 08a9 13       		.byte	0x13
 1219 08aa C5       		.byte	0xc5
 1220 08ab C5080000 		.4byte	0x8c5
 1221 08af 13       		.uleb128 0x13
 1222 08b0 0D070000 		.4byte	.LASF134
 1223 08b4 13       		.byte	0x13
 1224 08b5 C6       		.byte	0xc6
 1225 08b6 F4000000 		.4byte	0xf4
 1226 08ba 18       		.uleb128 0x18
 1227 08bb 4D080000 		.4byte	0x84d
 1228 08bf 18       		.uleb128 0x18
 1229 08c0 6E080000 		.4byte	0x86e
 1230 08c4 00       		.byte	0
 1231 08c5 0A       		.uleb128 0xa
 1232 08c6 04       		.byte	0x4
 1233 08c7 13       		.byte	0x13
 1234 08c8 D5       		.byte	0xd5
 1235 08c9 E6080000 		.4byte	0x8e6
 1236 08cd 08       		.uleb128 0x8
 1237 08ce 13060000 		.4byte	.LASF135
 1238 08d2 13       		.byte	0x13
 1239 08d3 D6       		.byte	0xd6
 1240 08d4 D4000000 		.4byte	0xd4
 1241 08d8 00       		.byte	0
 1242 08d9 08       		.uleb128 0x8
 1243 08da 0A060000 		.4byte	.LASF136
 1244 08de 13       		.byte	0x13
 1245 08df D7       		.byte	0xd7
 1246 08e0 D4000000 		.4byte	0xd4
 1247 08e4 02       		.byte	0x2
 1248 08e5 00       		.byte	0
 1249 08e6 0A       		.uleb128 0xa
 1250 08e7 04       		.byte	0x4
 1251 08e8 13       		.byte	0x13
 1252 08e9 D9       		.byte	0xd9
 1253 08ea 1F090000 		.4byte	0x91f
 1254 08ee 08       		.uleb128 0x8
ARM GAS  /tmp/ccxlM041.s 			page 23


 1255 08ef B7050000 		.4byte	.LASF137
 1256 08f3 13       		.byte	0x13
 1257 08f4 DA       		.byte	0xda
 1258 08f5 BF000000 		.4byte	0xbf
 1259 08f9 00       		.byte	0
 1260 08fa 08       		.uleb128 0x8
 1261 08fb C0050000 		.4byte	.LASF138
 1262 08ff 13       		.byte	0x13
 1263 0900 DB       		.byte	0xdb
 1264 0901 BF000000 		.4byte	0xbf
 1265 0905 01       		.byte	0x1
 1266 0906 08       		.uleb128 0x8
 1267 0907 C9050000 		.4byte	.LASF139
 1268 090b 13       		.byte	0x13
 1269 090c DC       		.byte	0xdc
 1270 090d BF000000 		.4byte	0xbf
 1271 0911 02       		.byte	0x2
 1272 0912 08       		.uleb128 0x8
 1273 0913 D2050000 		.4byte	.LASF140
 1274 0917 13       		.byte	0x13
 1275 0918 DD       		.byte	0xdd
 1276 0919 BF000000 		.4byte	0xbf
 1277 091d 03       		.byte	0x3
 1278 091e 00       		.byte	0
 1279 091f 12       		.uleb128 0x12
 1280 0920 04       		.byte	0x4
 1281 0921 13       		.byte	0x13
 1282 0922 D3       		.byte	0xd3
 1283 0923 3D090000 		.4byte	0x93d
 1284 0927 13       		.uleb128 0x13
 1285 0928 79040000 		.4byte	.LASF141
 1286 092c 13       		.byte	0x13
 1287 092d D4       		.byte	0xd4
 1288 092e F4000000 		.4byte	0xf4
 1289 0932 18       		.uleb128 0x18
 1290 0933 C5080000 		.4byte	0x8c5
 1291 0937 18       		.uleb128 0x18
 1292 0938 E6080000 		.4byte	0x8e6
 1293 093c 00       		.byte	0
 1294 093d 0A       		.uleb128 0xa
 1295 093e 04       		.byte	0x4
 1296 093f 13       		.byte	0x13
 1297 0940 E2       		.byte	0xe2
 1298 0941 5E090000 		.4byte	0x95e
 1299 0945 08       		.uleb128 0x8
 1300 0946 10040000 		.4byte	.LASF142
 1301 094a 13       		.byte	0x13
 1302 094b E3       		.byte	0xe3
 1303 094c D4000000 		.4byte	0xd4
 1304 0950 00       		.byte	0
 1305 0951 08       		.uleb128 0x8
 1306 0952 08040000 		.4byte	.LASF143
 1307 0956 13       		.byte	0x13
 1308 0957 E4       		.byte	0xe4
 1309 0958 D4000000 		.4byte	0xd4
 1310 095c 02       		.byte	0x2
 1311 095d 00       		.byte	0
ARM GAS  /tmp/ccxlM041.s 			page 24


 1312 095e 0A       		.uleb128 0xa
 1313 095f 04       		.byte	0x4
 1314 0960 13       		.byte	0x13
 1315 0961 E6       		.byte	0xe6
 1316 0962 97090000 		.4byte	0x997
 1317 0966 08       		.uleb128 0x8
 1318 0967 B7030000 		.4byte	.LASF144
 1319 096b 13       		.byte	0x13
 1320 096c E7       		.byte	0xe7
 1321 096d BF000000 		.4byte	0xbf
 1322 0971 00       		.byte	0
 1323 0972 08       		.uleb128 0x8
 1324 0973 BF030000 		.4byte	.LASF145
 1325 0977 13       		.byte	0x13
 1326 0978 E8       		.byte	0xe8
 1327 0979 BF000000 		.4byte	0xbf
 1328 097d 01       		.byte	0x1
 1329 097e 08       		.uleb128 0x8
 1330 097f C7030000 		.4byte	.LASF146
 1331 0983 13       		.byte	0x13
 1332 0984 E9       		.byte	0xe9
 1333 0985 BF000000 		.4byte	0xbf
 1334 0989 02       		.byte	0x2
 1335 098a 08       		.uleb128 0x8
 1336 098b CF030000 		.4byte	.LASF147
 1337 098f 13       		.byte	0x13
 1338 0990 EA       		.byte	0xea
 1339 0991 BF000000 		.4byte	0xbf
 1340 0995 03       		.byte	0x3
 1341 0996 00       		.byte	0
 1342 0997 12       		.uleb128 0x12
 1343 0998 04       		.byte	0x4
 1344 0999 13       		.byte	0x13
 1345 099a E0       		.byte	0xe0
 1346 099b B5090000 		.4byte	0x9b5
 1347 099f 13       		.uleb128 0x13
 1348 09a0 E2070000 		.4byte	.LASF148
 1349 09a4 13       		.byte	0x13
 1350 09a5 E1       		.byte	0xe1
 1351 09a6 F4000000 		.4byte	0xf4
 1352 09aa 18       		.uleb128 0x18
 1353 09ab 3D090000 		.4byte	0x93d
 1354 09af 18       		.uleb128 0x18
 1355 09b0 5E090000 		.4byte	0x95e
 1356 09b4 00       		.byte	0
 1357 09b5 0A       		.uleb128 0xa
 1358 09b6 04       		.byte	0x4
 1359 09b7 13       		.byte	0x13
 1360 09b8 EF       		.byte	0xef
 1361 09b9 D6090000 		.4byte	0x9d6
 1362 09bd 08       		.uleb128 0x8
 1363 09be 64030000 		.4byte	.LASF149
 1364 09c2 13       		.byte	0x13
 1365 09c3 F0       		.byte	0xf0
 1366 09c4 D4000000 		.4byte	0xd4
 1367 09c8 00       		.byte	0
 1368 09c9 08       		.uleb128 0x8
ARM GAS  /tmp/ccxlM041.s 			page 25


 1369 09ca 5C030000 		.4byte	.LASF150
 1370 09ce 13       		.byte	0x13
 1371 09cf F1       		.byte	0xf1
 1372 09d0 D4000000 		.4byte	0xd4
 1373 09d4 02       		.byte	0x2
 1374 09d5 00       		.byte	0
 1375 09d6 0A       		.uleb128 0xa
 1376 09d7 04       		.byte	0x4
 1377 09d8 13       		.byte	0x13
 1378 09d9 F3       		.byte	0xf3
 1379 09da 0F0A0000 		.4byte	0xa0f
 1380 09de 08       		.uleb128 0x8
 1381 09df 38030000 		.4byte	.LASF151
 1382 09e3 13       		.byte	0x13
 1383 09e4 F4       		.byte	0xf4
 1384 09e5 BF000000 		.4byte	0xbf
 1385 09e9 00       		.byte	0
 1386 09ea 08       		.uleb128 0x8
 1387 09eb 40030000 		.4byte	.LASF152
 1388 09ef 13       		.byte	0x13
 1389 09f0 F5       		.byte	0xf5
 1390 09f1 BF000000 		.4byte	0xbf
 1391 09f5 01       		.byte	0x1
 1392 09f6 08       		.uleb128 0x8
 1393 09f7 48030000 		.4byte	.LASF153
 1394 09fb 13       		.byte	0x13
 1395 09fc F6       		.byte	0xf6
 1396 09fd BF000000 		.4byte	0xbf
 1397 0a01 02       		.byte	0x2
 1398 0a02 08       		.uleb128 0x8
 1399 0a03 2D0A0000 		.4byte	.LASF154
 1400 0a07 13       		.byte	0x13
 1401 0a08 F7       		.byte	0xf7
 1402 0a09 BF000000 		.4byte	0xbf
 1403 0a0d 03       		.byte	0x3
 1404 0a0e 00       		.byte	0
 1405 0a0f 12       		.uleb128 0x12
 1406 0a10 04       		.byte	0x4
 1407 0a11 13       		.byte	0x13
 1408 0a12 ED       		.byte	0xed
 1409 0a13 2D0A0000 		.4byte	0xa2d
 1410 0a17 13       		.uleb128 0x13
 1411 0a18 29050000 		.4byte	.LASF155
 1412 0a1c 13       		.byte	0x13
 1413 0a1d EE       		.byte	0xee
 1414 0a1e F4000000 		.4byte	0xf4
 1415 0a22 18       		.uleb128 0x18
 1416 0a23 B5090000 		.4byte	0x9b5
 1417 0a27 18       		.uleb128 0x18
 1418 0a28 D6090000 		.4byte	0x9d6
 1419 0a2c 00       		.byte	0
 1420 0a2d 0A       		.uleb128 0xa
 1421 0a2e 04       		.byte	0x4
 1422 0a2f 13       		.byte	0x13
 1423 0a30 FC       		.byte	0xfc
 1424 0a31 4E0A0000 		.4byte	0xa4e
 1425 0a35 08       		.uleb128 0x8
ARM GAS  /tmp/ccxlM041.s 			page 26


 1426 0a36 47060000 		.4byte	.LASF156
 1427 0a3a 13       		.byte	0x13
 1428 0a3b FD       		.byte	0xfd
 1429 0a3c D4000000 		.4byte	0xd4
 1430 0a40 00       		.byte	0
 1431 0a41 08       		.uleb128 0x8
 1432 0a42 3F060000 		.4byte	.LASF157
 1433 0a46 13       		.byte	0x13
 1434 0a47 FE       		.byte	0xfe
 1435 0a48 D4000000 		.4byte	0xd4
 1436 0a4c 02       		.byte	0x2
 1437 0a4d 00       		.byte	0
 1438 0a4e 19       		.uleb128 0x19
 1439 0a4f 04       		.byte	0x4
 1440 0a50 13       		.byte	0x13
 1441 0a51 0001     		.2byte	0x100
 1442 0a53 8C0A0000 		.4byte	0xa8c
 1443 0a57 1A       		.uleb128 0x1a
 1444 0a58 E3050000 		.4byte	.LASF158
 1445 0a5c 13       		.byte	0x13
 1446 0a5d 0101     		.2byte	0x101
 1447 0a5f BF000000 		.4byte	0xbf
 1448 0a63 00       		.byte	0
 1449 0a64 1A       		.uleb128 0x1a
 1450 0a65 EB050000 		.4byte	.LASF159
 1451 0a69 13       		.byte	0x13
 1452 0a6a 0201     		.2byte	0x102
 1453 0a6c BF000000 		.4byte	0xbf
 1454 0a70 01       		.byte	0x1
 1455 0a71 1A       		.uleb128 0x1a
 1456 0a72 F3050000 		.4byte	.LASF160
 1457 0a76 13       		.byte	0x13
 1458 0a77 0301     		.2byte	0x103
 1459 0a79 BF000000 		.4byte	0xbf
 1460 0a7d 02       		.byte	0x2
 1461 0a7e 1A       		.uleb128 0x1a
 1462 0a7f FB050000 		.4byte	.LASF161
 1463 0a83 13       		.byte	0x13
 1464 0a84 0401     		.2byte	0x104
 1465 0a86 BF000000 		.4byte	0xbf
 1466 0a8a 03       		.byte	0x3
 1467 0a8b 00       		.byte	0
 1468 0a8c 12       		.uleb128 0x12
 1469 0a8d 04       		.byte	0x4
 1470 0a8e 13       		.byte	0x13
 1471 0a8f FA       		.byte	0xfa
 1472 0a90 AA0A0000 		.4byte	0xaaa
 1473 0a94 13       		.uleb128 0x13
 1474 0a95 44070000 		.4byte	.LASF162
 1475 0a99 13       		.byte	0x13
 1476 0a9a FB       		.byte	0xfb
 1477 0a9b F4000000 		.4byte	0xf4
 1478 0a9f 18       		.uleb128 0x18
 1479 0aa0 2D0A0000 		.4byte	0xa2d
 1480 0aa4 18       		.uleb128 0x18
 1481 0aa5 4E0A0000 		.4byte	0xa4e
 1482 0aa9 00       		.byte	0
ARM GAS  /tmp/ccxlM041.s 			page 27


 1483 0aaa 0A       		.uleb128 0xa
 1484 0aab 20       		.byte	0x20
 1485 0aac 13       		.byte	0x13
 1486 0aad C3       		.byte	0xc3
 1487 0aae DD0A0000 		.4byte	0xadd
 1488 0ab2 1B       		.uleb128 0x1b
 1489 0ab3 A7080000 		.4byte	0x8a7
 1490 0ab7 00       		.byte	0
 1491 0ab8 08       		.uleb128 0x8
 1492 0ab9 6E020000 		.4byte	.LASF163
 1493 0abd 13       		.byte	0x13
 1494 0abe D2       		.byte	0xd2
 1495 0abf DD0A0000 		.4byte	0xadd
 1496 0ac3 04       		.byte	0x4
 1497 0ac4 1B       		.uleb128 0x1b
 1498 0ac5 1F090000 		.4byte	0x91f
 1499 0ac9 10       		.byte	0x10
 1500 0aca 1B       		.uleb128 0x1b
 1501 0acb 97090000 		.4byte	0x997
 1502 0acf 14       		.byte	0x14
 1503 0ad0 1B       		.uleb128 0x1b
 1504 0ad1 0F0A0000 		.4byte	0xa0f
 1505 0ad5 18       		.byte	0x18
 1506 0ad6 1B       		.uleb128 0x1b
 1507 0ad7 8C0A0000 		.4byte	0xa8c
 1508 0adb 1C       		.byte	0x1c
 1509 0adc 00       		.byte	0
 1510 0add 15       		.uleb128 0x15
 1511 0ade E9000000 		.4byte	0xe9
 1512 0ae2 ED0A0000 		.4byte	0xaed
 1513 0ae6 16       		.uleb128 0x16
 1514 0ae7 92030000 		.4byte	0x392
 1515 0aeb 02       		.byte	0x2
 1516 0aec 00       		.byte	0
 1517 0aed 1C       		.uleb128 0x1c
 1518 0aee 94090000 		.4byte	.LASF164
 1519 0af2 13       		.byte	0x13
 1520 0af3 0701     		.2byte	0x107
 1521 0af5 AA0A0000 		.4byte	0xaaa
 1522 0af9 19       		.uleb128 0x19
 1523 0afa 74       		.byte	0x74
 1524 0afb 13       		.byte	0x13
 1525 0afc 1C01     		.2byte	0x11c
 1526 0afe DC0B0000 		.4byte	0xbdc
 1527 0b02 0E       		.uleb128 0xe
 1528 0b03 495200   		.ascii	"IR\000"
 1529 0b06 13       		.byte	0x13
 1530 0b07 1E01     		.2byte	0x11e
 1531 0b09 F4000000 		.4byte	0xf4
 1532 0b0d 00       		.byte	0
 1533 0b0e 0E       		.uleb128 0xe
 1534 0b0f 54435200 		.ascii	"TCR\000"
 1535 0b13 13       		.byte	0x13
 1536 0b14 1F01     		.2byte	0x11f
 1537 0b16 F4000000 		.4byte	0xf4
 1538 0b1a 04       		.byte	0x4
 1539 0b1b 0E       		.uleb128 0xe
ARM GAS  /tmp/ccxlM041.s 			page 28


 1540 0b1c 544300   		.ascii	"TC\000"
 1541 0b1f 13       		.byte	0x13
 1542 0b20 2001     		.2byte	0x120
 1543 0b22 F4000000 		.4byte	0xf4
 1544 0b26 08       		.byte	0x8
 1545 0b27 0E       		.uleb128 0xe
 1546 0b28 505200   		.ascii	"PR\000"
 1547 0b2b 13       		.byte	0x13
 1548 0b2c 2101     		.2byte	0x121
 1549 0b2e F4000000 		.4byte	0xf4
 1550 0b32 0C       		.byte	0xc
 1551 0b33 0E       		.uleb128 0xe
 1552 0b34 504300   		.ascii	"PC\000"
 1553 0b37 13       		.byte	0x13
 1554 0b38 2201     		.2byte	0x122
 1555 0b3a F4000000 		.4byte	0xf4
 1556 0b3e 10       		.byte	0x10
 1557 0b3f 0E       		.uleb128 0xe
 1558 0b40 4D435200 		.ascii	"MCR\000"
 1559 0b44 13       		.byte	0x13
 1560 0b45 2301     		.2byte	0x123
 1561 0b47 F4000000 		.4byte	0xf4
 1562 0b4b 14       		.byte	0x14
 1563 0b4c 0E       		.uleb128 0xe
 1564 0b4d 4D523000 		.ascii	"MR0\000"
 1565 0b51 13       		.byte	0x13
 1566 0b52 2401     		.2byte	0x124
 1567 0b54 F4000000 		.4byte	0xf4
 1568 0b58 18       		.byte	0x18
 1569 0b59 0E       		.uleb128 0xe
 1570 0b5a 4D523100 		.ascii	"MR1\000"
 1571 0b5e 13       		.byte	0x13
 1572 0b5f 2501     		.2byte	0x125
 1573 0b61 F4000000 		.4byte	0xf4
 1574 0b65 1C       		.byte	0x1c
 1575 0b66 0E       		.uleb128 0xe
 1576 0b67 4D523200 		.ascii	"MR2\000"
 1577 0b6b 13       		.byte	0x13
 1578 0b6c 2601     		.2byte	0x126
 1579 0b6e F4000000 		.4byte	0xf4
 1580 0b72 20       		.byte	0x20
 1581 0b73 0E       		.uleb128 0xe
 1582 0b74 4D523300 		.ascii	"MR3\000"
 1583 0b78 13       		.byte	0x13
 1584 0b79 2701     		.2byte	0x127
 1585 0b7b F4000000 		.4byte	0xf4
 1586 0b7f 24       		.byte	0x24
 1587 0b80 0E       		.uleb128 0xe
 1588 0b81 43435200 		.ascii	"CCR\000"
 1589 0b85 13       		.byte	0x13
 1590 0b86 2801     		.2byte	0x128
 1591 0b88 F4000000 		.4byte	0xf4
 1592 0b8c 28       		.byte	0x28
 1593 0b8d 0E       		.uleb128 0xe
 1594 0b8e 43523000 		.ascii	"CR0\000"
 1595 0b92 13       		.byte	0x13
 1596 0b93 2901     		.2byte	0x129
ARM GAS  /tmp/ccxlM041.s 			page 29


 1597 0b95 F9000000 		.4byte	0xf9
 1598 0b99 2C       		.byte	0x2c
 1599 0b9a 0E       		.uleb128 0xe
 1600 0b9b 43523100 		.ascii	"CR1\000"
 1601 0b9f 13       		.byte	0x13
 1602 0ba0 2A01     		.2byte	0x12a
 1603 0ba2 F9000000 		.4byte	0xf9
 1604 0ba6 30       		.byte	0x30
 1605 0ba7 1A       		.uleb128 0x1a
 1606 0ba8 6E020000 		.4byte	.LASF163
 1607 0bac 13       		.byte	0x13
 1608 0bad 2B01     		.2byte	0x12b
 1609 0baf 16080000 		.4byte	0x816
 1610 0bb3 34       		.byte	0x34
 1611 0bb4 0E       		.uleb128 0xe
 1612 0bb5 454D5200 		.ascii	"EMR\000"
 1613 0bb9 13       		.byte	0x13
 1614 0bba 2C01     		.2byte	0x12c
 1615 0bbc F4000000 		.4byte	0xf4
 1616 0bc0 3C       		.byte	0x3c
 1617 0bc1 1A       		.uleb128 0x1a
 1618 0bc2 78020000 		.4byte	.LASF165
 1619 0bc6 13       		.byte	0x13
 1620 0bc7 2D01     		.2byte	0x12d
 1621 0bc9 3D080000 		.4byte	0x83d
 1622 0bcd 40       		.byte	0x40
 1623 0bce 1A       		.uleb128 0x1a
 1624 0bcf A0000000 		.4byte	.LASF166
 1625 0bd3 13       		.byte	0x13
 1626 0bd4 2E01     		.2byte	0x12e
 1627 0bd6 F4000000 		.4byte	0xf4
 1628 0bda 70       		.byte	0x70
 1629 0bdb 00       		.byte	0
 1630 0bdc 1C       		.uleb128 0x1c
 1631 0bdd 20070000 		.4byte	.LASF167
 1632 0be1 13       		.byte	0x13
 1633 0be2 2F01     		.2byte	0x12f
 1634 0be4 F90A0000 		.4byte	0xaf9
 1635 0be8 1D       		.uleb128 0x1d
 1636 0be9 04       		.byte	0x4
 1637 0bea 13       		.byte	0x13
 1638 0beb 5201     		.2byte	0x152
 1639 0bed 160C0000 		.4byte	0xc16
 1640 0bf1 1E       		.uleb128 0x1e
 1641 0bf2 52425200 		.ascii	"RBR\000"
 1642 0bf6 13       		.byte	0x13
 1643 0bf7 5301     		.2byte	0x153
 1644 0bf9 F9000000 		.4byte	0xf9
 1645 0bfd 1E       		.uleb128 0x1e
 1646 0bfe 54485200 		.ascii	"THR\000"
 1647 0c02 13       		.byte	0x13
 1648 0c03 5401     		.2byte	0x154
 1649 0c05 F4000000 		.4byte	0xf4
 1650 0c09 1E       		.uleb128 0x1e
 1651 0c0a 444C4C00 		.ascii	"DLL\000"
 1652 0c0e 13       		.byte	0x13
 1653 0c0f 5501     		.2byte	0x155
ARM GAS  /tmp/ccxlM041.s 			page 30


 1654 0c11 F4000000 		.4byte	0xf4
 1655 0c15 00       		.byte	0
 1656 0c16 1D       		.uleb128 0x1d
 1657 0c17 04       		.byte	0x4
 1658 0c18 13       		.byte	0x13
 1659 0c19 5701     		.2byte	0x157
 1660 0c1b 380C0000 		.4byte	0xc38
 1661 0c1f 1E       		.uleb128 0x1e
 1662 0c20 444C4D00 		.ascii	"DLM\000"
 1663 0c24 13       		.byte	0x13
 1664 0c25 5801     		.2byte	0x158
 1665 0c27 F4000000 		.4byte	0xf4
 1666 0c2b 1E       		.uleb128 0x1e
 1667 0c2c 49455200 		.ascii	"IER\000"
 1668 0c30 13       		.byte	0x13
 1669 0c31 5901     		.2byte	0x159
 1670 0c33 F4000000 		.4byte	0xf4
 1671 0c37 00       		.byte	0
 1672 0c38 1D       		.uleb128 0x1d
 1673 0c39 04       		.byte	0x4
 1674 0c3a 13       		.byte	0x13
 1675 0c3b 5B01     		.2byte	0x15b
 1676 0c3d 5A0C0000 		.4byte	0xc5a
 1677 0c41 1E       		.uleb128 0x1e
 1678 0c42 49495200 		.ascii	"IIR\000"
 1679 0c46 13       		.byte	0x13
 1680 0c47 5C01     		.2byte	0x15c
 1681 0c49 F9000000 		.4byte	0xf9
 1682 0c4d 1E       		.uleb128 0x1e
 1683 0c4e 46435200 		.ascii	"FCR\000"
 1684 0c52 13       		.byte	0x13
 1685 0c53 5D01     		.2byte	0x15d
 1686 0c55 F4000000 		.4byte	0xf4
 1687 0c59 00       		.byte	0
 1688 0c5a 19       		.uleb128 0x19
 1689 0c5b 34       		.byte	0x34
 1690 0c5c 13       		.byte	0x13
 1691 0c5d 5001     		.2byte	0x150
 1692 0c5f F80C0000 		.4byte	0xcf8
 1693 0c63 1B       		.uleb128 0x1b
 1694 0c64 E80B0000 		.4byte	0xbe8
 1695 0c68 00       		.byte	0
 1696 0c69 1B       		.uleb128 0x1b
 1697 0c6a 160C0000 		.4byte	0xc16
 1698 0c6e 04       		.byte	0x4
 1699 0c6f 1B       		.uleb128 0x1b
 1700 0c70 380C0000 		.4byte	0xc38
 1701 0c74 08       		.byte	0x8
 1702 0c75 0E       		.uleb128 0xe
 1703 0c76 4C435200 		.ascii	"LCR\000"
 1704 0c7a 13       		.byte	0x13
 1705 0c7b 5F01     		.2byte	0x15f
 1706 0c7d F4000000 		.4byte	0xf4
 1707 0c81 0C       		.byte	0xc
 1708 0c82 1A       		.uleb128 0x1a
 1709 0c83 6E020000 		.4byte	.LASF163
 1710 0c87 13       		.byte	0x13
ARM GAS  /tmp/ccxlM041.s 			page 31


 1711 0c88 6001     		.2byte	0x160
 1712 0c8a E9000000 		.4byte	0xe9
 1713 0c8e 10       		.byte	0x10
 1714 0c8f 0E       		.uleb128 0xe
 1715 0c90 4C535200 		.ascii	"LSR\000"
 1716 0c94 13       		.byte	0x13
 1717 0c95 6101     		.2byte	0x161
 1718 0c97 F9000000 		.4byte	0xf9
 1719 0c9b 14       		.byte	0x14
 1720 0c9c 1A       		.uleb128 0x1a
 1721 0c9d 78020000 		.4byte	.LASF165
 1722 0ca1 13       		.byte	0x13
 1723 0ca2 6201     		.2byte	0x162
 1724 0ca4 E9000000 		.4byte	0xe9
 1725 0ca8 18       		.byte	0x18
 1726 0ca9 0E       		.uleb128 0xe
 1727 0caa 53435200 		.ascii	"SCR\000"
 1728 0cae 13       		.byte	0x13
 1729 0caf 6301     		.2byte	0x163
 1730 0cb1 F4000000 		.4byte	0xf4
 1731 0cb5 1C       		.byte	0x1c
 1732 0cb6 0E       		.uleb128 0xe
 1733 0cb7 41435200 		.ascii	"ACR\000"
 1734 0cbb 13       		.byte	0x13
 1735 0cbc 6401     		.2byte	0x164
 1736 0cbe F4000000 		.4byte	0xf4
 1737 0cc2 20       		.byte	0x20
 1738 0cc3 0E       		.uleb128 0xe
 1739 0cc4 49435200 		.ascii	"ICR\000"
 1740 0cc8 13       		.byte	0x13
 1741 0cc9 6501     		.2byte	0x165
 1742 0ccb F4000000 		.4byte	0xf4
 1743 0ccf 24       		.byte	0x24
 1744 0cd0 0E       		.uleb128 0xe
 1745 0cd1 46445200 		.ascii	"FDR\000"
 1746 0cd5 13       		.byte	0x13
 1747 0cd6 6601     		.2byte	0x166
 1748 0cd8 F4000000 		.4byte	0xf4
 1749 0cdc 28       		.byte	0x28
 1750 0cdd 1A       		.uleb128 0x1a
 1751 0cde CF020000 		.4byte	.LASF168
 1752 0ce2 13       		.byte	0x13
 1753 0ce3 6701     		.2byte	0x167
 1754 0ce5 E9000000 		.4byte	0xe9
 1755 0ce9 2C       		.byte	0x2c
 1756 0cea 0E       		.uleb128 0xe
 1757 0ceb 54455200 		.ascii	"TER\000"
 1758 0cef 13       		.byte	0x13
 1759 0cf0 6801     		.2byte	0x168
 1760 0cf2 F4000000 		.4byte	0xf4
 1761 0cf6 30       		.byte	0x30
 1762 0cf7 00       		.byte	0
 1763 0cf8 1C       		.uleb128 0x1c
 1764 0cf9 2A080000 		.4byte	.LASF169
 1765 0cfd 13       		.byte	0x13
 1766 0cfe 6901     		.2byte	0x169
 1767 0d00 5A0C0000 		.4byte	0xc5a
ARM GAS  /tmp/ccxlM041.s 			page 32


 1768 0d04 19       		.uleb128 0x19
 1769 0d05 28       		.byte	0x28
 1770 0d06 13       		.byte	0x13
 1771 0d07 9901     		.2byte	0x199
 1772 0d09 8E0D0000 		.4byte	0xd8e
 1773 0d0d 0E       		.uleb128 0xe
 1774 0d0e 43523000 		.ascii	"CR0\000"
 1775 0d12 13       		.byte	0x13
 1776 0d13 9B01     		.2byte	0x19b
 1777 0d15 F4000000 		.4byte	0xf4
 1778 0d19 00       		.byte	0
 1779 0d1a 0E       		.uleb128 0xe
 1780 0d1b 43523100 		.ascii	"CR1\000"
 1781 0d1f 13       		.byte	0x13
 1782 0d20 9C01     		.2byte	0x19c
 1783 0d22 F4000000 		.4byte	0xf4
 1784 0d26 04       		.byte	0x4
 1785 0d27 0E       		.uleb128 0xe
 1786 0d28 445200   		.ascii	"DR\000"
 1787 0d2b 13       		.byte	0x13
 1788 0d2c 9D01     		.2byte	0x19d
 1789 0d2e F4000000 		.4byte	0xf4
 1790 0d32 08       		.byte	0x8
 1791 0d33 0E       		.uleb128 0xe
 1792 0d34 535200   		.ascii	"SR\000"
 1793 0d37 13       		.byte	0x13
 1794 0d38 9E01     		.2byte	0x19e
 1795 0d3a F9000000 		.4byte	0xf9
 1796 0d3e 0C       		.byte	0xc
 1797 0d3f 1A       		.uleb128 0x1a
 1798 0d40 77080000 		.4byte	.LASF170
 1799 0d44 13       		.byte	0x13
 1800 0d45 9F01     		.2byte	0x19f
 1801 0d47 F4000000 		.4byte	0xf4
 1802 0d4b 10       		.byte	0x10
 1803 0d4c 1A       		.uleb128 0x1a
 1804 0d4d 4E020000 		.4byte	.LASF171
 1805 0d51 13       		.byte	0x13
 1806 0d52 A001     		.2byte	0x1a0
 1807 0d54 F4000000 		.4byte	0xf4
 1808 0d58 14       		.byte	0x14
 1809 0d59 0E       		.uleb128 0xe
 1810 0d5a 52495300 		.ascii	"RIS\000"
 1811 0d5e 13       		.byte	0x13
 1812 0d5f A101     		.2byte	0x1a1
 1813 0d61 F4000000 		.4byte	0xf4
 1814 0d65 18       		.byte	0x18
 1815 0d66 0E       		.uleb128 0xe
 1816 0d67 4D495300 		.ascii	"MIS\000"
 1817 0d6b 13       		.byte	0x13
 1818 0d6c A201     		.2byte	0x1a2
 1819 0d6e F4000000 		.4byte	0xf4
 1820 0d72 1C       		.byte	0x1c
 1821 0d73 0E       		.uleb128 0xe
 1822 0d74 49435200 		.ascii	"ICR\000"
 1823 0d78 13       		.byte	0x13
 1824 0d79 A301     		.2byte	0x1a3
ARM GAS  /tmp/ccxlM041.s 			page 33


 1825 0d7b F4000000 		.4byte	0xf4
 1826 0d7f 20       		.byte	0x20
 1827 0d80 1A       		.uleb128 0x1a
 1828 0d81 D9020000 		.4byte	.LASF172
 1829 0d85 13       		.byte	0x13
 1830 0d86 A401     		.2byte	0x1a4
 1831 0d88 F4000000 		.4byte	0xf4
 1832 0d8c 24       		.byte	0x24
 1833 0d8d 00       		.byte	0
 1834 0d8e 1C       		.uleb128 0x1c
 1835 0d8f 0D020000 		.4byte	.LASF173
 1836 0d93 13       		.byte	0x13
 1837 0d94 A501     		.2byte	0x1a5
 1838 0d96 040D0000 		.4byte	0xd04
 1839 0d9a 19       		.uleb128 0x19
 1840 0d9b 14       		.byte	0x14
 1841 0d9c 13       		.byte	0x13
 1842 0d9d B402     		.2byte	0x2b4
 1843 0d9f E50D0000 		.4byte	0xde5
 1844 0da3 1A       		.uleb128 0x1a
 1845 0da4 67010000 		.4byte	.LASF174
 1846 0da8 13       		.byte	0x13
 1847 0da9 B602     		.2byte	0x2b6
 1848 0dab F4000000 		.4byte	0xf4
 1849 0daf 00       		.byte	0
 1850 0db0 1A       		.uleb128 0x1a
 1851 0db1 39010000 		.4byte	.LASF175
 1852 0db5 13       		.byte	0x13
 1853 0db6 B702     		.2byte	0x2b7
 1854 0db8 F4000000 		.4byte	0xf4
 1855 0dbc 04       		.byte	0x4
 1856 0dbd 1A       		.uleb128 0x1a
 1857 0dbe 3B080000 		.4byte	.LASF176
 1858 0dc2 13       		.byte	0x13
 1859 0dc3 B802     		.2byte	0x2b8
 1860 0dc5 F4000000 		.4byte	0xf4
 1861 0dc9 08       		.byte	0x8
 1862 0dca 1A       		.uleb128 0x1a
 1863 0dcb 32040000 		.4byte	.LASF177
 1864 0dcf 13       		.byte	0x13
 1865 0dd0 B902     		.2byte	0x2b9
 1866 0dd2 F4000000 		.4byte	0xf4
 1867 0dd6 0C       		.byte	0xc
 1868 0dd7 1A       		.uleb128 0x1a
 1869 0dd8 1C090000 		.4byte	.LASF178
 1870 0ddc 13       		.byte	0x13
 1871 0ddd BA02     		.2byte	0x2ba
 1872 0ddf F4000000 		.4byte	0xf4
 1873 0de3 10       		.byte	0x10
 1874 0de4 00       		.byte	0
 1875 0de5 1C       		.uleb128 0x1c
 1876 0de6 86000000 		.4byte	.LASF179
 1877 0dea 13       		.byte	0x13
 1878 0deb BB02     		.2byte	0x2bb
 1879 0ded 9A0D0000 		.4byte	0xd9a
 1880 0df1 15       		.uleb128 0x15
 1881 0df2 FC0D0000 		.4byte	0xdfc
ARM GAS  /tmp/ccxlM041.s 			page 34


 1882 0df6 FC0D0000 		.4byte	0xdfc
 1883 0dfa 1F       		.uleb128 0x1f
 1884 0dfb 00       		.byte	0
 1885 0dfc 0B       		.uleb128 0xb
 1886 0dfd 04       		.byte	0x4
 1887 0dfe E50D0000 		.4byte	0xde5
 1888 0e02 17       		.uleb128 0x17
 1889 0e03 4B040000 		.4byte	.LASF180
 1890 0e07 14       		.byte	0x14
 1891 0e08 9501     		.2byte	0x195
 1892 0e0a F10D0000 		.4byte	0xdf1
 1893 0e0e 14       		.uleb128 0x14
 1894 0e0f 52010000 		.4byte	0x152
 1895 0e13 270E0000 		.4byte	0xe27
 1896 0e17 10       		.uleb128 0x10
 1897 0e18 E8020000 		.4byte	0x2e8
 1898 0e1c 10       		.uleb128 0x10
 1899 0e1d B4000000 		.4byte	0xb4
 1900 0e21 10       		.uleb128 0x10
 1901 0e22 73010000 		.4byte	0x173
 1902 0e26 00       		.byte	0
 1903 0e27 0B       		.uleb128 0xb
 1904 0e28 04       		.byte	0x4
 1905 0e29 0E0E0000 		.4byte	0xe0e
 1906 0e2d 14       		.uleb128 0x14
 1907 0e2e 52010000 		.4byte	0x152
 1908 0e32 410E0000 		.4byte	0xe41
 1909 0e36 10       		.uleb128 0x10
 1910 0e37 E8020000 		.4byte	0x2e8
 1911 0e3b 10       		.uleb128 0x10
 1912 0e3c 73010000 		.4byte	0x173
 1913 0e40 00       		.byte	0
 1914 0e41 0B       		.uleb128 0xb
 1915 0e42 04       		.byte	0x4
 1916 0e43 2D0E0000 		.4byte	0xe2d
 1917 0e47 14       		.uleb128 0x14
 1918 0e48 2C000000 		.4byte	0x2c
 1919 0e4c 650E0000 		.4byte	0xe65
 1920 0e50 10       		.uleb128 0x10
 1921 0e51 E8020000 		.4byte	0x2e8
 1922 0e55 10       		.uleb128 0x10
 1923 0e56 B6070000 		.4byte	0x7b6
 1924 0e5a 10       		.uleb128 0x10
 1925 0e5b 2C000000 		.4byte	0x2c
 1926 0e5f 10       		.uleb128 0x10
 1927 0e60 73010000 		.4byte	0x173
 1928 0e64 00       		.byte	0
 1929 0e65 0B       		.uleb128 0xb
 1930 0e66 04       		.byte	0x4
 1931 0e67 470E0000 		.4byte	0xe47
 1932 0e6b 14       		.uleb128 0x14
 1933 0e6c 2C000000 		.4byte	0x2c
 1934 0e70 890E0000 		.4byte	0xe89
 1935 0e74 10       		.uleb128 0x10
 1936 0e75 E8020000 		.4byte	0x2e8
 1937 0e79 10       		.uleb128 0x10
 1938 0e7a 81070000 		.4byte	0x781
ARM GAS  /tmp/ccxlM041.s 			page 35


 1939 0e7e 10       		.uleb128 0x10
 1940 0e7f 2C000000 		.4byte	0x2c
 1941 0e83 10       		.uleb128 0x10
 1942 0e84 73010000 		.4byte	0x173
 1943 0e88 00       		.byte	0
 1944 0e89 0B       		.uleb128 0xb
 1945 0e8a 04       		.byte	0x4
 1946 0e8b 6B0E0000 		.4byte	0xe6b
 1947 0e8f 0A       		.uleb128 0xa
 1948 0e90 08       		.byte	0x8
 1949 0e91 15       		.byte	0x15
 1950 0e92 2E       		.byte	0x2e
 1951 0e93 B00E0000 		.4byte	0xeb0
 1952 0e97 08       		.uleb128 0x8
 1953 0e98 4A0A0000 		.4byte	.LASF181
 1954 0e9c 15       		.byte	0x15
 1955 0e9d 30       		.byte	0x30
 1956 0e9e E9000000 		.4byte	0xe9
 1957 0ea2 00       		.byte	0
 1958 0ea3 09       		.uleb128 0x9
 1959 0ea4 64697200 		.ascii	"dir\000"
 1960 0ea8 15       		.byte	0x15
 1961 0ea9 32       		.byte	0x32
 1962 0eaa E9000000 		.4byte	0xe9
 1963 0eae 04       		.byte	0x4
 1964 0eaf 00       		.byte	0
 1965 0eb0 03       		.uleb128 0x3
 1966 0eb1 E2080000 		.4byte	.LASF182
 1967 0eb5 15       		.byte	0x15
 1968 0eb6 33       		.byte	0x33
 1969 0eb7 8F0E0000 		.4byte	0xe8f
 1970 0ebb 0A       		.uleb128 0xa
 1971 0ebc 28       		.byte	0x28
 1972 0ebd 15       		.byte	0x15
 1973 0ebe 41       		.byte	0x41
 1974 0ebf FB0E0000 		.4byte	0xefb
 1975 0ec3 09       		.uleb128 0x9
 1976 0ec4 503000   		.ascii	"P0\000"
 1977 0ec7 15       		.byte	0x15
 1978 0ec8 43       		.byte	0x43
 1979 0ec9 B00E0000 		.4byte	0xeb0
 1980 0ecd 00       		.byte	0
 1981 0ece 09       		.uleb128 0x9
 1982 0ecf 503100   		.ascii	"P1\000"
 1983 0ed2 15       		.byte	0x15
 1984 0ed3 45       		.byte	0x45
 1985 0ed4 B00E0000 		.4byte	0xeb0
 1986 0ed8 08       		.byte	0x8
 1987 0ed9 09       		.uleb128 0x9
 1988 0eda 503200   		.ascii	"P2\000"
 1989 0edd 15       		.byte	0x15
 1990 0ede 47       		.byte	0x47
 1991 0edf B00E0000 		.4byte	0xeb0
 1992 0ee3 10       		.byte	0x10
 1993 0ee4 09       		.uleb128 0x9
 1994 0ee5 503300   		.ascii	"P3\000"
 1995 0ee8 15       		.byte	0x15
ARM GAS  /tmp/ccxlM041.s 			page 36


 1996 0ee9 49       		.byte	0x49
 1997 0eea B00E0000 		.4byte	0xeb0
 1998 0eee 18       		.byte	0x18
 1999 0eef 09       		.uleb128 0x9
 2000 0ef0 503400   		.ascii	"P4\000"
 2001 0ef3 15       		.byte	0x15
 2002 0ef4 4B       		.byte	0x4b
 2003 0ef5 B00E0000 		.4byte	0xeb0
 2004 0ef9 20       		.byte	0x20
 2005 0efa 00       		.byte	0
 2006 0efb 03       		.uleb128 0x3
 2007 0efc 04090000 		.4byte	.LASF183
 2008 0f00 15       		.byte	0x15
 2009 0f01 4C       		.byte	0x4c
 2010 0f02 BB0E0000 		.4byte	0xebb
 2011 0f06 06       		.uleb128 0x6
 2012 0f07 FB0E0000 		.4byte	0xefb
 2013 0f0b 03       		.uleb128 0x3
 2014 0f0c 78030000 		.4byte	.LASF184
 2015 0f10 15       		.byte	0x15
 2016 0f11 5C       		.byte	0x5c
 2017 0f12 E9000000 		.4byte	0xe9
 2018 0f16 03       		.uleb128 0x3
 2019 0f17 EB000000 		.4byte	.LASF185
 2020 0f1b 15       		.byte	0x15
 2021 0f1c 61       		.byte	0x61
 2022 0f1d E9000000 		.4byte	0xe9
 2023 0f21 03       		.uleb128 0x3
 2024 0f22 DF010000 		.4byte	.LASF186
 2025 0f26 15       		.byte	0x15
 2026 0f27 66       		.byte	0x66
 2027 0f28 2C0F0000 		.4byte	0xf2c
 2028 0f2c 0B       		.uleb128 0xb
 2029 0f2d 04       		.byte	0x4
 2030 0f2e ED0A0000 		.4byte	0xaed
 2031 0f32 17       		.uleb128 0x17
 2032 0f33 1D020000 		.4byte	.LASF187
 2033 0f37 15       		.byte	0x15
 2034 0f38 3301     		.2byte	0x133
 2035 0f3a 060F0000 		.4byte	0xf06
 2036 0f3e 0A       		.uleb128 0xa
 2037 0f3f 0C       		.byte	0xc
 2038 0f40 16       		.byte	0x16
 2039 0f41 7E       		.byte	0x7e
 2040 0f42 6B0F0000 		.4byte	0xf6b
 2041 0f46 08       		.uleb128 0x8
 2042 0f47 53020000 		.4byte	.LASF188
 2043 0f4b 16       		.byte	0x16
 2044 0f4c 82       		.byte	0x82
 2045 0f4d 210F0000 		.4byte	0xf21
 2046 0f51 00       		.byte	0
 2047 0f52 08       		.uleb128 0x8
 2048 0f53 30050000 		.4byte	.LASF189
 2049 0f57 16       		.byte	0x16
 2050 0f58 88       		.byte	0x88
 2051 0f59 0B0F0000 		.4byte	0xf0b
 2052 0f5d 04       		.byte	0x4
ARM GAS  /tmp/ccxlM041.s 			page 37


 2053 0f5e 08       		.uleb128 0x8
 2054 0f5f F3060000 		.4byte	.LASF190
 2055 0f63 16       		.byte	0x16
 2056 0f64 8C       		.byte	0x8c
 2057 0f65 09010000 		.4byte	0x109
 2058 0f69 08       		.byte	0x8
 2059 0f6a 00       		.byte	0
 2060 0f6b 03       		.uleb128 0x3
 2061 0f6c 8D030000 		.4byte	.LASF191
 2062 0f70 16       		.byte	0x16
 2063 0f71 8D       		.byte	0x8d
 2064 0f72 3E0F0000 		.4byte	0xf3e
 2065 0f76 20       		.uleb128 0x20
 2066 0f77 01       		.byte	0x1
 2067 0f78 5E000000 		.4byte	0x5e
 2068 0f7c 17       		.byte	0x17
 2069 0f7d 35       		.byte	0x35
 2070 0f7e A10F0000 		.4byte	0xfa1
 2071 0f82 21       		.uleb128 0x21
 2072 0f83 EA020000 		.4byte	.LASF192
 2073 0f87 00       		.byte	0
 2074 0f88 21       		.uleb128 0x21
 2075 0f89 AC090000 		.4byte	.LASF193
 2076 0f8d 01       		.byte	0x1
 2077 0f8e 21       		.uleb128 0x21
 2078 0f8f 00080000 		.4byte	.LASF194
 2079 0f93 02       		.byte	0x2
 2080 0f94 21       		.uleb128 0x21
 2081 0f95 0A080000 		.4byte	.LASF195
 2082 0f99 03       		.byte	0x3
 2083 0f9a 21       		.uleb128 0x21
 2084 0f9b 5C050000 		.4byte	.LASF196
 2085 0f9f 04       		.byte	0x4
 2086 0fa0 00       		.byte	0
 2087 0fa1 03       		.uleb128 0x3
 2088 0fa2 AE000000 		.4byte	.LASF197
 2089 0fa6 17       		.byte	0x17
 2090 0fa7 3B       		.byte	0x3b
 2091 0fa8 760F0000 		.4byte	0xf76
 2092 0fac 03       		.uleb128 0x3
 2093 0fad 17050000 		.4byte	.LASF198
 2094 0fb1 17       		.byte	0x17
 2095 0fb2 40       		.byte	0x40
 2096 0fb3 B70F0000 		.4byte	0xfb7
 2097 0fb7 07       		.uleb128 0x7
 2098 0fb8 17050000 		.4byte	.LASF198
 2099 0fbc 10       		.byte	0x10
 2100 0fbd 18       		.byte	0x18
 2101 0fbe 93       		.byte	0x93
 2102 0fbf F40F0000 		.4byte	0xff4
 2103 0fc3 08       		.uleb128 0x8
 2104 0fc4 C0000000 		.4byte	.LASF199
 2105 0fc8 18       		.byte	0x18
 2106 0fc9 97       		.byte	0x97
 2107 0fca A10F0000 		.4byte	0xfa1
 2108 0fce 00       		.byte	0
 2109 0fcf 08       		.uleb128 0x8
ARM GAS  /tmp/ccxlM041.s 			page 38


 2110 0fd0 B9000000 		.4byte	.LASF200
 2111 0fd4 18       		.byte	0x18
 2112 0fd5 9B       		.byte	0x9b
 2113 0fd6 52100000 		.4byte	0x1052
 2114 0fda 04       		.byte	0x4
 2115 0fdb 08       		.uleb128 0x8
 2116 0fdc 81040000 		.4byte	.LASF201
 2117 0fe0 18       		.byte	0x18
 2118 0fe1 A0       		.byte	0xa0
 2119 0fe2 E9000000 		.4byte	0xe9
 2120 0fe6 08       		.byte	0x8
 2121 0fe7 09       		.uleb128 0x9
 2122 0fe8 746D7200 		.ascii	"tmr\000"
 2123 0fec 18       		.byte	0x18
 2124 0fed A4       		.byte	0xa4
 2125 0fee 58100000 		.4byte	0x1058
 2126 0ff2 0C       		.byte	0xc
 2127 0ff3 00       		.byte	0
 2128 0ff4 03       		.uleb128 0x3
 2129 0ff5 560A0000 		.4byte	.LASF202
 2130 0ff9 17       		.byte	0x17
 2131 0ffa 47       		.byte	0x47
 2132 0ffb FF0F0000 		.4byte	0xfff
 2133 0fff 0B       		.uleb128 0xb
 2134 1000 04       		.byte	0x4
 2135 1001 05100000 		.4byte	0x1005
 2136 1005 0F       		.uleb128 0xf
 2137 1006 10100000 		.4byte	0x1010
 2138 100a 10       		.uleb128 0x10
 2139 100b 10100000 		.4byte	0x1010
 2140 100f 00       		.byte	0
 2141 1010 0B       		.uleb128 0xb
 2142 1011 04       		.byte	0x4
 2143 1012 AC0F0000 		.4byte	0xfac
 2144 1016 03       		.uleb128 0x3
 2145 1017 28040000 		.4byte	.LASF203
 2146 101b 18       		.byte	0x18
 2147 101c 76       		.byte	0x76
 2148 101d E9000000 		.4byte	0xe9
 2149 1021 0A       		.uleb128 0xa
 2150 1022 08       		.byte	0x8
 2151 1023 18       		.byte	0x18
 2152 1024 81       		.byte	0x81
 2153 1025 42100000 		.4byte	0x1042
 2154 1029 08       		.uleb128 0x8
 2155 102a 48050000 		.4byte	.LASF204
 2156 102e 18       		.byte	0x18
 2157 102f 87       		.byte	0x87
 2158 1030 16100000 		.4byte	0x1016
 2159 1034 00       		.byte	0
 2160 1035 08       		.uleb128 0x8
 2161 1036 E2000000 		.4byte	.LASF205
 2162 103a 18       		.byte	0x18
 2163 103b 8C       		.byte	0x8c
 2164 103c F40F0000 		.4byte	0xff4
 2165 1040 04       		.byte	0x4
 2166 1041 00       		.byte	0
ARM GAS  /tmp/ccxlM041.s 			page 39


 2167 1042 03       		.uleb128 0x3
 2168 1043 87040000 		.4byte	.LASF206
 2169 1047 18       		.byte	0x18
 2170 1048 8E       		.byte	0x8e
 2171 1049 21100000 		.4byte	0x1021
 2172 104d 06       		.uleb128 0x6
 2173 104e 42100000 		.4byte	0x1042
 2174 1052 0B       		.uleb128 0xb
 2175 1053 04       		.byte	0x4
 2176 1054 4D100000 		.4byte	0x104d
 2177 1058 0B       		.uleb128 0xb
 2178 1059 04       		.byte	0x4
 2179 105a DC0B0000 		.4byte	0xbdc
 2180 105e 11       		.uleb128 0x11
 2181 105f C7010000 		.4byte	.LASF207
 2182 1063 18       		.byte	0x18
 2183 1064 B0       		.byte	0xb0
 2184 1065 AC0F0000 		.4byte	0xfac
 2185 1069 11       		.uleb128 0x11
 2186 106a CD010000 		.4byte	.LASF208
 2187 106e 18       		.byte	0x18
 2188 106f B4       		.byte	0xb4
 2189 1070 AC0F0000 		.4byte	0xfac
 2190 1074 11       		.uleb128 0x11
 2191 1075 D3010000 		.4byte	.LASF209
 2192 1079 18       		.byte	0x18
 2193 107a B8       		.byte	0xb8
 2194 107b AC0F0000 		.4byte	0xfac
 2195 107f 11       		.uleb128 0x11
 2196 1080 D9010000 		.4byte	.LASF210
 2197 1084 18       		.byte	0x18
 2198 1085 BC       		.byte	0xbc
 2199 1086 AC0F0000 		.4byte	0xfac
 2200 108a 20       		.uleb128 0x20
 2201 108b 01       		.byte	0x1
 2202 108c 5E000000 		.4byte	0x5e
 2203 1090 19       		.byte	0x19
 2204 1091 5D       		.byte	0x5d
 2205 1092 A9100000 		.4byte	0x10a9
 2206 1096 21       		.uleb128 0x21
 2207 1097 BF020000 		.4byte	.LASF211
 2208 109b 00       		.byte	0
 2209 109c 21       		.uleb128 0x21
 2210 109d 0D0A0000 		.4byte	.LASF212
 2211 10a1 01       		.byte	0x1
 2212 10a2 21       		.uleb128 0x21
 2213 10a3 87080000 		.4byte	.LASF213
 2214 10a7 02       		.byte	0x2
 2215 10a8 00       		.byte	0
 2216 10a9 03       		.uleb128 0x3
 2217 10aa 6D080000 		.4byte	.LASF214
 2218 10ae 19       		.byte	0x19
 2219 10af 61       		.byte	0x61
 2220 10b0 8A100000 		.4byte	0x108a
 2221 10b4 03       		.uleb128 0x3
 2222 10b5 48080000 		.4byte	.LASF215
 2223 10b9 19       		.byte	0x19
ARM GAS  /tmp/ccxlM041.s 			page 40


 2224 10ba 66       		.byte	0x66
 2225 10bb BF100000 		.4byte	0x10bf
 2226 10bf 07       		.uleb128 0x7
 2227 10c0 48080000 		.4byte	.LASF215
 2228 10c4 78       		.byte	0x78
 2229 10c5 19       		.byte	0x19
 2230 10c6 80       		.byte	0x80
 2231 10c7 2A110000 		.4byte	0x112a
 2232 10cb 09       		.uleb128 0x9
 2233 10cc 766D7400 		.ascii	"vmt\000"
 2234 10d0 19       		.byte	0x19
 2235 10d1 82       		.byte	0x82
 2236 10d2 B2110000 		.4byte	0x11b2
 2237 10d6 00       		.byte	0
 2238 10d7 08       		.uleb128 0x8
 2239 10d8 72050000 		.4byte	.LASF216
 2240 10dc 19       		.byte	0x19
 2241 10dd 83       		.byte	0x83
 2242 10de 6E050000 		.4byte	0x56e
 2243 10e2 04       		.byte	0x4
 2244 10e3 08       		.uleb128 0x8
 2245 10e4 C0000000 		.4byte	.LASF199
 2246 10e8 19       		.byte	0x19
 2247 10e9 83       		.byte	0x83
 2248 10ea A9100000 		.4byte	0x10a9
 2249 10ee 08       		.byte	0x8
 2250 10ef 08       		.uleb128 0x8
 2251 10f0 C9080000 		.4byte	.LASF217
 2252 10f4 19       		.byte	0x19
 2253 10f5 83       		.byte	0x83
 2254 10f6 87070000 		.4byte	0x787
 2255 10fa 0C       		.byte	0xc
 2256 10fb 08       		.uleb128 0x8
 2257 10fc FD010000 		.4byte	.LASF218
 2258 1100 19       		.byte	0x19
 2259 1101 83       		.byte	0x83
 2260 1102 92070000 		.4byte	0x792
 2261 1106 30       		.byte	0x30
 2262 1107 09       		.uleb128 0x9
 2263 1108 696200   		.ascii	"ib\000"
 2264 110b 19       		.byte	0x19
 2265 110c 83       		.byte	0x83
 2266 110d B8110000 		.4byte	0x11b8
 2267 1111 54       		.byte	0x54
 2268 1112 09       		.uleb128 0x9
 2269 1113 6F6200   		.ascii	"ob\000"
 2270 1116 19       		.byte	0x19
 2271 1117 83       		.byte	0x83
 2272 1118 B8110000 		.4byte	0x11b8
 2273 111c 64       		.byte	0x64
 2274 111d 08       		.uleb128 0x8
 2275 111e C4080000 		.4byte	.LASF219
 2276 1122 19       		.byte	0x19
 2277 1123 83       		.byte	0x83
 2278 1124 C8110000 		.4byte	0x11c8
 2279 1128 74       		.byte	0x74
 2280 1129 00       		.byte	0
ARM GAS  /tmp/ccxlM041.s 			page 41


 2281 112a 22       		.uleb128 0x22
 2282 112b 53443100 		.ascii	"SD1\000"
 2283 112f 1A       		.byte	0x1a
 2284 1130 EF       		.byte	0xef
 2285 1131 B4100000 		.4byte	0x10b4
 2286 1135 22       		.uleb128 0x22
 2287 1136 53443300 		.ascii	"SD3\000"
 2288 113a 1A       		.byte	0x1a
 2289 113b F7       		.byte	0xf7
 2290 113c B4100000 		.4byte	0x10b4
 2291 1140 07       		.uleb128 0x7
 2292 1141 69040000 		.4byte	.LASF220
 2293 1145 20       		.byte	0x20
 2294 1146 19       		.byte	0x19
 2295 1147 75       		.byte	0x75
 2296 1148 AD110000 		.4byte	0x11ad
 2297 114c 08       		.uleb128 0x8
 2298 114d 9A000000 		.4byte	.LASF221
 2299 1151 19       		.byte	0x19
 2300 1152 76       		.byte	0x76
 2301 1153 BC070000 		.4byte	0x7bc
 2302 1157 00       		.byte	0
 2303 1158 08       		.uleb128 0x8
 2304 1159 80050000 		.4byte	.LASF222
 2305 115d 19       		.byte	0x19
 2306 115e 76       		.byte	0x76
 2307 115f DB070000 		.4byte	0x7db
 2308 1163 04       		.byte	0x4
 2309 1164 09       		.uleb128 0x9
 2310 1165 70757400 		.ascii	"put\000"
 2311 1169 19       		.byte	0x19
 2312 116a 76       		.byte	0x76
 2313 116b F5070000 		.4byte	0x7f5
 2314 116f 08       		.byte	0x8
 2315 1170 09       		.uleb128 0x9
 2316 1171 67657400 		.ascii	"get\000"
 2317 1175 19       		.byte	0x19
 2318 1176 76       		.byte	0x76
 2319 1177 C6050000 		.4byte	0x5c6
 2320 117b 0C       		.byte	0xc
 2321 117c 08       		.uleb128 0x8
 2322 117d C6000000 		.4byte	.LASF223
 2323 1181 19       		.byte	0x19
 2324 1182 76       		.byte	0x76
 2325 1183 270E0000 		.4byte	0xe27
 2326 1187 10       		.byte	0x10
 2327 1188 08       		.uleb128 0x8
 2328 1189 28030000 		.4byte	.LASF224
 2329 118d 19       		.byte	0x19
 2330 118e 76       		.byte	0x76
 2331 118f 410E0000 		.4byte	0xe41
 2332 1193 14       		.byte	0x14
 2333 1194 08       		.uleb128 0x8
 2334 1195 64000000 		.4byte	.LASF225
 2335 1199 19       		.byte	0x19
 2336 119a 76       		.byte	0x76
 2337 119b 650E0000 		.4byte	0xe65
ARM GAS  /tmp/ccxlM041.s 			page 42


 2338 119f 18       		.byte	0x18
 2339 11a0 08       		.uleb128 0x8
 2340 11a1 58010000 		.4byte	.LASF226
 2341 11a5 19       		.byte	0x19
 2342 11a6 76       		.byte	0x76
 2343 11a7 890E0000 		.4byte	0xe89
 2344 11ab 1C       		.byte	0x1c
 2345 11ac 00       		.byte	0
 2346 11ad 06       		.uleb128 0x6
 2347 11ae 40110000 		.4byte	0x1140
 2348 11b2 0B       		.uleb128 0xb
 2349 11b3 04       		.byte	0x4
 2350 11b4 AD110000 		.4byte	0x11ad
 2351 11b8 15       		.uleb128 0x15
 2352 11b9 B4000000 		.4byte	0xb4
 2353 11bd C8110000 		.4byte	0x11c8
 2354 11c1 16       		.uleb128 0x16
 2355 11c2 92030000 		.4byte	0x392
 2356 11c6 0F       		.byte	0xf
 2357 11c7 00       		.byte	0
 2358 11c8 0B       		.uleb128 0xb
 2359 11c9 04       		.byte	0x4
 2360 11ca F80C0000 		.4byte	0xcf8
 2361 11ce 20       		.uleb128 0x20
 2362 11cf 01       		.byte	0x1
 2363 11d0 5E000000 		.4byte	0x5e
 2364 11d4 1B       		.byte	0x1b
 2365 11d5 4E       		.byte	0x4e
 2366 11d6 F9110000 		.4byte	0x11f9
 2367 11da 21       		.uleb128 0x21
 2368 11db 93010000 		.4byte	.LASF227
 2369 11df 00       		.byte	0
 2370 11e0 21       		.uleb128 0x21
 2371 11e1 81010000 		.4byte	.LASF228
 2372 11e5 01       		.byte	0x1
 2373 11e6 21       		.uleb128 0x21
 2374 11e7 EC040000 		.4byte	.LASF229
 2375 11eb 02       		.byte	0x2
 2376 11ec 21       		.uleb128 0x21
 2377 11ed AC050000 		.4byte	.LASF230
 2378 11f1 03       		.byte	0x3
 2379 11f2 21       		.uleb128 0x21
 2380 11f3 87090000 		.4byte	.LASF231
 2381 11f7 04       		.byte	0x4
 2382 11f8 00       		.byte	0
 2383 11f9 03       		.uleb128 0x3
 2384 11fa D2090000 		.4byte	.LASF232
 2385 11fe 1B       		.byte	0x1b
 2386 11ff 54       		.byte	0x54
 2387 1200 CE110000 		.4byte	0x11ce
 2388 1204 03       		.uleb128 0x3
 2389 1205 90020000 		.4byte	.LASF233
 2390 1209 1C       		.byte	0x1c
 2391 120a D0       		.byte	0xd0
 2392 120b 0F120000 		.4byte	0x120f
 2393 120f 07       		.uleb128 0x7
 2394 1210 90020000 		.4byte	.LASF233
ARM GAS  /tmp/ccxlM041.s 			page 43


 2395 1214 30       		.byte	0x30
 2396 1215 1C       		.byte	0x1c
 2397 1216 F8       		.byte	0xf8
 2398 1217 90120000 		.4byte	0x1290
 2399 121b 08       		.uleb128 0x8
 2400 121c C0000000 		.4byte	.LASF199
 2401 1220 1C       		.byte	0x1c
 2402 1221 FC       		.byte	0xfc
 2403 1222 F9110000 		.4byte	0x11f9
 2404 1226 00       		.byte	0
 2405 1227 1A       		.uleb128 0x1a
 2406 1228 B9000000 		.4byte	.LASF200
 2407 122c 1C       		.byte	0x1c
 2408 122d 0001     		.2byte	0x100
 2409 122f 07130000 		.4byte	0x1307
 2410 1233 04       		.byte	0x4
 2411 1234 1A       		.uleb128 0x1a
 2412 1235 98080000 		.4byte	.LASF234
 2413 1239 1C       		.byte	0x1c
 2414 123a 0501     		.2byte	0x105
 2415 123c AC020000 		.4byte	0x2ac
 2416 1240 08       		.byte	0x8
 2417 1241 1A       		.uleb128 0x1a
 2418 1242 35050000 		.4byte	.LASF235
 2419 1246 1C       		.byte	0x1c
 2420 1247 0C01     		.2byte	0x10c
 2421 1249 FC040000 		.4byte	0x4fc
 2422 124d 0C       		.byte	0xc
 2423 124e 0E       		.uleb128 0xe
 2424 124f 73737000 		.ascii	"ssp\000"
 2425 1253 1C       		.byte	0x1c
 2426 1254 1801     		.2byte	0x118
 2427 1256 0D130000 		.4byte	0x130d
 2428 125a 1C       		.byte	0x1c
 2429 125b 1A       		.uleb128 0x1a
 2430 125c 91040000 		.4byte	.LASF236
 2431 1260 1C       		.byte	0x1c
 2432 1261 1C01     		.2byte	0x11c
 2433 1263 E9000000 		.4byte	0xe9
 2434 1267 20       		.byte	0x20
 2435 1268 1A       		.uleb128 0x1a
 2436 1269 E4020000 		.4byte	.LASF237
 2437 126d 1C       		.byte	0x1c
 2438 126e 2001     		.2byte	0x120
 2439 1270 E8020000 		.4byte	0x2e8
 2440 1274 24       		.byte	0x24
 2441 1275 1A       		.uleb128 0x1a
 2442 1276 AD010000 		.4byte	.LASF238
 2443 127a 1C       		.byte	0x1c
 2444 127b 2401     		.2byte	0x124
 2445 127d E9000000 		.4byte	0xe9
 2446 1281 28       		.byte	0x28
 2447 1282 1A       		.uleb128 0x1a
 2448 1283 350A0000 		.4byte	.LASF239
 2449 1287 1C       		.byte	0x1c
 2450 1288 2801     		.2byte	0x128
 2451 128a 13130000 		.4byte	0x1313
ARM GAS  /tmp/ccxlM041.s 			page 44


 2452 128e 2C       		.byte	0x2c
 2453 128f 00       		.byte	0
 2454 1290 03       		.uleb128 0x3
 2455 1291 A1020000 		.4byte	.LASF240
 2456 1295 1C       		.byte	0x1c
 2457 1296 D8       		.byte	0xd8
 2458 1297 9B120000 		.4byte	0x129b
 2459 129b 0B       		.uleb128 0xb
 2460 129c 04       		.byte	0x4
 2461 129d A1120000 		.4byte	0x12a1
 2462 12a1 0F       		.uleb128 0xf
 2463 12a2 AC120000 		.4byte	0x12ac
 2464 12a6 10       		.uleb128 0x10
 2465 12a7 AC120000 		.4byte	0x12ac
 2466 12ab 00       		.byte	0
 2467 12ac 0B       		.uleb128 0xb
 2468 12ad 04       		.byte	0x4
 2469 12ae 04120000 		.4byte	0x1204
 2470 12b2 0A       		.uleb128 0xa
 2471 12b3 10       		.byte	0x10
 2472 12b4 1C       		.byte	0x1c
 2473 12b5 DD       		.byte	0xdd
 2474 12b6 F7120000 		.4byte	0x12f7
 2475 12ba 08       		.uleb128 0x8
 2476 12bb 19010000 		.4byte	.LASF241
 2477 12bf 1C       		.byte	0x1c
 2478 12c0 E1       		.byte	0xe1
 2479 12c1 90120000 		.4byte	0x1290
 2480 12c5 00       		.byte	0
 2481 12c6 08       		.uleb128 0x8
 2482 12c7 7F000000 		.4byte	.LASF242
 2483 12cb 1C       		.byte	0x1c
 2484 12cc E6       		.byte	0xe6
 2485 12cd 210F0000 		.4byte	0xf21
 2486 12d1 04       		.byte	0x4
 2487 12d2 08       		.uleb128 0x8
 2488 12d3 270A0000 		.4byte	.LASF243
 2489 12d7 1C       		.byte	0x1c
 2490 12d8 EA       		.byte	0xea
 2491 12d9 C9000000 		.4byte	0xc9
 2492 12dd 08       		.byte	0x8
 2493 12de 09       		.uleb128 0x9
 2494 12df 63723000 		.ascii	"cr0\000"
 2495 12e3 1C       		.byte	0x1c
 2496 12e4 EE       		.byte	0xee
 2497 12e5 C9000000 		.4byte	0xc9
 2498 12e9 0A       		.byte	0xa
 2499 12ea 08       		.uleb128 0x8
 2500 12eb 97040000 		.4byte	.LASF244
 2501 12ef 1C       		.byte	0x1c
 2502 12f0 F2       		.byte	0xf2
 2503 12f1 E9000000 		.4byte	0xe9
 2504 12f5 0C       		.byte	0xc
 2505 12f6 00       		.byte	0
 2506 12f7 03       		.uleb128 0x3
 2507 12f8 A2050000 		.4byte	.LASF245
 2508 12fc 1C       		.byte	0x1c
ARM GAS  /tmp/ccxlM041.s 			page 45


 2509 12fd F3       		.byte	0xf3
 2510 12fe B2120000 		.4byte	0x12b2
 2511 1302 06       		.uleb128 0x6
 2512 1303 F7120000 		.4byte	0x12f7
 2513 1307 0B       		.uleb128 0xb
 2514 1308 04       		.byte	0x4
 2515 1309 02130000 		.4byte	0x1302
 2516 130d 0B       		.uleb128 0xb
 2517 130e 04       		.byte	0x4
 2518 130f 8E0D0000 		.4byte	0xd8e
 2519 1313 0B       		.uleb128 0xb
 2520 1314 04       		.byte	0x4
 2521 1315 19130000 		.4byte	0x1319
 2522 1319 23       		.uleb128 0x23
 2523 131a 17       		.uleb128 0x17
 2524 131b CB000000 		.4byte	.LASF246
 2525 131f 1C       		.byte	0x1c
 2526 1320 3401     		.2byte	0x134
 2527 1322 04120000 		.4byte	0x1204
 2528 1326 17       		.uleb128 0x17
 2529 1327 D1000000 		.4byte	.LASF247
 2530 132b 1C       		.byte	0x1c
 2531 132c 3801     		.2byte	0x138
 2532 132e 04120000 		.4byte	0x1204
 2533 1332 24       		.uleb128 0x24
 2534 1333 24090000 		.4byte	.LASF249
 2535 1337 01       		.byte	0x1
 2536 1338 78       		.byte	0x78
 2537 1339 00000000 		.4byte	.LFB65
 2538 133d 14000000 		.4byte	.LFE65-.LFB65
 2539 1341 01       		.uleb128 0x1
 2540 1342 9C       		.byte	0x9c
 2541 1343 77130000 		.4byte	0x1377
 2542 1347 25       		.uleb128 0x25
 2543 1348 62757300 		.ascii	"bus\000"
 2544 134c 01       		.byte	0x1
 2545 134d 78       		.byte	0x78
 2546 134e 77130000 		.4byte	0x1377
 2547 1352 00000000 		.4byte	.LLST3
 2548 1356 26       		.uleb128 0x26
 2549 1357 BF080000 		.4byte	.LASF248
 2550 135b 01       		.byte	0x1
 2551 135c 78       		.byte	0x78
 2552 135d 160F0000 		.4byte	0xf16
 2553 1361 21000000 		.4byte	.LLST4
 2554 1365 27       		.uleb128 0x27
 2555 1366 14000000 		.4byte	.LVL9
 2556 136a F4130000 		.4byte	0x13f4
 2557 136e 28       		.uleb128 0x28
 2558 136f 01       		.uleb128 0x1
 2559 1370 52       		.byte	0x52
 2560 1371 03       		.uleb128 0x3
 2561 1372 F3       		.byte	0xf3
 2562 1373 01       		.uleb128 0x1
 2563 1374 51       		.byte	0x51
 2564 1375 00       		.byte	0
 2565 1376 00       		.byte	0
ARM GAS  /tmp/ccxlM041.s 			page 46


 2566 1377 0B       		.uleb128 0xb
 2567 1378 04       		.byte	0x4
 2568 1379 6B0F0000 		.4byte	0xf6b
 2569 137d 24       		.uleb128 0x24
 2570 137e 58090000 		.4byte	.LASF250
 2571 1382 01       		.byte	0x1
 2572 1383 60       		.byte	0x60
 2573 1384 00000000 		.4byte	.LFB64
 2574 1388 08000000 		.4byte	.LFE64-.LFB64
 2575 138c 01       		.uleb128 0x1
 2576 138d 9C       		.byte	0x9c
 2577 138e C2130000 		.4byte	0x13c2
 2578 1392 25       		.uleb128 0x25
 2579 1393 62757300 		.ascii	"bus\000"
 2580 1397 01       		.byte	0x1
 2581 1398 60       		.byte	0x60
 2582 1399 77130000 		.4byte	0x1377
 2583 139d 4D000000 		.4byte	.LLST1
 2584 13a1 26       		.uleb128 0x26
 2585 13a2 4F060000 		.4byte	.LASF251
 2586 13a6 01       		.byte	0x1
 2587 13a7 60       		.byte	0x60
 2588 13a8 0B0F0000 		.4byte	0xf0b
 2589 13ac 6E000000 		.4byte	.LLST2
 2590 13b0 27       		.uleb128 0x27
 2591 13b1 08000000 		.4byte	.LVL5
 2592 13b5 00140000 		.4byte	0x1400
 2593 13b9 28       		.uleb128 0x28
 2594 13ba 01       		.uleb128 0x1
 2595 13bb 53       		.byte	0x53
 2596 13bc 03       		.uleb128 0x3
 2597 13bd F3       		.byte	0xf3
 2598 13be 01       		.uleb128 0x1
 2599 13bf 51       		.byte	0x51
 2600 13c0 00       		.byte	0
 2601 13c1 00       		.byte	0
 2602 13c2 29       		.uleb128 0x29
 2603 13c3 D0080000 		.4byte	.LASF258
 2604 13c7 01       		.byte	0x1
 2605 13c8 46       		.byte	0x46
 2606 13c9 0B0F0000 		.4byte	0xf0b
 2607 13cd 00000000 		.4byte	.LFB63
 2608 13d1 06000000 		.4byte	.LFE63-.LFB63
 2609 13d5 01       		.uleb128 0x1
 2610 13d6 9C       		.byte	0x9c
 2611 13d7 F4130000 		.4byte	0x13f4
 2612 13db 25       		.uleb128 0x25
 2613 13dc 62757300 		.ascii	"bus\000"
 2614 13e0 01       		.byte	0x1
 2615 13e1 46       		.byte	0x46
 2616 13e2 77130000 		.4byte	0x1377
 2617 13e6 9A000000 		.4byte	.LLST0
 2618 13ea 2A       		.uleb128 0x2a
 2619 13eb 06000000 		.4byte	.LVL2
 2620 13ef 0C140000 		.4byte	0x140c
 2621 13f3 00       		.byte	0
 2622 13f4 2B       		.uleb128 0x2b
ARM GAS  /tmp/ccxlM041.s 			page 47


 2623 13f5 F4000000 		.4byte	.LASF252
 2624 13f9 F4000000 		.4byte	.LASF252
 2625 13fd 15       		.byte	0x15
 2626 13fe 4101     		.2byte	0x141
 2627 1400 2B       		.uleb128 0x2b
 2628 1401 30070000 		.4byte	.LASF253
 2629 1405 30070000 		.4byte	.LASF253
 2630 1409 15       		.byte	0x15
 2631 140a 3D01     		.2byte	0x13d
 2632 140c 2B       		.uleb128 0x2b
 2633 140d F0090000 		.4byte	.LASF254
 2634 1411 F0090000 		.4byte	.LASF254
 2635 1415 15       		.byte	0x15
 2636 1416 3A01     		.2byte	0x13a
 2637 1418 00       		.byte	0
 2638              		.section	.debug_abbrev,"",%progbits
 2639              	.Ldebug_abbrev0:
 2640 0000 01       		.uleb128 0x1
 2641 0001 11       		.uleb128 0x11
 2642 0002 01       		.byte	0x1
 2643 0003 25       		.uleb128 0x25
 2644 0004 0E       		.uleb128 0xe
 2645 0005 13       		.uleb128 0x13
 2646 0006 0B       		.uleb128 0xb
 2647 0007 03       		.uleb128 0x3
 2648 0008 0E       		.uleb128 0xe
 2649 0009 1B       		.uleb128 0x1b
 2650 000a 0E       		.uleb128 0xe
 2651 000b 55       		.uleb128 0x55
 2652 000c 17       		.uleb128 0x17
 2653 000d 11       		.uleb128 0x11
 2654 000e 01       		.uleb128 0x1
 2655 000f 10       		.uleb128 0x10
 2656 0010 17       		.uleb128 0x17
 2657 0011 00       		.byte	0
 2658 0012 00       		.byte	0
 2659 0013 02       		.uleb128 0x2
 2660 0014 24       		.uleb128 0x24
 2661 0015 00       		.byte	0
 2662 0016 0B       		.uleb128 0xb
 2663 0017 0B       		.uleb128 0xb
 2664 0018 3E       		.uleb128 0x3e
 2665 0019 0B       		.uleb128 0xb
 2666 001a 03       		.uleb128 0x3
 2667 001b 08       		.uleb128 0x8
 2668 001c 00       		.byte	0
 2669 001d 00       		.byte	0
 2670 001e 03       		.uleb128 0x3
 2671 001f 16       		.uleb128 0x16
 2672 0020 00       		.byte	0
 2673 0021 03       		.uleb128 0x3
 2674 0022 0E       		.uleb128 0xe
 2675 0023 3A       		.uleb128 0x3a
 2676 0024 0B       		.uleb128 0xb
 2677 0025 3B       		.uleb128 0x3b
 2678 0026 0B       		.uleb128 0xb
 2679 0027 49       		.uleb128 0x49
ARM GAS  /tmp/ccxlM041.s 			page 48


 2680 0028 13       		.uleb128 0x13
 2681 0029 00       		.byte	0
 2682 002a 00       		.byte	0
 2683 002b 04       		.uleb128 0x4
 2684 002c 24       		.uleb128 0x24
 2685 002d 00       		.byte	0
 2686 002e 0B       		.uleb128 0xb
 2687 002f 0B       		.uleb128 0xb
 2688 0030 3E       		.uleb128 0x3e
 2689 0031 0B       		.uleb128 0xb
 2690 0032 03       		.uleb128 0x3
 2691 0033 0E       		.uleb128 0xe
 2692 0034 00       		.byte	0
 2693 0035 00       		.byte	0
 2694 0036 05       		.uleb128 0x5
 2695 0037 35       		.uleb128 0x35
 2696 0038 00       		.byte	0
 2697 0039 49       		.uleb128 0x49
 2698 003a 13       		.uleb128 0x13
 2699 003b 00       		.byte	0
 2700 003c 00       		.byte	0
 2701 003d 06       		.uleb128 0x6
 2702 003e 26       		.uleb128 0x26
 2703 003f 00       		.byte	0
 2704 0040 49       		.uleb128 0x49
 2705 0041 13       		.uleb128 0x13
 2706 0042 00       		.byte	0
 2707 0043 00       		.byte	0
 2708 0044 07       		.uleb128 0x7
 2709 0045 13       		.uleb128 0x13
 2710 0046 01       		.byte	0x1
 2711 0047 03       		.uleb128 0x3
 2712 0048 0E       		.uleb128 0xe
 2713 0049 0B       		.uleb128 0xb
 2714 004a 0B       		.uleb128 0xb
 2715 004b 3A       		.uleb128 0x3a
 2716 004c 0B       		.uleb128 0xb
 2717 004d 3B       		.uleb128 0x3b
 2718 004e 0B       		.uleb128 0xb
 2719 004f 01       		.uleb128 0x1
 2720 0050 13       		.uleb128 0x13
 2721 0051 00       		.byte	0
 2722 0052 00       		.byte	0
 2723 0053 08       		.uleb128 0x8
 2724 0054 0D       		.uleb128 0xd
 2725 0055 00       		.byte	0
 2726 0056 03       		.uleb128 0x3
 2727 0057 0E       		.uleb128 0xe
 2728 0058 3A       		.uleb128 0x3a
 2729 0059 0B       		.uleb128 0xb
 2730 005a 3B       		.uleb128 0x3b
 2731 005b 0B       		.uleb128 0xb
 2732 005c 49       		.uleb128 0x49
 2733 005d 13       		.uleb128 0x13
 2734 005e 38       		.uleb128 0x38
 2735 005f 0B       		.uleb128 0xb
 2736 0060 00       		.byte	0
ARM GAS  /tmp/ccxlM041.s 			page 49


 2737 0061 00       		.byte	0
 2738 0062 09       		.uleb128 0x9
 2739 0063 0D       		.uleb128 0xd
 2740 0064 00       		.byte	0
 2741 0065 03       		.uleb128 0x3
 2742 0066 08       		.uleb128 0x8
 2743 0067 3A       		.uleb128 0x3a
 2744 0068 0B       		.uleb128 0xb
 2745 0069 3B       		.uleb128 0x3b
 2746 006a 0B       		.uleb128 0xb
 2747 006b 49       		.uleb128 0x49
 2748 006c 13       		.uleb128 0x13
 2749 006d 38       		.uleb128 0x38
 2750 006e 0B       		.uleb128 0xb
 2751 006f 00       		.byte	0
 2752 0070 00       		.byte	0
 2753 0071 0A       		.uleb128 0xa
 2754 0072 13       		.uleb128 0x13
 2755 0073 01       		.byte	0x1
 2756 0074 0B       		.uleb128 0xb
 2757 0075 0B       		.uleb128 0xb
 2758 0076 3A       		.uleb128 0x3a
 2759 0077 0B       		.uleb128 0xb
 2760 0078 3B       		.uleb128 0x3b
 2761 0079 0B       		.uleb128 0xb
 2762 007a 01       		.uleb128 0x1
 2763 007b 13       		.uleb128 0x13
 2764 007c 00       		.byte	0
 2765 007d 00       		.byte	0
 2766 007e 0B       		.uleb128 0xb
 2767 007f 0F       		.uleb128 0xf
 2768 0080 00       		.byte	0
 2769 0081 0B       		.uleb128 0xb
 2770 0082 0B       		.uleb128 0xb
 2771 0083 49       		.uleb128 0x49
 2772 0084 13       		.uleb128 0x13
 2773 0085 00       		.byte	0
 2774 0086 00       		.byte	0
 2775 0087 0C       		.uleb128 0xc
 2776 0088 0F       		.uleb128 0xf
 2777 0089 00       		.byte	0
 2778 008a 0B       		.uleb128 0xb
 2779 008b 0B       		.uleb128 0xb
 2780 008c 00       		.byte	0
 2781 008d 00       		.byte	0
 2782 008e 0D       		.uleb128 0xd
 2783 008f 13       		.uleb128 0x13
 2784 0090 01       		.byte	0x1
 2785 0091 03       		.uleb128 0x3
 2786 0092 0E       		.uleb128 0xe
 2787 0093 0B       		.uleb128 0xb
 2788 0094 0B       		.uleb128 0xb
 2789 0095 3A       		.uleb128 0x3a
 2790 0096 0B       		.uleb128 0xb
 2791 0097 3B       		.uleb128 0x3b
 2792 0098 05       		.uleb128 0x5
 2793 0099 01       		.uleb128 0x1
ARM GAS  /tmp/ccxlM041.s 			page 50


 2794 009a 13       		.uleb128 0x13
 2795 009b 00       		.byte	0
 2796 009c 00       		.byte	0
 2797 009d 0E       		.uleb128 0xe
 2798 009e 0D       		.uleb128 0xd
 2799 009f 00       		.byte	0
 2800 00a0 03       		.uleb128 0x3
 2801 00a1 08       		.uleb128 0x8
 2802 00a2 3A       		.uleb128 0x3a
 2803 00a3 0B       		.uleb128 0xb
 2804 00a4 3B       		.uleb128 0x3b
 2805 00a5 05       		.uleb128 0x5
 2806 00a6 49       		.uleb128 0x49
 2807 00a7 13       		.uleb128 0x13
 2808 00a8 38       		.uleb128 0x38
 2809 00a9 0B       		.uleb128 0xb
 2810 00aa 00       		.byte	0
 2811 00ab 00       		.byte	0
 2812 00ac 0F       		.uleb128 0xf
 2813 00ad 15       		.uleb128 0x15
 2814 00ae 01       		.byte	0x1
 2815 00af 27       		.uleb128 0x27
 2816 00b0 19       		.uleb128 0x19
 2817 00b1 01       		.uleb128 0x1
 2818 00b2 13       		.uleb128 0x13
 2819 00b3 00       		.byte	0
 2820 00b4 00       		.byte	0
 2821 00b5 10       		.uleb128 0x10
 2822 00b6 05       		.uleb128 0x5
 2823 00b7 00       		.byte	0
 2824 00b8 49       		.uleb128 0x49
 2825 00b9 13       		.uleb128 0x13
 2826 00ba 00       		.byte	0
 2827 00bb 00       		.byte	0
 2828 00bc 11       		.uleb128 0x11
 2829 00bd 34       		.uleb128 0x34
 2830 00be 00       		.byte	0
 2831 00bf 03       		.uleb128 0x3
 2832 00c0 0E       		.uleb128 0xe
 2833 00c1 3A       		.uleb128 0x3a
 2834 00c2 0B       		.uleb128 0xb
 2835 00c3 3B       		.uleb128 0x3b
 2836 00c4 0B       		.uleb128 0xb
 2837 00c5 49       		.uleb128 0x49
 2838 00c6 13       		.uleb128 0x13
 2839 00c7 3F       		.uleb128 0x3f
 2840 00c8 19       		.uleb128 0x19
 2841 00c9 3C       		.uleb128 0x3c
 2842 00ca 19       		.uleb128 0x19
 2843 00cb 00       		.byte	0
 2844 00cc 00       		.byte	0
 2845 00cd 12       		.uleb128 0x12
 2846 00ce 17       		.uleb128 0x17
 2847 00cf 01       		.byte	0x1
 2848 00d0 0B       		.uleb128 0xb
 2849 00d1 0B       		.uleb128 0xb
 2850 00d2 3A       		.uleb128 0x3a
ARM GAS  /tmp/ccxlM041.s 			page 51


 2851 00d3 0B       		.uleb128 0xb
 2852 00d4 3B       		.uleb128 0x3b
 2853 00d5 0B       		.uleb128 0xb
 2854 00d6 01       		.uleb128 0x1
 2855 00d7 13       		.uleb128 0x13
 2856 00d8 00       		.byte	0
 2857 00d9 00       		.byte	0
 2858 00da 13       		.uleb128 0x13
 2859 00db 0D       		.uleb128 0xd
 2860 00dc 00       		.byte	0
 2861 00dd 03       		.uleb128 0x3
 2862 00de 0E       		.uleb128 0xe
 2863 00df 3A       		.uleb128 0x3a
 2864 00e0 0B       		.uleb128 0xb
 2865 00e1 3B       		.uleb128 0x3b
 2866 00e2 0B       		.uleb128 0xb
 2867 00e3 49       		.uleb128 0x49
 2868 00e4 13       		.uleb128 0x13
 2869 00e5 00       		.byte	0
 2870 00e6 00       		.byte	0
 2871 00e7 14       		.uleb128 0x14
 2872 00e8 15       		.uleb128 0x15
 2873 00e9 01       		.byte	0x1
 2874 00ea 27       		.uleb128 0x27
 2875 00eb 19       		.uleb128 0x19
 2876 00ec 49       		.uleb128 0x49
 2877 00ed 13       		.uleb128 0x13
 2878 00ee 01       		.uleb128 0x1
 2879 00ef 13       		.uleb128 0x13
 2880 00f0 00       		.byte	0
 2881 00f1 00       		.byte	0
 2882 00f2 15       		.uleb128 0x15
 2883 00f3 01       		.uleb128 0x1
 2884 00f4 01       		.byte	0x1
 2885 00f5 49       		.uleb128 0x49
 2886 00f6 13       		.uleb128 0x13
 2887 00f7 01       		.uleb128 0x1
 2888 00f8 13       		.uleb128 0x13
 2889 00f9 00       		.byte	0
 2890 00fa 00       		.byte	0
 2891 00fb 16       		.uleb128 0x16
 2892 00fc 21       		.uleb128 0x21
 2893 00fd 00       		.byte	0
 2894 00fe 49       		.uleb128 0x49
 2895 00ff 13       		.uleb128 0x13
 2896 0100 2F       		.uleb128 0x2f
 2897 0101 0B       		.uleb128 0xb
 2898 0102 00       		.byte	0
 2899 0103 00       		.byte	0
 2900 0104 17       		.uleb128 0x17
 2901 0105 34       		.uleb128 0x34
 2902 0106 00       		.byte	0
 2903 0107 03       		.uleb128 0x3
 2904 0108 0E       		.uleb128 0xe
 2905 0109 3A       		.uleb128 0x3a
 2906 010a 0B       		.uleb128 0xb
 2907 010b 3B       		.uleb128 0x3b
ARM GAS  /tmp/ccxlM041.s 			page 52


 2908 010c 05       		.uleb128 0x5
 2909 010d 49       		.uleb128 0x49
 2910 010e 13       		.uleb128 0x13
 2911 010f 3F       		.uleb128 0x3f
 2912 0110 19       		.uleb128 0x19
 2913 0111 3C       		.uleb128 0x3c
 2914 0112 19       		.uleb128 0x19
 2915 0113 00       		.byte	0
 2916 0114 00       		.byte	0
 2917 0115 18       		.uleb128 0x18
 2918 0116 0D       		.uleb128 0xd
 2919 0117 00       		.byte	0
 2920 0118 49       		.uleb128 0x49
 2921 0119 13       		.uleb128 0x13
 2922 011a 00       		.byte	0
 2923 011b 00       		.byte	0
 2924 011c 19       		.uleb128 0x19
 2925 011d 13       		.uleb128 0x13
 2926 011e 01       		.byte	0x1
 2927 011f 0B       		.uleb128 0xb
 2928 0120 0B       		.uleb128 0xb
 2929 0121 3A       		.uleb128 0x3a
 2930 0122 0B       		.uleb128 0xb
 2931 0123 3B       		.uleb128 0x3b
 2932 0124 05       		.uleb128 0x5
 2933 0125 01       		.uleb128 0x1
 2934 0126 13       		.uleb128 0x13
 2935 0127 00       		.byte	0
 2936 0128 00       		.byte	0
 2937 0129 1A       		.uleb128 0x1a
 2938 012a 0D       		.uleb128 0xd
 2939 012b 00       		.byte	0
 2940 012c 03       		.uleb128 0x3
 2941 012d 0E       		.uleb128 0xe
 2942 012e 3A       		.uleb128 0x3a
 2943 012f 0B       		.uleb128 0xb
 2944 0130 3B       		.uleb128 0x3b
 2945 0131 05       		.uleb128 0x5
 2946 0132 49       		.uleb128 0x49
 2947 0133 13       		.uleb128 0x13
 2948 0134 38       		.uleb128 0x38
 2949 0135 0B       		.uleb128 0xb
 2950 0136 00       		.byte	0
 2951 0137 00       		.byte	0
 2952 0138 1B       		.uleb128 0x1b
 2953 0139 0D       		.uleb128 0xd
 2954 013a 00       		.byte	0
 2955 013b 49       		.uleb128 0x49
 2956 013c 13       		.uleb128 0x13
 2957 013d 38       		.uleb128 0x38
 2958 013e 0B       		.uleb128 0xb
 2959 013f 00       		.byte	0
 2960 0140 00       		.byte	0
 2961 0141 1C       		.uleb128 0x1c
 2962 0142 16       		.uleb128 0x16
 2963 0143 00       		.byte	0
 2964 0144 03       		.uleb128 0x3
ARM GAS  /tmp/ccxlM041.s 			page 53


 2965 0145 0E       		.uleb128 0xe
 2966 0146 3A       		.uleb128 0x3a
 2967 0147 0B       		.uleb128 0xb
 2968 0148 3B       		.uleb128 0x3b
 2969 0149 05       		.uleb128 0x5
 2970 014a 49       		.uleb128 0x49
 2971 014b 13       		.uleb128 0x13
 2972 014c 00       		.byte	0
 2973 014d 00       		.byte	0
 2974 014e 1D       		.uleb128 0x1d
 2975 014f 17       		.uleb128 0x17
 2976 0150 01       		.byte	0x1
 2977 0151 0B       		.uleb128 0xb
 2978 0152 0B       		.uleb128 0xb
 2979 0153 3A       		.uleb128 0x3a
 2980 0154 0B       		.uleb128 0xb
 2981 0155 3B       		.uleb128 0x3b
 2982 0156 05       		.uleb128 0x5
 2983 0157 01       		.uleb128 0x1
 2984 0158 13       		.uleb128 0x13
 2985 0159 00       		.byte	0
 2986 015a 00       		.byte	0
 2987 015b 1E       		.uleb128 0x1e
 2988 015c 0D       		.uleb128 0xd
 2989 015d 00       		.byte	0
 2990 015e 03       		.uleb128 0x3
 2991 015f 08       		.uleb128 0x8
 2992 0160 3A       		.uleb128 0x3a
 2993 0161 0B       		.uleb128 0xb
 2994 0162 3B       		.uleb128 0x3b
 2995 0163 05       		.uleb128 0x5
 2996 0164 49       		.uleb128 0x49
 2997 0165 13       		.uleb128 0x13
 2998 0166 00       		.byte	0
 2999 0167 00       		.byte	0
 3000 0168 1F       		.uleb128 0x1f
 3001 0169 21       		.uleb128 0x21
 3002 016a 00       		.byte	0
 3003 016b 00       		.byte	0
 3004 016c 00       		.byte	0
 3005 016d 20       		.uleb128 0x20
 3006 016e 04       		.uleb128 0x4
 3007 016f 01       		.byte	0x1
 3008 0170 0B       		.uleb128 0xb
 3009 0171 0B       		.uleb128 0xb
 3010 0172 49       		.uleb128 0x49
 3011 0173 13       		.uleb128 0x13
 3012 0174 3A       		.uleb128 0x3a
 3013 0175 0B       		.uleb128 0xb
 3014 0176 3B       		.uleb128 0x3b
 3015 0177 0B       		.uleb128 0xb
 3016 0178 01       		.uleb128 0x1
 3017 0179 13       		.uleb128 0x13
 3018 017a 00       		.byte	0
 3019 017b 00       		.byte	0
 3020 017c 21       		.uleb128 0x21
 3021 017d 28       		.uleb128 0x28
ARM GAS  /tmp/ccxlM041.s 			page 54


 3022 017e 00       		.byte	0
 3023 017f 03       		.uleb128 0x3
 3024 0180 0E       		.uleb128 0xe
 3025 0181 1C       		.uleb128 0x1c
 3026 0182 0B       		.uleb128 0xb
 3027 0183 00       		.byte	0
 3028 0184 00       		.byte	0
 3029 0185 22       		.uleb128 0x22
 3030 0186 34       		.uleb128 0x34
 3031 0187 00       		.byte	0
 3032 0188 03       		.uleb128 0x3
 3033 0189 08       		.uleb128 0x8
 3034 018a 3A       		.uleb128 0x3a
 3035 018b 0B       		.uleb128 0xb
 3036 018c 3B       		.uleb128 0x3b
 3037 018d 0B       		.uleb128 0xb
 3038 018e 49       		.uleb128 0x49
 3039 018f 13       		.uleb128 0x13
 3040 0190 3F       		.uleb128 0x3f
 3041 0191 19       		.uleb128 0x19
 3042 0192 3C       		.uleb128 0x3c
 3043 0193 19       		.uleb128 0x19
 3044 0194 00       		.byte	0
 3045 0195 00       		.byte	0
 3046 0196 23       		.uleb128 0x23
 3047 0197 26       		.uleb128 0x26
 3048 0198 00       		.byte	0
 3049 0199 00       		.byte	0
 3050 019a 00       		.byte	0
 3051 019b 24       		.uleb128 0x24
 3052 019c 2E       		.uleb128 0x2e
 3053 019d 01       		.byte	0x1
 3054 019e 3F       		.uleb128 0x3f
 3055 019f 19       		.uleb128 0x19
 3056 01a0 03       		.uleb128 0x3
 3057 01a1 0E       		.uleb128 0xe
 3058 01a2 3A       		.uleb128 0x3a
 3059 01a3 0B       		.uleb128 0xb
 3060 01a4 3B       		.uleb128 0x3b
 3061 01a5 0B       		.uleb128 0xb
 3062 01a6 27       		.uleb128 0x27
 3063 01a7 19       		.uleb128 0x19
 3064 01a8 11       		.uleb128 0x11
 3065 01a9 01       		.uleb128 0x1
 3066 01aa 12       		.uleb128 0x12
 3067 01ab 06       		.uleb128 0x6
 3068 01ac 40       		.uleb128 0x40
 3069 01ad 18       		.uleb128 0x18
 3070 01ae 9742     		.uleb128 0x2117
 3071 01b0 19       		.uleb128 0x19
 3072 01b1 01       		.uleb128 0x1
 3073 01b2 13       		.uleb128 0x13
 3074 01b3 00       		.byte	0
 3075 01b4 00       		.byte	0
 3076 01b5 25       		.uleb128 0x25
 3077 01b6 05       		.uleb128 0x5
 3078 01b7 00       		.byte	0
ARM GAS  /tmp/ccxlM041.s 			page 55


 3079 01b8 03       		.uleb128 0x3
 3080 01b9 08       		.uleb128 0x8
 3081 01ba 3A       		.uleb128 0x3a
 3082 01bb 0B       		.uleb128 0xb
 3083 01bc 3B       		.uleb128 0x3b
 3084 01bd 0B       		.uleb128 0xb
 3085 01be 49       		.uleb128 0x49
 3086 01bf 13       		.uleb128 0x13
 3087 01c0 02       		.uleb128 0x2
 3088 01c1 17       		.uleb128 0x17
 3089 01c2 00       		.byte	0
 3090 01c3 00       		.byte	0
 3091 01c4 26       		.uleb128 0x26
 3092 01c5 05       		.uleb128 0x5
 3093 01c6 00       		.byte	0
 3094 01c7 03       		.uleb128 0x3
 3095 01c8 0E       		.uleb128 0xe
 3096 01c9 3A       		.uleb128 0x3a
 3097 01ca 0B       		.uleb128 0xb
 3098 01cb 3B       		.uleb128 0x3b
 3099 01cc 0B       		.uleb128 0xb
 3100 01cd 49       		.uleb128 0x49
 3101 01ce 13       		.uleb128 0x13
 3102 01cf 02       		.uleb128 0x2
 3103 01d0 17       		.uleb128 0x17
 3104 01d1 00       		.byte	0
 3105 01d2 00       		.byte	0
 3106 01d3 27       		.uleb128 0x27
 3107 01d4 898201   		.uleb128 0x4109
 3108 01d7 01       		.byte	0x1
 3109 01d8 11       		.uleb128 0x11
 3110 01d9 01       		.uleb128 0x1
 3111 01da 9542     		.uleb128 0x2115
 3112 01dc 19       		.uleb128 0x19
 3113 01dd 31       		.uleb128 0x31
 3114 01de 13       		.uleb128 0x13
 3115 01df 00       		.byte	0
 3116 01e0 00       		.byte	0
 3117 01e1 28       		.uleb128 0x28
 3118 01e2 8A8201   		.uleb128 0x410a
 3119 01e5 00       		.byte	0
 3120 01e6 02       		.uleb128 0x2
 3121 01e7 18       		.uleb128 0x18
 3122 01e8 9142     		.uleb128 0x2111
 3123 01ea 18       		.uleb128 0x18
 3124 01eb 00       		.byte	0
 3125 01ec 00       		.byte	0
 3126 01ed 29       		.uleb128 0x29
 3127 01ee 2E       		.uleb128 0x2e
 3128 01ef 01       		.byte	0x1
 3129 01f0 3F       		.uleb128 0x3f
 3130 01f1 19       		.uleb128 0x19
 3131 01f2 03       		.uleb128 0x3
 3132 01f3 0E       		.uleb128 0xe
 3133 01f4 3A       		.uleb128 0x3a
 3134 01f5 0B       		.uleb128 0xb
 3135 01f6 3B       		.uleb128 0x3b
ARM GAS  /tmp/ccxlM041.s 			page 56


 3136 01f7 0B       		.uleb128 0xb
 3137 01f8 27       		.uleb128 0x27
 3138 01f9 19       		.uleb128 0x19
 3139 01fa 49       		.uleb128 0x49
 3140 01fb 13       		.uleb128 0x13
 3141 01fc 11       		.uleb128 0x11
 3142 01fd 01       		.uleb128 0x1
 3143 01fe 12       		.uleb128 0x12
 3144 01ff 06       		.uleb128 0x6
 3145 0200 40       		.uleb128 0x40
 3146 0201 18       		.uleb128 0x18
 3147 0202 9742     		.uleb128 0x2117
 3148 0204 19       		.uleb128 0x19
 3149 0205 01       		.uleb128 0x1
 3150 0206 13       		.uleb128 0x13
 3151 0207 00       		.byte	0
 3152 0208 00       		.byte	0
 3153 0209 2A       		.uleb128 0x2a
 3154 020a 898201   		.uleb128 0x4109
 3155 020d 00       		.byte	0
 3156 020e 11       		.uleb128 0x11
 3157 020f 01       		.uleb128 0x1
 3158 0210 9542     		.uleb128 0x2115
 3159 0212 19       		.uleb128 0x19
 3160 0213 31       		.uleb128 0x31
 3161 0214 13       		.uleb128 0x13
 3162 0215 00       		.byte	0
 3163 0216 00       		.byte	0
 3164 0217 2B       		.uleb128 0x2b
 3165 0218 2E       		.uleb128 0x2e
 3166 0219 00       		.byte	0
 3167 021a 3F       		.uleb128 0x3f
 3168 021b 19       		.uleb128 0x19
 3169 021c 3C       		.uleb128 0x3c
 3170 021d 19       		.uleb128 0x19
 3171 021e 6E       		.uleb128 0x6e
 3172 021f 0E       		.uleb128 0xe
 3173 0220 03       		.uleb128 0x3
 3174 0221 0E       		.uleb128 0xe
 3175 0222 3A       		.uleb128 0x3a
 3176 0223 0B       		.uleb128 0xb
 3177 0224 3B       		.uleb128 0x3b
 3178 0225 05       		.uleb128 0x5
 3179 0226 00       		.byte	0
 3180 0227 00       		.byte	0
 3181 0228 00       		.byte	0
 3182              		.section	.debug_loc,"",%progbits
 3183              	.Ldebug_loc0:
 3184              	.LLST3:
 3185 0000 00000000 		.4byte	.LVL6
 3186 0004 0A000000 		.4byte	.LVL7
 3187 0008 0100     		.2byte	0x1
 3188 000a 50       		.byte	0x50
 3189 000b 0A000000 		.4byte	.LVL7
 3190 000f 14000000 		.4byte	.LFE65
 3191 0013 0400     		.2byte	0x4
 3192 0015 F3       		.byte	0xf3
ARM GAS  /tmp/ccxlM041.s 			page 57


 3193 0016 01       		.uleb128 0x1
 3194 0017 50       		.byte	0x50
 3195 0018 9F       		.byte	0x9f
 3196 0019 00000000 		.4byte	0
 3197 001d 00000000 		.4byte	0
 3198              	.LLST4:
 3199 0021 00000000 		.4byte	.LVL6
 3200 0025 0E000000 		.4byte	.LVL8
 3201 0029 0100     		.2byte	0x1
 3202 002b 51       		.byte	0x51
 3203 002c 0E000000 		.4byte	.LVL8
 3204 0030 13000000 		.4byte	.LVL9-1
 3205 0034 0100     		.2byte	0x1
 3206 0036 52       		.byte	0x52
 3207 0037 13000000 		.4byte	.LVL9-1
 3208 003b 14000000 		.4byte	.LFE65
 3209 003f 0400     		.2byte	0x4
 3210 0041 F3       		.byte	0xf3
 3211 0042 01       		.uleb128 0x1
 3212 0043 51       		.byte	0x51
 3213 0044 9F       		.byte	0x9f
 3214 0045 00000000 		.4byte	0
 3215 0049 00000000 		.4byte	0
 3216              	.LLST1:
 3217 004d 00000000 		.4byte	.LVL3
 3218 0051 04000000 		.4byte	.LVL4
 3219 0055 0100     		.2byte	0x1
 3220 0057 50       		.byte	0x50
 3221 0058 04000000 		.4byte	.LVL4
 3222 005c 08000000 		.4byte	.LFE64
 3223 0060 0400     		.2byte	0x4
 3224 0062 F3       		.byte	0xf3
 3225 0063 01       		.uleb128 0x1
 3226 0064 50       		.byte	0x50
 3227 0065 9F       		.byte	0x9f
 3228 0066 00000000 		.4byte	0
 3229 006a 00000000 		.4byte	0
 3230              	.LLST2:
 3231 006e 00000000 		.4byte	.LVL3
 3232 0072 04000000 		.4byte	.LVL4
 3233 0076 0100     		.2byte	0x1
 3234 0078 51       		.byte	0x51
 3235 0079 04000000 		.4byte	.LVL4
 3236 007d 07000000 		.4byte	.LVL5-1
 3237 0081 0100     		.2byte	0x1
 3238 0083 53       		.byte	0x53
 3239 0084 07000000 		.4byte	.LVL5-1
 3240 0088 08000000 		.4byte	.LFE64
 3241 008c 0400     		.2byte	0x4
 3242 008e F3       		.byte	0xf3
 3243 008f 01       		.uleb128 0x1
 3244 0090 51       		.byte	0x51
 3245 0091 9F       		.byte	0x9f
 3246 0092 00000000 		.4byte	0
 3247 0096 00000000 		.4byte	0
 3248              	.LLST0:
 3249 009a 00000000 		.4byte	.LVL0
ARM GAS  /tmp/ccxlM041.s 			page 58


 3250 009e 02000000 		.4byte	.LVL1
 3251 00a2 0100     		.2byte	0x1
 3252 00a4 50       		.byte	0x50
 3253 00a5 02000000 		.4byte	.LVL1
 3254 00a9 06000000 		.4byte	.LFE63
 3255 00ad 0400     		.2byte	0x4
 3256 00af F3       		.byte	0xf3
 3257 00b0 01       		.uleb128 0x1
 3258 00b1 50       		.byte	0x50
 3259 00b2 9F       		.byte	0x9f
 3260 00b3 00000000 		.4byte	0
 3261 00b7 00000000 		.4byte	0
 3262              		.section	.debug_aranges,"",%progbits
 3263 0000 2C000000 		.4byte	0x2c
 3264 0004 0200     		.2byte	0x2
 3265 0006 00000000 		.4byte	.Ldebug_info0
 3266 000a 04       		.byte	0x4
 3267 000b 00       		.byte	0
 3268 000c 0000     		.2byte	0
 3269 000e 0000     		.2byte	0
 3270 0010 00000000 		.4byte	.LFB63
 3271 0014 06000000 		.4byte	.LFE63-.LFB63
 3272 0018 00000000 		.4byte	.LFB64
 3273 001c 08000000 		.4byte	.LFE64-.LFB64
 3274 0020 00000000 		.4byte	.LFB65
 3275 0024 14000000 		.4byte	.LFE65-.LFB65
 3276 0028 00000000 		.4byte	0
 3277 002c 00000000 		.4byte	0
 3278              		.section	.debug_ranges,"",%progbits
 3279              	.Ldebug_ranges0:
 3280 0000 00000000 		.4byte	.LFB63
 3281 0004 06000000 		.4byte	.LFE63
 3282 0008 00000000 		.4byte	.LFB64
 3283 000c 08000000 		.4byte	.LFE64
 3284 0010 00000000 		.4byte	.LFB65
 3285 0014 14000000 		.4byte	.LFE65
 3286 0018 00000000 		.4byte	0
 3287 001c 00000000 		.4byte	0
 3288              		.section	.debug_line,"",%progbits
 3289              	.Ldebug_line0:
 3290 0000 CF020000 		.section	.debug_str,"MS",%progbits,1
 3290      02009402 
 3290      00000201 
 3290      FB0E0D00 
 3290      01010101 
 3291              	.LASF4:
 3292 0000 73697A65 		.ascii	"size_t\000"
 3292      5F7400
 3293              	.LASF58:
 3294 0007 73697A65 		.ascii	"sizetype\000"
 3294      74797065 
 3294      00
 3295              	.LASF104:
 3296 0010 63665F6F 		.ascii	"cf_off_name\000"
 3296      66665F6E 
 3296      616D6500 
 3297              	.LASF31:
ARM GAS  /tmp/ccxlM041.s 			page 59


 3298 001c 73797374 		.ascii	"systime_t\000"
 3298      696D655F 
 3298      7400
 3299              	.LASF93:
 3300 0026 63685F69 		.ascii	"ch_identifier\000"
 3300      64656E74 
 3300      69666965 
 3300      7200
 3301              	.LASF36:
 3302 0034 705F6374 		.ascii	"p_ctx\000"
 3302      7800
 3303              	.LASF27:
 3304 003a 74707269 		.ascii	"tprio_t\000"
 3304      6F5F7400 
 3305              	.LASF112:
 3306 0042 63685F64 		.ascii	"ch_debug\000"
 3306      65627567 
 3306      00
 3307              	.LASF46:
 3308 004b 705F6D73 		.ascii	"p_msgqueue\000"
 3308      67717565 
 3308      756500
 3309              	.LASF70:
 3310 0056 725F6374 		.ascii	"r_ctx\000"
 3310      7800
 3311              	.LASF18:
 3312 005c 696E7433 		.ascii	"int32_t\000"
 3312      325F7400 
 3313              	.LASF225:
 3314 0064 77726974 		.ascii	"writet\000"
 3314      657400
 3315              	.LASF101:
 3316 006b 63665F6F 		.ascii	"cf_off_ctx\000"
 3316      66665F63 
 3316      747800
 3317              	.LASF59:
 3318 0076 76746675 		.ascii	"vtfunc_t\000"
 3318      6E635F74 
 3318      00
 3319              	.LASF242:
 3320 007f 7373706F 		.ascii	"ssport\000"
 3320      727400
 3321              	.LASF179:
 3322 0086 4C50435F 		.ascii	"LPC_GPDMACH_TypeDef\000"
 3322      4750444D 
 3322      4143485F 
 3322      54797065 
 3322      44656600 
 3323              	.LASF221:
 3324 009a 77726974 		.ascii	"write\000"
 3324      6500
 3325              	.LASF166:
 3326 00a0 43544352 		.ascii	"CTCR\000"
 3326      00
 3327              	.LASF85:
 3328 00a5 656C5F66 		.ascii	"el_flags\000"
 3328      6C616773 
ARM GAS  /tmp/ccxlM041.s 			page 60


 3328      00
 3329              	.LASF197:
 3330 00ae 67707473 		.ascii	"gptstate_t\000"
 3330      74617465 
 3330      5F7400
 3331              	.LASF200:
 3332 00b9 636F6E66 		.ascii	"config\000"
 3332      696700
 3333              	.LASF199:
 3334 00c0 73746174 		.ascii	"state\000"
 3334      6500
 3335              	.LASF223:
 3336 00c6 70757474 		.ascii	"putt\000"
 3336      00
 3337              	.LASF246:
 3338 00cb 53504944 		.ascii	"SPID1\000"
 3338      3100
 3339              	.LASF247:
 3340 00d1 53504944 		.ascii	"SPID2\000"
 3340      3200
 3341              	.LASF97:
 3342 00d7 63685F70 		.ascii	"ch_ptrsize\000"
 3342      74727369 
 3342      7A6500
 3343              	.LASF205:
 3344 00e2 63616C6C 		.ascii	"callback\000"
 3344      6261636B 
 3344      00
 3345              	.LASF185:
 3346 00eb 696F6D6F 		.ascii	"iomode_t\000"
 3346      64655F74 
 3346      00
 3347              	.LASF252:
 3348 00f4 5F70616C 		.ascii	"_pal_lld_setgroupmode\000"
 3348      5F6C6C64 
 3348      5F736574 
 3348      67726F75 
 3348      706D6F64 
 3349              	.LASF79:
 3350 010a 6D5F6F77 		.ascii	"m_owner\000"
 3350      6E657200 
 3351              	.LASF65:
 3352 0112 76745F70 		.ascii	"vt_par\000"
 3352      617200
 3353              	.LASF241:
 3354 0119 656E645F 		.ascii	"end_cb\000"
 3354      636200
 3355              	.LASF89:
 3356 0120 65786974 		.ascii	"exitcode\000"
 3356      636F6465 
 3356      00
 3357              	.LASF5:
 3358 0129 5F5F7569 		.ascii	"__uint8_t\000"
 3358      6E74385F 
 3358      7400
 3359              	.LASF117:
 3360 0133 715F746F 		.ascii	"q_top\000"
ARM GAS  /tmp/ccxlM041.s 			page 61


 3360      7000
 3361              	.LASF175:
 3362 0139 43446573 		.ascii	"CDestAddr\000"
 3362      74416464 
 3362      7200
 3363              	.LASF91:
 3364 0143 65776D61 		.ascii	"ewmask\000"
 3364      736B00
 3365              	.LASF99:
 3366 014a 63685F74 		.ascii	"ch_threadsize\000"
 3366      68726561 
 3366      6473697A 
 3366      6500
 3367              	.LASF226:
 3368 0158 72656164 		.ascii	"readt\000"
 3368      7400
 3369              	.LASF116:
 3370 015e 715F6275 		.ascii	"q_buffer\000"
 3370      66666572 
 3370      00
 3371              	.LASF174:
 3372 0167 43537263 		.ascii	"CSrcAddr\000"
 3372      41646472 
 3372      00
 3373              	.LASF120:
 3374 0170 715F6E6F 		.ascii	"q_notify\000"
 3374      74696679 
 3374      00
 3375              	.LASF37:
 3376 0179 705F6E65 		.ascii	"p_newer\000"
 3376      77657200 
 3377              	.LASF228:
 3378 0181 5350495F 		.ascii	"SPI_STOP\000"
 3378      53544F50 
 3378      00
 3379              	.LASF11:
 3380 018a 6C6F6E67 		.ascii	"long int\000"
 3380      20696E74 
 3380      00
 3381              	.LASF227:
 3382 0193 5350495F 		.ascii	"SPI_UNINIT\000"
 3382      554E494E 
 3382      495400
 3383              	.LASF33:
 3384 019e 705F6E65 		.ascii	"p_next\000"
 3384      787400
 3385              	.LASF119:
 3386 01a5 715F7264 		.ascii	"q_rdptr\000"
 3386      70747200 
 3387              	.LASF238:
 3388 01ad 7478636E 		.ascii	"txcnt\000"
 3388      7400
 3389              	.LASF106:
 3390 01b3 63665F6F 		.ascii	"cf_off_state\000"
 3390      66665F73 
 3390      74617465 
 3390      00
ARM GAS  /tmp/ccxlM041.s 			page 62


 3391              	.LASF34:
 3392 01c0 705F7072 		.ascii	"p_prev\000"
 3392      657600
 3393              	.LASF207:
 3394 01c7 47505444 		.ascii	"GPTD1\000"
 3394      3100
 3395              	.LASF208:
 3396 01cd 47505444 		.ascii	"GPTD2\000"
 3396      3200
 3397              	.LASF209:
 3398 01d3 47505444 		.ascii	"GPTD3\000"
 3398      3300
 3399              	.LASF210:
 3400 01d9 47505444 		.ascii	"GPTD4\000"
 3400      3400
 3401              	.LASF186:
 3402 01df 696F706F 		.ascii	"ioportid_t\000"
 3402      72746964 
 3402      5F7400
 3403              	.LASF24:
 3404 01ea 74737461 		.ascii	"tstate_t\000"
 3404      74655F74 
 3404      00
 3405              	.LASF49:
 3406 01f3 705F6D74 		.ascii	"p_mtxlist\000"
 3406      786C6973 
 3406      7400
 3407              	.LASF218:
 3408 01fd 6F717565 		.ascii	"oqueue\000"
 3408      756500
 3409              	.LASF54:
 3410 0204 72656761 		.ascii	"regarm_t\000"
 3410      726D5F74 
 3410      00
 3411              	.LASF173:
 3412 020d 4C50435F 		.ascii	"LPC_SSP_TypeDef\000"
 3412      5353505F 
 3412      54797065 
 3412      44656600 
 3413              	.LASF187:
 3414 021d 70616C5F 		.ascii	"pal_default_config\000"
 3414      64656661 
 3414      756C745F 
 3414      636F6E66 
 3414      696700
 3415              	.LASF3:
 3416 0230 7369676E 		.ascii	"signed char\000"
 3416      65642063 
 3416      68617200 
 3417              	.LASF43:
 3418 023c 705F7072 		.ascii	"p_preempt\000"
 3418      65656D70 
 3418      7400
 3419              	.LASF16:
 3420 0246 75696E74 		.ascii	"uint8_t\000"
 3420      385F7400 
 3421              	.LASF171:
ARM GAS  /tmp/ccxlM041.s 			page 63


 3422 024e 494D5343 		.ascii	"IMSC\000"
 3422      00
 3423              	.LASF188:
 3424 0253 706F7274 		.ascii	"portid\000"
 3424      696400
 3425              	.LASF29:
 3426 025a 6576656E 		.ascii	"eventmask_t\000"
 3426      746D6173 
 3426      6B5F7400 
 3427              	.LASF57:
 3428 0266 636F6E74 		.ascii	"context\000"
 3428      65787400 
 3429              	.LASF163:
 3430 026e 52455345 		.ascii	"RESERVED0\000"
 3430      52564544 
 3430      3000
 3431              	.LASF165:
 3432 0278 52455345 		.ascii	"RESERVED1\000"
 3432      52564544 
 3432      3100
 3433              	.LASF6:
 3434 0282 756E7369 		.ascii	"unsigned char\000"
 3434      676E6564 
 3434      20636861 
 3434      7200
 3435              	.LASF233:
 3436 0290 53504944 		.ascii	"SPIDriver\000"
 3436      72697665 
 3436      7200
 3437              	.LASF121:
 3438 029a 715F6C69 		.ascii	"q_link\000"
 3438      6E6B00
 3439              	.LASF240:
 3440 02a1 73706963 		.ascii	"spicallback_t\000"
 3440      616C6C62 
 3440      61636B5F 
 3440      7400
 3441              	.LASF62:
 3442 02af 76745F70 		.ascii	"vt_prev\000"
 3442      72657600 
 3443              	.LASF71:
 3444 02b7 725F6E65 		.ascii	"r_newer\000"
 3444      77657200 
 3445              	.LASF211:
 3446 02bf 53445F55 		.ascii	"SD_UNINIT\000"
 3446      4E494E49 
 3446      5400
 3447              	.LASF22:
 3448 02c9 5F426F6F 		.ascii	"_Bool\000"
 3448      6C00
 3449              	.LASF168:
 3450 02cf 52455345 		.ascii	"RESERVED2\000"
 3450      52564544 
 3450      3200
 3451              	.LASF172:
 3452 02d9 444D4143 		.ascii	"DMACR\000"
 3452      5200
ARM GAS  /tmp/ccxlM041.s 			page 64


 3453              	.LASF92:
 3454 02df 63686172 		.ascii	"char\000"
 3454      00
 3455              	.LASF237:
 3456 02e4 72787074 		.ascii	"rxptr\000"
 3456      7200
 3457              	.LASF192:
 3458 02ea 4750545F 		.ascii	"GPT_UNINIT\000"
 3458      554E494E 
 3458      495400
 3459              	.LASF35:
 3460 02f5 705F7072 		.ascii	"p_prio\000"
 3460      696F00
 3461              	.LASF8:
 3462 02fc 5F5F7569 		.ascii	"__uint16_t\000"
 3462      6E743136 
 3462      5F7400
 3463              	.LASF113:
 3464 0307 47656E65 		.ascii	"GenericQueue\000"
 3464      72696351 
 3464      75657565 
 3464      00
 3465              	.LASF90:
 3466 0314 77746F62 		.ascii	"wtobjp\000"
 3466      6A7000
 3467              	.LASF102:
 3468 031b 63665F6F 		.ascii	"cf_off_newer\000"
 3468      66665F6E 
 3468      65776572 
 3468      00
 3469              	.LASF224:
 3470 0328 67657474 		.ascii	"gett\000"
 3470      00
 3471              	.LASF55:
 3472 032d 73746B61 		.ascii	"stkalign_t\000"
 3472      6C69676E 
 3472      5F7400
 3473              	.LASF151:
 3474 0338 46494F53 		.ascii	"FIOSET0\000"
 3474      45543000 
 3475              	.LASF152:
 3476 0340 46494F53 		.ascii	"FIOSET1\000"
 3476      45543100 
 3477              	.LASF153:
 3478 0348 46494F53 		.ascii	"FIOSET2\000"
 3478      45543200 
 3479              	.LASF124:
 3480 0350 4F757470 		.ascii	"OutputQueue\000"
 3480      75745175 
 3480      65756500 
 3481              	.LASF150:
 3482 035c 46494F53 		.ascii	"FIOSETH\000"
 3482      45544800 
 3483              	.LASF149:
 3484 0364 46494F53 		.ascii	"FIOSETL\000"
 3484      45544C00 
 3485              	.LASF100:
ARM GAS  /tmp/ccxlM041.s 			page 65


 3486 036c 63665F6F 		.ascii	"cf_off_prio\000"
 3486      66665F70 
 3486      72696F00 
 3487              	.LASF184:
 3488 0378 696F706F 		.ascii	"ioportmask_t\000"
 3488      72746D61 
 3488      736B5F74 
 3488      00
 3489              	.LASF64:
 3490 0385 76745F66 		.ascii	"vt_func\000"
 3490      756E6300 
 3491              	.LASF191:
 3492 038d 494F4275 		.ascii	"IOBus\000"
 3492      7300
 3493              	.LASF56:
 3494 0393 696E7463 		.ascii	"intctx\000"
 3494      747800
 3495              	.LASF48:
 3496 039a 705F6570 		.ascii	"p_epending\000"
 3496      656E6469 
 3496      6E6700
 3497              	.LASF87:
 3498 03a5 65735F6E 		.ascii	"es_next\000"
 3498      65787400 
 3499              	.LASF115:
 3500 03ad 715F636F 		.ascii	"q_counter\000"
 3500      756E7465 
 3500      7200
 3501              	.LASF144:
 3502 03b7 46494F50 		.ascii	"FIOPIN0\000"
 3502      494E3000 
 3503              	.LASF145:
 3504 03bf 46494F50 		.ascii	"FIOPIN1\000"
 3504      494E3100 
 3505              	.LASF146:
 3506 03c7 46494F50 		.ascii	"FIOPIN2\000"
 3506      494E3200 
 3507              	.LASF147:
 3508 03cf 46494F50 		.ascii	"FIOPIN3\000"
 3508      494E3300 
 3509              	.LASF86:
 3510 03d7 4576656E 		.ascii	"EventSource\000"
 3510      74536F75 
 3510      72636500 
 3511              	.LASF14:
 3512 03e3 5F5F7569 		.ascii	"__uint64_t\000"
 3512      6E743634 
 3512      5F7400
 3513              	.LASF13:
 3514 03ee 6C6F6E67 		.ascii	"long unsigned int\000"
 3514      20756E73 
 3514      69676E65 
 3514      6420696E 
 3514      7400
 3515              	.LASF94:
 3516 0400 63685F7A 		.ascii	"ch_zero\000"
 3516      65726F00 
ARM GAS  /tmp/ccxlM041.s 			page 66


 3517              	.LASF143:
 3518 0408 46494F50 		.ascii	"FIOPINH\000"
 3518      494E4800 
 3519              	.LASF142:
 3520 0410 46494F50 		.ascii	"FIOPINL\000"
 3520      494E4C00 
 3521              	.LASF127:
 3522 0418 53797374 		.ascii	"SystemCoreClock\000"
 3522      656D436F 
 3522      7265436C 
 3522      6F636B00 
 3523              	.LASF203:
 3524 0428 67707466 		.ascii	"gptfreq_t\000"
 3524      7265715F 
 3524      7400
 3525              	.LASF177:
 3526 0432 43436F6E 		.ascii	"CControl\000"
 3526      74726F6C 
 3526      00
 3527              	.LASF82:
 3528 043b 656C5F6E 		.ascii	"el_next\000"
 3528      65787400 
 3529              	.LASF118:
 3530 0443 715F7772 		.ascii	"q_wrptr\000"
 3530      70747200 
 3531              	.LASF180:
 3532 044b 5F6C7063 		.ascii	"_lpc17xx_dma_channel_config_t\000"
 3532      31377878 
 3532      5F646D61 
 3532      5F636861 
 3532      6E6E656C 
 3533              	.LASF220:
 3534 0469 53657269 		.ascii	"SerialDriverVMT\000"
 3534      616C4472 
 3534      69766572 
 3534      564D5400 
 3535              	.LASF141:
 3536 0479 46494F4D 		.ascii	"FIOMASK\000"
 3536      41534B00 
 3537              	.LASF201:
 3538 0481 636C6F63 		.ascii	"clock\000"
 3538      6B00
 3539              	.LASF206:
 3540 0487 47505443 		.ascii	"GPTConfig\000"
 3540      6F6E6669 
 3540      6700
 3541              	.LASF236:
 3542 0491 7278636E 		.ascii	"rxcnt\000"
 3542      7400
 3543              	.LASF244:
 3544 0497 63707372 		.ascii	"cpsr\000"
 3544      00
 3545              	.LASF130:
 3546 049c 46494F44 		.ascii	"FIODIR0\000"
 3546      49523000 
 3547              	.LASF131:
 3548 04a4 46494F44 		.ascii	"FIODIR1\000"
ARM GAS  /tmp/ccxlM041.s 			page 67


 3548      49523100 
 3549              	.LASF132:
 3550 04ac 46494F44 		.ascii	"FIODIR2\000"
 3550      49523200 
 3551              	.LASF133:
 3552 04b4 46494F44 		.ascii	"FIODIR3\000"
 3552      49523300 
 3553              	.LASF109:
 3554 04bc 63665F6F 		.ascii	"cf_off_preempt\000"
 3554      66665F70 
 3554      7265656D 
 3554      707400
 3555              	.LASF129:
 3556 04cb 46494F44 		.ascii	"FIODIRH\000"
 3556      49524800 
 3557              	.LASF128:
 3558 04d3 46494F44 		.ascii	"FIODIRL\000"
 3558      49524C00 
 3559              	.LASF12:
 3560 04db 5F5F7569 		.ascii	"__uint32_t\000"
 3560      6E743332 
 3560      5F7400
 3561              	.LASF77:
 3562 04e6 4D757465 		.ascii	"Mutex\000"
 3562      7800
 3563              	.LASF229:
 3564 04ec 5350495F 		.ascii	"SPI_READY\000"
 3564      52454144 
 3564      5900
 3565              	.LASF1:
 3566 04f6 6C6F6E67 		.ascii	"long long int\000"
 3566      206C6F6E 
 3566      6720696E 
 3566      7400
 3567              	.LASF96:
 3568 0504 63685F76 		.ascii	"ch_version\000"
 3568      65727369 
 3568      6F6E00
 3569              	.LASF78:
 3570 050f 6D5F7175 		.ascii	"m_queue\000"
 3570      65756500 
 3571              	.LASF198:
 3572 0517 47505444 		.ascii	"GPTDriver\000"
 3572      72697665 
 3572      7200
 3573              	.LASF61:
 3574 0521 76745F6E 		.ascii	"vt_next\000"
 3574      65787400 
 3575              	.LASF155:
 3576 0529 46494F53 		.ascii	"FIOSET\000"
 3576      455400
 3577              	.LASF189:
 3578 0530 6D61736B 		.ascii	"mask\000"
 3578      00
 3579              	.LASF235:
 3580 0535 6D757465 		.ascii	"mutex\000"
 3580      7800
ARM GAS  /tmp/ccxlM041.s 			page 68


 3581              	.LASF126:
 3582 053b 49544D5F 		.ascii	"ITM_RxBuffer\000"
 3582      52784275 
 3582      66666572 
 3582      00
 3583              	.LASF204:
 3584 0548 66726571 		.ascii	"frequency\000"
 3584      75656E63 
 3584      7900
 3585              	.LASF122:
 3586 0552 716E6F74 		.ascii	"qnotify_t\000"
 3586      6966795F 
 3586      7400
 3587              	.LASF196:
 3588 055c 4750545F 		.ascii	"GPT_ONESHOT\000"
 3588      4F4E4553 
 3588      484F5400 
 3589              	.LASF45:
 3590 0568 705F7761 		.ascii	"p_waiting\000"
 3590      6974696E 
 3590      6700
 3591              	.LASF216:
 3592 0572 6576656E 		.ascii	"event\000"
 3592      7400
 3593              	.LASF41:
 3594 0578 705F666C 		.ascii	"p_flags\000"
 3594      61677300 
 3595              	.LASF222:
 3596 0580 72656164 		.ascii	"read\000"
 3596      00
 3597              	.LASF0:
 3598 0585 756E7369 		.ascii	"unsigned int\000"
 3598      676E6564 
 3598      20696E74 
 3598      00
 3599              	.LASF105:
 3600 0592 63665F6F 		.ascii	"cf_off_stklimit\000"
 3600      66665F73 
 3600      746B6C69 
 3600      6D697400 
 3601              	.LASF245:
 3602 05a2 53504943 		.ascii	"SPIConfig\000"
 3602      6F6E6669 
 3602      6700
 3603              	.LASF230:
 3604 05ac 5350495F 		.ascii	"SPI_ACTIVE\000"
 3604      41435449 
 3604      564500
 3605              	.LASF137:
 3606 05b7 46494F4D 		.ascii	"FIOMASK0\000"
 3606      41534B30 
 3606      00
 3607              	.LASF138:
 3608 05c0 46494F4D 		.ascii	"FIOMASK1\000"
 3608      41534B31 
 3608      00
 3609              	.LASF139:
ARM GAS  /tmp/ccxlM041.s 			page 69


 3610 05c9 46494F4D 		.ascii	"FIOMASK2\000"
 3610      41534B32 
 3610      00
 3611              	.LASF140:
 3612 05d2 46494F4D 		.ascii	"FIOMASK3\000"
 3612      41534B33 
 3612      00
 3613              	.LASF51:
 3614 05db 705F6D70 		.ascii	"p_mpool\000"
 3614      6F6F6C00 
 3615              	.LASF158:
 3616 05e3 46494F43 		.ascii	"FIOCLR0\000"
 3616      4C523000 
 3617              	.LASF159:
 3618 05eb 46494F43 		.ascii	"FIOCLR1\000"
 3618      4C523100 
 3619              	.LASF160:
 3620 05f3 46494F43 		.ascii	"FIOCLR2\000"
 3620      4C523200 
 3621              	.LASF161:
 3622 05fb 46494F43 		.ascii	"FIOCLR3\000"
 3622      4C523300 
 3623              	.LASF42:
 3624 0603 705F7265 		.ascii	"p_refs\000"
 3624      667300
 3625              	.LASF136:
 3626 060a 46494F4D 		.ascii	"FIOMASKH\000"
 3626      41534B48 
 3626      00
 3627              	.LASF135:
 3628 0613 46494F4D 		.ascii	"FIOMASKL\000"
 3628      41534B4C 
 3628      00
 3629              	.LASF98:
 3630 061c 63685F74 		.ascii	"ch_timesize\000"
 3630      696D6573 
 3630      697A6500 
 3631              	.LASF256:
 3632 0628 2E2E2F2E 		.ascii	"../../os/hal/src/pal.c\000"
 3632      2E2F6F73 
 3632      2F68616C 
 3632      2F737263 
 3632      2F70616C 
 3633              	.LASF157:
 3634 063f 46494F43 		.ascii	"FIOCLRH\000"
 3634      4C524800 
 3635              	.LASF156:
 3636 0647 46494F43 		.ascii	"FIOCLRL\000"
 3636      4C524C00 
 3637              	.LASF251:
 3638 064f 62697473 		.ascii	"bits\000"
 3638      00
 3639              	.LASF255:
 3640 0654 474E5520 		.ascii	"GNU C11 6.3.1 20170620 -mcpu=cortex-m3 -mno-thumb-i"
 3640      43313120 
 3640      362E332E 
 3640      31203230 
ARM GAS  /tmp/ccxlM041.s 			page 70


 3640      31373036 
 3641 0687 6E746572 		.ascii	"nterwork -mthumb -ggdb -O2 -fomit-frame-pointer -ff"
 3641      776F726B 
 3641      202D6D74 
 3641      68756D62 
 3641      202D6767 
 3642 06ba 756E6374 		.ascii	"unction-sections -fdata-sections -fno-common\000"
 3642      696F6E2D 
 3642      73656374 
 3642      696F6E73 
 3642      202D6664 
 3643              	.LASF53:
 3644 06e7 54687265 		.ascii	"ThreadsList\000"
 3644      6164734C 
 3644      69737400 
 3645              	.LASF190:
 3646 06f3 6F666673 		.ascii	"offset\000"
 3646      657400
 3647              	.LASF30:
 3648 06fa 666C6167 		.ascii	"flagsmask_t\000"
 3648      736D6173 
 3648      6B5F7400 
 3649              	.LASF44:
 3650 0706 705F7469 		.ascii	"p_time\000"
 3650      6D6500
 3651              	.LASF134:
 3652 070d 46494F44 		.ascii	"FIODIR\000"
 3652      495200
 3653              	.LASF108:
 3654 0714 63665F6F 		.ascii	"cf_off_refs\000"
 3654      66665F72 
 3654      65667300 
 3655              	.LASF167:
 3656 0720 4C50435F 		.ascii	"LPC_TIM_TypeDef\000"
 3656      54494D5F 
 3656      54797065 
 3656      44656600 
 3657              	.LASF253:
 3658 0730 5F70616C 		.ascii	"_pal_lld_writegroup\000"
 3658      5F6C6C64 
 3658      5F777269 
 3658      74656772 
 3658      6F757000 
 3659              	.LASF162:
 3660 0744 46494F43 		.ascii	"FIOCLR\000"
 3660      4C5200
 3661              	.LASF2:
 3662 074b 6C6F6E67 		.ascii	"long double\000"
 3662      20646F75 
 3662      626C6500 
 3663              	.LASF50:
 3664 0757 705F7265 		.ascii	"p_realprio\000"
 3664      616C7072 
 3664      696F00
 3665              	.LASF110:
 3666 0762 63665F6F 		.ascii	"cf_off_time\000"
 3666      66665F74 
ARM GAS  /tmp/ccxlM041.s 			page 71


 3666      696D6500 
 3667              	.LASF257:
 3668 076e 2F686F6D 		.ascii	"/home/ekobayu/Arok-Gandring-Lokajaya/LPC/ChibiOS-RT"
 3668      652F656B 
 3668      6F626179 
 3668      752F4172 
 3668      6F6B2D47 
 3669 07a1 2D4C5043 		.ascii	"-LPC/demos/LPC1766\000"
 3669      2F64656D 
 3669      6F732F4C 
 3669      50433137 
 3669      363600
 3670              	.LASF15:
 3671 07b4 6C6F6E67 		.ascii	"long long unsigned int\000"
 3671      206C6F6E 
 3671      6720756E 
 3671      7369676E 
 3671      65642069 
 3672              	.LASF38:
 3673 07cb 705F6F6C 		.ascii	"p_older\000"
 3673      64657200 
 3674              	.LASF17:
 3675 07d3 75696E74 		.ascii	"uint16_t\000"
 3675      31365F74 
 3675      00
 3676              	.LASF28:
 3677 07dc 6D73675F 		.ascii	"msg_t\000"
 3677      7400
 3678              	.LASF148:
 3679 07e2 46494F50 		.ascii	"FIOPIN\000"
 3679      494E00
 3680              	.LASF107:
 3681 07e9 63665F6F 		.ascii	"cf_off_flags\000"
 3681      66665F66 
 3681      6C616773 
 3681      00
 3682              	.LASF26:
 3683 07f6 74736C69 		.ascii	"tslices_t\000"
 3683      6365735F 
 3683      7400
 3684              	.LASF194:
 3685 0800 4750545F 		.ascii	"GPT_READY\000"
 3685      52454144 
 3685      5900
 3686              	.LASF195:
 3687 080a 4750545F 		.ascii	"GPT_CONTINUOUS\000"
 3687      434F4E54 
 3687      494E554F 
 3687      555300
 3688              	.LASF73:
 3689 0819 725F6375 		.ascii	"r_current\000"
 3689      7272656E 
 3689      7400
 3690              	.LASF67:
 3691 0823 56544C69 		.ascii	"VTList\000"
 3691      737400
 3692              	.LASF169:
ARM GAS  /tmp/ccxlM041.s 			page 72


 3693 082a 4C50435F 		.ascii	"LPC_UART_TypeDef\000"
 3693      55415254 
 3693      5F547970 
 3693      65446566 
 3693      00
 3694              	.LASF176:
 3695 083b 434C4C49 		.ascii	"CLLI\000"
 3695      00
 3696              	.LASF68:
 3697 0840 725F7175 		.ascii	"r_queue\000"
 3697      65756500 
 3698              	.LASF215:
 3699 0848 53657269 		.ascii	"SerialDriver\000"
 3699      616C4472 
 3699      69766572 
 3699      00
 3700              	.LASF114:
 3701 0855 715F7761 		.ascii	"q_waiting\000"
 3701      6974696E 
 3701      6700
 3702              	.LASF76:
 3703 085f 726C6973 		.ascii	"rlist\000"
 3703      7400
 3704              	.LASF23:
 3705 0865 746D6F64 		.ascii	"tmode_t\000"
 3705      655F7400 
 3706              	.LASF214:
 3707 086d 73647374 		.ascii	"sdstate_t\000"
 3707      6174655F 
 3707      7400
 3708              	.LASF170:
 3709 0877 43505352 		.ascii	"CPSR\000"
 3709      00
 3710              	.LASF66:
 3711 087c 76745F73 		.ascii	"vt_systime\000"
 3711      79737469 
 3711      6D6500
 3712              	.LASF213:
 3713 0887 53445F52 		.ascii	"SD_READY\000"
 3713      45414459 
 3713      00
 3714              	.LASF72:
 3715 0890 725F6F6C 		.ascii	"r_older\000"
 3715      64657200 
 3716              	.LASF234:
 3717 0898 74687265 		.ascii	"thread\000"
 3717      616400
 3718              	.LASF21:
 3719 089f 75696E74 		.ascii	"uint_fast8_t\000"
 3719      5F666173 
 3719      74385F74 
 3719      00
 3720              	.LASF7:
 3721 08ac 73686F72 		.ascii	"short int\000"
 3721      7420696E 
 3721      7400
 3722              	.LASF20:
ARM GAS  /tmp/ccxlM041.s 			page 73


 3723 08b6 75696E74 		.ascii	"uint64_t\000"
 3723      36345F74 
 3723      00
 3724              	.LASF248:
 3725 08bf 6D6F6465 		.ascii	"mode\000"
 3725      00
 3726              	.LASF219:
 3727 08c4 75617274 		.ascii	"uart\000"
 3727      00
 3728              	.LASF217:
 3729 08c9 69717565 		.ascii	"iqueue\000"
 3729      756500
 3730              	.LASF258:
 3731 08d0 70616C52 		.ascii	"palReadBus\000"
 3731      65616442 
 3731      757300
 3732              	.LASF69:
 3733 08db 725F7072 		.ascii	"r_prio\000"
 3733      696F00
 3734              	.LASF182:
 3735 08e2 6C706331 		.ascii	"lpc17xx_gpio_setup_t\000"
 3735      3778785F 
 3735      6770696F 
 3735      5F736574 
 3735      75705F74 
 3736              	.LASF103:
 3737 08f7 63665F6F 		.ascii	"cf_off_older\000"
 3737      66665F6F 
 3737      6C646572 
 3737      00
 3738              	.LASF183:
 3739 0904 50414C43 		.ascii	"PALConfig\000"
 3739      6F6E6669 
 3739      6700
 3740              	.LASF32:
 3741 090e 54687265 		.ascii	"Thread\000"
 3741      616400
 3742              	.LASF75:
 3743 0915 76746C69 		.ascii	"vtlist\000"
 3743      737400
 3744              	.LASF178:
 3745 091c 43436F6E 		.ascii	"CConfig\000"
 3745      66696700 
 3746              	.LASF249:
 3747 0924 70616C53 		.ascii	"palSetBusMode\000"
 3747      65744275 
 3747      734D6F64 
 3747      6500
 3748              	.LASF25:
 3749 0932 74726566 		.ascii	"trefs_t\000"
 3749      735F7400 
 3750              	.LASF125:
 3751 093a 5F69646C 		.ascii	"_idle_thread_wa\000"
 3751      655F7468 
 3751      72656164 
 3751      5F776100 
 3752              	.LASF81:
ARM GAS  /tmp/ccxlM041.s 			page 74


 3753 094a 4576656E 		.ascii	"EventListener\000"
 3753      744C6973 
 3753      74656E65 
 3753      7200
 3754              	.LASF250:
 3755 0958 70616C57 		.ascii	"palWriteBus\000"
 3755      72697465 
 3755      42757300 
 3756              	.LASF19:
 3757 0964 75696E74 		.ascii	"uint32_t\000"
 3757      33325F74 
 3757      00
 3758              	.LASF60:
 3759 096d 56697274 		.ascii	"VirtualTimer\000"
 3759      75616C54 
 3759      696D6572 
 3759      00
 3760              	.LASF52:
 3761 097a 54687265 		.ascii	"ThreadsQueue\000"
 3761      61647351 
 3761      75657565 
 3761      00
 3762              	.LASF231:
 3763 0987 5350495F 		.ascii	"SPI_COMPLETE\000"
 3763      434F4D50 
 3763      4C455445 
 3763      00
 3764              	.LASF164:
 3765 0994 4C50435F 		.ascii	"LPC_GPIO_TypeDef\000"
 3765      4750494F 
 3765      5F547970 
 3765      65446566 
 3765      00
 3766              	.LASF88:
 3767 09a5 7264796D 		.ascii	"rdymsg\000"
 3767      736700
 3768              	.LASF193:
 3769 09ac 4750545F 		.ascii	"GPT_STOP\000"
 3769      53544F50 
 3769      00
 3770              	.LASF9:
 3771 09b5 73686F72 		.ascii	"short unsigned int\000"
 3771      7420756E 
 3771      7369676E 
 3771      65642069 
 3771      6E7400
 3772              	.LASF111:
 3773 09c8 63686465 		.ascii	"chdebug_t\000"
 3773      6275675F 
 3773      7400
 3774              	.LASF232:
 3775 09d2 73706973 		.ascii	"spistate_t\000"
 3775      74617465 
 3775      5F7400
 3776              	.LASF123:
 3777 09dd 496E7075 		.ascii	"InputQueue\000"
 3777      74517565 
ARM GAS  /tmp/ccxlM041.s 			page 75


 3777      756500
 3778              	.LASF95:
 3779 09e8 63685F73 		.ascii	"ch_size\000"
 3779      697A6500 
 3780              	.LASF254:
 3781 09f0 5F70616C 		.ascii	"_pal_lld_readgroup\000"
 3781      5F6C6C64 
 3781      5F726561 
 3781      6467726F 
 3781      757000
 3782              	.LASF10:
 3783 0a03 5F5F696E 		.ascii	"__int32_t\000"
 3783      7433325F 
 3783      7400
 3784              	.LASF212:
 3785 0a0d 53445F53 		.ascii	"SD_STOP\000"
 3785      544F5000 
 3786              	.LASF84:
 3787 0a15 656C5F6D 		.ascii	"el_mask\000"
 3787      61736B00 
 3788              	.LASF74:
 3789 0a1d 52656164 		.ascii	"ReadyList\000"
 3789      794C6973 
 3789      7400
 3790              	.LASF243:
 3791 0a27 73737061 		.ascii	"sspad\000"
 3791      6400
 3792              	.LASF154:
 3793 0a2d 46494F53 		.ascii	"FIOSET3\000"
 3793      45543300 
 3794              	.LASF239:
 3795 0a35 74787074 		.ascii	"txptr\000"
 3795      7200
 3796              	.LASF39:
 3797 0a3b 705F6E61 		.ascii	"p_name\000"
 3797      6D6500
 3798              	.LASF63:
 3799 0a42 76745F74 		.ascii	"vt_time\000"
 3799      696D6500 
 3800              	.LASF181:
 3801 0a4a 64617461 		.ascii	"data\000"
 3801      00
 3802              	.LASF80:
 3803 0a4f 6D5F6E65 		.ascii	"m_next\000"
 3803      787400
 3804              	.LASF202:
 3805 0a56 67707463 		.ascii	"gptcallback_t\000"
 3805      616C6C62 
 3805      61636B5F 
 3805      7400
 3806              	.LASF47:
 3807 0a64 705F6D73 		.ascii	"p_msg\000"
 3807      6700
 3808              	.LASF83:
 3809 0a6a 656C5F6C 		.ascii	"el_listener\000"
 3809      69737465 
 3809      6E657200 
ARM GAS  /tmp/ccxlM041.s 			page 76


 3810              	.LASF40:
 3811 0a76 705F7374 		.ascii	"p_state\000"
 3811      61746500 
 3812              		.ident	"GCC: (15:6.3.1+svn253039-1build1) 6.3.1 20170620"
ARM GAS  /tmp/ccxlM041.s 			page 77


DEFINED SYMBOLS
                            *ABS*:0000000000000000 pal.c
     /tmp/ccxlM041.s:16     .text.palReadBus:0000000000000000 $t
     /tmp/ccxlM041.s:24     .text.palReadBus:0000000000000000 palReadBus
     /tmp/ccxlM041.s:42     .text.palWriteBus:0000000000000000 $t
     /tmp/ccxlM041.s:50     .text.palWriteBus:0000000000000000 palWriteBus
     /tmp/ccxlM041.s:68     .text.palSetBusMode:0000000000000000 $t
     /tmp/ccxlM041.s:76     .text.palSetBusMode:0000000000000000 palSetBusMode
                     .debug_frame:0000000000000010 $d

UNDEFINED SYMBOLS
_pal_lld_readgroup
_pal_lld_writegroup
_pal_lld_setgroupmode
