ARM GAS  /tmp/ccQUPxID.s 			page 1


   1              		.cpu cortex-m3
   2              		.eabi_attribute 20, 1
   3              		.eabi_attribute 21, 1
   4              		.eabi_attribute 23, 3
   5              		.eabi_attribute 24, 1
   6              		.eabi_attribute 25, 1
   7              		.eabi_attribute 26, 1
   8              		.eabi_attribute 30, 2
   9              		.eabi_attribute 34, 1
  10              		.eabi_attribute 18, 4
  11              		.file	"pal.c"
  12              		.text
  13              	.Ltext0:
  14              		.cfi_sections	.debug_frame
  15              		.section	.text.palReadBus,"ax",%progbits
  16              		.align	1
  17              		.p2align 2,,3
  18              		.global	palReadBus
  19              		.syntax unified
  20              		.thumb
  21              		.thumb_func
  22              		.fpu softvfp
  23              		.type	palReadBus, %function
  24              	palReadBus:
  25              	.LFB63:
  26              		.file 1 "../../os/hal/src/pal.c"
  27              		.loc 1 70 0
  28              		.cfi_startproc
  29              		@ args = 0, pretend = 0, frame = 0
  30              		@ frame_needed = 0, uses_anonymous_args = 0
  31              		@ link register save eliminated.
  32              	.LVL0:
  33              		.loc 1 75 0
  34 0000 07C8     		ldm	r0, {r0, r1, r2}
  35              	.LVL1:
  36 0002 FFF7FEBF 		b	_pal_lld_readgroup
  37              	.LVL2:
  38              		.cfi_endproc
  39              	.LFE63:
  40              		.size	palReadBus, .-palReadBus
  41 0006 00BF     		.section	.text.palWriteBus,"ax",%progbits
  42              		.align	1
  43              		.p2align 2,,3
  44              		.global	palWriteBus
  45              		.syntax unified
  46              		.thumb
  47              		.thumb_func
  48              		.fpu softvfp
  49              		.type	palWriteBus, %function
  50              	palWriteBus:
  51              	.LFB64:
  52              		.loc 1 96 0
  53              		.cfi_startproc
  54              		@ args = 0, pretend = 0, frame = 0
  55              		@ frame_needed = 0, uses_anonymous_args = 0
  56              		@ link register save eliminated.
  57              	.LVL3:
ARM GAS  /tmp/ccQUPxID.s 			page 2


  58              		.loc 1 101 0
  59 0000 0B46     		mov	r3, r1
  60 0002 07C8     		ldm	r0, {r0, r1, r2}
  61              	.LVL4:
  62 0004 FFF7FEBF 		b	_pal_lld_writegroup
  63              	.LVL5:
  64              		.cfi_endproc
  65              	.LFE64:
  66              		.size	palWriteBus, .-palWriteBus
  67              		.section	.text.palSetBusMode,"ax",%progbits
  68              		.align	1
  69              		.p2align 2,,3
  70              		.global	palSetBusMode
  71              		.syntax unified
  72              		.thumb
  73              		.thumb_func
  74              		.fpu softvfp
  75              		.type	palSetBusMode, %function
  76              	palSetBusMode:
  77              	.LFB65:
  78              		.loc 1 120 0
  79              		.cfi_startproc
  80              		@ args = 0, pretend = 0, frame = 0
  81              		@ frame_needed = 0, uses_anonymous_args = 0
  82              		@ link register save eliminated.
  83              	.LVL6:
  84 0000 10B4     		push	{r4}
  85              		.cfi_def_cfa_offset 4
  86              		.cfi_offset 4, -4
  87              		.loc 1 125 0
  88 0002 8368     		ldr	r3, [r0, #8]
  89 0004 4468     		ldr	r4, [r0, #4]
  90 0006 0A46     		mov	r2, r1
  91 0008 0068     		ldr	r0, [r0]
  92              	.LVL7:
  93 000a 04FA03F1 		lsl	r1, r4, r3
  94              	.LVL8:
  95              		.loc 1 126 0
  96 000e 10BC     		pop	{r4}
  97              		.cfi_restore 4
  98              		.cfi_def_cfa_offset 0
  99              		.loc 1 125 0
 100 0010 FFF7FEBF 		b	_pal_lld_setgroupmode
 101              	.LVL9:
 102              		.cfi_endproc
 103              	.LFE65:
 104              		.size	palSetBusMode, .-palSetBusMode
 105              		.text
 106              	.Letext0:
 107              		.file 2 "/usr/lib/gcc/arm-none-eabi/6.3.1/include/stddef.h"
 108              		.file 3 "/usr/include/newlib/machine/_default_types.h"
 109              		.file 4 "/usr/include/newlib/sys/_stdint.h"
 110              		.file 5 "/usr/include/newlib/stdint.h"
 111              		.file 6 "../../os/ports/GCC/ARMCMx/chtypes.h"
 112              		.file 7 "../../os/kernel/include/chlists.h"
 113              		.file 8 "../../os/kernel/include/chthreads.h"
 114              		.file 9 "../../os/ports/GCC/ARMCMx/chcore_v7m.h"
ARM GAS  /tmp/ccQUPxID.s 			page 3


 115              		.file 10 "../../os/kernel/include/chvt.h"
 116              		.file 11 "../../os/kernel/include/chschd.h"
 117              		.file 12 "../../os/kernel/include/chmtx.h"
 118              		.file 13 "../../os/kernel/include/chevents.h"
 119              		.file 14 "../../os/kernel/include/chregistry.h"
 120              		.file 15 "../../os/kernel/include/chqueues.h"
 121              		.file 16 "../../os/kernel/include/ch.h"
 122              		.file 17 "../../os/ports/common/ARMCMx/CMSIS/include/core_cm3.h"
 123              		.file 18 "../../os/hal/platforms/LPC17xx/system_LPC17xx.h"
 124              		.file 19 "../../os/hal/platforms/LPC17xx/LPC17xx.h"
 125              		.file 20 "../../os/hal/platforms/LPC17xx/lpc17xx_dma.h"
 126              		.file 21 "../../os/hal/platforms/LPC17xx/pal_lld.h"
 127              		.file 22 "../../os/hal/include/pal.h"
 128              		.file 23 "../../os/hal/include/gpt.h"
 129              		.file 24 "../../os/hal/platforms/LPC17xx/gpt_lld.h"
 130              		.file 25 "../../os/hal/include/serial.h"
 131              		.file 26 "../../os/hal/platforms/LPC17xx/serial_lld.h"
 132              		.section	.debug_info,"",%progbits
 133              	.Ldebug_info0:
 134 0000 1B120000 		.4byte	0x121b
 135 0004 0400     		.2byte	0x4
 136 0006 00000000 		.4byte	.Ldebug_abbrev0
 137 000a 04       		.byte	0x4
 138 000b 01       		.uleb128 0x1
 139 000c B7050000 		.4byte	.LASF230
 140 0010 0C       		.byte	0xc
 141 0011 8B050000 		.4byte	.LASF231
 142 0015 D1060000 		.4byte	.LASF232
 143 0019 00000000 		.4byte	.Ldebug_ranges0+0
 144 001d 00000000 		.4byte	0
 145 0021 00000000 		.4byte	.Ldebug_line0
 146 0025 02       		.uleb128 0x2
 147 0026 04       		.byte	0x4
 148 0027 05       		.byte	0x5
 149 0028 696E7400 		.ascii	"int\000"
 150 002c 03       		.uleb128 0x3
 151 002d 00000000 		.4byte	.LASF4
 152 0031 02       		.byte	0x2
 153 0032 D8       		.byte	0xd8
 154 0033 37000000 		.4byte	0x37
 155 0037 04       		.uleb128 0x4
 156 0038 04       		.byte	0x4
 157 0039 07       		.byte	0x7
 158 003a FD040000 		.4byte	.LASF0
 159 003e 04       		.uleb128 0x4
 160 003f 08       		.byte	0x8
 161 0040 05       		.byte	0x5
 162 0041 74040000 		.4byte	.LASF1
 163 0045 04       		.uleb128 0x4
 164 0046 08       		.byte	0x8
 165 0047 04       		.byte	0x4
 166 0048 AE060000 		.4byte	.LASF2
 167 004c 04       		.uleb128 0x4
 168 004d 01       		.byte	0x1
 169 004e 06       		.byte	0x6
 170 004f EC010000 		.4byte	.LASF3
 171 0053 03       		.uleb128 0x3
ARM GAS  /tmp/ccQUPxID.s 			page 4


 172 0054 0F010000 		.4byte	.LASF5
 173 0058 03       		.byte	0x3
 174 0059 1D       		.byte	0x1d
 175 005a 5E000000 		.4byte	0x5e
 176 005e 04       		.uleb128 0x4
 177 005f 01       		.byte	0x1
 178 0060 08       		.byte	0x8
 179 0061 39020000 		.4byte	.LASF6
 180 0065 04       		.uleb128 0x4
 181 0066 02       		.byte	0x2
 182 0067 05       		.byte	0x5
 183 0068 03080000 		.4byte	.LASF7
 184 006c 03       		.uleb128 0x3
 185 006d 8F020000 		.4byte	.LASF8
 186 0071 03       		.byte	0x3
 187 0072 2B       		.byte	0x2b
 188 0073 77000000 		.4byte	0x77
 189 0077 04       		.uleb128 0x4
 190 0078 02       		.byte	0x2
 191 0079 07       		.byte	0x7
 192 007a FF080000 		.4byte	.LASF9
 193 007e 03       		.uleb128 0x3
 194 007f 42090000 		.4byte	.LASF10
 195 0083 03       		.byte	0x3
 196 0084 3F       		.byte	0x3f
 197 0085 89000000 		.4byte	0x89
 198 0089 04       		.uleb128 0x4
 199 008a 04       		.byte	0x4
 200 008b 05       		.byte	0x5
 201 008c 67010000 		.4byte	.LASF11
 202 0090 03       		.uleb128 0x3
 203 0091 63040000 		.4byte	.LASF12
 204 0095 03       		.byte	0x3
 205 0096 41       		.byte	0x41
 206 0097 9B000000 		.4byte	0x9b
 207 009b 04       		.uleb128 0x4
 208 009c 04       		.byte	0x4
 209 009d 07       		.byte	0x7
 210 009e 81030000 		.4byte	.LASF13
 211 00a2 03       		.uleb128 0x3
 212 00a3 76030000 		.4byte	.LASF14
 213 00a7 03       		.byte	0x3
 214 00a8 5B       		.byte	0x5b
 215 00a9 AD000000 		.4byte	0xad
 216 00ad 04       		.uleb128 0x4
 217 00ae 08       		.byte	0x8
 218 00af 07       		.byte	0x7
 219 00b0 17070000 		.4byte	.LASF15
 220 00b4 03       		.uleb128 0x3
 221 00b5 02020000 		.4byte	.LASF16
 222 00b9 04       		.byte	0x4
 223 00ba 18       		.byte	0x18
 224 00bb 53000000 		.4byte	0x53
 225 00bf 05       		.uleb128 0x5
 226 00c0 B4000000 		.4byte	0xb4
 227 00c4 06       		.uleb128 0x6
 228 00c5 B4000000 		.4byte	0xb4
ARM GAS  /tmp/ccQUPxID.s 			page 5


 229 00c9 03       		.uleb128 0x3
 230 00ca 36070000 		.4byte	.LASF17
 231 00ce 04       		.byte	0x4
 232 00cf 24       		.byte	0x24
 233 00d0 6C000000 		.4byte	0x6c
 234 00d4 05       		.uleb128 0x5
 235 00d5 C9000000 		.4byte	0xc9
 236 00d9 03       		.uleb128 0x3
 237 00da 5C000000 		.4byte	.LASF18
 238 00de 04       		.byte	0x4
 239 00df 2C       		.byte	0x2c
 240 00e0 7E000000 		.4byte	0x7e
 241 00e4 05       		.uleb128 0x5
 242 00e5 D9000000 		.4byte	0xd9
 243 00e9 03       		.uleb128 0x3
 244 00ea BB080000 		.4byte	.LASF19
 245 00ee 04       		.byte	0x4
 246 00ef 30       		.byte	0x30
 247 00f0 90000000 		.4byte	0x90
 248 00f4 05       		.uleb128 0x5
 249 00f5 E9000000 		.4byte	0xe9
 250 00f9 06       		.uleb128 0x6
 251 00fa F4000000 		.4byte	0xf4
 252 00fe 03       		.uleb128 0x3
 253 00ff 0D080000 		.4byte	.LASF20
 254 0103 04       		.byte	0x4
 255 0104 3C       		.byte	0x3c
 256 0105 A2000000 		.4byte	0xa2
 257 0109 03       		.uleb128 0x3
 258 010a F6070000 		.4byte	.LASF21
 259 010e 05       		.byte	0x5
 260 010f 34       		.byte	0x34
 261 0110 37000000 		.4byte	0x37
 262 0114 04       		.uleb128 0x4
 263 0115 01       		.byte	0x1
 264 0116 02       		.byte	0x2
 265 0117 68020000 		.4byte	.LASF22
 266 011b 03       		.uleb128 0x3
 267 011c C8070000 		.4byte	.LASF23
 268 0120 06       		.byte	0x6
 269 0121 25       		.byte	0x25
 270 0122 B4000000 		.4byte	0xb4
 271 0126 03       		.uleb128 0x3
 272 0127 B6010000 		.4byte	.LASF24
 273 012b 06       		.byte	0x6
 274 012c 26       		.byte	0x26
 275 012d B4000000 		.4byte	0xb4
 276 0131 03       		.uleb128 0x3
 277 0132 89080000 		.4byte	.LASF25
 278 0136 06       		.byte	0x6
 279 0137 27       		.byte	0x27
 280 0138 B4000000 		.4byte	0xb4
 281 013c 03       		.uleb128 0x3
 282 013d 59070000 		.4byte	.LASF26
 283 0141 06       		.byte	0x6
 284 0142 28       		.byte	0x28
 285 0143 B4000000 		.4byte	0xb4
ARM GAS  /tmp/ccQUPxID.s 			page 6


 286 0147 03       		.uleb128 0x3
 287 0148 3A000000 		.4byte	.LASF27
 288 014c 06       		.byte	0x6
 289 014d 29       		.byte	0x29
 290 014e E9000000 		.4byte	0xe9
 291 0152 03       		.uleb128 0x3
 292 0153 3F070000 		.4byte	.LASF28
 293 0157 06       		.byte	0x6
 294 0158 2A       		.byte	0x2a
 295 0159 D9000000 		.4byte	0xd9
 296 015d 03       		.uleb128 0x3
 297 015e 11020000 		.4byte	.LASF29
 298 0162 06       		.byte	0x6
 299 0163 2C       		.byte	0x2c
 300 0164 E9000000 		.4byte	0xe9
 301 0168 03       		.uleb128 0x3
 302 0169 5D060000 		.4byte	.LASF30
 303 016d 06       		.byte	0x6
 304 016e 2D       		.byte	0x2d
 305 016f E9000000 		.4byte	0xe9
 306 0173 03       		.uleb128 0x3
 307 0174 1C000000 		.4byte	.LASF31
 308 0178 06       		.byte	0x6
 309 0179 2E       		.byte	0x2e
 310 017a E9000000 		.4byte	0xe9
 311 017e 05       		.uleb128 0x5
 312 017f 73010000 		.4byte	0x173
 313 0183 03       		.uleb128 0x3
 314 0184 65080000 		.4byte	.LASF32
 315 0188 07       		.byte	0x7
 316 0189 23       		.byte	0x23
 317 018a 8E010000 		.4byte	0x18e
 318 018e 07       		.uleb128 0x7
 319 018f 65080000 		.4byte	.LASF32
 320 0193 48       		.byte	0x48
 321 0194 08       		.byte	0x8
 322 0195 57       		.byte	0x57
 323 0196 8B020000 		.4byte	0x28b
 324 019a 08       		.uleb128 0x8
 325 019b 70010000 		.4byte	.LASF33
 326 019f 08       		.byte	0x8
 327 01a0 58       		.byte	0x58
 328 01a1 AC020000 		.4byte	0x2ac
 329 01a5 00       		.byte	0
 330 01a6 08       		.uleb128 0x8
 331 01a7 8C010000 		.4byte	.LASF34
 332 01ab 08       		.byte	0x8
 333 01ac 5A       		.byte	0x5a
 334 01ad AC020000 		.4byte	0x2ac
 335 01b1 04       		.byte	0x4
 336 01b2 08       		.uleb128 0x8
 337 01b3 88020000 		.4byte	.LASF35
 338 01b7 08       		.byte	0x8
 339 01b8 5C       		.byte	0x5c
 340 01b9 47010000 		.4byte	0x147
 341 01bd 08       		.byte	0x8
 342 01be 08       		.uleb128 0x8
ARM GAS  /tmp/ccQUPxID.s 			page 7


 343 01bf 34000000 		.4byte	.LASF36
 344 01c3 08       		.byte	0x8
 345 01c4 5D       		.byte	0x5d
 346 01c5 71030000 		.4byte	0x371
 347 01c9 0C       		.byte	0xc
 348 01ca 08       		.uleb128 0x8
 349 01cb 5F010000 		.4byte	.LASF37
 350 01cf 08       		.byte	0x8
 351 01d0 5F       		.byte	0x5f
 352 01d1 AC020000 		.4byte	0x2ac
 353 01d5 10       		.byte	0x10
 354 01d6 08       		.uleb128 0x8
 355 01d7 2E070000 		.4byte	.LASF38
 356 01db 08       		.byte	0x8
 357 01dc 60       		.byte	0x60
 358 01dd AC020000 		.4byte	0x2ac
 359 01e1 14       		.byte	0x14
 360 01e2 08       		.uleb128 0x8
 361 01e3 6E090000 		.4byte	.LASF39
 362 01e7 08       		.byte	0x8
 363 01e8 67       		.byte	0x67
 364 01e9 AE050000 		.4byte	0x5ae
 365 01ed 18       		.byte	0x18
 366 01ee 08       		.uleb128 0x8
 367 01ef A9090000 		.4byte	.LASF40
 368 01f3 08       		.byte	0x8
 369 01f4 72       		.byte	0x72
 370 01f5 26010000 		.4byte	0x126
 371 01f9 1C       		.byte	0x1c
 372 01fa 08       		.uleb128 0x8
 373 01fb F0040000 		.4byte	.LASF41
 374 01ff 08       		.byte	0x8
 375 0200 76       		.byte	0x76
 376 0201 1B010000 		.4byte	0x11b
 377 0205 1D       		.byte	0x1d
 378 0206 08       		.uleb128 0x8
 379 0207 66050000 		.4byte	.LASF42
 380 020b 08       		.byte	0x8
 381 020c 7B       		.byte	0x7b
 382 020d 31010000 		.4byte	0x131
 383 0211 1E       		.byte	0x1e
 384 0212 08       		.uleb128 0x8
 385 0213 F8010000 		.4byte	.LASF43
 386 0217 08       		.byte	0x8
 387 0218 81       		.byte	0x81
 388 0219 3C010000 		.4byte	0x13c
 389 021d 1F       		.byte	0x1f
 390 021e 08       		.uleb128 0x8
 391 021f 69060000 		.4byte	.LASF44
 392 0223 08       		.byte	0x8
 393 0224 88       		.byte	0x88
 394 0225 7E010000 		.4byte	0x17e
 395 0229 20       		.byte	0x20
 396 022a 09       		.uleb128 0x9
 397 022b 705F7500 		.ascii	"p_u\000"
 398 022f 08       		.byte	0x8
 399 0230 AD       		.byte	0xad
ARM GAS  /tmp/ccQUPxID.s 			page 8


 400 0231 79050000 		.4byte	0x579
 401 0235 24       		.byte	0x24
 402 0236 08       		.uleb128 0x8
 403 0237 E0040000 		.4byte	.LASF45
 404 023b 08       		.byte	0x8
 405 023c B2       		.byte	0xb2
 406 023d D2020000 		.4byte	0x2d2
 407 0241 28       		.byte	0x28
 408 0242 08       		.uleb128 0x8
 409 0243 4B000000 		.4byte	.LASF46
 410 0247 08       		.byte	0x8
 411 0248 B8       		.byte	0xb8
 412 0249 B2020000 		.4byte	0x2b2
 413 024d 2C       		.byte	0x2c
 414 024e 08       		.uleb128 0x8
 415 024f 97090000 		.4byte	.LASF47
 416 0253 08       		.byte	0x8
 417 0254 BC       		.byte	0xbc
 418 0255 52010000 		.4byte	0x152
 419 0259 34       		.byte	0x34
 420 025a 08       		.uleb128 0x8
 421 025b 2D030000 		.4byte	.LASF48
 422 025f 08       		.byte	0x8
 423 0260 C2       		.byte	0xc2
 424 0261 5D010000 		.4byte	0x15d
 425 0265 38       		.byte	0x38
 426 0266 08       		.uleb128 0x8
 427 0267 BF010000 		.4byte	.LASF49
 428 026b 08       		.byte	0x8
 429 026c C9       		.byte	0xc9
 430 026d C0050000 		.4byte	0x5c0
 431 0271 3C       		.byte	0x3c
 432 0272 08       		.uleb128 0x8
 433 0273 BA060000 		.4byte	.LASF50
 434 0277 08       		.byte	0x8
 435 0278 CD       		.byte	0xcd
 436 0279 47010000 		.4byte	0x147
 437 027d 40       		.byte	0x40
 438 027e 08       		.uleb128 0x8
 439 027f 3E050000 		.4byte	.LASF51
 440 0283 08       		.byte	0x8
 441 0284 D3       		.byte	0xd3
 442 0285 E8020000 		.4byte	0x2e8
 443 0289 44       		.byte	0x44
 444 028a 00       		.byte	0
 445 028b 0A       		.uleb128 0xa
 446 028c 08       		.byte	0x8
 447 028d 07       		.byte	0x7
 448 028e 5A       		.byte	0x5a
 449 028f AC020000 		.4byte	0x2ac
 450 0293 08       		.uleb128 0x8
 451 0294 70010000 		.4byte	.LASF33
 452 0298 07       		.byte	0x7
 453 0299 5B       		.byte	0x5b
 454 029a AC020000 		.4byte	0x2ac
 455 029e 00       		.byte	0
 456 029f 08       		.uleb128 0x8
ARM GAS  /tmp/ccQUPxID.s 			page 9


 457 02a0 8C010000 		.4byte	.LASF34
 458 02a4 07       		.byte	0x7
 459 02a5 5D       		.byte	0x5d
 460 02a6 AC020000 		.4byte	0x2ac
 461 02aa 04       		.byte	0x4
 462 02ab 00       		.byte	0
 463 02ac 0B       		.uleb128 0xb
 464 02ad 04       		.byte	0x4
 465 02ae 83010000 		.4byte	0x183
 466 02b2 03       		.uleb128 0x3
 467 02b3 D1080000 		.4byte	.LASF52
 468 02b7 07       		.byte	0x7
 469 02b8 5F       		.byte	0x5f
 470 02b9 8B020000 		.4byte	0x28b
 471 02bd 0A       		.uleb128 0xa
 472 02be 04       		.byte	0x4
 473 02bf 07       		.byte	0x7
 474 02c0 64       		.byte	0x64
 475 02c1 D2020000 		.4byte	0x2d2
 476 02c5 08       		.uleb128 0x8
 477 02c6 70010000 		.4byte	.LASF33
 478 02ca 07       		.byte	0x7
 479 02cb 66       		.byte	0x66
 480 02cc AC020000 		.4byte	0x2ac
 481 02d0 00       		.byte	0
 482 02d1 00       		.byte	0
 483 02d2 03       		.uleb128 0x3
 484 02d3 4A060000 		.4byte	.LASF53
 485 02d7 07       		.byte	0x7
 486 02d8 69       		.byte	0x69
 487 02d9 BD020000 		.4byte	0x2bd
 488 02dd 03       		.uleb128 0x3
 489 02de D0010000 		.4byte	.LASF54
 490 02e2 09       		.byte	0x9
 491 02e3 DE       		.byte	0xde
 492 02e4 E8020000 		.4byte	0x2e8
 493 02e8 0C       		.uleb128 0xc
 494 02e9 04       		.byte	0x4
 495 02ea 03       		.uleb128 0x3
 496 02eb C0020000 		.4byte	.LASF55
 497 02ef 09       		.byte	0x9
 498 02f0 E4       		.byte	0xe4
 499 02f1 FE000000 		.4byte	0xfe
 500 02f5 0D       		.uleb128 0xd
 501 02f6 26030000 		.4byte	.LASF56
 502 02fa 24       		.byte	0x24
 503 02fb 09       		.byte	0x9
 504 02fc 0501     		.2byte	0x105
 505 02fe 71030000 		.4byte	0x371
 506 0302 0E       		.uleb128 0xe
 507 0303 723400   		.ascii	"r4\000"
 508 0306 09       		.byte	0x9
 509 0307 1801     		.2byte	0x118
 510 0309 DD020000 		.4byte	0x2dd
 511 030d 00       		.byte	0
 512 030e 0E       		.uleb128 0xe
 513 030f 723500   		.ascii	"r5\000"
ARM GAS  /tmp/ccQUPxID.s 			page 10


 514 0312 09       		.byte	0x9
 515 0313 1901     		.2byte	0x119
 516 0315 DD020000 		.4byte	0x2dd
 517 0319 04       		.byte	0x4
 518 031a 0E       		.uleb128 0xe
 519 031b 723600   		.ascii	"r6\000"
 520 031e 09       		.byte	0x9
 521 031f 1A01     		.2byte	0x11a
 522 0321 DD020000 		.4byte	0x2dd
 523 0325 08       		.byte	0x8
 524 0326 0E       		.uleb128 0xe
 525 0327 723700   		.ascii	"r7\000"
 526 032a 09       		.byte	0x9
 527 032b 1B01     		.2byte	0x11b
 528 032d DD020000 		.4byte	0x2dd
 529 0331 0C       		.byte	0xc
 530 0332 0E       		.uleb128 0xe
 531 0333 723800   		.ascii	"r8\000"
 532 0336 09       		.byte	0x9
 533 0337 1C01     		.2byte	0x11c
 534 0339 DD020000 		.4byte	0x2dd
 535 033d 10       		.byte	0x10
 536 033e 0E       		.uleb128 0xe
 537 033f 723900   		.ascii	"r9\000"
 538 0342 09       		.byte	0x9
 539 0343 1D01     		.2byte	0x11d
 540 0345 DD020000 		.4byte	0x2dd
 541 0349 14       		.byte	0x14
 542 034a 0E       		.uleb128 0xe
 543 034b 72313000 		.ascii	"r10\000"
 544 034f 09       		.byte	0x9
 545 0350 1E01     		.2byte	0x11e
 546 0352 DD020000 		.4byte	0x2dd
 547 0356 18       		.byte	0x18
 548 0357 0E       		.uleb128 0xe
 549 0358 72313100 		.ascii	"r11\000"
 550 035c 09       		.byte	0x9
 551 035d 1F01     		.2byte	0x11f
 552 035f DD020000 		.4byte	0x2dd
 553 0363 1C       		.byte	0x1c
 554 0364 0E       		.uleb128 0xe
 555 0365 6C7200   		.ascii	"lr\000"
 556 0368 09       		.byte	0x9
 557 0369 2001     		.2byte	0x120
 558 036b DD020000 		.4byte	0x2dd
 559 036f 20       		.byte	0x20
 560 0370 00       		.byte	0
 561 0371 0D       		.uleb128 0xd
 562 0372 1D020000 		.4byte	.LASF57
 563 0376 04       		.byte	0x4
 564 0377 09       		.byte	0x9
 565 0378 2A01     		.2byte	0x12a
 566 037a 8C030000 		.4byte	0x38c
 567 037e 0E       		.uleb128 0xe
 568 037f 72313300 		.ascii	"r13\000"
 569 0383 09       		.byte	0x9
 570 0384 2B01     		.2byte	0x12b
ARM GAS  /tmp/ccQUPxID.s 			page 11


 571 0386 8C030000 		.4byte	0x38c
 572 038a 00       		.byte	0
 573 038b 00       		.byte	0
 574 038c 0B       		.uleb128 0xb
 575 038d 04       		.byte	0x4
 576 038e F5020000 		.4byte	0x2f5
 577 0392 04       		.uleb128 0x4
 578 0393 04       		.byte	0x4
 579 0394 07       		.byte	0x7
 580 0395 07000000 		.4byte	.LASF58
 581 0399 03       		.uleb128 0x3
 582 039a 76000000 		.4byte	.LASF59
 583 039e 0A       		.byte	0xa
 584 039f 51       		.byte	0x51
 585 03a0 A4030000 		.4byte	0x3a4
 586 03a4 0B       		.uleb128 0xb
 587 03a5 04       		.byte	0x4
 588 03a6 AA030000 		.4byte	0x3aa
 589 03aa 0F       		.uleb128 0xf
 590 03ab B5030000 		.4byte	0x3b5
 591 03af 10       		.uleb128 0x10
 592 03b0 E8020000 		.4byte	0x2e8
 593 03b4 00       		.byte	0
 594 03b5 03       		.uleb128 0x3
 595 03b6 C4080000 		.4byte	.LASF60
 596 03ba 0A       		.byte	0xa
 597 03bb 56       		.byte	0x56
 598 03bc C0030000 		.4byte	0x3c0
 599 03c0 07       		.uleb128 0x7
 600 03c1 C4080000 		.4byte	.LASF60
 601 03c5 14       		.byte	0x14
 602 03c6 0A       		.byte	0xa
 603 03c7 5D       		.byte	0x5d
 604 03c8 09040000 		.4byte	0x409
 605 03cc 08       		.uleb128 0x8
 606 03cd 9F040000 		.4byte	.LASF61
 607 03d1 0A       		.byte	0xa
 608 03d2 5E       		.byte	0x5e
 609 03d3 09040000 		.4byte	0x409
 610 03d7 00       		.byte	0
 611 03d8 08       		.uleb128 0x8
 612 03d9 4E020000 		.4byte	.LASF62
 613 03dd 0A       		.byte	0xa
 614 03de 60       		.byte	0x60
 615 03df 09040000 		.4byte	0x409
 616 03e3 04       		.byte	0x4
 617 03e4 08       		.uleb128 0x8
 618 03e5 75090000 		.4byte	.LASF63
 619 03e9 0A       		.byte	0xa
 620 03ea 62       		.byte	0x62
 621 03eb 73010000 		.4byte	0x173
 622 03ef 08       		.byte	0x8
 623 03f0 08       		.uleb128 0x8
 624 03f1 18030000 		.4byte	.LASF64
 625 03f5 0A       		.byte	0xa
 626 03f6 63       		.byte	0x63
 627 03f7 99030000 		.4byte	0x399
ARM GAS  /tmp/ccQUPxID.s 			page 12


 628 03fb 0C       		.byte	0xc
 629 03fc 08       		.uleb128 0x8
 630 03fd FF000000 		.4byte	.LASF65
 631 0401 0A       		.byte	0xa
 632 0402 65       		.byte	0x65
 633 0403 E8020000 		.4byte	0x2e8
 634 0407 10       		.byte	0x10
 635 0408 00       		.byte	0
 636 0409 0B       		.uleb128 0xb
 637 040a 04       		.byte	0x4
 638 040b B5030000 		.4byte	0x3b5
 639 040f 0A       		.uleb128 0xa
 640 0410 10       		.byte	0x10
 641 0411 0A       		.byte	0xa
 642 0412 6F       		.byte	0x6f
 643 0413 48040000 		.4byte	0x448
 644 0417 08       		.uleb128 0x8
 645 0418 9F040000 		.4byte	.LASF61
 646 041c 0A       		.byte	0xa
 647 041d 70       		.byte	0x70
 648 041e 09040000 		.4byte	0x409
 649 0422 00       		.byte	0
 650 0423 08       		.uleb128 0x8
 651 0424 4E020000 		.4byte	.LASF62
 652 0428 0A       		.byte	0xa
 653 0429 72       		.byte	0x72
 654 042a 09040000 		.4byte	0x409
 655 042e 04       		.byte	0x4
 656 042f 08       		.uleb128 0x8
 657 0430 75090000 		.4byte	.LASF63
 658 0434 0A       		.byte	0xa
 659 0435 74       		.byte	0x74
 660 0436 73010000 		.4byte	0x173
 661 043a 08       		.byte	0x8
 662 043b 08       		.uleb128 0x8
 663 043c DA070000 		.4byte	.LASF66
 664 0440 0A       		.byte	0xa
 665 0441 75       		.byte	0x75
 666 0442 7E010000 		.4byte	0x17e
 667 0446 0C       		.byte	0xc
 668 0447 00       		.byte	0
 669 0448 03       		.uleb128 0x3
 670 0449 86070000 		.4byte	.LASF67
 671 044d 0A       		.byte	0xa
 672 044e 76       		.byte	0x76
 673 044f 0F040000 		.4byte	0x40f
 674 0453 11       		.uleb128 0x11
 675 0454 6C080000 		.4byte	.LASF75
 676 0458 0A       		.byte	0xa
 677 0459 EE       		.byte	0xee
 678 045a 48040000 		.4byte	0x448
 679 045e 0A       		.uleb128 0xa
 680 045f 1C       		.byte	0x1c
 681 0460 0B       		.byte	0xb
 682 0461 57       		.byte	0x57
 683 0462 AF040000 		.4byte	0x4af
 684 0466 08       		.uleb128 0x8
ARM GAS  /tmp/ccQUPxID.s 			page 13


 685 0467 A3070000 		.4byte	.LASF68
 686 046b 0B       		.byte	0xb
 687 046c 58       		.byte	0x58
 688 046d B2020000 		.4byte	0x2b2
 689 0471 00       		.byte	0
 690 0472 08       		.uleb128 0x8
 691 0473 32080000 		.4byte	.LASF69
 692 0477 0B       		.byte	0xb
 693 0478 59       		.byte	0x59
 694 0479 47010000 		.4byte	0x147
 695 047d 08       		.byte	0x8
 696 047e 08       		.uleb128 0x8
 697 047f 56000000 		.4byte	.LASF70
 698 0483 0B       		.byte	0xb
 699 0484 5B       		.byte	0x5b
 700 0485 71030000 		.4byte	0x371
 701 0489 0C       		.byte	0xc
 702 048a 08       		.uleb128 0x8
 703 048b 56020000 		.4byte	.LASF71
 704 048f 0B       		.byte	0xb
 705 0490 5E       		.byte	0x5e
 706 0491 AC020000 		.4byte	0x2ac
 707 0495 10       		.byte	0x10
 708 0496 08       		.uleb128 0x8
 709 0497 EE070000 		.4byte	.LASF72
 710 049b 0B       		.byte	0xb
 711 049c 5F       		.byte	0x5f
 712 049d AC020000 		.4byte	0x2ac
 713 04a1 14       		.byte	0x14
 714 04a2 08       		.uleb128 0x8
 715 04a3 7C070000 		.4byte	.LASF73
 716 04a7 0B       		.byte	0xb
 717 04a8 62       		.byte	0x62
 718 04a9 AC020000 		.4byte	0x2ac
 719 04ad 18       		.byte	0x18
 720 04ae 00       		.byte	0
 721 04af 03       		.uleb128 0x3
 722 04b0 5C090000 		.4byte	.LASF74
 723 04b4 0B       		.byte	0xb
 724 04b5 64       		.byte	0x64
 725 04b6 5E040000 		.4byte	0x45e
 726 04ba 11       		.uleb128 0x11
 727 04bb C2070000 		.4byte	.LASF76
 728 04bf 0B       		.byte	0xb
 729 04c0 68       		.byte	0x68
 730 04c1 AF040000 		.4byte	0x4af
 731 04c5 07       		.uleb128 0x7
 732 04c6 6E040000 		.4byte	.LASF77
 733 04ca 10       		.byte	0x10
 734 04cb 0C       		.byte	0xc
 735 04cc 25       		.byte	0x25
 736 04cd F6040000 		.4byte	0x4f6
 737 04d1 08       		.uleb128 0x8
 738 04d2 8D040000 		.4byte	.LASF78
 739 04d6 0C       		.byte	0xc
 740 04d7 26       		.byte	0x26
 741 04d8 B2020000 		.4byte	0x2b2
ARM GAS  /tmp/ccQUPxID.s 			page 14


 742 04dc 00       		.byte	0
 743 04dd 08       		.uleb128 0x8
 744 04de F7000000 		.4byte	.LASF79
 745 04e2 0C       		.byte	0xc
 746 04e3 28       		.byte	0x28
 747 04e4 AC020000 		.4byte	0x2ac
 748 04e8 08       		.byte	0x8
 749 04e9 08       		.uleb128 0x8
 750 04ea 82090000 		.4byte	.LASF80
 751 04ee 0C       		.byte	0xc
 752 04ef 2A       		.byte	0x2a
 753 04f0 F6040000 		.4byte	0x4f6
 754 04f4 0C       		.byte	0xc
 755 04f5 00       		.byte	0
 756 04f6 0B       		.uleb128 0xb
 757 04f7 04       		.byte	0x4
 758 04f8 C5040000 		.4byte	0x4c5
 759 04fc 03       		.uleb128 0x3
 760 04fd 6E040000 		.4byte	.LASF77
 761 0501 0C       		.byte	0xc
 762 0502 2C       		.byte	0x2c
 763 0503 C5040000 		.4byte	0x4c5
 764 0507 03       		.uleb128 0x3
 765 0508 A1080000 		.4byte	.LASF81
 766 050c 0D       		.byte	0xd
 767 050d 25       		.byte	0x25
 768 050e 12050000 		.4byte	0x512
 769 0512 07       		.uleb128 0x7
 770 0513 A1080000 		.4byte	.LASF81
 771 0517 10       		.byte	0x10
 772 0518 0D       		.byte	0xd
 773 0519 2A       		.byte	0x2a
 774 051a 4F050000 		.4byte	0x54f
 775 051e 08       		.uleb128 0x8
 776 051f CE030000 		.4byte	.LASF82
 777 0523 0D       		.byte	0xd
 778 0524 2B       		.byte	0x2b
 779 0525 4F050000 		.4byte	0x54f
 780 0529 00       		.byte	0
 781 052a 08       		.uleb128 0x8
 782 052b 9D090000 		.4byte	.LASF83
 783 052f 0D       		.byte	0xd
 784 0530 2E       		.byte	0x2e
 785 0531 AC020000 		.4byte	0x2ac
 786 0535 04       		.byte	0x4
 787 0536 08       		.uleb128 0x8
 788 0537 54090000 		.4byte	.LASF84
 789 053b 0D       		.byte	0xd
 790 053c 30       		.byte	0x30
 791 053d 5D010000 		.4byte	0x15d
 792 0541 08       		.byte	0x8
 793 0542 08       		.uleb128 0x8
 794 0543 9E000000 		.4byte	.LASF85
 795 0547 0D       		.byte	0xd
 796 0548 33       		.byte	0x33
 797 0549 68010000 		.4byte	0x168
 798 054d 0C       		.byte	0xc
ARM GAS  /tmp/ccQUPxID.s 			page 15


 799 054e 00       		.byte	0
 800 054f 0B       		.uleb128 0xb
 801 0550 04       		.byte	0x4
 802 0551 07050000 		.4byte	0x507
 803 0555 07       		.uleb128 0x7
 804 0556 6A030000 		.4byte	.LASF86
 805 055a 04       		.byte	0x4
 806 055b 0D       		.byte	0xd
 807 055c 3A       		.byte	0x3a
 808 055d 6E050000 		.4byte	0x56e
 809 0561 08       		.uleb128 0x8
 810 0562 38030000 		.4byte	.LASF87
 811 0566 0D       		.byte	0xd
 812 0567 3B       		.byte	0x3b
 813 0568 4F050000 		.4byte	0x54f
 814 056c 00       		.byte	0
 815 056d 00       		.byte	0
 816 056e 03       		.uleb128 0x3
 817 056f 6A030000 		.4byte	.LASF86
 818 0573 0D       		.byte	0xd
 819 0574 3E       		.byte	0x3e
 820 0575 55050000 		.4byte	0x555
 821 0579 12       		.uleb128 0x12
 822 057a 04       		.byte	0x4
 823 057b 08       		.byte	0x8
 824 057c 8F       		.byte	0x8f
 825 057d AE050000 		.4byte	0x5ae
 826 0581 13       		.uleb128 0x13
 827 0582 EF080000 		.4byte	.LASF88
 828 0586 08       		.byte	0x8
 829 0587 96       		.byte	0x96
 830 0588 52010000 		.4byte	0x152
 831 058c 13       		.uleb128 0x13
 832 058d 06010000 		.4byte	.LASF89
 833 0591 08       		.byte	0x8
 834 0592 9D       		.byte	0x9d
 835 0593 52010000 		.4byte	0x152
 836 0597 13       		.uleb128 0x13
 837 0598 A7020000 		.4byte	.LASF90
 838 059c 08       		.byte	0x8
 839 059d A4       		.byte	0xa4
 840 059e E8020000 		.4byte	0x2e8
 841 05a2 13       		.uleb128 0x13
 842 05a3 29010000 		.4byte	.LASF91
 843 05a7 08       		.byte	0x8
 844 05a8 AB       		.byte	0xab
 845 05a9 5D010000 		.4byte	0x15d
 846 05ad 00       		.byte	0
 847 05ae 0B       		.uleb128 0xb
 848 05af 04       		.byte	0x4
 849 05b0 BB050000 		.4byte	0x5bb
 850 05b4 04       		.uleb128 0x4
 851 05b5 01       		.byte	0x1
 852 05b6 08       		.byte	0x8
 853 05b7 78020000 		.4byte	.LASF92
 854 05bb 06       		.uleb128 0x6
 855 05bc B4050000 		.4byte	0x5b4
ARM GAS  /tmp/ccQUPxID.s 			page 16


 856 05c0 0B       		.uleb128 0xb
 857 05c1 04       		.byte	0x4
 858 05c2 FC040000 		.4byte	0x4fc
 859 05c6 0B       		.uleb128 0xb
 860 05c7 04       		.byte	0x4
 861 05c8 CC050000 		.4byte	0x5cc
 862 05cc 14       		.uleb128 0x14
 863 05cd 52010000 		.4byte	0x152
 864 05d1 DB050000 		.4byte	0x5db
 865 05d5 10       		.uleb128 0x10
 866 05d6 E8020000 		.4byte	0x2e8
 867 05da 00       		.byte	0
 868 05db 0A       		.uleb128 0xa
 869 05dc 16       		.byte	0x16
 870 05dd 0E       		.byte	0xe
 871 05de 25       		.byte	0x25
 872 05df BC060000 		.4byte	0x6bc
 873 05e3 08       		.uleb128 0x8
 874 05e4 26000000 		.4byte	.LASF93
 875 05e8 0E       		.byte	0xe
 876 05e9 26       		.byte	0x26
 877 05ea BC060000 		.4byte	0x6bc
 878 05ee 00       		.byte	0
 879 05ef 08       		.uleb128 0x8
 880 05f0 93030000 		.4byte	.LASF94
 881 05f4 0E       		.byte	0xe
 882 05f5 27       		.byte	0x27
 883 05f6 B4000000 		.4byte	0xb4
 884 05fa 04       		.byte	0x4
 885 05fb 08       		.uleb128 0x8
 886 05fc 27090000 		.4byte	.LASF95
 887 0600 0E       		.byte	0xe
 888 0601 28       		.byte	0x28
 889 0602 B4000000 		.4byte	0xb4
 890 0606 05       		.byte	0x5
 891 0607 08       		.uleb128 0x8
 892 0608 82040000 		.4byte	.LASF96
 893 060c 0E       		.byte	0xe
 894 060d 29       		.byte	0x29
 895 060e C9000000 		.4byte	0xc9
 896 0612 06       		.byte	0x6
 897 0613 08       		.uleb128 0x8
 898 0614 C4000000 		.4byte	.LASF97
 899 0618 0E       		.byte	0xe
 900 0619 2A       		.byte	0x2a
 901 061a B4000000 		.4byte	0xb4
 902 061e 08       		.byte	0x8
 903 061f 08       		.uleb128 0x8
 904 0620 7F050000 		.4byte	.LASF98
 905 0624 0E       		.byte	0xe
 906 0625 2B       		.byte	0x2b
 907 0626 B4000000 		.4byte	0xb4
 908 062a 09       		.byte	0x9
 909 062b 08       		.uleb128 0x8
 910 062c 30010000 		.4byte	.LASF99
 911 0630 0E       		.byte	0xe
 912 0631 2C       		.byte	0x2c
ARM GAS  /tmp/ccQUPxID.s 			page 17


 913 0632 B4000000 		.4byte	0xb4
 914 0636 0A       		.byte	0xa
 915 0637 08       		.uleb128 0x8
 916 0638 FF020000 		.4byte	.LASF100
 917 063c 0E       		.byte	0xe
 918 063d 2D       		.byte	0x2d
 919 063e B4000000 		.4byte	0xb4
 920 0642 0B       		.byte	0xb
 921 0643 08       		.uleb128 0x8
 922 0644 6B000000 		.4byte	.LASF101
 923 0648 0E       		.byte	0xe
 924 0649 2E       		.byte	0x2e
 925 064a B4000000 		.4byte	0xb4
 926 064e 0C       		.byte	0xc
 927 064f 08       		.uleb128 0x8
 928 0650 AE020000 		.4byte	.LASF102
 929 0654 0E       		.byte	0xe
 930 0655 2F       		.byte	0x2f
 931 0656 B4000000 		.4byte	0xb4
 932 065a 0D       		.byte	0xd
 933 065b 08       		.uleb128 0x8
 934 065c 4E080000 		.4byte	.LASF103
 935 0660 0E       		.byte	0xe
 936 0661 30       		.byte	0x30
 937 0662 B4000000 		.4byte	0xb4
 938 0666 0E       		.byte	0xe
 939 0667 08       		.uleb128 0x8
 940 0668 10000000 		.4byte	.LASF104
 941 066c 0E       		.byte	0xe
 942 066d 31       		.byte	0x31
 943 066e B4000000 		.4byte	0xb4
 944 0672 0F       		.byte	0xf
 945 0673 08       		.uleb128 0x8
 946 0674 0A050000 		.4byte	.LASF105
 947 0678 0E       		.byte	0xe
 948 0679 32       		.byte	0x32
 949 067a B4000000 		.4byte	0xb4
 950 067e 10       		.byte	0x10
 951 067f 08       		.uleb128 0x8
 952 0680 7F010000 		.4byte	.LASF106
 953 0684 0E       		.byte	0xe
 954 0685 34       		.byte	0x34
 955 0686 B4000000 		.4byte	0xb4
 956 068a 11       		.byte	0x11
 957 068b 08       		.uleb128 0x8
 958 068c 4C070000 		.4byte	.LASF107
 959 0690 0E       		.byte	0xe
 960 0691 35       		.byte	0x35
 961 0692 B4000000 		.4byte	0xb4
 962 0696 12       		.byte	0x12
 963 0697 08       		.uleb128 0x8
 964 0698 77060000 		.4byte	.LASF108
 965 069c 0E       		.byte	0xe
 966 069d 36       		.byte	0x36
 967 069e B4000000 		.4byte	0xb4
 968 06a2 13       		.byte	0x13
 969 06a3 08       		.uleb128 0x8
ARM GAS  /tmp/ccQUPxID.s 			page 18


 970 06a4 44040000 		.4byte	.LASF109
 971 06a8 0E       		.byte	0xe
 972 06a9 37       		.byte	0x37
 973 06aa B4000000 		.4byte	0xb4
 974 06ae 14       		.byte	0x14
 975 06af 08       		.uleb128 0x8
 976 06b0 C5060000 		.4byte	.LASF110
 977 06b4 0E       		.byte	0xe
 978 06b5 39       		.byte	0x39
 979 06b6 B4000000 		.4byte	0xb4
 980 06ba 15       		.byte	0x15
 981 06bb 00       		.byte	0
 982 06bc 15       		.uleb128 0x15
 983 06bd B4050000 		.4byte	0x5b4
 984 06c1 CC060000 		.4byte	0x6cc
 985 06c5 16       		.uleb128 0x16
 986 06c6 92030000 		.4byte	0x392
 987 06ca 03       		.byte	0x3
 988 06cb 00       		.byte	0
 989 06cc 03       		.uleb128 0x3
 990 06cd 12090000 		.4byte	.LASF111
 991 06d1 0E       		.byte	0xe
 992 06d2 3A       		.byte	0x3a
 993 06d3 DB050000 		.4byte	0x5db
 994 06d7 06       		.uleb128 0x6
 995 06d8 CC060000 		.4byte	0x6cc
 996 06dc 11       		.uleb128 0x11
 997 06dd 42000000 		.4byte	.LASF112
 998 06e1 0E       		.byte	0xe
 999 06e2 77       		.byte	0x77
 1000 06e3 D7060000 		.4byte	0x6d7
 1001 06e7 03       		.uleb128 0x3
 1002 06e8 9A020000 		.4byte	.LASF113
 1003 06ec 0F       		.byte	0xf
 1004 06ed 30       		.byte	0x30
 1005 06ee F2060000 		.4byte	0x6f2
 1006 06f2 07       		.uleb128 0x7
 1007 06f3 9A020000 		.4byte	.LASF113
 1008 06f7 24       		.byte	0x24
 1009 06f8 0F       		.byte	0xf
 1010 06f9 3E       		.byte	0x3e
 1011 06fa 5F070000 		.4byte	0x75f
 1012 06fe 08       		.uleb128 0x8
 1013 06ff B8070000 		.4byte	.LASF114
 1014 0703 0F       		.byte	0xf
 1015 0704 3F       		.byte	0x3f
 1016 0705 B2020000 		.4byte	0x2b2
 1017 0709 00       		.byte	0
 1018 070a 08       		.uleb128 0x8
 1019 070b 40030000 		.4byte	.LASF115
 1020 070f 0F       		.byte	0xf
 1021 0710 40       		.byte	0x40
 1022 0711 2C000000 		.4byte	0x2c
 1023 0715 08       		.byte	0x8
 1024 0716 08       		.uleb128 0x8
 1025 0717 44010000 		.4byte	.LASF116
 1026 071b 0F       		.byte	0xf
ARM GAS  /tmp/ccQUPxID.s 			page 19


 1027 071c 41       		.byte	0x41
 1028 071d 81070000 		.4byte	0x781
 1029 0721 0C       		.byte	0xc
 1030 0722 08       		.uleb128 0x8
 1031 0723 19010000 		.4byte	.LASF117
 1032 0727 0F       		.byte	0xf
 1033 0728 42       		.byte	0x42
 1034 0729 81070000 		.4byte	0x781
 1035 072d 10       		.byte	0x10
 1036 072e 08       		.uleb128 0x8
 1037 072f D6030000 		.4byte	.LASF118
 1038 0733 0F       		.byte	0xf
 1039 0734 44       		.byte	0x44
 1040 0735 81070000 		.4byte	0x781
 1041 0739 14       		.byte	0x14
 1042 073a 08       		.uleb128 0x8
 1043 073b 77010000 		.4byte	.LASF119
 1044 073f 0F       		.byte	0xf
 1045 0740 45       		.byte	0x45
 1046 0741 81070000 		.4byte	0x781
 1047 0745 18       		.byte	0x18
 1048 0746 08       		.uleb128 0x8
 1049 0747 56010000 		.4byte	.LASF120
 1050 074b 0F       		.byte	0xf
 1051 074c 46       		.byte	0x46
 1052 074d 5F070000 		.4byte	0x75f
 1053 0751 1C       		.byte	0x1c
 1054 0752 08       		.uleb128 0x8
 1055 0753 47020000 		.4byte	.LASF121
 1056 0757 0F       		.byte	0xf
 1057 0758 47       		.byte	0x47
 1058 0759 E8020000 		.4byte	0x2e8
 1059 075d 20       		.byte	0x20
 1060 075e 00       		.byte	0
 1061 075f 03       		.uleb128 0x3
 1062 0760 CA040000 		.4byte	.LASF122
 1063 0764 0F       		.byte	0xf
 1064 0765 33       		.byte	0x33
 1065 0766 6A070000 		.4byte	0x76a
 1066 076a 0B       		.uleb128 0xb
 1067 076b 04       		.byte	0x4
 1068 076c 70070000 		.4byte	0x770
 1069 0770 0F       		.uleb128 0xf
 1070 0771 7B070000 		.4byte	0x77b
 1071 0775 10       		.uleb128 0x10
 1072 0776 7B070000 		.4byte	0x77b
 1073 077a 00       		.byte	0
 1074 077b 0B       		.uleb128 0xb
 1075 077c 04       		.byte	0x4
 1076 077d E7060000 		.4byte	0x6e7
 1077 0781 0B       		.uleb128 0xb
 1078 0782 04       		.byte	0x4
 1079 0783 B4000000 		.4byte	0xb4
 1080 0787 03       		.uleb128 0x3
 1081 0788 1C090000 		.4byte	.LASF123
 1082 078c 0F       		.byte	0xf
 1083 078d 7B       		.byte	0x7b
ARM GAS  /tmp/ccQUPxID.s 			page 20


 1084 078e E7060000 		.4byte	0x6e7
 1085 0792 03       		.uleb128 0x3
 1086 0793 E3020000 		.4byte	.LASF124
 1087 0797 0F       		.byte	0xf
 1088 0798 EE       		.byte	0xee
 1089 0799 E7060000 		.4byte	0x6e7
 1090 079d 14       		.uleb128 0x14
 1091 079e 2C000000 		.4byte	0x2c
 1092 07a2 B6070000 		.4byte	0x7b6
 1093 07a6 10       		.uleb128 0x10
 1094 07a7 E8020000 		.4byte	0x2e8
 1095 07ab 10       		.uleb128 0x10
 1096 07ac B6070000 		.4byte	0x7b6
 1097 07b0 10       		.uleb128 0x10
 1098 07b1 2C000000 		.4byte	0x2c
 1099 07b5 00       		.byte	0
 1100 07b6 0B       		.uleb128 0xb
 1101 07b7 04       		.byte	0x4
 1102 07b8 C4000000 		.4byte	0xc4
 1103 07bc 0B       		.uleb128 0xb
 1104 07bd 04       		.byte	0x4
 1105 07be 9D070000 		.4byte	0x79d
 1106 07c2 14       		.uleb128 0x14
 1107 07c3 2C000000 		.4byte	0x2c
 1108 07c7 DB070000 		.4byte	0x7db
 1109 07cb 10       		.uleb128 0x10
 1110 07cc E8020000 		.4byte	0x2e8
 1111 07d0 10       		.uleb128 0x10
 1112 07d1 81070000 		.4byte	0x781
 1113 07d5 10       		.uleb128 0x10
 1114 07d6 2C000000 		.4byte	0x2c
 1115 07da 00       		.byte	0
 1116 07db 0B       		.uleb128 0xb
 1117 07dc 04       		.byte	0x4
 1118 07dd C2070000 		.4byte	0x7c2
 1119 07e1 14       		.uleb128 0x14
 1120 07e2 52010000 		.4byte	0x152
 1121 07e6 F5070000 		.4byte	0x7f5
 1122 07ea 10       		.uleb128 0x10
 1123 07eb E8020000 		.4byte	0x2e8
 1124 07ef 10       		.uleb128 0x10
 1125 07f0 B4000000 		.4byte	0xb4
 1126 07f4 00       		.byte	0
 1127 07f5 0B       		.uleb128 0xb
 1128 07f6 04       		.byte	0x4
 1129 07f7 E1070000 		.4byte	0x7e1
 1130 07fb 15       		.uleb128 0x15
 1131 07fc EA020000 		.4byte	0x2ea
 1132 0800 0B080000 		.4byte	0x80b
 1133 0804 16       		.uleb128 0x16
 1134 0805 92030000 		.4byte	0x392
 1135 0809 17       		.byte	0x17
 1136 080a 00       		.byte	0
 1137 080b 11       		.uleb128 0x11
 1138 080c 91080000 		.4byte	.LASF125
 1139 0810 10       		.byte	0x10
 1140 0811 82       		.byte	0x82
ARM GAS  /tmp/ccQUPxID.s 			page 21


 1141 0812 FB070000 		.4byte	0x7fb
 1142 0816 15       		.uleb128 0x15
 1143 0817 E9000000 		.4byte	0xe9
 1144 081b 26080000 		.4byte	0x826
 1145 081f 16       		.uleb128 0x16
 1146 0820 92030000 		.4byte	0x392
 1147 0824 01       		.byte	0x1
 1148 0825 00       		.byte	0
 1149 0826 17       		.uleb128 0x17
 1150 0827 B3040000 		.4byte	.LASF126
 1151 082b 11       		.byte	0x11
 1152 082c 0706     		.2byte	0x607
 1153 082e E4000000 		.4byte	0xe4
 1154 0832 11       		.uleb128 0x11
 1155 0833 AB030000 		.4byte	.LASF127
 1156 0837 12       		.byte	0x12
 1157 0838 23       		.byte	0x23
 1158 0839 E9000000 		.4byte	0xe9
 1159 083d 15       		.uleb128 0x15
 1160 083e E9000000 		.4byte	0xe9
 1161 0842 4D080000 		.4byte	0x84d
 1162 0846 16       		.uleb128 0x16
 1163 0847 92030000 		.4byte	0x392
 1164 084b 0B       		.byte	0xb
 1165 084c 00       		.byte	0
 1166 084d 0A       		.uleb128 0xa
 1167 084e 04       		.byte	0x4
 1168 084f 13       		.byte	0x13
 1169 0850 C7       		.byte	0xc7
 1170 0851 6E080000 		.4byte	0x86e
 1171 0855 08       		.uleb128 0x8
 1172 0856 5B040000 		.4byte	.LASF128
 1173 085a 13       		.byte	0x13
 1174 085b C8       		.byte	0xc8
 1175 085c D4000000 		.4byte	0xd4
 1176 0860 00       		.byte	0
 1177 0861 08       		.uleb128 0x8
 1178 0862 53040000 		.4byte	.LASF129
 1179 0866 13       		.byte	0x13
 1180 0867 C9       		.byte	0xc9
 1181 0868 D4000000 		.4byte	0xd4
 1182 086c 02       		.byte	0x2
 1183 086d 00       		.byte	0
 1184 086e 0A       		.uleb128 0xa
 1185 086f 04       		.byte	0x4
 1186 0870 13       		.byte	0x13
 1187 0871 CB       		.byte	0xcb
 1188 0872 A7080000 		.4byte	0x8a7
 1189 0876 08       		.uleb128 0x8
 1190 0877 24040000 		.4byte	.LASF130
 1191 087b 13       		.byte	0x13
 1192 087c CC       		.byte	0xcc
 1193 087d BF000000 		.4byte	0xbf
 1194 0881 00       		.byte	0
 1195 0882 08       		.uleb128 0x8
 1196 0883 2C040000 		.4byte	.LASF131
 1197 0887 13       		.byte	0x13
ARM GAS  /tmp/ccQUPxID.s 			page 22


 1198 0888 CD       		.byte	0xcd
 1199 0889 BF000000 		.4byte	0xbf
 1200 088d 01       		.byte	0x1
 1201 088e 08       		.uleb128 0x8
 1202 088f 34040000 		.4byte	.LASF132
 1203 0893 13       		.byte	0x13
 1204 0894 CE       		.byte	0xce
 1205 0895 BF000000 		.4byte	0xbf
 1206 0899 02       		.byte	0x2
 1207 089a 08       		.uleb128 0x8
 1208 089b 3C040000 		.4byte	.LASF133
 1209 089f 13       		.byte	0x13
 1210 08a0 CF       		.byte	0xcf
 1211 08a1 BF000000 		.4byte	0xbf
 1212 08a5 03       		.byte	0x3
 1213 08a6 00       		.byte	0
 1214 08a7 12       		.uleb128 0x12
 1215 08a8 04       		.byte	0x4
 1216 08a9 13       		.byte	0x13
 1217 08aa C5       		.byte	0xc5
 1218 08ab C5080000 		.4byte	0x8c5
 1219 08af 13       		.uleb128 0x13
 1220 08b0 70060000 		.4byte	.LASF134
 1221 08b4 13       		.byte	0x13
 1222 08b5 C6       		.byte	0xc6
 1223 08b6 F4000000 		.4byte	0xf4
 1224 08ba 18       		.uleb128 0x18
 1225 08bb 4D080000 		.4byte	0x84d
 1226 08bf 18       		.uleb128 0x18
 1227 08c0 6E080000 		.4byte	0x86e
 1228 08c4 00       		.byte	0
 1229 08c5 0A       		.uleb128 0xa
 1230 08c6 04       		.byte	0x4
 1231 08c7 13       		.byte	0x13
 1232 08c8 D5       		.byte	0xd5
 1233 08c9 E6080000 		.4byte	0x8e6
 1234 08cd 08       		.uleb128 0x8
 1235 08ce 76050000 		.4byte	.LASF135
 1236 08d2 13       		.byte	0x13
 1237 08d3 D6       		.byte	0xd6
 1238 08d4 D4000000 		.4byte	0xd4
 1239 08d8 00       		.byte	0
 1240 08d9 08       		.uleb128 0x8
 1241 08da 6D050000 		.4byte	.LASF136
 1242 08de 13       		.byte	0x13
 1243 08df D7       		.byte	0xd7
 1244 08e0 D4000000 		.4byte	0xd4
 1245 08e4 02       		.byte	0x2
 1246 08e5 00       		.byte	0
 1247 08e6 0A       		.uleb128 0xa
 1248 08e7 04       		.byte	0x4
 1249 08e8 13       		.byte	0x13
 1250 08e9 D9       		.byte	0xd9
 1251 08ea 1F090000 		.4byte	0x91f
 1252 08ee 08       		.uleb128 0x8
 1253 08ef 1A050000 		.4byte	.LASF137
 1254 08f3 13       		.byte	0x13
ARM GAS  /tmp/ccQUPxID.s 			page 23


 1255 08f4 DA       		.byte	0xda
 1256 08f5 BF000000 		.4byte	0xbf
 1257 08f9 00       		.byte	0
 1258 08fa 08       		.uleb128 0x8
 1259 08fb 23050000 		.4byte	.LASF138
 1260 08ff 13       		.byte	0x13
 1261 0900 DB       		.byte	0xdb
 1262 0901 BF000000 		.4byte	0xbf
 1263 0905 01       		.byte	0x1
 1264 0906 08       		.uleb128 0x8
 1265 0907 2C050000 		.4byte	.LASF139
 1266 090b 13       		.byte	0x13
 1267 090c DC       		.byte	0xdc
 1268 090d BF000000 		.4byte	0xbf
 1269 0911 02       		.byte	0x2
 1270 0912 08       		.uleb128 0x8
 1271 0913 35050000 		.4byte	.LASF140
 1272 0917 13       		.byte	0x13
 1273 0918 DD       		.byte	0xdd
 1274 0919 BF000000 		.4byte	0xbf
 1275 091d 03       		.byte	0x3
 1276 091e 00       		.byte	0
 1277 091f 12       		.uleb128 0x12
 1278 0920 04       		.byte	0x4
 1279 0921 13       		.byte	0x13
 1280 0922 D3       		.byte	0xd3
 1281 0923 3D090000 		.4byte	0x93d
 1282 0927 13       		.uleb128 0x13
 1283 0928 0C040000 		.4byte	.LASF141
 1284 092c 13       		.byte	0x13
 1285 092d D4       		.byte	0xd4
 1286 092e F4000000 		.4byte	0xf4
 1287 0932 18       		.uleb128 0x18
 1288 0933 C5080000 		.4byte	0x8c5
 1289 0937 18       		.uleb128 0x18
 1290 0938 E6080000 		.4byte	0x8e6
 1291 093c 00       		.byte	0
 1292 093d 0A       		.uleb128 0xa
 1293 093e 04       		.byte	0x4
 1294 093f 13       		.byte	0x13
 1295 0940 E2       		.byte	0xe2
 1296 0941 5E090000 		.4byte	0x95e
 1297 0945 08       		.uleb128 0x8
 1298 0946 A3030000 		.4byte	.LASF142
 1299 094a 13       		.byte	0x13
 1300 094b E3       		.byte	0xe3
 1301 094c D4000000 		.4byte	0xd4
 1302 0950 00       		.byte	0
 1303 0951 08       		.uleb128 0x8
 1304 0952 9B030000 		.4byte	.LASF143
 1305 0956 13       		.byte	0x13
 1306 0957 E4       		.byte	0xe4
 1307 0958 D4000000 		.4byte	0xd4
 1308 095c 02       		.byte	0x2
 1309 095d 00       		.byte	0
 1310 095e 0A       		.uleb128 0xa
 1311 095f 04       		.byte	0x4
ARM GAS  /tmp/ccQUPxID.s 			page 24


 1312 0960 13       		.byte	0x13
 1313 0961 E6       		.byte	0xe6
 1314 0962 97090000 		.4byte	0x997
 1315 0966 08       		.uleb128 0x8
 1316 0967 4A030000 		.4byte	.LASF144
 1317 096b 13       		.byte	0x13
 1318 096c E7       		.byte	0xe7
 1319 096d BF000000 		.4byte	0xbf
 1320 0971 00       		.byte	0
 1321 0972 08       		.uleb128 0x8
 1322 0973 52030000 		.4byte	.LASF145
 1323 0977 13       		.byte	0x13
 1324 0978 E8       		.byte	0xe8
 1325 0979 BF000000 		.4byte	0xbf
 1326 097d 01       		.byte	0x1
 1327 097e 08       		.uleb128 0x8
 1328 097f 5A030000 		.4byte	.LASF146
 1329 0983 13       		.byte	0x13
 1330 0984 E9       		.byte	0xe9
 1331 0985 BF000000 		.4byte	0xbf
 1332 0989 02       		.byte	0x2
 1333 098a 08       		.uleb128 0x8
 1334 098b 62030000 		.4byte	.LASF147
 1335 098f 13       		.byte	0x13
 1336 0990 EA       		.byte	0xea
 1337 0991 BF000000 		.4byte	0xbf
 1338 0995 03       		.byte	0x3
 1339 0996 00       		.byte	0
 1340 0997 12       		.uleb128 0x12
 1341 0998 04       		.byte	0x4
 1342 0999 13       		.byte	0x13
 1343 099a E0       		.byte	0xe0
 1344 099b B5090000 		.4byte	0x9b5
 1345 099f 13       		.uleb128 0x13
 1346 09a0 45070000 		.4byte	.LASF148
 1347 09a4 13       		.byte	0x13
 1348 09a5 E1       		.byte	0xe1
 1349 09a6 F4000000 		.4byte	0xf4
 1350 09aa 18       		.uleb128 0x18
 1351 09ab 3D090000 		.4byte	0x93d
 1352 09af 18       		.uleb128 0x18
 1353 09b0 5E090000 		.4byte	0x95e
 1354 09b4 00       		.byte	0
 1355 09b5 0A       		.uleb128 0xa
 1356 09b6 04       		.byte	0x4
 1357 09b7 13       		.byte	0x13
 1358 09b8 EF       		.byte	0xef
 1359 09b9 D6090000 		.4byte	0x9d6
 1360 09bd 08       		.uleb128 0x8
 1361 09be F7020000 		.4byte	.LASF149
 1362 09c2 13       		.byte	0x13
 1363 09c3 F0       		.byte	0xf0
 1364 09c4 D4000000 		.4byte	0xd4
 1365 09c8 00       		.byte	0
 1366 09c9 08       		.uleb128 0x8
 1367 09ca EF020000 		.4byte	.LASF150
 1368 09ce 13       		.byte	0x13
ARM GAS  /tmp/ccQUPxID.s 			page 25


 1369 09cf F1       		.byte	0xf1
 1370 09d0 D4000000 		.4byte	0xd4
 1371 09d4 02       		.byte	0x2
 1372 09d5 00       		.byte	0
 1373 09d6 0A       		.uleb128 0xa
 1374 09d7 04       		.byte	0x4
 1375 09d8 13       		.byte	0x13
 1376 09d9 F3       		.byte	0xf3
 1377 09da 0F0A0000 		.4byte	0xa0f
 1378 09de 08       		.uleb128 0x8
 1379 09df CB020000 		.4byte	.LASF151
 1380 09e3 13       		.byte	0x13
 1381 09e4 F4       		.byte	0xf4
 1382 09e5 BF000000 		.4byte	0xbf
 1383 09e9 00       		.byte	0
 1384 09ea 08       		.uleb128 0x8
 1385 09eb D3020000 		.4byte	.LASF152
 1386 09ef 13       		.byte	0x13
 1387 09f0 F5       		.byte	0xf5
 1388 09f1 BF000000 		.4byte	0xbf
 1389 09f5 01       		.byte	0x1
 1390 09f6 08       		.uleb128 0x8
 1391 09f7 DB020000 		.4byte	.LASF153
 1392 09fb 13       		.byte	0x13
 1393 09fc F6       		.byte	0xf6
 1394 09fd BF000000 		.4byte	0xbf
 1395 0a01 02       		.byte	0x2
 1396 0a02 08       		.uleb128 0x8
 1397 0a03 66090000 		.4byte	.LASF154
 1398 0a07 13       		.byte	0x13
 1399 0a08 F7       		.byte	0xf7
 1400 0a09 BF000000 		.4byte	0xbf
 1401 0a0d 03       		.byte	0x3
 1402 0a0e 00       		.byte	0
 1403 0a0f 12       		.uleb128 0x12
 1404 0a10 04       		.byte	0x4
 1405 0a11 13       		.byte	0x13
 1406 0a12 ED       		.byte	0xed
 1407 0a13 2D0A0000 		.4byte	0xa2d
 1408 0a17 13       		.uleb128 0x13
 1409 0a18 A7040000 		.4byte	.LASF155
 1410 0a1c 13       		.byte	0x13
 1411 0a1d EE       		.byte	0xee
 1412 0a1e F4000000 		.4byte	0xf4
 1413 0a22 18       		.uleb128 0x18
 1414 0a23 B5090000 		.4byte	0x9b5
 1415 0a27 18       		.uleb128 0x18
 1416 0a28 D6090000 		.4byte	0x9d6
 1417 0a2c 00       		.byte	0
 1418 0a2d 0A       		.uleb128 0xa
 1419 0a2e 04       		.byte	0x4
 1420 0a2f 13       		.byte	0x13
 1421 0a30 FC       		.byte	0xfc
 1422 0a31 4E0A0000 		.4byte	0xa4e
 1423 0a35 08       		.uleb128 0x8
 1424 0a36 AA050000 		.4byte	.LASF156
 1425 0a3a 13       		.byte	0x13
ARM GAS  /tmp/ccQUPxID.s 			page 26


 1426 0a3b FD       		.byte	0xfd
 1427 0a3c D4000000 		.4byte	0xd4
 1428 0a40 00       		.byte	0
 1429 0a41 08       		.uleb128 0x8
 1430 0a42 A2050000 		.4byte	.LASF157
 1431 0a46 13       		.byte	0x13
 1432 0a47 FE       		.byte	0xfe
 1433 0a48 D4000000 		.4byte	0xd4
 1434 0a4c 02       		.byte	0x2
 1435 0a4d 00       		.byte	0
 1436 0a4e 19       		.uleb128 0x19
 1437 0a4f 04       		.byte	0x4
 1438 0a50 13       		.byte	0x13
 1439 0a51 0001     		.2byte	0x100
 1440 0a53 8C0A0000 		.4byte	0xa8c
 1441 0a57 1A       		.uleb128 0x1a
 1442 0a58 46050000 		.4byte	.LASF158
 1443 0a5c 13       		.byte	0x13
 1444 0a5d 0101     		.2byte	0x101
 1445 0a5f BF000000 		.4byte	0xbf
 1446 0a63 00       		.byte	0
 1447 0a64 1A       		.uleb128 0x1a
 1448 0a65 4E050000 		.4byte	.LASF159
 1449 0a69 13       		.byte	0x13
 1450 0a6a 0201     		.2byte	0x102
 1451 0a6c BF000000 		.4byte	0xbf
 1452 0a70 01       		.byte	0x1
 1453 0a71 1A       		.uleb128 0x1a
 1454 0a72 56050000 		.4byte	.LASF160
 1455 0a76 13       		.byte	0x13
 1456 0a77 0301     		.2byte	0x103
 1457 0a79 BF000000 		.4byte	0xbf
 1458 0a7d 02       		.byte	0x2
 1459 0a7e 1A       		.uleb128 0x1a
 1460 0a7f 5E050000 		.4byte	.LASF161
 1461 0a83 13       		.byte	0x13
 1462 0a84 0401     		.2byte	0x104
 1463 0a86 BF000000 		.4byte	0xbf
 1464 0a8a 03       		.byte	0x3
 1465 0a8b 00       		.byte	0
 1466 0a8c 12       		.uleb128 0x12
 1467 0a8d 04       		.byte	0x4
 1468 0a8e 13       		.byte	0x13
 1469 0a8f FA       		.byte	0xfa
 1470 0a90 AA0A0000 		.4byte	0xaaa
 1471 0a94 13       		.uleb128 0x13
 1472 0a95 A7060000 		.4byte	.LASF162
 1473 0a99 13       		.byte	0x13
 1474 0a9a FB       		.byte	0xfb
 1475 0a9b F4000000 		.4byte	0xf4
 1476 0a9f 18       		.uleb128 0x18
 1477 0aa0 2D0A0000 		.4byte	0xa2d
 1478 0aa4 18       		.uleb128 0x18
 1479 0aa5 4E0A0000 		.4byte	0xa4e
 1480 0aa9 00       		.byte	0
 1481 0aaa 0A       		.uleb128 0xa
 1482 0aab 20       		.byte	0x20
ARM GAS  /tmp/ccQUPxID.s 			page 27


 1483 0aac 13       		.byte	0x13
 1484 0aad C3       		.byte	0xc3
 1485 0aae DD0A0000 		.4byte	0xadd
 1486 0ab2 1B       		.uleb128 0x1b
 1487 0ab3 A7080000 		.4byte	0x8a7
 1488 0ab7 00       		.byte	0
 1489 0ab8 08       		.uleb128 0x8
 1490 0ab9 25020000 		.4byte	.LASF163
 1491 0abd 13       		.byte	0x13
 1492 0abe D2       		.byte	0xd2
 1493 0abf DD0A0000 		.4byte	0xadd
 1494 0ac3 04       		.byte	0x4
 1495 0ac4 1B       		.uleb128 0x1b
 1496 0ac5 1F090000 		.4byte	0x91f
 1497 0ac9 10       		.byte	0x10
 1498 0aca 1B       		.uleb128 0x1b
 1499 0acb 97090000 		.4byte	0x997
 1500 0acf 14       		.byte	0x14
 1501 0ad0 1B       		.uleb128 0x1b
 1502 0ad1 0F0A0000 		.4byte	0xa0f
 1503 0ad5 18       		.byte	0x18
 1504 0ad6 1B       		.uleb128 0x1b
 1505 0ad7 8C0A0000 		.4byte	0xa8c
 1506 0adb 1C       		.byte	0x1c
 1507 0adc 00       		.byte	0
 1508 0add 15       		.uleb128 0x15
 1509 0ade E9000000 		.4byte	0xe9
 1510 0ae2 ED0A0000 		.4byte	0xaed
 1511 0ae6 16       		.uleb128 0x16
 1512 0ae7 92030000 		.4byte	0x392
 1513 0aeb 02       		.byte	0x2
 1514 0aec 00       		.byte	0
 1515 0aed 1C       		.uleb128 0x1c
 1516 0aee DE080000 		.4byte	.LASF164
 1517 0af2 13       		.byte	0x13
 1518 0af3 0701     		.2byte	0x107
 1519 0af5 AA0A0000 		.4byte	0xaaa
 1520 0af9 19       		.uleb128 0x19
 1521 0afa 74       		.byte	0x74
 1522 0afb 13       		.byte	0x13
 1523 0afc 1C01     		.2byte	0x11c
 1524 0afe DC0B0000 		.4byte	0xbdc
 1525 0b02 0E       		.uleb128 0xe
 1526 0b03 495200   		.ascii	"IR\000"
 1527 0b06 13       		.byte	0x13
 1528 0b07 1E01     		.2byte	0x11e
 1529 0b09 F4000000 		.4byte	0xf4
 1530 0b0d 00       		.byte	0
 1531 0b0e 0E       		.uleb128 0xe
 1532 0b0f 54435200 		.ascii	"TCR\000"
 1533 0b13 13       		.byte	0x13
 1534 0b14 1F01     		.2byte	0x11f
 1535 0b16 F4000000 		.4byte	0xf4
 1536 0b1a 04       		.byte	0x4
 1537 0b1b 0E       		.uleb128 0xe
 1538 0b1c 544300   		.ascii	"TC\000"
 1539 0b1f 13       		.byte	0x13
ARM GAS  /tmp/ccQUPxID.s 			page 28


 1540 0b20 2001     		.2byte	0x120
 1541 0b22 F4000000 		.4byte	0xf4
 1542 0b26 08       		.byte	0x8
 1543 0b27 0E       		.uleb128 0xe
 1544 0b28 505200   		.ascii	"PR\000"
 1545 0b2b 13       		.byte	0x13
 1546 0b2c 2101     		.2byte	0x121
 1547 0b2e F4000000 		.4byte	0xf4
 1548 0b32 0C       		.byte	0xc
 1549 0b33 0E       		.uleb128 0xe
 1550 0b34 504300   		.ascii	"PC\000"
 1551 0b37 13       		.byte	0x13
 1552 0b38 2201     		.2byte	0x122
 1553 0b3a F4000000 		.4byte	0xf4
 1554 0b3e 10       		.byte	0x10
 1555 0b3f 0E       		.uleb128 0xe
 1556 0b40 4D435200 		.ascii	"MCR\000"
 1557 0b44 13       		.byte	0x13
 1558 0b45 2301     		.2byte	0x123
 1559 0b47 F4000000 		.4byte	0xf4
 1560 0b4b 14       		.byte	0x14
 1561 0b4c 0E       		.uleb128 0xe
 1562 0b4d 4D523000 		.ascii	"MR0\000"
 1563 0b51 13       		.byte	0x13
 1564 0b52 2401     		.2byte	0x124
 1565 0b54 F4000000 		.4byte	0xf4
 1566 0b58 18       		.byte	0x18
 1567 0b59 0E       		.uleb128 0xe
 1568 0b5a 4D523100 		.ascii	"MR1\000"
 1569 0b5e 13       		.byte	0x13
 1570 0b5f 2501     		.2byte	0x125
 1571 0b61 F4000000 		.4byte	0xf4
 1572 0b65 1C       		.byte	0x1c
 1573 0b66 0E       		.uleb128 0xe
 1574 0b67 4D523200 		.ascii	"MR2\000"
 1575 0b6b 13       		.byte	0x13
 1576 0b6c 2601     		.2byte	0x126
 1577 0b6e F4000000 		.4byte	0xf4
 1578 0b72 20       		.byte	0x20
 1579 0b73 0E       		.uleb128 0xe
 1580 0b74 4D523300 		.ascii	"MR3\000"
 1581 0b78 13       		.byte	0x13
 1582 0b79 2701     		.2byte	0x127
 1583 0b7b F4000000 		.4byte	0xf4
 1584 0b7f 24       		.byte	0x24
 1585 0b80 0E       		.uleb128 0xe
 1586 0b81 43435200 		.ascii	"CCR\000"
 1587 0b85 13       		.byte	0x13
 1588 0b86 2801     		.2byte	0x128
 1589 0b88 F4000000 		.4byte	0xf4
 1590 0b8c 28       		.byte	0x28
 1591 0b8d 0E       		.uleb128 0xe
 1592 0b8e 43523000 		.ascii	"CR0\000"
 1593 0b92 13       		.byte	0x13
 1594 0b93 2901     		.2byte	0x129
 1595 0b95 F9000000 		.4byte	0xf9
 1596 0b99 2C       		.byte	0x2c
ARM GAS  /tmp/ccQUPxID.s 			page 29


 1597 0b9a 0E       		.uleb128 0xe
 1598 0b9b 43523100 		.ascii	"CR1\000"
 1599 0b9f 13       		.byte	0x13
 1600 0ba0 2A01     		.2byte	0x12a
 1601 0ba2 F9000000 		.4byte	0xf9
 1602 0ba6 30       		.byte	0x30
 1603 0ba7 1A       		.uleb128 0x1a
 1604 0ba8 25020000 		.4byte	.LASF163
 1605 0bac 13       		.byte	0x13
 1606 0bad 2B01     		.2byte	0x12b
 1607 0baf 16080000 		.4byte	0x816
 1608 0bb3 34       		.byte	0x34
 1609 0bb4 0E       		.uleb128 0xe
 1610 0bb5 454D5200 		.ascii	"EMR\000"
 1611 0bb9 13       		.byte	0x13
 1612 0bba 2C01     		.2byte	0x12c
 1613 0bbc F4000000 		.4byte	0xf4
 1614 0bc0 3C       		.byte	0x3c
 1615 0bc1 1A       		.uleb128 0x1a
 1616 0bc2 2F020000 		.4byte	.LASF165
 1617 0bc6 13       		.byte	0x13
 1618 0bc7 2D01     		.2byte	0x12d
 1619 0bc9 3D080000 		.4byte	0x83d
 1620 0bcd 40       		.byte	0x40
 1621 0bce 1A       		.uleb128 0x1a
 1622 0bcf 99000000 		.4byte	.LASF166
 1623 0bd3 13       		.byte	0x13
 1624 0bd4 2E01     		.2byte	0x12e
 1625 0bd6 F4000000 		.4byte	0xf4
 1626 0bda 70       		.byte	0x70
 1627 0bdb 00       		.byte	0
 1628 0bdc 1C       		.uleb128 0x1c
 1629 0bdd 83060000 		.4byte	.LASF167
 1630 0be1 13       		.byte	0x13
 1631 0be2 2F01     		.2byte	0x12f
 1632 0be4 F90A0000 		.4byte	0xaf9
 1633 0be8 1D       		.uleb128 0x1d
 1634 0be9 04       		.byte	0x4
 1635 0bea 13       		.byte	0x13
 1636 0beb 5201     		.2byte	0x152
 1637 0bed 160C0000 		.4byte	0xc16
 1638 0bf1 1E       		.uleb128 0x1e
 1639 0bf2 52425200 		.ascii	"RBR\000"
 1640 0bf6 13       		.byte	0x13
 1641 0bf7 5301     		.2byte	0x153
 1642 0bf9 F9000000 		.4byte	0xf9
 1643 0bfd 1E       		.uleb128 0x1e
 1644 0bfe 54485200 		.ascii	"THR\000"
 1645 0c02 13       		.byte	0x13
 1646 0c03 5401     		.2byte	0x154
 1647 0c05 F4000000 		.4byte	0xf4
 1648 0c09 1E       		.uleb128 0x1e
 1649 0c0a 444C4C00 		.ascii	"DLL\000"
 1650 0c0e 13       		.byte	0x13
 1651 0c0f 5501     		.2byte	0x155
 1652 0c11 F4000000 		.4byte	0xf4
 1653 0c15 00       		.byte	0
ARM GAS  /tmp/ccQUPxID.s 			page 30


 1654 0c16 1D       		.uleb128 0x1d
 1655 0c17 04       		.byte	0x4
 1656 0c18 13       		.byte	0x13
 1657 0c19 5701     		.2byte	0x157
 1658 0c1b 380C0000 		.4byte	0xc38
 1659 0c1f 1E       		.uleb128 0x1e
 1660 0c20 444C4D00 		.ascii	"DLM\000"
 1661 0c24 13       		.byte	0x13
 1662 0c25 5801     		.2byte	0x158
 1663 0c27 F4000000 		.4byte	0xf4
 1664 0c2b 1E       		.uleb128 0x1e
 1665 0c2c 49455200 		.ascii	"IER\000"
 1666 0c30 13       		.byte	0x13
 1667 0c31 5901     		.2byte	0x159
 1668 0c33 F4000000 		.4byte	0xf4
 1669 0c37 00       		.byte	0
 1670 0c38 1D       		.uleb128 0x1d
 1671 0c39 04       		.byte	0x4
 1672 0c3a 13       		.byte	0x13
 1673 0c3b 5B01     		.2byte	0x15b
 1674 0c3d 5A0C0000 		.4byte	0xc5a
 1675 0c41 1E       		.uleb128 0x1e
 1676 0c42 49495200 		.ascii	"IIR\000"
 1677 0c46 13       		.byte	0x13
 1678 0c47 5C01     		.2byte	0x15c
 1679 0c49 F9000000 		.4byte	0xf9
 1680 0c4d 1E       		.uleb128 0x1e
 1681 0c4e 46435200 		.ascii	"FCR\000"
 1682 0c52 13       		.byte	0x13
 1683 0c53 5D01     		.2byte	0x15d
 1684 0c55 F4000000 		.4byte	0xf4
 1685 0c59 00       		.byte	0
 1686 0c5a 19       		.uleb128 0x19
 1687 0c5b 34       		.byte	0x34
 1688 0c5c 13       		.byte	0x13
 1689 0c5d 5001     		.2byte	0x150
 1690 0c5f F80C0000 		.4byte	0xcf8
 1691 0c63 1B       		.uleb128 0x1b
 1692 0c64 E80B0000 		.4byte	0xbe8
 1693 0c68 00       		.byte	0
 1694 0c69 1B       		.uleb128 0x1b
 1695 0c6a 160C0000 		.4byte	0xc16
 1696 0c6e 04       		.byte	0x4
 1697 0c6f 1B       		.uleb128 0x1b
 1698 0c70 380C0000 		.4byte	0xc38
 1699 0c74 08       		.byte	0x8
 1700 0c75 0E       		.uleb128 0xe
 1701 0c76 4C435200 		.ascii	"LCR\000"
 1702 0c7a 13       		.byte	0x13
 1703 0c7b 5F01     		.2byte	0x15f
 1704 0c7d F4000000 		.4byte	0xf4
 1705 0c81 0C       		.byte	0xc
 1706 0c82 1A       		.uleb128 0x1a
 1707 0c83 25020000 		.4byte	.LASF163
 1708 0c87 13       		.byte	0x13
 1709 0c88 6001     		.2byte	0x160
 1710 0c8a E9000000 		.4byte	0xe9
ARM GAS  /tmp/ccQUPxID.s 			page 31


 1711 0c8e 10       		.byte	0x10
 1712 0c8f 0E       		.uleb128 0xe
 1713 0c90 4C535200 		.ascii	"LSR\000"
 1714 0c94 13       		.byte	0x13
 1715 0c95 6101     		.2byte	0x161
 1716 0c97 F9000000 		.4byte	0xf9
 1717 0c9b 14       		.byte	0x14
 1718 0c9c 1A       		.uleb128 0x1a
 1719 0c9d 2F020000 		.4byte	.LASF165
 1720 0ca1 13       		.byte	0x13
 1721 0ca2 6201     		.2byte	0x162
 1722 0ca4 E9000000 		.4byte	0xe9
 1723 0ca8 18       		.byte	0x18
 1724 0ca9 0E       		.uleb128 0xe
 1725 0caa 53435200 		.ascii	"SCR\000"
 1726 0cae 13       		.byte	0x13
 1727 0caf 6301     		.2byte	0x163
 1728 0cb1 F4000000 		.4byte	0xf4
 1729 0cb5 1C       		.byte	0x1c
 1730 0cb6 0E       		.uleb128 0xe
 1731 0cb7 41435200 		.ascii	"ACR\000"
 1732 0cbb 13       		.byte	0x13
 1733 0cbc 6401     		.2byte	0x164
 1734 0cbe F4000000 		.4byte	0xf4
 1735 0cc2 20       		.byte	0x20
 1736 0cc3 0E       		.uleb128 0xe
 1737 0cc4 49435200 		.ascii	"ICR\000"
 1738 0cc8 13       		.byte	0x13
 1739 0cc9 6501     		.2byte	0x165
 1740 0ccb F4000000 		.4byte	0xf4
 1741 0ccf 24       		.byte	0x24
 1742 0cd0 0E       		.uleb128 0xe
 1743 0cd1 46445200 		.ascii	"FDR\000"
 1744 0cd5 13       		.byte	0x13
 1745 0cd6 6601     		.2byte	0x166
 1746 0cd8 F4000000 		.4byte	0xf4
 1747 0cdc 28       		.byte	0x28
 1748 0cdd 1A       		.uleb128 0x1a
 1749 0cde 6E020000 		.4byte	.LASF168
 1750 0ce2 13       		.byte	0x13
 1751 0ce3 6701     		.2byte	0x167
 1752 0ce5 E9000000 		.4byte	0xe9
 1753 0ce9 2C       		.byte	0x2c
 1754 0cea 0E       		.uleb128 0xe
 1755 0ceb 54455200 		.ascii	"TER\000"
 1756 0cef 13       		.byte	0x13
 1757 0cf0 6801     		.2byte	0x168
 1758 0cf2 F4000000 		.4byte	0xf4
 1759 0cf6 30       		.byte	0x30
 1760 0cf7 00       		.byte	0
 1761 0cf8 1C       		.uleb128 0x1c
 1762 0cf9 8D070000 		.4byte	.LASF169
 1763 0cfd 13       		.byte	0x13
 1764 0cfe 6901     		.2byte	0x169
 1765 0d00 5A0C0000 		.4byte	0xc5a
 1766 0d04 19       		.uleb128 0x19
 1767 0d05 14       		.byte	0x14
ARM GAS  /tmp/ccQUPxID.s 			page 32


 1768 0d06 13       		.byte	0x13
 1769 0d07 B402     		.2byte	0x2b4
 1770 0d09 4F0D0000 		.4byte	0xd4f
 1771 0d0d 1A       		.uleb128 0x1a
 1772 0d0e 4D010000 		.4byte	.LASF170
 1773 0d12 13       		.byte	0x13
 1774 0d13 B602     		.2byte	0x2b6
 1775 0d15 F4000000 		.4byte	0xf4
 1776 0d19 00       		.byte	0
 1777 0d1a 1A       		.uleb128 0x1a
 1778 0d1b 1F010000 		.4byte	.LASF171
 1779 0d1f 13       		.byte	0x13
 1780 0d20 B702     		.2byte	0x2b7
 1781 0d22 F4000000 		.4byte	0xf4
 1782 0d26 04       		.byte	0x4
 1783 0d27 1A       		.uleb128 0x1a
 1784 0d28 9E070000 		.4byte	.LASF172
 1785 0d2c 13       		.byte	0x13
 1786 0d2d B802     		.2byte	0x2b8
 1787 0d2f F4000000 		.4byte	0xf4
 1788 0d33 08       		.byte	0x8
 1789 0d34 1A       		.uleb128 0x1a
 1790 0d35 C5030000 		.4byte	.LASF173
 1791 0d39 13       		.byte	0x13
 1792 0d3a B902     		.2byte	0x2b9
 1793 0d3c F4000000 		.4byte	0xf4
 1794 0d40 0C       		.byte	0xc
 1795 0d41 1A       		.uleb128 0x1a
 1796 0d42 73080000 		.4byte	.LASF174
 1797 0d46 13       		.byte	0x13
 1798 0d47 BA02     		.2byte	0x2ba
 1799 0d49 F4000000 		.4byte	0xf4
 1800 0d4d 10       		.byte	0x10
 1801 0d4e 00       		.byte	0
 1802 0d4f 1C       		.uleb128 0x1c
 1803 0d50 7F000000 		.4byte	.LASF175
 1804 0d54 13       		.byte	0x13
 1805 0d55 BB02     		.2byte	0x2bb
 1806 0d57 040D0000 		.4byte	0xd04
 1807 0d5b 15       		.uleb128 0x15
 1808 0d5c 660D0000 		.4byte	0xd66
 1809 0d60 660D0000 		.4byte	0xd66
 1810 0d64 1F       		.uleb128 0x1f
 1811 0d65 00       		.byte	0
 1812 0d66 0B       		.uleb128 0xb
 1813 0d67 04       		.byte	0x4
 1814 0d68 4F0D0000 		.4byte	0xd4f
 1815 0d6c 17       		.uleb128 0x17
 1816 0d6d DE030000 		.4byte	.LASF176
 1817 0d71 14       		.byte	0x14
 1818 0d72 9501     		.2byte	0x195
 1819 0d74 5B0D0000 		.4byte	0xd5b
 1820 0d78 14       		.uleb128 0x14
 1821 0d79 52010000 		.4byte	0x152
 1822 0d7d 910D0000 		.4byte	0xd91
 1823 0d81 10       		.uleb128 0x10
 1824 0d82 E8020000 		.4byte	0x2e8
ARM GAS  /tmp/ccQUPxID.s 			page 33


 1825 0d86 10       		.uleb128 0x10
 1826 0d87 B4000000 		.4byte	0xb4
 1827 0d8b 10       		.uleb128 0x10
 1828 0d8c 73010000 		.4byte	0x173
 1829 0d90 00       		.byte	0
 1830 0d91 0B       		.uleb128 0xb
 1831 0d92 04       		.byte	0x4
 1832 0d93 780D0000 		.4byte	0xd78
 1833 0d97 14       		.uleb128 0x14
 1834 0d98 52010000 		.4byte	0x152
 1835 0d9c AB0D0000 		.4byte	0xdab
 1836 0da0 10       		.uleb128 0x10
 1837 0da1 E8020000 		.4byte	0x2e8
 1838 0da5 10       		.uleb128 0x10
 1839 0da6 73010000 		.4byte	0x173
 1840 0daa 00       		.byte	0
 1841 0dab 0B       		.uleb128 0xb
 1842 0dac 04       		.byte	0x4
 1843 0dad 970D0000 		.4byte	0xd97
 1844 0db1 14       		.uleb128 0x14
 1845 0db2 2C000000 		.4byte	0x2c
 1846 0db6 CF0D0000 		.4byte	0xdcf
 1847 0dba 10       		.uleb128 0x10
 1848 0dbb E8020000 		.4byte	0x2e8
 1849 0dbf 10       		.uleb128 0x10
 1850 0dc0 B6070000 		.4byte	0x7b6
 1851 0dc4 10       		.uleb128 0x10
 1852 0dc5 2C000000 		.4byte	0x2c
 1853 0dc9 10       		.uleb128 0x10
 1854 0dca 73010000 		.4byte	0x173
 1855 0dce 00       		.byte	0
 1856 0dcf 0B       		.uleb128 0xb
 1857 0dd0 04       		.byte	0x4
 1858 0dd1 B10D0000 		.4byte	0xdb1
 1859 0dd5 14       		.uleb128 0x14
 1860 0dd6 2C000000 		.4byte	0x2c
 1861 0dda F30D0000 		.4byte	0xdf3
 1862 0dde 10       		.uleb128 0x10
 1863 0ddf E8020000 		.4byte	0x2e8
 1864 0de3 10       		.uleb128 0x10
 1865 0de4 81070000 		.4byte	0x781
 1866 0de8 10       		.uleb128 0x10
 1867 0de9 2C000000 		.4byte	0x2c
 1868 0ded 10       		.uleb128 0x10
 1869 0dee 73010000 		.4byte	0x173
 1870 0df2 00       		.byte	0
 1871 0df3 0B       		.uleb128 0xb
 1872 0df4 04       		.byte	0x4
 1873 0df5 D50D0000 		.4byte	0xdd5
 1874 0df9 0A       		.uleb128 0xa
 1875 0dfa 08       		.byte	0x8
 1876 0dfb 15       		.byte	0x15
 1877 0dfc 2E       		.byte	0x2e
 1878 0dfd 1A0E0000 		.4byte	0xe1a
 1879 0e01 08       		.uleb128 0x8
 1880 0e02 7D090000 		.4byte	.LASF177
 1881 0e06 15       		.byte	0x15
ARM GAS  /tmp/ccQUPxID.s 			page 34


 1882 0e07 30       		.byte	0x30
 1883 0e08 E9000000 		.4byte	0xe9
 1884 0e0c 00       		.byte	0
 1885 0e0d 09       		.uleb128 0x9
 1886 0e0e 64697200 		.ascii	"dir\000"
 1887 0e12 15       		.byte	0x15
 1888 0e13 32       		.byte	0x32
 1889 0e14 E9000000 		.4byte	0xe9
 1890 0e18 04       		.byte	0x4
 1891 0e19 00       		.byte	0
 1892 0e1a 03       		.uleb128 0x3
 1893 0e1b 39080000 		.4byte	.LASF178
 1894 0e1f 15       		.byte	0x15
 1895 0e20 33       		.byte	0x33
 1896 0e21 F90D0000 		.4byte	0xdf9
 1897 0e25 0A       		.uleb128 0xa
 1898 0e26 28       		.byte	0x28
 1899 0e27 15       		.byte	0x15
 1900 0e28 41       		.byte	0x41
 1901 0e29 650E0000 		.4byte	0xe65
 1902 0e2d 09       		.uleb128 0x9
 1903 0e2e 503000   		.ascii	"P0\000"
 1904 0e31 15       		.byte	0x15
 1905 0e32 43       		.byte	0x43
 1906 0e33 1A0E0000 		.4byte	0xe1a
 1907 0e37 00       		.byte	0
 1908 0e38 09       		.uleb128 0x9
 1909 0e39 503100   		.ascii	"P1\000"
 1910 0e3c 15       		.byte	0x15
 1911 0e3d 45       		.byte	0x45
 1912 0e3e 1A0E0000 		.4byte	0xe1a
 1913 0e42 08       		.byte	0x8
 1914 0e43 09       		.uleb128 0x9
 1915 0e44 503200   		.ascii	"P2\000"
 1916 0e47 15       		.byte	0x15
 1917 0e48 47       		.byte	0x47
 1918 0e49 1A0E0000 		.4byte	0xe1a
 1919 0e4d 10       		.byte	0x10
 1920 0e4e 09       		.uleb128 0x9
 1921 0e4f 503300   		.ascii	"P3\000"
 1922 0e52 15       		.byte	0x15
 1923 0e53 49       		.byte	0x49
 1924 0e54 1A0E0000 		.4byte	0xe1a
 1925 0e58 18       		.byte	0x18
 1926 0e59 09       		.uleb128 0x9
 1927 0e5a 503400   		.ascii	"P4\000"
 1928 0e5d 15       		.byte	0x15
 1929 0e5e 4B       		.byte	0x4b
 1930 0e5f 1A0E0000 		.4byte	0xe1a
 1931 0e63 20       		.byte	0x20
 1932 0e64 00       		.byte	0
 1933 0e65 03       		.uleb128 0x3
 1934 0e66 5B080000 		.4byte	.LASF179
 1935 0e6a 15       		.byte	0x15
 1936 0e6b 4C       		.byte	0x4c
 1937 0e6c 250E0000 		.4byte	0xe25
 1938 0e70 06       		.uleb128 0x6
ARM GAS  /tmp/ccQUPxID.s 			page 35


 1939 0e71 650E0000 		.4byte	0xe65
 1940 0e75 03       		.uleb128 0x3
 1941 0e76 0B030000 		.4byte	.LASF180
 1942 0e7a 15       		.byte	0x15
 1943 0e7b 5C       		.byte	0x5c
 1944 0e7c E9000000 		.4byte	0xe9
 1945 0e80 03       		.uleb128 0x3
 1946 0e81 D8000000 		.4byte	.LASF181
 1947 0e85 15       		.byte	0x15
 1948 0e86 61       		.byte	0x61
 1949 0e87 E9000000 		.4byte	0xe9
 1950 0e8b 03       		.uleb128 0x3
 1951 0e8c AB010000 		.4byte	.LASF182
 1952 0e90 15       		.byte	0x15
 1953 0e91 66       		.byte	0x66
 1954 0e92 960E0000 		.4byte	0xe96
 1955 0e96 0B       		.uleb128 0xb
 1956 0e97 04       		.byte	0x4
 1957 0e98 ED0A0000 		.4byte	0xaed
 1958 0e9c 17       		.uleb128 0x17
 1959 0e9d D9010000 		.4byte	.LASF183
 1960 0ea1 15       		.byte	0x15
 1961 0ea2 3301     		.2byte	0x133
 1962 0ea4 700E0000 		.4byte	0xe70
 1963 0ea8 0A       		.uleb128 0xa
 1964 0ea9 0C       		.byte	0xc
 1965 0eaa 16       		.byte	0x16
 1966 0eab 7E       		.byte	0x7e
 1967 0eac D50E0000 		.4byte	0xed5
 1968 0eb0 08       		.uleb128 0x8
 1969 0eb1 0A020000 		.4byte	.LASF184
 1970 0eb5 16       		.byte	0x16
 1971 0eb6 82       		.byte	0x82
 1972 0eb7 8B0E0000 		.4byte	0xe8b
 1973 0ebb 00       		.byte	0
 1974 0ebc 08       		.uleb128 0x8
 1975 0ebd AE040000 		.4byte	.LASF185
 1976 0ec1 16       		.byte	0x16
 1977 0ec2 88       		.byte	0x88
 1978 0ec3 750E0000 		.4byte	0xe75
 1979 0ec7 04       		.byte	0x4
 1980 0ec8 08       		.uleb128 0x8
 1981 0ec9 56060000 		.4byte	.LASF186
 1982 0ecd 16       		.byte	0x16
 1983 0ece 8C       		.byte	0x8c
 1984 0ecf 09010000 		.4byte	0x109
 1985 0ed3 08       		.byte	0x8
 1986 0ed4 00       		.byte	0
 1987 0ed5 03       		.uleb128 0x3
 1988 0ed6 20030000 		.4byte	.LASF187
 1989 0eda 16       		.byte	0x16
 1990 0edb 8D       		.byte	0x8d
 1991 0edc A80E0000 		.4byte	0xea8
 1992 0ee0 20       		.uleb128 0x20
 1993 0ee1 01       		.byte	0x1
 1994 0ee2 5E000000 		.4byte	0x5e
 1995 0ee6 17       		.byte	0x17
ARM GAS  /tmp/ccQUPxID.s 			page 36


 1996 0ee7 35       		.byte	0x35
 1997 0ee8 0B0F0000 		.4byte	0xf0b
 1998 0eec 21       		.uleb128 0x21
 1999 0eed 7D020000 		.4byte	.LASF188
 2000 0ef1 00       		.byte	0
 2001 0ef2 21       		.uleb128 0x21
 2002 0ef3 F6080000 		.4byte	.LASF189
 2003 0ef7 01       		.byte	0x1
 2004 0ef8 21       		.uleb128 0x21
 2005 0ef9 63070000 		.4byte	.LASF190
 2006 0efd 02       		.byte	0x2
 2007 0efe 21       		.uleb128 0x21
 2008 0eff 6D070000 		.4byte	.LASF191
 2009 0f03 03       		.byte	0x3
 2010 0f04 21       		.uleb128 0x21
 2011 0f05 D4040000 		.4byte	.LASF192
 2012 0f09 04       		.byte	0x4
 2013 0f0a 00       		.byte	0
 2014 0f0b 03       		.uleb128 0x3
 2015 0f0c A7000000 		.4byte	.LASF193
 2016 0f10 17       		.byte	0x17
 2017 0f11 3B       		.byte	0x3b
 2018 0f12 E00E0000 		.4byte	0xee0
 2019 0f16 03       		.uleb128 0x3
 2020 0f17 95040000 		.4byte	.LASF194
 2021 0f1b 17       		.byte	0x17
 2022 0f1c 40       		.byte	0x40
 2023 0f1d 210F0000 		.4byte	0xf21
 2024 0f21 07       		.uleb128 0x7
 2025 0f22 95040000 		.4byte	.LASF194
 2026 0f26 10       		.byte	0x10
 2027 0f27 18       		.byte	0x18
 2028 0f28 93       		.byte	0x93
 2029 0f29 5E0F0000 		.4byte	0xf5e
 2030 0f2d 08       		.uleb128 0x8
 2031 0f2e B9000000 		.4byte	.LASF195
 2032 0f32 18       		.byte	0x18
 2033 0f33 97       		.byte	0x97
 2034 0f34 0B0F0000 		.4byte	0xf0b
 2035 0f38 00       		.byte	0
 2036 0f39 08       		.uleb128 0x8
 2037 0f3a B2000000 		.4byte	.LASF196
 2038 0f3e 18       		.byte	0x18
 2039 0f3f 9B       		.byte	0x9b
 2040 0f40 BC0F0000 		.4byte	0xfbc
 2041 0f44 04       		.byte	0x4
 2042 0f45 08       		.uleb128 0x8
 2043 0f46 14040000 		.4byte	.LASF197
 2044 0f4a 18       		.byte	0x18
 2045 0f4b A0       		.byte	0xa0
 2046 0f4c E9000000 		.4byte	0xe9
 2047 0f50 08       		.byte	0x8
 2048 0f51 09       		.uleb128 0x9
 2049 0f52 746D7200 		.ascii	"tmr\000"
 2050 0f56 18       		.byte	0x18
 2051 0f57 A4       		.byte	0xa4
 2052 0f58 C20F0000 		.4byte	0xfc2
ARM GAS  /tmp/ccQUPxID.s 			page 37


 2053 0f5c 0C       		.byte	0xc
 2054 0f5d 00       		.byte	0
 2055 0f5e 03       		.uleb128 0x3
 2056 0f5f 89090000 		.4byte	.LASF198
 2057 0f63 17       		.byte	0x17
 2058 0f64 47       		.byte	0x47
 2059 0f65 690F0000 		.4byte	0xf69
 2060 0f69 0B       		.uleb128 0xb
 2061 0f6a 04       		.byte	0x4
 2062 0f6b 6F0F0000 		.4byte	0xf6f
 2063 0f6f 0F       		.uleb128 0xf
 2064 0f70 7A0F0000 		.4byte	0xf7a
 2065 0f74 10       		.uleb128 0x10
 2066 0f75 7A0F0000 		.4byte	0xf7a
 2067 0f79 00       		.byte	0
 2068 0f7a 0B       		.uleb128 0xb
 2069 0f7b 04       		.byte	0x4
 2070 0f7c 160F0000 		.4byte	0xf16
 2071 0f80 03       		.uleb128 0x3
 2072 0f81 BB030000 		.4byte	.LASF199
 2073 0f85 18       		.byte	0x18
 2074 0f86 76       		.byte	0x76
 2075 0f87 E9000000 		.4byte	0xe9
 2076 0f8b 0A       		.uleb128 0xa
 2077 0f8c 08       		.byte	0x8
 2078 0f8d 18       		.byte	0x18
 2079 0f8e 81       		.byte	0x81
 2080 0f8f AC0F0000 		.4byte	0xfac
 2081 0f93 08       		.uleb128 0x8
 2082 0f94 C0040000 		.4byte	.LASF200
 2083 0f98 18       		.byte	0x18
 2084 0f99 87       		.byte	0x87
 2085 0f9a 800F0000 		.4byte	0xf80
 2086 0f9e 00       		.byte	0
 2087 0f9f 08       		.uleb128 0x8
 2088 0fa0 CF000000 		.4byte	.LASF201
 2089 0fa4 18       		.byte	0x18
 2090 0fa5 8C       		.byte	0x8c
 2091 0fa6 5E0F0000 		.4byte	0xf5e
 2092 0faa 04       		.byte	0x4
 2093 0fab 00       		.byte	0
 2094 0fac 03       		.uleb128 0x3
 2095 0fad 1A040000 		.4byte	.LASF202
 2096 0fb1 18       		.byte	0x18
 2097 0fb2 8E       		.byte	0x8e
 2098 0fb3 8B0F0000 		.4byte	0xf8b
 2099 0fb7 06       		.uleb128 0x6
 2100 0fb8 AC0F0000 		.4byte	0xfac
 2101 0fbc 0B       		.uleb128 0xb
 2102 0fbd 04       		.byte	0x4
 2103 0fbe B70F0000 		.4byte	0xfb7
 2104 0fc2 0B       		.uleb128 0xb
 2105 0fc3 04       		.byte	0x4
 2106 0fc4 DC0B0000 		.4byte	0xbdc
 2107 0fc8 11       		.uleb128 0x11
 2108 0fc9 93010000 		.4byte	.LASF203
 2109 0fcd 18       		.byte	0x18
ARM GAS  /tmp/ccQUPxID.s 			page 38


 2110 0fce B0       		.byte	0xb0
 2111 0fcf 160F0000 		.4byte	0xf16
 2112 0fd3 11       		.uleb128 0x11
 2113 0fd4 99010000 		.4byte	.LASF204
 2114 0fd8 18       		.byte	0x18
 2115 0fd9 B4       		.byte	0xb4
 2116 0fda 160F0000 		.4byte	0xf16
 2117 0fde 11       		.uleb128 0x11
 2118 0fdf 9F010000 		.4byte	.LASF205
 2119 0fe3 18       		.byte	0x18
 2120 0fe4 B8       		.byte	0xb8
 2121 0fe5 160F0000 		.4byte	0xf16
 2122 0fe9 11       		.uleb128 0x11
 2123 0fea A5010000 		.4byte	.LASF206
 2124 0fee 18       		.byte	0x18
 2125 0fef BC       		.byte	0xbc
 2126 0ff0 160F0000 		.4byte	0xf16
 2127 0ff4 20       		.uleb128 0x20
 2128 0ff5 01       		.byte	0x1
 2129 0ff6 5E000000 		.4byte	0x5e
 2130 0ffa 19       		.byte	0x19
 2131 0ffb 5D       		.byte	0x5d
 2132 0ffc 13100000 		.4byte	0x1013
 2133 1000 21       		.uleb128 0x21
 2134 1001 5E020000 		.4byte	.LASF207
 2135 1005 00       		.byte	0
 2136 1006 21       		.uleb128 0x21
 2137 1007 4C090000 		.4byte	.LASF208
 2138 100b 01       		.byte	0x1
 2139 100c 21       		.uleb128 0x21
 2140 100d E5070000 		.4byte	.LASF209
 2141 1011 02       		.byte	0x2
 2142 1012 00       		.byte	0
 2143 1013 03       		.uleb128 0x3
 2144 1014 D0070000 		.4byte	.LASF210
 2145 1018 19       		.byte	0x19
 2146 1019 61       		.byte	0x61
 2147 101a F40F0000 		.4byte	0xff4
 2148 101e 03       		.uleb128 0x3
 2149 101f AB070000 		.4byte	.LASF211
 2150 1023 19       		.byte	0x19
 2151 1024 66       		.byte	0x66
 2152 1025 29100000 		.4byte	0x1029
 2153 1029 07       		.uleb128 0x7
 2154 102a AB070000 		.4byte	.LASF211
 2155 102e 78       		.byte	0x78
 2156 102f 19       		.byte	0x19
 2157 1030 80       		.byte	0x80
 2158 1031 94100000 		.4byte	0x1094
 2159 1035 09       		.uleb128 0x9
 2160 1036 766D7400 		.ascii	"vmt\000"
 2161 103a 19       		.byte	0x19
 2162 103b 82       		.byte	0x82
 2163 103c 1C110000 		.4byte	0x111c
 2164 1040 00       		.byte	0
 2165 1041 08       		.uleb128 0x8
 2166 1042 EA040000 		.4byte	.LASF212
ARM GAS  /tmp/ccQUPxID.s 			page 39


 2167 1046 19       		.byte	0x19
 2168 1047 83       		.byte	0x83
 2169 1048 6E050000 		.4byte	0x56e
 2170 104c 04       		.byte	0x4
 2171 104d 08       		.uleb128 0x8
 2172 104e B9000000 		.4byte	.LASF195
 2173 1052 19       		.byte	0x19
 2174 1053 83       		.byte	0x83
 2175 1054 13100000 		.4byte	0x1013
 2176 1058 08       		.byte	0x8
 2177 1059 08       		.uleb128 0x8
 2178 105a 20080000 		.4byte	.LASF213
 2179 105e 19       		.byte	0x19
 2180 105f 83       		.byte	0x83
 2181 1060 87070000 		.4byte	0x787
 2182 1064 0C       		.byte	0xc
 2183 1065 08       		.uleb128 0x8
 2184 1066 C9010000 		.4byte	.LASF214
 2185 106a 19       		.byte	0x19
 2186 106b 83       		.byte	0x83
 2187 106c 92070000 		.4byte	0x792
 2188 1070 30       		.byte	0x30
 2189 1071 09       		.uleb128 0x9
 2190 1072 696200   		.ascii	"ib\000"
 2191 1075 19       		.byte	0x19
 2192 1076 83       		.byte	0x83
 2193 1077 22110000 		.4byte	0x1122
 2194 107b 54       		.byte	0x54
 2195 107c 09       		.uleb128 0x9
 2196 107d 6F6200   		.ascii	"ob\000"
 2197 1080 19       		.byte	0x19
 2198 1081 83       		.byte	0x83
 2199 1082 22110000 		.4byte	0x1122
 2200 1086 64       		.byte	0x64
 2201 1087 08       		.uleb128 0x8
 2202 1088 1B080000 		.4byte	.LASF215
 2203 108c 19       		.byte	0x19
 2204 108d 83       		.byte	0x83
 2205 108e 32110000 		.4byte	0x1132
 2206 1092 74       		.byte	0x74
 2207 1093 00       		.byte	0
 2208 1094 22       		.uleb128 0x22
 2209 1095 53443100 		.ascii	"SD1\000"
 2210 1099 1A       		.byte	0x1a
 2211 109a EF       		.byte	0xef
 2212 109b 1E100000 		.4byte	0x101e
 2213 109f 22       		.uleb128 0x22
 2214 10a0 53443300 		.ascii	"SD3\000"
 2215 10a4 1A       		.byte	0x1a
 2216 10a5 F7       		.byte	0xf7
 2217 10a6 1E100000 		.4byte	0x101e
 2218 10aa 07       		.uleb128 0x7
 2219 10ab FC030000 		.4byte	.LASF216
 2220 10af 20       		.byte	0x20
 2221 10b0 19       		.byte	0x19
 2222 10b1 75       		.byte	0x75
 2223 10b2 17110000 		.4byte	0x1117
ARM GAS  /tmp/ccQUPxID.s 			page 40


 2224 10b6 08       		.uleb128 0x8
 2225 10b7 93000000 		.4byte	.LASF217
 2226 10bb 19       		.byte	0x19
 2227 10bc 76       		.byte	0x76
 2228 10bd BC070000 		.4byte	0x7bc
 2229 10c1 00       		.byte	0
 2230 10c2 08       		.uleb128 0x8
 2231 10c3 F8040000 		.4byte	.LASF218
 2232 10c7 19       		.byte	0x19
 2233 10c8 76       		.byte	0x76
 2234 10c9 DB070000 		.4byte	0x7db
 2235 10cd 04       		.byte	0x4
 2236 10ce 09       		.uleb128 0x9
 2237 10cf 70757400 		.ascii	"put\000"
 2238 10d3 19       		.byte	0x19
 2239 10d4 76       		.byte	0x76
 2240 10d5 F5070000 		.4byte	0x7f5
 2241 10d9 08       		.byte	0x8
 2242 10da 09       		.uleb128 0x9
 2243 10db 67657400 		.ascii	"get\000"
 2244 10df 19       		.byte	0x19
 2245 10e0 76       		.byte	0x76
 2246 10e1 C6050000 		.4byte	0x5c6
 2247 10e5 0C       		.byte	0xc
 2248 10e6 08       		.uleb128 0x8
 2249 10e7 BF000000 		.4byte	.LASF219
 2250 10eb 19       		.byte	0x19
 2251 10ec 76       		.byte	0x76
 2252 10ed 910D0000 		.4byte	0xd91
 2253 10f1 10       		.byte	0x10
 2254 10f2 08       		.uleb128 0x8
 2255 10f3 BB020000 		.4byte	.LASF220
 2256 10f7 19       		.byte	0x19
 2257 10f8 76       		.byte	0x76
 2258 10f9 AB0D0000 		.4byte	0xdab
 2259 10fd 14       		.byte	0x14
 2260 10fe 08       		.uleb128 0x8
 2261 10ff 64000000 		.4byte	.LASF221
 2262 1103 19       		.byte	0x19
 2263 1104 76       		.byte	0x76
 2264 1105 CF0D0000 		.4byte	0xdcf
 2265 1109 18       		.byte	0x18
 2266 110a 08       		.uleb128 0x8
 2267 110b 3E010000 		.4byte	.LASF222
 2268 110f 19       		.byte	0x19
 2269 1110 76       		.byte	0x76
 2270 1111 F30D0000 		.4byte	0xdf3
 2271 1115 1C       		.byte	0x1c
 2272 1116 00       		.byte	0
 2273 1117 06       		.uleb128 0x6
 2274 1118 AA100000 		.4byte	0x10aa
 2275 111c 0B       		.uleb128 0xb
 2276 111d 04       		.byte	0x4
 2277 111e 17110000 		.4byte	0x1117
 2278 1122 15       		.uleb128 0x15
 2279 1123 B4000000 		.4byte	0xb4
 2280 1127 32110000 		.4byte	0x1132
ARM GAS  /tmp/ccQUPxID.s 			page 41


 2281 112b 16       		.uleb128 0x16
 2282 112c 92030000 		.4byte	0x392
 2283 1130 0F       		.byte	0xf
 2284 1131 00       		.byte	0
 2285 1132 0B       		.uleb128 0xb
 2286 1133 04       		.byte	0x4
 2287 1134 F80C0000 		.4byte	0xcf8
 2288 1138 23       		.uleb128 0x23
 2289 1139 7B080000 		.4byte	.LASF224
 2290 113d 01       		.byte	0x1
 2291 113e 78       		.byte	0x78
 2292 113f 00000000 		.4byte	.LFB65
 2293 1143 14000000 		.4byte	.LFE65-.LFB65
 2294 1147 01       		.uleb128 0x1
 2295 1148 9C       		.byte	0x9c
 2296 1149 7D110000 		.4byte	0x117d
 2297 114d 24       		.uleb128 0x24
 2298 114e 62757300 		.ascii	"bus\000"
 2299 1152 01       		.byte	0x1
 2300 1153 78       		.byte	0x78
 2301 1154 7D110000 		.4byte	0x117d
 2302 1158 00000000 		.4byte	.LLST3
 2303 115c 25       		.uleb128 0x25
 2304 115d 16080000 		.4byte	.LASF223
 2305 1161 01       		.byte	0x1
 2306 1162 78       		.byte	0x78
 2307 1163 800E0000 		.4byte	0xe80
 2308 1167 21000000 		.4byte	.LLST4
 2309 116b 26       		.uleb128 0x26
 2310 116c 14000000 		.4byte	.LVL9
 2311 1170 FA110000 		.4byte	0x11fa
 2312 1174 27       		.uleb128 0x27
 2313 1175 01       		.uleb128 0x1
 2314 1176 52       		.byte	0x52
 2315 1177 03       		.uleb128 0x3
 2316 1178 F3       		.byte	0xf3
 2317 1179 01       		.uleb128 0x1
 2318 117a 51       		.byte	0x51
 2319 117b 00       		.byte	0
 2320 117c 00       		.byte	0
 2321 117d 0B       		.uleb128 0xb
 2322 117e 04       		.byte	0x4
 2323 117f D50E0000 		.4byte	0xed5
 2324 1183 23       		.uleb128 0x23
 2325 1184 AF080000 		.4byte	.LASF225
 2326 1188 01       		.byte	0x1
 2327 1189 60       		.byte	0x60
 2328 118a 00000000 		.4byte	.LFB64
 2329 118e 08000000 		.4byte	.LFE64-.LFB64
 2330 1192 01       		.uleb128 0x1
 2331 1193 9C       		.byte	0x9c
 2332 1194 C8110000 		.4byte	0x11c8
 2333 1198 24       		.uleb128 0x24
 2334 1199 62757300 		.ascii	"bus\000"
 2335 119d 01       		.byte	0x1
 2336 119e 60       		.byte	0x60
 2337 119f 7D110000 		.4byte	0x117d
ARM GAS  /tmp/ccQUPxID.s 			page 42


 2338 11a3 4D000000 		.4byte	.LLST1
 2339 11a7 25       		.uleb128 0x25
 2340 11a8 B2050000 		.4byte	.LASF226
 2341 11ac 01       		.byte	0x1
 2342 11ad 60       		.byte	0x60
 2343 11ae 750E0000 		.4byte	0xe75
 2344 11b2 6E000000 		.4byte	.LLST2
 2345 11b6 26       		.uleb128 0x26
 2346 11b7 08000000 		.4byte	.LVL5
 2347 11bb 06120000 		.4byte	0x1206
 2348 11bf 27       		.uleb128 0x27
 2349 11c0 01       		.uleb128 0x1
 2350 11c1 53       		.byte	0x53
 2351 11c2 03       		.uleb128 0x3
 2352 11c3 F3       		.byte	0xf3
 2353 11c4 01       		.uleb128 0x1
 2354 11c5 51       		.byte	0x51
 2355 11c6 00       		.byte	0
 2356 11c7 00       		.byte	0
 2357 11c8 28       		.uleb128 0x28
 2358 11c9 27080000 		.4byte	.LASF233
 2359 11cd 01       		.byte	0x1
 2360 11ce 46       		.byte	0x46
 2361 11cf 750E0000 		.4byte	0xe75
 2362 11d3 00000000 		.4byte	.LFB63
 2363 11d7 06000000 		.4byte	.LFE63-.LFB63
 2364 11db 01       		.uleb128 0x1
 2365 11dc 9C       		.byte	0x9c
 2366 11dd FA110000 		.4byte	0x11fa
 2367 11e1 24       		.uleb128 0x24
 2368 11e2 62757300 		.ascii	"bus\000"
 2369 11e6 01       		.byte	0x1
 2370 11e7 46       		.byte	0x46
 2371 11e8 7D110000 		.4byte	0x117d
 2372 11ec 9A000000 		.4byte	.LLST0
 2373 11f0 29       		.uleb128 0x29
 2374 11f1 06000000 		.4byte	.LVL2
 2375 11f5 12120000 		.4byte	0x1212
 2376 11f9 00       		.byte	0
 2377 11fa 2A       		.uleb128 0x2a
 2378 11fb E1000000 		.4byte	.LASF227
 2379 11ff E1000000 		.4byte	.LASF227
 2380 1203 15       		.byte	0x15
 2381 1204 4101     		.2byte	0x141
 2382 1206 2A       		.uleb128 0x2a
 2383 1207 93060000 		.4byte	.LASF228
 2384 120b 93060000 		.4byte	.LASF228
 2385 120f 15       		.byte	0x15
 2386 1210 3D01     		.2byte	0x13d
 2387 1212 2A       		.uleb128 0x2a
 2388 1213 2F090000 		.4byte	.LASF229
 2389 1217 2F090000 		.4byte	.LASF229
 2390 121b 15       		.byte	0x15
 2391 121c 3A01     		.2byte	0x13a
 2392 121e 00       		.byte	0
 2393              		.section	.debug_abbrev,"",%progbits
 2394              	.Ldebug_abbrev0:
ARM GAS  /tmp/ccQUPxID.s 			page 43


 2395 0000 01       		.uleb128 0x1
 2396 0001 11       		.uleb128 0x11
 2397 0002 01       		.byte	0x1
 2398 0003 25       		.uleb128 0x25
 2399 0004 0E       		.uleb128 0xe
 2400 0005 13       		.uleb128 0x13
 2401 0006 0B       		.uleb128 0xb
 2402 0007 03       		.uleb128 0x3
 2403 0008 0E       		.uleb128 0xe
 2404 0009 1B       		.uleb128 0x1b
 2405 000a 0E       		.uleb128 0xe
 2406 000b 55       		.uleb128 0x55
 2407 000c 17       		.uleb128 0x17
 2408 000d 11       		.uleb128 0x11
 2409 000e 01       		.uleb128 0x1
 2410 000f 10       		.uleb128 0x10
 2411 0010 17       		.uleb128 0x17
 2412 0011 00       		.byte	0
 2413 0012 00       		.byte	0
 2414 0013 02       		.uleb128 0x2
 2415 0014 24       		.uleb128 0x24
 2416 0015 00       		.byte	0
 2417 0016 0B       		.uleb128 0xb
 2418 0017 0B       		.uleb128 0xb
 2419 0018 3E       		.uleb128 0x3e
 2420 0019 0B       		.uleb128 0xb
 2421 001a 03       		.uleb128 0x3
 2422 001b 08       		.uleb128 0x8
 2423 001c 00       		.byte	0
 2424 001d 00       		.byte	0
 2425 001e 03       		.uleb128 0x3
 2426 001f 16       		.uleb128 0x16
 2427 0020 00       		.byte	0
 2428 0021 03       		.uleb128 0x3
 2429 0022 0E       		.uleb128 0xe
 2430 0023 3A       		.uleb128 0x3a
 2431 0024 0B       		.uleb128 0xb
 2432 0025 3B       		.uleb128 0x3b
 2433 0026 0B       		.uleb128 0xb
 2434 0027 49       		.uleb128 0x49
 2435 0028 13       		.uleb128 0x13
 2436 0029 00       		.byte	0
 2437 002a 00       		.byte	0
 2438 002b 04       		.uleb128 0x4
 2439 002c 24       		.uleb128 0x24
 2440 002d 00       		.byte	0
 2441 002e 0B       		.uleb128 0xb
 2442 002f 0B       		.uleb128 0xb
 2443 0030 3E       		.uleb128 0x3e
 2444 0031 0B       		.uleb128 0xb
 2445 0032 03       		.uleb128 0x3
 2446 0033 0E       		.uleb128 0xe
 2447 0034 00       		.byte	0
 2448 0035 00       		.byte	0
 2449 0036 05       		.uleb128 0x5
 2450 0037 35       		.uleb128 0x35
 2451 0038 00       		.byte	0
ARM GAS  /tmp/ccQUPxID.s 			page 44


 2452 0039 49       		.uleb128 0x49
 2453 003a 13       		.uleb128 0x13
 2454 003b 00       		.byte	0
 2455 003c 00       		.byte	0
 2456 003d 06       		.uleb128 0x6
 2457 003e 26       		.uleb128 0x26
 2458 003f 00       		.byte	0
 2459 0040 49       		.uleb128 0x49
 2460 0041 13       		.uleb128 0x13
 2461 0042 00       		.byte	0
 2462 0043 00       		.byte	0
 2463 0044 07       		.uleb128 0x7
 2464 0045 13       		.uleb128 0x13
 2465 0046 01       		.byte	0x1
 2466 0047 03       		.uleb128 0x3
 2467 0048 0E       		.uleb128 0xe
 2468 0049 0B       		.uleb128 0xb
 2469 004a 0B       		.uleb128 0xb
 2470 004b 3A       		.uleb128 0x3a
 2471 004c 0B       		.uleb128 0xb
 2472 004d 3B       		.uleb128 0x3b
 2473 004e 0B       		.uleb128 0xb
 2474 004f 01       		.uleb128 0x1
 2475 0050 13       		.uleb128 0x13
 2476 0051 00       		.byte	0
 2477 0052 00       		.byte	0
 2478 0053 08       		.uleb128 0x8
 2479 0054 0D       		.uleb128 0xd
 2480 0055 00       		.byte	0
 2481 0056 03       		.uleb128 0x3
 2482 0057 0E       		.uleb128 0xe
 2483 0058 3A       		.uleb128 0x3a
 2484 0059 0B       		.uleb128 0xb
 2485 005a 3B       		.uleb128 0x3b
 2486 005b 0B       		.uleb128 0xb
 2487 005c 49       		.uleb128 0x49
 2488 005d 13       		.uleb128 0x13
 2489 005e 38       		.uleb128 0x38
 2490 005f 0B       		.uleb128 0xb
 2491 0060 00       		.byte	0
 2492 0061 00       		.byte	0
 2493 0062 09       		.uleb128 0x9
 2494 0063 0D       		.uleb128 0xd
 2495 0064 00       		.byte	0
 2496 0065 03       		.uleb128 0x3
 2497 0066 08       		.uleb128 0x8
 2498 0067 3A       		.uleb128 0x3a
 2499 0068 0B       		.uleb128 0xb
 2500 0069 3B       		.uleb128 0x3b
 2501 006a 0B       		.uleb128 0xb
 2502 006b 49       		.uleb128 0x49
 2503 006c 13       		.uleb128 0x13
 2504 006d 38       		.uleb128 0x38
 2505 006e 0B       		.uleb128 0xb
 2506 006f 00       		.byte	0
 2507 0070 00       		.byte	0
 2508 0071 0A       		.uleb128 0xa
ARM GAS  /tmp/ccQUPxID.s 			page 45


 2509 0072 13       		.uleb128 0x13
 2510 0073 01       		.byte	0x1
 2511 0074 0B       		.uleb128 0xb
 2512 0075 0B       		.uleb128 0xb
 2513 0076 3A       		.uleb128 0x3a
 2514 0077 0B       		.uleb128 0xb
 2515 0078 3B       		.uleb128 0x3b
 2516 0079 0B       		.uleb128 0xb
 2517 007a 01       		.uleb128 0x1
 2518 007b 13       		.uleb128 0x13
 2519 007c 00       		.byte	0
 2520 007d 00       		.byte	0
 2521 007e 0B       		.uleb128 0xb
 2522 007f 0F       		.uleb128 0xf
 2523 0080 00       		.byte	0
 2524 0081 0B       		.uleb128 0xb
 2525 0082 0B       		.uleb128 0xb
 2526 0083 49       		.uleb128 0x49
 2527 0084 13       		.uleb128 0x13
 2528 0085 00       		.byte	0
 2529 0086 00       		.byte	0
 2530 0087 0C       		.uleb128 0xc
 2531 0088 0F       		.uleb128 0xf
 2532 0089 00       		.byte	0
 2533 008a 0B       		.uleb128 0xb
 2534 008b 0B       		.uleb128 0xb
 2535 008c 00       		.byte	0
 2536 008d 00       		.byte	0
 2537 008e 0D       		.uleb128 0xd
 2538 008f 13       		.uleb128 0x13
 2539 0090 01       		.byte	0x1
 2540 0091 03       		.uleb128 0x3
 2541 0092 0E       		.uleb128 0xe
 2542 0093 0B       		.uleb128 0xb
 2543 0094 0B       		.uleb128 0xb
 2544 0095 3A       		.uleb128 0x3a
 2545 0096 0B       		.uleb128 0xb
 2546 0097 3B       		.uleb128 0x3b
 2547 0098 05       		.uleb128 0x5
 2548 0099 01       		.uleb128 0x1
 2549 009a 13       		.uleb128 0x13
 2550 009b 00       		.byte	0
 2551 009c 00       		.byte	0
 2552 009d 0E       		.uleb128 0xe
 2553 009e 0D       		.uleb128 0xd
 2554 009f 00       		.byte	0
 2555 00a0 03       		.uleb128 0x3
 2556 00a1 08       		.uleb128 0x8
 2557 00a2 3A       		.uleb128 0x3a
 2558 00a3 0B       		.uleb128 0xb
 2559 00a4 3B       		.uleb128 0x3b
 2560 00a5 05       		.uleb128 0x5
 2561 00a6 49       		.uleb128 0x49
 2562 00a7 13       		.uleb128 0x13
 2563 00a8 38       		.uleb128 0x38
 2564 00a9 0B       		.uleb128 0xb
 2565 00aa 00       		.byte	0
ARM GAS  /tmp/ccQUPxID.s 			page 46


 2566 00ab 00       		.byte	0
 2567 00ac 0F       		.uleb128 0xf
 2568 00ad 15       		.uleb128 0x15
 2569 00ae 01       		.byte	0x1
 2570 00af 27       		.uleb128 0x27
 2571 00b0 19       		.uleb128 0x19
 2572 00b1 01       		.uleb128 0x1
 2573 00b2 13       		.uleb128 0x13
 2574 00b3 00       		.byte	0
 2575 00b4 00       		.byte	0
 2576 00b5 10       		.uleb128 0x10
 2577 00b6 05       		.uleb128 0x5
 2578 00b7 00       		.byte	0
 2579 00b8 49       		.uleb128 0x49
 2580 00b9 13       		.uleb128 0x13
 2581 00ba 00       		.byte	0
 2582 00bb 00       		.byte	0
 2583 00bc 11       		.uleb128 0x11
 2584 00bd 34       		.uleb128 0x34
 2585 00be 00       		.byte	0
 2586 00bf 03       		.uleb128 0x3
 2587 00c0 0E       		.uleb128 0xe
 2588 00c1 3A       		.uleb128 0x3a
 2589 00c2 0B       		.uleb128 0xb
 2590 00c3 3B       		.uleb128 0x3b
 2591 00c4 0B       		.uleb128 0xb
 2592 00c5 49       		.uleb128 0x49
 2593 00c6 13       		.uleb128 0x13
 2594 00c7 3F       		.uleb128 0x3f
 2595 00c8 19       		.uleb128 0x19
 2596 00c9 3C       		.uleb128 0x3c
 2597 00ca 19       		.uleb128 0x19
 2598 00cb 00       		.byte	0
 2599 00cc 00       		.byte	0
 2600 00cd 12       		.uleb128 0x12
 2601 00ce 17       		.uleb128 0x17
 2602 00cf 01       		.byte	0x1
 2603 00d0 0B       		.uleb128 0xb
 2604 00d1 0B       		.uleb128 0xb
 2605 00d2 3A       		.uleb128 0x3a
 2606 00d3 0B       		.uleb128 0xb
 2607 00d4 3B       		.uleb128 0x3b
 2608 00d5 0B       		.uleb128 0xb
 2609 00d6 01       		.uleb128 0x1
 2610 00d7 13       		.uleb128 0x13
 2611 00d8 00       		.byte	0
 2612 00d9 00       		.byte	0
 2613 00da 13       		.uleb128 0x13
 2614 00db 0D       		.uleb128 0xd
 2615 00dc 00       		.byte	0
 2616 00dd 03       		.uleb128 0x3
 2617 00de 0E       		.uleb128 0xe
 2618 00df 3A       		.uleb128 0x3a
 2619 00e0 0B       		.uleb128 0xb
 2620 00e1 3B       		.uleb128 0x3b
 2621 00e2 0B       		.uleb128 0xb
 2622 00e3 49       		.uleb128 0x49
ARM GAS  /tmp/ccQUPxID.s 			page 47


 2623 00e4 13       		.uleb128 0x13
 2624 00e5 00       		.byte	0
 2625 00e6 00       		.byte	0
 2626 00e7 14       		.uleb128 0x14
 2627 00e8 15       		.uleb128 0x15
 2628 00e9 01       		.byte	0x1
 2629 00ea 27       		.uleb128 0x27
 2630 00eb 19       		.uleb128 0x19
 2631 00ec 49       		.uleb128 0x49
 2632 00ed 13       		.uleb128 0x13
 2633 00ee 01       		.uleb128 0x1
 2634 00ef 13       		.uleb128 0x13
 2635 00f0 00       		.byte	0
 2636 00f1 00       		.byte	0
 2637 00f2 15       		.uleb128 0x15
 2638 00f3 01       		.uleb128 0x1
 2639 00f4 01       		.byte	0x1
 2640 00f5 49       		.uleb128 0x49
 2641 00f6 13       		.uleb128 0x13
 2642 00f7 01       		.uleb128 0x1
 2643 00f8 13       		.uleb128 0x13
 2644 00f9 00       		.byte	0
 2645 00fa 00       		.byte	0
 2646 00fb 16       		.uleb128 0x16
 2647 00fc 21       		.uleb128 0x21
 2648 00fd 00       		.byte	0
 2649 00fe 49       		.uleb128 0x49
 2650 00ff 13       		.uleb128 0x13
 2651 0100 2F       		.uleb128 0x2f
 2652 0101 0B       		.uleb128 0xb
 2653 0102 00       		.byte	0
 2654 0103 00       		.byte	0
 2655 0104 17       		.uleb128 0x17
 2656 0105 34       		.uleb128 0x34
 2657 0106 00       		.byte	0
 2658 0107 03       		.uleb128 0x3
 2659 0108 0E       		.uleb128 0xe
 2660 0109 3A       		.uleb128 0x3a
 2661 010a 0B       		.uleb128 0xb
 2662 010b 3B       		.uleb128 0x3b
 2663 010c 05       		.uleb128 0x5
 2664 010d 49       		.uleb128 0x49
 2665 010e 13       		.uleb128 0x13
 2666 010f 3F       		.uleb128 0x3f
 2667 0110 19       		.uleb128 0x19
 2668 0111 3C       		.uleb128 0x3c
 2669 0112 19       		.uleb128 0x19
 2670 0113 00       		.byte	0
 2671 0114 00       		.byte	0
 2672 0115 18       		.uleb128 0x18
 2673 0116 0D       		.uleb128 0xd
 2674 0117 00       		.byte	0
 2675 0118 49       		.uleb128 0x49
 2676 0119 13       		.uleb128 0x13
 2677 011a 00       		.byte	0
 2678 011b 00       		.byte	0
 2679 011c 19       		.uleb128 0x19
ARM GAS  /tmp/ccQUPxID.s 			page 48


 2680 011d 13       		.uleb128 0x13
 2681 011e 01       		.byte	0x1
 2682 011f 0B       		.uleb128 0xb
 2683 0120 0B       		.uleb128 0xb
 2684 0121 3A       		.uleb128 0x3a
 2685 0122 0B       		.uleb128 0xb
 2686 0123 3B       		.uleb128 0x3b
 2687 0124 05       		.uleb128 0x5
 2688 0125 01       		.uleb128 0x1
 2689 0126 13       		.uleb128 0x13
 2690 0127 00       		.byte	0
 2691 0128 00       		.byte	0
 2692 0129 1A       		.uleb128 0x1a
 2693 012a 0D       		.uleb128 0xd
 2694 012b 00       		.byte	0
 2695 012c 03       		.uleb128 0x3
 2696 012d 0E       		.uleb128 0xe
 2697 012e 3A       		.uleb128 0x3a
 2698 012f 0B       		.uleb128 0xb
 2699 0130 3B       		.uleb128 0x3b
 2700 0131 05       		.uleb128 0x5
 2701 0132 49       		.uleb128 0x49
 2702 0133 13       		.uleb128 0x13
 2703 0134 38       		.uleb128 0x38
 2704 0135 0B       		.uleb128 0xb
 2705 0136 00       		.byte	0
 2706 0137 00       		.byte	0
 2707 0138 1B       		.uleb128 0x1b
 2708 0139 0D       		.uleb128 0xd
 2709 013a 00       		.byte	0
 2710 013b 49       		.uleb128 0x49
 2711 013c 13       		.uleb128 0x13
 2712 013d 38       		.uleb128 0x38
 2713 013e 0B       		.uleb128 0xb
 2714 013f 00       		.byte	0
 2715 0140 00       		.byte	0
 2716 0141 1C       		.uleb128 0x1c
 2717 0142 16       		.uleb128 0x16
 2718 0143 00       		.byte	0
 2719 0144 03       		.uleb128 0x3
 2720 0145 0E       		.uleb128 0xe
 2721 0146 3A       		.uleb128 0x3a
 2722 0147 0B       		.uleb128 0xb
 2723 0148 3B       		.uleb128 0x3b
 2724 0149 05       		.uleb128 0x5
 2725 014a 49       		.uleb128 0x49
 2726 014b 13       		.uleb128 0x13
 2727 014c 00       		.byte	0
 2728 014d 00       		.byte	0
 2729 014e 1D       		.uleb128 0x1d
 2730 014f 17       		.uleb128 0x17
 2731 0150 01       		.byte	0x1
 2732 0151 0B       		.uleb128 0xb
 2733 0152 0B       		.uleb128 0xb
 2734 0153 3A       		.uleb128 0x3a
 2735 0154 0B       		.uleb128 0xb
 2736 0155 3B       		.uleb128 0x3b
ARM GAS  /tmp/ccQUPxID.s 			page 49


 2737 0156 05       		.uleb128 0x5
 2738 0157 01       		.uleb128 0x1
 2739 0158 13       		.uleb128 0x13
 2740 0159 00       		.byte	0
 2741 015a 00       		.byte	0
 2742 015b 1E       		.uleb128 0x1e
 2743 015c 0D       		.uleb128 0xd
 2744 015d 00       		.byte	0
 2745 015e 03       		.uleb128 0x3
 2746 015f 08       		.uleb128 0x8
 2747 0160 3A       		.uleb128 0x3a
 2748 0161 0B       		.uleb128 0xb
 2749 0162 3B       		.uleb128 0x3b
 2750 0163 05       		.uleb128 0x5
 2751 0164 49       		.uleb128 0x49
 2752 0165 13       		.uleb128 0x13
 2753 0166 00       		.byte	0
 2754 0167 00       		.byte	0
 2755 0168 1F       		.uleb128 0x1f
 2756 0169 21       		.uleb128 0x21
 2757 016a 00       		.byte	0
 2758 016b 00       		.byte	0
 2759 016c 00       		.byte	0
 2760 016d 20       		.uleb128 0x20
 2761 016e 04       		.uleb128 0x4
 2762 016f 01       		.byte	0x1
 2763 0170 0B       		.uleb128 0xb
 2764 0171 0B       		.uleb128 0xb
 2765 0172 49       		.uleb128 0x49
 2766 0173 13       		.uleb128 0x13
 2767 0174 3A       		.uleb128 0x3a
 2768 0175 0B       		.uleb128 0xb
 2769 0176 3B       		.uleb128 0x3b
 2770 0177 0B       		.uleb128 0xb
 2771 0178 01       		.uleb128 0x1
 2772 0179 13       		.uleb128 0x13
 2773 017a 00       		.byte	0
 2774 017b 00       		.byte	0
 2775 017c 21       		.uleb128 0x21
 2776 017d 28       		.uleb128 0x28
 2777 017e 00       		.byte	0
 2778 017f 03       		.uleb128 0x3
 2779 0180 0E       		.uleb128 0xe
 2780 0181 1C       		.uleb128 0x1c
 2781 0182 0B       		.uleb128 0xb
 2782 0183 00       		.byte	0
 2783 0184 00       		.byte	0
 2784 0185 22       		.uleb128 0x22
 2785 0186 34       		.uleb128 0x34
 2786 0187 00       		.byte	0
 2787 0188 03       		.uleb128 0x3
 2788 0189 08       		.uleb128 0x8
 2789 018a 3A       		.uleb128 0x3a
 2790 018b 0B       		.uleb128 0xb
 2791 018c 3B       		.uleb128 0x3b
 2792 018d 0B       		.uleb128 0xb
 2793 018e 49       		.uleb128 0x49
ARM GAS  /tmp/ccQUPxID.s 			page 50


 2794 018f 13       		.uleb128 0x13
 2795 0190 3F       		.uleb128 0x3f
 2796 0191 19       		.uleb128 0x19
 2797 0192 3C       		.uleb128 0x3c
 2798 0193 19       		.uleb128 0x19
 2799 0194 00       		.byte	0
 2800 0195 00       		.byte	0
 2801 0196 23       		.uleb128 0x23
 2802 0197 2E       		.uleb128 0x2e
 2803 0198 01       		.byte	0x1
 2804 0199 3F       		.uleb128 0x3f
 2805 019a 19       		.uleb128 0x19
 2806 019b 03       		.uleb128 0x3
 2807 019c 0E       		.uleb128 0xe
 2808 019d 3A       		.uleb128 0x3a
 2809 019e 0B       		.uleb128 0xb
 2810 019f 3B       		.uleb128 0x3b
 2811 01a0 0B       		.uleb128 0xb
 2812 01a1 27       		.uleb128 0x27
 2813 01a2 19       		.uleb128 0x19
 2814 01a3 11       		.uleb128 0x11
 2815 01a4 01       		.uleb128 0x1
 2816 01a5 12       		.uleb128 0x12
 2817 01a6 06       		.uleb128 0x6
 2818 01a7 40       		.uleb128 0x40
 2819 01a8 18       		.uleb128 0x18
 2820 01a9 9742     		.uleb128 0x2117
 2821 01ab 19       		.uleb128 0x19
 2822 01ac 01       		.uleb128 0x1
 2823 01ad 13       		.uleb128 0x13
 2824 01ae 00       		.byte	0
 2825 01af 00       		.byte	0
 2826 01b0 24       		.uleb128 0x24
 2827 01b1 05       		.uleb128 0x5
 2828 01b2 00       		.byte	0
 2829 01b3 03       		.uleb128 0x3
 2830 01b4 08       		.uleb128 0x8
 2831 01b5 3A       		.uleb128 0x3a
 2832 01b6 0B       		.uleb128 0xb
 2833 01b7 3B       		.uleb128 0x3b
 2834 01b8 0B       		.uleb128 0xb
 2835 01b9 49       		.uleb128 0x49
 2836 01ba 13       		.uleb128 0x13
 2837 01bb 02       		.uleb128 0x2
 2838 01bc 17       		.uleb128 0x17
 2839 01bd 00       		.byte	0
 2840 01be 00       		.byte	0
 2841 01bf 25       		.uleb128 0x25
 2842 01c0 05       		.uleb128 0x5
 2843 01c1 00       		.byte	0
 2844 01c2 03       		.uleb128 0x3
 2845 01c3 0E       		.uleb128 0xe
 2846 01c4 3A       		.uleb128 0x3a
 2847 01c5 0B       		.uleb128 0xb
 2848 01c6 3B       		.uleb128 0x3b
 2849 01c7 0B       		.uleb128 0xb
 2850 01c8 49       		.uleb128 0x49
ARM GAS  /tmp/ccQUPxID.s 			page 51


 2851 01c9 13       		.uleb128 0x13
 2852 01ca 02       		.uleb128 0x2
 2853 01cb 17       		.uleb128 0x17
 2854 01cc 00       		.byte	0
 2855 01cd 00       		.byte	0
 2856 01ce 26       		.uleb128 0x26
 2857 01cf 898201   		.uleb128 0x4109
 2858 01d2 01       		.byte	0x1
 2859 01d3 11       		.uleb128 0x11
 2860 01d4 01       		.uleb128 0x1
 2861 01d5 9542     		.uleb128 0x2115
 2862 01d7 19       		.uleb128 0x19
 2863 01d8 31       		.uleb128 0x31
 2864 01d9 13       		.uleb128 0x13
 2865 01da 00       		.byte	0
 2866 01db 00       		.byte	0
 2867 01dc 27       		.uleb128 0x27
 2868 01dd 8A8201   		.uleb128 0x410a
 2869 01e0 00       		.byte	0
 2870 01e1 02       		.uleb128 0x2
 2871 01e2 18       		.uleb128 0x18
 2872 01e3 9142     		.uleb128 0x2111
 2873 01e5 18       		.uleb128 0x18
 2874 01e6 00       		.byte	0
 2875 01e7 00       		.byte	0
 2876 01e8 28       		.uleb128 0x28
 2877 01e9 2E       		.uleb128 0x2e
 2878 01ea 01       		.byte	0x1
 2879 01eb 3F       		.uleb128 0x3f
 2880 01ec 19       		.uleb128 0x19
 2881 01ed 03       		.uleb128 0x3
 2882 01ee 0E       		.uleb128 0xe
 2883 01ef 3A       		.uleb128 0x3a
 2884 01f0 0B       		.uleb128 0xb
 2885 01f1 3B       		.uleb128 0x3b
 2886 01f2 0B       		.uleb128 0xb
 2887 01f3 27       		.uleb128 0x27
 2888 01f4 19       		.uleb128 0x19
 2889 01f5 49       		.uleb128 0x49
 2890 01f6 13       		.uleb128 0x13
 2891 01f7 11       		.uleb128 0x11
 2892 01f8 01       		.uleb128 0x1
 2893 01f9 12       		.uleb128 0x12
 2894 01fa 06       		.uleb128 0x6
 2895 01fb 40       		.uleb128 0x40
 2896 01fc 18       		.uleb128 0x18
 2897 01fd 9742     		.uleb128 0x2117
 2898 01ff 19       		.uleb128 0x19
 2899 0200 01       		.uleb128 0x1
 2900 0201 13       		.uleb128 0x13
 2901 0202 00       		.byte	0
 2902 0203 00       		.byte	0
 2903 0204 29       		.uleb128 0x29
 2904 0205 898201   		.uleb128 0x4109
 2905 0208 00       		.byte	0
 2906 0209 11       		.uleb128 0x11
 2907 020a 01       		.uleb128 0x1
ARM GAS  /tmp/ccQUPxID.s 			page 52


 2908 020b 9542     		.uleb128 0x2115
 2909 020d 19       		.uleb128 0x19
 2910 020e 31       		.uleb128 0x31
 2911 020f 13       		.uleb128 0x13
 2912 0210 00       		.byte	0
 2913 0211 00       		.byte	0
 2914 0212 2A       		.uleb128 0x2a
 2915 0213 2E       		.uleb128 0x2e
 2916 0214 00       		.byte	0
 2917 0215 3F       		.uleb128 0x3f
 2918 0216 19       		.uleb128 0x19
 2919 0217 3C       		.uleb128 0x3c
 2920 0218 19       		.uleb128 0x19
 2921 0219 6E       		.uleb128 0x6e
 2922 021a 0E       		.uleb128 0xe
 2923 021b 03       		.uleb128 0x3
 2924 021c 0E       		.uleb128 0xe
 2925 021d 3A       		.uleb128 0x3a
 2926 021e 0B       		.uleb128 0xb
 2927 021f 3B       		.uleb128 0x3b
 2928 0220 05       		.uleb128 0x5
 2929 0221 00       		.byte	0
 2930 0222 00       		.byte	0
 2931 0223 00       		.byte	0
 2932              		.section	.debug_loc,"",%progbits
 2933              	.Ldebug_loc0:
 2934              	.LLST3:
 2935 0000 00000000 		.4byte	.LVL6
 2936 0004 0A000000 		.4byte	.LVL7
 2937 0008 0100     		.2byte	0x1
 2938 000a 50       		.byte	0x50
 2939 000b 0A000000 		.4byte	.LVL7
 2940 000f 14000000 		.4byte	.LFE65
 2941 0013 0400     		.2byte	0x4
 2942 0015 F3       		.byte	0xf3
 2943 0016 01       		.uleb128 0x1
 2944 0017 50       		.byte	0x50
 2945 0018 9F       		.byte	0x9f
 2946 0019 00000000 		.4byte	0
 2947 001d 00000000 		.4byte	0
 2948              	.LLST4:
 2949 0021 00000000 		.4byte	.LVL6
 2950 0025 0E000000 		.4byte	.LVL8
 2951 0029 0100     		.2byte	0x1
 2952 002b 51       		.byte	0x51
 2953 002c 0E000000 		.4byte	.LVL8
 2954 0030 13000000 		.4byte	.LVL9-1
 2955 0034 0100     		.2byte	0x1
 2956 0036 52       		.byte	0x52
 2957 0037 13000000 		.4byte	.LVL9-1
 2958 003b 14000000 		.4byte	.LFE65
 2959 003f 0400     		.2byte	0x4
 2960 0041 F3       		.byte	0xf3
 2961 0042 01       		.uleb128 0x1
 2962 0043 51       		.byte	0x51
 2963 0044 9F       		.byte	0x9f
 2964 0045 00000000 		.4byte	0
ARM GAS  /tmp/ccQUPxID.s 			page 53


 2965 0049 00000000 		.4byte	0
 2966              	.LLST1:
 2967 004d 00000000 		.4byte	.LVL3
 2968 0051 04000000 		.4byte	.LVL4
 2969 0055 0100     		.2byte	0x1
 2970 0057 50       		.byte	0x50
 2971 0058 04000000 		.4byte	.LVL4
 2972 005c 08000000 		.4byte	.LFE64
 2973 0060 0400     		.2byte	0x4
 2974 0062 F3       		.byte	0xf3
 2975 0063 01       		.uleb128 0x1
 2976 0064 50       		.byte	0x50
 2977 0065 9F       		.byte	0x9f
 2978 0066 00000000 		.4byte	0
 2979 006a 00000000 		.4byte	0
 2980              	.LLST2:
 2981 006e 00000000 		.4byte	.LVL3
 2982 0072 04000000 		.4byte	.LVL4
 2983 0076 0100     		.2byte	0x1
 2984 0078 51       		.byte	0x51
 2985 0079 04000000 		.4byte	.LVL4
 2986 007d 07000000 		.4byte	.LVL5-1
 2987 0081 0100     		.2byte	0x1
 2988 0083 53       		.byte	0x53
 2989 0084 07000000 		.4byte	.LVL5-1
 2990 0088 08000000 		.4byte	.LFE64
 2991 008c 0400     		.2byte	0x4
 2992 008e F3       		.byte	0xf3
 2993 008f 01       		.uleb128 0x1
 2994 0090 51       		.byte	0x51
 2995 0091 9F       		.byte	0x9f
 2996 0092 00000000 		.4byte	0
 2997 0096 00000000 		.4byte	0
 2998              	.LLST0:
 2999 009a 00000000 		.4byte	.LVL0
 3000 009e 02000000 		.4byte	.LVL1
 3001 00a2 0100     		.2byte	0x1
 3002 00a4 50       		.byte	0x50
 3003 00a5 02000000 		.4byte	.LVL1
 3004 00a9 06000000 		.4byte	.LFE63
 3005 00ad 0400     		.2byte	0x4
 3006 00af F3       		.byte	0xf3
 3007 00b0 01       		.uleb128 0x1
 3008 00b1 50       		.byte	0x50
 3009 00b2 9F       		.byte	0x9f
 3010 00b3 00000000 		.4byte	0
 3011 00b7 00000000 		.4byte	0
 3012              		.section	.debug_aranges,"",%progbits
 3013 0000 2C000000 		.4byte	0x2c
 3014 0004 0200     		.2byte	0x2
 3015 0006 00000000 		.4byte	.Ldebug_info0
 3016 000a 04       		.byte	0x4
 3017 000b 00       		.byte	0
 3018 000c 0000     		.2byte	0
 3019 000e 0000     		.2byte	0
 3020 0010 00000000 		.4byte	.LFB63
 3021 0014 06000000 		.4byte	.LFE63-.LFB63
ARM GAS  /tmp/ccQUPxID.s 			page 54


 3022 0018 00000000 		.4byte	.LFB64
 3023 001c 08000000 		.4byte	.LFE64-.LFB64
 3024 0020 00000000 		.4byte	.LFB65
 3025 0024 14000000 		.4byte	.LFE65-.LFB65
 3026 0028 00000000 		.4byte	0
 3027 002c 00000000 		.4byte	0
 3028              		.section	.debug_ranges,"",%progbits
 3029              	.Ldebug_ranges0:
 3030 0000 00000000 		.4byte	.LFB63
 3031 0004 06000000 		.4byte	.LFE63
 3032 0008 00000000 		.4byte	.LFB64
 3033 000c 08000000 		.4byte	.LFE64
 3034 0010 00000000 		.4byte	.LFB65
 3035 0014 14000000 		.4byte	.LFE65
 3036 0018 00000000 		.4byte	0
 3037 001c 00000000 		.4byte	0
 3038              		.section	.debug_line,"",%progbits
 3039              	.Ldebug_line0:
 3040 0000 B9020000 		.section	.debug_str,"MS",%progbits,1
 3040      02007E02 
 3040      00000201 
 3040      FB0E0D00 
 3040      01010101 
 3041              	.LASF4:
 3042 0000 73697A65 		.ascii	"size_t\000"
 3042      5F7400
 3043              	.LASF58:
 3044 0007 73697A65 		.ascii	"sizetype\000"
 3044      74797065 
 3044      00
 3045              	.LASF104:
 3046 0010 63665F6F 		.ascii	"cf_off_name\000"
 3046      66665F6E 
 3046      616D6500 
 3047              	.LASF31:
 3048 001c 73797374 		.ascii	"systime_t\000"
 3048      696D655F 
 3048      7400
 3049              	.LASF93:
 3050 0026 63685F69 		.ascii	"ch_identifier\000"
 3050      64656E74 
 3050      69666965 
 3050      7200
 3051              	.LASF36:
 3052 0034 705F6374 		.ascii	"p_ctx\000"
 3052      7800
 3053              	.LASF27:
 3054 003a 74707269 		.ascii	"tprio_t\000"
 3054      6F5F7400 
 3055              	.LASF112:
 3056 0042 63685F64 		.ascii	"ch_debug\000"
 3056      65627567 
 3056      00
 3057              	.LASF46:
 3058 004b 705F6D73 		.ascii	"p_msgqueue\000"
 3058      67717565 
 3058      756500
ARM GAS  /tmp/ccQUPxID.s 			page 55


 3059              	.LASF70:
 3060 0056 725F6374 		.ascii	"r_ctx\000"
 3060      7800
 3061              	.LASF18:
 3062 005c 696E7433 		.ascii	"int32_t\000"
 3062      325F7400 
 3063              	.LASF221:
 3064 0064 77726974 		.ascii	"writet\000"
 3064      657400
 3065              	.LASF101:
 3066 006b 63665F6F 		.ascii	"cf_off_ctx\000"
 3066      66665F63 
 3066      747800
 3067              	.LASF59:
 3068 0076 76746675 		.ascii	"vtfunc_t\000"
 3068      6E635F74 
 3068      00
 3069              	.LASF175:
 3070 007f 4C50435F 		.ascii	"LPC_GPDMACH_TypeDef\000"
 3070      4750444D 
 3070      4143485F 
 3070      54797065 
 3070      44656600 
 3071              	.LASF217:
 3072 0093 77726974 		.ascii	"write\000"
 3072      6500
 3073              	.LASF166:
 3074 0099 43544352 		.ascii	"CTCR\000"
 3074      00
 3075              	.LASF85:
 3076 009e 656C5F66 		.ascii	"el_flags\000"
 3076      6C616773 
 3076      00
 3077              	.LASF193:
 3078 00a7 67707473 		.ascii	"gptstate_t\000"
 3078      74617465 
 3078      5F7400
 3079              	.LASF196:
 3080 00b2 636F6E66 		.ascii	"config\000"
 3080      696700
 3081              	.LASF195:
 3082 00b9 73746174 		.ascii	"state\000"
 3082      6500
 3083              	.LASF219:
 3084 00bf 70757474 		.ascii	"putt\000"
 3084      00
 3085              	.LASF97:
 3086 00c4 63685F70 		.ascii	"ch_ptrsize\000"
 3086      74727369 
 3086      7A6500
 3087              	.LASF201:
 3088 00cf 63616C6C 		.ascii	"callback\000"
 3088      6261636B 
 3088      00
 3089              	.LASF181:
 3090 00d8 696F6D6F 		.ascii	"iomode_t\000"
 3090      64655F74 
ARM GAS  /tmp/ccQUPxID.s 			page 56


 3090      00
 3091              	.LASF227:
 3092 00e1 5F70616C 		.ascii	"_pal_lld_setgroupmode\000"
 3092      5F6C6C64 
 3092      5F736574 
 3092      67726F75 
 3092      706D6F64 
 3093              	.LASF79:
 3094 00f7 6D5F6F77 		.ascii	"m_owner\000"
 3094      6E657200 
 3095              	.LASF65:
 3096 00ff 76745F70 		.ascii	"vt_par\000"
 3096      617200
 3097              	.LASF89:
 3098 0106 65786974 		.ascii	"exitcode\000"
 3098      636F6465 
 3098      00
 3099              	.LASF5:
 3100 010f 5F5F7569 		.ascii	"__uint8_t\000"
 3100      6E74385F 
 3100      7400
 3101              	.LASF117:
 3102 0119 715F746F 		.ascii	"q_top\000"
 3102      7000
 3103              	.LASF171:
 3104 011f 43446573 		.ascii	"CDestAddr\000"
 3104      74416464 
 3104      7200
 3105              	.LASF91:
 3106 0129 65776D61 		.ascii	"ewmask\000"
 3106      736B00
 3107              	.LASF99:
 3108 0130 63685F74 		.ascii	"ch_threadsize\000"
 3108      68726561 
 3108      6473697A 
 3108      6500
 3109              	.LASF222:
 3110 013e 72656164 		.ascii	"readt\000"
 3110      7400
 3111              	.LASF116:
 3112 0144 715F6275 		.ascii	"q_buffer\000"
 3112      66666572 
 3112      00
 3113              	.LASF170:
 3114 014d 43537263 		.ascii	"CSrcAddr\000"
 3114      41646472 
 3114      00
 3115              	.LASF120:
 3116 0156 715F6E6F 		.ascii	"q_notify\000"
 3116      74696679 
 3116      00
 3117              	.LASF37:
 3118 015f 705F6E65 		.ascii	"p_newer\000"
 3118      77657200 
 3119              	.LASF11:
 3120 0167 6C6F6E67 		.ascii	"long int\000"
 3120      20696E74 
ARM GAS  /tmp/ccQUPxID.s 			page 57


 3120      00
 3121              	.LASF33:
 3122 0170 705F6E65 		.ascii	"p_next\000"
 3122      787400
 3123              	.LASF119:
 3124 0177 715F7264 		.ascii	"q_rdptr\000"
 3124      70747200 
 3125              	.LASF106:
 3126 017f 63665F6F 		.ascii	"cf_off_state\000"
 3126      66665F73 
 3126      74617465 
 3126      00
 3127              	.LASF34:
 3128 018c 705F7072 		.ascii	"p_prev\000"
 3128      657600
 3129              	.LASF203:
 3130 0193 47505444 		.ascii	"GPTD1\000"
 3130      3100
 3131              	.LASF204:
 3132 0199 47505444 		.ascii	"GPTD2\000"
 3132      3200
 3133              	.LASF205:
 3134 019f 47505444 		.ascii	"GPTD3\000"
 3134      3300
 3135              	.LASF206:
 3136 01a5 47505444 		.ascii	"GPTD4\000"
 3136      3400
 3137              	.LASF182:
 3138 01ab 696F706F 		.ascii	"ioportid_t\000"
 3138      72746964 
 3138      5F7400
 3139              	.LASF24:
 3140 01b6 74737461 		.ascii	"tstate_t\000"
 3140      74655F74 
 3140      00
 3141              	.LASF49:
 3142 01bf 705F6D74 		.ascii	"p_mtxlist\000"
 3142      786C6973 
 3142      7400
 3143              	.LASF214:
 3144 01c9 6F717565 		.ascii	"oqueue\000"
 3144      756500
 3145              	.LASF54:
 3146 01d0 72656761 		.ascii	"regarm_t\000"
 3146      726D5F74 
 3146      00
 3147              	.LASF183:
 3148 01d9 70616C5F 		.ascii	"pal_default_config\000"
 3148      64656661 
 3148      756C745F 
 3148      636F6E66 
 3148      696700
 3149              	.LASF3:
 3150 01ec 7369676E 		.ascii	"signed char\000"
 3150      65642063 
 3150      68617200 
 3151              	.LASF43:
ARM GAS  /tmp/ccQUPxID.s 			page 58


 3152 01f8 705F7072 		.ascii	"p_preempt\000"
 3152      65656D70 
 3152      7400
 3153              	.LASF16:
 3154 0202 75696E74 		.ascii	"uint8_t\000"
 3154      385F7400 
 3155              	.LASF184:
 3156 020a 706F7274 		.ascii	"portid\000"
 3156      696400
 3157              	.LASF29:
 3158 0211 6576656E 		.ascii	"eventmask_t\000"
 3158      746D6173 
 3158      6B5F7400 
 3159              	.LASF57:
 3160 021d 636F6E74 		.ascii	"context\000"
 3160      65787400 
 3161              	.LASF163:
 3162 0225 52455345 		.ascii	"RESERVED0\000"
 3162      52564544 
 3162      3000
 3163              	.LASF165:
 3164 022f 52455345 		.ascii	"RESERVED1\000"
 3164      52564544 
 3164      3100
 3165              	.LASF6:
 3166 0239 756E7369 		.ascii	"unsigned char\000"
 3166      676E6564 
 3166      20636861 
 3166      7200
 3167              	.LASF121:
 3168 0247 715F6C69 		.ascii	"q_link\000"
 3168      6E6B00
 3169              	.LASF62:
 3170 024e 76745F70 		.ascii	"vt_prev\000"
 3170      72657600 
 3171              	.LASF71:
 3172 0256 725F6E65 		.ascii	"r_newer\000"
 3172      77657200 
 3173              	.LASF207:
 3174 025e 53445F55 		.ascii	"SD_UNINIT\000"
 3174      4E494E49 
 3174      5400
 3175              	.LASF22:
 3176 0268 5F426F6F 		.ascii	"_Bool\000"
 3176      6C00
 3177              	.LASF168:
 3178 026e 52455345 		.ascii	"RESERVED2\000"
 3178      52564544 
 3178      3200
 3179              	.LASF92:
 3180 0278 63686172 		.ascii	"char\000"
 3180      00
 3181              	.LASF188:
 3182 027d 4750545F 		.ascii	"GPT_UNINIT\000"
 3182      554E494E 
 3182      495400
 3183              	.LASF35:
ARM GAS  /tmp/ccQUPxID.s 			page 59


 3184 0288 705F7072 		.ascii	"p_prio\000"
 3184      696F00
 3185              	.LASF8:
 3186 028f 5F5F7569 		.ascii	"__uint16_t\000"
 3186      6E743136 
 3186      5F7400
 3187              	.LASF113:
 3188 029a 47656E65 		.ascii	"GenericQueue\000"
 3188      72696351 
 3188      75657565 
 3188      00
 3189              	.LASF90:
 3190 02a7 77746F62 		.ascii	"wtobjp\000"
 3190      6A7000
 3191              	.LASF102:
 3192 02ae 63665F6F 		.ascii	"cf_off_newer\000"
 3192      66665F6E 
 3192      65776572 
 3192      00
 3193              	.LASF220:
 3194 02bb 67657474 		.ascii	"gett\000"
 3194      00
 3195              	.LASF55:
 3196 02c0 73746B61 		.ascii	"stkalign_t\000"
 3196      6C69676E 
 3196      5F7400
 3197              	.LASF151:
 3198 02cb 46494F53 		.ascii	"FIOSET0\000"
 3198      45543000 
 3199              	.LASF152:
 3200 02d3 46494F53 		.ascii	"FIOSET1\000"
 3200      45543100 
 3201              	.LASF153:
 3202 02db 46494F53 		.ascii	"FIOSET2\000"
 3202      45543200 
 3203              	.LASF124:
 3204 02e3 4F757470 		.ascii	"OutputQueue\000"
 3204      75745175 
 3204      65756500 
 3205              	.LASF150:
 3206 02ef 46494F53 		.ascii	"FIOSETH\000"
 3206      45544800 
 3207              	.LASF149:
 3208 02f7 46494F53 		.ascii	"FIOSETL\000"
 3208      45544C00 
 3209              	.LASF100:
 3210 02ff 63665F6F 		.ascii	"cf_off_prio\000"
 3210      66665F70 
 3210      72696F00 
 3211              	.LASF180:
 3212 030b 696F706F 		.ascii	"ioportmask_t\000"
 3212      72746D61 
 3212      736B5F74 
 3212      00
 3213              	.LASF64:
 3214 0318 76745F66 		.ascii	"vt_func\000"
 3214      756E6300 
ARM GAS  /tmp/ccQUPxID.s 			page 60


 3215              	.LASF187:
 3216 0320 494F4275 		.ascii	"IOBus\000"
 3216      7300
 3217              	.LASF56:
 3218 0326 696E7463 		.ascii	"intctx\000"
 3218      747800
 3219              	.LASF48:
 3220 032d 705F6570 		.ascii	"p_epending\000"
 3220      656E6469 
 3220      6E6700
 3221              	.LASF87:
 3222 0338 65735F6E 		.ascii	"es_next\000"
 3222      65787400 
 3223              	.LASF115:
 3224 0340 715F636F 		.ascii	"q_counter\000"
 3224      756E7465 
 3224      7200
 3225              	.LASF144:
 3226 034a 46494F50 		.ascii	"FIOPIN0\000"
 3226      494E3000 
 3227              	.LASF145:
 3228 0352 46494F50 		.ascii	"FIOPIN1\000"
 3228      494E3100 
 3229              	.LASF146:
 3230 035a 46494F50 		.ascii	"FIOPIN2\000"
 3230      494E3200 
 3231              	.LASF147:
 3232 0362 46494F50 		.ascii	"FIOPIN3\000"
 3232      494E3300 
 3233              	.LASF86:
 3234 036a 4576656E 		.ascii	"EventSource\000"
 3234      74536F75 
 3234      72636500 
 3235              	.LASF14:
 3236 0376 5F5F7569 		.ascii	"__uint64_t\000"
 3236      6E743634 
 3236      5F7400
 3237              	.LASF13:
 3238 0381 6C6F6E67 		.ascii	"long unsigned int\000"
 3238      20756E73 
 3238      69676E65 
 3238      6420696E 
 3238      7400
 3239              	.LASF94:
 3240 0393 63685F7A 		.ascii	"ch_zero\000"
 3240      65726F00 
 3241              	.LASF143:
 3242 039b 46494F50 		.ascii	"FIOPINH\000"
 3242      494E4800 
 3243              	.LASF142:
 3244 03a3 46494F50 		.ascii	"FIOPINL\000"
 3244      494E4C00 
 3245              	.LASF127:
 3246 03ab 53797374 		.ascii	"SystemCoreClock\000"
 3246      656D436F 
 3246      7265436C 
 3246      6F636B00 
ARM GAS  /tmp/ccQUPxID.s 			page 61


 3247              	.LASF199:
 3248 03bb 67707466 		.ascii	"gptfreq_t\000"
 3248      7265715F 
 3248      7400
 3249              	.LASF173:
 3250 03c5 43436F6E 		.ascii	"CControl\000"
 3250      74726F6C 
 3250      00
 3251              	.LASF82:
 3252 03ce 656C5F6E 		.ascii	"el_next\000"
 3252      65787400 
 3253              	.LASF118:
 3254 03d6 715F7772 		.ascii	"q_wrptr\000"
 3254      70747200 
 3255              	.LASF176:
 3256 03de 5F6C7063 		.ascii	"_lpc17xx_dma_channel_config_t\000"
 3256      31377878 
 3256      5F646D61 
 3256      5F636861 
 3256      6E6E656C 
 3257              	.LASF216:
 3258 03fc 53657269 		.ascii	"SerialDriverVMT\000"
 3258      616C4472 
 3258      69766572 
 3258      564D5400 
 3259              	.LASF141:
 3260 040c 46494F4D 		.ascii	"FIOMASK\000"
 3260      41534B00 
 3261              	.LASF197:
 3262 0414 636C6F63 		.ascii	"clock\000"
 3262      6B00
 3263              	.LASF202:
 3264 041a 47505443 		.ascii	"GPTConfig\000"
 3264      6F6E6669 
 3264      6700
 3265              	.LASF130:
 3266 0424 46494F44 		.ascii	"FIODIR0\000"
 3266      49523000 
 3267              	.LASF131:
 3268 042c 46494F44 		.ascii	"FIODIR1\000"
 3268      49523100 
 3269              	.LASF132:
 3270 0434 46494F44 		.ascii	"FIODIR2\000"
 3270      49523200 
 3271              	.LASF133:
 3272 043c 46494F44 		.ascii	"FIODIR3\000"
 3272      49523300 
 3273              	.LASF109:
 3274 0444 63665F6F 		.ascii	"cf_off_preempt\000"
 3274      66665F70 
 3274      7265656D 
 3274      707400
 3275              	.LASF129:
 3276 0453 46494F44 		.ascii	"FIODIRH\000"
 3276      49524800 
 3277              	.LASF128:
 3278 045b 46494F44 		.ascii	"FIODIRL\000"
ARM GAS  /tmp/ccQUPxID.s 			page 62


 3278      49524C00 
 3279              	.LASF12:
 3280 0463 5F5F7569 		.ascii	"__uint32_t\000"
 3280      6E743332 
 3280      5F7400
 3281              	.LASF77:
 3282 046e 4D757465 		.ascii	"Mutex\000"
 3282      7800
 3283              	.LASF1:
 3284 0474 6C6F6E67 		.ascii	"long long int\000"
 3284      206C6F6E 
 3284      6720696E 
 3284      7400
 3285              	.LASF96:
 3286 0482 63685F76 		.ascii	"ch_version\000"
 3286      65727369 
 3286      6F6E00
 3287              	.LASF78:
 3288 048d 6D5F7175 		.ascii	"m_queue\000"
 3288      65756500 
 3289              	.LASF194:
 3290 0495 47505444 		.ascii	"GPTDriver\000"
 3290      72697665 
 3290      7200
 3291              	.LASF61:
 3292 049f 76745F6E 		.ascii	"vt_next\000"
 3292      65787400 
 3293              	.LASF155:
 3294 04a7 46494F53 		.ascii	"FIOSET\000"
 3294      455400
 3295              	.LASF185:
 3296 04ae 6D61736B 		.ascii	"mask\000"
 3296      00
 3297              	.LASF126:
 3298 04b3 49544D5F 		.ascii	"ITM_RxBuffer\000"
 3298      52784275 
 3298      66666572 
 3298      00
 3299              	.LASF200:
 3300 04c0 66726571 		.ascii	"frequency\000"
 3300      75656E63 
 3300      7900
 3301              	.LASF122:
 3302 04ca 716E6F74 		.ascii	"qnotify_t\000"
 3302      6966795F 
 3302      7400
 3303              	.LASF192:
 3304 04d4 4750545F 		.ascii	"GPT_ONESHOT\000"
 3304      4F4E4553 
 3304      484F5400 
 3305              	.LASF45:
 3306 04e0 705F7761 		.ascii	"p_waiting\000"
 3306      6974696E 
 3306      6700
 3307              	.LASF212:
 3308 04ea 6576656E 		.ascii	"event\000"
 3308      7400
ARM GAS  /tmp/ccQUPxID.s 			page 63


 3309              	.LASF41:
 3310 04f0 705F666C 		.ascii	"p_flags\000"
 3310      61677300 
 3311              	.LASF218:
 3312 04f8 72656164 		.ascii	"read\000"
 3312      00
 3313              	.LASF0:
 3314 04fd 756E7369 		.ascii	"unsigned int\000"
 3314      676E6564 
 3314      20696E74 
 3314      00
 3315              	.LASF105:
 3316 050a 63665F6F 		.ascii	"cf_off_stklimit\000"
 3316      66665F73 
 3316      746B6C69 
 3316      6D697400 
 3317              	.LASF137:
 3318 051a 46494F4D 		.ascii	"FIOMASK0\000"
 3318      41534B30 
 3318      00
 3319              	.LASF138:
 3320 0523 46494F4D 		.ascii	"FIOMASK1\000"
 3320      41534B31 
 3320      00
 3321              	.LASF139:
 3322 052c 46494F4D 		.ascii	"FIOMASK2\000"
 3322      41534B32 
 3322      00
 3323              	.LASF140:
 3324 0535 46494F4D 		.ascii	"FIOMASK3\000"
 3324      41534B33 
 3324      00
 3325              	.LASF51:
 3326 053e 705F6D70 		.ascii	"p_mpool\000"
 3326      6F6F6C00 
 3327              	.LASF158:
 3328 0546 46494F43 		.ascii	"FIOCLR0\000"
 3328      4C523000 
 3329              	.LASF159:
 3330 054e 46494F43 		.ascii	"FIOCLR1\000"
 3330      4C523100 
 3331              	.LASF160:
 3332 0556 46494F43 		.ascii	"FIOCLR2\000"
 3332      4C523200 
 3333              	.LASF161:
 3334 055e 46494F43 		.ascii	"FIOCLR3\000"
 3334      4C523300 
 3335              	.LASF42:
 3336 0566 705F7265 		.ascii	"p_refs\000"
 3336      667300
 3337              	.LASF136:
 3338 056d 46494F4D 		.ascii	"FIOMASKH\000"
 3338      41534B48 
 3338      00
 3339              	.LASF135:
 3340 0576 46494F4D 		.ascii	"FIOMASKL\000"
 3340      41534B4C 
ARM GAS  /tmp/ccQUPxID.s 			page 64


 3340      00
 3341              	.LASF98:
 3342 057f 63685F74 		.ascii	"ch_timesize\000"
 3342      696D6573 
 3342      697A6500 
 3343              	.LASF231:
 3344 058b 2E2E2F2E 		.ascii	"../../os/hal/src/pal.c\000"
 3344      2E2F6F73 
 3344      2F68616C 
 3344      2F737263 
 3344      2F70616C 
 3345              	.LASF157:
 3346 05a2 46494F43 		.ascii	"FIOCLRH\000"
 3346      4C524800 
 3347              	.LASF156:
 3348 05aa 46494F43 		.ascii	"FIOCLRL\000"
 3348      4C524C00 
 3349              	.LASF226:
 3350 05b2 62697473 		.ascii	"bits\000"
 3350      00
 3351              	.LASF230:
 3352 05b7 474E5520 		.ascii	"GNU C11 6.3.1 20170620 -mcpu=cortex-m3 -mno-thumb-i"
 3352      43313120 
 3352      362E332E 
 3352      31203230 
 3352      31373036 
 3353 05ea 6E746572 		.ascii	"nterwork -mthumb -ggdb -O2 -fomit-frame-pointer -ff"
 3353      776F726B 
 3353      202D6D74 
 3353      68756D62 
 3353      202D6767 
 3354 061d 756E6374 		.ascii	"unction-sections -fdata-sections -fno-common\000"
 3354      696F6E2D 
 3354      73656374 
 3354      696F6E73 
 3354      202D6664 
 3355              	.LASF53:
 3356 064a 54687265 		.ascii	"ThreadsList\000"
 3356      6164734C 
 3356      69737400 
 3357              	.LASF186:
 3358 0656 6F666673 		.ascii	"offset\000"
 3358      657400
 3359              	.LASF30:
 3360 065d 666C6167 		.ascii	"flagsmask_t\000"
 3360      736D6173 
 3360      6B5F7400 
 3361              	.LASF44:
 3362 0669 705F7469 		.ascii	"p_time\000"
 3362      6D6500
 3363              	.LASF134:
 3364 0670 46494F44 		.ascii	"FIODIR\000"
 3364      495200
 3365              	.LASF108:
 3366 0677 63665F6F 		.ascii	"cf_off_refs\000"
 3366      66665F72 
 3366      65667300 
ARM GAS  /tmp/ccQUPxID.s 			page 65


 3367              	.LASF167:
 3368 0683 4C50435F 		.ascii	"LPC_TIM_TypeDef\000"
 3368      54494D5F 
 3368      54797065 
 3368      44656600 
 3369              	.LASF228:
 3370 0693 5F70616C 		.ascii	"_pal_lld_writegroup\000"
 3370      5F6C6C64 
 3370      5F777269 
 3370      74656772 
 3370      6F757000 
 3371              	.LASF162:
 3372 06a7 46494F43 		.ascii	"FIOCLR\000"
 3372      4C5200
 3373              	.LASF2:
 3374 06ae 6C6F6E67 		.ascii	"long double\000"
 3374      20646F75 
 3374      626C6500 
 3375              	.LASF50:
 3376 06ba 705F7265 		.ascii	"p_realprio\000"
 3376      616C7072 
 3376      696F00
 3377              	.LASF110:
 3378 06c5 63665F6F 		.ascii	"cf_off_time\000"
 3378      66665F74 
 3378      696D6500 
 3379              	.LASF232:
 3380 06d1 2F686F6D 		.ascii	"/home/ekobayu/Arok-Gandring-Lokajaya/LPC/ChibiOS-RT"
 3380      652F656B 
 3380      6F626179 
 3380      752F4172 
 3380      6F6B2D47 
 3381 0704 2D4C5043 		.ascii	"-LPC/demos/LPC1766\000"
 3381      2F64656D 
 3381      6F732F4C 
 3381      50433137 
 3381      363600
 3382              	.LASF15:
 3383 0717 6C6F6E67 		.ascii	"long long unsigned int\000"
 3383      206C6F6E 
 3383      6720756E 
 3383      7369676E 
 3383      65642069 
 3384              	.LASF38:
 3385 072e 705F6F6C 		.ascii	"p_older\000"
 3385      64657200 
 3386              	.LASF17:
 3387 0736 75696E74 		.ascii	"uint16_t\000"
 3387      31365F74 
 3387      00
 3388              	.LASF28:
 3389 073f 6D73675F 		.ascii	"msg_t\000"
 3389      7400
 3390              	.LASF148:
 3391 0745 46494F50 		.ascii	"FIOPIN\000"
 3391      494E00
 3392              	.LASF107:
ARM GAS  /tmp/ccQUPxID.s 			page 66


 3393 074c 63665F6F 		.ascii	"cf_off_flags\000"
 3393      66665F66 
 3393      6C616773 
 3393      00
 3394              	.LASF26:
 3395 0759 74736C69 		.ascii	"tslices_t\000"
 3395      6365735F 
 3395      7400
 3396              	.LASF190:
 3397 0763 4750545F 		.ascii	"GPT_READY\000"
 3397      52454144 
 3397      5900
 3398              	.LASF191:
 3399 076d 4750545F 		.ascii	"GPT_CONTINUOUS\000"
 3399      434F4E54 
 3399      494E554F 
 3399      555300
 3400              	.LASF73:
 3401 077c 725F6375 		.ascii	"r_current\000"
 3401      7272656E 
 3401      7400
 3402              	.LASF67:
 3403 0786 56544C69 		.ascii	"VTList\000"
 3403      737400
 3404              	.LASF169:
 3405 078d 4C50435F 		.ascii	"LPC_UART_TypeDef\000"
 3405      55415254 
 3405      5F547970 
 3405      65446566 
 3405      00
 3406              	.LASF172:
 3407 079e 434C4C49 		.ascii	"CLLI\000"
 3407      00
 3408              	.LASF68:
 3409 07a3 725F7175 		.ascii	"r_queue\000"
 3409      65756500 
 3410              	.LASF211:
 3411 07ab 53657269 		.ascii	"SerialDriver\000"
 3411      616C4472 
 3411      69766572 
 3411      00
 3412              	.LASF114:
 3413 07b8 715F7761 		.ascii	"q_waiting\000"
 3413      6974696E 
 3413      6700
 3414              	.LASF76:
 3415 07c2 726C6973 		.ascii	"rlist\000"
 3415      7400
 3416              	.LASF23:
 3417 07c8 746D6F64 		.ascii	"tmode_t\000"
 3417      655F7400 
 3418              	.LASF210:
 3419 07d0 73647374 		.ascii	"sdstate_t\000"
 3419      6174655F 
 3419      7400
 3420              	.LASF66:
 3421 07da 76745F73 		.ascii	"vt_systime\000"
ARM GAS  /tmp/ccQUPxID.s 			page 67


 3421      79737469 
 3421      6D6500
 3422              	.LASF209:
 3423 07e5 53445F52 		.ascii	"SD_READY\000"
 3423      45414459 
 3423      00
 3424              	.LASF72:
 3425 07ee 725F6F6C 		.ascii	"r_older\000"
 3425      64657200 
 3426              	.LASF21:
 3427 07f6 75696E74 		.ascii	"uint_fast8_t\000"
 3427      5F666173 
 3427      74385F74 
 3427      00
 3428              	.LASF7:
 3429 0803 73686F72 		.ascii	"short int\000"
 3429      7420696E 
 3429      7400
 3430              	.LASF20:
 3431 080d 75696E74 		.ascii	"uint64_t\000"
 3431      36345F74 
 3431      00
 3432              	.LASF223:
 3433 0816 6D6F6465 		.ascii	"mode\000"
 3433      00
 3434              	.LASF215:
 3435 081b 75617274 		.ascii	"uart\000"
 3435      00
 3436              	.LASF213:
 3437 0820 69717565 		.ascii	"iqueue\000"
 3437      756500
 3438              	.LASF233:
 3439 0827 70616C52 		.ascii	"palReadBus\000"
 3439      65616442 
 3439      757300
 3440              	.LASF69:
 3441 0832 725F7072 		.ascii	"r_prio\000"
 3441      696F00
 3442              	.LASF178:
 3443 0839 6C706331 		.ascii	"lpc17xx_gpio_setup_t\000"
 3443      3778785F 
 3443      6770696F 
 3443      5F736574 
 3443      75705F74 
 3444              	.LASF103:
 3445 084e 63665F6F 		.ascii	"cf_off_older\000"
 3445      66665F6F 
 3445      6C646572 
 3445      00
 3446              	.LASF179:
 3447 085b 50414C43 		.ascii	"PALConfig\000"
 3447      6F6E6669 
 3447      6700
 3448              	.LASF32:
 3449 0865 54687265 		.ascii	"Thread\000"
 3449      616400
 3450              	.LASF75:
ARM GAS  /tmp/ccQUPxID.s 			page 68


 3451 086c 76746C69 		.ascii	"vtlist\000"
 3451      737400
 3452              	.LASF174:
 3453 0873 43436F6E 		.ascii	"CConfig\000"
 3453      66696700 
 3454              	.LASF224:
 3455 087b 70616C53 		.ascii	"palSetBusMode\000"
 3455      65744275 
 3455      734D6F64 
 3455      6500
 3456              	.LASF25:
 3457 0889 74726566 		.ascii	"trefs_t\000"
 3457      735F7400 
 3458              	.LASF125:
 3459 0891 5F69646C 		.ascii	"_idle_thread_wa\000"
 3459      655F7468 
 3459      72656164 
 3459      5F776100 
 3460              	.LASF81:
 3461 08a1 4576656E 		.ascii	"EventListener\000"
 3461      744C6973 
 3461      74656E65 
 3461      7200
 3462              	.LASF225:
 3463 08af 70616C57 		.ascii	"palWriteBus\000"
 3463      72697465 
 3463      42757300 
 3464              	.LASF19:
 3465 08bb 75696E74 		.ascii	"uint32_t\000"
 3465      33325F74 
 3465      00
 3466              	.LASF60:
 3467 08c4 56697274 		.ascii	"VirtualTimer\000"
 3467      75616C54 
 3467      696D6572 
 3467      00
 3468              	.LASF52:
 3469 08d1 54687265 		.ascii	"ThreadsQueue\000"
 3469      61647351 
 3469      75657565 
 3469      00
 3470              	.LASF164:
 3471 08de 4C50435F 		.ascii	"LPC_GPIO_TypeDef\000"
 3471      4750494F 
 3471      5F547970 
 3471      65446566 
 3471      00
 3472              	.LASF88:
 3473 08ef 7264796D 		.ascii	"rdymsg\000"
 3473      736700
 3474              	.LASF189:
 3475 08f6 4750545F 		.ascii	"GPT_STOP\000"
 3475      53544F50 
 3475      00
 3476              	.LASF9:
 3477 08ff 73686F72 		.ascii	"short unsigned int\000"
 3477      7420756E 
ARM GAS  /tmp/ccQUPxID.s 			page 69


 3477      7369676E 
 3477      65642069 
 3477      6E7400
 3478              	.LASF111:
 3479 0912 63686465 		.ascii	"chdebug_t\000"
 3479      6275675F 
 3479      7400
 3480              	.LASF123:
 3481 091c 496E7075 		.ascii	"InputQueue\000"
 3481      74517565 
 3481      756500
 3482              	.LASF95:
 3483 0927 63685F73 		.ascii	"ch_size\000"
 3483      697A6500 
 3484              	.LASF229:
 3485 092f 5F70616C 		.ascii	"_pal_lld_readgroup\000"
 3485      5F6C6C64 
 3485      5F726561 
 3485      6467726F 
 3485      757000
 3486              	.LASF10:
 3487 0942 5F5F696E 		.ascii	"__int32_t\000"
 3487      7433325F 
 3487      7400
 3488              	.LASF208:
 3489 094c 53445F53 		.ascii	"SD_STOP\000"
 3489      544F5000 
 3490              	.LASF84:
 3491 0954 656C5F6D 		.ascii	"el_mask\000"
 3491      61736B00 
 3492              	.LASF74:
 3493 095c 52656164 		.ascii	"ReadyList\000"
 3493      794C6973 
 3493      7400
 3494              	.LASF154:
 3495 0966 46494F53 		.ascii	"FIOSET3\000"
 3495      45543300 
 3496              	.LASF39:
 3497 096e 705F6E61 		.ascii	"p_name\000"
 3497      6D6500
 3498              	.LASF63:
 3499 0975 76745F74 		.ascii	"vt_time\000"
 3499      696D6500 
 3500              	.LASF177:
 3501 097d 64617461 		.ascii	"data\000"
 3501      00
 3502              	.LASF80:
 3503 0982 6D5F6E65 		.ascii	"m_next\000"
 3503      787400
 3504              	.LASF198:
 3505 0989 67707463 		.ascii	"gptcallback_t\000"
 3505      616C6C62 
 3505      61636B5F 
 3505      7400
 3506              	.LASF47:
 3507 0997 705F6D73 		.ascii	"p_msg\000"
 3507      6700
ARM GAS  /tmp/ccQUPxID.s 			page 70


 3508              	.LASF83:
 3509 099d 656C5F6C 		.ascii	"el_listener\000"
 3509      69737465 
 3509      6E657200 
 3510              	.LASF40:
 3511 09a9 705F7374 		.ascii	"p_state\000"
 3511      61746500 
 3512              		.ident	"GCC: (15:6.3.1+svn253039-1build1) 6.3.1 20170620"
ARM GAS  /tmp/ccQUPxID.s 			page 71


DEFINED SYMBOLS
                            *ABS*:0000000000000000 pal.c
     /tmp/ccQUPxID.s:16     .text.palReadBus:0000000000000000 $t
     /tmp/ccQUPxID.s:24     .text.palReadBus:0000000000000000 palReadBus
     /tmp/ccQUPxID.s:42     .text.palWriteBus:0000000000000000 $t
     /tmp/ccQUPxID.s:50     .text.palWriteBus:0000000000000000 palWriteBus
     /tmp/ccQUPxID.s:68     .text.palSetBusMode:0000000000000000 $t
     /tmp/ccQUPxID.s:76     .text.palSetBusMode:0000000000000000 palSetBusMode
                     .debug_frame:0000000000000010 $d

UNDEFINED SYMBOLS
_pal_lld_readgroup
_pal_lld_writegroup
_pal_lld_setgroupmode
