ARM GAS  /tmp/cc3pBf8T.s 			page 1


   1              		.cpu cortex-m3
   2              		.eabi_attribute 20, 1
   3              		.eabi_attribute 21, 1
   4              		.eabi_attribute 23, 3
   5              		.eabi_attribute 24, 1
   6              		.eabi_attribute 25, 1
   7              		.eabi_attribute 26, 1
   8              		.eabi_attribute 30, 2
   9              		.eabi_attribute 34, 1
  10              		.eabi_attribute 18, 4
  11              		.file	"pal_lld.c"
  12              		.text
  13              	.Ltext0:
  14              		.cfi_sections	.debug_frame
  15              		.section	.text._pal_lld_init,"ax",%progbits
  16              		.align	1
  17              		.p2align 2,,3
  18              		.global	_pal_lld_init
  19              		.syntax unified
  20              		.thumb
  21              		.thumb_func
  22              		.fpu softvfp
  23              		.type	_pal_lld_init, %function
  24              	_pal_lld_init:
  25              	.LFB63:
  26              		.file 1 "../../os/hal/platforms/LPC17xx/pal_lld.c"
  27              		.loc 1 57 0
  28              		.cfi_startproc
  29              		@ args = 0, pretend = 0, frame = 0
  30              		@ frame_needed = 0, uses_anonymous_args = 0
  31              		@ link register save eliminated.
  32              	.LVL0:
  33              		.loc 1 64 0
  34 0000 0023     		movs	r3, #0
  35              		.loc 1 57 0
  36 0002 F0B4     		push	{r4, r5, r6, r7}
  37              		.cfi_def_cfa_offset 16
  38              		.cfi_offset 4, -16
  39              		.cfi_offset 5, -12
  40              		.cfi_offset 6, -8
  41              		.cfi_offset 7, -4
  42              		.loc 1 59 0
  43 0004 4268     		ldr	r2, [r0, #4]
  44 0006 0F4E     		ldr	r6, .L3
  45              		.loc 1 60 0
  46 0008 0F4D     		ldr	r5, .L3+4
  47              		.loc 1 59 0
  48 000a 3260     		str	r2, [r6]
  49              		.loc 1 60 0
  50 000c C268     		ldr	r2, [r0, #12]
  51              		.loc 1 61 0
  52 000e 0F4C     		ldr	r4, .L3+8
  53              		.loc 1 60 0
  54 0010 2A60     		str	r2, [r5]
  55              		.loc 1 61 0
  56 0012 4269     		ldr	r2, [r0, #20]
  57              		.loc 1 62 0
ARM GAS  /tmp/cc3pBf8T.s 			page 2


  58 0014 0E49     		ldr	r1, .L3+12
  59              		.loc 1 61 0
  60 0016 2260     		str	r2, [r4]
  61              		.loc 1 62 0
  62 0018 C769     		ldr	r7, [r0, #28]
  63              		.loc 1 63 0
  64 001a 0E4A     		ldr	r2, .L3+16
  65              		.loc 1 62 0
  66 001c 0F60     		str	r7, [r1]
  67              		.loc 1 63 0
  68 001e 476A     		ldr	r7, [r0, #36]
  69 0020 1760     		str	r7, [r2]
  70              		.loc 1 64 0
  71 0022 3361     		str	r3, [r6, #16]
  72              		.loc 1 65 0
  73 0024 2B61     		str	r3, [r5, #16]
  74              		.loc 1 66 0
  75 0026 2361     		str	r3, [r4, #16]
  76              		.loc 1 67 0
  77 0028 0B61     		str	r3, [r1, #16]
  78              		.loc 1 68 0
  79 002a 1361     		str	r3, [r2, #16]
  80              		.loc 1 69 0
  81 002c 0368     		ldr	r3, [r0]
  82 002e 7361     		str	r3, [r6, #20]
  83              		.loc 1 70 0
  84 0030 8368     		ldr	r3, [r0, #8]
  85 0032 6B61     		str	r3, [r5, #20]
  86              		.loc 1 71 0
  87 0034 0369     		ldr	r3, [r0, #16]
  88 0036 6361     		str	r3, [r4, #20]
  89              		.loc 1 72 0
  90 0038 8369     		ldr	r3, [r0, #24]
  91 003a 4B61     		str	r3, [r1, #20]
  92              		.loc 1 73 0
  93 003c 036A     		ldr	r3, [r0, #32]
  94 003e 5361     		str	r3, [r2, #20]
  95              		.loc 1 74 0
  96 0040 F0BC     		pop	{r4, r5, r6, r7}
  97              		.cfi_restore 7
  98              		.cfi_restore 6
  99              		.cfi_restore 5
 100              		.cfi_restore 4
 101              		.cfi_def_cfa_offset 0
 102 0042 7047     		bx	lr
 103              	.L4:
 104              		.align	2
 105              	.L3:
 106 0044 00C00920 		.word	537509888
 107 0048 20C00920 		.word	537509920
 108 004c 40C00920 		.word	537509952
 109 0050 60C00920 		.word	537509984
 110 0054 80C00920 		.word	537510016
 111              		.cfi_endproc
 112              	.LFE63:
 113              		.size	_pal_lld_init, .-_pal_lld_init
 114              		.section	.text._pal_lld_readgroup,"ax",%progbits
ARM GAS  /tmp/cc3pBf8T.s 			page 3


 115              		.align	1
 116              		.p2align 2,,3
 117              		.global	_pal_lld_readgroup
 118              		.syntax unified
 119              		.thumb
 120              		.thumb_func
 121              		.fpu softvfp
 122              		.type	_pal_lld_readgroup, %function
 123              	_pal_lld_readgroup:
 124              	.LFB64:
 125              		.loc 1 91 0
 126              		.cfi_startproc
 127              		@ args = 0, pretend = 0, frame = 0
 128              		@ frame_needed = 0, uses_anonymous_args = 0
 129              		@ link register save eliminated.
 130              	.LVL1:
 131              		.loc 1 95 0
 132 0000 01FA02F2 		lsl	r2, r1, r2
 133              	.LVL2:
 134 0004 D243     		mvns	r2, r2
 135              		.loc 1 91 0
 136 0006 0346     		mov	r3, r0
 137              		.loc 1 97 0
 138 0008 0021     		movs	r1, #0
 139              	.LVL3:
 140              		.loc 1 95 0
 141 000a 0261     		str	r2, [r0, #16]
 142              		.loc 1 96 0
 143 000c 4069     		ldr	r0, [r0, #20]
 144              	.LVL4:
 145              		.loc 1 97 0
 146 000e 1961     		str	r1, [r3, #16]
 147              		.loc 1 99 0
 148 0010 7047     		bx	lr
 149              		.cfi_endproc
 150              	.LFE64:
 151              		.size	_pal_lld_readgroup, .-_pal_lld_readgroup
 152 0012 00BF     		.section	.text._pal_lld_writegroup,"ax",%progbits
 153              		.align	1
 154              		.p2align 2,,3
 155              		.global	_pal_lld_writegroup
 156              		.syntax unified
 157              		.thumb
 158              		.thumb_func
 159              		.fpu softvfp
 160              		.type	_pal_lld_writegroup, %function
 161              	_pal_lld_writegroup:
 162              	.LFB65:
 163              		.loc 1 118 0
 164              		.cfi_startproc
 165              		@ args = 0, pretend = 0, frame = 0
 166              		@ frame_needed = 0, uses_anonymous_args = 0
 167              		@ link register save eliminated.
 168              	.LVL5:
 169              		.loc 1 120 0
 170 0000 01FA02F2 		lsl	r2, r1, r2
 171              	.LVL6:
ARM GAS  /tmp/cc3pBf8T.s 			page 4


 172 0004 D243     		mvns	r2, r2
 173              		.loc 1 122 0
 174 0006 0021     		movs	r1, #0
 175              	.LVL7:
 176              		.loc 1 120 0
 177 0008 0261     		str	r2, [r0, #16]
 178              		.loc 1 121 0
 179 000a 4361     		str	r3, [r0, #20]
 180              		.loc 1 122 0
 181 000c 0161     		str	r1, [r0, #16]
 182 000e 7047     		bx	lr
 183              		.cfi_endproc
 184              	.LFE65:
 185              		.size	_pal_lld_writegroup, .-_pal_lld_writegroup
 186              		.section	.text._pal_lld_setgroupmode,"ax",%progbits
 187              		.align	1
 188              		.p2align 2,,3
 189              		.global	_pal_lld_setgroupmode
 190              		.syntax unified
 191              		.thumb
 192              		.thumb_func
 193              		.fpu softvfp
 194              		.type	_pal_lld_setgroupmode, %function
 195              	_pal_lld_setgroupmode:
 196              	.LFB66:
 197              		.loc 1 141 0
 198              		.cfi_startproc
 199              		@ args = 0, pretend = 0, frame = 0
 200              		@ frame_needed = 0, uses_anonymous_args = 0
 201              		@ link register save eliminated.
 202              	.LVL8:
 203              		.loc 1 143 0
 204 0000 062A     		cmp	r2, #6
 205 0002 0BD8     		bhi	.L7
 206 0004 DFE802F0 		tbb	[pc, r2]
 207              	.L10:
 208 0008 0B       		.byte	(.L9-.L10)/2
 209 0009 04       		.byte	(.L11-.L10)/2
 210 000a 0B       		.byte	(.L9-.L10)/2
 211 000b 0A       		.byte	(.L7-.L10)/2
 212 000c 0A       		.byte	(.L7-.L10)/2
 213 000d 0A       		.byte	(.L7-.L10)/2
 214 000e 07       		.byte	(.L12-.L10)/2
 215 000f 00       		.p2align 1
 216              	.L11:
 217              		.loc 1 149 0
 218 0010 4FF0FF33 		mov	r3, #-1
 219 0014 8361     		str	r3, [r0, #24]
 220              	.L12:
 221              		.loc 1 151 0
 222 0016 0368     		ldr	r3, [r0]
 223 0018 1943     		orrs	r1, r1, r3
 224              	.LVL9:
 225 001a 0160     		str	r1, [r0]
 226              	.L7:
 227 001c 7047     		bx	lr
 228              	.LVL10:
ARM GAS  /tmp/cc3pBf8T.s 			page 5


 229              	.L9:
 230              		.loc 1 146 0
 231 001e 0368     		ldr	r3, [r0]
 232 0020 23EA0101 		bic	r1, r3, r1
 233              	.LVL11:
 234 0024 0160     		str	r1, [r0]
 235              		.loc 1 147 0
 236 0026 7047     		bx	lr
 237              		.cfi_endproc
 238              	.LFE66:
 239              		.size	_pal_lld_setgroupmode, .-_pal_lld_setgroupmode
 240              		.text
 241              	.Letext0:
 242              		.file 2 "/usr/lib/gcc/arm-none-eabi/6.3.1/include/stddef.h"
 243              		.file 3 "/usr/include/newlib/machine/_default_types.h"
 244              		.file 4 "/usr/include/newlib/sys/_stdint.h"
 245              		.file 5 "../../os/ports/GCC/ARMCMx/chtypes.h"
 246              		.file 6 "../../os/kernel/include/chlists.h"
 247              		.file 7 "../../os/kernel/include/chthreads.h"
 248              		.file 8 "../../os/ports/GCC/ARMCMx/chcore_v7m.h"
 249              		.file 9 "../../os/kernel/include/chvt.h"
 250              		.file 10 "../../os/kernel/include/chschd.h"
 251              		.file 11 "../../os/kernel/include/chmtx.h"
 252              		.file 12 "../../os/kernel/include/chevents.h"
 253              		.file 13 "../../os/kernel/include/chregistry.h"
 254              		.file 14 "../../os/kernel/include/chqueues.h"
 255              		.file 15 "../../os/kernel/include/ch.h"
 256              		.file 16 "../../os/ports/common/ARMCMx/CMSIS/include/core_cm3.h"
 257              		.file 17 "../../os/hal/platforms/LPC17xx/system_LPC17xx.h"
 258              		.file 18 "../../os/hal/platforms/LPC17xx/LPC17xx.h"
 259              		.file 19 "../../os/hal/platforms/LPC17xx/lpc17xx_dma.h"
 260              		.file 20 "../../os/hal/platforms/LPC17xx/pal_lld.h"
 261              		.file 21 "../../os/hal/include/gpt.h"
 262              		.file 22 "../../os/hal/platforms/LPC17xx/gpt_lld.h"
 263              		.file 23 "../../os/hal/include/serial.h"
 264              		.file 24 "../../os/hal/platforms/LPC17xx/serial_lld.h"
 265              		.file 25 "../../os/hal/include/spi.h"
 266              		.file 26 "../../os/hal/platforms/LPC17xx/spi_lld.h"
 267              		.section	.debug_info,"",%progbits
 268              	.Ldebug_info0:
 269 0000 F4130000 		.4byte	0x13f4
 270 0004 0400     		.2byte	0x4
 271 0006 00000000 		.4byte	.Ldebug_abbrev0
 272 000a 04       		.byte	0x4
 273 000b 01       		.uleb128 0x1
 274 000c 67060000 		.4byte	.LASF251
 275 0010 0C       		.byte	0xc
 276 0011 71030000 		.4byte	.LASF252
 277 0015 81070000 		.4byte	.LASF253
 278 0019 00000000 		.4byte	.Ldebug_ranges0+0
 279 001d 00000000 		.4byte	0
 280 0021 00000000 		.4byte	.Ldebug_line0
 281 0025 02       		.uleb128 0x2
 282 0026 04       		.byte	0x4
 283 0027 05       		.byte	0x5
 284 0028 696E7400 		.ascii	"int\000"
 285 002c 03       		.uleb128 0x3
ARM GAS  /tmp/cc3pBf8T.s 			page 6


 286 002d 00000000 		.4byte	.LASF4
 287 0031 02       		.byte	0x2
 288 0032 D8       		.byte	0xd8
 289 0033 37000000 		.4byte	0x37
 290 0037 04       		.uleb128 0x4
 291 0038 04       		.byte	0x4
 292 0039 07       		.byte	0x7
 293 003a A1050000 		.4byte	.LASF0
 294 003e 04       		.uleb128 0x4
 295 003f 08       		.byte	0x8
 296 0040 05       		.byte	0x5
 297 0041 12050000 		.4byte	.LASF1
 298 0045 04       		.uleb128 0x4
 299 0046 08       		.byte	0x8
 300 0047 04       		.byte	0x4
 301 0048 5E070000 		.4byte	.LASF2
 302 004c 04       		.uleb128 0x4
 303 004d 01       		.byte	0x1
 304 004e 06       		.byte	0x6
 305 004f 30020000 		.4byte	.LASF3
 306 0053 03       		.uleb128 0x3
 307 0054 29010000 		.4byte	.LASF5
 308 0058 03       		.byte	0x3
 309 0059 1D       		.byte	0x1d
 310 005a 5E000000 		.4byte	0x5e
 311 005e 04       		.uleb128 0x4
 312 005f 01       		.byte	0x1
 313 0060 08       		.byte	0x8
 314 0061 7B020000 		.4byte	.LASF6
 315 0065 04       		.uleb128 0x4
 316 0066 02       		.byte	0x2
 317 0067 05       		.byte	0x5
 318 0068 B7080000 		.4byte	.LASF7
 319 006c 03       		.uleb128 0x3
 320 006d F5020000 		.4byte	.LASF8
 321 0071 03       		.byte	0x3
 322 0072 2B       		.byte	0x2b
 323 0073 77000000 		.4byte	0x77
 324 0077 04       		.uleb128 0x4
 325 0078 02       		.byte	0x2
 326 0079 07       		.byte	0x7
 327 007a 9B090000 		.4byte	.LASF9
 328 007e 03       		.uleb128 0x3
 329 007f E9090000 		.4byte	.LASF10
 330 0083 03       		.byte	0x3
 331 0084 3F       		.byte	0x3f
 332 0085 89000000 		.4byte	0x89
 333 0089 04       		.uleb128 0x4
 334 008a 04       		.byte	0x4
 335 008b 05       		.byte	0x5
 336 008c 8A010000 		.4byte	.LASF11
 337 0090 03       		.uleb128 0x3
 338 0091 F7040000 		.4byte	.LASF12
 339 0095 03       		.byte	0x3
 340 0096 41       		.byte	0x41
 341 0097 9B000000 		.4byte	0x9b
 342 009b 04       		.uleb128 0x4
ARM GAS  /tmp/cc3pBf8T.s 			page 7


 343 009c 04       		.byte	0x4
 344 009d 07       		.byte	0x7
 345 009e 0A040000 		.4byte	.LASF13
 346 00a2 03       		.uleb128 0x3
 347 00a3 FF030000 		.4byte	.LASF14
 348 00a7 03       		.byte	0x3
 349 00a8 5B       		.byte	0x5b
 350 00a9 AD000000 		.4byte	0xad
 351 00ad 04       		.uleb128 0x4
 352 00ae 08       		.byte	0x8
 353 00af 07       		.byte	0x7
 354 00b0 C7070000 		.4byte	.LASF15
 355 00b4 03       		.uleb128 0x3
 356 00b5 46020000 		.4byte	.LASF16
 357 00b9 04       		.byte	0x4
 358 00ba 18       		.byte	0x18
 359 00bb 53000000 		.4byte	0x53
 360 00bf 05       		.uleb128 0x5
 361 00c0 B4000000 		.4byte	0xb4
 362 00c4 06       		.uleb128 0x6
 363 00c5 B4000000 		.4byte	0xb4
 364 00c9 03       		.uleb128 0x3
 365 00ca E6070000 		.4byte	.LASF17
 366 00ce 04       		.byte	0x4
 367 00cf 24       		.byte	0x24
 368 00d0 6C000000 		.4byte	0x6c
 369 00d4 05       		.uleb128 0x5
 370 00d5 C9000000 		.4byte	0xc9
 371 00d9 03       		.uleb128 0x3
 372 00da 5C000000 		.4byte	.LASF18
 373 00de 04       		.byte	0x4
 374 00df 2C       		.byte	0x2c
 375 00e0 7E000000 		.4byte	0x7e
 376 00e4 05       		.uleb128 0x5
 377 00e5 D9000000 		.4byte	0xd9
 378 00e9 03       		.uleb128 0x3
 379 00ea 4A090000 		.4byte	.LASF19
 380 00ee 04       		.byte	0x4
 381 00ef 30       		.byte	0x30
 382 00f0 90000000 		.4byte	0x90
 383 00f4 05       		.uleb128 0x5
 384 00f5 E9000000 		.4byte	0xe9
 385 00f9 06       		.uleb128 0x6
 386 00fa F4000000 		.4byte	0xf4
 387 00fe 03       		.uleb128 0x3
 388 00ff C1080000 		.4byte	.LASF20
 389 0103 04       		.byte	0x4
 390 0104 3C       		.byte	0x3c
 391 0105 A2000000 		.4byte	0xa2
 392 0109 04       		.uleb128 0x4
 393 010a 01       		.byte	0x1
 394 010b 02       		.byte	0x2
 395 010c C2020000 		.4byte	.LASF21
 396 0110 03       		.uleb128 0x3
 397 0111 78080000 		.4byte	.LASF22
 398 0115 05       		.byte	0x5
 399 0116 25       		.byte	0x25
ARM GAS  /tmp/cc3pBf8T.s 			page 8


 400 0117 B4000000 		.4byte	0xb4
 401 011b 03       		.uleb128 0x3
 402 011c EA010000 		.4byte	.LASF23
 403 0120 05       		.byte	0x5
 404 0121 26       		.byte	0x26
 405 0122 B4000000 		.4byte	0xb4
 406 0126 03       		.uleb128 0x3
 407 0127 24090000 		.4byte	.LASF24
 408 012b 05       		.byte	0x5
 409 012c 27       		.byte	0x27
 410 012d B4000000 		.4byte	0xb4
 411 0131 03       		.uleb128 0x3
 412 0132 09080000 		.4byte	.LASF25
 413 0136 05       		.byte	0x5
 414 0137 28       		.byte	0x28
 415 0138 B4000000 		.4byte	0xb4
 416 013c 03       		.uleb128 0x3
 417 013d 3A000000 		.4byte	.LASF26
 418 0141 05       		.byte	0x5
 419 0142 29       		.byte	0x29
 420 0143 E9000000 		.4byte	0xe9
 421 0147 03       		.uleb128 0x3
 422 0148 EF070000 		.4byte	.LASF27
 423 014c 05       		.byte	0x5
 424 014d 2A       		.byte	0x2a
 425 014e D9000000 		.4byte	0xd9
 426 0152 03       		.uleb128 0x3
 427 0153 53020000 		.4byte	.LASF28
 428 0157 05       		.byte	0x5
 429 0158 2C       		.byte	0x2c
 430 0159 E9000000 		.4byte	0xe9
 431 015d 03       		.uleb128 0x3
 432 015e 0D070000 		.4byte	.LASF29
 433 0162 05       		.byte	0x5
 434 0163 2D       		.byte	0x2d
 435 0164 E9000000 		.4byte	0xe9
 436 0168 03       		.uleb128 0x3
 437 0169 1C000000 		.4byte	.LASF30
 438 016d 05       		.byte	0x5
 439 016e 2E       		.byte	0x2e
 440 016f E9000000 		.4byte	0xe9
 441 0173 05       		.uleb128 0x5
 442 0174 68010000 		.4byte	0x168
 443 0178 03       		.uleb128 0x3
 444 0179 0E090000 		.4byte	.LASF31
 445 017d 06       		.byte	0x6
 446 017e 23       		.byte	0x23
 447 017f 83010000 		.4byte	0x183
 448 0183 07       		.uleb128 0x7
 449 0184 0E090000 		.4byte	.LASF31
 450 0188 48       		.byte	0x48
 451 0189 07       		.byte	0x7
 452 018a 57       		.byte	0x57
 453 018b 80020000 		.4byte	0x280
 454 018f 08       		.uleb128 0x8
 455 0190 9E010000 		.4byte	.LASF32
 456 0194 07       		.byte	0x7
ARM GAS  /tmp/cc3pBf8T.s 			page 9


 457 0195 58       		.byte	0x58
 458 0196 A1020000 		.4byte	0x2a1
 459 019a 00       		.byte	0
 460 019b 08       		.uleb128 0x8
 461 019c C0010000 		.4byte	.LASF33
 462 01a0 07       		.byte	0x7
 463 01a1 5A       		.byte	0x5a
 464 01a2 A1020000 		.4byte	0x2a1
 465 01a6 04       		.byte	0x4
 466 01a7 08       		.uleb128 0x8
 467 01a8 EE020000 		.4byte	.LASF34
 468 01ac 07       		.byte	0x7
 469 01ad 5C       		.byte	0x5c
 470 01ae 3C010000 		.4byte	0x13c
 471 01b2 08       		.byte	0x8
 472 01b3 08       		.uleb128 0x8
 473 01b4 34000000 		.4byte	.LASF35
 474 01b8 07       		.byte	0x7
 475 01b9 5D       		.byte	0x5d
 476 01ba 66030000 		.4byte	0x366
 477 01be 0C       		.byte	0xc
 478 01bf 08       		.uleb128 0x8
 479 01c0 79010000 		.4byte	.LASF36
 480 01c4 07       		.byte	0x7
 481 01c5 5F       		.byte	0x5f
 482 01c6 A1020000 		.4byte	0x2a1
 483 01ca 10       		.byte	0x10
 484 01cb 08       		.uleb128 0x8
 485 01cc DE070000 		.4byte	.LASF37
 486 01d0 07       		.byte	0x7
 487 01d1 60       		.byte	0x60
 488 01d2 A1020000 		.4byte	0x2a1
 489 01d6 14       		.byte	0x14
 490 01d7 08       		.uleb128 0x8
 491 01d8 210A0000 		.4byte	.LASF38
 492 01dc 07       		.byte	0x7
 493 01dd 67       		.byte	0x67
 494 01de A3050000 		.4byte	0x5a3
 495 01e2 18       		.byte	0x18
 496 01e3 08       		.uleb128 0x8
 497 01e4 5C0A0000 		.4byte	.LASF39
 498 01e8 07       		.byte	0x7
 499 01e9 72       		.byte	0x72
 500 01ea 1B010000 		.4byte	0x11b
 501 01ee 1C       		.byte	0x1c
 502 01ef 08       		.uleb128 0x8
 503 01f0 94050000 		.4byte	.LASF40
 504 01f4 07       		.byte	0x7
 505 01f5 76       		.byte	0x76
 506 01f6 10010000 		.4byte	0x110
 507 01fa 1D       		.byte	0x1d
 508 01fb 08       		.uleb128 0x8
 509 01fc 2D060000 		.4byte	.LASF41
 510 0200 07       		.byte	0x7
 511 0201 7B       		.byte	0x7b
 512 0202 26010000 		.4byte	0x126
 513 0206 1E       		.byte	0x1e
ARM GAS  /tmp/cc3pBf8T.s 			page 10


 514 0207 08       		.uleb128 0x8
 515 0208 3C020000 		.4byte	.LASF42
 516 020c 07       		.byte	0x7
 517 020d 81       		.byte	0x81
 518 020e 31010000 		.4byte	0x131
 519 0212 1F       		.byte	0x1f
 520 0213 08       		.uleb128 0x8
 521 0214 19070000 		.4byte	.LASF43
 522 0218 07       		.byte	0x7
 523 0219 88       		.byte	0x88
 524 021a 73010000 		.4byte	0x173
 525 021e 20       		.byte	0x20
 526 021f 09       		.uleb128 0x9
 527 0220 705F7500 		.ascii	"p_u\000"
 528 0224 07       		.byte	0x7
 529 0225 AD       		.byte	0xad
 530 0226 6E050000 		.4byte	0x56e
 531 022a 24       		.byte	0x24
 532 022b 08       		.uleb128 0x8
 533 022c 84050000 		.4byte	.LASF44
 534 0230 07       		.byte	0x7
 535 0231 B2       		.byte	0xb2
 536 0232 C7020000 		.4byte	0x2c7
 537 0236 28       		.byte	0x28
 538 0237 08       		.uleb128 0x8
 539 0238 4B000000 		.4byte	.LASF45
 540 023c 07       		.byte	0x7
 541 023d B8       		.byte	0xb8
 542 023e A7020000 		.4byte	0x2a7
 543 0242 2C       		.byte	0x2c
 544 0243 08       		.uleb128 0x8
 545 0244 4A0A0000 		.4byte	.LASF46
 546 0248 07       		.byte	0x7
 547 0249 BC       		.byte	0xbc
 548 024a 47010000 		.4byte	0x147
 549 024e 34       		.byte	0x34
 550 024f 08       		.uleb128 0x8
 551 0250 B6030000 		.4byte	.LASF47
 552 0254 07       		.byte	0x7
 553 0255 C2       		.byte	0xc2
 554 0256 52010000 		.4byte	0x152
 555 025a 38       		.byte	0x38
 556 025b 08       		.uleb128 0x8
 557 025c F3010000 		.4byte	.LASF48
 558 0260 07       		.byte	0x7
 559 0261 C9       		.byte	0xc9
 560 0262 B5050000 		.4byte	0x5b5
 561 0266 3C       		.byte	0x3c
 562 0267 08       		.uleb128 0x8
 563 0268 6A070000 		.4byte	.LASF49
 564 026c 07       		.byte	0x7
 565 026d CD       		.byte	0xcd
 566 026e 3C010000 		.4byte	0x13c
 567 0272 40       		.byte	0x40
 568 0273 08       		.uleb128 0x8
 569 0274 05060000 		.4byte	.LASF50
 570 0278 07       		.byte	0x7
ARM GAS  /tmp/cc3pBf8T.s 			page 11


 571 0279 D3       		.byte	0xd3
 572 027a DD020000 		.4byte	0x2dd
 573 027e 44       		.byte	0x44
 574 027f 00       		.byte	0
 575 0280 0A       		.uleb128 0xa
 576 0281 08       		.byte	0x8
 577 0282 06       		.byte	0x6
 578 0283 5A       		.byte	0x5a
 579 0284 A1020000 		.4byte	0x2a1
 580 0288 08       		.uleb128 0x8
 581 0289 9E010000 		.4byte	.LASF32
 582 028d 06       		.byte	0x6
 583 028e 5B       		.byte	0x5b
 584 028f A1020000 		.4byte	0x2a1
 585 0293 00       		.byte	0
 586 0294 08       		.uleb128 0x8
 587 0295 C0010000 		.4byte	.LASF33
 588 0299 06       		.byte	0x6
 589 029a 5D       		.byte	0x5d
 590 029b A1020000 		.4byte	0x2a1
 591 029f 04       		.byte	0x4
 592 02a0 00       		.byte	0
 593 02a1 0B       		.uleb128 0xb
 594 02a2 04       		.byte	0x4
 595 02a3 78010000 		.4byte	0x178
 596 02a7 03       		.uleb128 0x3
 597 02a8 60090000 		.4byte	.LASF51
 598 02ac 06       		.byte	0x6
 599 02ad 5F       		.byte	0x5f
 600 02ae 80020000 		.4byte	0x280
 601 02b2 0A       		.uleb128 0xa
 602 02b3 04       		.byte	0x4
 603 02b4 06       		.byte	0x6
 604 02b5 64       		.byte	0x64
 605 02b6 C7020000 		.4byte	0x2c7
 606 02ba 08       		.uleb128 0x8
 607 02bb 9E010000 		.4byte	.LASF32
 608 02bf 06       		.byte	0x6
 609 02c0 66       		.byte	0x66
 610 02c1 A1020000 		.4byte	0x2a1
 611 02c5 00       		.byte	0
 612 02c6 00       		.byte	0
 613 02c7 03       		.uleb128 0x3
 614 02c8 FA060000 		.4byte	.LASF52
 615 02cc 06       		.byte	0x6
 616 02cd 69       		.byte	0x69
 617 02ce B2020000 		.4byte	0x2b2
 618 02d2 03       		.uleb128 0x3
 619 02d3 04020000 		.4byte	.LASF53
 620 02d7 08       		.byte	0x8
 621 02d8 DE       		.byte	0xde
 622 02d9 DD020000 		.4byte	0x2dd
 623 02dd 0C       		.uleb128 0xc
 624 02de 04       		.byte	0x4
 625 02df 03       		.uleb128 0x3
 626 02e0 26030000 		.4byte	.LASF54
 627 02e4 08       		.byte	0x8
ARM GAS  /tmp/cc3pBf8T.s 			page 12


 628 02e5 E4       		.byte	0xe4
 629 02e6 FE000000 		.4byte	0xfe
 630 02ea 0D       		.uleb128 0xd
 631 02eb AF030000 		.4byte	.LASF55
 632 02ef 24       		.byte	0x24
 633 02f0 08       		.byte	0x8
 634 02f1 0501     		.2byte	0x105
 635 02f3 66030000 		.4byte	0x366
 636 02f7 0E       		.uleb128 0xe
 637 02f8 723400   		.ascii	"r4\000"
 638 02fb 08       		.byte	0x8
 639 02fc 1801     		.2byte	0x118
 640 02fe D2020000 		.4byte	0x2d2
 641 0302 00       		.byte	0
 642 0303 0E       		.uleb128 0xe
 643 0304 723500   		.ascii	"r5\000"
 644 0307 08       		.byte	0x8
 645 0308 1901     		.2byte	0x119
 646 030a D2020000 		.4byte	0x2d2
 647 030e 04       		.byte	0x4
 648 030f 0E       		.uleb128 0xe
 649 0310 723600   		.ascii	"r6\000"
 650 0313 08       		.byte	0x8
 651 0314 1A01     		.2byte	0x11a
 652 0316 D2020000 		.4byte	0x2d2
 653 031a 08       		.byte	0x8
 654 031b 0E       		.uleb128 0xe
 655 031c 723700   		.ascii	"r7\000"
 656 031f 08       		.byte	0x8
 657 0320 1B01     		.2byte	0x11b
 658 0322 D2020000 		.4byte	0x2d2
 659 0326 0C       		.byte	0xc
 660 0327 0E       		.uleb128 0xe
 661 0328 723800   		.ascii	"r8\000"
 662 032b 08       		.byte	0x8
 663 032c 1C01     		.2byte	0x11c
 664 032e D2020000 		.4byte	0x2d2
 665 0332 10       		.byte	0x10
 666 0333 0E       		.uleb128 0xe
 667 0334 723900   		.ascii	"r9\000"
 668 0337 08       		.byte	0x8
 669 0338 1D01     		.2byte	0x11d
 670 033a D2020000 		.4byte	0x2d2
 671 033e 14       		.byte	0x14
 672 033f 0E       		.uleb128 0xe
 673 0340 72313000 		.ascii	"r10\000"
 674 0344 08       		.byte	0x8
 675 0345 1E01     		.2byte	0x11e
 676 0347 D2020000 		.4byte	0x2d2
 677 034b 18       		.byte	0x18
 678 034c 0E       		.uleb128 0xe
 679 034d 72313100 		.ascii	"r11\000"
 680 0351 08       		.byte	0x8
 681 0352 1F01     		.2byte	0x11f
 682 0354 D2020000 		.4byte	0x2d2
 683 0358 1C       		.byte	0x1c
 684 0359 0E       		.uleb128 0xe
ARM GAS  /tmp/cc3pBf8T.s 			page 13


 685 035a 6C7200   		.ascii	"lr\000"
 686 035d 08       		.byte	0x8
 687 035e 2001     		.2byte	0x120
 688 0360 D2020000 		.4byte	0x2d2
 689 0364 20       		.byte	0x20
 690 0365 00       		.byte	0
 691 0366 0D       		.uleb128 0xd
 692 0367 5F020000 		.4byte	.LASF56
 693 036b 04       		.byte	0x4
 694 036c 08       		.byte	0x8
 695 036d 2A01     		.2byte	0x12a
 696 036f 81030000 		.4byte	0x381
 697 0373 0E       		.uleb128 0xe
 698 0374 72313300 		.ascii	"r13\000"
 699 0378 08       		.byte	0x8
 700 0379 2B01     		.2byte	0x12b
 701 037b 81030000 		.4byte	0x381
 702 037f 00       		.byte	0
 703 0380 00       		.byte	0
 704 0381 0B       		.uleb128 0xb
 705 0382 04       		.byte	0x4
 706 0383 EA020000 		.4byte	0x2ea
 707 0387 04       		.uleb128 0x4
 708 0388 04       		.byte	0x4
 709 0389 07       		.byte	0x7
 710 038a 07000000 		.4byte	.LASF57
 711 038e 03       		.uleb128 0x3
 712 038f 76000000 		.4byte	.LASF58
 713 0393 09       		.byte	0x9
 714 0394 51       		.byte	0x51
 715 0395 99030000 		.4byte	0x399
 716 0399 0B       		.uleb128 0xb
 717 039a 04       		.byte	0x4
 718 039b 9F030000 		.4byte	0x39f
 719 039f 0F       		.uleb128 0xf
 720 03a0 AA030000 		.4byte	0x3aa
 721 03a4 10       		.uleb128 0x10
 722 03a5 DD020000 		.4byte	0x2dd
 723 03a9 00       		.byte	0
 724 03aa 03       		.uleb128 0x3
 725 03ab 53090000 		.4byte	.LASF59
 726 03af 09       		.byte	0x9
 727 03b0 56       		.byte	0x56
 728 03b1 B5030000 		.4byte	0x3b5
 729 03b5 07       		.uleb128 0x7
 730 03b6 53090000 		.4byte	.LASF59
 731 03ba 14       		.byte	0x14
 732 03bb 09       		.byte	0x9
 733 03bc 5D       		.byte	0x5d
 734 03bd FE030000 		.4byte	0x3fe
 735 03c1 08       		.uleb128 0x8
 736 03c2 3D050000 		.4byte	.LASF60
 737 03c6 09       		.byte	0x9
 738 03c7 5E       		.byte	0x5e
 739 03c8 FE030000 		.4byte	0x3fe
 740 03cc 00       		.byte	0
 741 03cd 08       		.uleb128 0x8
ARM GAS  /tmp/cc3pBf8T.s 			page 14


 742 03ce A8020000 		.4byte	.LASF61
 743 03d2 09       		.byte	0x9
 744 03d3 60       		.byte	0x60
 745 03d4 FE030000 		.4byte	0x3fe
 746 03d8 04       		.byte	0x4
 747 03d9 08       		.uleb128 0x8
 748 03da 280A0000 		.4byte	.LASF62
 749 03de 09       		.byte	0x9
 750 03df 62       		.byte	0x62
 751 03e0 68010000 		.4byte	0x168
 752 03e4 08       		.byte	0x8
 753 03e5 08       		.uleb128 0x8
 754 03e6 A7030000 		.4byte	.LASF63
 755 03ea 09       		.byte	0x9
 756 03eb 63       		.byte	0x63
 757 03ec 8E030000 		.4byte	0x38e
 758 03f0 0C       		.byte	0xc
 759 03f1 08       		.uleb128 0x8
 760 03f2 12010000 		.4byte	.LASF64
 761 03f6 09       		.byte	0x9
 762 03f7 65       		.byte	0x65
 763 03f8 DD020000 		.4byte	0x2dd
 764 03fc 10       		.byte	0x10
 765 03fd 00       		.byte	0
 766 03fe 0B       		.uleb128 0xb
 767 03ff 04       		.byte	0x4
 768 0400 AA030000 		.4byte	0x3aa
 769 0404 0A       		.uleb128 0xa
 770 0405 10       		.byte	0x10
 771 0406 09       		.byte	0x9
 772 0407 6F       		.byte	0x6f
 773 0408 3D040000 		.4byte	0x43d
 774 040c 08       		.uleb128 0x8
 775 040d 3D050000 		.4byte	.LASF60
 776 0411 09       		.byte	0x9
 777 0412 70       		.byte	0x70
 778 0413 FE030000 		.4byte	0x3fe
 779 0417 00       		.byte	0
 780 0418 08       		.uleb128 0x8
 781 0419 A8020000 		.4byte	.LASF61
 782 041d 09       		.byte	0x9
 783 041e 72       		.byte	0x72
 784 041f FE030000 		.4byte	0x3fe
 785 0423 04       		.byte	0x4
 786 0424 08       		.uleb128 0x8
 787 0425 280A0000 		.4byte	.LASF62
 788 0429 09       		.byte	0x9
 789 042a 74       		.byte	0x74
 790 042b 68010000 		.4byte	0x168
 791 042f 08       		.byte	0x8
 792 0430 08       		.uleb128 0x8
 793 0431 8F080000 		.4byte	.LASF65
 794 0435 09       		.byte	0x9
 795 0436 75       		.byte	0x75
 796 0437 73010000 		.4byte	0x173
 797 043b 0C       		.byte	0xc
 798 043c 00       		.byte	0
ARM GAS  /tmp/cc3pBf8T.s 			page 15


 799 043d 03       		.uleb128 0x3
 800 043e 36080000 		.4byte	.LASF66
 801 0442 09       		.byte	0x9
 802 0443 76       		.byte	0x76
 803 0444 04040000 		.4byte	0x404
 804 0448 11       		.uleb128 0x11
 805 0449 15090000 		.4byte	.LASF74
 806 044d 09       		.byte	0x9
 807 044e EE       		.byte	0xee
 808 044f 3D040000 		.4byte	0x43d
 809 0453 0A       		.uleb128 0xa
 810 0454 1C       		.byte	0x1c
 811 0455 0A       		.byte	0xa
 812 0456 57       		.byte	0x57
 813 0457 A4040000 		.4byte	0x4a4
 814 045b 08       		.uleb128 0x8
 815 045c 53080000 		.4byte	.LASF67
 816 0460 0A       		.byte	0xa
 817 0461 58       		.byte	0x58
 818 0462 A7020000 		.4byte	0x2a7
 819 0466 00       		.byte	0
 820 0467 08       		.uleb128 0x8
 821 0468 DB080000 		.4byte	.LASF68
 822 046c 0A       		.byte	0xa
 823 046d 59       		.byte	0x59
 824 046e 3C010000 		.4byte	0x13c
 825 0472 08       		.byte	0x8
 826 0473 08       		.uleb128 0x8
 827 0474 56000000 		.4byte	.LASF69
 828 0478 0A       		.byte	0xa
 829 0479 5B       		.byte	0x5b
 830 047a 66030000 		.4byte	0x366
 831 047e 0C       		.byte	0xc
 832 047f 08       		.uleb128 0x8
 833 0480 B0020000 		.4byte	.LASF70
 834 0484 0A       		.byte	0xa
 835 0485 5E       		.byte	0x5e
 836 0486 A1020000 		.4byte	0x2a1
 837 048a 10       		.byte	0x10
 838 048b 08       		.uleb128 0x8
 839 048c A3080000 		.4byte	.LASF71
 840 0490 0A       		.byte	0xa
 841 0491 5F       		.byte	0x5f
 842 0492 A1020000 		.4byte	0x2a1
 843 0496 14       		.byte	0x14
 844 0497 08       		.uleb128 0x8
 845 0498 2C080000 		.4byte	.LASF72
 846 049c 0A       		.byte	0xa
 847 049d 62       		.byte	0x62
 848 049e A1020000 		.4byte	0x2a1
 849 04a2 18       		.byte	0x18
 850 04a3 00       		.byte	0
 851 04a4 03       		.uleb128 0x3
 852 04a5 030A0000 		.4byte	.LASF73
 853 04a9 0A       		.byte	0xa
 854 04aa 64       		.byte	0x64
 855 04ab 53040000 		.4byte	0x453
ARM GAS  /tmp/cc3pBf8T.s 			page 16


 856 04af 11       		.uleb128 0x11
 857 04b0 72080000 		.4byte	.LASF75
 858 04b4 0A       		.byte	0xa
 859 04b5 68       		.byte	0x68
 860 04b6 A4040000 		.4byte	0x4a4
 861 04ba 07       		.uleb128 0x7
 862 04bb 02050000 		.4byte	.LASF76
 863 04bf 10       		.byte	0x10
 864 04c0 0B       		.byte	0xb
 865 04c1 25       		.byte	0x25
 866 04c2 EB040000 		.4byte	0x4eb
 867 04c6 08       		.uleb128 0x8
 868 04c7 2B050000 		.4byte	.LASF77
 869 04cb 0B       		.byte	0xb
 870 04cc 26       		.byte	0x26
 871 04cd A7020000 		.4byte	0x2a7
 872 04d1 00       		.byte	0
 873 04d2 08       		.uleb128 0x8
 874 04d3 0A010000 		.4byte	.LASF78
 875 04d7 0B       		.byte	0xb
 876 04d8 28       		.byte	0x28
 877 04d9 A1020000 		.4byte	0x2a1
 878 04dd 08       		.byte	0x8
 879 04de 08       		.uleb128 0x8
 880 04df 350A0000 		.4byte	.LASF79
 881 04e3 0B       		.byte	0xb
 882 04e4 2A       		.byte	0x2a
 883 04e5 EB040000 		.4byte	0x4eb
 884 04e9 0C       		.byte	0xc
 885 04ea 00       		.byte	0
 886 04eb 0B       		.uleb128 0xb
 887 04ec 04       		.byte	0x4
 888 04ed BA040000 		.4byte	0x4ba
 889 04f1 03       		.uleb128 0x3
 890 04f2 02050000 		.4byte	.LASF76
 891 04f6 0B       		.byte	0xb
 892 04f7 2C       		.byte	0x2c
 893 04f8 BA040000 		.4byte	0x4ba
 894 04fc 03       		.uleb128 0x3
 895 04fd 3C090000 		.4byte	.LASF80
 896 0501 0C       		.byte	0xc
 897 0502 25       		.byte	0x25
 898 0503 07050000 		.4byte	0x507
 899 0507 07       		.uleb128 0x7
 900 0508 3C090000 		.4byte	.LASF80
 901 050c 10       		.byte	0x10
 902 050d 0C       		.byte	0xc
 903 050e 2A       		.byte	0x2a
 904 050f 44050000 		.4byte	0x544
 905 0513 08       		.uleb128 0x8
 906 0514 57040000 		.4byte	.LASF81
 907 0518 0C       		.byte	0xc
 908 0519 2B       		.byte	0x2b
 909 051a 44050000 		.4byte	0x544
 910 051e 00       		.byte	0
 911 051f 08       		.uleb128 0x8
 912 0520 500A0000 		.4byte	.LASF82
ARM GAS  /tmp/cc3pBf8T.s 			page 17


 913 0524 0C       		.byte	0xc
 914 0525 2E       		.byte	0x2e
 915 0526 A1020000 		.4byte	0x2a1
 916 052a 04       		.byte	0x4
 917 052b 08       		.uleb128 0x8
 918 052c FB090000 		.4byte	.LASF83
 919 0530 0C       		.byte	0xc
 920 0531 30       		.byte	0x30
 921 0532 52010000 		.4byte	0x152
 922 0536 08       		.byte	0x8
 923 0537 08       		.uleb128 0x8
 924 0538 A5000000 		.4byte	.LASF84
 925 053c 0C       		.byte	0xc
 926 053d 33       		.byte	0x33
 927 053e 5D010000 		.4byte	0x15d
 928 0542 0C       		.byte	0xc
 929 0543 00       		.byte	0
 930 0544 0B       		.uleb128 0xb
 931 0545 04       		.byte	0x4
 932 0546 FC040000 		.4byte	0x4fc
 933 054a 07       		.uleb128 0x7
 934 054b F3030000 		.4byte	.LASF85
 935 054f 04       		.byte	0x4
 936 0550 0C       		.byte	0xc
 937 0551 3A       		.byte	0x3a
 938 0552 63050000 		.4byte	0x563
 939 0556 08       		.uleb128 0x8
 940 0557 C1030000 		.4byte	.LASF86
 941 055b 0C       		.byte	0xc
 942 055c 3B       		.byte	0x3b
 943 055d 44050000 		.4byte	0x544
 944 0561 00       		.byte	0
 945 0562 00       		.byte	0
 946 0563 03       		.uleb128 0x3
 947 0564 F3030000 		.4byte	.LASF85
 948 0568 0C       		.byte	0xc
 949 0569 3E       		.byte	0x3e
 950 056a 4A050000 		.4byte	0x54a
 951 056e 12       		.uleb128 0x12
 952 056f 04       		.byte	0x4
 953 0570 07       		.byte	0x7
 954 0571 8F       		.byte	0x8f
 955 0572 A3050000 		.4byte	0x5a3
 956 0576 13       		.uleb128 0x13
 957 0577 8B090000 		.4byte	.LASF87
 958 057b 07       		.byte	0x7
 959 057c 96       		.byte	0x96
 960 057d 47010000 		.4byte	0x147
 961 0581 13       		.uleb128 0x13
 962 0582 20010000 		.4byte	.LASF88
 963 0586 07       		.byte	0x7
 964 0587 9D       		.byte	0x9d
 965 0588 47010000 		.4byte	0x147
 966 058c 13       		.uleb128 0x13
 967 058d 0D030000 		.4byte	.LASF89
 968 0591 07       		.byte	0x7
 969 0592 A4       		.byte	0xa4
ARM GAS  /tmp/cc3pBf8T.s 			page 18


 970 0593 DD020000 		.4byte	0x2dd
 971 0597 13       		.uleb128 0x13
 972 0598 43010000 		.4byte	.LASF90
 973 059c 07       		.byte	0x7
 974 059d AB       		.byte	0xab
 975 059e 52010000 		.4byte	0x152
 976 05a2 00       		.byte	0
 977 05a3 0B       		.uleb128 0xb
 978 05a4 04       		.byte	0x4
 979 05a5 B0050000 		.4byte	0x5b0
 980 05a9 04       		.uleb128 0x4
 981 05aa 01       		.byte	0x1
 982 05ab 08       		.byte	0x8
 983 05ac D8020000 		.4byte	.LASF91
 984 05b0 06       		.uleb128 0x6
 985 05b1 A9050000 		.4byte	0x5a9
 986 05b5 0B       		.uleb128 0xb
 987 05b6 04       		.byte	0x4
 988 05b7 F1040000 		.4byte	0x4f1
 989 05bb 0B       		.uleb128 0xb
 990 05bc 04       		.byte	0x4
 991 05bd C1050000 		.4byte	0x5c1
 992 05c1 14       		.uleb128 0x14
 993 05c2 47010000 		.4byte	0x147
 994 05c6 D0050000 		.4byte	0x5d0
 995 05ca 10       		.uleb128 0x10
 996 05cb DD020000 		.4byte	0x2dd
 997 05cf 00       		.byte	0
 998 05d0 0A       		.uleb128 0xa
 999 05d1 16       		.byte	0x16
 1000 05d2 0D       		.byte	0xd
 1001 05d3 25       		.byte	0x25
 1002 05d4 B1060000 		.4byte	0x6b1
 1003 05d8 08       		.uleb128 0x8
 1004 05d9 26000000 		.4byte	.LASF92
 1005 05dd 0D       		.byte	0xd
 1006 05de 26       		.byte	0x26
 1007 05df B1060000 		.4byte	0x6b1
 1008 05e3 00       		.byte	0
 1009 05e4 08       		.uleb128 0x8
 1010 05e5 1C040000 		.4byte	.LASF93
 1011 05e9 0D       		.byte	0xd
 1012 05ea 27       		.byte	0x27
 1013 05eb B4000000 		.4byte	0xb4
 1014 05ef 04       		.byte	0x4
 1015 05f0 08       		.uleb128 0x8
 1016 05f1 CE090000 		.4byte	.LASF94
 1017 05f5 0D       		.byte	0xd
 1018 05f6 28       		.byte	0x28
 1019 05f7 B4000000 		.4byte	0xb4
 1020 05fb 05       		.byte	0x5
 1021 05fc 08       		.uleb128 0x8
 1022 05fd 20050000 		.4byte	.LASF95
 1023 0601 0D       		.byte	0xd
 1024 0602 29       		.byte	0x29
 1025 0603 C9000000 		.4byte	0xc9
 1026 0607 06       		.byte	0x6
ARM GAS  /tmp/cc3pBf8T.s 			page 19


 1027 0608 08       		.uleb128 0x8
 1028 0609 D7000000 		.4byte	.LASF96
 1029 060d 0D       		.byte	0xd
 1030 060e 2A       		.byte	0x2a
 1031 060f B4000000 		.4byte	0xb4
 1032 0613 08       		.byte	0x8
 1033 0614 08       		.uleb128 0x8
 1034 0615 46060000 		.4byte	.LASF97
 1035 0619 0D       		.byte	0xd
 1036 061a 2B       		.byte	0x2b
 1037 061b B4000000 		.4byte	0xb4
 1038 061f 09       		.byte	0x9
 1039 0620 08       		.uleb128 0x8
 1040 0621 4A010000 		.4byte	.LASF98
 1041 0625 0D       		.byte	0xd
 1042 0626 2C       		.byte	0x2c
 1043 0627 B4000000 		.4byte	0xb4
 1044 062b 0A       		.byte	0xa
 1045 062c 08       		.uleb128 0x8
 1046 062d 65030000 		.4byte	.LASF99
 1047 0631 0D       		.byte	0xd
 1048 0632 2D       		.byte	0x2d
 1049 0633 B4000000 		.4byte	0xb4
 1050 0637 0B       		.byte	0xb
 1051 0638 08       		.uleb128 0x8
 1052 0639 6B000000 		.4byte	.LASF100
 1053 063d 0D       		.byte	0xd
 1054 063e 2E       		.byte	0x2e
 1055 063f B4000000 		.4byte	0xb4
 1056 0643 0C       		.byte	0xc
 1057 0644 08       		.uleb128 0x8
 1058 0645 14030000 		.4byte	.LASF101
 1059 0649 0D       		.byte	0xd
 1060 064a 2F       		.byte	0x2f
 1061 064b B4000000 		.4byte	0xb4
 1062 064f 0D       		.byte	0xd
 1063 0650 08       		.uleb128 0x8
 1064 0651 F7080000 		.4byte	.LASF102
 1065 0655 0D       		.byte	0xd
 1066 0656 30       		.byte	0x30
 1067 0657 B4000000 		.4byte	0xb4
 1068 065b 0E       		.byte	0xe
 1069 065c 08       		.uleb128 0x8
 1070 065d 10000000 		.4byte	.LASF103
 1071 0661 0D       		.byte	0xd
 1072 0662 31       		.byte	0x31
 1073 0663 B4000000 		.4byte	0xb4
 1074 0667 0F       		.byte	0xf
 1075 0668 08       		.uleb128 0x8
 1076 0669 BC050000 		.4byte	.LASF104
 1077 066d 0D       		.byte	0xd
 1078 066e 32       		.byte	0x32
 1079 066f B4000000 		.4byte	0xb4
 1080 0673 10       		.byte	0x10
 1081 0674 08       		.uleb128 0x8
 1082 0675 B3010000 		.4byte	.LASF105
 1083 0679 0D       		.byte	0xd
ARM GAS  /tmp/cc3pBf8T.s 			page 20


 1084 067a 34       		.byte	0x34
 1085 067b B4000000 		.4byte	0xb4
 1086 067f 11       		.byte	0x11
 1087 0680 08       		.uleb128 0x8
 1088 0681 FC070000 		.4byte	.LASF106
 1089 0685 0D       		.byte	0xd
 1090 0686 35       		.byte	0x35
 1091 0687 B4000000 		.4byte	0xb4
 1092 068b 12       		.byte	0x12
 1093 068c 08       		.uleb128 0x8
 1094 068d 27070000 		.4byte	.LASF107
 1095 0691 0D       		.byte	0xd
 1096 0692 36       		.byte	0x36
 1097 0693 B4000000 		.4byte	0xb4
 1098 0697 13       		.byte	0x13
 1099 0698 08       		.uleb128 0x8
 1100 0699 D8040000 		.4byte	.LASF108
 1101 069d 0D       		.byte	0xd
 1102 069e 37       		.byte	0x37
 1103 069f B4000000 		.4byte	0xb4
 1104 06a3 14       		.byte	0x14
 1105 06a4 08       		.uleb128 0x8
 1106 06a5 75070000 		.4byte	.LASF109
 1107 06a9 0D       		.byte	0xd
 1108 06aa 39       		.byte	0x39
 1109 06ab B4000000 		.4byte	0xb4
 1110 06af 15       		.byte	0x15
 1111 06b0 00       		.byte	0
 1112 06b1 15       		.uleb128 0x15
 1113 06b2 A9050000 		.4byte	0x5a9
 1114 06b6 C1060000 		.4byte	0x6c1
 1115 06ba 16       		.uleb128 0x16
 1116 06bb 87030000 		.4byte	0x387
 1117 06bf 03       		.byte	0x3
 1118 06c0 00       		.byte	0
 1119 06c1 03       		.uleb128 0x3
 1120 06c2 AE090000 		.4byte	.LASF110
 1121 06c6 0D       		.byte	0xd
 1122 06c7 3A       		.byte	0x3a
 1123 06c8 D0050000 		.4byte	0x5d0
 1124 06cc 06       		.uleb128 0x6
 1125 06cd C1060000 		.4byte	0x6c1
 1126 06d1 11       		.uleb128 0x11
 1127 06d2 42000000 		.4byte	.LASF111
 1128 06d6 0D       		.byte	0xd
 1129 06d7 77       		.byte	0x77
 1130 06d8 CC060000 		.4byte	0x6cc
 1131 06dc 03       		.uleb128 0x3
 1132 06dd 00030000 		.4byte	.LASF112
 1133 06e1 0E       		.byte	0xe
 1134 06e2 30       		.byte	0x30
 1135 06e3 E7060000 		.4byte	0x6e7
 1136 06e7 07       		.uleb128 0x7
 1137 06e8 00030000 		.4byte	.LASF112
 1138 06ec 24       		.byte	0x24
 1139 06ed 0E       		.byte	0xe
 1140 06ee 3E       		.byte	0x3e
ARM GAS  /tmp/cc3pBf8T.s 			page 21


 1141 06ef 54070000 		.4byte	0x754
 1142 06f3 08       		.uleb128 0x8
 1143 06f4 68080000 		.4byte	.LASF113
 1144 06f8 0E       		.byte	0xe
 1145 06f9 3F       		.byte	0x3f
 1146 06fa A7020000 		.4byte	0x2a7
 1147 06fe 00       		.byte	0
 1148 06ff 08       		.uleb128 0x8
 1149 0700 C9030000 		.4byte	.LASF114
 1150 0704 0E       		.byte	0xe
 1151 0705 40       		.byte	0x40
 1152 0706 2C000000 		.4byte	0x2c
 1153 070a 08       		.byte	0x8
 1154 070b 08       		.uleb128 0x8
 1155 070c 5E010000 		.4byte	.LASF115
 1156 0710 0E       		.byte	0xe
 1157 0711 41       		.byte	0x41
 1158 0712 76070000 		.4byte	0x776
 1159 0716 0C       		.byte	0xc
 1160 0717 08       		.uleb128 0x8
 1161 0718 33010000 		.4byte	.LASF116
 1162 071c 0E       		.byte	0xe
 1163 071d 42       		.byte	0x42
 1164 071e 76070000 		.4byte	0x776
 1165 0722 10       		.byte	0x10
 1166 0723 08       		.uleb128 0x8
 1167 0724 5F040000 		.4byte	.LASF117
 1168 0728 0E       		.byte	0xe
 1169 0729 44       		.byte	0x44
 1170 072a 76070000 		.4byte	0x776
 1171 072e 14       		.byte	0x14
 1172 072f 08       		.uleb128 0x8
 1173 0730 A5010000 		.4byte	.LASF118
 1174 0734 0E       		.byte	0xe
 1175 0735 45       		.byte	0x45
 1176 0736 76070000 		.4byte	0x776
 1177 073a 18       		.byte	0x18
 1178 073b 08       		.uleb128 0x8
 1179 073c 70010000 		.4byte	.LASF119
 1180 0740 0E       		.byte	0xe
 1181 0741 46       		.byte	0x46
 1182 0742 54070000 		.4byte	0x754
 1183 0746 1C       		.byte	0x1c
 1184 0747 08       		.uleb128 0x8
 1185 0748 93020000 		.4byte	.LASF120
 1186 074c 0E       		.byte	0xe
 1187 074d 47       		.byte	0x47
 1188 074e DD020000 		.4byte	0x2dd
 1189 0752 20       		.byte	0x20
 1190 0753 00       		.byte	0
 1191 0754 03       		.uleb128 0x3
 1192 0755 6E050000 		.4byte	.LASF121
 1193 0759 0E       		.byte	0xe
 1194 075a 33       		.byte	0x33
 1195 075b 5F070000 		.4byte	0x75f
 1196 075f 0B       		.uleb128 0xb
 1197 0760 04       		.byte	0x4
ARM GAS  /tmp/cc3pBf8T.s 			page 22


 1198 0761 65070000 		.4byte	0x765
 1199 0765 0F       		.uleb128 0xf
 1200 0766 70070000 		.4byte	0x770
 1201 076a 10       		.uleb128 0x10
 1202 076b 70070000 		.4byte	0x770
 1203 076f 00       		.byte	0
 1204 0770 0B       		.uleb128 0xb
 1205 0771 04       		.byte	0x4
 1206 0772 DC060000 		.4byte	0x6dc
 1207 0776 0B       		.uleb128 0xb
 1208 0777 04       		.byte	0x4
 1209 0778 B4000000 		.4byte	0xb4
 1210 077c 03       		.uleb128 0x3
 1211 077d C3090000 		.4byte	.LASF122
 1212 0781 0E       		.byte	0xe
 1213 0782 7B       		.byte	0x7b
 1214 0783 DC060000 		.4byte	0x6dc
 1215 0787 03       		.uleb128 0x3
 1216 0788 49030000 		.4byte	.LASF123
 1217 078c 0E       		.byte	0xe
 1218 078d EE       		.byte	0xee
 1219 078e DC060000 		.4byte	0x6dc
 1220 0792 14       		.uleb128 0x14
 1221 0793 2C000000 		.4byte	0x2c
 1222 0797 AB070000 		.4byte	0x7ab
 1223 079b 10       		.uleb128 0x10
 1224 079c DD020000 		.4byte	0x2dd
 1225 07a0 10       		.uleb128 0x10
 1226 07a1 AB070000 		.4byte	0x7ab
 1227 07a5 10       		.uleb128 0x10
 1228 07a6 2C000000 		.4byte	0x2c
 1229 07aa 00       		.byte	0
 1230 07ab 0B       		.uleb128 0xb
 1231 07ac 04       		.byte	0x4
 1232 07ad C4000000 		.4byte	0xc4
 1233 07b1 0B       		.uleb128 0xb
 1234 07b2 04       		.byte	0x4
 1235 07b3 92070000 		.4byte	0x792
 1236 07b7 14       		.uleb128 0x14
 1237 07b8 2C000000 		.4byte	0x2c
 1238 07bc D0070000 		.4byte	0x7d0
 1239 07c0 10       		.uleb128 0x10
 1240 07c1 DD020000 		.4byte	0x2dd
 1241 07c5 10       		.uleb128 0x10
 1242 07c6 76070000 		.4byte	0x776
 1243 07ca 10       		.uleb128 0x10
 1244 07cb 2C000000 		.4byte	0x2c
 1245 07cf 00       		.byte	0
 1246 07d0 0B       		.uleb128 0xb
 1247 07d1 04       		.byte	0x4
 1248 07d2 B7070000 		.4byte	0x7b7
 1249 07d6 14       		.uleb128 0x14
 1250 07d7 47010000 		.4byte	0x147
 1251 07db EA070000 		.4byte	0x7ea
 1252 07df 10       		.uleb128 0x10
 1253 07e0 DD020000 		.4byte	0x2dd
 1254 07e4 10       		.uleb128 0x10
ARM GAS  /tmp/cc3pBf8T.s 			page 23


 1255 07e5 B4000000 		.4byte	0xb4
 1256 07e9 00       		.byte	0
 1257 07ea 0B       		.uleb128 0xb
 1258 07eb 04       		.byte	0x4
 1259 07ec D6070000 		.4byte	0x7d6
 1260 07f0 15       		.uleb128 0x15
 1261 07f1 DF020000 		.4byte	0x2df
 1262 07f5 00080000 		.4byte	0x800
 1263 07f9 16       		.uleb128 0x16
 1264 07fa 87030000 		.4byte	0x387
 1265 07fe 17       		.byte	0x17
 1266 07ff 00       		.byte	0
 1267 0800 11       		.uleb128 0x11
 1268 0801 2C090000 		.4byte	.LASF124
 1269 0805 0F       		.byte	0xf
 1270 0806 82       		.byte	0x82
 1271 0807 F0070000 		.4byte	0x7f0
 1272 080b 15       		.uleb128 0x15
 1273 080c E9000000 		.4byte	0xe9
 1274 0810 1B080000 		.4byte	0x81b
 1275 0814 16       		.uleb128 0x16
 1276 0815 87030000 		.4byte	0x387
 1277 0819 01       		.byte	0x1
 1278 081a 00       		.byte	0
 1279 081b 17       		.uleb128 0x17
 1280 081c 57050000 		.4byte	.LASF125
 1281 0820 10       		.byte	0x10
 1282 0821 0706     		.2byte	0x607
 1283 0823 E4000000 		.4byte	0xe4
 1284 0827 11       		.uleb128 0x11
 1285 0828 34040000 		.4byte	.LASF126
 1286 082c 11       		.byte	0x11
 1287 082d 23       		.byte	0x23
 1288 082e E9000000 		.4byte	0xe9
 1289 0832 15       		.uleb128 0x15
 1290 0833 E9000000 		.4byte	0xe9
 1291 0837 42080000 		.4byte	0x842
 1292 083b 16       		.uleb128 0x16
 1293 083c 87030000 		.4byte	0x387
 1294 0840 0B       		.byte	0xb
 1295 0841 00       		.byte	0
 1296 0842 0A       		.uleb128 0xa
 1297 0843 04       		.byte	0x4
 1298 0844 12       		.byte	0x12
 1299 0845 C7       		.byte	0xc7
 1300 0846 63080000 		.4byte	0x863
 1301 084a 08       		.uleb128 0x8
 1302 084b EF040000 		.4byte	.LASF127
 1303 084f 12       		.byte	0x12
 1304 0850 C8       		.byte	0xc8
 1305 0851 D4000000 		.4byte	0xd4
 1306 0855 00       		.byte	0
 1307 0856 08       		.uleb128 0x8
 1308 0857 E7040000 		.4byte	.LASF128
 1309 085b 12       		.byte	0x12
 1310 085c C9       		.byte	0xc9
 1311 085d D4000000 		.4byte	0xd4
ARM GAS  /tmp/cc3pBf8T.s 			page 24


 1312 0861 02       		.byte	0x2
 1313 0862 00       		.byte	0
 1314 0863 0A       		.uleb128 0xa
 1315 0864 04       		.byte	0x4
 1316 0865 12       		.byte	0x12
 1317 0866 CB       		.byte	0xcb
 1318 0867 9C080000 		.4byte	0x89c
 1319 086b 08       		.uleb128 0x8
 1320 086c B8040000 		.4byte	.LASF129
 1321 0870 12       		.byte	0x12
 1322 0871 CC       		.byte	0xcc
 1323 0872 BF000000 		.4byte	0xbf
 1324 0876 00       		.byte	0
 1325 0877 08       		.uleb128 0x8
 1326 0878 C0040000 		.4byte	.LASF130
 1327 087c 12       		.byte	0x12
 1328 087d CD       		.byte	0xcd
 1329 087e BF000000 		.4byte	0xbf
 1330 0882 01       		.byte	0x1
 1331 0883 08       		.uleb128 0x8
 1332 0884 C8040000 		.4byte	.LASF131
 1333 0888 12       		.byte	0x12
 1334 0889 CE       		.byte	0xce
 1335 088a BF000000 		.4byte	0xbf
 1336 088e 02       		.byte	0x2
 1337 088f 08       		.uleb128 0x8
 1338 0890 D0040000 		.4byte	.LASF132
 1339 0894 12       		.byte	0x12
 1340 0895 CF       		.byte	0xcf
 1341 0896 BF000000 		.4byte	0xbf
 1342 089a 03       		.byte	0x3
 1343 089b 00       		.byte	0
 1344 089c 12       		.uleb128 0x12
 1345 089d 04       		.byte	0x4
 1346 089e 12       		.byte	0x12
 1347 089f C5       		.byte	0xc5
 1348 08a0 BA080000 		.4byte	0x8ba
 1349 08a4 13       		.uleb128 0x13
 1350 08a5 20070000 		.4byte	.LASF133
 1351 08a9 12       		.byte	0x12
 1352 08aa C6       		.byte	0xc6
 1353 08ab F4000000 		.4byte	0xf4
 1354 08af 18       		.uleb128 0x18
 1355 08b0 42080000 		.4byte	0x842
 1356 08b4 18       		.uleb128 0x18
 1357 08b5 63080000 		.4byte	0x863
 1358 08b9 00       		.byte	0
 1359 08ba 0A       		.uleb128 0xa
 1360 08bb 04       		.byte	0x4
 1361 08bc 12       		.byte	0x12
 1362 08bd D5       		.byte	0xd5
 1363 08be DB080000 		.4byte	0x8db
 1364 08c2 08       		.uleb128 0x8
 1365 08c3 3D060000 		.4byte	.LASF134
 1366 08c7 12       		.byte	0x12
 1367 08c8 D6       		.byte	0xd6
 1368 08c9 D4000000 		.4byte	0xd4
ARM GAS  /tmp/cc3pBf8T.s 			page 25


 1369 08cd 00       		.byte	0
 1370 08ce 08       		.uleb128 0x8
 1371 08cf 34060000 		.4byte	.LASF135
 1372 08d3 12       		.byte	0x12
 1373 08d4 D7       		.byte	0xd7
 1374 08d5 D4000000 		.4byte	0xd4
 1375 08d9 02       		.byte	0x2
 1376 08da 00       		.byte	0
 1377 08db 0A       		.uleb128 0xa
 1378 08dc 04       		.byte	0x4
 1379 08dd 12       		.byte	0x12
 1380 08de D9       		.byte	0xd9
 1381 08df 14090000 		.4byte	0x914
 1382 08e3 08       		.uleb128 0x8
 1383 08e4 E1050000 		.4byte	.LASF136
 1384 08e8 12       		.byte	0x12
 1385 08e9 DA       		.byte	0xda
 1386 08ea BF000000 		.4byte	0xbf
 1387 08ee 00       		.byte	0
 1388 08ef 08       		.uleb128 0x8
 1389 08f0 EA050000 		.4byte	.LASF137
 1390 08f4 12       		.byte	0x12
 1391 08f5 DB       		.byte	0xdb
 1392 08f6 BF000000 		.4byte	0xbf
 1393 08fa 01       		.byte	0x1
 1394 08fb 08       		.uleb128 0x8
 1395 08fc F3050000 		.4byte	.LASF138
 1396 0900 12       		.byte	0x12
 1397 0901 DC       		.byte	0xdc
 1398 0902 BF000000 		.4byte	0xbf
 1399 0906 02       		.byte	0x2
 1400 0907 08       		.uleb128 0x8
 1401 0908 FC050000 		.4byte	.LASF139
 1402 090c 12       		.byte	0x12
 1403 090d DD       		.byte	0xdd
 1404 090e BF000000 		.4byte	0xbf
 1405 0912 03       		.byte	0x3
 1406 0913 00       		.byte	0
 1407 0914 12       		.uleb128 0x12
 1408 0915 04       		.byte	0x4
 1409 0916 12       		.byte	0x12
 1410 0917 D3       		.byte	0xd3
 1411 0918 32090000 		.4byte	0x932
 1412 091c 13       		.uleb128 0x13
 1413 091d 95040000 		.4byte	.LASF140
 1414 0921 12       		.byte	0x12
 1415 0922 D4       		.byte	0xd4
 1416 0923 F4000000 		.4byte	0xf4
 1417 0927 18       		.uleb128 0x18
 1418 0928 BA080000 		.4byte	0x8ba
 1419 092c 18       		.uleb128 0x18
 1420 092d DB080000 		.4byte	0x8db
 1421 0931 00       		.byte	0
 1422 0932 0A       		.uleb128 0xa
 1423 0933 04       		.byte	0x4
 1424 0934 12       		.byte	0x12
 1425 0935 E2       		.byte	0xe2
ARM GAS  /tmp/cc3pBf8T.s 			page 26


 1426 0936 53090000 		.4byte	0x953
 1427 093a 08       		.uleb128 0x8
 1428 093b 2C040000 		.4byte	.LASF141
 1429 093f 12       		.byte	0x12
 1430 0940 E3       		.byte	0xe3
 1431 0941 D4000000 		.4byte	0xd4
 1432 0945 00       		.byte	0
 1433 0946 08       		.uleb128 0x8
 1434 0947 24040000 		.4byte	.LASF142
 1435 094b 12       		.byte	0x12
 1436 094c E4       		.byte	0xe4
 1437 094d D4000000 		.4byte	0xd4
 1438 0951 02       		.byte	0x2
 1439 0952 00       		.byte	0
 1440 0953 0A       		.uleb128 0xa
 1441 0954 04       		.byte	0x4
 1442 0955 12       		.byte	0x12
 1443 0956 E6       		.byte	0xe6
 1444 0957 8C090000 		.4byte	0x98c
 1445 095b 08       		.uleb128 0x8
 1446 095c D3030000 		.4byte	.LASF143
 1447 0960 12       		.byte	0x12
 1448 0961 E7       		.byte	0xe7
 1449 0962 BF000000 		.4byte	0xbf
 1450 0966 00       		.byte	0
 1451 0967 08       		.uleb128 0x8
 1452 0968 DB030000 		.4byte	.LASF144
 1453 096c 12       		.byte	0x12
 1454 096d E8       		.byte	0xe8
 1455 096e BF000000 		.4byte	0xbf
 1456 0972 01       		.byte	0x1
 1457 0973 08       		.uleb128 0x8
 1458 0974 E3030000 		.4byte	.LASF145
 1459 0978 12       		.byte	0x12
 1460 0979 E9       		.byte	0xe9
 1461 097a BF000000 		.4byte	0xbf
 1462 097e 02       		.byte	0x2
 1463 097f 08       		.uleb128 0x8
 1464 0980 EB030000 		.4byte	.LASF146
 1465 0984 12       		.byte	0x12
 1466 0985 EA       		.byte	0xea
 1467 0986 BF000000 		.4byte	0xbf
 1468 098a 03       		.byte	0x3
 1469 098b 00       		.byte	0
 1470 098c 12       		.uleb128 0x12
 1471 098d 04       		.byte	0x4
 1472 098e 12       		.byte	0x12
 1473 098f E0       		.byte	0xe0
 1474 0990 AA090000 		.4byte	0x9aa
 1475 0994 13       		.uleb128 0x13
 1476 0995 F5070000 		.4byte	.LASF147
 1477 0999 12       		.byte	0x12
 1478 099a E1       		.byte	0xe1
 1479 099b F4000000 		.4byte	0xf4
 1480 099f 18       		.uleb128 0x18
 1481 09a0 32090000 		.4byte	0x932
 1482 09a4 18       		.uleb128 0x18
ARM GAS  /tmp/cc3pBf8T.s 			page 27


 1483 09a5 53090000 		.4byte	0x953
 1484 09a9 00       		.byte	0
 1485 09aa 0A       		.uleb128 0xa
 1486 09ab 04       		.byte	0x4
 1487 09ac 12       		.byte	0x12
 1488 09ad EF       		.byte	0xef
 1489 09ae CB090000 		.4byte	0x9cb
 1490 09b2 08       		.uleb128 0x8
 1491 09b3 5D030000 		.4byte	.LASF148
 1492 09b7 12       		.byte	0x12
 1493 09b8 F0       		.byte	0xf0
 1494 09b9 D4000000 		.4byte	0xd4
 1495 09bd 00       		.byte	0
 1496 09be 08       		.uleb128 0x8
 1497 09bf 55030000 		.4byte	.LASF149
 1498 09c3 12       		.byte	0x12
 1499 09c4 F1       		.byte	0xf1
 1500 09c5 D4000000 		.4byte	0xd4
 1501 09c9 02       		.byte	0x2
 1502 09ca 00       		.byte	0
 1503 09cb 0A       		.uleb128 0xa
 1504 09cc 04       		.byte	0x4
 1505 09cd 12       		.byte	0x12
 1506 09ce F3       		.byte	0xf3
 1507 09cf 040A0000 		.4byte	0xa04
 1508 09d3 08       		.uleb128 0x8
 1509 09d4 31030000 		.4byte	.LASF150
 1510 09d8 12       		.byte	0x12
 1511 09d9 F4       		.byte	0xf4
 1512 09da BF000000 		.4byte	0xbf
 1513 09de 00       		.byte	0
 1514 09df 08       		.uleb128 0x8
 1515 09e0 39030000 		.4byte	.LASF151
 1516 09e4 12       		.byte	0x12
 1517 09e5 F5       		.byte	0xf5
 1518 09e6 BF000000 		.4byte	0xbf
 1519 09ea 01       		.byte	0x1
 1520 09eb 08       		.uleb128 0x8
 1521 09ec 41030000 		.4byte	.LASF152
 1522 09f0 12       		.byte	0x12
 1523 09f1 F6       		.byte	0xf6
 1524 09f2 BF000000 		.4byte	0xbf
 1525 09f6 02       		.byte	0x2
 1526 09f7 08       		.uleb128 0x8
 1527 09f8 130A0000 		.4byte	.LASF153
 1528 09fc 12       		.byte	0x12
 1529 09fd F7       		.byte	0xf7
 1530 09fe BF000000 		.4byte	0xbf
 1531 0a02 03       		.byte	0x3
 1532 0a03 00       		.byte	0
 1533 0a04 12       		.uleb128 0x12
 1534 0a05 04       		.byte	0x4
 1535 0a06 12       		.byte	0x12
 1536 0a07 ED       		.byte	0xed
 1537 0a08 220A0000 		.4byte	0xa22
 1538 0a0c 13       		.uleb128 0x13
 1539 0a0d 45050000 		.4byte	.LASF154
ARM GAS  /tmp/cc3pBf8T.s 			page 28


 1540 0a11 12       		.byte	0x12
 1541 0a12 EE       		.byte	0xee
 1542 0a13 F4000000 		.4byte	0xf4
 1543 0a17 18       		.uleb128 0x18
 1544 0a18 AA090000 		.4byte	0x9aa
 1545 0a1c 18       		.uleb128 0x18
 1546 0a1d CB090000 		.4byte	0x9cb
 1547 0a21 00       		.byte	0
 1548 0a22 0A       		.uleb128 0xa
 1549 0a23 04       		.byte	0x4
 1550 0a24 12       		.byte	0x12
 1551 0a25 FC       		.byte	0xfc
 1552 0a26 430A0000 		.4byte	0xa43
 1553 0a2a 08       		.uleb128 0x8
 1554 0a2b 5A060000 		.4byte	.LASF155
 1555 0a2f 12       		.byte	0x12
 1556 0a30 FD       		.byte	0xfd
 1557 0a31 D4000000 		.4byte	0xd4
 1558 0a35 00       		.byte	0
 1559 0a36 08       		.uleb128 0x8
 1560 0a37 52060000 		.4byte	.LASF156
 1561 0a3b 12       		.byte	0x12
 1562 0a3c FE       		.byte	0xfe
 1563 0a3d D4000000 		.4byte	0xd4
 1564 0a41 02       		.byte	0x2
 1565 0a42 00       		.byte	0
 1566 0a43 19       		.uleb128 0x19
 1567 0a44 04       		.byte	0x4
 1568 0a45 12       		.byte	0x12
 1569 0a46 0001     		.2byte	0x100
 1570 0a48 810A0000 		.4byte	0xa81
 1571 0a4c 1A       		.uleb128 0x1a
 1572 0a4d 0D060000 		.4byte	.LASF157
 1573 0a51 12       		.byte	0x12
 1574 0a52 0101     		.2byte	0x101
 1575 0a54 BF000000 		.4byte	0xbf
 1576 0a58 00       		.byte	0
 1577 0a59 1A       		.uleb128 0x1a
 1578 0a5a 15060000 		.4byte	.LASF158
 1579 0a5e 12       		.byte	0x12
 1580 0a5f 0201     		.2byte	0x102
 1581 0a61 BF000000 		.4byte	0xbf
 1582 0a65 01       		.byte	0x1
 1583 0a66 1A       		.uleb128 0x1a
 1584 0a67 1D060000 		.4byte	.LASF159
 1585 0a6b 12       		.byte	0x12
 1586 0a6c 0301     		.2byte	0x103
 1587 0a6e BF000000 		.4byte	0xbf
 1588 0a72 02       		.byte	0x2
 1589 0a73 1A       		.uleb128 0x1a
 1590 0a74 25060000 		.4byte	.LASF160
 1591 0a78 12       		.byte	0x12
 1592 0a79 0401     		.2byte	0x104
 1593 0a7b BF000000 		.4byte	0xbf
 1594 0a7f 03       		.byte	0x3
 1595 0a80 00       		.byte	0
 1596 0a81 12       		.uleb128 0x12
ARM GAS  /tmp/cc3pBf8T.s 			page 29


 1597 0a82 04       		.byte	0x4
 1598 0a83 12       		.byte	0x12
 1599 0a84 FA       		.byte	0xfa
 1600 0a85 9F0A0000 		.4byte	0xa9f
 1601 0a89 13       		.uleb128 0x13
 1602 0a8a 57070000 		.4byte	.LASF161
 1603 0a8e 12       		.byte	0x12
 1604 0a8f FB       		.byte	0xfb
 1605 0a90 F4000000 		.4byte	0xf4
 1606 0a94 18       		.uleb128 0x18
 1607 0a95 220A0000 		.4byte	0xa22
 1608 0a99 18       		.uleb128 0x18
 1609 0a9a 430A0000 		.4byte	0xa43
 1610 0a9e 00       		.byte	0
 1611 0a9f 0A       		.uleb128 0xa
 1612 0aa0 20       		.byte	0x20
 1613 0aa1 12       		.byte	0x12
 1614 0aa2 C3       		.byte	0xc3
 1615 0aa3 D20A0000 		.4byte	0xad2
 1616 0aa7 1B       		.uleb128 0x1b
 1617 0aa8 9C080000 		.4byte	0x89c
 1618 0aac 00       		.byte	0
 1619 0aad 08       		.uleb128 0x8
 1620 0aae 67020000 		.4byte	.LASF162
 1621 0ab2 12       		.byte	0x12
 1622 0ab3 D2       		.byte	0xd2
 1623 0ab4 D20A0000 		.4byte	0xad2
 1624 0ab8 04       		.byte	0x4
 1625 0ab9 1B       		.uleb128 0x1b
 1626 0aba 14090000 		.4byte	0x914
 1627 0abe 10       		.byte	0x10
 1628 0abf 1B       		.uleb128 0x1b
 1629 0ac0 8C090000 		.4byte	0x98c
 1630 0ac4 14       		.byte	0x14
 1631 0ac5 1B       		.uleb128 0x1b
 1632 0ac6 040A0000 		.4byte	0xa04
 1633 0aca 18       		.byte	0x18
 1634 0acb 1B       		.uleb128 0x1b
 1635 0acc 810A0000 		.4byte	0xa81
 1636 0ad0 1C       		.byte	0x1c
 1637 0ad1 00       		.byte	0
 1638 0ad2 15       		.uleb128 0x15
 1639 0ad3 E9000000 		.4byte	0xe9
 1640 0ad7 E20A0000 		.4byte	0xae2
 1641 0adb 16       		.uleb128 0x16
 1642 0adc 87030000 		.4byte	0x387
 1643 0ae0 02       		.byte	0x2
 1644 0ae1 00       		.byte	0
 1645 0ae2 1C       		.uleb128 0x1c
 1646 0ae3 7A090000 		.4byte	.LASF163
 1647 0ae7 12       		.byte	0x12
 1648 0ae8 0701     		.2byte	0x107
 1649 0aea 9F0A0000 		.4byte	0xa9f
 1650 0aee 19       		.uleb128 0x19
 1651 0aef 74       		.byte	0x74
 1652 0af0 12       		.byte	0x12
 1653 0af1 1C01     		.2byte	0x11c
ARM GAS  /tmp/cc3pBf8T.s 			page 30


 1654 0af3 D10B0000 		.4byte	0xbd1
 1655 0af7 0E       		.uleb128 0xe
 1656 0af8 495200   		.ascii	"IR\000"
 1657 0afb 12       		.byte	0x12
 1658 0afc 1E01     		.2byte	0x11e
 1659 0afe F4000000 		.4byte	0xf4
 1660 0b02 00       		.byte	0
 1661 0b03 0E       		.uleb128 0xe
 1662 0b04 54435200 		.ascii	"TCR\000"
 1663 0b08 12       		.byte	0x12
 1664 0b09 1F01     		.2byte	0x11f
 1665 0b0b F4000000 		.4byte	0xf4
 1666 0b0f 04       		.byte	0x4
 1667 0b10 0E       		.uleb128 0xe
 1668 0b11 544300   		.ascii	"TC\000"
 1669 0b14 12       		.byte	0x12
 1670 0b15 2001     		.2byte	0x120
 1671 0b17 F4000000 		.4byte	0xf4
 1672 0b1b 08       		.byte	0x8
 1673 0b1c 0E       		.uleb128 0xe
 1674 0b1d 505200   		.ascii	"PR\000"
 1675 0b20 12       		.byte	0x12
 1676 0b21 2101     		.2byte	0x121
 1677 0b23 F4000000 		.4byte	0xf4
 1678 0b27 0C       		.byte	0xc
 1679 0b28 0E       		.uleb128 0xe
 1680 0b29 504300   		.ascii	"PC\000"
 1681 0b2c 12       		.byte	0x12
 1682 0b2d 2201     		.2byte	0x122
 1683 0b2f F4000000 		.4byte	0xf4
 1684 0b33 10       		.byte	0x10
 1685 0b34 0E       		.uleb128 0xe
 1686 0b35 4D435200 		.ascii	"MCR\000"
 1687 0b39 12       		.byte	0x12
 1688 0b3a 2301     		.2byte	0x123
 1689 0b3c F4000000 		.4byte	0xf4
 1690 0b40 14       		.byte	0x14
 1691 0b41 0E       		.uleb128 0xe
 1692 0b42 4D523000 		.ascii	"MR0\000"
 1693 0b46 12       		.byte	0x12
 1694 0b47 2401     		.2byte	0x124
 1695 0b49 F4000000 		.4byte	0xf4
 1696 0b4d 18       		.byte	0x18
 1697 0b4e 0E       		.uleb128 0xe
 1698 0b4f 4D523100 		.ascii	"MR1\000"
 1699 0b53 12       		.byte	0x12
 1700 0b54 2501     		.2byte	0x125
 1701 0b56 F4000000 		.4byte	0xf4
 1702 0b5a 1C       		.byte	0x1c
 1703 0b5b 0E       		.uleb128 0xe
 1704 0b5c 4D523200 		.ascii	"MR2\000"
 1705 0b60 12       		.byte	0x12
 1706 0b61 2601     		.2byte	0x126
 1707 0b63 F4000000 		.4byte	0xf4
 1708 0b67 20       		.byte	0x20
 1709 0b68 0E       		.uleb128 0xe
 1710 0b69 4D523300 		.ascii	"MR3\000"
ARM GAS  /tmp/cc3pBf8T.s 			page 31


 1711 0b6d 12       		.byte	0x12
 1712 0b6e 2701     		.2byte	0x127
 1713 0b70 F4000000 		.4byte	0xf4
 1714 0b74 24       		.byte	0x24
 1715 0b75 0E       		.uleb128 0xe
 1716 0b76 43435200 		.ascii	"CCR\000"
 1717 0b7a 12       		.byte	0x12
 1718 0b7b 2801     		.2byte	0x128
 1719 0b7d F4000000 		.4byte	0xf4
 1720 0b81 28       		.byte	0x28
 1721 0b82 0E       		.uleb128 0xe
 1722 0b83 43523000 		.ascii	"CR0\000"
 1723 0b87 12       		.byte	0x12
 1724 0b88 2901     		.2byte	0x129
 1725 0b8a F9000000 		.4byte	0xf9
 1726 0b8e 2C       		.byte	0x2c
 1727 0b8f 0E       		.uleb128 0xe
 1728 0b90 43523100 		.ascii	"CR1\000"
 1729 0b94 12       		.byte	0x12
 1730 0b95 2A01     		.2byte	0x12a
 1731 0b97 F9000000 		.4byte	0xf9
 1732 0b9b 30       		.byte	0x30
 1733 0b9c 1A       		.uleb128 0x1a
 1734 0b9d 67020000 		.4byte	.LASF162
 1735 0ba1 12       		.byte	0x12
 1736 0ba2 2B01     		.2byte	0x12b
 1737 0ba4 0B080000 		.4byte	0x80b
 1738 0ba8 34       		.byte	0x34
 1739 0ba9 0E       		.uleb128 0xe
 1740 0baa 454D5200 		.ascii	"EMR\000"
 1741 0bae 12       		.byte	0x12
 1742 0baf 2C01     		.2byte	0x12c
 1743 0bb1 F4000000 		.4byte	0xf4
 1744 0bb5 3C       		.byte	0x3c
 1745 0bb6 1A       		.uleb128 0x1a
 1746 0bb7 71020000 		.4byte	.LASF164
 1747 0bbb 12       		.byte	0x12
 1748 0bbc 2D01     		.2byte	0x12d
 1749 0bbe 32080000 		.4byte	0x832
 1750 0bc2 40       		.byte	0x40
 1751 0bc3 1A       		.uleb128 0x1a
 1752 0bc4 A0000000 		.4byte	.LASF165
 1753 0bc8 12       		.byte	0x12
 1754 0bc9 2E01     		.2byte	0x12e
 1755 0bcb F4000000 		.4byte	0xf4
 1756 0bcf 70       		.byte	0x70
 1757 0bd0 00       		.byte	0
 1758 0bd1 1C       		.uleb128 0x1c
 1759 0bd2 33070000 		.4byte	.LASF166
 1760 0bd6 12       		.byte	0x12
 1761 0bd7 2F01     		.2byte	0x12f
 1762 0bd9 EE0A0000 		.4byte	0xaee
 1763 0bdd 1D       		.uleb128 0x1d
 1764 0bde 04       		.byte	0x4
 1765 0bdf 12       		.byte	0x12
 1766 0be0 5201     		.2byte	0x152
 1767 0be2 0B0C0000 		.4byte	0xc0b
ARM GAS  /tmp/cc3pBf8T.s 			page 32


 1768 0be6 1E       		.uleb128 0x1e
 1769 0be7 52425200 		.ascii	"RBR\000"
 1770 0beb 12       		.byte	0x12
 1771 0bec 5301     		.2byte	0x153
 1772 0bee F9000000 		.4byte	0xf9
 1773 0bf2 1E       		.uleb128 0x1e
 1774 0bf3 54485200 		.ascii	"THR\000"
 1775 0bf7 12       		.byte	0x12
 1776 0bf8 5401     		.2byte	0x154
 1777 0bfa F4000000 		.4byte	0xf4
 1778 0bfe 1E       		.uleb128 0x1e
 1779 0bff 444C4C00 		.ascii	"DLL\000"
 1780 0c03 12       		.byte	0x12
 1781 0c04 5501     		.2byte	0x155
 1782 0c06 F4000000 		.4byte	0xf4
 1783 0c0a 00       		.byte	0
 1784 0c0b 1D       		.uleb128 0x1d
 1785 0c0c 04       		.byte	0x4
 1786 0c0d 12       		.byte	0x12
 1787 0c0e 5701     		.2byte	0x157
 1788 0c10 2D0C0000 		.4byte	0xc2d
 1789 0c14 1E       		.uleb128 0x1e
 1790 0c15 444C4D00 		.ascii	"DLM\000"
 1791 0c19 12       		.byte	0x12
 1792 0c1a 5801     		.2byte	0x158
 1793 0c1c F4000000 		.4byte	0xf4
 1794 0c20 1E       		.uleb128 0x1e
 1795 0c21 49455200 		.ascii	"IER\000"
 1796 0c25 12       		.byte	0x12
 1797 0c26 5901     		.2byte	0x159
 1798 0c28 F4000000 		.4byte	0xf4
 1799 0c2c 00       		.byte	0
 1800 0c2d 1D       		.uleb128 0x1d
 1801 0c2e 04       		.byte	0x4
 1802 0c2f 12       		.byte	0x12
 1803 0c30 5B01     		.2byte	0x15b
 1804 0c32 4F0C0000 		.4byte	0xc4f
 1805 0c36 1E       		.uleb128 0x1e
 1806 0c37 49495200 		.ascii	"IIR\000"
 1807 0c3b 12       		.byte	0x12
 1808 0c3c 5C01     		.2byte	0x15c
 1809 0c3e F9000000 		.4byte	0xf9
 1810 0c42 1E       		.uleb128 0x1e
 1811 0c43 46435200 		.ascii	"FCR\000"
 1812 0c47 12       		.byte	0x12
 1813 0c48 5D01     		.2byte	0x15d
 1814 0c4a F4000000 		.4byte	0xf4
 1815 0c4e 00       		.byte	0
 1816 0c4f 19       		.uleb128 0x19
 1817 0c50 34       		.byte	0x34
 1818 0c51 12       		.byte	0x12
 1819 0c52 5001     		.2byte	0x150
 1820 0c54 ED0C0000 		.4byte	0xced
 1821 0c58 1B       		.uleb128 0x1b
 1822 0c59 DD0B0000 		.4byte	0xbdd
 1823 0c5d 00       		.byte	0
 1824 0c5e 1B       		.uleb128 0x1b
ARM GAS  /tmp/cc3pBf8T.s 			page 33


 1825 0c5f 0B0C0000 		.4byte	0xc0b
 1826 0c63 04       		.byte	0x4
 1827 0c64 1B       		.uleb128 0x1b
 1828 0c65 2D0C0000 		.4byte	0xc2d
 1829 0c69 08       		.byte	0x8
 1830 0c6a 0E       		.uleb128 0xe
 1831 0c6b 4C435200 		.ascii	"LCR\000"
 1832 0c6f 12       		.byte	0x12
 1833 0c70 5F01     		.2byte	0x15f
 1834 0c72 F4000000 		.4byte	0xf4
 1835 0c76 0C       		.byte	0xc
 1836 0c77 1A       		.uleb128 0x1a
 1837 0c78 67020000 		.4byte	.LASF162
 1838 0c7c 12       		.byte	0x12
 1839 0c7d 6001     		.2byte	0x160
 1840 0c7f E9000000 		.4byte	0xe9
 1841 0c83 10       		.byte	0x10
 1842 0c84 0E       		.uleb128 0xe
 1843 0c85 4C535200 		.ascii	"LSR\000"
 1844 0c89 12       		.byte	0x12
 1845 0c8a 6101     		.2byte	0x161
 1846 0c8c F9000000 		.4byte	0xf9
 1847 0c90 14       		.byte	0x14
 1848 0c91 1A       		.uleb128 0x1a
 1849 0c92 71020000 		.4byte	.LASF164
 1850 0c96 12       		.byte	0x12
 1851 0c97 6201     		.2byte	0x162
 1852 0c99 E9000000 		.4byte	0xe9
 1853 0c9d 18       		.byte	0x18
 1854 0c9e 0E       		.uleb128 0xe
 1855 0c9f 53435200 		.ascii	"SCR\000"
 1856 0ca3 12       		.byte	0x12
 1857 0ca4 6301     		.2byte	0x163
 1858 0ca6 F4000000 		.4byte	0xf4
 1859 0caa 1C       		.byte	0x1c
 1860 0cab 0E       		.uleb128 0xe
 1861 0cac 41435200 		.ascii	"ACR\000"
 1862 0cb0 12       		.byte	0x12
 1863 0cb1 6401     		.2byte	0x164
 1864 0cb3 F4000000 		.4byte	0xf4
 1865 0cb7 20       		.byte	0x20
 1866 0cb8 0E       		.uleb128 0xe
 1867 0cb9 49435200 		.ascii	"ICR\000"
 1868 0cbd 12       		.byte	0x12
 1869 0cbe 6501     		.2byte	0x165
 1870 0cc0 F4000000 		.4byte	0xf4
 1871 0cc4 24       		.byte	0x24
 1872 0cc5 0E       		.uleb128 0xe
 1873 0cc6 46445200 		.ascii	"FDR\000"
 1874 0cca 12       		.byte	0x12
 1875 0ccb 6601     		.2byte	0x166
 1876 0ccd F4000000 		.4byte	0xf4
 1877 0cd1 28       		.byte	0x28
 1878 0cd2 1A       		.uleb128 0x1a
 1879 0cd3 C8020000 		.4byte	.LASF167
 1880 0cd7 12       		.byte	0x12
 1881 0cd8 6701     		.2byte	0x167
ARM GAS  /tmp/cc3pBf8T.s 			page 34


 1882 0cda E9000000 		.4byte	0xe9
 1883 0cde 2C       		.byte	0x2c
 1884 0cdf 0E       		.uleb128 0xe
 1885 0ce0 54455200 		.ascii	"TER\000"
 1886 0ce4 12       		.byte	0x12
 1887 0ce5 6801     		.2byte	0x168
 1888 0ce7 F4000000 		.4byte	0xf4
 1889 0ceb 30       		.byte	0x30
 1890 0cec 00       		.byte	0
 1891 0ced 1C       		.uleb128 0x1c
 1892 0cee 3D080000 		.4byte	.LASF168
 1893 0cf2 12       		.byte	0x12
 1894 0cf3 6901     		.2byte	0x169
 1895 0cf5 4F0C0000 		.4byte	0xc4f
 1896 0cf9 19       		.uleb128 0x19
 1897 0cfa 28       		.byte	0x28
 1898 0cfb 12       		.byte	0x12
 1899 0cfc 9901     		.2byte	0x199
 1900 0cfe 830D0000 		.4byte	0xd83
 1901 0d02 0E       		.uleb128 0xe
 1902 0d03 43523000 		.ascii	"CR0\000"
 1903 0d07 12       		.byte	0x12
 1904 0d08 9B01     		.2byte	0x19b
 1905 0d0a F4000000 		.4byte	0xf4
 1906 0d0e 00       		.byte	0
 1907 0d0f 0E       		.uleb128 0xe
 1908 0d10 43523100 		.ascii	"CR1\000"
 1909 0d14 12       		.byte	0x12
 1910 0d15 9C01     		.2byte	0x19c
 1911 0d17 F4000000 		.4byte	0xf4
 1912 0d1b 04       		.byte	0x4
 1913 0d1c 0E       		.uleb128 0xe
 1914 0d1d 445200   		.ascii	"DR\000"
 1915 0d20 12       		.byte	0x12
 1916 0d21 9D01     		.2byte	0x19d
 1917 0d23 F4000000 		.4byte	0xf4
 1918 0d27 08       		.byte	0x8
 1919 0d28 0E       		.uleb128 0xe
 1920 0d29 535200   		.ascii	"SR\000"
 1921 0d2c 12       		.byte	0x12
 1922 0d2d 9E01     		.2byte	0x19e
 1923 0d2f F9000000 		.4byte	0xf9
 1924 0d33 0C       		.byte	0xc
 1925 0d34 1A       		.uleb128 0x1a
 1926 0d35 8A080000 		.4byte	.LASF169
 1927 0d39 12       		.byte	0x12
 1928 0d3a 9F01     		.2byte	0x19f
 1929 0d3c F4000000 		.4byte	0xf4
 1930 0d40 10       		.byte	0x10
 1931 0d41 1A       		.uleb128 0x1a
 1932 0d42 4E020000 		.4byte	.LASF170
 1933 0d46 12       		.byte	0x12
 1934 0d47 A001     		.2byte	0x1a0
 1935 0d49 F4000000 		.4byte	0xf4
 1936 0d4d 14       		.byte	0x14
 1937 0d4e 0E       		.uleb128 0xe
 1938 0d4f 52495300 		.ascii	"RIS\000"
ARM GAS  /tmp/cc3pBf8T.s 			page 35


 1939 0d53 12       		.byte	0x12
 1940 0d54 A101     		.2byte	0x1a1
 1941 0d56 F4000000 		.4byte	0xf4
 1942 0d5a 18       		.byte	0x18
 1943 0d5b 0E       		.uleb128 0xe
 1944 0d5c 4D495300 		.ascii	"MIS\000"
 1945 0d60 12       		.byte	0x12
 1946 0d61 A201     		.2byte	0x1a2
 1947 0d63 F4000000 		.4byte	0xf4
 1948 0d67 1C       		.byte	0x1c
 1949 0d68 0E       		.uleb128 0xe
 1950 0d69 49435200 		.ascii	"ICR\000"
 1951 0d6d 12       		.byte	0x12
 1952 0d6e A301     		.2byte	0x1a3
 1953 0d70 F4000000 		.4byte	0xf4
 1954 0d74 20       		.byte	0x20
 1955 0d75 1A       		.uleb128 0x1a
 1956 0d76 D2020000 		.4byte	.LASF171
 1957 0d7a 12       		.byte	0x12
 1958 0d7b A401     		.2byte	0x1a4
 1959 0d7d F4000000 		.4byte	0xf4
 1960 0d81 24       		.byte	0x24
 1961 0d82 00       		.byte	0
 1962 0d83 1C       		.uleb128 0x1c
 1963 0d84 0D020000 		.4byte	.LASF172
 1964 0d88 12       		.byte	0x12
 1965 0d89 A501     		.2byte	0x1a5
 1966 0d8b F90C0000 		.4byte	0xcf9
 1967 0d8f 19       		.uleb128 0x19
 1968 0d90 14       		.byte	0x14
 1969 0d91 12       		.byte	0x12
 1970 0d92 B402     		.2byte	0x2b4
 1971 0d94 DA0D0000 		.4byte	0xdda
 1972 0d98 1A       		.uleb128 0x1a
 1973 0d99 67010000 		.4byte	.LASF173
 1974 0d9d 12       		.byte	0x12
 1975 0d9e B602     		.2byte	0x2b6
 1976 0da0 F4000000 		.4byte	0xf4
 1977 0da4 00       		.byte	0
 1978 0da5 1A       		.uleb128 0x1a
 1979 0da6 39010000 		.4byte	.LASF174
 1980 0daa 12       		.byte	0x12
 1981 0dab B702     		.2byte	0x2b7
 1982 0dad F4000000 		.4byte	0xf4
 1983 0db1 04       		.byte	0x4
 1984 0db2 1A       		.uleb128 0x1a
 1985 0db3 4E080000 		.4byte	.LASF175
 1986 0db7 12       		.byte	0x12
 1987 0db8 B802     		.2byte	0x2b8
 1988 0dba F4000000 		.4byte	0xf4
 1989 0dbe 08       		.byte	0x8
 1990 0dbf 1A       		.uleb128 0x1a
 1991 0dc0 4E040000 		.4byte	.LASF176
 1992 0dc4 12       		.byte	0x12
 1993 0dc5 B902     		.2byte	0x2b9
 1994 0dc7 F4000000 		.4byte	0xf4
 1995 0dcb 0C       		.byte	0xc
ARM GAS  /tmp/cc3pBf8T.s 			page 36


 1996 0dcc 1A       		.uleb128 0x1a
 1997 0dcd 1C090000 		.4byte	.LASF177
 1998 0dd1 12       		.byte	0x12
 1999 0dd2 BA02     		.2byte	0x2ba
 2000 0dd4 F4000000 		.4byte	0xf4
 2001 0dd8 10       		.byte	0x10
 2002 0dd9 00       		.byte	0
 2003 0dda 1C       		.uleb128 0x1c
 2004 0ddb 86000000 		.4byte	.LASF178
 2005 0ddf 12       		.byte	0x12
 2006 0de0 BB02     		.2byte	0x2bb
 2007 0de2 8F0D0000 		.4byte	0xd8f
 2008 0de6 15       		.uleb128 0x15
 2009 0de7 F10D0000 		.4byte	0xdf1
 2010 0deb F10D0000 		.4byte	0xdf1
 2011 0def 1F       		.uleb128 0x1f
 2012 0df0 00       		.byte	0
 2013 0df1 0B       		.uleb128 0xb
 2014 0df2 04       		.byte	0x4
 2015 0df3 DA0D0000 		.4byte	0xdda
 2016 0df7 17       		.uleb128 0x17
 2017 0df8 67040000 		.4byte	.LASF179
 2018 0dfc 13       		.byte	0x13
 2019 0dfd 9501     		.2byte	0x195
 2020 0dff E60D0000 		.4byte	0xde6
 2021 0e03 14       		.uleb128 0x14
 2022 0e04 47010000 		.4byte	0x147
 2023 0e08 1C0E0000 		.4byte	0xe1c
 2024 0e0c 10       		.uleb128 0x10
 2025 0e0d DD020000 		.4byte	0x2dd
 2026 0e11 10       		.uleb128 0x10
 2027 0e12 B4000000 		.4byte	0xb4
 2028 0e16 10       		.uleb128 0x10
 2029 0e17 68010000 		.4byte	0x168
 2030 0e1b 00       		.byte	0
 2031 0e1c 0B       		.uleb128 0xb
 2032 0e1d 04       		.byte	0x4
 2033 0e1e 030E0000 		.4byte	0xe03
 2034 0e22 14       		.uleb128 0x14
 2035 0e23 47010000 		.4byte	0x147
 2036 0e27 360E0000 		.4byte	0xe36
 2037 0e2b 10       		.uleb128 0x10
 2038 0e2c DD020000 		.4byte	0x2dd
 2039 0e30 10       		.uleb128 0x10
 2040 0e31 68010000 		.4byte	0x168
 2041 0e35 00       		.byte	0
 2042 0e36 0B       		.uleb128 0xb
 2043 0e37 04       		.byte	0x4
 2044 0e38 220E0000 		.4byte	0xe22
 2045 0e3c 14       		.uleb128 0x14
 2046 0e3d 2C000000 		.4byte	0x2c
 2047 0e41 5A0E0000 		.4byte	0xe5a
 2048 0e45 10       		.uleb128 0x10
 2049 0e46 DD020000 		.4byte	0x2dd
 2050 0e4a 10       		.uleb128 0x10
 2051 0e4b AB070000 		.4byte	0x7ab
 2052 0e4f 10       		.uleb128 0x10
ARM GAS  /tmp/cc3pBf8T.s 			page 37


 2053 0e50 2C000000 		.4byte	0x2c
 2054 0e54 10       		.uleb128 0x10
 2055 0e55 68010000 		.4byte	0x168
 2056 0e59 00       		.byte	0
 2057 0e5a 0B       		.uleb128 0xb
 2058 0e5b 04       		.byte	0x4
 2059 0e5c 3C0E0000 		.4byte	0xe3c
 2060 0e60 14       		.uleb128 0x14
 2061 0e61 2C000000 		.4byte	0x2c
 2062 0e65 7E0E0000 		.4byte	0xe7e
 2063 0e69 10       		.uleb128 0x10
 2064 0e6a DD020000 		.4byte	0x2dd
 2065 0e6e 10       		.uleb128 0x10
 2066 0e6f 76070000 		.4byte	0x776
 2067 0e73 10       		.uleb128 0x10
 2068 0e74 2C000000 		.4byte	0x2c
 2069 0e78 10       		.uleb128 0x10
 2070 0e79 68010000 		.4byte	0x168
 2071 0e7d 00       		.byte	0
 2072 0e7e 0B       		.uleb128 0xb
 2073 0e7f 04       		.byte	0x4
 2074 0e80 600E0000 		.4byte	0xe60
 2075 0e84 0A       		.uleb128 0xa
 2076 0e85 08       		.byte	0x8
 2077 0e86 14       		.byte	0x14
 2078 0e87 2E       		.byte	0x2e
 2079 0e88 A50E0000 		.4byte	0xea5
 2080 0e8c 08       		.uleb128 0x8
 2081 0e8d 300A0000 		.4byte	.LASF180
 2082 0e91 14       		.byte	0x14
 2083 0e92 30       		.byte	0x30
 2084 0e93 E9000000 		.4byte	0xe9
 2085 0e97 00       		.byte	0
 2086 0e98 09       		.uleb128 0x9
 2087 0e99 64697200 		.ascii	"dir\000"
 2088 0e9d 14       		.byte	0x14
 2089 0e9e 32       		.byte	0x32
 2090 0e9f E9000000 		.4byte	0xe9
 2091 0ea3 04       		.byte	0x4
 2092 0ea4 00       		.byte	0
 2093 0ea5 03       		.uleb128 0x3
 2094 0ea6 E2080000 		.4byte	.LASF181
 2095 0eaa 14       		.byte	0x14
 2096 0eab 33       		.byte	0x33
 2097 0eac 840E0000 		.4byte	0xe84
 2098 0eb0 0A       		.uleb128 0xa
 2099 0eb1 28       		.byte	0x28
 2100 0eb2 14       		.byte	0x14
 2101 0eb3 41       		.byte	0x41
 2102 0eb4 F00E0000 		.4byte	0xef0
 2103 0eb8 09       		.uleb128 0x9
 2104 0eb9 503000   		.ascii	"P0\000"
 2105 0ebc 14       		.byte	0x14
 2106 0ebd 43       		.byte	0x43
 2107 0ebe A50E0000 		.4byte	0xea5
 2108 0ec2 00       		.byte	0
 2109 0ec3 09       		.uleb128 0x9
ARM GAS  /tmp/cc3pBf8T.s 			page 38


 2110 0ec4 503100   		.ascii	"P1\000"
 2111 0ec7 14       		.byte	0x14
 2112 0ec8 45       		.byte	0x45
 2113 0ec9 A50E0000 		.4byte	0xea5
 2114 0ecd 08       		.byte	0x8
 2115 0ece 09       		.uleb128 0x9
 2116 0ecf 503200   		.ascii	"P2\000"
 2117 0ed2 14       		.byte	0x14
 2118 0ed3 47       		.byte	0x47
 2119 0ed4 A50E0000 		.4byte	0xea5
 2120 0ed8 10       		.byte	0x10
 2121 0ed9 09       		.uleb128 0x9
 2122 0eda 503300   		.ascii	"P3\000"
 2123 0edd 14       		.byte	0x14
 2124 0ede 49       		.byte	0x49
 2125 0edf A50E0000 		.4byte	0xea5
 2126 0ee3 18       		.byte	0x18
 2127 0ee4 09       		.uleb128 0x9
 2128 0ee5 503400   		.ascii	"P4\000"
 2129 0ee8 14       		.byte	0x14
 2130 0ee9 4B       		.byte	0x4b
 2131 0eea A50E0000 		.4byte	0xea5
 2132 0eee 20       		.byte	0x20
 2133 0eef 00       		.byte	0
 2134 0ef0 03       		.uleb128 0x3
 2135 0ef1 04090000 		.4byte	.LASF182
 2136 0ef5 14       		.byte	0x14
 2137 0ef6 4C       		.byte	0x4c
 2138 0ef7 B00E0000 		.4byte	0xeb0
 2139 0efb 06       		.uleb128 0x6
 2140 0efc F00E0000 		.4byte	0xef0
 2141 0f00 03       		.uleb128 0x3
 2142 0f01 9A030000 		.4byte	.LASF183
 2143 0f05 14       		.byte	0x14
 2144 0f06 5C       		.byte	0x5c
 2145 0f07 E9000000 		.4byte	0xe9
 2146 0f0b 03       		.uleb128 0x3
 2147 0f0c EB000000 		.4byte	.LASF184
 2148 0f10 14       		.byte	0x14
 2149 0f11 61       		.byte	0x61
 2150 0f12 E9000000 		.4byte	0xe9
 2151 0f16 03       		.uleb128 0x3
 2152 0f17 DF010000 		.4byte	.LASF185
 2153 0f1b 14       		.byte	0x14
 2154 0f1c 66       		.byte	0x66
 2155 0f1d 210F0000 		.4byte	0xf21
 2156 0f21 0B       		.uleb128 0xb
 2157 0f22 04       		.byte	0x4
 2158 0f23 E20A0000 		.4byte	0xae2
 2159 0f27 17       		.uleb128 0x17
 2160 0f28 1D020000 		.4byte	.LASF186
 2161 0f2c 14       		.byte	0x14
 2162 0f2d 3301     		.2byte	0x133
 2163 0f2f FB0E0000 		.4byte	0xefb
 2164 0f33 20       		.uleb128 0x20
 2165 0f34 01       		.byte	0x1
 2166 0f35 5E000000 		.4byte	0x5e
ARM GAS  /tmp/cc3pBf8T.s 			page 39


 2167 0f39 15       		.byte	0x15
 2168 0f3a 35       		.byte	0x35
 2169 0f3b 5E0F0000 		.4byte	0xf5e
 2170 0f3f 21       		.uleb128 0x21
 2171 0f40 E3020000 		.4byte	.LASF187
 2172 0f44 00       		.byte	0
 2173 0f45 21       		.uleb128 0x21
 2174 0f46 92090000 		.4byte	.LASF188
 2175 0f4a 01       		.byte	0x1
 2176 0f4b 21       		.uleb128 0x21
 2177 0f4c 13080000 		.4byte	.LASF189
 2178 0f50 02       		.byte	0x2
 2179 0f51 21       		.uleb128 0x21
 2180 0f52 1D080000 		.4byte	.LASF190
 2181 0f56 03       		.byte	0x3
 2182 0f57 21       		.uleb128 0x21
 2183 0f58 78050000 		.4byte	.LASF191
 2184 0f5c 04       		.byte	0x4
 2185 0f5d 00       		.byte	0
 2186 0f5e 03       		.uleb128 0x3
 2187 0f5f AE000000 		.4byte	.LASF192
 2188 0f63 15       		.byte	0x15
 2189 0f64 3B       		.byte	0x3b
 2190 0f65 330F0000 		.4byte	0xf33
 2191 0f69 03       		.uleb128 0x3
 2192 0f6a 33050000 		.4byte	.LASF193
 2193 0f6e 15       		.byte	0x15
 2194 0f6f 40       		.byte	0x40
 2195 0f70 740F0000 		.4byte	0xf74
 2196 0f74 07       		.uleb128 0x7
 2197 0f75 33050000 		.4byte	.LASF193
 2198 0f79 10       		.byte	0x10
 2199 0f7a 16       		.byte	0x16
 2200 0f7b 93       		.byte	0x93
 2201 0f7c B10F0000 		.4byte	0xfb1
 2202 0f80 08       		.uleb128 0x8
 2203 0f81 C0000000 		.4byte	.LASF194
 2204 0f85 16       		.byte	0x16
 2205 0f86 97       		.byte	0x97
 2206 0f87 5E0F0000 		.4byte	0xf5e
 2207 0f8b 00       		.byte	0
 2208 0f8c 08       		.uleb128 0x8
 2209 0f8d B9000000 		.4byte	.LASF195
 2210 0f91 16       		.byte	0x16
 2211 0f92 9B       		.byte	0x9b
 2212 0f93 0F100000 		.4byte	0x100f
 2213 0f97 04       		.byte	0x4
 2214 0f98 08       		.uleb128 0x8
 2215 0f99 9D040000 		.4byte	.LASF196
 2216 0f9d 16       		.byte	0x16
 2217 0f9e A0       		.byte	0xa0
 2218 0f9f E9000000 		.4byte	0xe9
 2219 0fa3 08       		.byte	0x8
 2220 0fa4 09       		.uleb128 0x9
 2221 0fa5 746D7200 		.ascii	"tmr\000"
 2222 0fa9 16       		.byte	0x16
 2223 0faa A4       		.byte	0xa4
ARM GAS  /tmp/cc3pBf8T.s 			page 40


 2224 0fab 15100000 		.4byte	0x1015
 2225 0faf 0C       		.byte	0xc
 2226 0fb0 00       		.byte	0
 2227 0fb1 03       		.uleb128 0x3
 2228 0fb2 3C0A0000 		.4byte	.LASF197
 2229 0fb6 15       		.byte	0x15
 2230 0fb7 47       		.byte	0x47
 2231 0fb8 BC0F0000 		.4byte	0xfbc
 2232 0fbc 0B       		.uleb128 0xb
 2233 0fbd 04       		.byte	0x4
 2234 0fbe C20F0000 		.4byte	0xfc2
 2235 0fc2 0F       		.uleb128 0xf
 2236 0fc3 CD0F0000 		.4byte	0xfcd
 2237 0fc7 10       		.uleb128 0x10
 2238 0fc8 CD0F0000 		.4byte	0xfcd
 2239 0fcc 00       		.byte	0
 2240 0fcd 0B       		.uleb128 0xb
 2241 0fce 04       		.byte	0x4
 2242 0fcf 690F0000 		.4byte	0xf69
 2243 0fd3 03       		.uleb128 0x3
 2244 0fd4 44040000 		.4byte	.LASF198
 2245 0fd8 16       		.byte	0x16
 2246 0fd9 76       		.byte	0x76
 2247 0fda E9000000 		.4byte	0xe9
 2248 0fde 0A       		.uleb128 0xa
 2249 0fdf 08       		.byte	0x8
 2250 0fe0 16       		.byte	0x16
 2251 0fe1 81       		.byte	0x81
 2252 0fe2 FF0F0000 		.4byte	0xfff
 2253 0fe6 08       		.uleb128 0x8
 2254 0fe7 64050000 		.4byte	.LASF199
 2255 0feb 16       		.byte	0x16
 2256 0fec 87       		.byte	0x87
 2257 0fed D30F0000 		.4byte	0xfd3
 2258 0ff1 00       		.byte	0
 2259 0ff2 08       		.uleb128 0x8
 2260 0ff3 E2000000 		.4byte	.LASF200
 2261 0ff7 16       		.byte	0x16
 2262 0ff8 8C       		.byte	0x8c
 2263 0ff9 B10F0000 		.4byte	0xfb1
 2264 0ffd 04       		.byte	0x4
 2265 0ffe 00       		.byte	0
 2266 0fff 03       		.uleb128 0x3
 2267 1000 A3040000 		.4byte	.LASF201
 2268 1004 16       		.byte	0x16
 2269 1005 8E       		.byte	0x8e
 2270 1006 DE0F0000 		.4byte	0xfde
 2271 100a 06       		.uleb128 0x6
 2272 100b FF0F0000 		.4byte	0xfff
 2273 100f 0B       		.uleb128 0xb
 2274 1010 04       		.byte	0x4
 2275 1011 0A100000 		.4byte	0x100a
 2276 1015 0B       		.uleb128 0xb
 2277 1016 04       		.byte	0x4
 2278 1017 D10B0000 		.4byte	0xbd1
 2279 101b 11       		.uleb128 0x11
 2280 101c C7010000 		.4byte	.LASF202
ARM GAS  /tmp/cc3pBf8T.s 			page 41


 2281 1020 16       		.byte	0x16
 2282 1021 B0       		.byte	0xb0
 2283 1022 690F0000 		.4byte	0xf69
 2284 1026 11       		.uleb128 0x11
 2285 1027 CD010000 		.4byte	.LASF203
 2286 102b 16       		.byte	0x16
 2287 102c B4       		.byte	0xb4
 2288 102d 690F0000 		.4byte	0xf69
 2289 1031 11       		.uleb128 0x11
 2290 1032 D3010000 		.4byte	.LASF204
 2291 1036 16       		.byte	0x16
 2292 1037 B8       		.byte	0xb8
 2293 1038 690F0000 		.4byte	0xf69
 2294 103c 11       		.uleb128 0x11
 2295 103d D9010000 		.4byte	.LASF205
 2296 1041 16       		.byte	0x16
 2297 1042 BC       		.byte	0xbc
 2298 1043 690F0000 		.4byte	0xf69
 2299 1047 20       		.uleb128 0x20
 2300 1048 01       		.byte	0x1
 2301 1049 5E000000 		.4byte	0x5e
 2302 104d 17       		.byte	0x17
 2303 104e 5D       		.byte	0x5d
 2304 104f 66100000 		.4byte	0x1066
 2305 1053 21       		.uleb128 0x21
 2306 1054 B8020000 		.4byte	.LASF206
 2307 1058 00       		.byte	0
 2308 1059 21       		.uleb128 0x21
 2309 105a F3090000 		.4byte	.LASF207
 2310 105e 01       		.byte	0x1
 2311 105f 21       		.uleb128 0x21
 2312 1060 9A080000 		.4byte	.LASF208
 2313 1064 02       		.byte	0x2
 2314 1065 00       		.byte	0
 2315 1066 03       		.uleb128 0x3
 2316 1067 80080000 		.4byte	.LASF209
 2317 106b 17       		.byte	0x17
 2318 106c 61       		.byte	0x61
 2319 106d 47100000 		.4byte	0x1047
 2320 1071 03       		.uleb128 0x3
 2321 1072 5B080000 		.4byte	.LASF210
 2322 1076 17       		.byte	0x17
 2323 1077 66       		.byte	0x66
 2324 1078 7C100000 		.4byte	0x107c
 2325 107c 07       		.uleb128 0x7
 2326 107d 5B080000 		.4byte	.LASF210
 2327 1081 78       		.byte	0x78
 2328 1082 17       		.byte	0x17
 2329 1083 80       		.byte	0x80
 2330 1084 E7100000 		.4byte	0x10e7
 2331 1088 09       		.uleb128 0x9
 2332 1089 766D7400 		.ascii	"vmt\000"
 2333 108d 17       		.byte	0x17
 2334 108e 82       		.byte	0x82
 2335 108f 6F110000 		.4byte	0x116f
 2336 1093 00       		.byte	0
 2337 1094 08       		.uleb128 0x8
ARM GAS  /tmp/cc3pBf8T.s 			page 42


 2338 1095 8E050000 		.4byte	.LASF211
 2339 1099 17       		.byte	0x17
 2340 109a 83       		.byte	0x83
 2341 109b 63050000 		.4byte	0x563
 2342 109f 04       		.byte	0x4
 2343 10a0 08       		.uleb128 0x8
 2344 10a1 C0000000 		.4byte	.LASF194
 2345 10a5 17       		.byte	0x17
 2346 10a6 83       		.byte	0x83
 2347 10a7 66100000 		.4byte	0x1066
 2348 10ab 08       		.byte	0x8
 2349 10ac 08       		.uleb128 0x8
 2350 10ad D4080000 		.4byte	.LASF212
 2351 10b1 17       		.byte	0x17
 2352 10b2 83       		.byte	0x83
 2353 10b3 7C070000 		.4byte	0x77c
 2354 10b7 0C       		.byte	0xc
 2355 10b8 08       		.uleb128 0x8
 2356 10b9 FD010000 		.4byte	.LASF213
 2357 10bd 17       		.byte	0x17
 2358 10be 83       		.byte	0x83
 2359 10bf 87070000 		.4byte	0x787
 2360 10c3 30       		.byte	0x30
 2361 10c4 09       		.uleb128 0x9
 2362 10c5 696200   		.ascii	"ib\000"
 2363 10c8 17       		.byte	0x17
 2364 10c9 83       		.byte	0x83
 2365 10ca 75110000 		.4byte	0x1175
 2366 10ce 54       		.byte	0x54
 2367 10cf 09       		.uleb128 0x9
 2368 10d0 6F6200   		.ascii	"ob\000"
 2369 10d3 17       		.byte	0x17
 2370 10d4 83       		.byte	0x83
 2371 10d5 75110000 		.4byte	0x1175
 2372 10d9 64       		.byte	0x64
 2373 10da 08       		.uleb128 0x8
 2374 10db CF080000 		.4byte	.LASF214
 2375 10df 17       		.byte	0x17
 2376 10e0 83       		.byte	0x83
 2377 10e1 85110000 		.4byte	0x1185
 2378 10e5 74       		.byte	0x74
 2379 10e6 00       		.byte	0
 2380 10e7 22       		.uleb128 0x22
 2381 10e8 53443100 		.ascii	"SD1\000"
 2382 10ec 18       		.byte	0x18
 2383 10ed EF       		.byte	0xef
 2384 10ee 71100000 		.4byte	0x1071
 2385 10f2 22       		.uleb128 0x22
 2386 10f3 53443300 		.ascii	"SD3\000"
 2387 10f7 18       		.byte	0x18
 2388 10f8 F7       		.byte	0xf7
 2389 10f9 71100000 		.4byte	0x1071
 2390 10fd 07       		.uleb128 0x7
 2391 10fe 85040000 		.4byte	.LASF215
 2392 1102 20       		.byte	0x20
 2393 1103 17       		.byte	0x17
 2394 1104 75       		.byte	0x75
ARM GAS  /tmp/cc3pBf8T.s 			page 43


 2395 1105 6A110000 		.4byte	0x116a
 2396 1109 08       		.uleb128 0x8
 2397 110a 9A000000 		.4byte	.LASF216
 2398 110e 17       		.byte	0x17
 2399 110f 76       		.byte	0x76
 2400 1110 B1070000 		.4byte	0x7b1
 2401 1114 00       		.byte	0
 2402 1115 08       		.uleb128 0x8
 2403 1116 9C050000 		.4byte	.LASF217
 2404 111a 17       		.byte	0x17
 2405 111b 76       		.byte	0x76
 2406 111c D0070000 		.4byte	0x7d0
 2407 1120 04       		.byte	0x4
 2408 1121 09       		.uleb128 0x9
 2409 1122 70757400 		.ascii	"put\000"
 2410 1126 17       		.byte	0x17
 2411 1127 76       		.byte	0x76
 2412 1128 EA070000 		.4byte	0x7ea
 2413 112c 08       		.byte	0x8
 2414 112d 09       		.uleb128 0x9
 2415 112e 67657400 		.ascii	"get\000"
 2416 1132 17       		.byte	0x17
 2417 1133 76       		.byte	0x76
 2418 1134 BB050000 		.4byte	0x5bb
 2419 1138 0C       		.byte	0xc
 2420 1139 08       		.uleb128 0x8
 2421 113a C6000000 		.4byte	.LASF218
 2422 113e 17       		.byte	0x17
 2423 113f 76       		.byte	0x76
 2424 1140 1C0E0000 		.4byte	0xe1c
 2425 1144 10       		.byte	0x10
 2426 1145 08       		.uleb128 0x8
 2427 1146 21030000 		.4byte	.LASF219
 2428 114a 17       		.byte	0x17
 2429 114b 76       		.byte	0x76
 2430 114c 360E0000 		.4byte	0xe36
 2431 1150 14       		.byte	0x14
 2432 1151 08       		.uleb128 0x8
 2433 1152 64000000 		.4byte	.LASF220
 2434 1156 17       		.byte	0x17
 2435 1157 76       		.byte	0x76
 2436 1158 5A0E0000 		.4byte	0xe5a
 2437 115c 18       		.byte	0x18
 2438 115d 08       		.uleb128 0x8
 2439 115e 58010000 		.4byte	.LASF221
 2440 1162 17       		.byte	0x17
 2441 1163 76       		.byte	0x76
 2442 1164 7E0E0000 		.4byte	0xe7e
 2443 1168 1C       		.byte	0x1c
 2444 1169 00       		.byte	0
 2445 116a 06       		.uleb128 0x6
 2446 116b FD100000 		.4byte	0x10fd
 2447 116f 0B       		.uleb128 0xb
 2448 1170 04       		.byte	0x4
 2449 1171 6A110000 		.4byte	0x116a
 2450 1175 15       		.uleb128 0x15
 2451 1176 B4000000 		.4byte	0xb4
ARM GAS  /tmp/cc3pBf8T.s 			page 44


 2452 117a 85110000 		.4byte	0x1185
 2453 117e 16       		.uleb128 0x16
 2454 117f 87030000 		.4byte	0x387
 2455 1183 0F       		.byte	0xf
 2456 1184 00       		.byte	0
 2457 1185 0B       		.uleb128 0xb
 2458 1186 04       		.byte	0x4
 2459 1187 ED0C0000 		.4byte	0xced
 2460 118b 20       		.uleb128 0x20
 2461 118c 01       		.byte	0x1
 2462 118d 5E000000 		.4byte	0x5e
 2463 1191 19       		.byte	0x19
 2464 1192 4E       		.byte	0x4e
 2465 1193 B6110000 		.4byte	0x11b6
 2466 1197 21       		.uleb128 0x21
 2467 1198 93010000 		.4byte	.LASF222
 2468 119c 00       		.byte	0
 2469 119d 21       		.uleb128 0x21
 2470 119e 81010000 		.4byte	.LASF223
 2471 11a2 01       		.byte	0x1
 2472 11a3 21       		.uleb128 0x21
 2473 11a4 08050000 		.4byte	.LASF224
 2474 11a8 02       		.byte	0x2
 2475 11a9 21       		.uleb128 0x21
 2476 11aa D6050000 		.4byte	.LASF225
 2477 11ae 03       		.byte	0x3
 2478 11af 21       		.uleb128 0x21
 2479 11b0 6D090000 		.4byte	.LASF226
 2480 11b4 04       		.byte	0x4
 2481 11b5 00       		.byte	0
 2482 11b6 03       		.uleb128 0x3
 2483 11b7 B8090000 		.4byte	.LASF227
 2484 11bb 19       		.byte	0x19
 2485 11bc 54       		.byte	0x54
 2486 11bd 8B110000 		.4byte	0x118b
 2487 11c1 03       		.uleb128 0x3
 2488 11c2 89020000 		.4byte	.LASF228
 2489 11c6 1A       		.byte	0x1a
 2490 11c7 D0       		.byte	0xd0
 2491 11c8 CC110000 		.4byte	0x11cc
 2492 11cc 07       		.uleb128 0x7
 2493 11cd 89020000 		.4byte	.LASF228
 2494 11d1 30       		.byte	0x30
 2495 11d2 1A       		.byte	0x1a
 2496 11d3 F8       		.byte	0xf8
 2497 11d4 4D120000 		.4byte	0x124d
 2498 11d8 08       		.uleb128 0x8
 2499 11d9 C0000000 		.4byte	.LASF194
 2500 11dd 1A       		.byte	0x1a
 2501 11de FC       		.byte	0xfc
 2502 11df B6110000 		.4byte	0x11b6
 2503 11e3 00       		.byte	0
 2504 11e4 1A       		.uleb128 0x1a
 2505 11e5 B9000000 		.4byte	.LASF195
 2506 11e9 1A       		.byte	0x1a
 2507 11ea 0001     		.2byte	0x100
 2508 11ec C4120000 		.4byte	0x12c4
ARM GAS  /tmp/cc3pBf8T.s 			page 45


 2509 11f0 04       		.byte	0x4
 2510 11f1 1A       		.uleb128 0x1a
 2511 11f2 AB080000 		.4byte	.LASF229
 2512 11f6 1A       		.byte	0x1a
 2513 11f7 0501     		.2byte	0x105
 2514 11f9 A1020000 		.4byte	0x2a1
 2515 11fd 08       		.byte	0x8
 2516 11fe 1A       		.uleb128 0x1a
 2517 11ff 51050000 		.4byte	.LASF230
 2518 1203 1A       		.byte	0x1a
 2519 1204 0C01     		.2byte	0x10c
 2520 1206 F1040000 		.4byte	0x4f1
 2521 120a 0C       		.byte	0xc
 2522 120b 0E       		.uleb128 0xe
 2523 120c 73737000 		.ascii	"ssp\000"
 2524 1210 1A       		.byte	0x1a
 2525 1211 1801     		.2byte	0x118
 2526 1213 CA120000 		.4byte	0x12ca
 2527 1217 1C       		.byte	0x1c
 2528 1218 1A       		.uleb128 0x1a
 2529 1219 AD040000 		.4byte	.LASF231
 2530 121d 1A       		.byte	0x1a
 2531 121e 1C01     		.2byte	0x11c
 2532 1220 E9000000 		.4byte	0xe9
 2533 1224 20       		.byte	0x20
 2534 1225 1A       		.uleb128 0x1a
 2535 1226 DD020000 		.4byte	.LASF232
 2536 122a 1A       		.byte	0x1a
 2537 122b 2001     		.2byte	0x120
 2538 122d DD020000 		.4byte	0x2dd
 2539 1231 24       		.byte	0x24
 2540 1232 1A       		.uleb128 0x1a
 2541 1233 AD010000 		.4byte	.LASF233
 2542 1237 1A       		.byte	0x1a
 2543 1238 2401     		.2byte	0x124
 2544 123a E9000000 		.4byte	0xe9
 2545 123e 28       		.byte	0x28
 2546 123f 1A       		.uleb128 0x1a
 2547 1240 1B0A0000 		.4byte	.LASF234
 2548 1244 1A       		.byte	0x1a
 2549 1245 2801     		.2byte	0x128
 2550 1247 D0120000 		.4byte	0x12d0
 2551 124b 2C       		.byte	0x2c
 2552 124c 00       		.byte	0
 2553 124d 03       		.uleb128 0x3
 2554 124e 9A020000 		.4byte	.LASF235
 2555 1252 1A       		.byte	0x1a
 2556 1253 D8       		.byte	0xd8
 2557 1254 58120000 		.4byte	0x1258
 2558 1258 0B       		.uleb128 0xb
 2559 1259 04       		.byte	0x4
 2560 125a 5E120000 		.4byte	0x125e
 2561 125e 0F       		.uleb128 0xf
 2562 125f 69120000 		.4byte	0x1269
 2563 1263 10       		.uleb128 0x10
 2564 1264 69120000 		.4byte	0x1269
 2565 1268 00       		.byte	0
ARM GAS  /tmp/cc3pBf8T.s 			page 46


 2566 1269 0B       		.uleb128 0xb
 2567 126a 04       		.byte	0x4
 2568 126b C1110000 		.4byte	0x11c1
 2569 126f 0A       		.uleb128 0xa
 2570 1270 10       		.byte	0x10
 2571 1271 1A       		.byte	0x1a
 2572 1272 DD       		.byte	0xdd
 2573 1273 B4120000 		.4byte	0x12b4
 2574 1277 08       		.uleb128 0x8
 2575 1278 19010000 		.4byte	.LASF236
 2576 127c 1A       		.byte	0x1a
 2577 127d E1       		.byte	0xe1
 2578 127e 4D120000 		.4byte	0x124d
 2579 1282 00       		.byte	0
 2580 1283 08       		.uleb128 0x8
 2581 1284 7F000000 		.4byte	.LASF237
 2582 1288 1A       		.byte	0x1a
 2583 1289 E6       		.byte	0xe6
 2584 128a 160F0000 		.4byte	0xf16
 2585 128e 04       		.byte	0x4
 2586 128f 08       		.uleb128 0x8
 2587 1290 0D0A0000 		.4byte	.LASF238
 2588 1294 1A       		.byte	0x1a
 2589 1295 EA       		.byte	0xea
 2590 1296 C9000000 		.4byte	0xc9
 2591 129a 08       		.byte	0x8
 2592 129b 09       		.uleb128 0x9
 2593 129c 63723000 		.ascii	"cr0\000"
 2594 12a0 1A       		.byte	0x1a
 2595 12a1 EE       		.byte	0xee
 2596 12a2 C9000000 		.4byte	0xc9
 2597 12a6 0A       		.byte	0xa
 2598 12a7 08       		.uleb128 0x8
 2599 12a8 B3040000 		.4byte	.LASF239
 2600 12ac 1A       		.byte	0x1a
 2601 12ad F2       		.byte	0xf2
 2602 12ae E9000000 		.4byte	0xe9
 2603 12b2 0C       		.byte	0xc
 2604 12b3 00       		.byte	0
 2605 12b4 03       		.uleb128 0x3
 2606 12b5 CC050000 		.4byte	.LASF240
 2607 12b9 1A       		.byte	0x1a
 2608 12ba F3       		.byte	0xf3
 2609 12bb 6F120000 		.4byte	0x126f
 2610 12bf 06       		.uleb128 0x6
 2611 12c0 B4120000 		.4byte	0x12b4
 2612 12c4 0B       		.uleb128 0xb
 2613 12c5 04       		.byte	0x4
 2614 12c6 BF120000 		.4byte	0x12bf
 2615 12ca 0B       		.uleb128 0xb
 2616 12cb 04       		.byte	0x4
 2617 12cc 830D0000 		.4byte	0xd83
 2618 12d0 0B       		.uleb128 0xb
 2619 12d1 04       		.byte	0x4
 2620 12d2 D6120000 		.4byte	0x12d6
 2621 12d6 23       		.uleb128 0x23
 2622 12d7 17       		.uleb128 0x17
ARM GAS  /tmp/cc3pBf8T.s 			page 47


 2623 12d8 CB000000 		.4byte	.LASF241
 2624 12dc 1A       		.byte	0x1a
 2625 12dd 3401     		.2byte	0x134
 2626 12df C1110000 		.4byte	0x11c1
 2627 12e3 17       		.uleb128 0x17
 2628 12e4 D1000000 		.4byte	.LASF242
 2629 12e8 1A       		.byte	0x1a
 2630 12e9 3801     		.2byte	0x138
 2631 12eb C1110000 		.4byte	0x11c1
 2632 12ef 24       		.uleb128 0x24
 2633 12f0 F4000000 		.4byte	.LASF246
 2634 12f4 01       		.byte	0x1
 2635 12f5 8B       		.byte	0x8b
 2636 12f6 00000000 		.4byte	.LFB66
 2637 12fa 28000000 		.4byte	.LFE66-.LFB66
 2638 12fe 01       		.uleb128 0x1
 2639 12ff 9C       		.byte	0x9c
 2640 1300 2E130000 		.4byte	0x132e
 2641 1304 25       		.uleb128 0x25
 2642 1305 B2080000 		.4byte	.LASF243
 2643 1309 01       		.byte	0x1
 2644 130a 8B       		.byte	0x8b
 2645 130b 160F0000 		.4byte	0xf16
 2646 130f 01       		.uleb128 0x1
 2647 1310 50       		.byte	0x50
 2648 1311 26       		.uleb128 0x26
 2649 1312 4C050000 		.4byte	.LASF244
 2650 1316 01       		.byte	0x1
 2651 1317 8C       		.byte	0x8c
 2652 1318 000F0000 		.4byte	0xf00
 2653 131c 00000000 		.4byte	.LLST5
 2654 1320 25       		.uleb128 0x25
 2655 1321 CA080000 		.4byte	.LASF245
 2656 1325 01       		.byte	0x1
 2657 1326 8D       		.byte	0x8d
 2658 1327 0B0F0000 		.4byte	0xf0b
 2659 132b 01       		.uleb128 0x1
 2660 132c 52       		.byte	0x52
 2661 132d 00       		.byte	0
 2662 132e 24       		.uleb128 0x24
 2663 132f 43070000 		.4byte	.LASF247
 2664 1333 01       		.byte	0x1
 2665 1334 73       		.byte	0x73
 2666 1335 00000000 		.4byte	.LFB65
 2667 1339 10000000 		.4byte	.LFE65-.LFB65
 2668 133d 01       		.uleb128 0x1
 2669 133e 9C       		.byte	0x9c
 2670 133f 7C130000 		.4byte	0x137c
 2671 1343 25       		.uleb128 0x25
 2672 1344 B2080000 		.4byte	.LASF243
 2673 1348 01       		.byte	0x1
 2674 1349 73       		.byte	0x73
 2675 134a 160F0000 		.4byte	0xf16
 2676 134e 01       		.uleb128 0x1
 2677 134f 50       		.byte	0x50
 2678 1350 26       		.uleb128 0x26
 2679 1351 4C050000 		.4byte	.LASF244
ARM GAS  /tmp/cc3pBf8T.s 			page 48


 2680 1355 01       		.byte	0x1
 2681 1356 74       		.byte	0x74
 2682 1357 000F0000 		.4byte	0xf00
 2683 135b 3A000000 		.4byte	.LLST3
 2684 135f 26       		.uleb128 0x26
 2685 1360 06070000 		.4byte	.LASF248
 2686 1364 01       		.byte	0x1
 2687 1365 75       		.byte	0x75
 2688 1366 E9000000 		.4byte	0xe9
 2689 136a 5B000000 		.4byte	.LLST4
 2690 136e 25       		.uleb128 0x25
 2691 136f 62060000 		.4byte	.LASF249
 2692 1373 01       		.byte	0x1
 2693 1374 76       		.byte	0x76
 2694 1375 E9000000 		.4byte	0xe9
 2695 1379 01       		.uleb128 0x1
 2696 137a 53       		.byte	0x53
 2697 137b 00       		.byte	0
 2698 137c 27       		.uleb128 0x27
 2699 137d D6090000 		.4byte	.LASF254
 2700 1381 01       		.byte	0x1
 2701 1382 59       		.byte	0x59
 2702 1383 E9000000 		.4byte	0xe9
 2703 1387 00000000 		.4byte	.LFB64
 2704 138b 12000000 		.4byte	.LFE64-.LFB64
 2705 138f 01       		.uleb128 0x1
 2706 1390 9C       		.byte	0x9c
 2707 1391 CE130000 		.4byte	0x13ce
 2708 1395 26       		.uleb128 0x26
 2709 1396 B2080000 		.4byte	.LASF243
 2710 139a 01       		.byte	0x1
 2711 139b 59       		.byte	0x59
 2712 139c 160F0000 		.4byte	0xf16
 2713 13a0 7C000000 		.4byte	.LLST0
 2714 13a4 26       		.uleb128 0x26
 2715 13a5 4C050000 		.4byte	.LASF244
 2716 13a9 01       		.byte	0x1
 2717 13aa 5A       		.byte	0x5a
 2718 13ab 000F0000 		.4byte	0xf00
 2719 13af 9A000000 		.4byte	.LLST1
 2720 13b3 26       		.uleb128 0x26
 2721 13b4 06070000 		.4byte	.LASF248
 2722 13b8 01       		.byte	0x1
 2723 13b9 5B       		.byte	0x5b
 2724 13ba E9000000 		.4byte	0xe9
 2725 13be BB000000 		.4byte	.LLST2
 2726 13c2 28       		.uleb128 0x28
 2727 13c3 7000     		.ascii	"p\000"
 2728 13c5 01       		.byte	0x1
 2729 13c6 5D       		.byte	0x5d
 2730 13c7 E9000000 		.4byte	0xe9
 2731 13cb 01       		.uleb128 0x1
 2732 13cc 50       		.byte	0x50
 2733 13cd 00       		.byte	0
 2734 13ce 24       		.uleb128 0x24
 2735 13cf AE050000 		.4byte	.LASF250
 2736 13d3 01       		.byte	0x1
ARM GAS  /tmp/cc3pBf8T.s 			page 49


 2737 13d4 39       		.byte	0x39
 2738 13d5 00000000 		.4byte	.LFB63
 2739 13d9 58000000 		.4byte	.LFE63-.LFB63
 2740 13dd 01       		.uleb128 0x1
 2741 13de 9C       		.byte	0x9c
 2742 13df F1130000 		.4byte	0x13f1
 2743 13e3 25       		.uleb128 0x25
 2744 13e4 B9000000 		.4byte	.LASF195
 2745 13e8 01       		.byte	0x1
 2746 13e9 39       		.byte	0x39
 2747 13ea F1130000 		.4byte	0x13f1
 2748 13ee 01       		.uleb128 0x1
 2749 13ef 50       		.byte	0x50
 2750 13f0 00       		.byte	0
 2751 13f1 0B       		.uleb128 0xb
 2752 13f2 04       		.byte	0x4
 2753 13f3 FB0E0000 		.4byte	0xefb
 2754 13f7 00       		.byte	0
 2755              		.section	.debug_abbrev,"",%progbits
 2756              	.Ldebug_abbrev0:
 2757 0000 01       		.uleb128 0x1
 2758 0001 11       		.uleb128 0x11
 2759 0002 01       		.byte	0x1
 2760 0003 25       		.uleb128 0x25
 2761 0004 0E       		.uleb128 0xe
 2762 0005 13       		.uleb128 0x13
 2763 0006 0B       		.uleb128 0xb
 2764 0007 03       		.uleb128 0x3
 2765 0008 0E       		.uleb128 0xe
 2766 0009 1B       		.uleb128 0x1b
 2767 000a 0E       		.uleb128 0xe
 2768 000b 55       		.uleb128 0x55
 2769 000c 17       		.uleb128 0x17
 2770 000d 11       		.uleb128 0x11
 2771 000e 01       		.uleb128 0x1
 2772 000f 10       		.uleb128 0x10
 2773 0010 17       		.uleb128 0x17
 2774 0011 00       		.byte	0
 2775 0012 00       		.byte	0
 2776 0013 02       		.uleb128 0x2
 2777 0014 24       		.uleb128 0x24
 2778 0015 00       		.byte	0
 2779 0016 0B       		.uleb128 0xb
 2780 0017 0B       		.uleb128 0xb
 2781 0018 3E       		.uleb128 0x3e
 2782 0019 0B       		.uleb128 0xb
 2783 001a 03       		.uleb128 0x3
 2784 001b 08       		.uleb128 0x8
 2785 001c 00       		.byte	0
 2786 001d 00       		.byte	0
 2787 001e 03       		.uleb128 0x3
 2788 001f 16       		.uleb128 0x16
 2789 0020 00       		.byte	0
 2790 0021 03       		.uleb128 0x3
 2791 0022 0E       		.uleb128 0xe
 2792 0023 3A       		.uleb128 0x3a
 2793 0024 0B       		.uleb128 0xb
ARM GAS  /tmp/cc3pBf8T.s 			page 50


 2794 0025 3B       		.uleb128 0x3b
 2795 0026 0B       		.uleb128 0xb
 2796 0027 49       		.uleb128 0x49
 2797 0028 13       		.uleb128 0x13
 2798 0029 00       		.byte	0
 2799 002a 00       		.byte	0
 2800 002b 04       		.uleb128 0x4
 2801 002c 24       		.uleb128 0x24
 2802 002d 00       		.byte	0
 2803 002e 0B       		.uleb128 0xb
 2804 002f 0B       		.uleb128 0xb
 2805 0030 3E       		.uleb128 0x3e
 2806 0031 0B       		.uleb128 0xb
 2807 0032 03       		.uleb128 0x3
 2808 0033 0E       		.uleb128 0xe
 2809 0034 00       		.byte	0
 2810 0035 00       		.byte	0
 2811 0036 05       		.uleb128 0x5
 2812 0037 35       		.uleb128 0x35
 2813 0038 00       		.byte	0
 2814 0039 49       		.uleb128 0x49
 2815 003a 13       		.uleb128 0x13
 2816 003b 00       		.byte	0
 2817 003c 00       		.byte	0
 2818 003d 06       		.uleb128 0x6
 2819 003e 26       		.uleb128 0x26
 2820 003f 00       		.byte	0
 2821 0040 49       		.uleb128 0x49
 2822 0041 13       		.uleb128 0x13
 2823 0042 00       		.byte	0
 2824 0043 00       		.byte	0
 2825 0044 07       		.uleb128 0x7
 2826 0045 13       		.uleb128 0x13
 2827 0046 01       		.byte	0x1
 2828 0047 03       		.uleb128 0x3
 2829 0048 0E       		.uleb128 0xe
 2830 0049 0B       		.uleb128 0xb
 2831 004a 0B       		.uleb128 0xb
 2832 004b 3A       		.uleb128 0x3a
 2833 004c 0B       		.uleb128 0xb
 2834 004d 3B       		.uleb128 0x3b
 2835 004e 0B       		.uleb128 0xb
 2836 004f 01       		.uleb128 0x1
 2837 0050 13       		.uleb128 0x13
 2838 0051 00       		.byte	0
 2839 0052 00       		.byte	0
 2840 0053 08       		.uleb128 0x8
 2841 0054 0D       		.uleb128 0xd
 2842 0055 00       		.byte	0
 2843 0056 03       		.uleb128 0x3
 2844 0057 0E       		.uleb128 0xe
 2845 0058 3A       		.uleb128 0x3a
 2846 0059 0B       		.uleb128 0xb
 2847 005a 3B       		.uleb128 0x3b
 2848 005b 0B       		.uleb128 0xb
 2849 005c 49       		.uleb128 0x49
 2850 005d 13       		.uleb128 0x13
ARM GAS  /tmp/cc3pBf8T.s 			page 51


 2851 005e 38       		.uleb128 0x38
 2852 005f 0B       		.uleb128 0xb
 2853 0060 00       		.byte	0
 2854 0061 00       		.byte	0
 2855 0062 09       		.uleb128 0x9
 2856 0063 0D       		.uleb128 0xd
 2857 0064 00       		.byte	0
 2858 0065 03       		.uleb128 0x3
 2859 0066 08       		.uleb128 0x8
 2860 0067 3A       		.uleb128 0x3a
 2861 0068 0B       		.uleb128 0xb
 2862 0069 3B       		.uleb128 0x3b
 2863 006a 0B       		.uleb128 0xb
 2864 006b 49       		.uleb128 0x49
 2865 006c 13       		.uleb128 0x13
 2866 006d 38       		.uleb128 0x38
 2867 006e 0B       		.uleb128 0xb
 2868 006f 00       		.byte	0
 2869 0070 00       		.byte	0
 2870 0071 0A       		.uleb128 0xa
 2871 0072 13       		.uleb128 0x13
 2872 0073 01       		.byte	0x1
 2873 0074 0B       		.uleb128 0xb
 2874 0075 0B       		.uleb128 0xb
 2875 0076 3A       		.uleb128 0x3a
 2876 0077 0B       		.uleb128 0xb
 2877 0078 3B       		.uleb128 0x3b
 2878 0079 0B       		.uleb128 0xb
 2879 007a 01       		.uleb128 0x1
 2880 007b 13       		.uleb128 0x13
 2881 007c 00       		.byte	0
 2882 007d 00       		.byte	0
 2883 007e 0B       		.uleb128 0xb
 2884 007f 0F       		.uleb128 0xf
 2885 0080 00       		.byte	0
 2886 0081 0B       		.uleb128 0xb
 2887 0082 0B       		.uleb128 0xb
 2888 0083 49       		.uleb128 0x49
 2889 0084 13       		.uleb128 0x13
 2890 0085 00       		.byte	0
 2891 0086 00       		.byte	0
 2892 0087 0C       		.uleb128 0xc
 2893 0088 0F       		.uleb128 0xf
 2894 0089 00       		.byte	0
 2895 008a 0B       		.uleb128 0xb
 2896 008b 0B       		.uleb128 0xb
 2897 008c 00       		.byte	0
 2898 008d 00       		.byte	0
 2899 008e 0D       		.uleb128 0xd
 2900 008f 13       		.uleb128 0x13
 2901 0090 01       		.byte	0x1
 2902 0091 03       		.uleb128 0x3
 2903 0092 0E       		.uleb128 0xe
 2904 0093 0B       		.uleb128 0xb
 2905 0094 0B       		.uleb128 0xb
 2906 0095 3A       		.uleb128 0x3a
 2907 0096 0B       		.uleb128 0xb
ARM GAS  /tmp/cc3pBf8T.s 			page 52


 2908 0097 3B       		.uleb128 0x3b
 2909 0098 05       		.uleb128 0x5
 2910 0099 01       		.uleb128 0x1
 2911 009a 13       		.uleb128 0x13
 2912 009b 00       		.byte	0
 2913 009c 00       		.byte	0
 2914 009d 0E       		.uleb128 0xe
 2915 009e 0D       		.uleb128 0xd
 2916 009f 00       		.byte	0
 2917 00a0 03       		.uleb128 0x3
 2918 00a1 08       		.uleb128 0x8
 2919 00a2 3A       		.uleb128 0x3a
 2920 00a3 0B       		.uleb128 0xb
 2921 00a4 3B       		.uleb128 0x3b
 2922 00a5 05       		.uleb128 0x5
 2923 00a6 49       		.uleb128 0x49
 2924 00a7 13       		.uleb128 0x13
 2925 00a8 38       		.uleb128 0x38
 2926 00a9 0B       		.uleb128 0xb
 2927 00aa 00       		.byte	0
 2928 00ab 00       		.byte	0
 2929 00ac 0F       		.uleb128 0xf
 2930 00ad 15       		.uleb128 0x15
 2931 00ae 01       		.byte	0x1
 2932 00af 27       		.uleb128 0x27
 2933 00b0 19       		.uleb128 0x19
 2934 00b1 01       		.uleb128 0x1
 2935 00b2 13       		.uleb128 0x13
 2936 00b3 00       		.byte	0
 2937 00b4 00       		.byte	0
 2938 00b5 10       		.uleb128 0x10
 2939 00b6 05       		.uleb128 0x5
 2940 00b7 00       		.byte	0
 2941 00b8 49       		.uleb128 0x49
 2942 00b9 13       		.uleb128 0x13
 2943 00ba 00       		.byte	0
 2944 00bb 00       		.byte	0
 2945 00bc 11       		.uleb128 0x11
 2946 00bd 34       		.uleb128 0x34
 2947 00be 00       		.byte	0
 2948 00bf 03       		.uleb128 0x3
 2949 00c0 0E       		.uleb128 0xe
 2950 00c1 3A       		.uleb128 0x3a
 2951 00c2 0B       		.uleb128 0xb
 2952 00c3 3B       		.uleb128 0x3b
 2953 00c4 0B       		.uleb128 0xb
 2954 00c5 49       		.uleb128 0x49
 2955 00c6 13       		.uleb128 0x13
 2956 00c7 3F       		.uleb128 0x3f
 2957 00c8 19       		.uleb128 0x19
 2958 00c9 3C       		.uleb128 0x3c
 2959 00ca 19       		.uleb128 0x19
 2960 00cb 00       		.byte	0
 2961 00cc 00       		.byte	0
 2962 00cd 12       		.uleb128 0x12
 2963 00ce 17       		.uleb128 0x17
 2964 00cf 01       		.byte	0x1
ARM GAS  /tmp/cc3pBf8T.s 			page 53


 2965 00d0 0B       		.uleb128 0xb
 2966 00d1 0B       		.uleb128 0xb
 2967 00d2 3A       		.uleb128 0x3a
 2968 00d3 0B       		.uleb128 0xb
 2969 00d4 3B       		.uleb128 0x3b
 2970 00d5 0B       		.uleb128 0xb
 2971 00d6 01       		.uleb128 0x1
 2972 00d7 13       		.uleb128 0x13
 2973 00d8 00       		.byte	0
 2974 00d9 00       		.byte	0
 2975 00da 13       		.uleb128 0x13
 2976 00db 0D       		.uleb128 0xd
 2977 00dc 00       		.byte	0
 2978 00dd 03       		.uleb128 0x3
 2979 00de 0E       		.uleb128 0xe
 2980 00df 3A       		.uleb128 0x3a
 2981 00e0 0B       		.uleb128 0xb
 2982 00e1 3B       		.uleb128 0x3b
 2983 00e2 0B       		.uleb128 0xb
 2984 00e3 49       		.uleb128 0x49
 2985 00e4 13       		.uleb128 0x13
 2986 00e5 00       		.byte	0
 2987 00e6 00       		.byte	0
 2988 00e7 14       		.uleb128 0x14
 2989 00e8 15       		.uleb128 0x15
 2990 00e9 01       		.byte	0x1
 2991 00ea 27       		.uleb128 0x27
 2992 00eb 19       		.uleb128 0x19
 2993 00ec 49       		.uleb128 0x49
 2994 00ed 13       		.uleb128 0x13
 2995 00ee 01       		.uleb128 0x1
 2996 00ef 13       		.uleb128 0x13
 2997 00f0 00       		.byte	0
 2998 00f1 00       		.byte	0
 2999 00f2 15       		.uleb128 0x15
 3000 00f3 01       		.uleb128 0x1
 3001 00f4 01       		.byte	0x1
 3002 00f5 49       		.uleb128 0x49
 3003 00f6 13       		.uleb128 0x13
 3004 00f7 01       		.uleb128 0x1
 3005 00f8 13       		.uleb128 0x13
 3006 00f9 00       		.byte	0
 3007 00fa 00       		.byte	0
 3008 00fb 16       		.uleb128 0x16
 3009 00fc 21       		.uleb128 0x21
 3010 00fd 00       		.byte	0
 3011 00fe 49       		.uleb128 0x49
 3012 00ff 13       		.uleb128 0x13
 3013 0100 2F       		.uleb128 0x2f
 3014 0101 0B       		.uleb128 0xb
 3015 0102 00       		.byte	0
 3016 0103 00       		.byte	0
 3017 0104 17       		.uleb128 0x17
 3018 0105 34       		.uleb128 0x34
 3019 0106 00       		.byte	0
 3020 0107 03       		.uleb128 0x3
 3021 0108 0E       		.uleb128 0xe
ARM GAS  /tmp/cc3pBf8T.s 			page 54


 3022 0109 3A       		.uleb128 0x3a
 3023 010a 0B       		.uleb128 0xb
 3024 010b 3B       		.uleb128 0x3b
 3025 010c 05       		.uleb128 0x5
 3026 010d 49       		.uleb128 0x49
 3027 010e 13       		.uleb128 0x13
 3028 010f 3F       		.uleb128 0x3f
 3029 0110 19       		.uleb128 0x19
 3030 0111 3C       		.uleb128 0x3c
 3031 0112 19       		.uleb128 0x19
 3032 0113 00       		.byte	0
 3033 0114 00       		.byte	0
 3034 0115 18       		.uleb128 0x18
 3035 0116 0D       		.uleb128 0xd
 3036 0117 00       		.byte	0
 3037 0118 49       		.uleb128 0x49
 3038 0119 13       		.uleb128 0x13
 3039 011a 00       		.byte	0
 3040 011b 00       		.byte	0
 3041 011c 19       		.uleb128 0x19
 3042 011d 13       		.uleb128 0x13
 3043 011e 01       		.byte	0x1
 3044 011f 0B       		.uleb128 0xb
 3045 0120 0B       		.uleb128 0xb
 3046 0121 3A       		.uleb128 0x3a
 3047 0122 0B       		.uleb128 0xb
 3048 0123 3B       		.uleb128 0x3b
 3049 0124 05       		.uleb128 0x5
 3050 0125 01       		.uleb128 0x1
 3051 0126 13       		.uleb128 0x13
 3052 0127 00       		.byte	0
 3053 0128 00       		.byte	0
 3054 0129 1A       		.uleb128 0x1a
 3055 012a 0D       		.uleb128 0xd
 3056 012b 00       		.byte	0
 3057 012c 03       		.uleb128 0x3
 3058 012d 0E       		.uleb128 0xe
 3059 012e 3A       		.uleb128 0x3a
 3060 012f 0B       		.uleb128 0xb
 3061 0130 3B       		.uleb128 0x3b
 3062 0131 05       		.uleb128 0x5
 3063 0132 49       		.uleb128 0x49
 3064 0133 13       		.uleb128 0x13
 3065 0134 38       		.uleb128 0x38
 3066 0135 0B       		.uleb128 0xb
 3067 0136 00       		.byte	0
 3068 0137 00       		.byte	0
 3069 0138 1B       		.uleb128 0x1b
 3070 0139 0D       		.uleb128 0xd
 3071 013a 00       		.byte	0
 3072 013b 49       		.uleb128 0x49
 3073 013c 13       		.uleb128 0x13
 3074 013d 38       		.uleb128 0x38
 3075 013e 0B       		.uleb128 0xb
 3076 013f 00       		.byte	0
 3077 0140 00       		.byte	0
 3078 0141 1C       		.uleb128 0x1c
ARM GAS  /tmp/cc3pBf8T.s 			page 55


 3079 0142 16       		.uleb128 0x16
 3080 0143 00       		.byte	0
 3081 0144 03       		.uleb128 0x3
 3082 0145 0E       		.uleb128 0xe
 3083 0146 3A       		.uleb128 0x3a
 3084 0147 0B       		.uleb128 0xb
 3085 0148 3B       		.uleb128 0x3b
 3086 0149 05       		.uleb128 0x5
 3087 014a 49       		.uleb128 0x49
 3088 014b 13       		.uleb128 0x13
 3089 014c 00       		.byte	0
 3090 014d 00       		.byte	0
 3091 014e 1D       		.uleb128 0x1d
 3092 014f 17       		.uleb128 0x17
 3093 0150 01       		.byte	0x1
 3094 0151 0B       		.uleb128 0xb
 3095 0152 0B       		.uleb128 0xb
 3096 0153 3A       		.uleb128 0x3a
 3097 0154 0B       		.uleb128 0xb
 3098 0155 3B       		.uleb128 0x3b
 3099 0156 05       		.uleb128 0x5
 3100 0157 01       		.uleb128 0x1
 3101 0158 13       		.uleb128 0x13
 3102 0159 00       		.byte	0
 3103 015a 00       		.byte	0
 3104 015b 1E       		.uleb128 0x1e
 3105 015c 0D       		.uleb128 0xd
 3106 015d 00       		.byte	0
 3107 015e 03       		.uleb128 0x3
 3108 015f 08       		.uleb128 0x8
 3109 0160 3A       		.uleb128 0x3a
 3110 0161 0B       		.uleb128 0xb
 3111 0162 3B       		.uleb128 0x3b
 3112 0163 05       		.uleb128 0x5
 3113 0164 49       		.uleb128 0x49
 3114 0165 13       		.uleb128 0x13
 3115 0166 00       		.byte	0
 3116 0167 00       		.byte	0
 3117 0168 1F       		.uleb128 0x1f
 3118 0169 21       		.uleb128 0x21
 3119 016a 00       		.byte	0
 3120 016b 00       		.byte	0
 3121 016c 00       		.byte	0
 3122 016d 20       		.uleb128 0x20
 3123 016e 04       		.uleb128 0x4
 3124 016f 01       		.byte	0x1
 3125 0170 0B       		.uleb128 0xb
 3126 0171 0B       		.uleb128 0xb
 3127 0172 49       		.uleb128 0x49
 3128 0173 13       		.uleb128 0x13
 3129 0174 3A       		.uleb128 0x3a
 3130 0175 0B       		.uleb128 0xb
 3131 0176 3B       		.uleb128 0x3b
 3132 0177 0B       		.uleb128 0xb
 3133 0178 01       		.uleb128 0x1
 3134 0179 13       		.uleb128 0x13
 3135 017a 00       		.byte	0
ARM GAS  /tmp/cc3pBf8T.s 			page 56


 3136 017b 00       		.byte	0
 3137 017c 21       		.uleb128 0x21
 3138 017d 28       		.uleb128 0x28
 3139 017e 00       		.byte	0
 3140 017f 03       		.uleb128 0x3
 3141 0180 0E       		.uleb128 0xe
 3142 0181 1C       		.uleb128 0x1c
 3143 0182 0B       		.uleb128 0xb
 3144 0183 00       		.byte	0
 3145 0184 00       		.byte	0
 3146 0185 22       		.uleb128 0x22
 3147 0186 34       		.uleb128 0x34
 3148 0187 00       		.byte	0
 3149 0188 03       		.uleb128 0x3
 3150 0189 08       		.uleb128 0x8
 3151 018a 3A       		.uleb128 0x3a
 3152 018b 0B       		.uleb128 0xb
 3153 018c 3B       		.uleb128 0x3b
 3154 018d 0B       		.uleb128 0xb
 3155 018e 49       		.uleb128 0x49
 3156 018f 13       		.uleb128 0x13
 3157 0190 3F       		.uleb128 0x3f
 3158 0191 19       		.uleb128 0x19
 3159 0192 3C       		.uleb128 0x3c
 3160 0193 19       		.uleb128 0x19
 3161 0194 00       		.byte	0
 3162 0195 00       		.byte	0
 3163 0196 23       		.uleb128 0x23
 3164 0197 26       		.uleb128 0x26
 3165 0198 00       		.byte	0
 3166 0199 00       		.byte	0
 3167 019a 00       		.byte	0
 3168 019b 24       		.uleb128 0x24
 3169 019c 2E       		.uleb128 0x2e
 3170 019d 01       		.byte	0x1
 3171 019e 3F       		.uleb128 0x3f
 3172 019f 19       		.uleb128 0x19
 3173 01a0 03       		.uleb128 0x3
 3174 01a1 0E       		.uleb128 0xe
 3175 01a2 3A       		.uleb128 0x3a
 3176 01a3 0B       		.uleb128 0xb
 3177 01a4 3B       		.uleb128 0x3b
 3178 01a5 0B       		.uleb128 0xb
 3179 01a6 27       		.uleb128 0x27
 3180 01a7 19       		.uleb128 0x19
 3181 01a8 11       		.uleb128 0x11
 3182 01a9 01       		.uleb128 0x1
 3183 01aa 12       		.uleb128 0x12
 3184 01ab 06       		.uleb128 0x6
 3185 01ac 40       		.uleb128 0x40
 3186 01ad 18       		.uleb128 0x18
 3187 01ae 9742     		.uleb128 0x2117
 3188 01b0 19       		.uleb128 0x19
 3189 01b1 01       		.uleb128 0x1
 3190 01b2 13       		.uleb128 0x13
 3191 01b3 00       		.byte	0
 3192 01b4 00       		.byte	0
ARM GAS  /tmp/cc3pBf8T.s 			page 57


 3193 01b5 25       		.uleb128 0x25
 3194 01b6 05       		.uleb128 0x5
 3195 01b7 00       		.byte	0
 3196 01b8 03       		.uleb128 0x3
 3197 01b9 0E       		.uleb128 0xe
 3198 01ba 3A       		.uleb128 0x3a
 3199 01bb 0B       		.uleb128 0xb
 3200 01bc 3B       		.uleb128 0x3b
 3201 01bd 0B       		.uleb128 0xb
 3202 01be 49       		.uleb128 0x49
 3203 01bf 13       		.uleb128 0x13
 3204 01c0 02       		.uleb128 0x2
 3205 01c1 18       		.uleb128 0x18
 3206 01c2 00       		.byte	0
 3207 01c3 00       		.byte	0
 3208 01c4 26       		.uleb128 0x26
 3209 01c5 05       		.uleb128 0x5
 3210 01c6 00       		.byte	0
 3211 01c7 03       		.uleb128 0x3
 3212 01c8 0E       		.uleb128 0xe
 3213 01c9 3A       		.uleb128 0x3a
 3214 01ca 0B       		.uleb128 0xb
 3215 01cb 3B       		.uleb128 0x3b
 3216 01cc 0B       		.uleb128 0xb
 3217 01cd 49       		.uleb128 0x49
 3218 01ce 13       		.uleb128 0x13
 3219 01cf 02       		.uleb128 0x2
 3220 01d0 17       		.uleb128 0x17
 3221 01d1 00       		.byte	0
 3222 01d2 00       		.byte	0
 3223 01d3 27       		.uleb128 0x27
 3224 01d4 2E       		.uleb128 0x2e
 3225 01d5 01       		.byte	0x1
 3226 01d6 3F       		.uleb128 0x3f
 3227 01d7 19       		.uleb128 0x19
 3228 01d8 03       		.uleb128 0x3
 3229 01d9 0E       		.uleb128 0xe
 3230 01da 3A       		.uleb128 0x3a
 3231 01db 0B       		.uleb128 0xb
 3232 01dc 3B       		.uleb128 0x3b
 3233 01dd 0B       		.uleb128 0xb
 3234 01de 27       		.uleb128 0x27
 3235 01df 19       		.uleb128 0x19
 3236 01e0 49       		.uleb128 0x49
 3237 01e1 13       		.uleb128 0x13
 3238 01e2 11       		.uleb128 0x11
 3239 01e3 01       		.uleb128 0x1
 3240 01e4 12       		.uleb128 0x12
 3241 01e5 06       		.uleb128 0x6
 3242 01e6 40       		.uleb128 0x40
 3243 01e7 18       		.uleb128 0x18
 3244 01e8 9742     		.uleb128 0x2117
 3245 01ea 19       		.uleb128 0x19
 3246 01eb 01       		.uleb128 0x1
 3247 01ec 13       		.uleb128 0x13
 3248 01ed 00       		.byte	0
 3249 01ee 00       		.byte	0
ARM GAS  /tmp/cc3pBf8T.s 			page 58


 3250 01ef 28       		.uleb128 0x28
 3251 01f0 34       		.uleb128 0x34
 3252 01f1 00       		.byte	0
 3253 01f2 03       		.uleb128 0x3
 3254 01f3 08       		.uleb128 0x8
 3255 01f4 3A       		.uleb128 0x3a
 3256 01f5 0B       		.uleb128 0xb
 3257 01f6 3B       		.uleb128 0x3b
 3258 01f7 0B       		.uleb128 0xb
 3259 01f8 49       		.uleb128 0x49
 3260 01f9 13       		.uleb128 0x13
 3261 01fa 02       		.uleb128 0x2
 3262 01fb 18       		.uleb128 0x18
 3263 01fc 00       		.byte	0
 3264 01fd 00       		.byte	0
 3265 01fe 00       		.byte	0
 3266              		.section	.debug_loc,"",%progbits
 3267              	.Ldebug_loc0:
 3268              	.LLST5:
 3269 0000 00000000 		.4byte	.LVL8
 3270 0004 1A000000 		.4byte	.LVL9
 3271 0008 0100     		.2byte	0x1
 3272 000a 51       		.byte	0x51
 3273 000b 1A000000 		.4byte	.LVL9
 3274 000f 1E000000 		.4byte	.LVL10
 3275 0013 0400     		.2byte	0x4
 3276 0015 F3       		.byte	0xf3
 3277 0016 01       		.uleb128 0x1
 3278 0017 51       		.byte	0x51
 3279 0018 9F       		.byte	0x9f
 3280 0019 1E000000 		.4byte	.LVL10
 3281 001d 24000000 		.4byte	.LVL11
 3282 0021 0100     		.2byte	0x1
 3283 0023 51       		.byte	0x51
 3284 0024 24000000 		.4byte	.LVL11
 3285 0028 28000000 		.4byte	.LFE66
 3286 002c 0400     		.2byte	0x4
 3287 002e F3       		.byte	0xf3
 3288 002f 01       		.uleb128 0x1
 3289 0030 51       		.byte	0x51
 3290 0031 9F       		.byte	0x9f
 3291 0032 00000000 		.4byte	0
 3292 0036 00000000 		.4byte	0
 3293              	.LLST3:
 3294 003a 00000000 		.4byte	.LVL5
 3295 003e 08000000 		.4byte	.LVL7
 3296 0042 0100     		.2byte	0x1
 3297 0044 51       		.byte	0x51
 3298 0045 08000000 		.4byte	.LVL7
 3299 0049 10000000 		.4byte	.LFE65
 3300 004d 0400     		.2byte	0x4
 3301 004f F3       		.byte	0xf3
 3302 0050 01       		.uleb128 0x1
 3303 0051 51       		.byte	0x51
 3304 0052 9F       		.byte	0x9f
 3305 0053 00000000 		.4byte	0
 3306 0057 00000000 		.4byte	0
ARM GAS  /tmp/cc3pBf8T.s 			page 59


 3307              	.LLST4:
 3308 005b 00000000 		.4byte	.LVL5
 3309 005f 04000000 		.4byte	.LVL6
 3310 0063 0100     		.2byte	0x1
 3311 0065 52       		.byte	0x52
 3312 0066 04000000 		.4byte	.LVL6
 3313 006a 10000000 		.4byte	.LFE65
 3314 006e 0400     		.2byte	0x4
 3315 0070 F3       		.byte	0xf3
 3316 0071 01       		.uleb128 0x1
 3317 0072 52       		.byte	0x52
 3318 0073 9F       		.byte	0x9f
 3319 0074 00000000 		.4byte	0
 3320 0078 00000000 		.4byte	0
 3321              	.LLST0:
 3322 007c 00000000 		.4byte	.LVL1
 3323 0080 0E000000 		.4byte	.LVL4
 3324 0084 0100     		.2byte	0x1
 3325 0086 50       		.byte	0x50
 3326 0087 0E000000 		.4byte	.LVL4
 3327 008b 12000000 		.4byte	.LFE64
 3328 008f 0100     		.2byte	0x1
 3329 0091 53       		.byte	0x53
 3330 0092 00000000 		.4byte	0
 3331 0096 00000000 		.4byte	0
 3332              	.LLST1:
 3333 009a 00000000 		.4byte	.LVL1
 3334 009e 0A000000 		.4byte	.LVL3
 3335 00a2 0100     		.2byte	0x1
 3336 00a4 51       		.byte	0x51
 3337 00a5 0A000000 		.4byte	.LVL3
 3338 00a9 12000000 		.4byte	.LFE64
 3339 00ad 0400     		.2byte	0x4
 3340 00af F3       		.byte	0xf3
 3341 00b0 01       		.uleb128 0x1
 3342 00b1 51       		.byte	0x51
 3343 00b2 9F       		.byte	0x9f
 3344 00b3 00000000 		.4byte	0
 3345 00b7 00000000 		.4byte	0
 3346              	.LLST2:
 3347 00bb 00000000 		.4byte	.LVL1
 3348 00bf 04000000 		.4byte	.LVL2
 3349 00c3 0100     		.2byte	0x1
 3350 00c5 52       		.byte	0x52
 3351 00c6 04000000 		.4byte	.LVL2
 3352 00ca 12000000 		.4byte	.LFE64
 3353 00ce 0400     		.2byte	0x4
 3354 00d0 F3       		.byte	0xf3
 3355 00d1 01       		.uleb128 0x1
 3356 00d2 52       		.byte	0x52
 3357 00d3 9F       		.byte	0x9f
 3358 00d4 00000000 		.4byte	0
 3359 00d8 00000000 		.4byte	0
 3360              		.section	.debug_aranges,"",%progbits
 3361 0000 34000000 		.4byte	0x34
 3362 0004 0200     		.2byte	0x2
 3363 0006 00000000 		.4byte	.Ldebug_info0
ARM GAS  /tmp/cc3pBf8T.s 			page 60


 3364 000a 04       		.byte	0x4
 3365 000b 00       		.byte	0
 3366 000c 0000     		.2byte	0
 3367 000e 0000     		.2byte	0
 3368 0010 00000000 		.4byte	.LFB63
 3369 0014 58000000 		.4byte	.LFE63-.LFB63
 3370 0018 00000000 		.4byte	.LFB64
 3371 001c 12000000 		.4byte	.LFE64-.LFB64
 3372 0020 00000000 		.4byte	.LFB65
 3373 0024 10000000 		.4byte	.LFE65-.LFB65
 3374 0028 00000000 		.4byte	.LFB66
 3375 002c 28000000 		.4byte	.LFE66-.LFB66
 3376 0030 00000000 		.4byte	0
 3377 0034 00000000 		.4byte	0
 3378              		.section	.debug_ranges,"",%progbits
 3379              	.Ldebug_ranges0:
 3380 0000 00000000 		.4byte	.LFB63
 3381 0004 58000000 		.4byte	.LFE63
 3382 0008 00000000 		.4byte	.LFB64
 3383 000c 12000000 		.4byte	.LFE64
 3384 0010 00000000 		.4byte	.LFB65
 3385 0014 10000000 		.4byte	.LFE65
 3386 0018 00000000 		.4byte	.LFB66
 3387 001c 28000000 		.4byte	.LFE66
 3388 0020 00000000 		.4byte	0
 3389 0024 00000000 		.4byte	0
 3390              		.section	.debug_line,"",%progbits
 3391              	.Ldebug_line0:
 3392 0000 D0020000 		.section	.debug_str,"MS",%progbits,1
 3392      02005E02 
 3392      00000201 
 3392      FB0E0D00 
 3392      01010101 
 3393              	.LASF4:
 3394 0000 73697A65 		.ascii	"size_t\000"
 3394      5F7400
 3395              	.LASF57:
 3396 0007 73697A65 		.ascii	"sizetype\000"
 3396      74797065 
 3396      00
 3397              	.LASF103:
 3398 0010 63665F6F 		.ascii	"cf_off_name\000"
 3398      66665F6E 
 3398      616D6500 
 3399              	.LASF30:
 3400 001c 73797374 		.ascii	"systime_t\000"
 3400      696D655F 
 3400      7400
 3401              	.LASF92:
 3402 0026 63685F69 		.ascii	"ch_identifier\000"
 3402      64656E74 
 3402      69666965 
 3402      7200
 3403              	.LASF35:
 3404 0034 705F6374 		.ascii	"p_ctx\000"
 3404      7800
 3405              	.LASF26:
ARM GAS  /tmp/cc3pBf8T.s 			page 61


 3406 003a 74707269 		.ascii	"tprio_t\000"
 3406      6F5F7400 
 3407              	.LASF111:
 3408 0042 63685F64 		.ascii	"ch_debug\000"
 3408      65627567 
 3408      00
 3409              	.LASF45:
 3410 004b 705F6D73 		.ascii	"p_msgqueue\000"
 3410      67717565 
 3410      756500
 3411              	.LASF69:
 3412 0056 725F6374 		.ascii	"r_ctx\000"
 3412      7800
 3413              	.LASF18:
 3414 005c 696E7433 		.ascii	"int32_t\000"
 3414      325F7400 
 3415              	.LASF220:
 3416 0064 77726974 		.ascii	"writet\000"
 3416      657400
 3417              	.LASF100:
 3418 006b 63665F6F 		.ascii	"cf_off_ctx\000"
 3418      66665F63 
 3418      747800
 3419              	.LASF58:
 3420 0076 76746675 		.ascii	"vtfunc_t\000"
 3420      6E635F74 
 3420      00
 3421              	.LASF237:
 3422 007f 7373706F 		.ascii	"ssport\000"
 3422      727400
 3423              	.LASF178:
 3424 0086 4C50435F 		.ascii	"LPC_GPDMACH_TypeDef\000"
 3424      4750444D 
 3424      4143485F 
 3424      54797065 
 3424      44656600 
 3425              	.LASF216:
 3426 009a 77726974 		.ascii	"write\000"
 3426      6500
 3427              	.LASF165:
 3428 00a0 43544352 		.ascii	"CTCR\000"
 3428      00
 3429              	.LASF84:
 3430 00a5 656C5F66 		.ascii	"el_flags\000"
 3430      6C616773 
 3430      00
 3431              	.LASF192:
 3432 00ae 67707473 		.ascii	"gptstate_t\000"
 3432      74617465 
 3432      5F7400
 3433              	.LASF195:
 3434 00b9 636F6E66 		.ascii	"config\000"
 3434      696700
 3435              	.LASF194:
 3436 00c0 73746174 		.ascii	"state\000"
 3436      6500
 3437              	.LASF218:
ARM GAS  /tmp/cc3pBf8T.s 			page 62


 3438 00c6 70757474 		.ascii	"putt\000"
 3438      00
 3439              	.LASF241:
 3440 00cb 53504944 		.ascii	"SPID1\000"
 3440      3100
 3441              	.LASF242:
 3442 00d1 53504944 		.ascii	"SPID2\000"
 3442      3200
 3443              	.LASF96:
 3444 00d7 63685F70 		.ascii	"ch_ptrsize\000"
 3444      74727369 
 3444      7A6500
 3445              	.LASF200:
 3446 00e2 63616C6C 		.ascii	"callback\000"
 3446      6261636B 
 3446      00
 3447              	.LASF184:
 3448 00eb 696F6D6F 		.ascii	"iomode_t\000"
 3448      64655F74 
 3448      00
 3449              	.LASF246:
 3450 00f4 5F70616C 		.ascii	"_pal_lld_setgroupmode\000"
 3450      5F6C6C64 
 3450      5F736574 
 3450      67726F75 
 3450      706D6F64 
 3451              	.LASF78:
 3452 010a 6D5F6F77 		.ascii	"m_owner\000"
 3452      6E657200 
 3453              	.LASF64:
 3454 0112 76745F70 		.ascii	"vt_par\000"
 3454      617200
 3455              	.LASF236:
 3456 0119 656E645F 		.ascii	"end_cb\000"
 3456      636200
 3457              	.LASF88:
 3458 0120 65786974 		.ascii	"exitcode\000"
 3458      636F6465 
 3458      00
 3459              	.LASF5:
 3460 0129 5F5F7569 		.ascii	"__uint8_t\000"
 3460      6E74385F 
 3460      7400
 3461              	.LASF116:
 3462 0133 715F746F 		.ascii	"q_top\000"
 3462      7000
 3463              	.LASF174:
 3464 0139 43446573 		.ascii	"CDestAddr\000"
 3464      74416464 
 3464      7200
 3465              	.LASF90:
 3466 0143 65776D61 		.ascii	"ewmask\000"
 3466      736B00
 3467              	.LASF98:
 3468 014a 63685F74 		.ascii	"ch_threadsize\000"
 3468      68726561 
 3468      6473697A 
ARM GAS  /tmp/cc3pBf8T.s 			page 63


 3468      6500
 3469              	.LASF221:
 3470 0158 72656164 		.ascii	"readt\000"
 3470      7400
 3471              	.LASF115:
 3472 015e 715F6275 		.ascii	"q_buffer\000"
 3472      66666572 
 3472      00
 3473              	.LASF173:
 3474 0167 43537263 		.ascii	"CSrcAddr\000"
 3474      41646472 
 3474      00
 3475              	.LASF119:
 3476 0170 715F6E6F 		.ascii	"q_notify\000"
 3476      74696679 
 3476      00
 3477              	.LASF36:
 3478 0179 705F6E65 		.ascii	"p_newer\000"
 3478      77657200 
 3479              	.LASF223:
 3480 0181 5350495F 		.ascii	"SPI_STOP\000"
 3480      53544F50 
 3480      00
 3481              	.LASF11:
 3482 018a 6C6F6E67 		.ascii	"long int\000"
 3482      20696E74 
 3482      00
 3483              	.LASF222:
 3484 0193 5350495F 		.ascii	"SPI_UNINIT\000"
 3484      554E494E 
 3484      495400
 3485              	.LASF32:
 3486 019e 705F6E65 		.ascii	"p_next\000"
 3486      787400
 3487              	.LASF118:
 3488 01a5 715F7264 		.ascii	"q_rdptr\000"
 3488      70747200 
 3489              	.LASF233:
 3490 01ad 7478636E 		.ascii	"txcnt\000"
 3490      7400
 3491              	.LASF105:
 3492 01b3 63665F6F 		.ascii	"cf_off_state\000"
 3492      66665F73 
 3492      74617465 
 3492      00
 3493              	.LASF33:
 3494 01c0 705F7072 		.ascii	"p_prev\000"
 3494      657600
 3495              	.LASF202:
 3496 01c7 47505444 		.ascii	"GPTD1\000"
 3496      3100
 3497              	.LASF203:
 3498 01cd 47505444 		.ascii	"GPTD2\000"
 3498      3200
 3499              	.LASF204:
 3500 01d3 47505444 		.ascii	"GPTD3\000"
 3500      3300
ARM GAS  /tmp/cc3pBf8T.s 			page 64


 3501              	.LASF205:
 3502 01d9 47505444 		.ascii	"GPTD4\000"
 3502      3400
 3503              	.LASF185:
 3504 01df 696F706F 		.ascii	"ioportid_t\000"
 3504      72746964 
 3504      5F7400
 3505              	.LASF23:
 3506 01ea 74737461 		.ascii	"tstate_t\000"
 3506      74655F74 
 3506      00
 3507              	.LASF48:
 3508 01f3 705F6D74 		.ascii	"p_mtxlist\000"
 3508      786C6973 
 3508      7400
 3509              	.LASF213:
 3510 01fd 6F717565 		.ascii	"oqueue\000"
 3510      756500
 3511              	.LASF53:
 3512 0204 72656761 		.ascii	"regarm_t\000"
 3512      726D5F74 
 3512      00
 3513              	.LASF172:
 3514 020d 4C50435F 		.ascii	"LPC_SSP_TypeDef\000"
 3514      5353505F 
 3514      54797065 
 3514      44656600 
 3515              	.LASF186:
 3516 021d 70616C5F 		.ascii	"pal_default_config\000"
 3516      64656661 
 3516      756C745F 
 3516      636F6E66 
 3516      696700
 3517              	.LASF3:
 3518 0230 7369676E 		.ascii	"signed char\000"
 3518      65642063 
 3518      68617200 
 3519              	.LASF42:
 3520 023c 705F7072 		.ascii	"p_preempt\000"
 3520      65656D70 
 3520      7400
 3521              	.LASF16:
 3522 0246 75696E74 		.ascii	"uint8_t\000"
 3522      385F7400 
 3523              	.LASF170:
 3524 024e 494D5343 		.ascii	"IMSC\000"
 3524      00
 3525              	.LASF28:
 3526 0253 6576656E 		.ascii	"eventmask_t\000"
 3526      746D6173 
 3526      6B5F7400 
 3527              	.LASF56:
 3528 025f 636F6E74 		.ascii	"context\000"
 3528      65787400 
 3529              	.LASF162:
 3530 0267 52455345 		.ascii	"RESERVED0\000"
 3530      52564544 
ARM GAS  /tmp/cc3pBf8T.s 			page 65


 3530      3000
 3531              	.LASF164:
 3532 0271 52455345 		.ascii	"RESERVED1\000"
 3532      52564544 
 3532      3100
 3533              	.LASF6:
 3534 027b 756E7369 		.ascii	"unsigned char\000"
 3534      676E6564 
 3534      20636861 
 3534      7200
 3535              	.LASF228:
 3536 0289 53504944 		.ascii	"SPIDriver\000"
 3536      72697665 
 3536      7200
 3537              	.LASF120:
 3538 0293 715F6C69 		.ascii	"q_link\000"
 3538      6E6B00
 3539              	.LASF235:
 3540 029a 73706963 		.ascii	"spicallback_t\000"
 3540      616C6C62 
 3540      61636B5F 
 3540      7400
 3541              	.LASF61:
 3542 02a8 76745F70 		.ascii	"vt_prev\000"
 3542      72657600 
 3543              	.LASF70:
 3544 02b0 725F6E65 		.ascii	"r_newer\000"
 3544      77657200 
 3545              	.LASF206:
 3546 02b8 53445F55 		.ascii	"SD_UNINIT\000"
 3546      4E494E49 
 3546      5400
 3547              	.LASF21:
 3548 02c2 5F426F6F 		.ascii	"_Bool\000"
 3548      6C00
 3549              	.LASF167:
 3550 02c8 52455345 		.ascii	"RESERVED2\000"
 3550      52564544 
 3550      3200
 3551              	.LASF171:
 3552 02d2 444D4143 		.ascii	"DMACR\000"
 3552      5200
 3553              	.LASF91:
 3554 02d8 63686172 		.ascii	"char\000"
 3554      00
 3555              	.LASF232:
 3556 02dd 72787074 		.ascii	"rxptr\000"
 3556      7200
 3557              	.LASF187:
 3558 02e3 4750545F 		.ascii	"GPT_UNINIT\000"
 3558      554E494E 
 3558      495400
 3559              	.LASF34:
 3560 02ee 705F7072 		.ascii	"p_prio\000"
 3560      696F00
 3561              	.LASF8:
 3562 02f5 5F5F7569 		.ascii	"__uint16_t\000"
ARM GAS  /tmp/cc3pBf8T.s 			page 66


 3562      6E743136 
 3562      5F7400
 3563              	.LASF112:
 3564 0300 47656E65 		.ascii	"GenericQueue\000"
 3564      72696351 
 3564      75657565 
 3564      00
 3565              	.LASF89:
 3566 030d 77746F62 		.ascii	"wtobjp\000"
 3566      6A7000
 3567              	.LASF101:
 3568 0314 63665F6F 		.ascii	"cf_off_newer\000"
 3568      66665F6E 
 3568      65776572 
 3568      00
 3569              	.LASF219:
 3570 0321 67657474 		.ascii	"gett\000"
 3570      00
 3571              	.LASF54:
 3572 0326 73746B61 		.ascii	"stkalign_t\000"
 3572      6C69676E 
 3572      5F7400
 3573              	.LASF150:
 3574 0331 46494F53 		.ascii	"FIOSET0\000"
 3574      45543000 
 3575              	.LASF151:
 3576 0339 46494F53 		.ascii	"FIOSET1\000"
 3576      45543100 
 3577              	.LASF152:
 3578 0341 46494F53 		.ascii	"FIOSET2\000"
 3578      45543200 
 3579              	.LASF123:
 3580 0349 4F757470 		.ascii	"OutputQueue\000"
 3580      75745175 
 3580      65756500 
 3581              	.LASF149:
 3582 0355 46494F53 		.ascii	"FIOSETH\000"
 3582      45544800 
 3583              	.LASF148:
 3584 035d 46494F53 		.ascii	"FIOSETL\000"
 3584      45544C00 
 3585              	.LASF99:
 3586 0365 63665F6F 		.ascii	"cf_off_prio\000"
 3586      66665F70 
 3586      72696F00 
 3587              	.LASF252:
 3588 0371 2E2E2F2E 		.ascii	"../../os/hal/platforms/LPC17xx/pal_lld.c\000"
 3588      2E2F6F73 
 3588      2F68616C 
 3588      2F706C61 
 3588      74666F72 
 3589              	.LASF183:
 3590 039a 696F706F 		.ascii	"ioportmask_t\000"
 3590      72746D61 
 3590      736B5F74 
 3590      00
 3591              	.LASF63:
ARM GAS  /tmp/cc3pBf8T.s 			page 67


 3592 03a7 76745F66 		.ascii	"vt_func\000"
 3592      756E6300 
 3593              	.LASF55:
 3594 03af 696E7463 		.ascii	"intctx\000"
 3594      747800
 3595              	.LASF47:
 3596 03b6 705F6570 		.ascii	"p_epending\000"
 3596      656E6469 
 3596      6E6700
 3597              	.LASF86:
 3598 03c1 65735F6E 		.ascii	"es_next\000"
 3598      65787400 
 3599              	.LASF114:
 3600 03c9 715F636F 		.ascii	"q_counter\000"
 3600      756E7465 
 3600      7200
 3601              	.LASF143:
 3602 03d3 46494F50 		.ascii	"FIOPIN0\000"
 3602      494E3000 
 3603              	.LASF144:
 3604 03db 46494F50 		.ascii	"FIOPIN1\000"
 3604      494E3100 
 3605              	.LASF145:
 3606 03e3 46494F50 		.ascii	"FIOPIN2\000"
 3606      494E3200 
 3607              	.LASF146:
 3608 03eb 46494F50 		.ascii	"FIOPIN3\000"
 3608      494E3300 
 3609              	.LASF85:
 3610 03f3 4576656E 		.ascii	"EventSource\000"
 3610      74536F75 
 3610      72636500 
 3611              	.LASF14:
 3612 03ff 5F5F7569 		.ascii	"__uint64_t\000"
 3612      6E743634 
 3612      5F7400
 3613              	.LASF13:
 3614 040a 6C6F6E67 		.ascii	"long unsigned int\000"
 3614      20756E73 
 3614      69676E65 
 3614      6420696E 
 3614      7400
 3615              	.LASF93:
 3616 041c 63685F7A 		.ascii	"ch_zero\000"
 3616      65726F00 
 3617              	.LASF142:
 3618 0424 46494F50 		.ascii	"FIOPINH\000"
 3618      494E4800 
 3619              	.LASF141:
 3620 042c 46494F50 		.ascii	"FIOPINL\000"
 3620      494E4C00 
 3621              	.LASF126:
 3622 0434 53797374 		.ascii	"SystemCoreClock\000"
 3622      656D436F 
 3622      7265436C 
 3622      6F636B00 
 3623              	.LASF198:
ARM GAS  /tmp/cc3pBf8T.s 			page 68


 3624 0444 67707466 		.ascii	"gptfreq_t\000"
 3624      7265715F 
 3624      7400
 3625              	.LASF176:
 3626 044e 43436F6E 		.ascii	"CControl\000"
 3626      74726F6C 
 3626      00
 3627              	.LASF81:
 3628 0457 656C5F6E 		.ascii	"el_next\000"
 3628      65787400 
 3629              	.LASF117:
 3630 045f 715F7772 		.ascii	"q_wrptr\000"
 3630      70747200 
 3631              	.LASF179:
 3632 0467 5F6C7063 		.ascii	"_lpc17xx_dma_channel_config_t\000"
 3632      31377878 
 3632      5F646D61 
 3632      5F636861 
 3632      6E6E656C 
 3633              	.LASF215:
 3634 0485 53657269 		.ascii	"SerialDriverVMT\000"
 3634      616C4472 
 3634      69766572 
 3634      564D5400 
 3635              	.LASF140:
 3636 0495 46494F4D 		.ascii	"FIOMASK\000"
 3636      41534B00 
 3637              	.LASF196:
 3638 049d 636C6F63 		.ascii	"clock\000"
 3638      6B00
 3639              	.LASF201:
 3640 04a3 47505443 		.ascii	"GPTConfig\000"
 3640      6F6E6669 
 3640      6700
 3641              	.LASF231:
 3642 04ad 7278636E 		.ascii	"rxcnt\000"
 3642      7400
 3643              	.LASF239:
 3644 04b3 63707372 		.ascii	"cpsr\000"
 3644      00
 3645              	.LASF129:
 3646 04b8 46494F44 		.ascii	"FIODIR0\000"
 3646      49523000 
 3647              	.LASF130:
 3648 04c0 46494F44 		.ascii	"FIODIR1\000"
 3648      49523100 
 3649              	.LASF131:
 3650 04c8 46494F44 		.ascii	"FIODIR2\000"
 3650      49523200 
 3651              	.LASF132:
 3652 04d0 46494F44 		.ascii	"FIODIR3\000"
 3652      49523300 
 3653              	.LASF108:
 3654 04d8 63665F6F 		.ascii	"cf_off_preempt\000"
 3654      66665F70 
 3654      7265656D 
 3654      707400
ARM GAS  /tmp/cc3pBf8T.s 			page 69


 3655              	.LASF128:
 3656 04e7 46494F44 		.ascii	"FIODIRH\000"
 3656      49524800 
 3657              	.LASF127:
 3658 04ef 46494F44 		.ascii	"FIODIRL\000"
 3658      49524C00 
 3659              	.LASF12:
 3660 04f7 5F5F7569 		.ascii	"__uint32_t\000"
 3660      6E743332 
 3660      5F7400
 3661              	.LASF76:
 3662 0502 4D757465 		.ascii	"Mutex\000"
 3662      7800
 3663              	.LASF224:
 3664 0508 5350495F 		.ascii	"SPI_READY\000"
 3664      52454144 
 3664      5900
 3665              	.LASF1:
 3666 0512 6C6F6E67 		.ascii	"long long int\000"
 3666      206C6F6E 
 3666      6720696E 
 3666      7400
 3667              	.LASF95:
 3668 0520 63685F76 		.ascii	"ch_version\000"
 3668      65727369 
 3668      6F6E00
 3669              	.LASF77:
 3670 052b 6D5F7175 		.ascii	"m_queue\000"
 3670      65756500 
 3671              	.LASF193:
 3672 0533 47505444 		.ascii	"GPTDriver\000"
 3672      72697665 
 3672      7200
 3673              	.LASF60:
 3674 053d 76745F6E 		.ascii	"vt_next\000"
 3674      65787400 
 3675              	.LASF154:
 3676 0545 46494F53 		.ascii	"FIOSET\000"
 3676      455400
 3677              	.LASF244:
 3678 054c 6D61736B 		.ascii	"mask\000"
 3678      00
 3679              	.LASF230:
 3680 0551 6D757465 		.ascii	"mutex\000"
 3680      7800
 3681              	.LASF125:
 3682 0557 49544D5F 		.ascii	"ITM_RxBuffer\000"
 3682      52784275 
 3682      66666572 
 3682      00
 3683              	.LASF199:
 3684 0564 66726571 		.ascii	"frequency\000"
 3684      75656E63 
 3684      7900
 3685              	.LASF121:
 3686 056e 716E6F74 		.ascii	"qnotify_t\000"
 3686      6966795F 
ARM GAS  /tmp/cc3pBf8T.s 			page 70


 3686      7400
 3687              	.LASF191:
 3688 0578 4750545F 		.ascii	"GPT_ONESHOT\000"
 3688      4F4E4553 
 3688      484F5400 
 3689              	.LASF44:
 3690 0584 705F7761 		.ascii	"p_waiting\000"
 3690      6974696E 
 3690      6700
 3691              	.LASF211:
 3692 058e 6576656E 		.ascii	"event\000"
 3692      7400
 3693              	.LASF40:
 3694 0594 705F666C 		.ascii	"p_flags\000"
 3694      61677300 
 3695              	.LASF217:
 3696 059c 72656164 		.ascii	"read\000"
 3696      00
 3697              	.LASF0:
 3698 05a1 756E7369 		.ascii	"unsigned int\000"
 3698      676E6564 
 3698      20696E74 
 3698      00
 3699              	.LASF250:
 3700 05ae 5F70616C 		.ascii	"_pal_lld_init\000"
 3700      5F6C6C64 
 3700      5F696E69 
 3700      7400
 3701              	.LASF104:
 3702 05bc 63665F6F 		.ascii	"cf_off_stklimit\000"
 3702      66665F73 
 3702      746B6C69 
 3702      6D697400 
 3703              	.LASF240:
 3704 05cc 53504943 		.ascii	"SPIConfig\000"
 3704      6F6E6669 
 3704      6700
 3705              	.LASF225:
 3706 05d6 5350495F 		.ascii	"SPI_ACTIVE\000"
 3706      41435449 
 3706      564500
 3707              	.LASF136:
 3708 05e1 46494F4D 		.ascii	"FIOMASK0\000"
 3708      41534B30 
 3708      00
 3709              	.LASF137:
 3710 05ea 46494F4D 		.ascii	"FIOMASK1\000"
 3710      41534B31 
 3710      00
 3711              	.LASF138:
 3712 05f3 46494F4D 		.ascii	"FIOMASK2\000"
 3712      41534B32 
 3712      00
 3713              	.LASF139:
 3714 05fc 46494F4D 		.ascii	"FIOMASK3\000"
 3714      41534B33 
 3714      00
ARM GAS  /tmp/cc3pBf8T.s 			page 71


 3715              	.LASF50:
 3716 0605 705F6D70 		.ascii	"p_mpool\000"
 3716      6F6F6C00 
 3717              	.LASF157:
 3718 060d 46494F43 		.ascii	"FIOCLR0\000"
 3718      4C523000 
 3719              	.LASF158:
 3720 0615 46494F43 		.ascii	"FIOCLR1\000"
 3720      4C523100 
 3721              	.LASF159:
 3722 061d 46494F43 		.ascii	"FIOCLR2\000"
 3722      4C523200 
 3723              	.LASF160:
 3724 0625 46494F43 		.ascii	"FIOCLR3\000"
 3724      4C523300 
 3725              	.LASF41:
 3726 062d 705F7265 		.ascii	"p_refs\000"
 3726      667300
 3727              	.LASF135:
 3728 0634 46494F4D 		.ascii	"FIOMASKH\000"
 3728      41534B48 
 3728      00
 3729              	.LASF134:
 3730 063d 46494F4D 		.ascii	"FIOMASKL\000"
 3730      41534B4C 
 3730      00
 3731              	.LASF97:
 3732 0646 63685F74 		.ascii	"ch_timesize\000"
 3732      696D6573 
 3732      697A6500 
 3733              	.LASF156:
 3734 0652 46494F43 		.ascii	"FIOCLRH\000"
 3734      4C524800 
 3735              	.LASF155:
 3736 065a 46494F43 		.ascii	"FIOCLRL\000"
 3736      4C524C00 
 3737              	.LASF249:
 3738 0662 62697473 		.ascii	"bits\000"
 3738      00
 3739              	.LASF251:
 3740 0667 474E5520 		.ascii	"GNU C11 6.3.1 20170620 -mcpu=cortex-m3 -mno-thumb-i"
 3740      43313120 
 3740      362E332E 
 3740      31203230 
 3740      31373036 
 3741 069a 6E746572 		.ascii	"nterwork -mthumb -ggdb -O2 -fomit-frame-pointer -ff"
 3741      776F726B 
 3741      202D6D74 
 3741      68756D62 
 3741      202D6767 
 3742 06cd 756E6374 		.ascii	"unction-sections -fdata-sections -fno-common\000"
 3742      696F6E2D 
 3742      73656374 
 3742      696F6E73 
 3742      202D6664 
 3743              	.LASF52:
 3744 06fa 54687265 		.ascii	"ThreadsList\000"
ARM GAS  /tmp/cc3pBf8T.s 			page 72


 3744      6164734C 
 3744      69737400 
 3745              	.LASF248:
 3746 0706 6F666673 		.ascii	"offset\000"
 3746      657400
 3747              	.LASF29:
 3748 070d 666C6167 		.ascii	"flagsmask_t\000"
 3748      736D6173 
 3748      6B5F7400 
 3749              	.LASF43:
 3750 0719 705F7469 		.ascii	"p_time\000"
 3750      6D6500
 3751              	.LASF133:
 3752 0720 46494F44 		.ascii	"FIODIR\000"
 3752      495200
 3753              	.LASF107:
 3754 0727 63665F6F 		.ascii	"cf_off_refs\000"
 3754      66665F72 
 3754      65667300 
 3755              	.LASF166:
 3756 0733 4C50435F 		.ascii	"LPC_TIM_TypeDef\000"
 3756      54494D5F 
 3756      54797065 
 3756      44656600 
 3757              	.LASF247:
 3758 0743 5F70616C 		.ascii	"_pal_lld_writegroup\000"
 3758      5F6C6C64 
 3758      5F777269 
 3758      74656772 
 3758      6F757000 
 3759              	.LASF161:
 3760 0757 46494F43 		.ascii	"FIOCLR\000"
 3760      4C5200
 3761              	.LASF2:
 3762 075e 6C6F6E67 		.ascii	"long double\000"
 3762      20646F75 
 3762      626C6500 
 3763              	.LASF49:
 3764 076a 705F7265 		.ascii	"p_realprio\000"
 3764      616C7072 
 3764      696F00
 3765              	.LASF109:
 3766 0775 63665F6F 		.ascii	"cf_off_time\000"
 3766      66665F74 
 3766      696D6500 
 3767              	.LASF253:
 3768 0781 2F686F6D 		.ascii	"/home/ekobayu/Arok-Gandring-Lokajaya/LPC/ChibiOS-RT"
 3768      652F656B 
 3768      6F626179 
 3768      752F4172 
 3768      6F6B2D47 
 3769 07b4 2D4C5043 		.ascii	"-LPC/demos/LPC1766\000"
 3769      2F64656D 
 3769      6F732F4C 
 3769      50433137 
 3769      363600
 3770              	.LASF15:
ARM GAS  /tmp/cc3pBf8T.s 			page 73


 3771 07c7 6C6F6E67 		.ascii	"long long unsigned int\000"
 3771      206C6F6E 
 3771      6720756E 
 3771      7369676E 
 3771      65642069 
 3772              	.LASF37:
 3773 07de 705F6F6C 		.ascii	"p_older\000"
 3773      64657200 
 3774              	.LASF17:
 3775 07e6 75696E74 		.ascii	"uint16_t\000"
 3775      31365F74 
 3775      00
 3776              	.LASF27:
 3777 07ef 6D73675F 		.ascii	"msg_t\000"
 3777      7400
 3778              	.LASF147:
 3779 07f5 46494F50 		.ascii	"FIOPIN\000"
 3779      494E00
 3780              	.LASF106:
 3781 07fc 63665F6F 		.ascii	"cf_off_flags\000"
 3781      66665F66 
 3781      6C616773 
 3781      00
 3782              	.LASF25:
 3783 0809 74736C69 		.ascii	"tslices_t\000"
 3783      6365735F 
 3783      7400
 3784              	.LASF189:
 3785 0813 4750545F 		.ascii	"GPT_READY\000"
 3785      52454144 
 3785      5900
 3786              	.LASF190:
 3787 081d 4750545F 		.ascii	"GPT_CONTINUOUS\000"
 3787      434F4E54 
 3787      494E554F 
 3787      555300
 3788              	.LASF72:
 3789 082c 725F6375 		.ascii	"r_current\000"
 3789      7272656E 
 3789      7400
 3790              	.LASF66:
 3791 0836 56544C69 		.ascii	"VTList\000"
 3791      737400
 3792              	.LASF168:
 3793 083d 4C50435F 		.ascii	"LPC_UART_TypeDef\000"
 3793      55415254 
 3793      5F547970 
 3793      65446566 
 3793      00
 3794              	.LASF175:
 3795 084e 434C4C49 		.ascii	"CLLI\000"
 3795      00
 3796              	.LASF67:
 3797 0853 725F7175 		.ascii	"r_queue\000"
 3797      65756500 
 3798              	.LASF210:
 3799 085b 53657269 		.ascii	"SerialDriver\000"
ARM GAS  /tmp/cc3pBf8T.s 			page 74


 3799      616C4472 
 3799      69766572 
 3799      00
 3800              	.LASF113:
 3801 0868 715F7761 		.ascii	"q_waiting\000"
 3801      6974696E 
 3801      6700
 3802              	.LASF75:
 3803 0872 726C6973 		.ascii	"rlist\000"
 3803      7400
 3804              	.LASF22:
 3805 0878 746D6F64 		.ascii	"tmode_t\000"
 3805      655F7400 
 3806              	.LASF209:
 3807 0880 73647374 		.ascii	"sdstate_t\000"
 3807      6174655F 
 3807      7400
 3808              	.LASF169:
 3809 088a 43505352 		.ascii	"CPSR\000"
 3809      00
 3810              	.LASF65:
 3811 088f 76745F73 		.ascii	"vt_systime\000"
 3811      79737469 
 3811      6D6500
 3812              	.LASF208:
 3813 089a 53445F52 		.ascii	"SD_READY\000"
 3813      45414459 
 3813      00
 3814              	.LASF71:
 3815 08a3 725F6F6C 		.ascii	"r_older\000"
 3815      64657200 
 3816              	.LASF229:
 3817 08ab 74687265 		.ascii	"thread\000"
 3817      616400
 3818              	.LASF243:
 3819 08b2 706F7274 		.ascii	"port\000"
 3819      00
 3820              	.LASF7:
 3821 08b7 73686F72 		.ascii	"short int\000"
 3821      7420696E 
 3821      7400
 3822              	.LASF20:
 3823 08c1 75696E74 		.ascii	"uint64_t\000"
 3823      36345F74 
 3823      00
 3824              	.LASF245:
 3825 08ca 6D6F6465 		.ascii	"mode\000"
 3825      00
 3826              	.LASF214:
 3827 08cf 75617274 		.ascii	"uart\000"
 3827      00
 3828              	.LASF212:
 3829 08d4 69717565 		.ascii	"iqueue\000"
 3829      756500
 3830              	.LASF68:
 3831 08db 725F7072 		.ascii	"r_prio\000"
 3831      696F00
ARM GAS  /tmp/cc3pBf8T.s 			page 75


 3832              	.LASF181:
 3833 08e2 6C706331 		.ascii	"lpc17xx_gpio_setup_t\000"
 3833      3778785F 
 3833      6770696F 
 3833      5F736574 
 3833      75705F74 
 3834              	.LASF102:
 3835 08f7 63665F6F 		.ascii	"cf_off_older\000"
 3835      66665F6F 
 3835      6C646572 
 3835      00
 3836              	.LASF182:
 3837 0904 50414C43 		.ascii	"PALConfig\000"
 3837      6F6E6669 
 3837      6700
 3838              	.LASF31:
 3839 090e 54687265 		.ascii	"Thread\000"
 3839      616400
 3840              	.LASF74:
 3841 0915 76746C69 		.ascii	"vtlist\000"
 3841      737400
 3842              	.LASF177:
 3843 091c 43436F6E 		.ascii	"CConfig\000"
 3843      66696700 
 3844              	.LASF24:
 3845 0924 74726566 		.ascii	"trefs_t\000"
 3845      735F7400 
 3846              	.LASF124:
 3847 092c 5F69646C 		.ascii	"_idle_thread_wa\000"
 3847      655F7468 
 3847      72656164 
 3847      5F776100 
 3848              	.LASF80:
 3849 093c 4576656E 		.ascii	"EventListener\000"
 3849      744C6973 
 3849      74656E65 
 3849      7200
 3850              	.LASF19:
 3851 094a 75696E74 		.ascii	"uint32_t\000"
 3851      33325F74 
 3851      00
 3852              	.LASF59:
 3853 0953 56697274 		.ascii	"VirtualTimer\000"
 3853      75616C54 
 3853      696D6572 
 3853      00
 3854              	.LASF51:
 3855 0960 54687265 		.ascii	"ThreadsQueue\000"
 3855      61647351 
 3855      75657565 
 3855      00
 3856              	.LASF226:
 3857 096d 5350495F 		.ascii	"SPI_COMPLETE\000"
 3857      434F4D50 
 3857      4C455445 
 3857      00
 3858              	.LASF163:
ARM GAS  /tmp/cc3pBf8T.s 			page 76


 3859 097a 4C50435F 		.ascii	"LPC_GPIO_TypeDef\000"
 3859      4750494F 
 3859      5F547970 
 3859      65446566 
 3859      00
 3860              	.LASF87:
 3861 098b 7264796D 		.ascii	"rdymsg\000"
 3861      736700
 3862              	.LASF188:
 3863 0992 4750545F 		.ascii	"GPT_STOP\000"
 3863      53544F50 
 3863      00
 3864              	.LASF9:
 3865 099b 73686F72 		.ascii	"short unsigned int\000"
 3865      7420756E 
 3865      7369676E 
 3865      65642069 
 3865      6E7400
 3866              	.LASF110:
 3867 09ae 63686465 		.ascii	"chdebug_t\000"
 3867      6275675F 
 3867      7400
 3868              	.LASF227:
 3869 09b8 73706973 		.ascii	"spistate_t\000"
 3869      74617465 
 3869      5F7400
 3870              	.LASF122:
 3871 09c3 496E7075 		.ascii	"InputQueue\000"
 3871      74517565 
 3871      756500
 3872              	.LASF94:
 3873 09ce 63685F73 		.ascii	"ch_size\000"
 3873      697A6500 
 3874              	.LASF254:
 3875 09d6 5F70616C 		.ascii	"_pal_lld_readgroup\000"
 3875      5F6C6C64 
 3875      5F726561 
 3875      6467726F 
 3875      757000
 3876              	.LASF10:
 3877 09e9 5F5F696E 		.ascii	"__int32_t\000"
 3877      7433325F 
 3877      7400
 3878              	.LASF207:
 3879 09f3 53445F53 		.ascii	"SD_STOP\000"
 3879      544F5000 
 3880              	.LASF83:
 3881 09fb 656C5F6D 		.ascii	"el_mask\000"
 3881      61736B00 
 3882              	.LASF73:
 3883 0a03 52656164 		.ascii	"ReadyList\000"
 3883      794C6973 
 3883      7400
 3884              	.LASF238:
 3885 0a0d 73737061 		.ascii	"sspad\000"
 3885      6400
 3886              	.LASF153:
ARM GAS  /tmp/cc3pBf8T.s 			page 77


 3887 0a13 46494F53 		.ascii	"FIOSET3\000"
 3887      45543300 
 3888              	.LASF234:
 3889 0a1b 74787074 		.ascii	"txptr\000"
 3889      7200
 3890              	.LASF38:
 3891 0a21 705F6E61 		.ascii	"p_name\000"
 3891      6D6500
 3892              	.LASF62:
 3893 0a28 76745F74 		.ascii	"vt_time\000"
 3893      696D6500 
 3894              	.LASF180:
 3895 0a30 64617461 		.ascii	"data\000"
 3895      00
 3896              	.LASF79:
 3897 0a35 6D5F6E65 		.ascii	"m_next\000"
 3897      787400
 3898              	.LASF197:
 3899 0a3c 67707463 		.ascii	"gptcallback_t\000"
 3899      616C6C62 
 3899      61636B5F 
 3899      7400
 3900              	.LASF46:
 3901 0a4a 705F6D73 		.ascii	"p_msg\000"
 3901      6700
 3902              	.LASF82:
 3903 0a50 656C5F6C 		.ascii	"el_listener\000"
 3903      69737465 
 3903      6E657200 
 3904              	.LASF39:
 3905 0a5c 705F7374 		.ascii	"p_state\000"
 3905      61746500 
 3906              		.ident	"GCC: (15:6.3.1+svn253039-1build1) 6.3.1 20170620"
ARM GAS  /tmp/cc3pBf8T.s 			page 78


DEFINED SYMBOLS
                            *ABS*:0000000000000000 pal_lld.c
     /tmp/cc3pBf8T.s:16     .text._pal_lld_init:0000000000000000 $t
     /tmp/cc3pBf8T.s:24     .text._pal_lld_init:0000000000000000 _pal_lld_init
     /tmp/cc3pBf8T.s:106    .text._pal_lld_init:0000000000000044 $d
     /tmp/cc3pBf8T.s:115    .text._pal_lld_readgroup:0000000000000000 $t
     /tmp/cc3pBf8T.s:123    .text._pal_lld_readgroup:0000000000000000 _pal_lld_readgroup
     /tmp/cc3pBf8T.s:153    .text._pal_lld_writegroup:0000000000000000 $t
     /tmp/cc3pBf8T.s:161    .text._pal_lld_writegroup:0000000000000000 _pal_lld_writegroup
     /tmp/cc3pBf8T.s:187    .text._pal_lld_setgroupmode:0000000000000000 $t
     /tmp/cc3pBf8T.s:195    .text._pal_lld_setgroupmode:0000000000000000 _pal_lld_setgroupmode
     /tmp/cc3pBf8T.s:208    .text._pal_lld_setgroupmode:0000000000000008 $d
                     .debug_frame:0000000000000010 $d
     /tmp/cc3pBf8T.s:215    .text._pal_lld_setgroupmode:000000000000000f $d
     /tmp/cc3pBf8T.s:215    .text._pal_lld_setgroupmode:0000000000000010 $t

NO UNDEFINED SYMBOLS
