ARM GAS  /tmp/ccEDdA6z.s 			page 1


   1              		.cpu cortex-m3
   2              		.eabi_attribute 20, 1
   3              		.eabi_attribute 21, 1
   4              		.eabi_attribute 23, 3
   5              		.eabi_attribute 24, 1
   6              		.eabi_attribute 25, 1
   7              		.eabi_attribute 26, 1
   8              		.eabi_attribute 30, 2
   9              		.eabi_attribute 34, 1
  10              		.eabi_attribute 18, 4
  11              		.file	"serial_lld.c"
  12              		.text
  13              	.Ltext0:
  14              		.cfi_sections	.debug_frame
  15              		.section	.text.serve_interrupt,"ax",%progbits
  16              		.align	1
  17              		.p2align 2,,3
  18              		.syntax unified
  19              		.thumb
  20              		.thumb_func
  21              		.fpu softvfp
  22              		.type	serve_interrupt, %function
  23              	serve_interrupt:
  24              	.LFB66:
  25              		.file 1 "../../os/hal/platforms/LPC17xx/serial_lld.c"
  26              		.loc 1 163 0
  27              		.cfi_startproc
  28              		@ args = 0, pretend = 0, frame = 0
  29              		@ frame_needed = 0, uses_anonymous_args = 0
  30              	.LVL0:
  31 0000 2DE9F041 		push	{r4, r5, r6, r7, r8, lr}
  32              		.cfi_def_cfa_offset 24
  33              		.cfi_offset 4, -24
  34              		.cfi_offset 5, -20
  35              		.cfi_offset 6, -16
  36              		.cfi_offset 7, -12
  37              		.cfi_offset 8, -8
  38              		.cfi_offset 14, -4
  39              		.loc 1 163 0
  40 0004 0746     		mov	r7, r0
  41              		.loc 1 164 0
  42 0006 446F     		ldr	r4, [r0, #116]
  43              	.LVL1:
  44 0008 00F13006 		add	r6, r0, #48
  45              	.LVL2:
  46              	.L2:
  47              		.loc 1 167 0
  48 000c A368     		ldr	r3, [r4, #8]
  49 000e 03F00F03 		and	r3, r3, #15
  50 0012 013B     		subs	r3, r3, #1
  51 0014 0B2B     		cmp	r3, #11
  52 0016 6AD8     		bhi	.L3
  53 0018 DFE803F0 		tbb	[pc, r3]
  54              	.L5:
  55 001c 67       		.byte	(.L1-.L5)/2
  56 001d 48       		.byte	(.L6-.L5)/2
  57 001e 69       		.byte	(.L3-.L5)/2
ARM GAS  /tmp/ccEDdA6z.s 			page 2


  58 001f 22       		.byte	(.L7-.L5)/2
  59 0020 69       		.byte	(.L3-.L5)/2
  60 0021 06       		.byte	(.L8-.L5)/2
  61 0022 69       		.byte	(.L3-.L5)/2
  62 0023 69       		.byte	(.L3-.L5)/2
  63 0024 69       		.byte	(.L3-.L5)/2
  64 0025 69       		.byte	(.L3-.L5)/2
  65 0026 69       		.byte	(.L3-.L5)/2
  66 0027 22       		.byte	(.L7-.L5)/2
  67              		.p2align 1
  68              	.L8:
  69              		.loc 1 171 0
  70 0028 6369     		ldr	r3, [r4, #20]
  71              	.LVL3:
  72              	.LBB18:
  73              	.LBB19:
  74              		.loc 1 139 0
  75 002a 13F0020F 		tst	r3, #2
  76 002e 14BF     		ite	ne
  77 0030 8021     		movne	r1, #128
  78 0032 0021     		moveq	r1, #0
  79              	.LVL4:
  80              		.loc 1 143 0
  81 0034 5A07     		lsls	r2, r3, #29
  82              		.loc 1 144 0
  83 0036 48BF     		it	mi
  84 0038 41F02001 		orrmi	r1, r1, #32
  85              	.LVL5:
  86              		.loc 1 145 0
  87 003c 1D07     		lsls	r5, r3, #28
  88              		.loc 1 146 0
  89 003e 48BF     		it	mi
  90 0040 41F04001 		orrmi	r1, r1, #64
  91              	.LVL6:
  92              		.loc 1 147 0
  93 0044 D806     		lsls	r0, r3, #27
  94              		.loc 1 148 0
  95 0046 48BF     		it	mi
  96 0048 41F40071 		orrmi	r1, r1, #512
  97              	.LVL7:
  98              	.LBB20:
  99              		.loc 1 149 0
 100 004c 4023     		movs	r3, #64
 101              	.LVL8:
 102              		.syntax unified
 103              	@ 149 "../../os/hal/platforms/LPC17xx/serial_lld.c" 1
 104 004e 83F31188 		msr     BASEPRI, r3
 105              	@ 0 "" 2
 106              		.thumb
 107              		.syntax unified
 108              	.LBE20:
 109              		.loc 1 150 0
 110 0052 381D     		adds	r0, r7, #4
 111 0054 FFF7FEFF 		bl	chEvtBroadcastFlagsI
 112              	.LVL9:
 113              	.LBB21:
 114              		.loc 1 151 0
ARM GAS  /tmp/ccEDdA6z.s 			page 3


 115 0058 0023     		movs	r3, #0
 116              		.syntax unified
 117              	@ 151 "../../os/hal/platforms/LPC17xx/serial_lld.c" 1
 118 005a 83F31188 		msr     BASEPRI, r3
 119              	@ 0 "" 2
 120              		.thumb
 121              		.syntax unified
 122 005e D5E7     		b	.L2
 123              	.L7:
 124              	.LBE21:
 125              	.LBE19:
 126              	.LBE18:
 127              	.LBB22:
 128              		.loc 1 175 0
 129 0060 4023     		movs	r3, #64
 130              		.syntax unified
 131              	@ 175 "../../os/hal/platforms/LPC17xx/serial_lld.c" 1
 132 0062 83F31188 		msr     BASEPRI, r3
 133              	@ 0 "" 2
 134              		.thumb
 135              		.syntax unified
 136              	.LBE22:
 137              		.loc 1 176 0
 138 0066 7B69     		ldr	r3, [r7, #20]
 139 0068 002B     		cmp	r3, #0
 140 006a 43D0     		beq	.L37
 141              	.L14:
 142              	.LBB23:
 143              		.loc 1 178 0
 144 006c 0023     		movs	r3, #0
 145              		.syntax unified
 146              	@ 178 "../../os/hal/platforms/LPC17xx/serial_lld.c" 1
 147 006e 83F31188 		msr     BASEPRI, r3
 148              	@ 0 "" 2
 149              		.thumb
 150              		.syntax unified
 151              	.LBE23:
 152              		.loc 1 179 0
 153 0072 6369     		ldr	r3, [r4, #20]
 154 0074 DA07     		lsls	r2, r3, #31
 155 0076 C9D5     		bpl	.L2
 156 0078 07F10C05 		add	r5, r7, #12
 157              		.loc 1 182 0
 158 007c 07F10408 		add	r8, r7, #4
 159 0080 05E0     		b	.L17
 160              	.L16:
 161              	.LBB24:
 162              		.loc 1 183 0
 163 0082 0023     		movs	r3, #0
 164              		.syntax unified
 165              	@ 183 "../../os/hal/platforms/LPC17xx/serial_lld.c" 1
 166 0084 83F31188 		msr     BASEPRI, r3
 167              	@ 0 "" 2
 168              		.thumb
 169              		.syntax unified
 170              	.LBE24:
 171              		.loc 1 179 0
ARM GAS  /tmp/ccEDdA6z.s 			page 4


 172 0088 6369     		ldr	r3, [r4, #20]
 173 008a DB07     		lsls	r3, r3, #31
 174 008c BED5     		bpl	.L2
 175              	.L17:
 176              	.LBB25:
 177              		.loc 1 180 0
 178 008e 4023     		movs	r3, #64
 179              		.syntax unified
 180              	@ 180 "../../os/hal/platforms/LPC17xx/serial_lld.c" 1
 181 0090 83F31188 		msr     BASEPRI, r3
 182              	@ 0 "" 2
 183              		.thumb
 184              		.syntax unified
 185              	.LBE25:
 186              		.loc 1 181 0
 187 0094 2168     		ldr	r1, [r4]
 188 0096 2846     		mov	r0, r5
 189 0098 C9B2     		uxtb	r1, r1
 190 009a FFF7FEFF 		bl	chIQPutI
 191              	.LVL10:
 192 009e 0028     		cmp	r0, #0
 193 00a0 EFDA     		bge	.L16
 194              		.loc 1 182 0
 195 00a2 8021     		movs	r1, #128
 196 00a4 4046     		mov	r0, r8
 197 00a6 FFF7FEFF 		bl	chEvtBroadcastFlagsI
 198              	.LVL11:
 199 00aa EAE7     		b	.L16
 200              	.L6:
 201              		.loc 1 167 0
 202 00ac 1025     		movs	r5, #16
 203 00ae 02E0     		b	.L19
 204              	.LVL12:
 205              	.L18:
 206              	.LBB26:
 207              		.loc 1 203 0
 208 00b0 013D     		subs	r5, r5, #1
 209              	.LVL13:
 210              	.LBB27:
 211              		.loc 1 202 0
 212 00b2 2060     		str	r0, [r4]
 213              	.LVL14:
 214              	.LBE27:
 215              		.loc 1 203 0
 216 00b4 AAD0     		beq	.L2
 217              	.LVL15:
 218              	.L19:
 219              	.LBB33:
 220              	.LBB28:
 221              		.loc 1 192 0
 222 00b6 4023     		movs	r3, #64
 223              		.syntax unified
 224              	@ 192 "../../os/hal/platforms/LPC17xx/serial_lld.c" 1
 225 00b8 83F31188 		msr     BASEPRI, r3
 226              	@ 0 "" 2
 227              		.thumb
 228              		.syntax unified
ARM GAS  /tmp/ccEDdA6z.s 			page 5


 229              	.LBE28:
 230              		.loc 1 193 0
 231 00bc 3046     		mov	r0, r6
 232 00be FFF7FEFF 		bl	chOQGetI
 233              	.LVL16:
 234              	.LBB29:
 235              		.loc 1 194 0
 236 00c2 0023     		movs	r3, #0
 237              		.syntax unified
 238              	@ 194 "../../os/hal/platforms/LPC17xx/serial_lld.c" 1
 239 00c4 83F31188 		msr     BASEPRI, r3
 240              	@ 0 "" 2
 241              		.thumb
 242              		.syntax unified
 243              	.LBE29:
 244              		.loc 1 195 0
 245 00c8 9842     		cmp	r0, r3
 246 00ca F1DA     		bge	.L18
 247              		.loc 1 196 0
 248 00cc 6268     		ldr	r2, [r4, #4]
 249              	.LBB30:
 250              		.loc 1 197 0
 251 00ce 4023     		movs	r3, #64
 252              	.LBE30:
 253              		.loc 1 196 0
 254 00d0 22F00202 		bic	r2, r2, #2
 255 00d4 6260     		str	r2, [r4, #4]
 256              	.LBB31:
 257              		.loc 1 197 0
 258              		.syntax unified
 259              	@ 197 "../../os/hal/platforms/LPC17xx/serial_lld.c" 1
 260 00d6 83F31188 		msr     BASEPRI, r3
 261              	@ 0 "" 2
 262              		.thumb
 263              		.syntax unified
 264              	.LBE31:
 265              		.loc 1 198 0
 266 00da 0821     		movs	r1, #8
 267 00dc 381D     		adds	r0, r7, #4
 268              	.LVL17:
 269 00de FFF7FEFF 		bl	chEvtBroadcastFlagsI
 270              	.LVL18:
 271              	.LBB32:
 272              		.loc 1 199 0
 273 00e2 0023     		movs	r3, #0
 274              		.syntax unified
 275              	@ 199 "../../os/hal/platforms/LPC17xx/serial_lld.c" 1
 276 00e4 83F31188 		msr     BASEPRI, r3
 277              	@ 0 "" 2
 278              		.thumb
 279              		.syntax unified
 280              	.LBE32:
 281              		.loc 1 200 0
 282 00e8 90E7     		b	.L2
 283              	.LVL19:
 284              	.L1:
 285 00ea BDE8F081 		pop	{r4, r5, r6, r7, r8, pc}
ARM GAS  /tmp/ccEDdA6z.s 			page 6


 286              	.LVL20:
 287              	.L3:
 288              	.LBE33:
 289              	.LBE26:
 290              		.loc 1 207 0
 291 00ee 2368     		ldr	r3, [r4]
 292              		.loc 1 208 0
 293 00f0 2368     		ldr	r3, [r4]
 294 00f2 8BE7     		b	.L2
 295              	.L37:
 296              		.loc 1 177 0
 297 00f4 0421     		movs	r1, #4
 298 00f6 7818     		adds	r0, r7, r1
 299 00f8 FFF7FEFF 		bl	chEvtBroadcastFlagsI
 300              	.LVL21:
 301 00fc B6E7     		b	.L14
 302              		.cfi_endproc
 303              	.LFE66:
 304              		.size	serve_interrupt, .-serve_interrupt
 305 00fe 00BF     		.section	.text.preload,"ax",%progbits
 306              		.align	1
 307              		.p2align 2,,3
 308              		.syntax unified
 309              		.thumb
 310              		.thumb_func
 311              		.fpu softvfp
 312              		.type	preload, %function
 313              	preload:
 314              	.LFB67:
 315              		.loc 1 216 0
 316              		.cfi_startproc
 317              		@ args = 0, pretend = 0, frame = 0
 318              		@ frame_needed = 0, uses_anonymous_args = 0
 319              	.LVL22:
 320 0000 F8B5     		push	{r3, r4, r5, r6, r7, lr}
 321              		.cfi_def_cfa_offset 24
 322              		.cfi_offset 3, -24
 323              		.cfi_offset 4, -20
 324              		.cfi_offset 5, -16
 325              		.cfi_offset 6, -12
 326              		.cfi_offset 7, -8
 327              		.cfi_offset 14, -4
 328              		.loc 1 217 0
 329 0002 456F     		ldr	r5, [r0, #116]
 330              	.LVL23:
 331              		.loc 1 219 0
 332 0004 6B69     		ldr	r3, [r5, #20]
 333 0006 9B06     		lsls	r3, r3, #26
 334 0008 0BD5     		bpl	.L43
 335 000a 0746     		mov	r7, r0
 336 000c 1024     		movs	r4, #16
 337 000e 00F13006 		add	r6, r0, #48
 338              	.LVL24:
 339              	.L42:
 340              	.LBB34:
 341              	.LBB35:
 342              		.loc 1 222 0
ARM GAS  /tmp/ccEDdA6z.s 			page 7


 343 0012 3046     		mov	r0, r6
 344 0014 FFF7FEFF 		bl	chOQGetI
 345              	.LVL25:
 346              		.loc 1 223 0
 347 0018 0028     		cmp	r0, #0
 348 001a 07DB     		blt	.L47
 349              	.LBE35:
 350              		.loc 1 228 0
 351 001c 013C     		subs	r4, r4, #1
 352              	.LVL26:
 353              	.LBB36:
 354              		.loc 1 227 0
 355 001e 2860     		str	r0, [r5]
 356              	.LVL27:
 357              	.LBE36:
 358              		.loc 1 228 0
 359 0020 F7D1     		bne	.L42
 360              	.LVL28:
 361              	.L43:
 362              	.LBE34:
 363              		.loc 1 230 0
 364 0022 6B68     		ldr	r3, [r5, #4]
 365 0024 43F00203 		orr	r3, r3, #2
 366 0028 6B60     		str	r3, [r5, #4]
 367 002a F8BD     		pop	{r3, r4, r5, r6, r7, pc}
 368              	.LVL29:
 369              	.L47:
 370              	.LBB39:
 371              	.LBB37:
 372              		.loc 1 224 0
 373 002c 381D     		adds	r0, r7, #4
 374              	.LVL30:
 375 002e 0821     		movs	r1, #8
 376              	.LBE37:
 377              	.LBE39:
 378              		.loc 1 231 0
 379 0030 BDE8F840 		pop	{r3, r4, r5, r6, r7, lr}
 380              		.cfi_restore 14
 381              		.cfi_restore 7
 382              		.cfi_restore 6
 383              		.cfi_restore 5
 384              		.cfi_restore 4
 385              		.cfi_restore 3
 386              		.cfi_def_cfa_offset 0
 387              	.LVL31:
 388              	.LBB40:
 389              	.LBB38:
 390              		.loc 1 224 0
 391 0034 FFF7FEBF 		b	chEvtBroadcastFlagsI
 392              	.LVL32:
 393              	.LBE38:
 394              	.LBE40:
 395              		.cfi_endproc
 396              	.LFE67:
 397              		.size	preload, .-preload
 398              		.section	.text.notify3,"ax",%progbits
 399              		.align	1
ARM GAS  /tmp/ccEDdA6z.s 			page 8


 400              		.p2align 2,,3
 401              		.syntax unified
 402              		.thumb
 403              		.thumb_func
 404              		.fpu softvfp
 405              		.type	notify3, %function
 406              	notify3:
 407              	.LFB69:
 408              		.loc 1 259 0
 409              		.cfi_startproc
 410              		@ args = 0, pretend = 0, frame = 0
 411              		@ frame_needed = 0, uses_anonymous_args = 0
 412              		@ link register save eliminated.
 413              	.LVL33:
 414              		.loc 1 262 0
 415 0000 0148     		ldr	r0, .L49
 416              	.LVL34:
 417 0002 FFF7FEBF 		b	preload
 418              	.LVL35:
 419              	.L50:
 420 0006 00BF     		.align	2
 421              	.L49:
 422 0008 00000000 		.word	.LANCHOR0
 423              		.cfi_endproc
 424              	.LFE69:
 425              		.size	notify3, .-notify3
 426              		.section	.text.notify1,"ax",%progbits
 427              		.align	1
 428              		.p2align 2,,3
 429              		.syntax unified
 430              		.thumb
 431              		.thumb_func
 432              		.fpu softvfp
 433              		.type	notify1, %function
 434              	notify1:
 435              	.LFB68:
 436              		.loc 1 237 0
 437              		.cfi_startproc
 438              		@ args = 0, pretend = 0, frame = 0
 439              		@ frame_needed = 0, uses_anonymous_args = 0
 440              		@ link register save eliminated.
 441              	.LVL36:
 442              		.loc 1 240 0
 443 0000 0148     		ldr	r0, .L52
 444              	.LVL37:
 445 0002 FFF7FEBF 		b	preload
 446              	.LVL38:
 447              	.L53:
 448 0006 00BF     		.align	2
 449              	.L52:
 450 0008 00000000 		.word	.LANCHOR1
 451              		.cfi_endproc
 452              	.LFE68:
 453              		.size	notify1, .-notify1
 454              		.section	.text.Vector54,"ax",%progbits
 455              		.align	1
 456              		.p2align 2,,3
ARM GAS  /tmp/ccEDdA6z.s 			page 9


 457              		.global	Vector54
 458              		.syntax unified
 459              		.thumb
 460              		.thumb_func
 461              		.fpu softvfp
 462              		.type	Vector54, %function
 463              	Vector54:
 464              	.LFB70:
 465              		.loc 1 286 0
 466              		.cfi_startproc
 467              		@ args = 0, pretend = 0, frame = 0
 468              		@ frame_needed = 0, uses_anonymous_args = 0
 469 0000 08B5     		push	{r3, lr}
 470              		.cfi_def_cfa_offset 8
 471              		.cfi_offset 3, -8
 472              		.cfi_offset 14, -4
 473              		.loc 1 290 0
 474 0002 0348     		ldr	r0, .L56
 475 0004 FFF7FEFF 		bl	serve_interrupt
 476              	.LVL39:
 477              		.loc 1 293 0
 478 0008 BDE80840 		pop	{r3, lr}
 479              		.cfi_restore 14
 480              		.cfi_restore 3
 481              		.cfi_def_cfa_offset 0
 482              		.loc 1 292 0
 483 000c FFF7FEBF 		b	_port_irq_epilogue
 484              	.LVL40:
 485              	.L57:
 486              		.align	2
 487              	.L56:
 488 0010 00000000 		.word	.LANCHOR1
 489              		.cfi_endproc
 490              	.LFE70:
 491              		.size	Vector54, .-Vector54
 492              		.section	.text.Vector5C,"ax",%progbits
 493              		.align	1
 494              		.p2align 2,,3
 495              		.global	Vector5C
 496              		.syntax unified
 497              		.thumb
 498              		.thumb_func
 499              		.fpu softvfp
 500              		.type	Vector5C, %function
 501              	Vector5C:
 502              	.LFB71:
 503              		.loc 1 318 0
 504              		.cfi_startproc
 505              		@ args = 0, pretend = 0, frame = 0
 506              		@ frame_needed = 0, uses_anonymous_args = 0
 507 0000 08B5     		push	{r3, lr}
 508              		.cfi_def_cfa_offset 8
 509              		.cfi_offset 3, -8
 510              		.cfi_offset 14, -4
 511              		.loc 1 322 0
 512 0002 0348     		ldr	r0, .L60
 513 0004 FFF7FEFF 		bl	serve_interrupt
ARM GAS  /tmp/ccEDdA6z.s 			page 10


 514              	.LVL41:
 515              		.loc 1 325 0
 516 0008 BDE80840 		pop	{r3, lr}
 517              		.cfi_restore 14
 518              		.cfi_restore 3
 519              		.cfi_def_cfa_offset 0
 520              		.loc 1 324 0
 521 000c FFF7FEBF 		b	_port_irq_epilogue
 522              	.LVL42:
 523              	.L61:
 524              		.align	2
 525              	.L60:
 526 0010 00000000 		.word	.LANCHOR0
 527              		.cfi_endproc
 528              	.LFE71:
 529              		.size	Vector5C, .-Vector5C
 530              		.section	.text.sd_lld_init,"ax",%progbits
 531              		.align	1
 532              		.p2align 2,,3
 533              		.global	sd_lld_init
 534              		.syntax unified
 535              		.thumb
 536              		.thumb_func
 537              		.fpu softvfp
 538              		.type	sd_lld_init, %function
 539              	sd_lld_init:
 540              	.LFB72:
 541              		.loc 1 353 0
 542              		.cfi_startproc
 543              		@ args = 0, pretend = 0, frame = 0
 544              		@ frame_needed = 0, uses_anonymous_args = 0
 545 0000 38B5     		push	{r3, r4, r5, lr}
 546              		.cfi_def_cfa_offset 16
 547              		.cfi_offset 3, -16
 548              		.cfi_offset 4, -12
 549              		.cfi_offset 5, -8
 550              		.cfi_offset 14, -4
 551              		.loc 1 356 0
 552 0002 084D     		ldr	r5, .L64
 553 0004 084A     		ldr	r2, .L64+4
 554 0006 2846     		mov	r0, r5
 555 0008 0021     		movs	r1, #0
 556              		.loc 1 366 0
 557 000a 084C     		ldr	r4, .L64+8
 558              		.loc 1 356 0
 559 000c FFF7FEFF 		bl	sdObjectInit
 560              	.LVL43:
 561              		.loc 1 357 0
 562 0010 074B     		ldr	r3, .L64+12
 563              		.loc 1 366 0
 564 0012 2046     		mov	r0, r4
 565 0014 074A     		ldr	r2, .L64+16
 566 0016 0021     		movs	r1, #0
 567              		.loc 1 357 0
 568 0018 6B67     		str	r3, [r5, #116]
 569              		.loc 1 366 0
 570 001a FFF7FEFF 		bl	sdObjectInit
ARM GAS  /tmp/ccEDdA6z.s 			page 11


 571              	.LVL44:
 572              		.loc 1 367 0
 573 001e 064B     		ldr	r3, .L64+20
 574 0020 6367     		str	r3, [r4, #116]
 575 0022 38BD     		pop	{r3, r4, r5, pc}
 576              	.L65:
 577              		.align	2
 578              	.L64:
 579 0024 00000000 		.word	.LANCHOR1
 580 0028 00000000 		.word	notify1
 581 002c 00000000 		.word	.LANCHOR0
 582 0030 00C00040 		.word	1073790976
 583 0034 00000000 		.word	notify3
 584 0038 00800940 		.word	1074364416
 585              		.cfi_endproc
 586              	.LFE72:
 587              		.size	sd_lld_init, .-sd_lld_init
 588              		.section	.text.sd_lld_start,"ax",%progbits
 589              		.align	1
 590              		.p2align 2,,3
 591              		.global	sd_lld_start
 592              		.syntax unified
 593              		.thumb
 594              		.thumb_func
 595              		.fpu softvfp
 596              		.type	sd_lld_start, %function
 597              	sd_lld_start:
 598              	.LFB73:
 599              		.loc 1 386 0
 600              		.cfi_startproc
 601              		@ args = 0, pretend = 0, frame = 0
 602              		@ frame_needed = 0, uses_anonymous_args = 0
 603              	.LVL45:
 604 0000 F8B5     		push	{r3, r4, r5, r6, r7, lr}
 605              		.cfi_def_cfa_offset 24
 606              		.cfi_offset 3, -24
 607              		.cfi_offset 4, -20
 608              		.cfi_offset 5, -16
 609              		.cfi_offset 6, -12
 610              		.cfi_offset 7, -8
 611              		.cfi_offset 14, -4
 612              		.loc 1 389 0
 613 0002 294D     		ldr	r5, .L82
 614              		.loc 1 391 0
 615 0004 037A     		ldrb	r3, [r0, #8]	@ zero_extendqisi2
 616              		.loc 1 389 0
 617 0006 0029     		cmp	r1, #0
 618 0008 18BF     		it	ne
 619 000a 0D46     		movne	r5, r1
 620              	.LVL46:
 621              		.loc 1 391 0
 622 000c 012B     		cmp	r3, #1
 623 000e 32D0     		beq	.L79
 624              	.LVL47:
 625              	.LBB43:
 626              	.LBB44:
 627              		.loc 1 80 0
ARM GAS  /tmp/ccEDdA6z.s 			page 12


 628 0010 264A     		ldr	r2, .L82+4
 629              		.loc 1 76 0
 630 0012 436F     		ldr	r3, [r0, #116]
 631              	.LVL48:
 632              		.loc 1 80 0
 633 0014 9042     		cmp	r0, r2
 634 0016 27D0     		beq	.L72
 635              		.loc 1 92 0
 636 0018 254A     		ldr	r2, .L82+8
 637 001a 9042     		cmp	r0, r2
 638 001c 24D0     		beq	.L72
 639 001e 0020     		movs	r0, #0
 640              	.LVL49:
 641 0020 0246     		mov	r2, r0
 642              	.LVL50:
 643              	.L74:
 644              		.loc 1 110 0
 645 0022 8026     		movs	r6, #128
 646              		.loc 1 108 0
 647 0024 4FF0000E 		mov	lr, #0
 648              		.loc 1 109 0
 649 0028 1027     		movs	r7, #16
 650              		.loc 1 111 0
 651 002a 0524     		movs	r4, #5
 652              		.loc 1 103 0
 653 002c 6968     		ldr	r1, [r5, #4]
 654 002e 41EA060C 		orr	ip, r1, r6
 655 0032 C3F80CC0 		str	ip, [r3, #12]
 656              		.loc 1 104 0
 657 0036 1A60     		str	r2, [r3]
 658              		.loc 1 105 0
 659 0038 5860     		str	r0, [r3, #4]
 660              		.loc 1 107 0
 661 003a AA68     		ldr	r2, [r5, #8]
 662              	.LVL51:
 663              		.loc 1 106 0
 664 003c D960     		str	r1, [r3, #12]
 665              		.loc 1 107 0
 666 003e 42F00702 		orr	r2, r2, #7
 667 0042 9A60     		str	r2, [r3, #8]
 668              		.loc 1 108 0
 669 0044 C3F820E0 		str	lr, [r3, #32]
 670              		.loc 1 109 0
 671 0048 9F62     		str	r7, [r3, #40]
 672              		.loc 1 110 0
 673 004a 1E63     		str	r6, [r3, #48]
 674              		.loc 1 111 0
 675 004c 5C60     		str	r4, [r3, #4]
 676              	.LVL52:
 677              	.LBE44:
 678              	.LBE43:
 679              		.loc 1 425 0
 680 004e F8BD     		pop	{r3, r4, r5, r6, r7, pc}
 681              	.LVL53:
 682              	.L80:
 683              		.loc 1 394 0
 684 0050 184A     		ldr	r2, .L82+12
ARM GAS  /tmp/ccEDdA6z.s 			page 13


 685              		.loc 1 395 0
 686 0052 6021     		movs	r1, #96
 687              		.loc 1 394 0
 688 0054 D2F8C430 		ldr	r3, [r2, #196]
 689              		.loc 1 395 0
 690 0058 0520     		movs	r0, #5
 691              	.LVL54:
 692              		.loc 1 394 0
 693 005a 43F00803 		orr	r3, r3, #8
 694 005e C2F8C430 		str	r3, [r2, #196]
 695              		.loc 1 395 0
 696 0062 FFF7FEFF 		bl	nvicEnableVector
 697              	.LVL55:
 698              	.LBB48:
 699              	.LBB45:
 700              		.loc 1 76 0
 701 0066 636F     		ldr	r3, [r4, #116]
 702              	.LVL56:
 703              	.L72:
 704              		.loc 1 93 0
 705 0068 2968     		ldr	r1, [r5]
 706 006a 134A     		ldr	r2, .L82+16
 707 006c 0901     		lsls	r1, r1, #4
 708 006e B2FBF1F2 		udiv	r2, r2, r1
 709              	.LVL57:
 710 0072 100A     		lsrs	r0, r2, #8
 711 0074 D5E7     		b	.L74
 712              	.LVL58:
 713              	.L79:
 714              	.LBE45:
 715              	.LBE48:
 716              		.loc 1 393 0
 717 0076 0D4B     		ldr	r3, .L82+4
 718 0078 0446     		mov	r4, r0
 719 007a 9842     		cmp	r0, r3
 720 007c E8D0     		beq	.L80
 721              		.loc 1 409 0
 722 007e 0C4B     		ldr	r3, .L82+8
 723 0080 9842     		cmp	r0, r3
 724 0082 03D0     		beq	.L81
 725              	.LVL59:
 726              	.LBB49:
 727              	.LBB46:
 728              		.loc 1 76 0
 729 0084 0020     		movs	r0, #0
 730              	.LVL60:
 731 0086 636F     		ldr	r3, [r4, #116]
 732              	.LVL61:
 733 0088 0246     		mov	r2, r0
 734 008a CAE7     		b	.L74
 735              	.LVL62:
 736              	.L81:
 737              	.LBE46:
 738              	.LBE49:
 739              		.loc 1 410 0
 740 008c 094A     		ldr	r2, .L82+12
 741              		.loc 1 411 0
ARM GAS  /tmp/ccEDdA6z.s 			page 14


 742 008e 6021     		movs	r1, #96
 743              		.loc 1 410 0
 744 0090 D2F8C430 		ldr	r3, [r2, #196]
 745              		.loc 1 411 0
 746 0094 0720     		movs	r0, #7
 747              	.LVL63:
 748              		.loc 1 410 0
 749 0096 43F08073 		orr	r3, r3, #16777216
 750 009a C2F8C430 		str	r3, [r2, #196]
 751              		.loc 1 411 0
 752 009e FFF7FEFF 		bl	nvicEnableVector
 753              	.LVL64:
 754              	.LBB50:
 755              	.LBB47:
 756              		.loc 1 76 0
 757 00a2 636F     		ldr	r3, [r4, #116]
 758              	.LVL65:
 759 00a4 E0E7     		b	.L72
 760              	.L83:
 761 00a6 00BF     		.align	2
 762              	.L82:
 763 00a8 00000000 		.word	.LANCHOR2
 764 00ac 00000000 		.word	.LANCHOR1
 765 00b0 00000000 		.word	.LANCHOR0
 766 00b4 00C00F40 		.word	1074774016
 767 00b8 AA88E105 		.word	98666666
 768              	.LBE47:
 769              	.LBE50:
 770              		.cfi_endproc
 771              	.LFE73:
 772              		.size	sd_lld_start, .-sd_lld_start
 773              		.section	.text.sd_lld_stop,"ax",%progbits
 774              		.align	1
 775              		.p2align 2,,3
 776              		.global	sd_lld_stop
 777              		.syntax unified
 778              		.thumb
 779              		.thumb_func
 780              		.fpu softvfp
 781              		.type	sd_lld_stop, %function
 782              	sd_lld_stop:
 783              	.LFB74:
 784              		.loc 1 436 0
 785              		.cfi_startproc
 786              		@ args = 0, pretend = 0, frame = 0
 787              		@ frame_needed = 0, uses_anonymous_args = 0
 788              		@ link register save eliminated.
 789              	.LVL66:
 790              		.loc 1 438 0
 791 0000 037A     		ldrb	r3, [r0, #8]	@ zero_extendqisi2
 792 0002 022B     		cmp	r3, #2
 793 0004 00D0     		beq	.L94
 794              		.loc 1 472 0
 795 0006 7047     		bx	lr
 796              	.L94:
 797              		.loc 1 436 0
 798 0008 F0B4     		push	{r4, r5, r6, r7}
ARM GAS  /tmp/ccEDdA6z.s 			page 15


 799              		.cfi_def_cfa_offset 16
 800              		.cfi_offset 4, -16
 801              		.cfi_offset 5, -12
 802              		.cfi_offset 6, -8
 803              		.cfi_offset 7, -4
 804              	.LBB51:
 805              	.LBB52:
 806              		.loc 1 123 0
 807 000a 0022     		movs	r2, #0
 808              		.loc 1 121 0
 809 000c 8021     		movs	r1, #128
 810              		.loc 1 122 0
 811 000e 0127     		movs	r7, #1
 812              		.loc 1 125 0
 813 0010 1026     		movs	r6, #16
 814              		.loc 1 127 0
 815 0012 0625     		movs	r5, #6
 816              	.LBE52:
 817              	.LBE51:
 818              		.loc 1 441 0
 819 0014 134C     		ldr	r4, .L97
 820              		.loc 1 439 0
 821 0016 436F     		ldr	r3, [r0, #116]
 822              	.LVL67:
 823              		.loc 1 441 0
 824 0018 A042     		cmp	r0, r4
 825              	.LBB54:
 826              	.LBB53:
 827              		.loc 1 121 0
 828 001a D960     		str	r1, [r3, #12]
 829              		.loc 1 122 0
 830 001c 1F60     		str	r7, [r3]
 831              		.loc 1 123 0
 832 001e 5A60     		str	r2, [r3, #4]
 833              		.loc 1 124 0
 834 0020 DA60     		str	r2, [r3, #12]
 835              		.loc 1 125 0
 836 0022 9E62     		str	r6, [r3, #40]
 837              		.loc 1 126 0
 838 0024 5A60     		str	r2, [r3, #4]
 839              		.loc 1 127 0
 840 0026 9D60     		str	r5, [r3, #8]
 841              		.loc 1 128 0
 842 0028 1A62     		str	r2, [r3, #32]
 843              		.loc 1 129 0
 844 002a 1963     		str	r1, [r3, #48]
 845              	.LVL68:
 846              	.LBE53:
 847              	.LBE54:
 848              		.loc 1 441 0
 849 002c 0FD0     		beq	.L95
 850              		.loc 1 457 0
 851 002e 0E4B     		ldr	r3, .L97+4
 852 0030 9842     		cmp	r0, r3
 853 0032 01D0     		beq	.L96
 854              		.loc 1 472 0
 855 0034 F0BC     		pop	{r4, r5, r6, r7}
ARM GAS  /tmp/ccEDdA6z.s 			page 16


 856              		.cfi_remember_state
 857              		.cfi_restore 7
 858              		.cfi_restore 6
 859              		.cfi_restore 5
 860              		.cfi_restore 4
 861              		.cfi_def_cfa_offset 0
 862 0036 7047     		bx	lr
 863              	.L96:
 864              		.cfi_restore_state
 865              		.loc 1 458 0
 866 0038 0C4A     		ldr	r2, .L97+8
 867              		.loc 1 459 0
 868 003a 0720     		movs	r0, #7
 869              	.LVL69:
 870              		.loc 1 472 0
 871 003c F0BC     		pop	{r4, r5, r6, r7}
 872              		.cfi_remember_state
 873              		.cfi_restore 7
 874              		.cfi_restore 6
 875              		.cfi_restore 5
 876              		.cfi_restore 4
 877              		.cfi_def_cfa_offset 0
 878              		.loc 1 458 0
 879 003e D2F8C430 		ldr	r3, [r2, #196]
 880 0042 23F08073 		bic	r3, r3, #16777216
 881 0046 C2F8C430 		str	r3, [r2, #196]
 882              		.loc 1 459 0
 883 004a FFF7FEBF 		b	nvicDisableVector
 884              	.LVL70:
 885              	.L95:
 886              		.cfi_restore_state
 887              		.loc 1 442 0
 888 004e 074A     		ldr	r2, .L97+8
 889              		.loc 1 443 0
 890 0050 0520     		movs	r0, #5
 891              	.LVL71:
 892              		.loc 1 472 0
 893 0052 F0BC     		pop	{r4, r5, r6, r7}
 894              		.cfi_restore 7
 895              		.cfi_restore 6
 896              		.cfi_restore 5
 897              		.cfi_restore 4
 898              		.cfi_def_cfa_offset 0
 899              		.loc 1 442 0
 900 0054 D2F8C430 		ldr	r3, [r2, #196]
 901 0058 23F00803 		bic	r3, r3, #8
 902 005c C2F8C430 		str	r3, [r2, #196]
 903              		.loc 1 443 0
 904 0060 FFF7FEBF 		b	nvicDisableVector
 905              	.LVL72:
 906              	.L98:
 907              		.align	2
 908              	.L97:
 909 0064 00000000 		.word	.LANCHOR1
 910 0068 00000000 		.word	.LANCHOR0
 911 006c 00C00F40 		.word	1074774016
 912              		.cfi_endproc
ARM GAS  /tmp/ccEDdA6z.s 			page 17


 913              	.LFE74:
 914              		.size	sd_lld_stop, .-sd_lld_stop
 915              		.global	SD3
 916              		.global	SD1
 917              		.section	.bss.SD1,"aw",%nobits
 918              		.align	2
 919              		.set	.LANCHOR1,. + 0
 920              		.type	SD1, %object
 921              		.size	SD1, 120
 922              	SD1:
 923 0000 00000000 		.space	120
 923      00000000 
 923      00000000 
 923      00000000 
 923      00000000 
 924              		.section	.bss.SD3,"aw",%nobits
 925              		.align	2
 926              		.set	.LANCHOR0,. + 0
 927              		.type	SD3, %object
 928              		.size	SD3, 120
 929              	SD3:
 930 0000 00000000 		.space	120
 930      00000000 
 930      00000000 
 930      00000000 
 930      00000000 
 931              		.section	.rodata.default_config,"a",%progbits
 932              		.align	2
 933              		.set	.LANCHOR2,. + 0
 934              		.type	default_config, %object
 935              		.size	default_config, 12
 936              	default_config:
 937 0000 00960000 		.word	38400
 938 0004 03000000 		.word	3
 939 0008 00000000 		.word	0
 940              		.text
 941              	.Letext0:
 942              		.file 2 "/usr/lib/gcc/arm-none-eabi/6.3.1/include/stddef.h"
 943              		.file 3 "/usr/include/newlib/machine/_default_types.h"
 944              		.file 4 "/usr/include/newlib/sys/_stdint.h"
 945              		.file 5 "../../os/ports/GCC/ARMCMx/chtypes.h"
 946              		.file 6 "../../os/kernel/include/chlists.h"
 947              		.file 7 "../../os/kernel/include/chthreads.h"
 948              		.file 8 "../../os/ports/GCC/ARMCMx/chcore_v7m.h"
 949              		.file 9 "../../os/ports/common/ARMCMx/nvic.h"
 950              		.file 10 "../../os/kernel/include/chvt.h"
 951              		.file 11 "../../os/kernel/include/chschd.h"
 952              		.file 12 "../../os/kernel/include/chmtx.h"
 953              		.file 13 "../../os/kernel/include/chevents.h"
 954              		.file 14 "../../os/kernel/include/chregistry.h"
 955              		.file 15 "../../os/kernel/include/chqueues.h"
 956              		.file 16 "../../os/kernel/include/ch.h"
 957              		.file 17 "../../os/ports/common/ARMCMx/CMSIS/include/core_cm3.h"
 958              		.file 18 "../../os/hal/platforms/LPC17xx/system_LPC17xx.h"
 959              		.file 19 "../../os/hal/platforms/LPC17xx/LPC17xx.h"
 960              		.file 20 "../../os/hal/platforms/LPC17xx/lpc17xx_dma.h"
 961              		.file 21 "../../os/hal/platforms/LPC17xx/pal_lld.h"
ARM GAS  /tmp/ccEDdA6z.s 			page 18


 962              		.file 22 "../../os/hal/include/gpt.h"
 963              		.file 23 "../../os/hal/platforms/LPC17xx/gpt_lld.h"
 964              		.file 24 "../../os/hal/include/serial.h"
 965              		.file 25 "../../os/hal/platforms/LPC17xx/serial_lld.h"