ARM GAS  /tmp/ccn3cifU.s 			page 1


   1              		.cpu cortex-m3
   2              		.eabi_attribute 20, 1
   3              		.eabi_attribute 21, 1
   4              		.eabi_attribute 23, 3
   5              		.eabi_attribute 24, 1
   6              		.eabi_attribute 25, 1
   7              		.eabi_attribute 26, 1
   8              		.eabi_attribute 30, 2
   9              		.eabi_attribute 34, 1
  10              		.eabi_attribute 18, 4
  11              		.file	"serial.c"
  12              		.text
  13              	.Ltext0:
  14              		.cfi_sections	.debug_frame
  15              		.section	.text.readt,"ax",%progbits
  16              		.align	1
  17              		.p2align 2,,3
  18              		.syntax unified
  19              		.thumb
  20              		.thumb_func
  21              		.fpu softvfp
  22              		.type	readt, %function
  23              	readt:
  24              	.LFB70:
  25              		.file 1 "../../os/hal/src/serial.c"
  26              		.loc 1 92 0
  27              		.cfi_startproc
  28              		@ args = 0, pretend = 0, frame = 0
  29              		@ frame_needed = 0, uses_anonymous_args = 0
  30              		@ link register save eliminated.
  31              	.LVL0:
  32              		.loc 1 94 0
  33 0000 0C30     		adds	r0, r0, #12
  34              	.LVL1:
  35 0002 FFF7FEBF 		b	chIQReadTimeout
  36              	.LVL2:
  37              		.cfi_endproc
  38              	.LFE70:
  39              		.size	readt, .-readt
  40 0006 00BF     		.section	.text.read,"ax",%progbits
  41              		.align	1
  42              		.p2align 2,,3
  43              		.syntax unified
  44              		.thumb
  45              		.thumb_func
  46              		.fpu softvfp
  47              		.type	read, %function
  48              	read:
  49              	.LFB64:
  50              		.loc 1 61 0
  51              		.cfi_startproc
  52              		@ args = 0, pretend = 0, frame = 0
  53              		@ frame_needed = 0, uses_anonymous_args = 0
  54              		@ link register save eliminated.
  55              	.LVL3:
  56              		.loc 1 63 0
  57 0000 0C30     		adds	r0, r0, #12
ARM GAS  /tmp/ccn3cifU.s 			page 2


  58              	.LVL4:
  59 0002 4FF0FF33 		mov	r3, #-1
  60 0006 FFF7FEBF 		b	chIQReadTimeout
  61              	.LVL5:
  62              		.cfi_endproc
  63              	.LFE64:
  64              		.size	read, .-read
  65 000a 00BF     		.section	.text.writet,"ax",%progbits
  66              		.align	1
  67              		.p2align 2,,3
  68              		.syntax unified
  69              		.thumb
  70              		.thumb_func
  71              		.fpu softvfp
  72              		.type	writet, %function
  73              	writet:
  74              	.LFB69:
  75              		.loc 1 87 0
  76              		.cfi_startproc
  77              		@ args = 0, pretend = 0, frame = 0
  78              		@ frame_needed = 0, uses_anonymous_args = 0
  79              		@ link register save eliminated.
  80              	.LVL6:
  81              		.loc 1 89 0
  82 0000 3030     		adds	r0, r0, #48
  83              	.LVL7:
  84 0002 FFF7FEBF 		b	chOQWriteTimeout
  85              	.LVL8:
  86              		.cfi_endproc
  87              	.LFE69:
  88              		.size	writet, .-writet
  89 0006 00BF     		.section	.text.write,"ax",%progbits
  90              		.align	1
  91              		.p2align 2,,3
  92              		.syntax unified
  93              		.thumb
  94              		.thumb_func
  95              		.fpu softvfp
  96              		.type	write, %function
  97              	write:
  98              	.LFB63:
  99              		.loc 1 55 0
 100              		.cfi_startproc
 101              		@ args = 0, pretend = 0, frame = 0
 102              		@ frame_needed = 0, uses_anonymous_args = 0
 103              		@ link register save eliminated.
 104              	.LVL9:
 105              		.loc 1 57 0
 106 0000 3030     		adds	r0, r0, #48
 107              	.LVL10:
 108 0002 4FF0FF33 		mov	r3, #-1
 109 0006 FFF7FEBF 		b	chOQWriteTimeout
 110              	.LVL11:
 111              		.cfi_endproc
 112              	.LFE63:
 113              		.size	write, .-write
 114 000a 00BF     		.section	.text.gett,"ax",%progbits
ARM GAS  /tmp/ccn3cifU.s 			page 3


 115              		.align	1
 116              		.p2align 2,,3
 117              		.syntax unified
 118              		.thumb
 119              		.thumb_func
 120              		.fpu softvfp
 121              		.type	gett, %function
 122              	gett:
 123              	.LFB68:
 124              		.loc 1 82 0
 125              		.cfi_startproc
 126              		@ args = 0, pretend = 0, frame = 0
 127              		@ frame_needed = 0, uses_anonymous_args = 0
 128              		@ link register save eliminated.
 129              	.LVL12:
 130              		.loc 1 84 0
 131 0000 0C30     		adds	r0, r0, #12
 132              	.LVL13:
 133 0002 FFF7FEBF 		b	chIQGetTimeout
 134              	.LVL14:
 135              		.cfi_endproc
 136              	.LFE68:
 137              		.size	gett, .-gett
 138 0006 00BF     		.section	.text.get,"ax",%progbits
 139              		.align	1
 140              		.p2align 2,,3
 141              		.syntax unified
 142              		.thumb
 143              		.thumb_func
 144              		.fpu softvfp
 145              		.type	get, %function
 146              	get:
 147              	.LFB66:
 148              		.loc 1 72 0
 149              		.cfi_startproc
 150              		@ args = 0, pretend = 0, frame = 0
 151              		@ frame_needed = 0, uses_anonymous_args = 0
 152              		@ link register save eliminated.
 153              	.LVL15:
 154              		.loc 1 74 0
 155 0000 0C30     		adds	r0, r0, #12
 156              	.LVL16:
 157 0002 4FF0FF31 		mov	r1, #-1
 158 0006 FFF7FEBF 		b	chIQGetTimeout
 159              	.LVL17:
 160              		.cfi_endproc
 161              	.LFE66:
 162              		.size	get, .-get
 163 000a 00BF     		.section	.text.putt,"ax",%progbits
 164              		.align	1
 165              		.p2align 2,,3
 166              		.syntax unified
 167              		.thumb
 168              		.thumb_func
 169              		.fpu softvfp
 170              		.type	putt, %function
 171              	putt:
ARM GAS  /tmp/ccn3cifU.s 			page 4


 172              	.LFB67:
 173              		.loc 1 77 0
 174              		.cfi_startproc
 175              		@ args = 0, pretend = 0, frame = 0
 176              		@ frame_needed = 0, uses_anonymous_args = 0
 177              		@ link register save eliminated.
 178              	.LVL18:
 179              		.loc 1 79 0
 180 0000 3030     		adds	r0, r0, #48
 181              	.LVL19:
 182 0002 FFF7FEBF 		b	chOQPutTimeout
 183              	.LVL20:
 184              		.cfi_endproc
 185              	.LFE67:
 186              		.size	putt, .-putt
 187 0006 00BF     		.section	.text.put,"ax",%progbits
 188              		.align	1
 189              		.p2align 2,,3
 190              		.syntax unified
 191              		.thumb
 192              		.thumb_func
 193              		.fpu softvfp
 194              		.type	put, %function
 195              	put:
 196              	.LFB65:
 197              		.loc 1 67 0
 198              		.cfi_startproc
 199              		@ args = 0, pretend = 0, frame = 0
 200              		@ frame_needed = 0, uses_anonymous_args = 0
 201              		@ link register save eliminated.
 202              	.LVL21:
 203              		.loc 1 69 0
 204 0000 3030     		adds	r0, r0, #48
 205              	.LVL22:
 206 0002 4FF0FF32 		mov	r2, #-1
 207 0006 FFF7FEBF 		b	chOQPutTimeout
 208              	.LVL23:
 209              		.cfi_endproc
 210              	.LFE65:
 211              		.size	put, .-put
 212 000a 00BF     		.section	.text.sdInit,"ax",%progbits
 213              		.align	1
 214              		.p2align 2,,3
 215              		.global	sdInit
 216              		.syntax unified
 217              		.thumb
 218              		.thumb_func
 219              		.fpu softvfp
 220              		.type	sdInit, %function
 221              	sdInit:
 222              	.LFB71:
 223              		.loc 1 113 0
 224              		.cfi_startproc
 225              		@ args = 0, pretend = 0, frame = 0
 226              		@ frame_needed = 0, uses_anonymous_args = 0
 227              		@ link register save eliminated.
 228              		.loc 1 115 0
ARM GAS  /tmp/ccn3cifU.s 			page 5


 229 0000 FFF7FEBF 		b	sd_lld_init
 230              	.LVL24:
 231              		.cfi_endproc
 232              	.LFE71:
 233              		.size	sdInit, .-sdInit
 234              		.section	.text.sdObjectInit,"ax",%progbits
 235              		.align	1
 236              		.p2align 2,,3
 237              		.global	sdObjectInit
 238              		.syntax unified
 239              		.thumb
 240              		.thumb_func
 241              		.fpu softvfp
 242              		.type	sdObjectInit, %function
 243              	sdObjectInit:
 244              	.LFB72:
 245              		.loc 1 133 0
 246              		.cfi_startproc
 247              		@ args = 0, pretend = 0, frame = 0
 248              		@ frame_needed = 0, uses_anonymous_args = 0
 249              	.LVL25:
 250 0000 70B5     		push	{r4, r5, r6, lr}
 251              		.cfi_def_cfa_offset 16
 252              		.cfi_offset 4, -16
 253              		.cfi_offset 5, -12
 254              		.cfi_offset 6, -8
 255              		.cfi_offset 14, -4
 256 0002 0446     		mov	r4, r0
 257              		.loc 1 137 0
 258 0004 0126     		movs	r6, #1
 259              		.loc 1 133 0
 260 0006 1546     		mov	r5, r2
 261              		.loc 1 135 0
 262 0008 0C4B     		ldr	r3, .L12
 263              		.loc 1 133 0
 264 000a 82B0     		sub	sp, sp, #8
 265              		.cfi_def_cfa_offset 24
 266              		.loc 1 138 0
 267 000c 0090     		str	r0, [sp]
 268              		.loc 1 135 0
 269 000e 40F8043B 		str	r3, [r0], #4
 270              	.LVL26:
 271              		.loc 1 136 0
 272 0012 6060     		str	r0, [r4, #4]
 273              		.loc 1 138 0
 274 0014 0B46     		mov	r3, r1
 275 0016 04F10C00 		add	r0, r4, #12
 276 001a 04F15401 		add	r1, r4, #84
 277              	.LVL27:
 278              		.loc 1 137 0
 279 001e 2672     		strb	r6, [r4, #8]
 280              		.loc 1 138 0
 281 0020 1022     		movs	r2, #16
 282              	.LVL28:
 283 0022 FFF7FEFF 		bl	chIQInit
 284              	.LVL29:
 285              		.loc 1 139 0
ARM GAS  /tmp/ccn3cifU.s 			page 6


 286 0026 0094     		str	r4, [sp]
 287 0028 2B46     		mov	r3, r5
 288 002a 04F16401 		add	r1, r4, #100
 289 002e 04F13000 		add	r0, r4, #48
 290 0032 1022     		movs	r2, #16
 291 0034 FFF7FEFF 		bl	chOQInit
 292              	.LVL30:
 293              		.loc 1 140 0
 294 0038 02B0     		add	sp, sp, #8
 295              		.cfi_def_cfa_offset 16
 296              		@ sp needed
 297 003a 70BD     		pop	{r4, r5, r6, pc}
 298              	.LVL31:
 299              	.L13:
 300              		.align	2
 301              	.L12:
 302 003c 00000000 		.word	.LANCHOR0
 303              		.cfi_endproc
 304              	.LFE72:
 305              		.size	sdObjectInit, .-sdObjectInit
 306              		.section	.text.sdStart,"ax",%progbits
 307              		.align	1
 308              		.p2align 2,,3
 309              		.global	sdStart
 310              		.syntax unified
 311              		.thumb
 312              		.thumb_func
 313              		.fpu softvfp
 314              		.type	sdStart, %function
 315              	sdStart:
 316              	.LFB73:
 317              		.loc 1 152 0
 318              		.cfi_startproc
 319              		@ args = 0, pretend = 0, frame = 0
 320              		@ frame_needed = 0, uses_anonymous_args = 0
 321              	.LVL32:
 322 0000 10B5     		push	{r4, lr}
 323              		.cfi_def_cfa_offset 8
 324              		.cfi_offset 4, -8
 325              		.cfi_offset 14, -4
 326              	.LBB2:
 327              		.loc 1 156 0
 328 0002 4023     		movs	r3, #64
 329              	.LBE2:
 330              		.loc 1 152 0
 331 0004 0446     		mov	r4, r0
 332              	.LBB3:
 333              		.loc 1 156 0
 334              		.syntax unified
 335              	@ 156 "../../os/hal/src/serial.c" 1
 336 0006 83F31188 		msr     BASEPRI, r3
 337              	@ 0 "" 2
 338              		.thumb
 339              		.syntax unified
 340              	.LBE3:
 341              		.loc 1 160 0
 342 000a FFF7FEFF 		bl	sd_lld_start
ARM GAS  /tmp/ccn3cifU.s 			page 7


 343              	.LVL33:
 344              		.loc 1 161 0
 345 000e 0222     		movs	r2, #2
 346              	.LBB4:
 347              		.loc 1 162 0
 348 0010 0023     		movs	r3, #0
 349              	.LBE4:
 350              		.loc 1 161 0
 351 0012 2272     		strb	r2, [r4, #8]
 352              	.LBB5:
 353              		.loc 1 162 0
 354              		.syntax unified
 355              	@ 162 "../../os/hal/src/serial.c" 1
 356 0014 83F31188 		msr     BASEPRI, r3
 357              	@ 0 "" 2
 358              		.thumb
 359              		.syntax unified
 360 0018 10BD     		pop	{r4, pc}
 361              	.LBE5:
 362              		.cfi_endproc
 363              	.LFE73:
 364              		.size	sdStart, .-sdStart
 365 001a 00BF     		.section	.text.sdStop,"ax",%progbits
 366              		.align	1
 367              		.p2align 2,,3
 368              		.global	sdStop
 369              		.syntax unified
 370              		.thumb
 371              		.thumb_func
 372              		.fpu softvfp
 373              		.type	sdStop, %function
 374              	sdStop:
 375              	.LFB74:
 376              		.loc 1 174 0
 377              		.cfi_startproc
 378              		@ args = 0, pretend = 0, frame = 0
 379              		@ frame_needed = 0, uses_anonymous_args = 0
 380              	.LVL34:
 381 0000 10B5     		push	{r4, lr}
 382              		.cfi_def_cfa_offset 8
 383              		.cfi_offset 4, -8
 384              		.cfi_offset 14, -4
 385              	.LBB6:
 386              		.loc 1 178 0
 387 0002 4023     		movs	r3, #64
 388              	.LBE6:
 389              		.loc 1 174 0
 390 0004 0446     		mov	r4, r0
 391              	.LBB7:
 392              		.loc 1 178 0
 393              		.syntax unified
 394              	@ 178 "../../os/hal/src/serial.c" 1
 395 0006 83F31188 		msr     BASEPRI, r3
 396              	@ 0 "" 2
 397              		.thumb
 398              		.syntax unified
 399              	.LBE7:
ARM GAS  /tmp/ccn3cifU.s 			page 8


 400              		.loc 1 182 0
 401 000a FFF7FEFF 		bl	sd_lld_stop
 402              	.LVL35:
 403              		.loc 1 183 0
 404 000e 0123     		movs	r3, #1
 405              		.loc 1 184 0
 406 0010 04F13000 		add	r0, r4, #48
 407              		.loc 1 183 0
 408 0014 2372     		strb	r3, [r4, #8]
 409              		.loc 1 184 0
 410 0016 FFF7FEFF 		bl	chOQResetI
 411              	.LVL36:
 412              		.loc 1 185 0
 413 001a 04F10C00 		add	r0, r4, #12
 414 001e FFF7FEFF 		bl	chIQResetI
 415              	.LVL37:
 416              		.loc 1 186 0
 417 0022 FFF7FEFF 		bl	chSchRescheduleS
 418              	.LVL38:
 419              	.LBB8:
 420              		.loc 1 187 0
 421 0026 0023     		movs	r3, #0
 422              		.syntax unified
 423              	@ 187 "../../os/hal/src/serial.c" 1
 424 0028 83F31188 		msr     BASEPRI, r3
 425              	@ 0 "" 2
 426              		.thumb
 427              		.syntax unified
 428 002c 10BD     		pop	{r4, pc}
 429              	.LBE8:
 430              		.cfi_endproc
 431              	.LFE74:
 432              		.size	sdStop, .-sdStop
 433 002e 00BF     		.section	.text.sdIncomingDataI,"ax",%progbits
 434              		.align	1
 435              		.p2align 2,,3
 436              		.global	sdIncomingDataI
 437              		.syntax unified
 438              		.thumb
 439              		.thumb_func
 440              		.fpu softvfp
 441              		.type	sdIncomingDataI, %function
 442              	sdIncomingDataI:
 443              	.LFB75:
 444              		.loc 1 206 0
 445              		.cfi_startproc
 446              		@ args = 0, pretend = 0, frame = 0
 447              		@ frame_needed = 0, uses_anonymous_args = 0
 448              	.LVL39:
 449 0000 38B5     		push	{r3, r4, r5, lr}
 450              		.cfi_def_cfa_offset 16
 451              		.cfi_offset 3, -16
 452              		.cfi_offset 4, -12
 453              		.cfi_offset 5, -8
 454              		.cfi_offset 14, -4
 455              		.loc 1 211 0
 456 0002 4369     		ldr	r3, [r0, #20]
ARM GAS  /tmp/ccn3cifU.s 			page 9


 457              		.loc 1 206 0
 458 0004 0446     		mov	r4, r0
 459 0006 0D46     		mov	r5, r1
 460              		.loc 1 211 0
 461 0008 3BB1     		cbz	r3, .L23
 462              		.loc 1 213 0
 463 000a 2946     		mov	r1, r5
 464              	.LVL40:
 465 000c 04F10C00 		add	r0, r4, #12
 466              	.LVL41:
 467 0010 FFF7FEFF 		bl	chIQPutI
 468              	.LVL42:
 469 0014 0028     		cmp	r0, #0
 470 0016 0BDB     		blt	.L24
 471              	.L18:
 472 0018 38BD     		pop	{r3, r4, r5, pc}
 473              	.LVL43:
 474              	.L23:
 475              		.loc 1 212 0
 476 001a 0421     		movs	r1, #4
 477              	.LVL44:
 478 001c 0844     		add	r0, r0, r1
 479              	.LVL45:
 480 001e FFF7FEFF 		bl	chEvtBroadcastFlagsI
 481              	.LVL46:
 482              		.loc 1 213 0
 483 0022 2946     		mov	r1, r5
 484 0024 04F10C00 		add	r0, r4, #12
 485 0028 FFF7FEFF 		bl	chIQPutI
 486              	.LVL47:
 487 002c 0028     		cmp	r0, #0
 488 002e F3DA     		bge	.L18
 489              	.L24:
 490              		.loc 1 214 0
 491 0030 201D     		adds	r0, r4, #4
 492 0032 8021     		movs	r1, #128
 493              		.loc 1 215 0
 494 0034 BDE83840 		pop	{r3, r4, r5, lr}
 495              		.cfi_restore 14
 496              		.cfi_restore 5
 497              		.cfi_restore 4
 498              		.cfi_restore 3
 499              		.cfi_def_cfa_offset 0
 500              	.LVL48:
 501              		.loc 1 214 0
 502 0038 FFF7FEBF 		b	chEvtBroadcastFlagsI
 503              	.LVL49:
 504              		.cfi_endproc
 505              	.LFE75:
 506              		.size	sdIncomingDataI, .-sdIncomingDataI
 507              		.section	.text.sdRequestDataI,"ax",%progbits
 508              		.align	1
 509              		.p2align 2,,3
 510              		.global	sdRequestDataI
 511              		.syntax unified
 512              		.thumb
 513              		.thumb_func
ARM GAS  /tmp/ccn3cifU.s 			page 10


 514              		.fpu softvfp
 515              		.type	sdRequestDataI, %function
 516              	sdRequestDataI:
 517              	.LFB76:
 518              		.loc 1 232 0
 519              		.cfi_startproc
 520              		@ args = 0, pretend = 0, frame = 0
 521              		@ frame_needed = 0, uses_anonymous_args = 0
 522              	.LVL50:
 523 0000 38B5     		push	{r3, r4, r5, lr}
 524              		.cfi_def_cfa_offset 16
 525              		.cfi_offset 3, -16
 526              		.cfi_offset 4, -12
 527              		.cfi_offset 5, -8
 528              		.cfi_offset 14, -4
 529              		.loc 1 232 0
 530 0002 0446     		mov	r4, r0
 531              		.loc 1 238 0
 532 0004 3030     		adds	r0, r0, #48
 533              	.LVL51:
 534 0006 FFF7FEFF 		bl	chOQGetI
 535              	.LVL52:
 536              		.loc 1 239 0
 537 000a 051E     		subs	r5, r0, #0
 538 000c 01DB     		blt	.L28
 539              		.loc 1 242 0
 540 000e 2846     		mov	r0, r5
 541 0010 38BD     		pop	{r3, r4, r5, pc}
 542              	.LVL53:
 543              	.L28:
 544              		.loc 1 240 0
 545 0012 201D     		adds	r0, r4, #4
 546              	.LVL54:
 547 0014 0821     		movs	r1, #8
 548 0016 FFF7FEFF 		bl	chEvtBroadcastFlagsI
 549              	.LVL55:
 550              		.loc 1 242 0
 551 001a 2846     		mov	r0, r5
 552 001c 38BD     		pop	{r3, r4, r5, pc}
 553              		.cfi_endproc
 554              	.LFE76:
 555              		.size	sdRequestDataI, .-sdRequestDataI
 556 001e 00BF     		.section	.rodata.vmt,"a",%progbits
 557              		.align	2
 558              		.set	.LANCHOR0,. + 0
 559              		.type	vmt, %object
 560              		.size	vmt, 32
 561              	vmt:
 562 0000 00000000 		.word	write
 563 0004 00000000 		.word	read
 564 0008 00000000 		.word	put
 565 000c 00000000 		.word	get
 566 0010 00000000 		.word	putt
 567 0014 00000000 		.word	gett
 568 0018 00000000 		.word	writet
 569 001c 00000000 		.word	readt
 570              		.text
ARM GAS  /tmp/ccn3cifU.s 			page 11


 571              	.Letext0:
 572              		.file 2 "/usr/lib/gcc/arm-none-eabi/6.3.1/include/stddef.h"
 573              		.file 3 "/usr/include/newlib/machine/_default_types.h"
 574              		.file 4 "/usr/include/newlib/sys/_stdint.h"
 575              		.file 5 "../../os/ports/GCC/ARMCMx/chtypes.h"
 576              		.file 6 "../../os/kernel/include/chlists.h"
 577              		.file 7 "../../os/kernel/include/chthreads.h"
 578              		.file 8 "../../os/ports/GCC/ARMCMx/chcore_v7m.h"
 579              		.file 9 "../../os/kernel/include/chvt.h"
 580              		.file 10 "../../os/kernel/include/chschd.h"
 581              		.file 11 "../../os/kernel/include/chmtx.h"
 582              		.file 12 "../../os/kernel/include/chevents.h"
 583              		.file 13 "../../os/kernel/include/chregistry.h"
 584              		.file 14 "../../os/kernel/include/chqueues.h"
 585              		.file 15 "../../os/kernel/include/ch.h"
 586              		.file 16 "../../os/ports/common/ARMCMx/CMSIS/include/core_cm3.h"
 587              		.file 17 "../../os/hal/platforms/LPC17xx/system_LPC17xx.h"
 588              		.file 18 "../../os/hal/platforms/LPC17xx/LPC17xx.h"
 589              		.file 19 "../../os/hal/platforms/LPC17xx/lpc17xx_dma.h"
 590              		.file 20 "../../os/hal/platforms/LPC17xx/pal_lld.h"
 591              		.file 21 "../../os/hal/include/gpt.h"
 592              		.file 22 "../../os/hal/platforms/LPC17xx/gpt_lld.h"
 593              		.file 23 "../../os/hal/include/serial.h"
 594              		.file 24 "../../os/hal/platforms/LPC17xx/serial_lld.h"
 595              		.section	.debug_info,"",%progbits
 596              	.Ldebug_info0:
 597 0000 F0140000 		.4byte	0x14f0
 598 0004 0400     		.2byte	0x4
 599 0006 00000000 		.4byte	.Ldebug_abbrev0
 600 000a 04       		.byte	0x4
 601 000b 01       		.uleb128 0x1
 602 000c 2B050000 		.4byte	.LASF208
 603 0010 0C       		.byte	0xc
 604 0011 1B040000 		.4byte	.LASF209
 605 0015 51060000 		.4byte	.LASF210
 606 0019 48000000 		.4byte	.Ldebug_ranges0+0x48
 607 001d 00000000 		.4byte	0
 608 0021 00000000 		.4byte	.Ldebug_line0
 609 0025 02       		.uleb128 0x2
 610 0026 04       		.byte	0x4
 611 0027 05       		.byte	0x5
 612 0028 696E7400 		.ascii	"int\000"
 613 002c 03       		.uleb128 0x3
 614 002d 00000000 		.4byte	.LASF4
 615 0031 02       		.byte	0x2
 616 0032 D8       		.byte	0xd8
 617 0033 37000000 		.4byte	0x37
 618 0037 04       		.uleb128 0x4
 619 0038 04       		.byte	0x4
 620 0039 07       		.byte	0x7
 621 003a EA040000 		.4byte	.LASF0
 622 003e 04       		.uleb128 0x4
 623 003f 08       		.byte	0x8
 624 0040 05       		.byte	0x5
 625 0041 65040000 		.4byte	.LASF1
 626 0045 04       		.uleb128 0x4
 627 0046 08       		.byte	0x8
ARM GAS  /tmp/ccn3cifU.s 			page 12


 628 0047 04       		.byte	0x4
 629 0048 2E060000 		.4byte	.LASF2
 630 004c 04       		.uleb128 0x4
 631 004d 01       		.byte	0x1
 632 004e 06       		.byte	0x6
 633 004f 1A020000 		.4byte	.LASF3
 634 0053 03       		.uleb128 0x3
 635 0054 27010000 		.4byte	.LASF5
 636 0058 03       		.byte	0x3
 637 0059 1D       		.byte	0x1d
 638 005a 5E000000 		.4byte	0x5e
 639 005e 04       		.uleb128 0x4
 640 005f 01       		.byte	0x1
 641 0060 08       		.byte	0x8
 642 0061 60020000 		.4byte	.LASF6
 643 0065 04       		.uleb128 0x4
 644 0066 02       		.byte	0x2
 645 0067 05       		.byte	0x5
 646 0068 8E070000 		.4byte	.LASF7
 647 006c 03       		.uleb128 0x3
 648 006d CD020000 		.4byte	.LASF8
 649 0071 03       		.byte	0x3
 650 0072 2B       		.byte	0x2b
 651 0073 77000000 		.4byte	0x77
 652 0077 04       		.uleb128 0x4
 653 0078 02       		.byte	0x2
 654 0079 07       		.byte	0x7
 655 007a 79080000 		.4byte	.LASF9
 656 007e 03       		.uleb128 0x3
 657 007f B5080000 		.4byte	.LASF10
 658 0083 03       		.byte	0x3
 659 0084 3F       		.byte	0x3f
 660 0085 89000000 		.4byte	0x89
 661 0089 04       		.uleb128 0x4
 662 008a 04       		.byte	0x4
 663 008b 05       		.byte	0x5
 664 008c 99010000 		.4byte	.LASF11
 665 0090 03       		.uleb128 0x3
 666 0091 44040000 		.4byte	.LASF12
 667 0095 03       		.byte	0x3
 668 0096 41       		.byte	0x41
 669 0097 9B000000 		.4byte	0x9b
 670 009b 04       		.uleb128 0x4
 671 009c 04       		.byte	0x4
 672 009d 07       		.byte	0x7
 673 009e 76030000 		.4byte	.LASF13
 674 00a2 03       		.uleb128 0x3
 675 00a3 6B030000 		.4byte	.LASF14
 676 00a7 03       		.byte	0x3
 677 00a8 5B       		.byte	0x5b
 678 00a9 AD000000 		.4byte	0xad
 679 00ad 04       		.uleb128 0x4
 680 00ae 08       		.byte	0x8
 681 00af 07       		.byte	0x7
 682 00b0 97060000 		.4byte	.LASF15
 683 00b4 03       		.uleb128 0x3
 684 00b5 30020000 		.4byte	.LASF16
ARM GAS  /tmp/ccn3cifU.s 			page 13


 685 00b9 04       		.byte	0x4
 686 00ba 18       		.byte	0x18
 687 00bb 53000000 		.4byte	0x53
 688 00bf 05       		.uleb128 0x5
 689 00c0 B4000000 		.4byte	0xb4
 690 00c4 03       		.uleb128 0x3
 691 00c5 B6060000 		.4byte	.LASF17
 692 00c9 04       		.byte	0x4
 693 00ca 24       		.byte	0x24
 694 00cb 6C000000 		.4byte	0x6c
 695 00cf 03       		.uleb128 0x3
 696 00d0 6C000000 		.4byte	.LASF18
 697 00d4 04       		.byte	0x4
 698 00d5 2C       		.byte	0x2c
 699 00d6 7E000000 		.4byte	0x7e
 700 00da 06       		.uleb128 0x6
 701 00db CF000000 		.4byte	0xcf
 702 00df 03       		.uleb128 0x3
 703 00e0 46080000 		.4byte	.LASF19
 704 00e4 04       		.byte	0x4
 705 00e5 30       		.byte	0x30
 706 00e6 90000000 		.4byte	0x90
 707 00ea 06       		.uleb128 0x6
 708 00eb DF000000 		.4byte	0xdf
 709 00ef 05       		.uleb128 0x5
 710 00f0 EA000000 		.4byte	0xea
 711 00f4 03       		.uleb128 0x3
 712 00f5 98070000 		.4byte	.LASF20
 713 00f9 04       		.byte	0x4
 714 00fa 3C       		.byte	0x3c
 715 00fb A2000000 		.4byte	0xa2
 716 00ff 03       		.uleb128 0x3
 717 0100 E1070000 		.4byte	.LASF21
 718 0104 05       		.byte	0x5
 719 0105 24       		.byte	0x24
 720 0106 0A010000 		.4byte	0x10a
 721 010a 04       		.uleb128 0x4
 722 010b 01       		.byte	0x1
 723 010c 02       		.byte	0x2
 724 010d 8F020000 		.4byte	.LASF22
 725 0111 03       		.uleb128 0x3
 726 0112 51070000 		.4byte	.LASF23
 727 0116 05       		.byte	0x5
 728 0117 25       		.byte	0x25
 729 0118 B4000000 		.4byte	0xb4
 730 011c 03       		.uleb128 0x3
 731 011d DD010000 		.4byte	.LASF24
 732 0121 05       		.byte	0x5
 733 0122 26       		.byte	0x26
 734 0123 B4000000 		.4byte	0xb4
 735 0127 03       		.uleb128 0x3
 736 0128 15080000 		.4byte	.LASF25
 737 012c 05       		.byte	0x5
 738 012d 27       		.byte	0x27
 739 012e B4000000 		.4byte	0xb4
 740 0132 03       		.uleb128 0x3
 741 0133 D2060000 		.4byte	.LASF26
ARM GAS  /tmp/ccn3cifU.s 			page 14


 742 0137 05       		.byte	0x5
 743 0138 28       		.byte	0x28
 744 0139 B4000000 		.4byte	0xb4
 745 013d 03       		.uleb128 0x3
 746 013e 4A000000 		.4byte	.LASF27
 747 0142 05       		.byte	0x5
 748 0143 29       		.byte	0x29
 749 0144 DF000000 		.4byte	0xdf
 750 0148 03       		.uleb128 0x3
 751 0149 BF060000 		.4byte	.LASF28
 752 014d 05       		.byte	0x5
 753 014e 2A       		.byte	0x2a
 754 014f CF000000 		.4byte	0xcf
 755 0153 03       		.uleb128 0x3
 756 0154 38020000 		.4byte	.LASF29
 757 0158 05       		.byte	0x5
 758 0159 2C       		.byte	0x2c
 759 015a DF000000 		.4byte	0xdf
 760 015e 03       		.uleb128 0x3
 761 015f D3050000 		.4byte	.LASF30
 762 0163 05       		.byte	0x5
 763 0164 2D       		.byte	0x2d
 764 0165 DF000000 		.4byte	0xdf
 765 0169 03       		.uleb128 0x3
 766 016a 1C000000 		.4byte	.LASF31
 767 016e 05       		.byte	0x5
 768 016f 2E       		.byte	0x2e
 769 0170 DF000000 		.4byte	0xdf
 770 0174 06       		.uleb128 0x6
 771 0175 69010000 		.4byte	0x169
 772 0179 03       		.uleb128 0x3
 773 017a FF070000 		.4byte	.LASF32
 774 017e 06       		.byte	0x6
 775 017f 23       		.byte	0x23
 776 0180 84010000 		.4byte	0x184
 777 0184 07       		.uleb128 0x7
 778 0185 FF070000 		.4byte	.LASF32
 779 0189 48       		.byte	0x48
 780 018a 07       		.byte	0x7
 781 018b 57       		.byte	0x57
 782 018c 81020000 		.4byte	0x281
 783 0190 08       		.uleb128 0x8
 784 0191 A2010000 		.4byte	.LASF33
 785 0195 07       		.byte	0x7
 786 0196 58       		.byte	0x58
 787 0197 A2020000 		.4byte	0x2a2
 788 019b 00       		.byte	0
 789 019c 08       		.uleb128 0x8
 790 019d BE010000 		.4byte	.LASF34
 791 01a1 07       		.byte	0x7
 792 01a2 5A       		.byte	0x5a
 793 01a3 A2020000 		.4byte	0x2a2
 794 01a7 04       		.byte	0x4
 795 01a8 08       		.uleb128 0x8
 796 01a9 C6020000 		.4byte	.LASF35
 797 01ad 07       		.byte	0x7
 798 01ae 5C       		.byte	0x5c
ARM GAS  /tmp/ccn3cifU.s 			page 15


 799 01af 3D010000 		.4byte	0x13d
 800 01b3 08       		.byte	0x8
 801 01b4 08       		.uleb128 0x8
 802 01b5 44000000 		.4byte	.LASF36
 803 01b9 07       		.byte	0x7
 804 01ba 5D       		.byte	0x5d
 805 01bb 67030000 		.4byte	0x367
 806 01bf 0C       		.byte	0xc
 807 01c0 08       		.uleb128 0x8
 808 01c1 91010000 		.4byte	.LASF37
 809 01c5 07       		.byte	0x7
 810 01c6 5F       		.byte	0x5f
 811 01c7 A2020000 		.4byte	0x2a2
 812 01cb 10       		.byte	0x10
 813 01cc 08       		.uleb128 0x8
 814 01cd AE060000 		.4byte	.LASF38
 815 01d1 07       		.byte	0x7
 816 01d2 60       		.byte	0x60
 817 01d3 A2020000 		.4byte	0x2a2
 818 01d7 14       		.byte	0x14
 819 01d8 08       		.uleb128 0x8
 820 01d9 E1080000 		.4byte	.LASF39
 821 01dd 07       		.byte	0x7
 822 01de 67       		.byte	0x67
 823 01df A4050000 		.4byte	0x5a4
 824 01e3 18       		.byte	0x18
 825 01e4 08       		.uleb128 0x8
 826 01e5 1C090000 		.4byte	.LASF40
 827 01e9 07       		.byte	0x7
 828 01ea 72       		.byte	0x72
 829 01eb 1C010000 		.4byte	0x11c
 830 01ef 1C       		.byte	0x1c
 831 01f0 08       		.uleb128 0x8
 832 01f1 DD040000 		.4byte	.LASF41
 833 01f5 07       		.byte	0x7
 834 01f6 76       		.byte	0x76
 835 01f7 11010000 		.4byte	0x111
 836 01fb 1D       		.byte	0x1d
 837 01fc 08       		.uleb128 0x8
 838 01fd 0F050000 		.4byte	.LASF42
 839 0201 07       		.byte	0x7
 840 0202 7B       		.byte	0x7b
 841 0203 27010000 		.4byte	0x127
 842 0207 1E       		.byte	0x1e
 843 0208 08       		.uleb128 0x8
 844 0209 26020000 		.4byte	.LASF43
 845 020d 07       		.byte	0x7
 846 020e 81       		.byte	0x81
 847 020f 32010000 		.4byte	0x132
 848 0213 1F       		.byte	0x1f
 849 0214 08       		.uleb128 0x8
 850 0215 DF050000 		.4byte	.LASF44
 851 0219 07       		.byte	0x7
 852 021a 88       		.byte	0x88
 853 021b 74010000 		.4byte	0x174
 854 021f 20       		.byte	0x20
 855 0220 09       		.uleb128 0x9
ARM GAS  /tmp/ccn3cifU.s 			page 16


 856 0221 705F7500 		.ascii	"p_u\000"
 857 0225 07       		.byte	0x7
 858 0226 AD       		.byte	0xad
 859 0227 6F050000 		.4byte	0x56f
 860 022b 24       		.byte	0x24
 861 022c 08       		.uleb128 0x8
 862 022d CD040000 		.4byte	.LASF45
 863 0231 07       		.byte	0x7
 864 0232 B2       		.byte	0xb2
 865 0233 C8020000 		.4byte	0x2c8
 866 0237 28       		.byte	0x28
 867 0238 08       		.uleb128 0x8
 868 0239 5B000000 		.4byte	.LASF46
 869 023d 07       		.byte	0x7
 870 023e B8       		.byte	0xb8
 871 023f A8020000 		.4byte	0x2a8
 872 0243 2C       		.byte	0x2c
 873 0244 08       		.uleb128 0x8
 874 0245 0A090000 		.4byte	.LASF47
 875 0249 07       		.byte	0x7
 876 024a BC       		.byte	0xbc
 877 024b 48010000 		.4byte	0x148
 878 024f 34       		.byte	0x34
 879 0250 08       		.uleb128 0x8
 880 0251 39030000 		.4byte	.LASF48
 881 0255 07       		.byte	0x7
 882 0256 C2       		.byte	0xc2
 883 0257 53010000 		.4byte	0x153
 884 025b 38       		.byte	0x38
 885 025c 08       		.uleb128 0x8
 886 025d E6010000 		.4byte	.LASF49
 887 0261 07       		.byte	0x7
 888 0262 C9       		.byte	0xc9
 889 0263 B6050000 		.4byte	0x5b6
 890 0267 3C       		.byte	0x3c
 891 0268 08       		.uleb128 0x8
 892 0269 3A060000 		.4byte	.LASF50
 893 026d 07       		.byte	0x7
 894 026e CD       		.byte	0xcd
 895 026f 3D010000 		.4byte	0x13d
 896 0273 40       		.byte	0x40
 897 0274 08       		.uleb128 0x8
 898 0275 07050000 		.4byte	.LASF51
 899 0279 07       		.byte	0x7
 900 027a D3       		.byte	0xd3
 901 027b DE020000 		.4byte	0x2de
 902 027f 44       		.byte	0x44
 903 0280 00       		.byte	0
 904 0281 0A       		.uleb128 0xa
 905 0282 08       		.byte	0x8
 906 0283 06       		.byte	0x6
 907 0284 5A       		.byte	0x5a
 908 0285 A2020000 		.4byte	0x2a2
 909 0289 08       		.uleb128 0x8
 910 028a A2010000 		.4byte	.LASF33
 911 028e 06       		.byte	0x6
 912 028f 5B       		.byte	0x5b
ARM GAS  /tmp/ccn3cifU.s 			page 17


 913 0290 A2020000 		.4byte	0x2a2
 914 0294 00       		.byte	0
 915 0295 08       		.uleb128 0x8
 916 0296 BE010000 		.4byte	.LASF34
 917 029a 06       		.byte	0x6
 918 029b 5D       		.byte	0x5d
 919 029c A2020000 		.4byte	0x2a2
 920 02a0 04       		.byte	0x4
 921 02a1 00       		.byte	0
 922 02a2 0B       		.uleb128 0xb
 923 02a3 04       		.byte	0x4
 924 02a4 79010000 		.4byte	0x179
 925 02a8 03       		.uleb128 0x3
 926 02a9 5C080000 		.4byte	.LASF52
 927 02ad 06       		.byte	0x6
 928 02ae 5F       		.byte	0x5f
 929 02af 81020000 		.4byte	0x281
 930 02b3 0A       		.uleb128 0xa
 931 02b4 04       		.byte	0x4
 932 02b5 06       		.byte	0x6
 933 02b6 64       		.byte	0x64
 934 02b7 C8020000 		.4byte	0x2c8
 935 02bb 08       		.uleb128 0x8
 936 02bc A2010000 		.4byte	.LASF33
 937 02c0 06       		.byte	0x6
 938 02c1 66       		.byte	0x66
 939 02c2 A2020000 		.4byte	0x2a2
 940 02c6 00       		.byte	0
 941 02c7 00       		.byte	0
 942 02c8 03       		.uleb128 0x3
 943 02c9 C7050000 		.4byte	.LASF53
 944 02cd 06       		.byte	0x6
 945 02ce 69       		.byte	0x69
 946 02cf B3020000 		.4byte	0x2b3
 947 02d3 03       		.uleb128 0x3
 948 02d4 F7010000 		.4byte	.LASF54
 949 02d8 08       		.byte	0x8
 950 02d9 DE       		.byte	0xde
 951 02da DE020000 		.4byte	0x2de
 952 02de 0C       		.uleb128 0xc
 953 02df 04       		.byte	0x4
 954 02e0 03       		.uleb128 0x3
 955 02e1 FE020000 		.4byte	.LASF55
 956 02e5 08       		.byte	0x8
 957 02e6 E4       		.byte	0xe4
 958 02e7 F4000000 		.4byte	0xf4
 959 02eb 0D       		.uleb128 0xd
 960 02ec 32030000 		.4byte	.LASF56
 961 02f0 24       		.byte	0x24
 962 02f1 08       		.byte	0x8
 963 02f2 0501     		.2byte	0x105
 964 02f4 67030000 		.4byte	0x367
 965 02f8 0E       		.uleb128 0xe
 966 02f9 723400   		.ascii	"r4\000"
 967 02fc 08       		.byte	0x8
 968 02fd 1801     		.2byte	0x118
 969 02ff D3020000 		.4byte	0x2d3
ARM GAS  /tmp/ccn3cifU.s 			page 18


 970 0303 00       		.byte	0
 971 0304 0E       		.uleb128 0xe
 972 0305 723500   		.ascii	"r5\000"
 973 0308 08       		.byte	0x8
 974 0309 1901     		.2byte	0x119
 975 030b D3020000 		.4byte	0x2d3
 976 030f 04       		.byte	0x4
 977 0310 0E       		.uleb128 0xe
 978 0311 723600   		.ascii	"r6\000"
 979 0314 08       		.byte	0x8
 980 0315 1A01     		.2byte	0x11a
 981 0317 D3020000 		.4byte	0x2d3
 982 031b 08       		.byte	0x8
 983 031c 0E       		.uleb128 0xe
 984 031d 723700   		.ascii	"r7\000"
 985 0320 08       		.byte	0x8
 986 0321 1B01     		.2byte	0x11b
 987 0323 D3020000 		.4byte	0x2d3
 988 0327 0C       		.byte	0xc
 989 0328 0E       		.uleb128 0xe
 990 0329 723800   		.ascii	"r8\000"
 991 032c 08       		.byte	0x8
 992 032d 1C01     		.2byte	0x11c
 993 032f D3020000 		.4byte	0x2d3
 994 0333 10       		.byte	0x10
 995 0334 0E       		.uleb128 0xe
 996 0335 723900   		.ascii	"r9\000"
 997 0338 08       		.byte	0x8
 998 0339 1D01     		.2byte	0x11d
 999 033b D3020000 		.4byte	0x2d3
 1000 033f 14       		.byte	0x14
 1001 0340 0E       		.uleb128 0xe
 1002 0341 72313000 		.ascii	"r10\000"
 1003 0345 08       		.byte	0x8
 1004 0346 1E01     		.2byte	0x11e
 1005 0348 D3020000 		.4byte	0x2d3
 1006 034c 18       		.byte	0x18
 1007 034d 0E       		.uleb128 0xe
 1008 034e 72313100 		.ascii	"r11\000"
 1009 0352 08       		.byte	0x8
 1010 0353 1F01     		.2byte	0x11f
 1011 0355 D3020000 		.4byte	0x2d3
 1012 0359 1C       		.byte	0x1c
 1013 035a 0E       		.uleb128 0xe
 1014 035b 6C7200   		.ascii	"lr\000"
 1015 035e 08       		.byte	0x8
 1016 035f 2001     		.2byte	0x120
 1017 0361 D3020000 		.4byte	0x2d3
 1018 0365 20       		.byte	0x20
 1019 0366 00       		.byte	0
 1020 0367 0D       		.uleb128 0xd
 1021 0368 44020000 		.4byte	.LASF57
 1022 036c 04       		.byte	0x4
 1023 036d 08       		.byte	0x8
 1024 036e 2A01     		.2byte	0x12a
 1025 0370 82030000 		.4byte	0x382
 1026 0374 0E       		.uleb128 0xe
ARM GAS  /tmp/ccn3cifU.s 			page 19


 1027 0375 72313300 		.ascii	"r13\000"
 1028 0379 08       		.byte	0x8
 1029 037a 2B01     		.2byte	0x12b
 1030 037c 82030000 		.4byte	0x382
 1031 0380 00       		.byte	0
 1032 0381 00       		.byte	0
 1033 0382 0B       		.uleb128 0xb
 1034 0383 04       		.byte	0x4
 1035 0384 EB020000 		.4byte	0x2eb
 1036 0388 04       		.uleb128 0x4
 1037 0389 04       		.byte	0x4
 1038 038a 07       		.byte	0x7
 1039 038b 07000000 		.4byte	.LASF58
 1040 038f 03       		.uleb128 0x3
 1041 0390 93000000 		.4byte	.LASF59
 1042 0394 09       		.byte	0x9
 1043 0395 51       		.byte	0x51
 1044 0396 9A030000 		.4byte	0x39a
 1045 039a 0B       		.uleb128 0xb
 1046 039b 04       		.byte	0x4
 1047 039c A0030000 		.4byte	0x3a0
 1048 03a0 0F       		.uleb128 0xf
 1049 03a1 AB030000 		.4byte	0x3ab
 1050 03a5 10       		.uleb128 0x10
 1051 03a6 DE020000 		.4byte	0x2de
 1052 03aa 00       		.byte	0
 1053 03ab 03       		.uleb128 0x3
 1054 03ac 4F080000 		.4byte	.LASF60
 1055 03b0 09       		.byte	0x9
 1056 03b1 56       		.byte	0x56
 1057 03b2 B6030000 		.4byte	0x3b6
 1058 03b6 07       		.uleb128 0x7
 1059 03b7 4F080000 		.4byte	.LASF60
 1060 03bb 14       		.byte	0x14
 1061 03bc 09       		.byte	0x9
 1062 03bd 5D       		.byte	0x5d
 1063 03be FF030000 		.4byte	0x3ff
 1064 03c2 08       		.uleb128 0x8
 1065 03c3 90040000 		.4byte	.LASF61
 1066 03c7 09       		.byte	0x9
 1067 03c8 5E       		.byte	0x5e
 1068 03c9 FF030000 		.4byte	0x3ff
 1069 03cd 00       		.byte	0
 1070 03ce 08       		.uleb128 0x8
 1071 03cf 75020000 		.4byte	.LASF62
 1072 03d3 09       		.byte	0x9
 1073 03d4 60       		.byte	0x60
 1074 03d5 FF030000 		.4byte	0x3ff
 1075 03d9 04       		.byte	0x4
 1076 03da 08       		.uleb128 0x8
 1077 03db E8080000 		.4byte	.LASF63
 1078 03df 09       		.byte	0x9
 1079 03e0 62       		.byte	0x62
 1080 03e1 69010000 		.4byte	0x169
 1081 03e5 08       		.byte	0x8
 1082 03e6 08       		.uleb128 0x8
 1083 03e7 2A030000 		.4byte	.LASF64
ARM GAS  /tmp/ccn3cifU.s 			page 20


 1084 03eb 09       		.byte	0x9
 1085 03ec 63       		.byte	0x63
 1086 03ed 8F030000 		.4byte	0x38f
 1087 03f1 0C       		.byte	0xc
 1088 03f2 08       		.uleb128 0x8
 1089 03f3 17010000 		.4byte	.LASF65
 1090 03f7 09       		.byte	0x9
 1091 03f8 65       		.byte	0x65
 1092 03f9 DE020000 		.4byte	0x2de
 1093 03fd 10       		.byte	0x10
 1094 03fe 00       		.byte	0
 1095 03ff 0B       		.uleb128 0xb
 1096 0400 04       		.byte	0x4
 1097 0401 AB030000 		.4byte	0x3ab
 1098 0405 0A       		.uleb128 0xa
 1099 0406 10       		.byte	0x10
 1100 0407 09       		.byte	0x9
 1101 0408 6F       		.byte	0x6f
 1102 0409 3E040000 		.4byte	0x43e
 1103 040d 08       		.uleb128 0x8
 1104 040e 90040000 		.4byte	.LASF61
 1105 0412 09       		.byte	0x9
 1106 0413 70       		.byte	0x70
 1107 0414 FF030000 		.4byte	0x3ff
 1108 0418 00       		.byte	0
 1109 0419 08       		.uleb128 0x8
 1110 041a 75020000 		.4byte	.LASF62
 1111 041e 09       		.byte	0x9
 1112 041f 72       		.byte	0x72
 1113 0420 FF030000 		.4byte	0x3ff
 1114 0424 04       		.byte	0x4
 1115 0425 08       		.uleb128 0x8
 1116 0426 E8080000 		.4byte	.LASF63
 1117 042a 09       		.byte	0x9
 1118 042b 74       		.byte	0x74
 1119 042c 69010000 		.4byte	0x169
 1120 0430 08       		.byte	0x8
 1121 0431 08       		.uleb128 0x8
 1122 0432 63070000 		.4byte	.LASF66
 1123 0436 09       		.byte	0x9
 1124 0437 75       		.byte	0x75
 1125 0438 74010000 		.4byte	0x174
 1126 043c 0C       		.byte	0xc
 1127 043d 00       		.byte	0
 1128 043e 03       		.uleb128 0x3
 1129 043f FF060000 		.4byte	.LASF67
 1130 0443 09       		.byte	0x9
 1131 0444 76       		.byte	0x76
 1132 0445 05040000 		.4byte	0x405
 1133 0449 11       		.uleb128 0x11
 1134 044a 06080000 		.4byte	.LASF75
 1135 044e 09       		.byte	0x9
 1136 044f EE       		.byte	0xee
 1137 0450 3E040000 		.4byte	0x43e
 1138 0454 0A       		.uleb128 0xa
 1139 0455 1C       		.byte	0x1c
 1140 0456 0A       		.byte	0xa
ARM GAS  /tmp/ccn3cifU.s 			page 21


 1141 0457 57       		.byte	0x57
 1142 0458 A5040000 		.4byte	0x4a5
 1143 045c 08       		.uleb128 0x8
 1144 045d 27070000 		.4byte	.LASF68
 1145 0461 0A       		.byte	0xa
 1146 0462 58       		.byte	0x58
 1147 0463 A8020000 		.4byte	0x2a8
 1148 0467 00       		.byte	0
 1149 0468 08       		.uleb128 0x8
 1150 0469 BE070000 		.4byte	.LASF69
 1151 046d 0A       		.byte	0xa
 1152 046e 59       		.byte	0x59
 1153 046f 3D010000 		.4byte	0x13d
 1154 0473 08       		.byte	0x8
 1155 0474 08       		.uleb128 0x8
 1156 0475 66000000 		.4byte	.LASF70
 1157 0479 0A       		.byte	0xa
 1158 047a 5B       		.byte	0x5b
 1159 047b 67030000 		.4byte	0x367
 1160 047f 0C       		.byte	0xc
 1161 0480 08       		.uleb128 0x8
 1162 0481 7D020000 		.4byte	.LASF71
 1163 0485 0A       		.byte	0xa
 1164 0486 5E       		.byte	0x5e
 1165 0487 A2020000 		.4byte	0x2a2
 1166 048b 10       		.byte	0x10
 1167 048c 08       		.uleb128 0x8
 1168 048d 77070000 		.4byte	.LASF72
 1169 0491 0A       		.byte	0xa
 1170 0492 5F       		.byte	0x5f
 1171 0493 A2020000 		.4byte	0x2a2
 1172 0497 14       		.byte	0x14
 1173 0498 08       		.uleb128 0x8
 1174 0499 F5060000 		.4byte	.LASF73
 1175 049d 0A       		.byte	0xa
 1176 049e 62       		.byte	0x62
 1177 049f A2020000 		.4byte	0x2a2
 1178 04a3 18       		.byte	0x18
 1179 04a4 00       		.byte	0
 1180 04a5 03       		.uleb128 0x3
 1181 04a6 D7080000 		.4byte	.LASF74
 1182 04aa 0A       		.byte	0xa
 1183 04ab 64       		.byte	0x64
 1184 04ac 54040000 		.4byte	0x454
 1185 04b0 11       		.uleb128 0x11
 1186 04b1 4B070000 		.4byte	.LASF76
 1187 04b5 0A       		.byte	0xa
 1188 04b6 68       		.byte	0x68
 1189 04b7 A5040000 		.4byte	0x4a5
 1190 04bb 07       		.uleb128 0x7
 1191 04bc 4F040000 		.4byte	.LASF77
 1192 04c0 10       		.byte	0x10
 1193 04c1 0B       		.byte	0xb
 1194 04c2 25       		.byte	0x25
 1195 04c3 EC040000 		.4byte	0x4ec
 1196 04c7 08       		.uleb128 0x8
 1197 04c8 7E040000 		.4byte	.LASF78
ARM GAS  /tmp/ccn3cifU.s 			page 22


 1198 04cc 0B       		.byte	0xb
 1199 04cd 26       		.byte	0x26
 1200 04ce A8020000 		.4byte	0x2a8
 1201 04d2 00       		.byte	0
 1202 04d3 08       		.uleb128 0x8
 1203 04d4 0F010000 		.4byte	.LASF79
 1204 04d8 0B       		.byte	0xb
 1205 04d9 28       		.byte	0x28
 1206 04da A2020000 		.4byte	0x2a2
 1207 04de 08       		.byte	0x8
 1208 04df 08       		.uleb128 0x8
 1209 04e0 F5080000 		.4byte	.LASF80
 1210 04e4 0B       		.byte	0xb
 1211 04e5 2A       		.byte	0x2a
 1212 04e6 EC040000 		.4byte	0x4ec
 1213 04ea 0C       		.byte	0xc
 1214 04eb 00       		.byte	0
 1215 04ec 0B       		.uleb128 0xb
 1216 04ed 04       		.byte	0x4
 1217 04ee BB040000 		.4byte	0x4bb
 1218 04f2 03       		.uleb128 0x3
 1219 04f3 4F040000 		.4byte	.LASF77
 1220 04f7 0B       		.byte	0xb
 1221 04f8 2C       		.byte	0x2c
 1222 04f9 BB040000 		.4byte	0x4bb
 1223 04fd 03       		.uleb128 0x3
 1224 04fe 38080000 		.4byte	.LASF81
 1225 0502 0C       		.byte	0xc
 1226 0503 25       		.byte	0x25
 1227 0504 08050000 		.4byte	0x508
 1228 0508 07       		.uleb128 0x7
 1229 0509 38080000 		.4byte	.LASF81
 1230 050d 10       		.byte	0x10
 1231 050e 0C       		.byte	0xc
 1232 050f 2A       		.byte	0x2a
 1233 0510 45050000 		.4byte	0x545
 1234 0514 08       		.uleb128 0x8
 1235 0515 B9030000 		.4byte	.LASF82
 1236 0519 0C       		.byte	0xc
 1237 051a 2B       		.byte	0x2b
 1238 051b 45050000 		.4byte	0x545
 1239 051f 00       		.byte	0
 1240 0520 08       		.uleb128 0x8
 1241 0521 10090000 		.4byte	.LASF83
 1242 0525 0C       		.byte	0xc
 1243 0526 2E       		.byte	0x2e
 1244 0527 A2020000 		.4byte	0x2a2
 1245 052b 04       		.byte	0x4
 1246 052c 08       		.uleb128 0x8
 1247 052d C7080000 		.4byte	.LASF84
 1248 0531 0C       		.byte	0xc
 1249 0532 30       		.byte	0x30
 1250 0533 53010000 		.4byte	0x153
 1251 0537 08       		.byte	0x8
 1252 0538 08       		.uleb128 0x8
 1253 0539 D5000000 		.4byte	.LASF85
 1254 053d 0C       		.byte	0xc
ARM GAS  /tmp/ccn3cifU.s 			page 23


 1255 053e 33       		.byte	0x33
 1256 053f 5E010000 		.4byte	0x15e
 1257 0543 0C       		.byte	0xc
 1258 0544 00       		.byte	0
 1259 0545 0B       		.uleb128 0xb
 1260 0546 04       		.byte	0x4
 1261 0547 FD040000 		.4byte	0x4fd
 1262 054b 07       		.uleb128 0x7
 1263 054c 5F030000 		.4byte	.LASF86
 1264 0550 04       		.byte	0x4
 1265 0551 0C       		.byte	0xc
 1266 0552 3A       		.byte	0x3a
 1267 0553 64050000 		.4byte	0x564
 1268 0557 08       		.uleb128 0x8
 1269 0558 44030000 		.4byte	.LASF87
 1270 055c 0C       		.byte	0xc
 1271 055d 3B       		.byte	0x3b
 1272 055e 45050000 		.4byte	0x545
 1273 0562 00       		.byte	0
 1274 0563 00       		.byte	0
 1275 0564 03       		.uleb128 0x3
 1276 0565 5F030000 		.4byte	.LASF86
 1277 0569 0C       		.byte	0xc
 1278 056a 3E       		.byte	0x3e
 1279 056b 4B050000 		.4byte	0x54b
 1280 056f 12       		.uleb128 0x12
 1281 0570 04       		.byte	0x4
 1282 0571 07       		.byte	0x7
 1283 0572 8F       		.byte	0x8f
 1284 0573 A4050000 		.4byte	0x5a4
 1285 0577 13       		.uleb128 0x13
 1286 0578 69080000 		.4byte	.LASF88
 1287 057c 07       		.byte	0x7
 1288 057d 96       		.byte	0x96
 1289 057e 48010000 		.4byte	0x148
 1290 0582 13       		.uleb128 0x13
 1291 0583 1E010000 		.4byte	.LASF89
 1292 0587 07       		.byte	0x7
 1293 0588 9D       		.byte	0x9d
 1294 0589 48010000 		.4byte	0x148
 1295 058d 13       		.uleb128 0x13
 1296 058e E5020000 		.4byte	.LASF90
 1297 0592 07       		.byte	0x7
 1298 0593 A4       		.byte	0xa4
 1299 0594 DE020000 		.4byte	0x2de
 1300 0598 13       		.uleb128 0x13
 1301 0599 41010000 		.4byte	.LASF91
 1302 059d 07       		.byte	0x7
 1303 059e AB       		.byte	0xab
 1304 059f 53010000 		.4byte	0x153
 1305 05a3 00       		.byte	0
 1306 05a4 0B       		.uleb128 0xb
 1307 05a5 04       		.byte	0x4
 1308 05a6 B1050000 		.4byte	0x5b1
 1309 05aa 04       		.uleb128 0x4
 1310 05ab 01       		.byte	0x1
 1311 05ac 08       		.byte	0x8
ARM GAS  /tmp/ccn3cifU.s 			page 24


 1312 05ad A7020000 		.4byte	.LASF92
 1313 05b1 05       		.uleb128 0x5
 1314 05b2 AA050000 		.4byte	0x5aa
 1315 05b6 0B       		.uleb128 0xb
 1316 05b7 04       		.byte	0x4
 1317 05b8 F2040000 		.4byte	0x4f2
 1318 05bc 0B       		.uleb128 0xb
 1319 05bd 04       		.byte	0x4
 1320 05be C2050000 		.4byte	0x5c2
 1321 05c2 14       		.uleb128 0x14
 1322 05c3 48010000 		.4byte	0x148
 1323 05c7 D1050000 		.4byte	0x5d1
 1324 05cb 10       		.uleb128 0x10
 1325 05cc DE020000 		.4byte	0x2de
 1326 05d0 00       		.byte	0
 1327 05d1 0A       		.uleb128 0xa
 1328 05d2 16       		.byte	0x16
 1329 05d3 0D       		.byte	0xd
 1330 05d4 25       		.byte	0x25
 1331 05d5 B2060000 		.4byte	0x6b2
 1332 05d9 08       		.uleb128 0x8
 1333 05da 26000000 		.4byte	.LASF93
 1334 05de 0D       		.byte	0xd
 1335 05df 26       		.byte	0x26
 1336 05e0 B2060000 		.4byte	0x6b2
 1337 05e4 00       		.byte	0
 1338 05e5 08       		.uleb128 0x8
 1339 05e6 88030000 		.4byte	.LASF94
 1340 05ea 0D       		.byte	0xd
 1341 05eb 27       		.byte	0x27
 1342 05ec B4000000 		.4byte	0xb4
 1343 05f0 04       		.byte	0x4
 1344 05f1 08       		.uleb128 0x8
 1345 05f2 AD080000 		.4byte	.LASF95
 1346 05f6 0D       		.byte	0xd
 1347 05f7 28       		.byte	0x28
 1348 05f8 B4000000 		.4byte	0xb4
 1349 05fc 05       		.byte	0x5
 1350 05fd 08       		.uleb128 0x8
 1351 05fe 73040000 		.4byte	.LASF96
 1352 0602 0D       		.byte	0xd
 1353 0603 29       		.byte	0x29
 1354 0604 C4000000 		.4byte	0xc4
 1355 0608 06       		.byte	0x6
 1356 0609 08       		.uleb128 0x8
 1357 060a FB000000 		.4byte	.LASF97
 1358 060e 0D       		.byte	0xd
 1359 060f 2A       		.byte	0x2a
 1360 0610 B4000000 		.4byte	0xb4
 1361 0614 08       		.byte	0x8
 1362 0615 08       		.uleb128 0x8
 1363 0616 16050000 		.4byte	.LASF98
 1364 061a 0D       		.byte	0xd
 1365 061b 2B       		.byte	0x2b
 1366 061c B4000000 		.4byte	0xb4
 1367 0620 09       		.byte	0x9
 1368 0621 08       		.uleb128 0x8
ARM GAS  /tmp/ccn3cifU.s 			page 25


 1369 0622 48010000 		.4byte	.LASF99
 1370 0626 0D       		.byte	0xd
 1371 0627 2C       		.byte	0x2c
 1372 0628 B4000000 		.4byte	0xb4
 1373 062c 0A       		.byte	0xa
 1374 062d 08       		.uleb128 0x8
 1375 062e 15030000 		.4byte	.LASF100
 1376 0632 0D       		.byte	0xd
 1377 0633 2D       		.byte	0x2d
 1378 0634 B4000000 		.4byte	0xb4
 1379 0638 0B       		.byte	0xb
 1380 0639 08       		.uleb128 0x8
 1381 063a 88000000 		.4byte	.LASF101
 1382 063e 0D       		.byte	0xd
 1383 063f 2E       		.byte	0x2e
 1384 0640 B4000000 		.4byte	0xb4
 1385 0644 0C       		.byte	0xc
 1386 0645 08       		.uleb128 0x8
 1387 0646 EC020000 		.4byte	.LASF102
 1388 064a 0D       		.byte	0xd
 1389 064b 2F       		.byte	0x2f
 1390 064c B4000000 		.4byte	0xb4
 1391 0650 0D       		.byte	0xd
 1392 0651 08       		.uleb128 0x8
 1393 0652 E8070000 		.4byte	.LASF103
 1394 0656 0D       		.byte	0xd
 1395 0657 30       		.byte	0x30
 1396 0658 B4000000 		.4byte	0xb4
 1397 065c 0E       		.byte	0xe
 1398 065d 08       		.uleb128 0x8
 1399 065e 10000000 		.4byte	.LASF104
 1400 0662 0D       		.byte	0xd
 1401 0663 31       		.byte	0x31
 1402 0664 B4000000 		.4byte	0xb4
 1403 0668 0F       		.byte	0xf
 1404 0669 08       		.uleb128 0x8
 1405 066a F7040000 		.4byte	.LASF105
 1406 066e 0D       		.byte	0xd
 1407 066f 32       		.byte	0x32
 1408 0670 B4000000 		.4byte	0xb4
 1409 0674 10       		.byte	0x10
 1410 0675 08       		.uleb128 0x8
 1411 0676 B1010000 		.4byte	.LASF106
 1412 067a 0D       		.byte	0xd
 1413 067b 34       		.byte	0x34
 1414 067c B4000000 		.4byte	0xb4
 1415 0680 11       		.byte	0x11
 1416 0681 08       		.uleb128 0x8
 1417 0682 C5060000 		.4byte	.LASF107
 1418 0686 0D       		.byte	0xd
 1419 0687 35       		.byte	0x35
 1420 0688 B4000000 		.4byte	0xb4
 1421 068c 12       		.byte	0x12
 1422 068d 08       		.uleb128 0x8
 1423 068e E6050000 		.4byte	.LASF108
 1424 0692 0D       		.byte	0xd
 1425 0693 36       		.byte	0x36
ARM GAS  /tmp/ccn3cifU.s 			page 26


 1426 0694 B4000000 		.4byte	0xb4
 1427 0698 13       		.byte	0x13
 1428 0699 08       		.uleb128 0x8
 1429 069a 35040000 		.4byte	.LASF109
 1430 069e 0D       		.byte	0xd
 1431 069f 37       		.byte	0x37
 1432 06a0 B4000000 		.4byte	0xb4
 1433 06a4 14       		.byte	0x14
 1434 06a5 08       		.uleb128 0x8
 1435 06a6 45060000 		.4byte	.LASF110
 1436 06aa 0D       		.byte	0xd
 1437 06ab 39       		.byte	0x39
 1438 06ac B4000000 		.4byte	0xb4
 1439 06b0 15       		.byte	0x15
 1440 06b1 00       		.byte	0
 1441 06b2 15       		.uleb128 0x15
 1442 06b3 AA050000 		.4byte	0x5aa
 1443 06b7 C2060000 		.4byte	0x6c2
 1444 06bb 16       		.uleb128 0x16
 1445 06bc 88030000 		.4byte	0x388
 1446 06c0 03       		.byte	0x3
 1447 06c1 00       		.byte	0
 1448 06c2 03       		.uleb128 0x3
 1449 06c3 98080000 		.4byte	.LASF111
 1450 06c7 0D       		.byte	0xd
 1451 06c8 3A       		.byte	0x3a
 1452 06c9 D1050000 		.4byte	0x5d1
 1453 06cd 05       		.uleb128 0x5
 1454 06ce C2060000 		.4byte	0x6c2
 1455 06d2 11       		.uleb128 0x11
 1456 06d3 52000000 		.4byte	.LASF112
 1457 06d7 0D       		.byte	0xd
 1458 06d8 77       		.byte	0x77
 1459 06d9 CD060000 		.4byte	0x6cd
 1460 06dd 03       		.uleb128 0x3
 1461 06de D8020000 		.4byte	.LASF113
 1462 06e2 0E       		.byte	0xe
 1463 06e3 30       		.byte	0x30
 1464 06e4 E8060000 		.4byte	0x6e8
 1465 06e8 07       		.uleb128 0x7
 1466 06e9 D8020000 		.4byte	.LASF113
 1467 06ed 24       		.byte	0x24
 1468 06ee 0E       		.byte	0xe
 1469 06ef 3E       		.byte	0x3e
 1470 06f0 55070000 		.4byte	0x755
 1471 06f4 08       		.uleb128 0x8
 1472 06f5 41070000 		.4byte	.LASF114
 1473 06f9 0E       		.byte	0xe
 1474 06fa 3F       		.byte	0x3f
 1475 06fb A8020000 		.4byte	0x2a8
 1476 06ff 00       		.byte	0
 1477 0700 08       		.uleb128 0x8
 1478 0701 4C030000 		.4byte	.LASF115
 1479 0705 0E       		.byte	0xe
 1480 0706 40       		.byte	0x40
 1481 0707 2C000000 		.4byte	0x2c
 1482 070b 08       		.byte	0x8
ARM GAS  /tmp/ccn3cifU.s 			page 27


 1483 070c 08       		.uleb128 0x8
 1484 070d 69010000 		.4byte	.LASF116
 1485 0711 0E       		.byte	0xe
 1486 0712 41       		.byte	0x41
 1487 0713 77070000 		.4byte	0x777
 1488 0717 0C       		.byte	0xc
 1489 0718 08       		.uleb128 0x8
 1490 0719 31010000 		.4byte	.LASF117
 1491 071d 0E       		.byte	0xe
 1492 071e 42       		.byte	0x42
 1493 071f 77070000 		.4byte	0x777
 1494 0723 10       		.byte	0x10
 1495 0724 08       		.uleb128 0x8
 1496 0725 C1030000 		.4byte	.LASF118
 1497 0729 0E       		.byte	0xe
 1498 072a 44       		.byte	0x44
 1499 072b 77070000 		.4byte	0x777
 1500 072f 14       		.byte	0x14
 1501 0730 08       		.uleb128 0x8
 1502 0731 A9010000 		.4byte	.LASF119
 1503 0735 0E       		.byte	0xe
 1504 0736 45       		.byte	0x45
 1505 0737 77070000 		.4byte	0x777
 1506 073b 18       		.byte	0x18
 1507 073c 08       		.uleb128 0x8
 1508 073d 7B010000 		.4byte	.LASF120
 1509 0741 0E       		.byte	0xe
 1510 0742 46       		.byte	0x46
 1511 0743 55070000 		.4byte	0x755
 1512 0747 1C       		.byte	0x1c
 1513 0748 08       		.uleb128 0x8
 1514 0749 6E020000 		.4byte	.LASF121
 1515 074d 0E       		.byte	0xe
 1516 074e 47       		.byte	0x47
 1517 074f DE020000 		.4byte	0x2de
 1518 0753 20       		.byte	0x20
 1519 0754 00       		.byte	0
 1520 0755 03       		.uleb128 0x3
 1521 0756 B7040000 		.4byte	.LASF122
 1522 075a 0E       		.byte	0xe
 1523 075b 33       		.byte	0x33
 1524 075c 60070000 		.4byte	0x760
 1525 0760 0B       		.uleb128 0xb
 1526 0761 04       		.byte	0x4
 1527 0762 66070000 		.4byte	0x766
 1528 0766 0F       		.uleb128 0xf
 1529 0767 71070000 		.4byte	0x771
 1530 076b 10       		.uleb128 0x10
 1531 076c 71070000 		.4byte	0x771
 1532 0770 00       		.byte	0
 1533 0771 0B       		.uleb128 0xb
 1534 0772 04       		.byte	0x4
 1535 0773 DD060000 		.4byte	0x6dd
 1536 0777 0B       		.uleb128 0xb
 1537 0778 04       		.byte	0x4
 1538 0779 B4000000 		.4byte	0xb4
 1539 077d 03       		.uleb128 0x3
ARM GAS  /tmp/ccn3cifU.s 			page 28


 1540 077e A2080000 		.4byte	.LASF123
 1541 0782 0E       		.byte	0xe
 1542 0783 7B       		.byte	0x7b
 1543 0784 DD060000 		.4byte	0x6dd
 1544 0788 03       		.uleb128 0x3
 1545 0789 09030000 		.4byte	.LASF124
 1546 078d 0E       		.byte	0xe
 1547 078e EE       		.byte	0xee
 1548 078f DD060000 		.4byte	0x6dd
 1549 0793 14       		.uleb128 0x14
 1550 0794 2C000000 		.4byte	0x2c
 1551 0798 AC070000 		.4byte	0x7ac
 1552 079c 10       		.uleb128 0x10
 1553 079d DE020000 		.4byte	0x2de
 1554 07a1 10       		.uleb128 0x10
 1555 07a2 AC070000 		.4byte	0x7ac
 1556 07a6 10       		.uleb128 0x10
 1557 07a7 2C000000 		.4byte	0x2c
 1558 07ab 00       		.byte	0
 1559 07ac 0B       		.uleb128 0xb
 1560 07ad 04       		.byte	0x4
 1561 07ae BF000000 		.4byte	0xbf
 1562 07b2 0B       		.uleb128 0xb
 1563 07b3 04       		.byte	0x4
 1564 07b4 93070000 		.4byte	0x793
 1565 07b8 14       		.uleb128 0x14
 1566 07b9 2C000000 		.4byte	0x2c
 1567 07bd D1070000 		.4byte	0x7d1
 1568 07c1 10       		.uleb128 0x10
 1569 07c2 DE020000 		.4byte	0x2de
 1570 07c6 10       		.uleb128 0x10
 1571 07c7 77070000 		.4byte	0x777
 1572 07cb 10       		.uleb128 0x10
 1573 07cc 2C000000 		.4byte	0x2c
 1574 07d0 00       		.byte	0
 1575 07d1 0B       		.uleb128 0xb
 1576 07d2 04       		.byte	0x4
 1577 07d3 B8070000 		.4byte	0x7b8
 1578 07d7 14       		.uleb128 0x14
 1579 07d8 48010000 		.4byte	0x148
 1580 07dc EB070000 		.4byte	0x7eb
 1581 07e0 10       		.uleb128 0x10
 1582 07e1 DE020000 		.4byte	0x2de
 1583 07e5 10       		.uleb128 0x10
 1584 07e6 B4000000 		.4byte	0xb4
 1585 07ea 00       		.byte	0
 1586 07eb 0B       		.uleb128 0xb
 1587 07ec 04       		.byte	0x4
 1588 07ed D7070000 		.4byte	0x7d7
 1589 07f1 15       		.uleb128 0x15
 1590 07f2 E0020000 		.4byte	0x2e0
 1591 07f6 01080000 		.4byte	0x801
 1592 07fa 16       		.uleb128 0x16
 1593 07fb 88030000 		.4byte	0x388
 1594 07ff 17       		.byte	0x17
 1595 0800 00       		.byte	0
 1596 0801 11       		.uleb128 0x11
ARM GAS  /tmp/ccn3cifU.s 			page 29


 1597 0802 1D080000 		.4byte	.LASF125
 1598 0806 0F       		.byte	0xf
 1599 0807 82       		.byte	0x82
 1600 0808 F1070000 		.4byte	0x7f1
 1601 080c 15       		.uleb128 0x15
 1602 080d DF000000 		.4byte	0xdf
 1603 0811 1C080000 		.4byte	0x81c
 1604 0815 16       		.uleb128 0x16
 1605 0816 88030000 		.4byte	0x388
 1606 081a 01       		.byte	0x1
 1607 081b 00       		.byte	0
 1608 081c 17       		.uleb128 0x17
 1609 081d 98040000 		.4byte	.LASF126
 1610 0821 10       		.byte	0x10
 1611 0822 0706     		.2byte	0x607
 1612 0824 DA000000 		.4byte	0xda
 1613 0828 11       		.uleb128 0x11
 1614 0829 90030000 		.4byte	.LASF127
 1615 082d 11       		.byte	0x11
 1616 082e 23       		.byte	0x23
 1617 082f DF000000 		.4byte	0xdf
 1618 0833 15       		.uleb128 0x15
 1619 0834 DF000000 		.4byte	0xdf
 1620 0838 43080000 		.4byte	0x843
 1621 083c 16       		.uleb128 0x16
 1622 083d 88030000 		.4byte	0x388
 1623 0841 0B       		.byte	0xb
 1624 0842 00       		.byte	0
 1625 0843 18       		.uleb128 0x18
 1626 0844 74       		.byte	0x74
 1627 0845 12       		.byte	0x12
 1628 0846 1C01     		.2byte	0x11c
 1629 0848 26090000 		.4byte	0x926
 1630 084c 0E       		.uleb128 0xe
 1631 084d 495200   		.ascii	"IR\000"
 1632 0850 12       		.byte	0x12
 1633 0851 1E01     		.2byte	0x11e
 1634 0853 EA000000 		.4byte	0xea
 1635 0857 00       		.byte	0
 1636 0858 0E       		.uleb128 0xe
 1637 0859 54435200 		.ascii	"TCR\000"
 1638 085d 12       		.byte	0x12
 1639 085e 1F01     		.2byte	0x11f
 1640 0860 EA000000 		.4byte	0xea
 1641 0864 04       		.byte	0x4
 1642 0865 0E       		.uleb128 0xe
 1643 0866 544300   		.ascii	"TC\000"
 1644 0869 12       		.byte	0x12
 1645 086a 2001     		.2byte	0x120
 1646 086c EA000000 		.4byte	0xea
 1647 0870 08       		.byte	0x8
 1648 0871 0E       		.uleb128 0xe
 1649 0872 505200   		.ascii	"PR\000"
 1650 0875 12       		.byte	0x12
 1651 0876 2101     		.2byte	0x121
 1652 0878 EA000000 		.4byte	0xea
 1653 087c 0C       		.byte	0xc
ARM GAS  /tmp/ccn3cifU.s 			page 30


 1654 087d 0E       		.uleb128 0xe
 1655 087e 504300   		.ascii	"PC\000"
 1656 0881 12       		.byte	0x12
 1657 0882 2201     		.2byte	0x122
 1658 0884 EA000000 		.4byte	0xea
 1659 0888 10       		.byte	0x10
 1660 0889 0E       		.uleb128 0xe
 1661 088a 4D435200 		.ascii	"MCR\000"
 1662 088e 12       		.byte	0x12
 1663 088f 2301     		.2byte	0x123
 1664 0891 EA000000 		.4byte	0xea
 1665 0895 14       		.byte	0x14
 1666 0896 0E       		.uleb128 0xe
 1667 0897 4D523000 		.ascii	"MR0\000"
 1668 089b 12       		.byte	0x12
 1669 089c 2401     		.2byte	0x124
 1670 089e EA000000 		.4byte	0xea
 1671 08a2 18       		.byte	0x18
 1672 08a3 0E       		.uleb128 0xe
 1673 08a4 4D523100 		.ascii	"MR1\000"
 1674 08a8 12       		.byte	0x12
 1675 08a9 2501     		.2byte	0x125
 1676 08ab EA000000 		.4byte	0xea
 1677 08af 1C       		.byte	0x1c
 1678 08b0 0E       		.uleb128 0xe
 1679 08b1 4D523200 		.ascii	"MR2\000"
 1680 08b5 12       		.byte	0x12
 1681 08b6 2601     		.2byte	0x126
 1682 08b8 EA000000 		.4byte	0xea
 1683 08bc 20       		.byte	0x20
 1684 08bd 0E       		.uleb128 0xe
 1685 08be 4D523300 		.ascii	"MR3\000"
 1686 08c2 12       		.byte	0x12
 1687 08c3 2701     		.2byte	0x127
 1688 08c5 EA000000 		.4byte	0xea
 1689 08c9 24       		.byte	0x24
 1690 08ca 0E       		.uleb128 0xe
 1691 08cb 43435200 		.ascii	"CCR\000"
 1692 08cf 12       		.byte	0x12
 1693 08d0 2801     		.2byte	0x128
 1694 08d2 EA000000 		.4byte	0xea
 1695 08d6 28       		.byte	0x28
 1696 08d7 0E       		.uleb128 0xe
 1697 08d8 43523000 		.ascii	"CR0\000"
 1698 08dc 12       		.byte	0x12
 1699 08dd 2901     		.2byte	0x129
 1700 08df EF000000 		.4byte	0xef
 1701 08e3 2C       		.byte	0x2c
 1702 08e4 0E       		.uleb128 0xe
 1703 08e5 43523100 		.ascii	"CR1\000"
 1704 08e9 12       		.byte	0x12
 1705 08ea 2A01     		.2byte	0x12a
 1706 08ec EF000000 		.4byte	0xef
 1707 08f0 30       		.byte	0x30
 1708 08f1 19       		.uleb128 0x19
 1709 08f2 4C020000 		.4byte	.LASF128
 1710 08f6 12       		.byte	0x12
ARM GAS  /tmp/ccn3cifU.s 			page 31


 1711 08f7 2B01     		.2byte	0x12b
 1712 08f9 0C080000 		.4byte	0x80c
 1713 08fd 34       		.byte	0x34
 1714 08fe 0E       		.uleb128 0xe
 1715 08ff 454D5200 		.ascii	"EMR\000"
 1716 0903 12       		.byte	0x12
 1717 0904 2C01     		.2byte	0x12c
 1718 0906 EA000000 		.4byte	0xea
 1719 090a 3C       		.byte	0x3c
 1720 090b 19       		.uleb128 0x19
 1721 090c 56020000 		.4byte	.LASF129
 1722 0910 12       		.byte	0x12
 1723 0911 2D01     		.2byte	0x12d
 1724 0913 33080000 		.4byte	0x833
 1725 0917 40       		.byte	0x40
 1726 0918 19       		.uleb128 0x19
 1727 0919 D0000000 		.4byte	.LASF130
 1728 091d 12       		.byte	0x12
 1729 091e 2E01     		.2byte	0x12e
 1730 0920 EA000000 		.4byte	0xea
 1731 0924 70       		.byte	0x70
 1732 0925 00       		.byte	0
 1733 0926 1A       		.uleb128 0x1a
 1734 0927 F2050000 		.4byte	.LASF131
 1735 092b 12       		.byte	0x12
 1736 092c 2F01     		.2byte	0x12f
 1737 092e 43080000 		.4byte	0x843
 1738 0932 1B       		.uleb128 0x1b
 1739 0933 04       		.byte	0x4
 1740 0934 12       		.byte	0x12
 1741 0935 5201     		.2byte	0x152
 1742 0937 60090000 		.4byte	0x960
 1743 093b 1C       		.uleb128 0x1c
 1744 093c 52425200 		.ascii	"RBR\000"
 1745 0940 12       		.byte	0x12
 1746 0941 5301     		.2byte	0x153
 1747 0943 EF000000 		.4byte	0xef
 1748 0947 1C       		.uleb128 0x1c
 1749 0948 54485200 		.ascii	"THR\000"
 1750 094c 12       		.byte	0x12
 1751 094d 5401     		.2byte	0x154
 1752 094f EA000000 		.4byte	0xea
 1753 0953 1C       		.uleb128 0x1c
 1754 0954 444C4C00 		.ascii	"DLL\000"
 1755 0958 12       		.byte	0x12
 1756 0959 5501     		.2byte	0x155
 1757 095b EA000000 		.4byte	0xea
 1758 095f 00       		.byte	0
 1759 0960 1B       		.uleb128 0x1b
 1760 0961 04       		.byte	0x4
 1761 0962 12       		.byte	0x12
 1762 0963 5701     		.2byte	0x157
 1763 0965 82090000 		.4byte	0x982
 1764 0969 1C       		.uleb128 0x1c
 1765 096a 444C4D00 		.ascii	"DLM\000"
 1766 096e 12       		.byte	0x12
 1767 096f 5801     		.2byte	0x158
ARM GAS  /tmp/ccn3cifU.s 			page 32


 1768 0971 EA000000 		.4byte	0xea
 1769 0975 1C       		.uleb128 0x1c
 1770 0976 49455200 		.ascii	"IER\000"
 1771 097a 12       		.byte	0x12
 1772 097b 5901     		.2byte	0x159
 1773 097d EA000000 		.4byte	0xea
 1774 0981 00       		.byte	0
 1775 0982 1B       		.uleb128 0x1b
 1776 0983 04       		.byte	0x4
 1777 0984 12       		.byte	0x12
 1778 0985 5B01     		.2byte	0x15b
 1779 0987 A4090000 		.4byte	0x9a4
 1780 098b 1C       		.uleb128 0x1c
 1781 098c 49495200 		.ascii	"IIR\000"
 1782 0990 12       		.byte	0x12
 1783 0991 5C01     		.2byte	0x15c
 1784 0993 EF000000 		.4byte	0xef
 1785 0997 1C       		.uleb128 0x1c
 1786 0998 46435200 		.ascii	"FCR\000"
 1787 099c 12       		.byte	0x12
 1788 099d 5D01     		.2byte	0x15d
 1789 099f EA000000 		.4byte	0xea
 1790 09a3 00       		.byte	0
 1791 09a4 18       		.uleb128 0x18
 1792 09a5 34       		.byte	0x34
 1793 09a6 12       		.byte	0x12
 1794 09a7 5001     		.2byte	0x150
 1795 09a9 420A0000 		.4byte	0xa42
 1796 09ad 1D       		.uleb128 0x1d
 1797 09ae 32090000 		.4byte	0x932
 1798 09b2 00       		.byte	0
 1799 09b3 1D       		.uleb128 0x1d
 1800 09b4 60090000 		.4byte	0x960
 1801 09b8 04       		.byte	0x4
 1802 09b9 1D       		.uleb128 0x1d
 1803 09ba 82090000 		.4byte	0x982
 1804 09be 08       		.byte	0x8
 1805 09bf 0E       		.uleb128 0xe
 1806 09c0 4C435200 		.ascii	"LCR\000"
 1807 09c4 12       		.byte	0x12
 1808 09c5 5F01     		.2byte	0x15f
 1809 09c7 EA000000 		.4byte	0xea
 1810 09cb 0C       		.byte	0xc
 1811 09cc 19       		.uleb128 0x19
 1812 09cd 4C020000 		.4byte	.LASF128
 1813 09d1 12       		.byte	0x12
 1814 09d2 6001     		.2byte	0x160
 1815 09d4 DF000000 		.4byte	0xdf
 1816 09d8 10       		.byte	0x10
 1817 09d9 0E       		.uleb128 0xe
 1818 09da 4C535200 		.ascii	"LSR\000"
 1819 09de 12       		.byte	0x12
 1820 09df 6101     		.2byte	0x161
 1821 09e1 EF000000 		.4byte	0xef
 1822 09e5 14       		.byte	0x14
 1823 09e6 19       		.uleb128 0x19
 1824 09e7 56020000 		.4byte	.LASF129
ARM GAS  /tmp/ccn3cifU.s 			page 33


 1825 09eb 12       		.byte	0x12
 1826 09ec 6201     		.2byte	0x162
 1827 09ee DF000000 		.4byte	0xdf
 1828 09f2 18       		.byte	0x18
 1829 09f3 0E       		.uleb128 0xe
 1830 09f4 53435200 		.ascii	"SCR\000"
 1831 09f8 12       		.byte	0x12
 1832 09f9 6301     		.2byte	0x163
 1833 09fb EA000000 		.4byte	0xea
 1834 09ff 1C       		.byte	0x1c
 1835 0a00 0E       		.uleb128 0xe
 1836 0a01 41435200 		.ascii	"ACR\000"
 1837 0a05 12       		.byte	0x12
 1838 0a06 6401     		.2byte	0x164
 1839 0a08 EA000000 		.4byte	0xea
 1840 0a0c 20       		.byte	0x20
 1841 0a0d 0E       		.uleb128 0xe
 1842 0a0e 49435200 		.ascii	"ICR\000"
 1843 0a12 12       		.byte	0x12
 1844 0a13 6501     		.2byte	0x165
 1845 0a15 EA000000 		.4byte	0xea
 1846 0a19 24       		.byte	0x24
 1847 0a1a 0E       		.uleb128 0xe
 1848 0a1b 46445200 		.ascii	"FDR\000"
 1849 0a1f 12       		.byte	0x12
 1850 0a20 6601     		.2byte	0x166
 1851 0a22 EA000000 		.4byte	0xea
 1852 0a26 28       		.byte	0x28
 1853 0a27 19       		.uleb128 0x19
 1854 0a28 95020000 		.4byte	.LASF132
 1855 0a2c 12       		.byte	0x12
 1856 0a2d 6701     		.2byte	0x167
 1857 0a2f DF000000 		.4byte	0xdf
 1858 0a33 2C       		.byte	0x2c
 1859 0a34 0E       		.uleb128 0xe
 1860 0a35 54455200 		.ascii	"TER\000"
 1861 0a39 12       		.byte	0x12
 1862 0a3a 6801     		.2byte	0x168
 1863 0a3c EA000000 		.4byte	0xea
 1864 0a40 30       		.byte	0x30
 1865 0a41 00       		.byte	0
 1866 0a42 1A       		.uleb128 0x1a
 1867 0a43 06070000 		.4byte	.LASF133
 1868 0a47 12       		.byte	0x12
 1869 0a48 6901     		.2byte	0x169
 1870 0a4a A4090000 		.4byte	0x9a4
 1871 0a4e 18       		.uleb128 0x18
 1872 0a4f 14       		.byte	0x14
 1873 0a50 12       		.byte	0x12
 1874 0a51 B402     		.2byte	0x2b4
 1875 0a53 990A0000 		.4byte	0xa99
 1876 0a57 19       		.uleb128 0x19
 1877 0a58 72010000 		.4byte	.LASF134
 1878 0a5c 12       		.byte	0x12
 1879 0a5d B602     		.2byte	0x2b6
 1880 0a5f EA000000 		.4byte	0xea
 1881 0a63 00       		.byte	0
ARM GAS  /tmp/ccn3cifU.s 			page 34


 1882 0a64 19       		.uleb128 0x19
 1883 0a65 37010000 		.4byte	.LASF135
 1884 0a69 12       		.byte	0x12
 1885 0a6a B702     		.2byte	0x2b7
 1886 0a6c EA000000 		.4byte	0xea
 1887 0a70 04       		.byte	0x4
 1888 0a71 19       		.uleb128 0x19
 1889 0a72 17070000 		.4byte	.LASF136
 1890 0a76 12       		.byte	0x12
 1891 0a77 B802     		.2byte	0x2b8
 1892 0a79 EA000000 		.4byte	0xea
 1893 0a7d 08       		.byte	0x8
 1894 0a7e 19       		.uleb128 0x19
 1895 0a7f 56030000 		.4byte	.LASF137
 1896 0a83 12       		.byte	0x12
 1897 0a84 B902     		.2byte	0x2b9
 1898 0a86 EA000000 		.4byte	0xea
 1899 0a8a 0C       		.byte	0xc
 1900 0a8b 19       		.uleb128 0x19
 1901 0a8c 0D080000 		.4byte	.LASF138
 1902 0a90 12       		.byte	0x12
 1903 0a91 BA02     		.2byte	0x2ba
 1904 0a93 EA000000 		.4byte	0xea
 1905 0a97 10       		.byte	0x10
 1906 0a98 00       		.byte	0
 1907 0a99 1A       		.uleb128 0x1a
 1908 0a9a B6000000 		.4byte	.LASF139
 1909 0a9e 12       		.byte	0x12
 1910 0a9f BB02     		.2byte	0x2bb
 1911 0aa1 4E0A0000 		.4byte	0xa4e
 1912 0aa5 15       		.uleb128 0x15
 1913 0aa6 B00A0000 		.4byte	0xab0
 1914 0aaa B00A0000 		.4byte	0xab0
 1915 0aae 1E       		.uleb128 0x1e
 1916 0aaf 00       		.byte	0
 1917 0ab0 0B       		.uleb128 0xb
 1918 0ab1 04       		.byte	0x4
 1919 0ab2 990A0000 		.4byte	0xa99
 1920 0ab6 17       		.uleb128 0x17
 1921 0ab7 C9030000 		.4byte	.LASF140
 1922 0abb 13       		.byte	0x13
 1923 0abc 9501     		.2byte	0x195
 1924 0abe A50A0000 		.4byte	0xaa5
 1925 0ac2 14       		.uleb128 0x14
 1926 0ac3 48010000 		.4byte	0x148
 1927 0ac7 DB0A0000 		.4byte	0xadb
 1928 0acb 10       		.uleb128 0x10
 1929 0acc DE020000 		.4byte	0x2de
 1930 0ad0 10       		.uleb128 0x10
 1931 0ad1 B4000000 		.4byte	0xb4
 1932 0ad5 10       		.uleb128 0x10
 1933 0ad6 69010000 		.4byte	0x169
 1934 0ada 00       		.byte	0
 1935 0adb 0B       		.uleb128 0xb
 1936 0adc 04       		.byte	0x4
 1937 0add C20A0000 		.4byte	0xac2
 1938 0ae1 14       		.uleb128 0x14
ARM GAS  /tmp/ccn3cifU.s 			page 35


 1939 0ae2 48010000 		.4byte	0x148
 1940 0ae6 F50A0000 		.4byte	0xaf5
 1941 0aea 10       		.uleb128 0x10
 1942 0aeb DE020000 		.4byte	0x2de
 1943 0aef 10       		.uleb128 0x10
 1944 0af0 69010000 		.4byte	0x169
 1945 0af4 00       		.byte	0
 1946 0af5 0B       		.uleb128 0xb
 1947 0af6 04       		.byte	0x4
 1948 0af7 E10A0000 		.4byte	0xae1
 1949 0afb 14       		.uleb128 0x14
 1950 0afc 2C000000 		.4byte	0x2c
 1951 0b00 190B0000 		.4byte	0xb19
 1952 0b04 10       		.uleb128 0x10
 1953 0b05 DE020000 		.4byte	0x2de
 1954 0b09 10       		.uleb128 0x10
 1955 0b0a AC070000 		.4byte	0x7ac
 1956 0b0e 10       		.uleb128 0x10
 1957 0b0f 2C000000 		.4byte	0x2c
 1958 0b13 10       		.uleb128 0x10
 1959 0b14 69010000 		.4byte	0x169
 1960 0b18 00       		.byte	0
 1961 0b19 0B       		.uleb128 0xb
 1962 0b1a 04       		.byte	0x4
 1963 0b1b FB0A0000 		.4byte	0xafb
 1964 0b1f 14       		.uleb128 0x14
 1965 0b20 2C000000 		.4byte	0x2c
 1966 0b24 3D0B0000 		.4byte	0xb3d
 1967 0b28 10       		.uleb128 0x10
 1968 0b29 DE020000 		.4byte	0x2de
 1969 0b2d 10       		.uleb128 0x10
 1970 0b2e 77070000 		.4byte	0x777
 1971 0b32 10       		.uleb128 0x10
 1972 0b33 2C000000 		.4byte	0x2c
 1973 0b37 10       		.uleb128 0x10
 1974 0b38 69010000 		.4byte	0x169
 1975 0b3c 00       		.byte	0
 1976 0b3d 0B       		.uleb128 0xb
 1977 0b3e 04       		.byte	0x4
 1978 0b3f 1F0B0000 		.4byte	0xb1f
 1979 0b43 0A       		.uleb128 0xa
 1980 0b44 08       		.byte	0x8
 1981 0b45 14       		.byte	0x14
 1982 0b46 2E       		.byte	0x2e
 1983 0b47 640B0000 		.4byte	0xb64
 1984 0b4b 08       		.uleb128 0x8
 1985 0b4c F0080000 		.4byte	.LASF141
 1986 0b50 14       		.byte	0x14
 1987 0b51 30       		.byte	0x30
 1988 0b52 DF000000 		.4byte	0xdf
 1989 0b56 00       		.byte	0
 1990 0b57 09       		.uleb128 0x9
 1991 0b58 64697200 		.ascii	"dir\000"
 1992 0b5c 14       		.byte	0x14
 1993 0b5d 32       		.byte	0x32
 1994 0b5e DF000000 		.4byte	0xdf
 1995 0b62 04       		.byte	0x4
ARM GAS  /tmp/ccn3cifU.s 			page 36


 1996 0b63 00       		.byte	0
 1997 0b64 03       		.uleb128 0x3
 1998 0b65 CC070000 		.4byte	.LASF142
 1999 0b69 14       		.byte	0x14
 2000 0b6a 33       		.byte	0x33
 2001 0b6b 430B0000 		.4byte	0xb43
 2002 0b6f 0A       		.uleb128 0xa
 2003 0b70 28       		.byte	0x28
 2004 0b71 14       		.byte	0x14
 2005 0b72 41       		.byte	0x41
 2006 0b73 AF0B0000 		.4byte	0xbaf
 2007 0b77 09       		.uleb128 0x9
 2008 0b78 503000   		.ascii	"P0\000"
 2009 0b7b 14       		.byte	0x14
 2010 0b7c 43       		.byte	0x43
 2011 0b7d 640B0000 		.4byte	0xb64
 2012 0b81 00       		.byte	0
 2013 0b82 09       		.uleb128 0x9
 2014 0b83 503100   		.ascii	"P1\000"
 2015 0b86 14       		.byte	0x14
 2016 0b87 45       		.byte	0x45
 2017 0b88 640B0000 		.4byte	0xb64
 2018 0b8c 08       		.byte	0x8
 2019 0b8d 09       		.uleb128 0x9
 2020 0b8e 503200   		.ascii	"P2\000"
 2021 0b91 14       		.byte	0x14
 2022 0b92 47       		.byte	0x47
 2023 0b93 640B0000 		.4byte	0xb64
 2024 0b97 10       		.byte	0x10
 2025 0b98 09       		.uleb128 0x9
 2026 0b99 503300   		.ascii	"P3\000"
 2027 0b9c 14       		.byte	0x14
 2028 0b9d 49       		.byte	0x49
 2029 0b9e 640B0000 		.4byte	0xb64
 2030 0ba2 18       		.byte	0x18
 2031 0ba3 09       		.uleb128 0x9
 2032 0ba4 503400   		.ascii	"P4\000"
 2033 0ba7 14       		.byte	0x14
 2034 0ba8 4B       		.byte	0x4b
 2035 0ba9 640B0000 		.4byte	0xb64
 2036 0bad 20       		.byte	0x20
 2037 0bae 00       		.byte	0
 2038 0baf 03       		.uleb128 0x3
 2039 0bb0 F5070000 		.4byte	.LASF143
 2040 0bb4 14       		.byte	0x14
 2041 0bb5 4C       		.byte	0x4c
 2042 0bb6 6F0B0000 		.4byte	0xb6f
 2043 0bba 05       		.uleb128 0x5
 2044 0bbb AF0B0000 		.4byte	0xbaf
 2045 0bbf 17       		.uleb128 0x17
 2046 0bc0 07020000 		.4byte	.LASF144
 2047 0bc4 14       		.byte	0x14
 2048 0bc5 3301     		.2byte	0x133
 2049 0bc7 BA0B0000 		.4byte	0xbba
 2050 0bcb 1F       		.uleb128 0x1f
 2051 0bcc 01       		.byte	0x1
 2052 0bcd 5E000000 		.4byte	0x5e
ARM GAS  /tmp/ccn3cifU.s 			page 37


 2053 0bd1 15       		.byte	0x15
 2054 0bd2 35       		.byte	0x35
 2055 0bd3 F60B0000 		.4byte	0xbf6
 2056 0bd7 20       		.uleb128 0x20
 2057 0bd8 BB020000 		.4byte	.LASF145
 2058 0bdc 00       		.byte	0
 2059 0bdd 20       		.uleb128 0x20
 2060 0bde 70080000 		.4byte	.LASF146
 2061 0be2 01       		.byte	0x1
 2062 0be3 20       		.uleb128 0x20
 2063 0be4 DC060000 		.4byte	.LASF147
 2064 0be8 02       		.byte	0x2
 2065 0be9 20       		.uleb128 0x20
 2066 0bea E6060000 		.4byte	.LASF148
 2067 0bee 03       		.byte	0x3
 2068 0bef 20       		.uleb128 0x20
 2069 0bf0 C1040000 		.4byte	.LASF149
 2070 0bf4 04       		.byte	0x4
 2071 0bf5 00       		.byte	0
 2072 0bf6 03       		.uleb128 0x3
 2073 0bf7 DE000000 		.4byte	.LASF150
 2074 0bfb 15       		.byte	0x15
 2075 0bfc 3B       		.byte	0x3b
 2076 0bfd CB0B0000 		.4byte	0xbcb
 2077 0c01 03       		.uleb128 0x3
 2078 0c02 86040000 		.4byte	.LASF151
 2079 0c06 15       		.byte	0x15
 2080 0c07 40       		.byte	0x40
 2081 0c08 0C0C0000 		.4byte	0xc0c
 2082 0c0c 07       		.uleb128 0x7
 2083 0c0d 86040000 		.4byte	.LASF151
 2084 0c11 10       		.byte	0x10
 2085 0c12 16       		.byte	0x16
 2086 0c13 93       		.byte	0x93
 2087 0c14 490C0000 		.4byte	0xc49
 2088 0c18 08       		.uleb128 0x8
 2089 0c19 F0000000 		.4byte	.LASF152
 2090 0c1d 16       		.byte	0x16
 2091 0c1e 97       		.byte	0x97
 2092 0c1f F60B0000 		.4byte	0xbf6
 2093 0c23 00       		.byte	0
 2094 0c24 08       		.uleb128 0x8
 2095 0c25 E9000000 		.4byte	.LASF153
 2096 0c29 16       		.byte	0x16
 2097 0c2a 9B       		.byte	0x9b
 2098 0c2b A70C0000 		.4byte	0xca7
 2099 0c2f 04       		.byte	0x4
 2100 0c30 08       		.uleb128 0x8
 2101 0c31 FF030000 		.4byte	.LASF154
 2102 0c35 16       		.byte	0x16
 2103 0c36 A0       		.byte	0xa0
 2104 0c37 DF000000 		.4byte	0xdf
 2105 0c3b 08       		.byte	0x8
 2106 0c3c 09       		.uleb128 0x9
 2107 0c3d 746D7200 		.ascii	"tmr\000"
 2108 0c41 16       		.byte	0x16
 2109 0c42 A4       		.byte	0xa4
ARM GAS  /tmp/ccn3cifU.s 			page 38


 2110 0c43 AD0C0000 		.4byte	0xcad
 2111 0c47 0C       		.byte	0xc
 2112 0c48 00       		.byte	0
 2113 0c49 03       		.uleb128 0x3
 2114 0c4a FC080000 		.4byte	.LASF155
 2115 0c4e 15       		.byte	0x15
 2116 0c4f 47       		.byte	0x47
 2117 0c50 540C0000 		.4byte	0xc54
 2118 0c54 0B       		.uleb128 0xb
 2119 0c55 04       		.byte	0x4
 2120 0c56 5A0C0000 		.4byte	0xc5a
 2121 0c5a 0F       		.uleb128 0xf
 2122 0c5b 650C0000 		.4byte	0xc65
 2123 0c5f 10       		.uleb128 0x10
 2124 0c60 650C0000 		.4byte	0xc65
 2125 0c64 00       		.byte	0
 2126 0c65 0B       		.uleb128 0xb
 2127 0c66 04       		.byte	0x4
 2128 0c67 010C0000 		.4byte	0xc01
 2129 0c6b 03       		.uleb128 0x3
 2130 0c6c A0030000 		.4byte	.LASF156
 2131 0c70 16       		.byte	0x16
 2132 0c71 76       		.byte	0x76
 2133 0c72 DF000000 		.4byte	0xdf
 2134 0c76 0A       		.uleb128 0xa
 2135 0c77 08       		.byte	0x8
 2136 0c78 16       		.byte	0x16
 2137 0c79 81       		.byte	0x81
 2138 0c7a 970C0000 		.4byte	0xc97
 2139 0c7e 08       		.uleb128 0x8
 2140 0c7f A5040000 		.4byte	.LASF157
 2141 0c83 16       		.byte	0x16
 2142 0c84 87       		.byte	0x87
 2143 0c85 6B0C0000 		.4byte	0xc6b
 2144 0c89 00       		.byte	0
 2145 0c8a 08       		.uleb128 0x8
 2146 0c8b 06010000 		.4byte	.LASF158
 2147 0c8f 16       		.byte	0x16
 2148 0c90 8C       		.byte	0x8c
 2149 0c91 490C0000 		.4byte	0xc49
 2150 0c95 04       		.byte	0x4
 2151 0c96 00       		.byte	0
 2152 0c97 03       		.uleb128 0x3
 2153 0c98 05040000 		.4byte	.LASF159
 2154 0c9c 16       		.byte	0x16
 2155 0c9d 8E       		.byte	0x8e
 2156 0c9e 760C0000 		.4byte	0xc76
 2157 0ca2 05       		.uleb128 0x5
 2158 0ca3 970C0000 		.4byte	0xc97
 2159 0ca7 0B       		.uleb128 0xb
 2160 0ca8 04       		.byte	0x4
 2161 0ca9 A20C0000 		.4byte	0xca2
 2162 0cad 0B       		.uleb128 0xb
 2163 0cae 04       		.byte	0x4
 2164 0caf 26090000 		.4byte	0x926
 2165 0cb3 11       		.uleb128 0x11
 2166 0cb4 C5010000 		.4byte	.LASF160
ARM GAS  /tmp/ccn3cifU.s 			page 39


 2167 0cb8 16       		.byte	0x16
 2168 0cb9 B0       		.byte	0xb0
 2169 0cba 010C0000 		.4byte	0xc01
 2170 0cbe 11       		.uleb128 0x11
 2171 0cbf CB010000 		.4byte	.LASF161
 2172 0cc3 16       		.byte	0x16
 2173 0cc4 B4       		.byte	0xb4
 2174 0cc5 010C0000 		.4byte	0xc01
 2175 0cc9 11       		.uleb128 0x11
 2176 0cca D1010000 		.4byte	.LASF162
 2177 0cce 16       		.byte	0x16
 2178 0ccf B8       		.byte	0xb8
 2179 0cd0 010C0000 		.4byte	0xc01
 2180 0cd4 11       		.uleb128 0x11
 2181 0cd5 D7010000 		.4byte	.LASF163
 2182 0cd9 16       		.byte	0x16
 2183 0cda BC       		.byte	0xbc
 2184 0cdb 010C0000 		.4byte	0xc01
 2185 0cdf 1F       		.uleb128 0x1f
 2186 0ce0 01       		.byte	0x1
 2187 0ce1 5E000000 		.4byte	0x5e
 2188 0ce5 17       		.byte	0x17
 2189 0ce6 5D       		.byte	0x5d
 2190 0ce7 FE0C0000 		.4byte	0xcfe
 2191 0ceb 20       		.uleb128 0x20
 2192 0cec 85020000 		.4byte	.LASF164
 2193 0cf0 00       		.byte	0
 2194 0cf1 20       		.uleb128 0x20
 2195 0cf2 BF080000 		.4byte	.LASF165
 2196 0cf6 01       		.byte	0x1
 2197 0cf7 20       		.uleb128 0x20
 2198 0cf8 6E070000 		.4byte	.LASF166
 2199 0cfc 02       		.byte	0x2
 2200 0cfd 00       		.byte	0
 2201 0cfe 03       		.uleb128 0x3
 2202 0cff 59070000 		.4byte	.LASF167
 2203 0d03 17       		.byte	0x17
 2204 0d04 61       		.byte	0x61
 2205 0d05 DF0C0000 		.4byte	0xcdf
 2206 0d09 03       		.uleb128 0x3
 2207 0d0a 2F070000 		.4byte	.LASF168
 2208 0d0e 17       		.byte	0x17
 2209 0d0f 66       		.byte	0x66
 2210 0d10 140D0000 		.4byte	0xd14
 2211 0d14 07       		.uleb128 0x7
 2212 0d15 2F070000 		.4byte	.LASF168
 2213 0d19 78       		.byte	0x78
 2214 0d1a 17       		.byte	0x17
 2215 0d1b 80       		.byte	0x80
 2216 0d1c 7F0D0000 		.4byte	0xd7f
 2217 0d20 09       		.uleb128 0x9
 2218 0d21 766D7400 		.ascii	"vmt\000"
 2219 0d25 17       		.byte	0x17
 2220 0d26 82       		.byte	0x82
 2221 0d27 440E0000 		.4byte	0xe44
 2222 0d2b 00       		.byte	0
 2223 0d2c 08       		.uleb128 0x8
ARM GAS  /tmp/ccn3cifU.s 			page 40


 2224 0d2d D7040000 		.4byte	.LASF169
 2225 0d31 17       		.byte	0x17
 2226 0d32 83       		.byte	0x83
 2227 0d33 64050000 		.4byte	0x564
 2228 0d37 04       		.byte	0x4
 2229 0d38 08       		.uleb128 0x8
 2230 0d39 F0000000 		.4byte	.LASF152
 2231 0d3d 17       		.byte	0x17
 2232 0d3e 83       		.byte	0x83
 2233 0d3f FE0C0000 		.4byte	0xcfe
 2234 0d43 08       		.byte	0x8
 2235 0d44 08       		.uleb128 0x8
 2236 0d45 B7070000 		.4byte	.LASF170
 2237 0d49 17       		.byte	0x17
 2238 0d4a 83       		.byte	0x83
 2239 0d4b 7D070000 		.4byte	0x77d
 2240 0d4f 0C       		.byte	0xc
 2241 0d50 08       		.uleb128 0x8
 2242 0d51 F0010000 		.4byte	.LASF171
 2243 0d55 17       		.byte	0x17
 2244 0d56 83       		.byte	0x83
 2245 0d57 88070000 		.4byte	0x788
 2246 0d5b 30       		.byte	0x30
 2247 0d5c 09       		.uleb128 0x9
 2248 0d5d 696200   		.ascii	"ib\000"
 2249 0d60 17       		.byte	0x17
 2250 0d61 83       		.byte	0x83
 2251 0d62 4A0E0000 		.4byte	0xe4a
 2252 0d66 54       		.byte	0x54
 2253 0d67 09       		.uleb128 0x9
 2254 0d68 6F6200   		.ascii	"ob\000"
 2255 0d6b 17       		.byte	0x17
 2256 0d6c 83       		.byte	0x83
 2257 0d6d 4A0E0000 		.4byte	0xe4a
 2258 0d71 64       		.byte	0x64
 2259 0d72 08       		.uleb128 0x8
 2260 0d73 B2070000 		.4byte	.LASF172
 2261 0d77 17       		.byte	0x17
 2262 0d78 83       		.byte	0x83
 2263 0d79 5A0E0000 		.4byte	0xe5a
 2264 0d7d 74       		.byte	0x74
 2265 0d7e 00       		.byte	0
 2266 0d7f 0A       		.uleb128 0xa
 2267 0d80 0C       		.byte	0xc
 2268 0d81 18       		.byte	0x18
 2269 0d82 C4       		.byte	0xc4
 2270 0d83 AC0D0000 		.4byte	0xdac
 2271 0d87 08       		.uleb128 0x8
 2272 0d88 BE050000 		.4byte	.LASF173
 2273 0d8c 18       		.byte	0x18
 2274 0d8d C8       		.byte	0xc8
 2275 0d8e DF000000 		.4byte	0xdf
 2276 0d92 00       		.byte	0
 2277 0d93 08       		.uleb128 0x8
 2278 0d94 C5070000 		.4byte	.LASF174
 2279 0d98 18       		.byte	0x18
 2280 0d99 CC       		.byte	0xcc
ARM GAS  /tmp/ccn3cifU.s 			page 41


 2281 0d9a DF000000 		.4byte	0xdf
 2282 0d9e 04       		.byte	0x4
 2283 0d9f 08       		.uleb128 0x8
 2284 0da0 09060000 		.4byte	.LASF175
 2285 0da4 18       		.byte	0x18
 2286 0da5 D0       		.byte	0xd0
 2287 0da6 DF000000 		.4byte	0xdf
 2288 0daa 08       		.byte	0x8
 2289 0dab 00       		.byte	0
 2290 0dac 03       		.uleb128 0x3
 2291 0dad 74000000 		.4byte	.LASF176
 2292 0db1 18       		.byte	0x18
 2293 0db2 D1       		.byte	0xd1
 2294 0db3 7F0D0000 		.4byte	0xd7f
 2295 0db7 05       		.uleb128 0x5
 2296 0db8 AC0D0000 		.4byte	0xdac
 2297 0dbc 21       		.uleb128 0x21
 2298 0dbd 53443100 		.ascii	"SD1\000"
 2299 0dc1 18       		.byte	0x18
 2300 0dc2 EF       		.byte	0xef
 2301 0dc3 090D0000 		.4byte	0xd09
 2302 0dc7 21       		.uleb128 0x21
 2303 0dc8 53443300 		.ascii	"SD3\000"
 2304 0dcc 18       		.byte	0x18
 2305 0dcd F7       		.byte	0xf7
 2306 0dce 090D0000 		.4byte	0xd09
 2307 0dd2 07       		.uleb128 0x7
 2308 0dd3 E7030000 		.4byte	.LASF177
 2309 0dd7 20       		.byte	0x20
 2310 0dd8 17       		.byte	0x17
 2311 0dd9 75       		.byte	0x75
 2312 0dda 3F0E0000 		.4byte	0xe3f
 2313 0dde 08       		.uleb128 0x8
 2314 0ddf CA000000 		.4byte	.LASF178
 2315 0de3 17       		.byte	0x17
 2316 0de4 76       		.byte	0x76
 2317 0de5 B2070000 		.4byte	0x7b2
 2318 0de9 00       		.byte	0
 2319 0dea 08       		.uleb128 0x8
 2320 0deb E5040000 		.4byte	.LASF179
 2321 0def 17       		.byte	0x17
 2322 0df0 76       		.byte	0x76
 2323 0df1 D1070000 		.4byte	0x7d1
 2324 0df5 04       		.byte	0x4
 2325 0df6 09       		.uleb128 0x9
 2326 0df7 70757400 		.ascii	"put\000"
 2327 0dfb 17       		.byte	0x17
 2328 0dfc 76       		.byte	0x76
 2329 0dfd EB070000 		.4byte	0x7eb
 2330 0e01 08       		.byte	0x8
 2331 0e02 09       		.uleb128 0x9
 2332 0e03 67657400 		.ascii	"get\000"
 2333 0e07 17       		.byte	0x17
 2334 0e08 76       		.byte	0x76
 2335 0e09 BC050000 		.4byte	0x5bc
 2336 0e0d 0C       		.byte	0xc
 2337 0e0e 08       		.uleb128 0x8
ARM GAS  /tmp/ccn3cifU.s 			page 42


 2338 0e0f F6000000 		.4byte	.LASF180
 2339 0e13 17       		.byte	0x17
 2340 0e14 76       		.byte	0x76
 2341 0e15 DB0A0000 		.4byte	0xadb
 2342 0e19 10       		.byte	0x10
 2343 0e1a 08       		.uleb128 0x8
 2344 0e1b F9020000 		.4byte	.LASF181
 2345 0e1f 17       		.byte	0x17
 2346 0e20 76       		.byte	0x76
 2347 0e21 F50A0000 		.4byte	0xaf5
 2348 0e25 14       		.byte	0x14
 2349 0e26 08       		.uleb128 0x8
 2350 0e27 81000000 		.4byte	.LASF182
 2351 0e2b 17       		.byte	0x17
 2352 0e2c 76       		.byte	0x76
 2353 0e2d 190B0000 		.4byte	0xb19
 2354 0e31 18       		.byte	0x18
 2355 0e32 08       		.uleb128 0x8
 2356 0e33 56010000 		.4byte	.LASF183
 2357 0e37 17       		.byte	0x17
 2358 0e38 76       		.byte	0x76
 2359 0e39 3D0B0000 		.4byte	0xb3d
 2360 0e3d 1C       		.byte	0x1c
 2361 0e3e 00       		.byte	0
 2362 0e3f 05       		.uleb128 0x5
 2363 0e40 D20D0000 		.4byte	0xdd2
 2364 0e44 0B       		.uleb128 0xb
 2365 0e45 04       		.byte	0x4
 2366 0e46 3F0E0000 		.4byte	0xe3f
 2367 0e4a 15       		.uleb128 0x15
 2368 0e4b B4000000 		.4byte	0xb4
 2369 0e4f 5A0E0000 		.4byte	0xe5a
 2370 0e53 16       		.uleb128 0x16
 2371 0e54 88030000 		.4byte	0x388
 2372 0e58 0F       		.byte	0xf
 2373 0e59 00       		.byte	0
 2374 0e5a 0B       		.uleb128 0xb
 2375 0e5b 04       		.byte	0x4
 2376 0e5c 420A0000 		.4byte	0xa42
 2377 0e60 22       		.uleb128 0x22
 2378 0e61 766D7400 		.ascii	"vmt\000"
 2379 0e65 01       		.byte	0x1
 2380 0e66 61       		.byte	0x61
 2381 0e67 3F0E0000 		.4byte	0xe3f
 2382 0e6b 05       		.uleb128 0x5
 2383 0e6c 03       		.byte	0x3
 2384 0e6d 00000000 		.4byte	vmt
 2385 0e71 23       		.uleb128 0x23
 2386 0e72 7F070000 		.4byte	.LASF211
 2387 0e76 01       		.byte	0x1
 2388 0e77 E8       		.byte	0xe8
 2389 0e78 48010000 		.4byte	0x148
 2390 0e7c 00000000 		.4byte	.LFB76
 2391 0e80 1E000000 		.4byte	.LFE76-.LFB76
 2392 0e84 01       		.uleb128 0x1
 2393 0e85 9C       		.byte	0x9c
 2394 0e86 D00E0000 		.4byte	0xed0
ARM GAS  /tmp/ccn3cifU.s 			page 43


 2395 0e8a 24       		.uleb128 0x24
 2396 0e8b 73647000 		.ascii	"sdp\000"
 2397 0e8f 01       		.byte	0x1
 2398 0e90 E8       		.byte	0xe8
 2399 0e91 D00E0000 		.4byte	0xed0
 2400 0e95 00000000 		.4byte	.LLST30
 2401 0e99 25       		.uleb128 0x25
 2402 0e9a 6200     		.ascii	"b\000"
 2403 0e9c 01       		.byte	0x1
 2404 0e9d E9       		.byte	0xe9
 2405 0e9e 48010000 		.4byte	0x148
 2406 0ea2 1E000000 		.4byte	.LLST31
 2407 0ea6 26       		.uleb128 0x26
 2408 0ea7 0A000000 		.4byte	.LVL52
 2409 0eab 41140000 		.4byte	0x1441
 2410 0eaf BA0E0000 		.4byte	0xeba
 2411 0eb3 27       		.uleb128 0x27
 2412 0eb4 01       		.uleb128 0x1
 2413 0eb5 50       		.byte	0x50
 2414 0eb6 02       		.uleb128 0x2
 2415 0eb7 74       		.byte	0x74
 2416 0eb8 30       		.sleb128 48
 2417 0eb9 00       		.byte	0
 2418 0eba 28       		.uleb128 0x28
 2419 0ebb 1A000000 		.4byte	.LVL55
 2420 0ebf 4D140000 		.4byte	0x144d
 2421 0ec3 27       		.uleb128 0x27
 2422 0ec4 01       		.uleb128 0x1
 2423 0ec5 50       		.byte	0x50
 2424 0ec6 02       		.uleb128 0x2
 2425 0ec7 74       		.byte	0x74
 2426 0ec8 04       		.sleb128 4
 2427 0ec9 27       		.uleb128 0x27
 2428 0eca 01       		.uleb128 0x1
 2429 0ecb 51       		.byte	0x51
 2430 0ecc 01       		.uleb128 0x1
 2431 0ecd 38       		.byte	0x38
 2432 0ece 00       		.byte	0
 2433 0ecf 00       		.byte	0
 2434 0ed0 0B       		.uleb128 0xb
 2435 0ed1 04       		.byte	0x4
 2436 0ed2 090D0000 		.4byte	0xd09
 2437 0ed6 29       		.uleb128 0x29
 2438 0ed7 55040000 		.4byte	.LASF184
 2439 0edb 01       		.byte	0x1
 2440 0edc CE       		.byte	0xce
 2441 0edd 00000000 		.4byte	.LFB75
 2442 0ee1 3C000000 		.4byte	.LFE75-.LFB75
 2443 0ee5 01       		.uleb128 0x1
 2444 0ee6 9C       		.byte	0x9c
 2445 0ee7 6E0F0000 		.4byte	0xf6e
 2446 0eeb 24       		.uleb128 0x24
 2447 0eec 73647000 		.ascii	"sdp\000"
 2448 0ef0 01       		.byte	0x1
 2449 0ef1 CE       		.byte	0xce
 2450 0ef2 D00E0000 		.4byte	0xed0
 2451 0ef6 3C000000 		.4byte	.LLST28
ARM GAS  /tmp/ccn3cifU.s 			page 44


 2452 0efa 24       		.uleb128 0x24
 2453 0efb 6200     		.ascii	"b\000"
 2454 0efd 01       		.byte	0x1
 2455 0efe CE       		.byte	0xce
 2456 0eff B4000000 		.4byte	0xb4
 2457 0f03 8B000000 		.4byte	.LLST29
 2458 0f07 26       		.uleb128 0x26
 2459 0f08 14000000 		.4byte	.LVL42
 2460 0f0c 58140000 		.4byte	0x1458
 2461 0f10 210F0000 		.4byte	0xf21
 2462 0f14 27       		.uleb128 0x27
 2463 0f15 01       		.uleb128 0x1
 2464 0f16 50       		.byte	0x50
 2465 0f17 02       		.uleb128 0x2
 2466 0f18 74       		.byte	0x74
 2467 0f19 0C       		.sleb128 12
 2468 0f1a 27       		.uleb128 0x27
 2469 0f1b 01       		.uleb128 0x1
 2470 0f1c 51       		.byte	0x51
 2471 0f1d 02       		.uleb128 0x2
 2472 0f1e 75       		.byte	0x75
 2473 0f1f 00       		.sleb128 0
 2474 0f20 00       		.byte	0
 2475 0f21 26       		.uleb128 0x26
 2476 0f22 22000000 		.4byte	.LVL46
 2477 0f26 4D140000 		.4byte	0x144d
 2478 0f2a 3A0F0000 		.4byte	0xf3a
 2479 0f2e 27       		.uleb128 0x27
 2480 0f2f 01       		.uleb128 0x1
 2481 0f30 50       		.byte	0x50
 2482 0f31 02       		.uleb128 0x2
 2483 0f32 74       		.byte	0x74
 2484 0f33 04       		.sleb128 4
 2485 0f34 27       		.uleb128 0x27
 2486 0f35 01       		.uleb128 0x1
 2487 0f36 51       		.byte	0x51
 2488 0f37 01       		.uleb128 0x1
 2489 0f38 34       		.byte	0x34
 2490 0f39 00       		.byte	0
 2491 0f3a 26       		.uleb128 0x26
 2492 0f3b 2C000000 		.4byte	.LVL47
 2493 0f3f 58140000 		.4byte	0x1458
 2494 0f43 540F0000 		.4byte	0xf54
 2495 0f47 27       		.uleb128 0x27
 2496 0f48 01       		.uleb128 0x1
 2497 0f49 50       		.byte	0x50
 2498 0f4a 02       		.uleb128 0x2
 2499 0f4b 74       		.byte	0x74
 2500 0f4c 0C       		.sleb128 12
 2501 0f4d 27       		.uleb128 0x27
 2502 0f4e 01       		.uleb128 0x1
 2503 0f4f 51       		.byte	0x51
 2504 0f50 02       		.uleb128 0x2
 2505 0f51 75       		.byte	0x75
 2506 0f52 00       		.sleb128 0
 2507 0f53 00       		.byte	0
 2508 0f54 2A       		.uleb128 0x2a
ARM GAS  /tmp/ccn3cifU.s 			page 45


 2509 0f55 3C000000 		.4byte	.LVL49
 2510 0f59 4D140000 		.4byte	0x144d
 2511 0f5d 27       		.uleb128 0x27
 2512 0f5e 01       		.uleb128 0x1
 2513 0f5f 50       		.byte	0x50
 2514 0f60 05       		.uleb128 0x5
 2515 0f61 F3       		.byte	0xf3
 2516 0f62 01       		.uleb128 0x1
 2517 0f63 50       		.byte	0x50
 2518 0f64 23       		.byte	0x23
 2519 0f65 04       		.uleb128 0x4
 2520 0f66 27       		.uleb128 0x27
 2521 0f67 01       		.uleb128 0x1
 2522 0f68 51       		.byte	0x51
 2523 0f69 02       		.uleb128 0x2
 2524 0f6a 08       		.byte	0x8
 2525 0f6b 80       		.byte	0x80
 2526 0f6c 00       		.byte	0
 2527 0f6d 00       		.byte	0
 2528 0f6e 29       		.uleb128 0x29
 2529 0f6f 02060000 		.4byte	.LASF185
 2530 0f73 01       		.byte	0x1
 2531 0f74 AE       		.byte	0xae
 2532 0f75 00000000 		.4byte	.LFB74
 2533 0f79 2E000000 		.4byte	.LFE74-.LFB74
 2534 0f7d 01       		.uleb128 0x1
 2535 0f7e 9C       		.byte	0x9c
 2536 0f7f 0A100000 		.4byte	0x100a
 2537 0f83 24       		.uleb128 0x24
 2538 0f84 73647000 		.ascii	"sdp\000"
 2539 0f88 01       		.byte	0x1
 2540 0f89 AE       		.byte	0xae
 2541 0f8a D00E0000 		.4byte	0xed0
 2542 0f8e C5000000 		.4byte	.LLST27
 2543 0f92 2B       		.uleb128 0x2b
 2544 0f93 30000000 		.4byte	.Ldebug_ranges0+0x30
 2545 0f97 A90F0000 		.4byte	0xfa9
 2546 0f9b 22       		.uleb128 0x22
 2547 0f9c 746D7000 		.ascii	"tmp\000"
 2548 0fa0 01       		.byte	0x1
 2549 0fa1 B2       		.byte	0xb2
 2550 0fa2 DF000000 		.4byte	0xdf
 2551 0fa6 01       		.uleb128 0x1
 2552 0fa7 53       		.byte	0x53
 2553 0fa8 00       		.byte	0
 2554 0fa9 2C       		.uleb128 0x2c
 2555 0faa 26000000 		.4byte	.LBB8
 2556 0fae 08000000 		.4byte	.LBE8-.LBB8
 2557 0fb2 C40F0000 		.4byte	0xfc4
 2558 0fb6 22       		.uleb128 0x22
 2559 0fb7 746D7000 		.ascii	"tmp\000"
 2560 0fbb 01       		.byte	0x1
 2561 0fbc BB       		.byte	0xbb
 2562 0fbd DF000000 		.4byte	0xdf
 2563 0fc1 01       		.uleb128 0x1
 2564 0fc2 53       		.byte	0x53
 2565 0fc3 00       		.byte	0
ARM GAS  /tmp/ccn3cifU.s 			page 46


 2566 0fc4 26       		.uleb128 0x26
 2567 0fc5 0E000000 		.4byte	.LVL35
 2568 0fc9 64140000 		.4byte	0x1464
 2569 0fcd D80F0000 		.4byte	0xfd8
 2570 0fd1 27       		.uleb128 0x27
 2571 0fd2 01       		.uleb128 0x1
 2572 0fd3 50       		.byte	0x50
 2573 0fd4 02       		.uleb128 0x2
 2574 0fd5 74       		.byte	0x74
 2575 0fd6 00       		.sleb128 0
 2576 0fd7 00       		.byte	0
 2577 0fd8 26       		.uleb128 0x26
 2578 0fd9 1A000000 		.4byte	.LVL36
 2579 0fdd 70140000 		.4byte	0x1470
 2580 0fe1 EC0F0000 		.4byte	0xfec
 2581 0fe5 27       		.uleb128 0x27
 2582 0fe6 01       		.uleb128 0x1
 2583 0fe7 50       		.byte	0x50
 2584 0fe8 02       		.uleb128 0x2
 2585 0fe9 74       		.byte	0x74
 2586 0fea 30       		.sleb128 48
 2587 0feb 00       		.byte	0
 2588 0fec 26       		.uleb128 0x26
 2589 0fed 22000000 		.4byte	.LVL37
 2590 0ff1 7C140000 		.4byte	0x147c
 2591 0ff5 00100000 		.4byte	0x1000
 2592 0ff9 27       		.uleb128 0x27
 2593 0ffa 01       		.uleb128 0x1
 2594 0ffb 50       		.byte	0x50
 2595 0ffc 02       		.uleb128 0x2
 2596 0ffd 74       		.byte	0x74
 2597 0ffe 0C       		.sleb128 12
 2598 0fff 00       		.byte	0
 2599 1000 2D       		.uleb128 0x2d
 2600 1001 26000000 		.4byte	.LVL38
 2601 1005 88140000 		.4byte	0x1488
 2602 1009 00       		.byte	0
 2603 100a 29       		.uleb128 0x29
 2604 100b F7030000 		.4byte	.LASF186
 2605 100f 01       		.byte	0x1
 2606 1010 98       		.byte	0x98
 2607 1011 00000000 		.4byte	.LFB73
 2608 1015 1A000000 		.4byte	.LFE73-.LFB73
 2609 1019 01       		.uleb128 0x1
 2610 101a 9C       		.byte	0x9c
 2611 101b 83100000 		.4byte	0x1083
 2612 101f 24       		.uleb128 0x24
 2613 1020 73647000 		.ascii	"sdp\000"
 2614 1024 01       		.byte	0x1
 2615 1025 98       		.byte	0x98
 2616 1026 D00E0000 		.4byte	0xed0
 2617 102a E3000000 		.4byte	.LLST25
 2618 102e 2E       		.uleb128 0x2e
 2619 102f E9000000 		.4byte	.LASF153
 2620 1033 01       		.byte	0x1
 2621 1034 98       		.byte	0x98
 2622 1035 83100000 		.4byte	0x1083
ARM GAS  /tmp/ccn3cifU.s 			page 47


 2623 1039 01010000 		.4byte	.LLST26
 2624 103d 2B       		.uleb128 0x2b
 2625 103e 00000000 		.4byte	.Ldebug_ranges0+0
 2626 1042 54100000 		.4byte	0x1054
 2627 1046 22       		.uleb128 0x22
 2628 1047 746D7000 		.ascii	"tmp\000"
 2629 104b 01       		.byte	0x1
 2630 104c 9C       		.byte	0x9c
 2631 104d DF000000 		.4byte	0xdf
 2632 1051 01       		.uleb128 0x1
 2633 1052 53       		.byte	0x53
 2634 1053 00       		.byte	0
 2635 1054 2B       		.uleb128 0x2b
 2636 1055 18000000 		.4byte	.Ldebug_ranges0+0x18
 2637 1059 6B100000 		.4byte	0x106b
 2638 105d 22       		.uleb128 0x22
 2639 105e 746D7000 		.ascii	"tmp\000"
 2640 1062 01       		.byte	0x1
 2641 1063 A2       		.byte	0xa2
 2642 1064 DF000000 		.4byte	0xdf
 2643 1068 01       		.uleb128 0x1
 2644 1069 53       		.byte	0x53
 2645 106a 00       		.byte	0
 2646 106b 28       		.uleb128 0x28
 2647 106c 0E000000 		.4byte	.LVL33
 2648 1070 93140000 		.4byte	0x1493
 2649 1074 27       		.uleb128 0x27
 2650 1075 01       		.uleb128 0x1
 2651 1076 50       		.byte	0x50
 2652 1077 02       		.uleb128 0x2
 2653 1078 74       		.byte	0x74
 2654 1079 00       		.sleb128 0
 2655 107a 27       		.uleb128 0x27
 2656 107b 01       		.uleb128 0x1
 2657 107c 51       		.byte	0x51
 2658 107d 03       		.uleb128 0x3
 2659 107e F3       		.byte	0xf3
 2660 107f 01       		.uleb128 0x1
 2661 1080 51       		.byte	0x51
 2662 1081 00       		.byte	0
 2663 1082 00       		.byte	0
 2664 1083 0B       		.uleb128 0xb
 2665 1084 04       		.byte	0x4
 2666 1085 B70D0000 		.4byte	0xdb7
 2667 1089 29       		.uleb128 0x29
 2668 108a 84010000 		.4byte	.LASF187
 2669 108e 01       		.byte	0x1
 2670 108f 85       		.byte	0x85
 2671 1090 00000000 		.4byte	.LFB72
 2672 1094 40000000 		.4byte	.LFE72-.LFB72
 2673 1098 01       		.uleb128 0x1
 2674 1099 9C       		.byte	0x9c
 2675 109a 1C110000 		.4byte	0x111c
 2676 109e 24       		.uleb128 0x24
 2677 109f 73647000 		.ascii	"sdp\000"
 2678 10a3 01       		.byte	0x1
 2679 10a4 85       		.byte	0x85
ARM GAS  /tmp/ccn3cifU.s 			page 48


 2680 10a5 D00E0000 		.4byte	0xed0
 2681 10a9 22010000 		.4byte	.LLST22
 2682 10ad 2E       		.uleb128 0x2e
 2683 10ae CF080000 		.4byte	.LASF188
 2684 10b2 01       		.byte	0x1
 2685 10b3 85       		.byte	0x85
 2686 10b4 55070000 		.4byte	0x755
 2687 10b8 4E010000 		.4byte	.LLST23
 2688 10bc 2E       		.uleb128 0x2e
 2689 10bd 9F020000 		.4byte	.LASF189
 2690 10c1 01       		.byte	0x1
 2691 10c2 85       		.byte	0x85
 2692 10c3 55070000 		.4byte	0x755
 2693 10c7 7A010000 		.4byte	.LLST24
 2694 10cb 26       		.uleb128 0x26
 2695 10cc 26000000 		.4byte	.LVL29
 2696 10d0 9F140000 		.4byte	0x149f
 2697 10d4 F2100000 		.4byte	0x10f2
 2698 10d8 27       		.uleb128 0x27
 2699 10d9 01       		.uleb128 0x1
 2700 10da 50       		.byte	0x50
 2701 10db 02       		.uleb128 0x2
 2702 10dc 74       		.byte	0x74
 2703 10dd 0C       		.sleb128 12
 2704 10de 27       		.uleb128 0x27
 2705 10df 01       		.uleb128 0x1
 2706 10e0 51       		.byte	0x51
 2707 10e1 03       		.uleb128 0x3
 2708 10e2 74       		.byte	0x74
 2709 10e3 D400     		.sleb128 84
 2710 10e5 27       		.uleb128 0x27
 2711 10e6 01       		.uleb128 0x1
 2712 10e7 52       		.byte	0x52
 2713 10e8 01       		.uleb128 0x1
 2714 10e9 40       		.byte	0x40
 2715 10ea 27       		.uleb128 0x27
 2716 10eb 01       		.uleb128 0x1
 2717 10ec 53       		.byte	0x53
 2718 10ed 03       		.uleb128 0x3
 2719 10ee F3       		.byte	0xf3
 2720 10ef 01       		.uleb128 0x1
 2721 10f0 51       		.byte	0x51
 2722 10f1 00       		.byte	0
 2723 10f2 28       		.uleb128 0x28
 2724 10f3 38000000 		.4byte	.LVL30
 2725 10f7 AB140000 		.4byte	0x14ab
 2726 10fb 27       		.uleb128 0x27
 2727 10fc 01       		.uleb128 0x1
 2728 10fd 50       		.byte	0x50
 2729 10fe 02       		.uleb128 0x2
 2730 10ff 74       		.byte	0x74
 2731 1100 30       		.sleb128 48
 2732 1101 27       		.uleb128 0x27
 2733 1102 01       		.uleb128 0x1
 2734 1103 51       		.byte	0x51
 2735 1104 03       		.uleb128 0x3
 2736 1105 74       		.byte	0x74
ARM GAS  /tmp/ccn3cifU.s 			page 49


 2737 1106 E400     		.sleb128 100
 2738 1108 27       		.uleb128 0x27
 2739 1109 01       		.uleb128 0x1
 2740 110a 52       		.byte	0x52
 2741 110b 01       		.uleb128 0x1
 2742 110c 40       		.byte	0x40
 2743 110d 27       		.uleb128 0x27
 2744 110e 01       		.uleb128 0x1
 2745 110f 53       		.byte	0x53
 2746 1110 02       		.uleb128 0x2
 2747 1111 75       		.byte	0x75
 2748 1112 00       		.sleb128 0
 2749 1113 27       		.uleb128 0x27
 2750 1114 02       		.uleb128 0x2
 2751 1115 7D       		.byte	0x7d
 2752 1116 00       		.sleb128 0
 2753 1117 02       		.uleb128 0x2
 2754 1118 74       		.byte	0x74
 2755 1119 00       		.sleb128 0
 2756 111a 00       		.byte	0
 2757 111b 00       		.byte	0
 2758 111c 29       		.uleb128 0x29
 2759 111d 00020000 		.4byte	.LASF190
 2760 1121 01       		.byte	0x1
 2761 1122 71       		.byte	0x71
 2762 1123 00000000 		.4byte	.LFB71
 2763 1127 04000000 		.4byte	.LFE71-.LFB71
 2764 112b 01       		.uleb128 0x1
 2765 112c 9C       		.byte	0x9c
 2766 112d 3B110000 		.4byte	0x113b
 2767 1131 2F       		.uleb128 0x2f
 2768 1132 04000000 		.4byte	.LVL24
 2769 1136 B7140000 		.4byte	0x14b7
 2770 113a 00       		.byte	0
 2771 113b 30       		.uleb128 0x30
 2772 113c 56010000 		.4byte	.LASF183
 2773 1140 01       		.byte	0x1
 2774 1141 5C       		.byte	0x5c
 2775 1142 2C000000 		.4byte	0x2c
 2776 1146 00000000 		.4byte	.LFB70
 2777 114a 06000000 		.4byte	.LFE70-.LFB70
 2778 114e 01       		.uleb128 0x1
 2779 114f 9C       		.byte	0x9c
 2780 1150 B5110000 		.4byte	0x11b5
 2781 1154 24       		.uleb128 0x24
 2782 1155 697000   		.ascii	"ip\000"
 2783 1158 01       		.byte	0x1
 2784 1159 5C       		.byte	0x5c
 2785 115a DE020000 		.4byte	0x2de
 2786 115e A6010000 		.4byte	.LLST0
 2787 1162 24       		.uleb128 0x24
 2788 1163 627000   		.ascii	"bp\000"
 2789 1166 01       		.byte	0x1
 2790 1167 5C       		.byte	0x5c
 2791 1168 77070000 		.4byte	0x777
 2792 116c D4010000 		.4byte	.LLST1
 2793 1170 24       		.uleb128 0x24
ARM GAS  /tmp/ccn3cifU.s 			page 50


 2794 1171 6E00     		.ascii	"n\000"
 2795 1173 01       		.byte	0x1
 2796 1174 5C       		.byte	0x5c
 2797 1175 2C000000 		.4byte	0x2c
 2798 1179 F5010000 		.4byte	.LLST2
 2799 117d 2E       		.uleb128 0x2e
 2800 117e 3C070000 		.4byte	.LASF191
 2801 1182 01       		.byte	0x1
 2802 1183 5C       		.byte	0x5c
 2803 1184 69010000 		.4byte	0x169
 2804 1188 16020000 		.4byte	.LLST3
 2805 118c 2A       		.uleb128 0x2a
 2806 118d 06000000 		.4byte	.LVL2
 2807 1191 C3140000 		.4byte	0x14c3
 2808 1195 27       		.uleb128 0x27
 2809 1196 01       		.uleb128 0x1
 2810 1197 50       		.byte	0x50
 2811 1198 05       		.uleb128 0x5
 2812 1199 F3       		.byte	0xf3
 2813 119a 01       		.uleb128 0x1
 2814 119b 50       		.byte	0x50
 2815 119c 23       		.byte	0x23
 2816 119d 0C       		.uleb128 0xc
 2817 119e 27       		.uleb128 0x27
 2818 119f 01       		.uleb128 0x1
 2819 11a0 51       		.byte	0x51
 2820 11a1 03       		.uleb128 0x3
 2821 11a2 F3       		.byte	0xf3
 2822 11a3 01       		.uleb128 0x1
 2823 11a4 51       		.byte	0x51
 2824 11a5 27       		.uleb128 0x27
 2825 11a6 01       		.uleb128 0x1
 2826 11a7 52       		.byte	0x52
 2827 11a8 03       		.uleb128 0x3
 2828 11a9 F3       		.byte	0xf3
 2829 11aa 01       		.uleb128 0x1
 2830 11ab 52       		.byte	0x52
 2831 11ac 27       		.uleb128 0x27
 2832 11ad 01       		.uleb128 0x1
 2833 11ae 53       		.byte	0x53
 2834 11af 03       		.uleb128 0x3
 2835 11b0 F3       		.byte	0xf3
 2836 11b1 01       		.uleb128 0x1
 2837 11b2 53       		.byte	0x53
 2838 11b3 00       		.byte	0
 2839 11b4 00       		.byte	0
 2840 11b5 30       		.uleb128 0x30
 2841 11b6 81000000 		.4byte	.LASF182
 2842 11ba 01       		.byte	0x1
 2843 11bb 57       		.byte	0x57
 2844 11bc 2C000000 		.4byte	0x2c
 2845 11c0 00000000 		.4byte	.LFB69
 2846 11c4 06000000 		.4byte	.LFE69-.LFB69
 2847 11c8 01       		.uleb128 0x1
 2848 11c9 9C       		.byte	0x9c
 2849 11ca 2F120000 		.4byte	0x122f
 2850 11ce 24       		.uleb128 0x24
ARM GAS  /tmp/ccn3cifU.s 			page 51


 2851 11cf 697000   		.ascii	"ip\000"
 2852 11d2 01       		.byte	0x1
 2853 11d3 57       		.byte	0x57
 2854 11d4 DE020000 		.4byte	0x2de
 2855 11d8 37020000 		.4byte	.LLST7
 2856 11dc 24       		.uleb128 0x24
 2857 11dd 627000   		.ascii	"bp\000"
 2858 11e0 01       		.byte	0x1
 2859 11e1 57       		.byte	0x57
 2860 11e2 AC070000 		.4byte	0x7ac
 2861 11e6 65020000 		.4byte	.LLST8
 2862 11ea 24       		.uleb128 0x24
 2863 11eb 6E00     		.ascii	"n\000"
 2864 11ed 01       		.byte	0x1
 2865 11ee 57       		.byte	0x57
 2866 11ef 2C000000 		.4byte	0x2c
 2867 11f3 86020000 		.4byte	.LLST9
 2868 11f7 2E       		.uleb128 0x2e
 2869 11f8 3C070000 		.4byte	.LASF191
 2870 11fc 01       		.byte	0x1
 2871 11fd 57       		.byte	0x57
 2872 11fe 69010000 		.4byte	0x169
 2873 1202 A7020000 		.4byte	.LLST10
 2874 1206 2A       		.uleb128 0x2a
 2875 1207 06000000 		.4byte	.LVL8
 2876 120b CF140000 		.4byte	0x14cf
 2877 120f 27       		.uleb128 0x27
 2878 1210 01       		.uleb128 0x1
 2879 1211 50       		.byte	0x50
 2880 1212 05       		.uleb128 0x5
 2881 1213 F3       		.byte	0xf3
 2882 1214 01       		.uleb128 0x1
 2883 1215 50       		.byte	0x50
 2884 1216 23       		.byte	0x23
 2885 1217 30       		.uleb128 0x30
 2886 1218 27       		.uleb128 0x27
 2887 1219 01       		.uleb128 0x1
 2888 121a 51       		.byte	0x51
 2889 121b 03       		.uleb128 0x3
 2890 121c F3       		.byte	0xf3
 2891 121d 01       		.uleb128 0x1
 2892 121e 51       		.byte	0x51
 2893 121f 27       		.uleb128 0x27
 2894 1220 01       		.uleb128 0x1
 2895 1221 52       		.byte	0x52
 2896 1222 03       		.uleb128 0x3
 2897 1223 F3       		.byte	0xf3
 2898 1224 01       		.uleb128 0x1
 2899 1225 52       		.byte	0x52
 2900 1226 27       		.uleb128 0x27
 2901 1227 01       		.uleb128 0x1
 2902 1228 53       		.byte	0x53
 2903 1229 03       		.uleb128 0x3
 2904 122a F3       		.byte	0xf3
 2905 122b 01       		.uleb128 0x1
 2906 122c 53       		.byte	0x53
 2907 122d 00       		.byte	0
ARM GAS  /tmp/ccn3cifU.s 			page 52


 2908 122e 00       		.byte	0
 2909 122f 30       		.uleb128 0x30
 2910 1230 F9020000 		.4byte	.LASF181
 2911 1234 01       		.byte	0x1
 2912 1235 52       		.byte	0x52
 2913 1236 48010000 		.4byte	0x148
 2914 123a 00000000 		.4byte	.LFB68
 2915 123e 06000000 		.4byte	.LFE68-.LFB68
 2916 1242 01       		.uleb128 0x1
 2917 1243 9C       		.byte	0x9c
 2918 1244 80120000 		.4byte	0x1280
 2919 1248 24       		.uleb128 0x24
 2920 1249 697000   		.ascii	"ip\000"
 2921 124c 01       		.byte	0x1
 2922 124d 52       		.byte	0x52
 2923 124e DE020000 		.4byte	0x2de
 2924 1252 C8020000 		.4byte	.LLST14
 2925 1256 2E       		.uleb128 0x2e
 2926 1257 AF040000 		.4byte	.LASF192
 2927 125b 01       		.byte	0x1
 2928 125c 52       		.byte	0x52
 2929 125d 69010000 		.4byte	0x169
 2930 1261 F6020000 		.4byte	.LLST15
 2931 1265 2A       		.uleb128 0x2a
 2932 1266 06000000 		.4byte	.LVL14
 2933 126a DB140000 		.4byte	0x14db
 2934 126e 27       		.uleb128 0x27
 2935 126f 01       		.uleb128 0x1
 2936 1270 50       		.byte	0x50
 2937 1271 05       		.uleb128 0x5
 2938 1272 F3       		.byte	0xf3
 2939 1273 01       		.uleb128 0x1
 2940 1274 50       		.byte	0x50
 2941 1275 23       		.byte	0x23
 2942 1276 0C       		.uleb128 0xc
 2943 1277 27       		.uleb128 0x27
 2944 1278 01       		.uleb128 0x1
 2945 1279 51       		.byte	0x51
 2946 127a 03       		.uleb128 0x3
 2947 127b F3       		.byte	0xf3
 2948 127c 01       		.uleb128 0x1
 2949 127d 51       		.byte	0x51
 2950 127e 00       		.byte	0
 2951 127f 00       		.byte	0
 2952 1280 30       		.uleb128 0x30
 2953 1281 F6000000 		.4byte	.LASF180
 2954 1285 01       		.byte	0x1
 2955 1286 4D       		.byte	0x4d
 2956 1287 48010000 		.4byte	0x148
 2957 128b 00000000 		.4byte	.LFB67
 2958 128f 06000000 		.4byte	.LFE67-.LFB67
 2959 1293 01       		.uleb128 0x1
 2960 1294 9C       		.byte	0x9c
 2961 1295 DE120000 		.4byte	0x12de
 2962 1299 24       		.uleb128 0x24
 2963 129a 697000   		.ascii	"ip\000"
 2964 129d 01       		.byte	0x1
ARM GAS  /tmp/ccn3cifU.s 			page 53


 2965 129e 4D       		.byte	0x4d
 2966 129f DE020000 		.4byte	0x2de
 2967 12a3 17030000 		.4byte	.LLST17
 2968 12a7 24       		.uleb128 0x24
 2969 12a8 6200     		.ascii	"b\000"
 2970 12aa 01       		.byte	0x1
 2971 12ab 4D       		.byte	0x4d
 2972 12ac B4000000 		.4byte	0xb4
 2973 12b0 45030000 		.4byte	.LLST18
 2974 12b4 2E       		.uleb128 0x2e
 2975 12b5 AF040000 		.4byte	.LASF192
 2976 12b9 01       		.byte	0x1
 2977 12ba 4D       		.byte	0x4d
 2978 12bb 69010000 		.4byte	0x169
 2979 12bf 66030000 		.4byte	.LLST19
 2980 12c3 2A       		.uleb128 0x2a
 2981 12c4 06000000 		.4byte	.LVL20
 2982 12c8 E7140000 		.4byte	0x14e7
 2983 12cc 27       		.uleb128 0x27
 2984 12cd 01       		.uleb128 0x1
 2985 12ce 50       		.byte	0x50
 2986 12cf 05       		.uleb128 0x5
 2987 12d0 F3       		.byte	0xf3
 2988 12d1 01       		.uleb128 0x1
 2989 12d2 50       		.byte	0x50
 2990 12d3 23       		.byte	0x23
 2991 12d4 30       		.uleb128 0x30
 2992 12d5 27       		.uleb128 0x27
 2993 12d6 01       		.uleb128 0x1
 2994 12d7 52       		.byte	0x52
 2995 12d8 03       		.uleb128 0x3
 2996 12d9 F3       		.byte	0xf3
 2997 12da 01       		.uleb128 0x1
 2998 12db 52       		.byte	0x52
 2999 12dc 00       		.byte	0
 3000 12dd 00       		.byte	0
 3001 12de 31       		.uleb128 0x31
 3002 12df 67657400 		.ascii	"get\000"
 3003 12e3 01       		.byte	0x1
 3004 12e4 48       		.byte	0x48
 3005 12e5 48010000 		.4byte	0x148
 3006 12e9 00000000 		.4byte	.LFB66
 3007 12ed 0A000000 		.4byte	.LFE66-.LFB66
 3008 12f1 01       		.uleb128 0x1
 3009 12f2 9C       		.byte	0x9c
 3010 12f3 1F130000 		.4byte	0x131f
 3011 12f7 24       		.uleb128 0x24
 3012 12f8 697000   		.ascii	"ip\000"
 3013 12fb 01       		.byte	0x1
 3014 12fc 48       		.byte	0x48
 3015 12fd DE020000 		.4byte	0x2de
 3016 1301 87030000 		.4byte	.LLST16
 3017 1305 2A       		.uleb128 0x2a
 3018 1306 0A000000 		.4byte	.LVL17
 3019 130a DB140000 		.4byte	0x14db
 3020 130e 27       		.uleb128 0x27
 3021 130f 01       		.uleb128 0x1
ARM GAS  /tmp/ccn3cifU.s 			page 54


 3022 1310 50       		.byte	0x50
 3023 1311 05       		.uleb128 0x5
 3024 1312 F3       		.byte	0xf3
 3025 1313 01       		.uleb128 0x1
 3026 1314 50       		.byte	0x50
 3027 1315 23       		.byte	0x23
 3028 1316 0C       		.uleb128 0xc
 3029 1317 27       		.uleb128 0x27
 3030 1318 01       		.uleb128 0x1
 3031 1319 51       		.byte	0x51
 3032 131a 02       		.uleb128 0x2
 3033 131b 09       		.byte	0x9
 3034 131c FF       		.byte	0xff
 3035 131d 00       		.byte	0
 3036 131e 00       		.byte	0
 3037 131f 31       		.uleb128 0x31
 3038 1320 70757400 		.ascii	"put\000"
 3039 1324 01       		.byte	0x1
 3040 1325 43       		.byte	0x43
 3041 1326 48010000 		.4byte	0x148
 3042 132a 00000000 		.4byte	.LFB65
 3043 132e 0A000000 		.4byte	.LFE65-.LFB65
 3044 1332 01       		.uleb128 0x1
 3045 1333 9C       		.byte	0x9c
 3046 1334 6D130000 		.4byte	0x136d
 3047 1338 24       		.uleb128 0x24
 3048 1339 697000   		.ascii	"ip\000"
 3049 133c 01       		.byte	0x1
 3050 133d 43       		.byte	0x43
 3051 133e DE020000 		.4byte	0x2de
 3052 1342 B5030000 		.4byte	.LLST20
 3053 1346 24       		.uleb128 0x24
 3054 1347 6200     		.ascii	"b\000"
 3055 1349 01       		.byte	0x1
 3056 134a 43       		.byte	0x43
 3057 134b B4000000 		.4byte	0xb4
 3058 134f E3030000 		.4byte	.LLST21
 3059 1353 2A       		.uleb128 0x2a
 3060 1354 0A000000 		.4byte	.LVL23
 3061 1358 E7140000 		.4byte	0x14e7
 3062 135c 27       		.uleb128 0x27
 3063 135d 01       		.uleb128 0x1
 3064 135e 50       		.byte	0x50
 3065 135f 05       		.uleb128 0x5
 3066 1360 F3       		.byte	0xf3
 3067 1361 01       		.uleb128 0x1
 3068 1362 50       		.byte	0x50
 3069 1363 23       		.byte	0x23
 3070 1364 30       		.uleb128 0x30
 3071 1365 27       		.uleb128 0x27
 3072 1366 01       		.uleb128 0x1
 3073 1367 52       		.byte	0x52
 3074 1368 02       		.uleb128 0x2
 3075 1369 09       		.byte	0x9
 3076 136a FF       		.byte	0xff
 3077 136b 00       		.byte	0
 3078 136c 00       		.byte	0
ARM GAS  /tmp/ccn3cifU.s 			page 55


 3079 136d 30       		.uleb128 0x30
 3080 136e E5040000 		.4byte	.LASF179
 3081 1372 01       		.byte	0x1
 3082 1373 3D       		.byte	0x3d
 3083 1374 2C000000 		.4byte	0x2c
 3084 1378 00000000 		.4byte	.LFB64
 3085 137c 0A000000 		.4byte	.LFE64-.LFB64
 3086 1380 01       		.uleb128 0x1
 3087 1381 9C       		.byte	0x9c
 3088 1382 D7130000 		.4byte	0x13d7
 3089 1386 24       		.uleb128 0x24
 3090 1387 697000   		.ascii	"ip\000"
 3091 138a 01       		.byte	0x1
 3092 138b 3D       		.byte	0x3d
 3093 138c DE020000 		.4byte	0x2de
 3094 1390 04040000 		.4byte	.LLST4
 3095 1394 24       		.uleb128 0x24
 3096 1395 627000   		.ascii	"bp\000"
 3097 1398 01       		.byte	0x1
 3098 1399 3D       		.byte	0x3d
 3099 139a 77070000 		.4byte	0x777
 3100 139e 32040000 		.4byte	.LLST5
 3101 13a2 24       		.uleb128 0x24
 3102 13a3 6E00     		.ascii	"n\000"
 3103 13a5 01       		.byte	0x1
 3104 13a6 3D       		.byte	0x3d
 3105 13a7 2C000000 		.4byte	0x2c
 3106 13ab 53040000 		.4byte	.LLST6
 3107 13af 2A       		.uleb128 0x2a
 3108 13b0 0A000000 		.4byte	.LVL5
 3109 13b4 C3140000 		.4byte	0x14c3
 3110 13b8 27       		.uleb128 0x27
 3111 13b9 01       		.uleb128 0x1
 3112 13ba 50       		.byte	0x50
 3113 13bb 05       		.uleb128 0x5
 3114 13bc F3       		.byte	0xf3
 3115 13bd 01       		.uleb128 0x1
 3116 13be 50       		.byte	0x50
 3117 13bf 23       		.byte	0x23
 3118 13c0 0C       		.uleb128 0xc
 3119 13c1 27       		.uleb128 0x27
 3120 13c2 01       		.uleb128 0x1
 3121 13c3 51       		.byte	0x51
 3122 13c4 03       		.uleb128 0x3
 3123 13c5 F3       		.byte	0xf3
 3124 13c6 01       		.uleb128 0x1
 3125 13c7 51       		.byte	0x51
 3126 13c8 27       		.uleb128 0x27
 3127 13c9 01       		.uleb128 0x1
 3128 13ca 52       		.byte	0x52
 3129 13cb 03       		.uleb128 0x3
 3130 13cc F3       		.byte	0xf3
 3131 13cd 01       		.uleb128 0x1
 3132 13ce 52       		.byte	0x52
 3133 13cf 27       		.uleb128 0x27
 3134 13d0 01       		.uleb128 0x1
 3135 13d1 53       		.byte	0x53
ARM GAS  /tmp/ccn3cifU.s 			page 56


 3136 13d2 02       		.uleb128 0x2
 3137 13d3 09       		.byte	0x9
 3138 13d4 FF       		.byte	0xff
 3139 13d5 00       		.byte	0
 3140 13d6 00       		.byte	0
 3141 13d7 30       		.uleb128 0x30
 3142 13d8 CA000000 		.4byte	.LASF178
 3143 13dc 01       		.byte	0x1
 3144 13dd 37       		.byte	0x37
 3145 13de 2C000000 		.4byte	0x2c
 3146 13e2 00000000 		.4byte	.LFB63
 3147 13e6 0A000000 		.4byte	.LFE63-.LFB63
 3148 13ea 01       		.uleb128 0x1
 3149 13eb 9C       		.byte	0x9c
 3150 13ec 41140000 		.4byte	0x1441
 3151 13f0 24       		.uleb128 0x24
 3152 13f1 697000   		.ascii	"ip\000"
 3153 13f4 01       		.byte	0x1
 3154 13f5 37       		.byte	0x37
 3155 13f6 DE020000 		.4byte	0x2de
 3156 13fa 74040000 		.4byte	.LLST11
 3157 13fe 24       		.uleb128 0x24
 3158 13ff 627000   		.ascii	"bp\000"
 3159 1402 01       		.byte	0x1
 3160 1403 37       		.byte	0x37
 3161 1404 AC070000 		.4byte	0x7ac
 3162 1408 A2040000 		.4byte	.LLST12
 3163 140c 24       		.uleb128 0x24
 3164 140d 6E00     		.ascii	"n\000"
 3165 140f 01       		.byte	0x1
 3166 1410 37       		.byte	0x37
 3167 1411 2C000000 		.4byte	0x2c
 3168 1415 C3040000 		.4byte	.LLST13
 3169 1419 2A       		.uleb128 0x2a
 3170 141a 0A000000 		.4byte	.LVL11
 3171 141e CF140000 		.4byte	0x14cf
 3172 1422 27       		.uleb128 0x27
 3173 1423 01       		.uleb128 0x1
 3174 1424 50       		.byte	0x50
 3175 1425 05       		.uleb128 0x5
 3176 1426 F3       		.byte	0xf3
 3177 1427 01       		.uleb128 0x1
 3178 1428 50       		.byte	0x50
 3179 1429 23       		.byte	0x23
 3180 142a 30       		.uleb128 0x30
 3181 142b 27       		.uleb128 0x27
 3182 142c 01       		.uleb128 0x1
 3183 142d 51       		.byte	0x51
 3184 142e 03       		.uleb128 0x3
 3185 142f F3       		.byte	0xf3
 3186 1430 01       		.uleb128 0x1
 3187 1431 51       		.byte	0x51
 3188 1432 27       		.uleb128 0x27
 3189 1433 01       		.uleb128 0x1
 3190 1434 52       		.byte	0x52
 3191 1435 03       		.uleb128 0x3
 3192 1436 F3       		.byte	0xf3
ARM GAS  /tmp/ccn3cifU.s 			page 57


 3193 1437 01       		.uleb128 0x1
 3194 1438 52       		.byte	0x52
 3195 1439 27       		.uleb128 0x27
 3196 143a 01       		.uleb128 0x1
 3197 143b 53       		.byte	0x53
 3198 143c 02       		.uleb128 0x2
 3199 143d 09       		.byte	0x9
 3200 143e FF       		.byte	0xff
 3201 143f 00       		.byte	0
 3202 1440 00       		.byte	0
 3203 1441 32       		.uleb128 0x32
 3204 1442 22050000 		.4byte	.LASF193
 3205 1446 22050000 		.4byte	.LASF193
 3206 144a 0E       		.byte	0xe
 3207 144b 6701     		.2byte	0x167
 3208 144d 33       		.uleb128 0x33
 3209 144e 10060000 		.4byte	.LASF194
 3210 1452 10060000 		.4byte	.LASF194
 3211 1456 0C       		.byte	0xc
 3212 1457 B3       		.byte	0xb3
 3213 1458 32       		.uleb128 0x32
 3214 1459 21030000 		.4byte	.LASF195
 3215 145d 21030000 		.4byte	.LASF195
 3216 1461 0E       		.byte	0xe
 3217 1462 5E01     		.2byte	0x15e
 3218 1464 32       		.uleb128 0x32
 3219 1465 8C080000 		.4byte	.LASF196
 3220 1469 8C080000 		.4byte	.LASF196
 3221 146d 18       		.byte	0x18
 3222 146e 0301     		.2byte	0x103
 3223 1470 32       		.uleb128 0x32
 3224 1471 2D080000 		.4byte	.LASF197
 3225 1475 2D080000 		.4byte	.LASF197
 3226 1479 0E       		.byte	0xe
 3227 147a 6501     		.2byte	0x165
 3228 147c 32       		.uleb128 0x32
 3229 147d 1C070000 		.4byte	.LASF198
 3230 1481 1C070000 		.4byte	.LASF198
 3231 1485 0E       		.byte	0xe
 3232 1486 5D01     		.2byte	0x15d
 3233 1488 33       		.uleb128 0x33
 3234 1489 A1070000 		.4byte	.LASF199
 3235 148d A1070000 		.4byte	.LASF199
 3236 1491 0A       		.byte	0xa
 3237 1492 95       		.byte	0x95
 3238 1493 32       		.uleb128 0x32
 3239 1494 5C010000 		.4byte	.LASF200
 3240 1498 5C010000 		.4byte	.LASF200
 3241 149c 18       		.byte	0x18
 3242 149d 0201     		.2byte	0x102
 3243 149f 32       		.uleb128 0x32
 3244 14a0 9C000000 		.4byte	.LASF201
 3245 14a4 9C000000 		.4byte	.LASF201
 3246 14a8 0E       		.byte	0xe
 3247 14a9 5B01     		.2byte	0x15b
 3248 14ab 32       		.uleb128 0x32
 3249 14ac 25060000 		.4byte	.LASF202
ARM GAS  /tmp/ccn3cifU.s 			page 58


 3250 14b0 25060000 		.4byte	.LASF202
 3251 14b4 0E       		.byte	0xe
 3252 14b5 6301     		.2byte	0x163
 3253 14b7 32       		.uleb128 0x32
 3254 14b8 0F040000 		.4byte	.LASF203
 3255 14bc 0F040000 		.4byte	.LASF203
 3256 14c0 18       		.byte	0x18
 3257 14c1 0101     		.2byte	0x101
 3258 14c3 32       		.uleb128 0x32
 3259 14c4 34000000 		.4byte	.LASF204
 3260 14c8 34000000 		.4byte	.LASF204
 3261 14cc 0E       		.byte	0xe
 3262 14cd 6001     		.2byte	0x160
 3263 14cf 32       		.uleb128 0x32
 3264 14d0 A5000000 		.4byte	.LASF205
 3265 14d4 A5000000 		.4byte	.LASF205
 3266 14d8 0E       		.byte	0xe
 3267 14d9 6801     		.2byte	0x168
 3268 14db 32       		.uleb128 0x32
 3269 14dc AC020000 		.4byte	.LASF206
 3270 14e0 AC020000 		.4byte	.LASF206
 3271 14e4 0E       		.byte	0xe
 3272 14e5 5F01     		.2byte	0x15f
 3273 14e7 32       		.uleb128 0x32
 3274 14e8 AA030000 		.4byte	.LASF207
 3275 14ec AA030000 		.4byte	.LASF207
 3276 14f0 0E       		.byte	0xe
 3277 14f1 6601     		.2byte	0x166
 3278 14f3 00       		.byte	0
 3279              		.section	.debug_abbrev,"",%progbits
 3280              	.Ldebug_abbrev0:
 3281 0000 01       		.uleb128 0x1
 3282 0001 11       		.uleb128 0x11
 3283 0002 01       		.byte	0x1
 3284 0003 25       		.uleb128 0x25
 3285 0004 0E       		.uleb128 0xe
 3286 0005 13       		.uleb128 0x13
 3287 0006 0B       		.uleb128 0xb
 3288 0007 03       		.uleb128 0x3
 3289 0008 0E       		.uleb128 0xe
 3290 0009 1B       		.uleb128 0x1b
 3291 000a 0E       		.uleb128 0xe
 3292 000b 55       		.uleb128 0x55
 3293 000c 17       		.uleb128 0x17
 3294 000d 11       		.uleb128 0x11
 3295 000e 01       		.uleb128 0x1
 3296 000f 10       		.uleb128 0x10
 3297 0010 17       		.uleb128 0x17
 3298 0011 00       		.byte	0
 3299 0012 00       		.byte	0
 3300 0013 02       		.uleb128 0x2
 3301 0014 24       		.uleb128 0x24
 3302 0015 00       		.byte	0
 3303 0016 0B       		.uleb128 0xb
 3304 0017 0B       		.uleb128 0xb
 3305 0018 3E       		.uleb128 0x3e
 3306 0019 0B       		.uleb128 0xb
ARM GAS  /tmp/ccn3cifU.s 			page 59


 3307 001a 03       		.uleb128 0x3
 3308 001b 08       		.uleb128 0x8
 3309 001c 00       		.byte	0
 3310 001d 00       		.byte	0
 3311 001e 03       		.uleb128 0x3
 3312 001f 16       		.uleb128 0x16
 3313 0020 00       		.byte	0
 3314 0021 03       		.uleb128 0x3
 3315 0022 0E       		.uleb128 0xe
 3316 0023 3A       		.uleb128 0x3a
 3317 0024 0B       		.uleb128 0xb
 3318 0025 3B       		.uleb128 0x3b
 3319 0026 0B       		.uleb128 0xb
 3320 0027 49       		.uleb128 0x49
 3321 0028 13       		.uleb128 0x13
 3322 0029 00       		.byte	0
 3323 002a 00       		.byte	0
 3324 002b 04       		.uleb128 0x4
 3325 002c 24       		.uleb128 0x24
 3326 002d 00       		.byte	0
 3327 002e 0B       		.uleb128 0xb
 3328 002f 0B       		.uleb128 0xb
 3329 0030 3E       		.uleb128 0x3e
 3330 0031 0B       		.uleb128 0xb
 3331 0032 03       		.uleb128 0x3
 3332 0033 0E       		.uleb128 0xe
 3333 0034 00       		.byte	0
 3334 0035 00       		.byte	0
 3335 0036 05       		.uleb128 0x5
 3336 0037 26       		.uleb128 0x26
 3337 0038 00       		.byte	0
 3338 0039 49       		.uleb128 0x49
 3339 003a 13       		.uleb128 0x13
 3340 003b 00       		.byte	0
 3341 003c 00       		.byte	0
 3342 003d 06       		.uleb128 0x6
 3343 003e 35       		.uleb128 0x35
 3344 003f 00       		.byte	0
 3345 0040 49       		.uleb128 0x49
 3346 0041 13       		.uleb128 0x13
 3347 0042 00       		.byte	0
 3348 0043 00       		.byte	0
 3349 0044 07       		.uleb128 0x7
 3350 0045 13       		.uleb128 0x13
 3351 0046 01       		.byte	0x1
 3352 0047 03       		.uleb128 0x3
 3353 0048 0E       		.uleb128 0xe
 3354 0049 0B       		.uleb128 0xb
 3355 004a 0B       		.uleb128 0xb
 3356 004b 3A       		.uleb128 0x3a
 3357 004c 0B       		.uleb128 0xb
 3358 004d 3B       		.uleb128 0x3b
 3359 004e 0B       		.uleb128 0xb
 3360 004f 01       		.uleb128 0x1
 3361 0050 13       		.uleb128 0x13
 3362 0051 00       		.byte	0
 3363 0052 00       		.byte	0
ARM GAS  /tmp/ccn3cifU.s 			page 60


 3364 0053 08       		.uleb128 0x8
 3365 0054 0D       		.uleb128 0xd
 3366 0055 00       		.byte	0
 3367 0056 03       		.uleb128 0x3
 3368 0057 0E       		.uleb128 0xe
 3369 0058 3A       		.uleb128 0x3a
 3370 0059 0B       		.uleb128 0xb
 3371 005a 3B       		.uleb128 0x3b
 3372 005b 0B       		.uleb128 0xb
 3373 005c 49       		.uleb128 0x49
 3374 005d 13       		.uleb128 0x13
 3375 005e 38       		.uleb128 0x38
 3376 005f 0B       		.uleb128 0xb
 3377 0060 00       		.byte	0
 3378 0061 00       		.byte	0
 3379 0062 09       		.uleb128 0x9
 3380 0063 0D       		.uleb128 0xd
 3381 0064 00       		.byte	0
 3382 0065 03       		.uleb128 0x3
 3383 0066 08       		.uleb128 0x8
 3384 0067 3A       		.uleb128 0x3a
 3385 0068 0B       		.uleb128 0xb
 3386 0069 3B       		.uleb128 0x3b
 3387 006a 0B       		.uleb128 0xb
 3388 006b 49       		.uleb128 0x49
 3389 006c 13       		.uleb128 0x13
 3390 006d 38       		.uleb128 0x38
 3391 006e 0B       		.uleb128 0xb
 3392 006f 00       		.byte	0
 3393 0070 00       		.byte	0
 3394 0071 0A       		.uleb128 0xa
 3395 0072 13       		.uleb128 0x13
 3396 0073 01       		.byte	0x1
 3397 0074 0B       		.uleb128 0xb
 3398 0075 0B       		.uleb128 0xb
 3399 0076 3A       		.uleb128 0x3a
 3400 0077 0B       		.uleb128 0xb
 3401 0078 3B       		.uleb128 0x3b
 3402 0079 0B       		.uleb128 0xb
 3403 007a 01       		.uleb128 0x1
 3404 007b 13       		.uleb128 0x13
 3405 007c 00       		.byte	0
 3406 007d 00       		.byte	0
 3407 007e 0B       		.uleb128 0xb
 3408 007f 0F       		.uleb128 0xf
 3409 0080 00       		.byte	0
 3410 0081 0B       		.uleb128 0xb
 3411 0082 0B       		.uleb128 0xb
 3412 0083 49       		.uleb128 0x49
 3413 0084 13       		.uleb128 0x13
 3414 0085 00       		.byte	0
 3415 0086 00       		.byte	0
 3416 0087 0C       		.uleb128 0xc
 3417 0088 0F       		.uleb128 0xf
 3418 0089 00       		.byte	0
 3419 008a 0B       		.uleb128 0xb
 3420 008b 0B       		.uleb128 0xb
ARM GAS  /tmp/ccn3cifU.s 			page 61


 3421 008c 00       		.byte	0
 3422 008d 00       		.byte	0
 3423 008e 0D       		.uleb128 0xd
 3424 008f 13       		.uleb128 0x13
 3425 0090 01       		.byte	0x1
 3426 0091 03       		.uleb128 0x3
 3427 0092 0E       		.uleb128 0xe
 3428 0093 0B       		.uleb128 0xb
 3429 0094 0B       		.uleb128 0xb
 3430 0095 3A       		.uleb128 0x3a
 3431 0096 0B       		.uleb128 0xb
 3432 0097 3B       		.uleb128 0x3b
 3433 0098 05       		.uleb128 0x5
 3434 0099 01       		.uleb128 0x1
 3435 009a 13       		.uleb128 0x13
 3436 009b 00       		.byte	0
 3437 009c 00       		.byte	0
 3438 009d 0E       		.uleb128 0xe
 3439 009e 0D       		.uleb128 0xd
 3440 009f 00       		.byte	0
 3441 00a0 03       		.uleb128 0x3
 3442 00a1 08       		.uleb128 0x8
 3443 00a2 3A       		.uleb128 0x3a
 3444 00a3 0B       		.uleb128 0xb
 3445 00a4 3B       		.uleb128 0x3b
 3446 00a5 05       		.uleb128 0x5
 3447 00a6 49       		.uleb128 0x49
 3448 00a7 13       		.uleb128 0x13
 3449 00a8 38       		.uleb128 0x38
 3450 00a9 0B       		.uleb128 0xb
 3451 00aa 00       		.byte	0
 3452 00ab 00       		.byte	0
 3453 00ac 0F       		.uleb128 0xf
 3454 00ad 15       		.uleb128 0x15
 3455 00ae 01       		.byte	0x1
 3456 00af 27       		.uleb128 0x27
 3457 00b0 19       		.uleb128 0x19
 3458 00b1 01       		.uleb128 0x1
 3459 00b2 13       		.uleb128 0x13
 3460 00b3 00       		.byte	0
 3461 00b4 00       		.byte	0
 3462 00b5 10       		.uleb128 0x10
 3463 00b6 05       		.uleb128 0x5
 3464 00b7 00       		.byte	0
 3465 00b8 49       		.uleb128 0x49
 3466 00b9 13       		.uleb128 0x13
 3467 00ba 00       		.byte	0
 3468 00bb 00       		.byte	0
 3469 00bc 11       		.uleb128 0x11
 3470 00bd 34       		.uleb128 0x34
 3471 00be 00       		.byte	0
 3472 00bf 03       		.uleb128 0x3
 3473 00c0 0E       		.uleb128 0xe
 3474 00c1 3A       		.uleb128 0x3a
 3475 00c2 0B       		.uleb128 0xb
 3476 00c3 3B       		.uleb128 0x3b
 3477 00c4 0B       		.uleb128 0xb
ARM GAS  /tmp/ccn3cifU.s 			page 62


 3478 00c5 49       		.uleb128 0x49
 3479 00c6 13       		.uleb128 0x13
 3480 00c7 3F       		.uleb128 0x3f
 3481 00c8 19       		.uleb128 0x19
 3482 00c9 3C       		.uleb128 0x3c
 3483 00ca 19       		.uleb128 0x19
 3484 00cb 00       		.byte	0
 3485 00cc 00       		.byte	0
 3486 00cd 12       		.uleb128 0x12
 3487 00ce 17       		.uleb128 0x17
 3488 00cf 01       		.byte	0x1
 3489 00d0 0B       		.uleb128 0xb
 3490 00d1 0B       		.uleb128 0xb
 3491 00d2 3A       		.uleb128 0x3a
 3492 00d3 0B       		.uleb128 0xb
 3493 00d4 3B       		.uleb128 0x3b
 3494 00d5 0B       		.uleb128 0xb
 3495 00d6 01       		.uleb128 0x1
 3496 00d7 13       		.uleb128 0x13
 3497 00d8 00       		.byte	0
 3498 00d9 00       		.byte	0
 3499 00da 13       		.uleb128 0x13
 3500 00db 0D       		.uleb128 0xd
 3501 00dc 00       		.byte	0
 3502 00dd 03       		.uleb128 0x3
 3503 00de 0E       		.uleb128 0xe
 3504 00df 3A       		.uleb128 0x3a
 3505 00e0 0B       		.uleb128 0xb
 3506 00e1 3B       		.uleb128 0x3b
 3507 00e2 0B       		.uleb128 0xb
 3508 00e3 49       		.uleb128 0x49
 3509 00e4 13       		.uleb128 0x13
 3510 00e5 00       		.byte	0
 3511 00e6 00       		.byte	0
 3512 00e7 14       		.uleb128 0x14
 3513 00e8 15       		.uleb128 0x15
 3514 00e9 01       		.byte	0x1
 3515 00ea 27       		.uleb128 0x27
 3516 00eb 19       		.uleb128 0x19
 3517 00ec 49       		.uleb128 0x49
 3518 00ed 13       		.uleb128 0x13
 3519 00ee 01       		.uleb128 0x1
 3520 00ef 13       		.uleb128 0x13
 3521 00f0 00       		.byte	0
 3522 00f1 00       		.byte	0
 3523 00f2 15       		.uleb128 0x15
 3524 00f3 01       		.uleb128 0x1
 3525 00f4 01       		.byte	0x1
 3526 00f5 49       		.uleb128 0x49
 3527 00f6 13       		.uleb128 0x13
 3528 00f7 01       		.uleb128 0x1
 3529 00f8 13       		.uleb128 0x13
 3530 00f9 00       		.byte	0
 3531 00fa 00       		.byte	0
 3532 00fb 16       		.uleb128 0x16
 3533 00fc 21       		.uleb128 0x21
 3534 00fd 00       		.byte	0
ARM GAS  /tmp/ccn3cifU.s 			page 63


 3535 00fe 49       		.uleb128 0x49
 3536 00ff 13       		.uleb128 0x13
 3537 0100 2F       		.uleb128 0x2f
 3538 0101 0B       		.uleb128 0xb
 3539 0102 00       		.byte	0
 3540 0103 00       		.byte	0
 3541 0104 17       		.uleb128 0x17
 3542 0105 34       		.uleb128 0x34
 3543 0106 00       		.byte	0
 3544 0107 03       		.uleb128 0x3
 3545 0108 0E       		.uleb128 0xe
 3546 0109 3A       		.uleb128 0x3a
 3547 010a 0B       		.uleb128 0xb
 3548 010b 3B       		.uleb128 0x3b
 3549 010c 05       		.uleb128 0x5
 3550 010d 49       		.uleb128 0x49
 3551 010e 13       		.uleb128 0x13
 3552 010f 3F       		.uleb128 0x3f
 3553 0110 19       		.uleb128 0x19
 3554 0111 3C       		.uleb128 0x3c
 3555 0112 19       		.uleb128 0x19
 3556 0113 00       		.byte	0
 3557 0114 00       		.byte	0
 3558 0115 18       		.uleb128 0x18
 3559 0116 13       		.uleb128 0x13
 3560 0117 01       		.byte	0x1
 3561 0118 0B       		.uleb128 0xb
 3562 0119 0B       		.uleb128 0xb
 3563 011a 3A       		.uleb128 0x3a
 3564 011b 0B       		.uleb128 0xb
 3565 011c 3B       		.uleb128 0x3b
 3566 011d 05       		.uleb128 0x5
 3567 011e 01       		.uleb128 0x1
 3568 011f 13       		.uleb128 0x13
 3569 0120 00       		.byte	0
 3570 0121 00       		.byte	0
 3571 0122 19       		.uleb128 0x19
 3572 0123 0D       		.uleb128 0xd
 3573 0124 00       		.byte	0
 3574 0125 03       		.uleb128 0x3
 3575 0126 0E       		.uleb128 0xe
 3576 0127 3A       		.uleb128 0x3a
 3577 0128 0B       		.uleb128 0xb
 3578 0129 3B       		.uleb128 0x3b
 3579 012a 05       		.uleb128 0x5
 3580 012b 49       		.uleb128 0x49
 3581 012c 13       		.uleb128 0x13
 3582 012d 38       		.uleb128 0x38
 3583 012e 0B       		.uleb128 0xb
 3584 012f 00       		.byte	0
 3585 0130 00       		.byte	0
 3586 0131 1A       		.uleb128 0x1a
 3587 0132 16       		.uleb128 0x16
 3588 0133 00       		.byte	0
 3589 0134 03       		.uleb128 0x3
 3590 0135 0E       		.uleb128 0xe
 3591 0136 3A       		.uleb128 0x3a
ARM GAS  /tmp/ccn3cifU.s 			page 64


 3592 0137 0B       		.uleb128 0xb
 3593 0138 3B       		.uleb128 0x3b
 3594 0139 05       		.uleb128 0x5
 3595 013a 49       		.uleb128 0x49
 3596 013b 13       		.uleb128 0x13
 3597 013c 00       		.byte	0
 3598 013d 00       		.byte	0
 3599 013e 1B       		.uleb128 0x1b
 3600 013f 17       		.uleb128 0x17
 3601 0140 01       		.byte	0x1
 3602 0141 0B       		.uleb128 0xb
 3603 0142 0B       		.uleb128 0xb
 3604 0143 3A       		.uleb128 0x3a
 3605 0144 0B       		.uleb128 0xb
 3606 0145 3B       		.uleb128 0x3b
 3607 0146 05       		.uleb128 0x5
 3608 0147 01       		.uleb128 0x1
 3609 0148 13       		.uleb128 0x13
 3610 0149 00       		.byte	0
 3611 014a 00       		.byte	0
 3612 014b 1C       		.uleb128 0x1c
 3613 014c 0D       		.uleb128 0xd
 3614 014d 00       		.byte	0
 3615 014e 03       		.uleb128 0x3
 3616 014f 08       		.uleb128 0x8
 3617 0150 3A       		.uleb128 0x3a
 3618 0151 0B       		.uleb128 0xb
 3619 0152 3B       		.uleb128 0x3b
 3620 0153 05       		.uleb128 0x5
 3621 0154 49       		.uleb128 0x49
 3622 0155 13       		.uleb128 0x13
 3623 0156 00       		.byte	0
 3624 0157 00       		.byte	0
 3625 0158 1D       		.uleb128 0x1d
 3626 0159 0D       		.uleb128 0xd
 3627 015a 00       		.byte	0
 3628 015b 49       		.uleb128 0x49
 3629 015c 13       		.uleb128 0x13
 3630 015d 38       		.uleb128 0x38
 3631 015e 0B       		.uleb128 0xb
 3632 015f 00       		.byte	0
 3633 0160 00       		.byte	0
 3634 0161 1E       		.uleb128 0x1e
 3635 0162 21       		.uleb128 0x21
 3636 0163 00       		.byte	0
 3637 0164 00       		.byte	0
 3638 0165 00       		.byte	0
 3639 0166 1F       		.uleb128 0x1f
 3640 0167 04       		.uleb128 0x4
 3641 0168 01       		.byte	0x1
 3642 0169 0B       		.uleb128 0xb
 3643 016a 0B       		.uleb128 0xb
 3644 016b 49       		.uleb128 0x49
 3645 016c 13       		.uleb128 0x13
 3646 016d 3A       		.uleb128 0x3a
 3647 016e 0B       		.uleb128 0xb
 3648 016f 3B       		.uleb128 0x3b
ARM GAS  /tmp/ccn3cifU.s 			page 65


 3649 0170 0B       		.uleb128 0xb
 3650 0171 01       		.uleb128 0x1
 3651 0172 13       		.uleb128 0x13
 3652 0173 00       		.byte	0
 3653 0174 00       		.byte	0
 3654 0175 20       		.uleb128 0x20
 3655 0176 28       		.uleb128 0x28
 3656 0177 00       		.byte	0
 3657 0178 03       		.uleb128 0x3
 3658 0179 0E       		.uleb128 0xe
 3659 017a 1C       		.uleb128 0x1c
 3660 017b 0B       		.uleb128 0xb
 3661 017c 00       		.byte	0
 3662 017d 00       		.byte	0
 3663 017e 21       		.uleb128 0x21
 3664 017f 34       		.uleb128 0x34
 3665 0180 00       		.byte	0
 3666 0181 03       		.uleb128 0x3
 3667 0182 08       		.uleb128 0x8
 3668 0183 3A       		.uleb128 0x3a
 3669 0184 0B       		.uleb128 0xb
 3670 0185 3B       		.uleb128 0x3b
 3671 0186 0B       		.uleb128 0xb
 3672 0187 49       		.uleb128 0x49
 3673 0188 13       		.uleb128 0x13
 3674 0189 3F       		.uleb128 0x3f
 3675 018a 19       		.uleb128 0x19
 3676 018b 3C       		.uleb128 0x3c
 3677 018c 19       		.uleb128 0x19
 3678 018d 00       		.byte	0
 3679 018e 00       		.byte	0
 3680 018f 22       		.uleb128 0x22
 3681 0190 34       		.uleb128 0x34
 3682 0191 00       		.byte	0
 3683 0192 03       		.uleb128 0x3
 3684 0193 08       		.uleb128 0x8
 3685 0194 3A       		.uleb128 0x3a
 3686 0195 0B       		.uleb128 0xb
 3687 0196 3B       		.uleb128 0x3b
 3688 0197 0B       		.uleb128 0xb
 3689 0198 49       		.uleb128 0x49
 3690 0199 13       		.uleb128 0x13
 3691 019a 02       		.uleb128 0x2
 3692 019b 18       		.uleb128 0x18
 3693 019c 00       		.byte	0
 3694 019d 00       		.byte	0
 3695 019e 23       		.uleb128 0x23
 3696 019f 2E       		.uleb128 0x2e
 3697 01a0 01       		.byte	0x1
 3698 01a1 3F       		.uleb128 0x3f
 3699 01a2 19       		.uleb128 0x19
 3700 01a3 03       		.uleb128 0x3
 3701 01a4 0E       		.uleb128 0xe
 3702 01a5 3A       		.uleb128 0x3a
 3703 01a6 0B       		.uleb128 0xb
 3704 01a7 3B       		.uleb128 0x3b
 3705 01a8 0B       		.uleb128 0xb
ARM GAS  /tmp/ccn3cifU.s 			page 66


 3706 01a9 27       		.uleb128 0x27
 3707 01aa 19       		.uleb128 0x19
 3708 01ab 49       		.uleb128 0x49
 3709 01ac 13       		.uleb128 0x13
 3710 01ad 11       		.uleb128 0x11
 3711 01ae 01       		.uleb128 0x1
 3712 01af 12       		.uleb128 0x12
 3713 01b0 06       		.uleb128 0x6
 3714 01b1 40       		.uleb128 0x40
 3715 01b2 18       		.uleb128 0x18
 3716 01b3 9742     		.uleb128 0x2117
 3717 01b5 19       		.uleb128 0x19
 3718 01b6 01       		.uleb128 0x1
 3719 01b7 13       		.uleb128 0x13
 3720 01b8 00       		.byte	0
 3721 01b9 00       		.byte	0
 3722 01ba 24       		.uleb128 0x24
 3723 01bb 05       		.uleb128 0x5
 3724 01bc 00       		.byte	0
 3725 01bd 03       		.uleb128 0x3
 3726 01be 08       		.uleb128 0x8
 3727 01bf 3A       		.uleb128 0x3a
 3728 01c0 0B       		.uleb128 0xb
 3729 01c1 3B       		.uleb128 0x3b
 3730 01c2 0B       		.uleb128 0xb
 3731 01c3 49       		.uleb128 0x49
 3732 01c4 13       		.uleb128 0x13
 3733 01c5 02       		.uleb128 0x2
 3734 01c6 17       		.uleb128 0x17
 3735 01c7 00       		.byte	0
 3736 01c8 00       		.byte	0
 3737 01c9 25       		.uleb128 0x25
 3738 01ca 34       		.uleb128 0x34
 3739 01cb 00       		.byte	0
 3740 01cc 03       		.uleb128 0x3
 3741 01cd 08       		.uleb128 0x8
 3742 01ce 3A       		.uleb128 0x3a
 3743 01cf 0B       		.uleb128 0xb
 3744 01d0 3B       		.uleb128 0x3b
 3745 01d1 0B       		.uleb128 0xb
 3746 01d2 49       		.uleb128 0x49
 3747 01d3 13       		.uleb128 0x13
 3748 01d4 02       		.uleb128 0x2
 3749 01d5 17       		.uleb128 0x17
 3750 01d6 00       		.byte	0
 3751 01d7 00       		.byte	0
 3752 01d8 26       		.uleb128 0x26
 3753 01d9 898201   		.uleb128 0x4109
 3754 01dc 01       		.byte	0x1
 3755 01dd 11       		.uleb128 0x11
 3756 01de 01       		.uleb128 0x1
 3757 01df 31       		.uleb128 0x31
 3758 01e0 13       		.uleb128 0x13
 3759 01e1 01       		.uleb128 0x1
 3760 01e2 13       		.uleb128 0x13
 3761 01e3 00       		.byte	0
 3762 01e4 00       		.byte	0
ARM GAS  /tmp/ccn3cifU.s 			page 67


 3763 01e5 27       		.uleb128 0x27
 3764 01e6 8A8201   		.uleb128 0x410a
 3765 01e9 00       		.byte	0
 3766 01ea 02       		.uleb128 0x2
 3767 01eb 18       		.uleb128 0x18
 3768 01ec 9142     		.uleb128 0x2111
 3769 01ee 18       		.uleb128 0x18
 3770 01ef 00       		.byte	0
 3771 01f0 00       		.byte	0
 3772 01f1 28       		.uleb128 0x28
 3773 01f2 898201   		.uleb128 0x4109
 3774 01f5 01       		.byte	0x1
 3775 01f6 11       		.uleb128 0x11
 3776 01f7 01       		.uleb128 0x1
 3777 01f8 31       		.uleb128 0x31
 3778 01f9 13       		.uleb128 0x13
 3779 01fa 00       		.byte	0
 3780 01fb 00       		.byte	0
 3781 01fc 29       		.uleb128 0x29
 3782 01fd 2E       		.uleb128 0x2e
 3783 01fe 01       		.byte	0x1
 3784 01ff 3F       		.uleb128 0x3f
 3785 0200 19       		.uleb128 0x19
 3786 0201 03       		.uleb128 0x3
 3787 0202 0E       		.uleb128 0xe
 3788 0203 3A       		.uleb128 0x3a
 3789 0204 0B       		.uleb128 0xb
 3790 0205 3B       		.uleb128 0x3b
 3791 0206 0B       		.uleb128 0xb
 3792 0207 27       		.uleb128 0x27
 3793 0208 19       		.uleb128 0x19
 3794 0209 11       		.uleb128 0x11
 3795 020a 01       		.uleb128 0x1
 3796 020b 12       		.uleb128 0x12
 3797 020c 06       		.uleb128 0x6
 3798 020d 40       		.uleb128 0x40
 3799 020e 18       		.uleb128 0x18
 3800 020f 9742     		.uleb128 0x2117
 3801 0211 19       		.uleb128 0x19
 3802 0212 01       		.uleb128 0x1
 3803 0213 13       		.uleb128 0x13
 3804 0214 00       		.byte	0
 3805 0215 00       		.byte	0
 3806 0216 2A       		.uleb128 0x2a
 3807 0217 898201   		.uleb128 0x4109
 3808 021a 01       		.byte	0x1
 3809 021b 11       		.uleb128 0x11
 3810 021c 01       		.uleb128 0x1
 3811 021d 9542     		.uleb128 0x2115
 3812 021f 19       		.uleb128 0x19
 3813 0220 31       		.uleb128 0x31
 3814 0221 13       		.uleb128 0x13
 3815 0222 00       		.byte	0
 3816 0223 00       		.byte	0
 3817 0224 2B       		.uleb128 0x2b
 3818 0225 0B       		.uleb128 0xb
 3819 0226 01       		.byte	0x1
ARM GAS  /tmp/ccn3cifU.s 			page 68


 3820 0227 55       		.uleb128 0x55
 3821 0228 17       		.uleb128 0x17
 3822 0229 01       		.uleb128 0x1
 3823 022a 13       		.uleb128 0x13
 3824 022b 00       		.byte	0
 3825 022c 00       		.byte	0
 3826 022d 2C       		.uleb128 0x2c
 3827 022e 0B       		.uleb128 0xb
 3828 022f 01       		.byte	0x1
 3829 0230 11       		.uleb128 0x11
 3830 0231 01       		.uleb128 0x1
 3831 0232 12       		.uleb128 0x12
 3832 0233 06       		.uleb128 0x6
 3833 0234 01       		.uleb128 0x1
 3834 0235 13       		.uleb128 0x13
 3835 0236 00       		.byte	0
 3836 0237 00       		.byte	0
 3837 0238 2D       		.uleb128 0x2d
 3838 0239 898201   		.uleb128 0x4109
 3839 023c 00       		.byte	0
 3840 023d 11       		.uleb128 0x11
 3841 023e 01       		.uleb128 0x1
 3842 023f 31       		.uleb128 0x31
 3843 0240 13       		.uleb128 0x13
 3844 0241 00       		.byte	0
 3845 0242 00       		.byte	0
 3846 0243 2E       		.uleb128 0x2e
 3847 0244 05       		.uleb128 0x5
 3848 0245 00       		.byte	0
 3849 0246 03       		.uleb128 0x3
 3850 0247 0E       		.uleb128 0xe
 3851 0248 3A       		.uleb128 0x3a
 3852 0249 0B       		.uleb128 0xb
 3853 024a 3B       		.uleb128 0x3b
 3854 024b 0B       		.uleb128 0xb
 3855 024c 49       		.uleb128 0x49
 3856 024d 13       		.uleb128 0x13
 3857 024e 02       		.uleb128 0x2
 3858 024f 17       		.uleb128 0x17
 3859 0250 00       		.byte	0
 3860 0251 00       		.byte	0
 3861 0252 2F       		.uleb128 0x2f
 3862 0253 898201   		.uleb128 0x4109
 3863 0256 00       		.byte	0
 3864 0257 11       		.uleb128 0x11
 3865 0258 01       		.uleb128 0x1
 3866 0259 9542     		.uleb128 0x2115
 3867 025b 19       		.uleb128 0x19
 3868 025c 31       		.uleb128 0x31
 3869 025d 13       		.uleb128 0x13
 3870 025e 00       		.byte	0
 3871 025f 00       		.byte	0
 3872 0260 30       		.uleb128 0x30
 3873 0261 2E       		.uleb128 0x2e
 3874 0262 01       		.byte	0x1
 3875 0263 03       		.uleb128 0x3
 3876 0264 0E       		.uleb128 0xe
ARM GAS  /tmp/ccn3cifU.s 			page 69


 3877 0265 3A       		.uleb128 0x3a
 3878 0266 0B       		.uleb128 0xb
 3879 0267 3B       		.uleb128 0x3b
 3880 0268 0B       		.uleb128 0xb
 3881 0269 27       		.uleb128 0x27
 3882 026a 19       		.uleb128 0x19
 3883 026b 49       		.uleb128 0x49
 3884 026c 13       		.uleb128 0x13
 3885 026d 11       		.uleb128 0x11
 3886 026e 01       		.uleb128 0x1
 3887 026f 12       		.uleb128 0x12
 3888 0270 06       		.uleb128 0x6
 3889 0271 40       		.uleb128 0x40
 3890 0272 18       		.uleb128 0x18
 3891 0273 9742     		.uleb128 0x2117
 3892 0275 19       		.uleb128 0x19
 3893 0276 01       		.uleb128 0x1
 3894 0277 13       		.uleb128 0x13
 3895 0278 00       		.byte	0
 3896 0279 00       		.byte	0
 3897 027a 31       		.uleb128 0x31
 3898 027b 2E       		.uleb128 0x2e
 3899 027c 01       		.byte	0x1
 3900 027d 03       		.uleb128 0x3
 3901 027e 08       		.uleb128 0x8
 3902 027f 3A       		.uleb128 0x3a
 3903 0280 0B       		.uleb128 0xb
 3904 0281 3B       		.uleb128 0x3b
 3905 0282 0B       		.uleb128 0xb
 3906 0283 27       		.uleb128 0x27
 3907 0284 19       		.uleb128 0x19
 3908 0285 49       		.uleb128 0x49
 3909 0286 13       		.uleb128 0x13
 3910 0287 11       		.uleb128 0x11
 3911 0288 01       		.uleb128 0x1
 3912 0289 12       		.uleb128 0x12
 3913 028a 06       		.uleb128 0x6
 3914 028b 40       		.uleb128 0x40
 3915 028c 18       		.uleb128 0x18
 3916 028d 9742     		.uleb128 0x2117
 3917 028f 19       		.uleb128 0x19
 3918 0290 01       		.uleb128 0x1
 3919 0291 13       		.uleb128 0x13
 3920 0292 00       		.byte	0
 3921 0293 00       		.byte	0
 3922 0294 32       		.uleb128 0x32
 3923 0295 2E       		.uleb128 0x2e
 3924 0296 00       		.byte	0
 3925 0297 3F       		.uleb128 0x3f
 3926 0298 19       		.uleb128 0x19
 3927 0299 3C       		.uleb128 0x3c
 3928 029a 19       		.uleb128 0x19
 3929 029b 6E       		.uleb128 0x6e
 3930 029c 0E       		.uleb128 0xe
 3931 029d 03       		.uleb128 0x3
 3932 029e 0E       		.uleb128 0xe
 3933 029f 3A       		.uleb128 0x3a
ARM GAS  /tmp/ccn3cifU.s 			page 70


 3934 02a0 0B       		.uleb128 0xb
 3935 02a1 3B       		.uleb128 0x3b
 3936 02a2 05       		.uleb128 0x5
 3937 02a3 00       		.byte	0
 3938 02a4 00       		.byte	0
 3939 02a5 33       		.uleb128 0x33
 3940 02a6 2E       		.uleb128 0x2e
 3941 02a7 00       		.byte	0
 3942 02a8 3F       		.uleb128 0x3f
 3943 02a9 19       		.uleb128 0x19
 3944 02aa 3C       		.uleb128 0x3c
 3945 02ab 19       		.uleb128 0x19
 3946 02ac 6E       		.uleb128 0x6e
 3947 02ad 0E       		.uleb128 0xe
 3948 02ae 03       		.uleb128 0x3
 3949 02af 0E       		.uleb128 0xe
 3950 02b0 3A       		.uleb128 0x3a
 3951 02b1 0B       		.uleb128 0xb
 3952 02b2 3B       		.uleb128 0x3b
 3953 02b3 0B       		.uleb128 0xb
 3954 02b4 00       		.byte	0
 3955 02b5 00       		.byte	0
 3956 02b6 00       		.byte	0
 3957              		.section	.debug_loc,"",%progbits
 3958              	.Ldebug_loc0:
 3959              	.LLST30:
 3960 0000 00000000 		.4byte	.LVL50
 3961 0004 06000000 		.4byte	.LVL51
 3962 0008 0100     		.2byte	0x1
 3963 000a 50       		.byte	0x50
 3964 000b 06000000 		.4byte	.LVL51
 3965 000f 1E000000 		.4byte	.LFE76
 3966 0013 0100     		.2byte	0x1
 3967 0015 54       		.byte	0x54
 3968 0016 00000000 		.4byte	0
 3969 001a 00000000 		.4byte	0
 3970              	.LLST31:
 3971 001e 0A000000 		.4byte	.LVL52
 3972 0022 14000000 		.4byte	.LVL54
 3973 0026 0100     		.2byte	0x1
 3974 0028 50       		.byte	0x50
 3975 0029 14000000 		.4byte	.LVL54
 3976 002d 1E000000 		.4byte	.LFE76
 3977 0031 0100     		.2byte	0x1
 3978 0033 55       		.byte	0x55
 3979 0034 00000000 		.4byte	0
 3980 0038 00000000 		.4byte	0
 3981              	.LLST28:
 3982 003c 00000000 		.4byte	.LVL39
 3983 0040 10000000 		.4byte	.LVL41
 3984 0044 0100     		.2byte	0x1
 3985 0046 50       		.byte	0x50
 3986 0047 10000000 		.4byte	.LVL41
 3987 004b 1A000000 		.4byte	.LVL43
 3988 004f 0100     		.2byte	0x1
 3989 0051 54       		.byte	0x54
 3990 0052 1A000000 		.4byte	.LVL43
ARM GAS  /tmp/ccn3cifU.s 			page 71


 3991 0056 1E000000 		.4byte	.LVL45
 3992 005a 0100     		.2byte	0x1
 3993 005c 50       		.byte	0x50
 3994 005d 1E000000 		.4byte	.LVL45
 3995 0061 38000000 		.4byte	.LVL48
 3996 0065 0100     		.2byte	0x1
 3997 0067 54       		.byte	0x54
 3998 0068 38000000 		.4byte	.LVL48
 3999 006c 3B000000 		.4byte	.LVL49-1
 4000 0070 0300     		.2byte	0x3
 4001 0072 70       		.byte	0x70
 4002 0073 7C       		.sleb128 -4
 4003 0074 9F       		.byte	0x9f
 4004 0075 3B000000 		.4byte	.LVL49-1
 4005 0079 3C000000 		.4byte	.LFE75
 4006 007d 0400     		.2byte	0x4
 4007 007f F3       		.byte	0xf3
 4008 0080 01       		.uleb128 0x1
 4009 0081 50       		.byte	0x50
 4010 0082 9F       		.byte	0x9f
 4011 0083 00000000 		.4byte	0
 4012 0087 00000000 		.4byte	0
 4013              	.LLST29:
 4014 008b 00000000 		.4byte	.LVL39
 4015 008f 0C000000 		.4byte	.LVL40
 4016 0093 0100     		.2byte	0x1
 4017 0095 51       		.byte	0x51
 4018 0096 0C000000 		.4byte	.LVL40
 4019 009a 1A000000 		.4byte	.LVL43
 4020 009e 0400     		.2byte	0x4
 4021 00a0 F3       		.byte	0xf3
 4022 00a1 01       		.uleb128 0x1
 4023 00a2 51       		.byte	0x51
 4024 00a3 9F       		.byte	0x9f
 4025 00a4 1A000000 		.4byte	.LVL43
 4026 00a8 1C000000 		.4byte	.LVL44
 4027 00ac 0100     		.2byte	0x1
 4028 00ae 51       		.byte	0x51
 4029 00af 1C000000 		.4byte	.LVL44
 4030 00b3 3C000000 		.4byte	.LFE75
 4031 00b7 0400     		.2byte	0x4
 4032 00b9 F3       		.byte	0xf3
 4033 00ba 01       		.uleb128 0x1
 4034 00bb 51       		.byte	0x51
 4035 00bc 9F       		.byte	0x9f
 4036 00bd 00000000 		.4byte	0
 4037 00c1 00000000 		.4byte	0
 4038              	.LLST27:
 4039 00c5 00000000 		.4byte	.LVL34
 4040 00c9 0D000000 		.4byte	.LVL35-1
 4041 00cd 0100     		.2byte	0x1
 4042 00cf 50       		.byte	0x50
 4043 00d0 0D000000 		.4byte	.LVL35-1
 4044 00d4 2E000000 		.4byte	.LFE74
 4045 00d8 0100     		.2byte	0x1
 4046 00da 54       		.byte	0x54
 4047 00db 00000000 		.4byte	0
ARM GAS  /tmp/ccn3cifU.s 			page 72


 4048 00df 00000000 		.4byte	0
 4049              	.LLST25:
 4050 00e3 00000000 		.4byte	.LVL32
 4051 00e7 0D000000 		.4byte	.LVL33-1
 4052 00eb 0100     		.2byte	0x1
 4053 00ed 50       		.byte	0x50
 4054 00ee 0D000000 		.4byte	.LVL33-1
 4055 00f2 1A000000 		.4byte	.LFE73
 4056 00f6 0100     		.2byte	0x1
 4057 00f8 54       		.byte	0x54
 4058 00f9 00000000 		.4byte	0
 4059 00fd 00000000 		.4byte	0
 4060              	.LLST26:
 4061 0101 00000000 		.4byte	.LVL32
 4062 0105 0D000000 		.4byte	.LVL33-1
 4063 0109 0100     		.2byte	0x1
 4064 010b 51       		.byte	0x51
 4065 010c 0D000000 		.4byte	.LVL33-1
 4066 0110 1A000000 		.4byte	.LFE73
 4067 0114 0400     		.2byte	0x4
 4068 0116 F3       		.byte	0xf3
 4069 0117 01       		.uleb128 0x1
 4070 0118 51       		.byte	0x51
 4071 0119 9F       		.byte	0x9f
 4072 011a 00000000 		.4byte	0
 4073 011e 00000000 		.4byte	0
 4074              	.LLST22:
 4075 0122 00000000 		.4byte	.LVL25
 4076 0126 12000000 		.4byte	.LVL26
 4077 012a 0100     		.2byte	0x1
 4078 012c 50       		.byte	0x50
 4079 012d 12000000 		.4byte	.LVL26
 4080 0131 3C000000 		.4byte	.LVL31
 4081 0135 0100     		.2byte	0x1
 4082 0137 54       		.byte	0x54
 4083 0138 3C000000 		.4byte	.LVL31
 4084 013c 40000000 		.4byte	.LFE72
 4085 0140 0400     		.2byte	0x4
 4086 0142 F3       		.byte	0xf3
 4087 0143 01       		.uleb128 0x1
 4088 0144 50       		.byte	0x50
 4089 0145 9F       		.byte	0x9f
 4090 0146 00000000 		.4byte	0
 4091 014a 00000000 		.4byte	0
 4092              	.LLST23:
 4093 014e 00000000 		.4byte	.LVL25
 4094 0152 1E000000 		.4byte	.LVL27
 4095 0156 0100     		.2byte	0x1
 4096 0158 51       		.byte	0x51
 4097 0159 1E000000 		.4byte	.LVL27
 4098 015d 25000000 		.4byte	.LVL29-1
 4099 0161 0100     		.2byte	0x1
 4100 0163 53       		.byte	0x53
 4101 0164 25000000 		.4byte	.LVL29-1
 4102 0168 40000000 		.4byte	.LFE72
 4103 016c 0400     		.2byte	0x4
 4104 016e F3       		.byte	0xf3
ARM GAS  /tmp/ccn3cifU.s 			page 73


 4105 016f 01       		.uleb128 0x1
 4106 0170 51       		.byte	0x51
 4107 0171 9F       		.byte	0x9f
 4108 0172 00000000 		.4byte	0
 4109 0176 00000000 		.4byte	0
 4110              	.LLST24:
 4111 017a 00000000 		.4byte	.LVL25
 4112 017e 22000000 		.4byte	.LVL28
 4113 0182 0100     		.2byte	0x1
 4114 0184 52       		.byte	0x52
 4115 0185 22000000 		.4byte	.LVL28
 4116 0189 3C000000 		.4byte	.LVL31
 4117 018d 0100     		.2byte	0x1
 4118 018f 55       		.byte	0x55
 4119 0190 3C000000 		.4byte	.LVL31
 4120 0194 40000000 		.4byte	.LFE72
 4121 0198 0400     		.2byte	0x4
 4122 019a F3       		.byte	0xf3
 4123 019b 01       		.uleb128 0x1
 4124 019c 52       		.byte	0x52
 4125 019d 9F       		.byte	0x9f
 4126 019e 00000000 		.4byte	0
 4127 01a2 00000000 		.4byte	0
 4128              	.LLST0:
 4129 01a6 00000000 		.4byte	.LVL0
 4130 01aa 02000000 		.4byte	.LVL1
 4131 01ae 0100     		.2byte	0x1
 4132 01b0 50       		.byte	0x50
 4133 01b1 02000000 		.4byte	.LVL1
 4134 01b5 05000000 		.4byte	.LVL2-1
 4135 01b9 0300     		.2byte	0x3
 4136 01bb 70       		.byte	0x70
 4137 01bc 74       		.sleb128 -12
 4138 01bd 9F       		.byte	0x9f
 4139 01be 05000000 		.4byte	.LVL2-1
 4140 01c2 06000000 		.4byte	.LFE70
 4141 01c6 0400     		.2byte	0x4
 4142 01c8 F3       		.byte	0xf3
 4143 01c9 01       		.uleb128 0x1
 4144 01ca 50       		.byte	0x50
 4145 01cb 9F       		.byte	0x9f
 4146 01cc 00000000 		.4byte	0
 4147 01d0 00000000 		.4byte	0
 4148              	.LLST1:
 4149 01d4 00000000 		.4byte	.LVL0
 4150 01d8 05000000 		.4byte	.LVL2-1
 4151 01dc 0100     		.2byte	0x1
 4152 01de 51       		.byte	0x51
 4153 01df 05000000 		.4byte	.LVL2-1
 4154 01e3 06000000 		.4byte	.LFE70
 4155 01e7 0400     		.2byte	0x4
 4156 01e9 F3       		.byte	0xf3
 4157 01ea 01       		.uleb128 0x1
 4158 01eb 51       		.byte	0x51
 4159 01ec 9F       		.byte	0x9f
 4160 01ed 00000000 		.4byte	0
 4161 01f1 00000000 		.4byte	0
ARM GAS  /tmp/ccn3cifU.s 			page 74


 4162              	.LLST2:
 4163 01f5 00000000 		.4byte	.LVL0
 4164 01f9 05000000 		.4byte	.LVL2-1
 4165 01fd 0100     		.2byte	0x1
 4166 01ff 52       		.byte	0x52
 4167 0200 05000000 		.4byte	.LVL2-1
 4168 0204 06000000 		.4byte	.LFE70
 4169 0208 0400     		.2byte	0x4
 4170 020a F3       		.byte	0xf3
 4171 020b 01       		.uleb128 0x1
 4172 020c 52       		.byte	0x52
 4173 020d 9F       		.byte	0x9f
 4174 020e 00000000 		.4byte	0
 4175 0212 00000000 		.4byte	0
 4176              	.LLST3:
 4177 0216 00000000 		.4byte	.LVL0
 4178 021a 05000000 		.4byte	.LVL2-1
 4179 021e 0100     		.2byte	0x1
 4180 0220 53       		.byte	0x53
 4181 0221 05000000 		.4byte	.LVL2-1
 4182 0225 06000000 		.4byte	.LFE70
 4183 0229 0400     		.2byte	0x4
 4184 022b F3       		.byte	0xf3
 4185 022c 01       		.uleb128 0x1
 4186 022d 53       		.byte	0x53
 4187 022e 9F       		.byte	0x9f
 4188 022f 00000000 		.4byte	0
 4189 0233 00000000 		.4byte	0
 4190              	.LLST7:
 4191 0237 00000000 		.4byte	.LVL6
 4192 023b 02000000 		.4byte	.LVL7
 4193 023f 0100     		.2byte	0x1
 4194 0241 50       		.byte	0x50
 4195 0242 02000000 		.4byte	.LVL7
 4196 0246 05000000 		.4byte	.LVL8-1
 4197 024a 0300     		.2byte	0x3
 4198 024c 70       		.byte	0x70
 4199 024d 50       		.sleb128 -48
 4200 024e 9F       		.byte	0x9f
 4201 024f 05000000 		.4byte	.LVL8-1
 4202 0253 06000000 		.4byte	.LFE69
 4203 0257 0400     		.2byte	0x4
 4204 0259 F3       		.byte	0xf3
 4205 025a 01       		.uleb128 0x1
 4206 025b 50       		.byte	0x50
 4207 025c 9F       		.byte	0x9f
 4208 025d 00000000 		.4byte	0
 4209 0261 00000000 		.4byte	0
 4210              	.LLST8:
 4211 0265 00000000 		.4byte	.LVL6
 4212 0269 05000000 		.4byte	.LVL8-1
 4213 026d 0100     		.2byte	0x1
 4214 026f 51       		.byte	0x51
 4215 0270 05000000 		.4byte	.LVL8-1
 4216 0274 06000000 		.4byte	.LFE69
 4217 0278 0400     		.2byte	0x4
 4218 027a F3       		.byte	0xf3
ARM GAS  /tmp/ccn3cifU.s 			page 75


 4219 027b 01       		.uleb128 0x1
 4220 027c 51       		.byte	0x51
 4221 027d 9F       		.byte	0x9f
 4222 027e 00000000 		.4byte	0
 4223 0282 00000000 		.4byte	0
 4224              	.LLST9:
 4225 0286 00000000 		.4byte	.LVL6
 4226 028a 05000000 		.4byte	.LVL8-1
 4227 028e 0100     		.2byte	0x1
 4228 0290 52       		.byte	0x52
 4229 0291 05000000 		.4byte	.LVL8-1
 4230 0295 06000000 		.4byte	.LFE69
 4231 0299 0400     		.2byte	0x4
 4232 029b F3       		.byte	0xf3
 4233 029c 01       		.uleb128 0x1
 4234 029d 52       		.byte	0x52
 4235 029e 9F       		.byte	0x9f
 4236 029f 00000000 		.4byte	0
 4237 02a3 00000000 		.4byte	0
 4238              	.LLST10:
 4239 02a7 00000000 		.4byte	.LVL6
 4240 02ab 05000000 		.4byte	.LVL8-1
 4241 02af 0100     		.2byte	0x1
 4242 02b1 53       		.byte	0x53
 4243 02b2 05000000 		.4byte	.LVL8-1
 4244 02b6 06000000 		.4byte	.LFE69
 4245 02ba 0400     		.2byte	0x4
 4246 02bc F3       		.byte	0xf3
 4247 02bd 01       		.uleb128 0x1
 4248 02be 53       		.byte	0x53
 4249 02bf 9F       		.byte	0x9f
 4250 02c0 00000000 		.4byte	0
 4251 02c4 00000000 		.4byte	0
 4252              	.LLST14:
 4253 02c8 00000000 		.4byte	.LVL12
 4254 02cc 02000000 		.4byte	.LVL13
 4255 02d0 0100     		.2byte	0x1
 4256 02d2 50       		.byte	0x50
 4257 02d3 02000000 		.4byte	.LVL13
 4258 02d7 05000000 		.4byte	.LVL14-1
 4259 02db 0300     		.2byte	0x3
 4260 02dd 70       		.byte	0x70
 4261 02de 74       		.sleb128 -12
 4262 02df 9F       		.byte	0x9f
 4263 02e0 05000000 		.4byte	.LVL14-1
 4264 02e4 06000000 		.4byte	.LFE68
 4265 02e8 0400     		.2byte	0x4
 4266 02ea F3       		.byte	0xf3
 4267 02eb 01       		.uleb128 0x1
 4268 02ec 50       		.byte	0x50
 4269 02ed 9F       		.byte	0x9f
 4270 02ee 00000000 		.4byte	0
 4271 02f2 00000000 		.4byte	0
 4272              	.LLST15:
 4273 02f6 00000000 		.4byte	.LVL12
 4274 02fa 05000000 		.4byte	.LVL14-1
 4275 02fe 0100     		.2byte	0x1
ARM GAS  /tmp/ccn3cifU.s 			page 76


 4276 0300 51       		.byte	0x51
 4277 0301 05000000 		.4byte	.LVL14-1
 4278 0305 06000000 		.4byte	.LFE68
 4279 0309 0400     		.2byte	0x4
 4280 030b F3       		.byte	0xf3
 4281 030c 01       		.uleb128 0x1
 4282 030d 51       		.byte	0x51
 4283 030e 9F       		.byte	0x9f
 4284 030f 00000000 		.4byte	0
 4285 0313 00000000 		.4byte	0
 4286              	.LLST17:
 4287 0317 00000000 		.4byte	.LVL18
 4288 031b 02000000 		.4byte	.LVL19
 4289 031f 0100     		.2byte	0x1
 4290 0321 50       		.byte	0x50
 4291 0322 02000000 		.4byte	.LVL19
 4292 0326 05000000 		.4byte	.LVL20-1
 4293 032a 0300     		.2byte	0x3
 4294 032c 70       		.byte	0x70
 4295 032d 50       		.sleb128 -48
 4296 032e 9F       		.byte	0x9f
 4297 032f 05000000 		.4byte	.LVL20-1
 4298 0333 06000000 		.4byte	.LFE67
 4299 0337 0400     		.2byte	0x4
 4300 0339 F3       		.byte	0xf3
 4301 033a 01       		.uleb128 0x1
 4302 033b 50       		.byte	0x50
 4303 033c 9F       		.byte	0x9f
 4304 033d 00000000 		.4byte	0
 4305 0341 00000000 		.4byte	0
 4306              	.LLST18:
 4307 0345 00000000 		.4byte	.LVL18
 4308 0349 05000000 		.4byte	.LVL20-1
 4309 034d 0100     		.2byte	0x1
 4310 034f 51       		.byte	0x51
 4311 0350 05000000 		.4byte	.LVL20-1
 4312 0354 06000000 		.4byte	.LFE67
 4313 0358 0400     		.2byte	0x4
 4314 035a F3       		.byte	0xf3
 4315 035b 01       		.uleb128 0x1
 4316 035c 51       		.byte	0x51
 4317 035d 9F       		.byte	0x9f
 4318 035e 00000000 		.4byte	0
 4319 0362 00000000 		.4byte	0
 4320              	.LLST19:
 4321 0366 00000000 		.4byte	.LVL18
 4322 036a 05000000 		.4byte	.LVL20-1
 4323 036e 0100     		.2byte	0x1
 4324 0370 52       		.byte	0x52
 4325 0371 05000000 		.4byte	.LVL20-1
 4326 0375 06000000 		.4byte	.LFE67
 4327 0379 0400     		.2byte	0x4
 4328 037b F3       		.byte	0xf3
 4329 037c 01       		.uleb128 0x1
 4330 037d 52       		.byte	0x52
 4331 037e 9F       		.byte	0x9f
 4332 037f 00000000 		.4byte	0
ARM GAS  /tmp/ccn3cifU.s 			page 77


 4333 0383 00000000 		.4byte	0
 4334              	.LLST16:
 4335 0387 00000000 		.4byte	.LVL15
 4336 038b 02000000 		.4byte	.LVL16
 4337 038f 0100     		.2byte	0x1
 4338 0391 50       		.byte	0x50
 4339 0392 02000000 		.4byte	.LVL16
 4340 0396 09000000 		.4byte	.LVL17-1
 4341 039a 0300     		.2byte	0x3
 4342 039c 70       		.byte	0x70
 4343 039d 74       		.sleb128 -12
 4344 039e 9F       		.byte	0x9f
 4345 039f 09000000 		.4byte	.LVL17-1
 4346 03a3 0A000000 		.4byte	.LFE66
 4347 03a7 0400     		.2byte	0x4
 4348 03a9 F3       		.byte	0xf3
 4349 03aa 01       		.uleb128 0x1
 4350 03ab 50       		.byte	0x50
 4351 03ac 9F       		.byte	0x9f
 4352 03ad 00000000 		.4byte	0
 4353 03b1 00000000 		.4byte	0
 4354              	.LLST20:
 4355 03b5 00000000 		.4byte	.LVL21
 4356 03b9 02000000 		.4byte	.LVL22
 4357 03bd 0100     		.2byte	0x1
 4358 03bf 50       		.byte	0x50
 4359 03c0 02000000 		.4byte	.LVL22
 4360 03c4 09000000 		.4byte	.LVL23-1
 4361 03c8 0300     		.2byte	0x3
 4362 03ca 70       		.byte	0x70
 4363 03cb 50       		.sleb128 -48
 4364 03cc 9F       		.byte	0x9f
 4365 03cd 09000000 		.4byte	.LVL23-1
 4366 03d1 0A000000 		.4byte	.LFE65
 4367 03d5 0400     		.2byte	0x4
 4368 03d7 F3       		.byte	0xf3
 4369 03d8 01       		.uleb128 0x1
 4370 03d9 50       		.byte	0x50
 4371 03da 9F       		.byte	0x9f
 4372 03db 00000000 		.4byte	0
 4373 03df 00000000 		.4byte	0
 4374              	.LLST21:
 4375 03e3 00000000 		.4byte	.LVL21
 4376 03e7 09000000 		.4byte	.LVL23-1
 4377 03eb 0100     		.2byte	0x1
 4378 03ed 51       		.byte	0x51
 4379 03ee 09000000 		.4byte	.LVL23-1
 4380 03f2 0A000000 		.4byte	.LFE65
 4381 03f6 0400     		.2byte	0x4
 4382 03f8 F3       		.byte	0xf3
 4383 03f9 01       		.uleb128 0x1
 4384 03fa 51       		.byte	0x51
 4385 03fb 9F       		.byte	0x9f
 4386 03fc 00000000 		.4byte	0
 4387 0400 00000000 		.4byte	0
 4388              	.LLST4:
 4389 0404 00000000 		.4byte	.LVL3
ARM GAS  /tmp/ccn3cifU.s 			page 78


 4390 0408 02000000 		.4byte	.LVL4
 4391 040c 0100     		.2byte	0x1
 4392 040e 50       		.byte	0x50
 4393 040f 02000000 		.4byte	.LVL4
 4394 0413 09000000 		.4byte	.LVL5-1
 4395 0417 0300     		.2byte	0x3
 4396 0419 70       		.byte	0x70
 4397 041a 74       		.sleb128 -12
 4398 041b 9F       		.byte	0x9f
 4399 041c 09000000 		.4byte	.LVL5-1
 4400 0420 0A000000 		.4byte	.LFE64
 4401 0424 0400     		.2byte	0x4
 4402 0426 F3       		.byte	0xf3
 4403 0427 01       		.uleb128 0x1
 4404 0428 50       		.byte	0x50
 4405 0429 9F       		.byte	0x9f
 4406 042a 00000000 		.4byte	0
 4407 042e 00000000 		.4byte	0
 4408              	.LLST5:
 4409 0432 00000000 		.4byte	.LVL3
 4410 0436 09000000 		.4byte	.LVL5-1
 4411 043a 0100     		.2byte	0x1
 4412 043c 51       		.byte	0x51
 4413 043d 09000000 		.4byte	.LVL5-1
 4414 0441 0A000000 		.4byte	.LFE64
 4415 0445 0400     		.2byte	0x4
 4416 0447 F3       		.byte	0xf3
 4417 0448 01       		.uleb128 0x1
 4418 0449 51       		.byte	0x51
 4419 044a 9F       		.byte	0x9f
 4420 044b 00000000 		.4byte	0
 4421 044f 00000000 		.4byte	0
 4422              	.LLST6:
 4423 0453 00000000 		.4byte	.LVL3
 4424 0457 09000000 		.4byte	.LVL5-1
 4425 045b 0100     		.2byte	0x1
 4426 045d 52       		.byte	0x52
 4427 045e 09000000 		.4byte	.LVL5-1
 4428 0462 0A000000 		.4byte	.LFE64
 4429 0466 0400     		.2byte	0x4
 4430 0468 F3       		.byte	0xf3
 4431 0469 01       		.uleb128 0x1
 4432 046a 52       		.byte	0x52
 4433 046b 9F       		.byte	0x9f
 4434 046c 00000000 		.4byte	0
 4435 0470 00000000 		.4byte	0
 4436              	.LLST11:
 4437 0474 00000000 		.4byte	.LVL9
 4438 0478 02000000 		.4byte	.LVL10
 4439 047c 0100     		.2byte	0x1
 4440 047e 50       		.byte	0x50
 4441 047f 02000000 		.4byte	.LVL10
 4442 0483 09000000 		.4byte	.LVL11-1
 4443 0487 0300     		.2byte	0x3
 4444 0489 70       		.byte	0x70
 4445 048a 50       		.sleb128 -48
 4446 048b 9F       		.byte	0x9f
ARM GAS  /tmp/ccn3cifU.s 			page 79


 4447 048c 09000000 		.4byte	.LVL11-1
 4448 0490 0A000000 		.4byte	.LFE63
 4449 0494 0400     		.2byte	0x4
 4450 0496 F3       		.byte	0xf3
 4451 0497 01       		.uleb128 0x1
 4452 0498 50       		.byte	0x50
 4453 0499 9F       		.byte	0x9f
 4454 049a 00000000 		.4byte	0
 4455 049e 00000000 		.4byte	0
 4456              	.LLST12:
 4457 04a2 00000000 		.4byte	.LVL9
 4458 04a6 09000000 		.4byte	.LVL11-1
 4459 04aa 0100     		.2byte	0x1
 4460 04ac 51       		.byte	0x51
 4461 04ad 09000000 		.4byte	.LVL11-1
 4462 04b1 0A000000 		.4byte	.LFE63
 4463 04b5 0400     		.2byte	0x4
 4464 04b7 F3       		.byte	0xf3
 4465 04b8 01       		.uleb128 0x1
 4466 04b9 51       		.byte	0x51
 4467 04ba 9F       		.byte	0x9f
 4468 04bb 00000000 		.4byte	0
 4469 04bf 00000000 		.4byte	0
 4470              	.LLST13:
 4471 04c3 00000000 		.4byte	.LVL9
 4472 04c7 09000000 		.4byte	.LVL11-1
 4473 04cb 0100     		.2byte	0x1
 4474 04cd 52       		.byte	0x52
 4475 04ce 09000000 		.4byte	.LVL11-1
 4476 04d2 0A000000 		.4byte	.LFE63
 4477 04d6 0400     		.2byte	0x4
 4478 04d8 F3       		.byte	0xf3
 4479 04d9 01       		.uleb128 0x1
 4480 04da 52       		.byte	0x52
 4481 04db 9F       		.byte	0x9f
 4482 04dc 00000000 		.4byte	0
 4483 04e0 00000000 		.4byte	0
 4484              		.section	.debug_aranges,"",%progbits
 4485 0000 84000000 		.4byte	0x84
 4486 0004 0200     		.2byte	0x2
 4487 0006 00000000 		.4byte	.Ldebug_info0
 4488 000a 04       		.byte	0x4
 4489 000b 00       		.byte	0
 4490 000c 0000     		.2byte	0
 4491 000e 0000     		.2byte	0
 4492 0010 00000000 		.4byte	.LFB70
 4493 0014 06000000 		.4byte	.LFE70-.LFB70
 4494 0018 00000000 		.4byte	.LFB64
 4495 001c 0A000000 		.4byte	.LFE64-.LFB64
 4496 0020 00000000 		.4byte	.LFB69
 4497 0024 06000000 		.4byte	.LFE69-.LFB69
 4498 0028 00000000 		.4byte	.LFB63
 4499 002c 0A000000 		.4byte	.LFE63-.LFB63
 4500 0030 00000000 		.4byte	.LFB68
 4501 0034 06000000 		.4byte	.LFE68-.LFB68
 4502 0038 00000000 		.4byte	.LFB66
 4503 003c 0A000000 		.4byte	.LFE66-.LFB66
ARM GAS  /tmp/ccn3cifU.s 			page 80


 4504 0040 00000000 		.4byte	.LFB67
 4505 0044 06000000 		.4byte	.LFE67-.LFB67
 4506 0048 00000000 		.4byte	.LFB65
 4507 004c 0A000000 		.4byte	.LFE65-.LFB65
 4508 0050 00000000 		.4byte	.LFB71
 4509 0054 04000000 		.4byte	.LFE71-.LFB71
 4510 0058 00000000 		.4byte	.LFB72
 4511 005c 40000000 		.4byte	.LFE72-.LFB72
 4512 0060 00000000 		.4byte	.LFB73
 4513 0064 1A000000 		.4byte	.LFE73-.LFB73
 4514 0068 00000000 		.4byte	.LFB74
 4515 006c 2E000000 		.4byte	.LFE74-.LFB74
 4516 0070 00000000 		.4byte	.LFB75
 4517 0074 3C000000 		.4byte	.LFE75-.LFB75
 4518 0078 00000000 		.4byte	.LFB76
 4519 007c 1E000000 		.4byte	.LFE76-.LFB76
 4520 0080 00000000 		.4byte	0
 4521 0084 00000000 		.4byte	0
 4522              		.section	.debug_ranges,"",%progbits
 4523              	.Ldebug_ranges0:
 4524 0000 02000000 		.4byte	.LBB2
 4525 0004 04000000 		.4byte	.LBE2
 4526 0008 06000000 		.4byte	.LBB3
 4527 000c 0A000000 		.4byte	.LBE3
 4528 0010 00000000 		.4byte	0
 4529 0014 00000000 		.4byte	0
 4530 0018 10000000 		.4byte	.LBB4
 4531 001c 12000000 		.4byte	.LBE4
 4532 0020 14000000 		.4byte	.LBB5
 4533 0024 1A000000 		.4byte	.LBE5
 4534 0028 00000000 		.4byte	0
 4535 002c 00000000 		.4byte	0
 4536 0030 02000000 		.4byte	.LBB6
 4537 0034 04000000 		.4byte	.LBE6
 4538 0038 06000000 		.4byte	.LBB7
 4539 003c 0A000000 		.4byte	.LBE7
 4540 0040 00000000 		.4byte	0
 4541 0044 00000000 		.4byte	0
 4542 0048 00000000 		.4byte	.LFB70
 4543 004c 06000000 		.4byte	.LFE70
 4544 0050 00000000 		.4byte	.LFB64
 4545 0054 0A000000 		.4byte	.LFE64
 4546 0058 00000000 		.4byte	.LFB69
 4547 005c 06000000 		.4byte	.LFE69
 4548 0060 00000000 		.4byte	.LFB63
 4549 0064 0A000000 		.4byte	.LFE63
 4550 0068 00000000 		.4byte	.LFB68
 4551 006c 06000000 		.4byte	.LFE68
 4552 0070 00000000 		.4byte	.LFB66
 4553 0074 0A000000 		.4byte	.LFE66
 4554 0078 00000000 		.4byte	.LFB67
 4555 007c 06000000 		.4byte	.LFE67
 4556 0080 00000000 		.4byte	.LFB65
 4557 0084 0A000000 		.4byte	.LFE65
 4558 0088 00000000 		.4byte	.LFB71
 4559 008c 04000000 		.4byte	.LFE71
 4560 0090 00000000 		.4byte	.LFB72
ARM GAS  /tmp/ccn3cifU.s 			page 81


 4561 0094 40000000 		.4byte	.LFE72
 4562 0098 00000000 		.4byte	.LFB73
 4563 009c 1A000000 		.4byte	.LFE73
 4564 00a0 00000000 		.4byte	.LFB74
 4565 00a4 2E000000 		.4byte	.LFE74
 4566 00a8 00000000 		.4byte	.LFB75
 4567 00ac 3C000000 		.4byte	.LFE75
 4568 00b0 00000000 		.4byte	.LFB76
 4569 00b4 1E000000 		.4byte	.LFE76
 4570 00b8 00000000 		.4byte	0
 4571 00bc 00000000 		.4byte	0
 4572              		.section	.debug_line,"",%progbits
 4573              	.Ldebug_line0:
 4574 0000 73030000 		.section	.debug_str,"MS",%progbits,1
 4574      02005802 
 4574      00000201 
 4574      FB0E0D00 
 4574      01010101 
 4575              	.LASF4:
 4576 0000 73697A65 		.ascii	"size_t\000"
 4576      5F7400
 4577              	.LASF58:
 4578 0007 73697A65 		.ascii	"sizetype\000"
 4578      74797065 
 4578      00
 4579              	.LASF104:
 4580 0010 63665F6F 		.ascii	"cf_off_name\000"
 4580      66665F6E 
 4580      616D6500 
 4581              	.LASF31:
 4582 001c 73797374 		.ascii	"systime_t\000"
 4582      696D655F 
 4582      7400
 4583              	.LASF93:
 4584 0026 63685F69 		.ascii	"ch_identifier\000"
 4584      64656E74 
 4584      69666965 
 4584      7200
 4585              	.LASF204:
 4586 0034 63684951 		.ascii	"chIQReadTimeout\000"
 4586      52656164 
 4586      54696D65 
 4586      6F757400 
 4587              	.LASF36:
 4588 0044 705F6374 		.ascii	"p_ctx\000"
 4588      7800
 4589              	.LASF27:
 4590 004a 74707269 		.ascii	"tprio_t\000"
 4590      6F5F7400 
 4591              	.LASF112:
 4592 0052 63685F64 		.ascii	"ch_debug\000"
 4592      65627567 
 4592      00
 4593              	.LASF46:
 4594 005b 705F6D73 		.ascii	"p_msgqueue\000"
 4594      67717565 
 4594      756500
ARM GAS  /tmp/ccn3cifU.s 			page 82


 4595              	.LASF70:
 4596 0066 725F6374 		.ascii	"r_ctx\000"
 4596      7800
 4597              	.LASF18:
 4598 006c 696E7433 		.ascii	"int32_t\000"
 4598      325F7400 
 4599              	.LASF176:
 4600 0074 53657269 		.ascii	"SerialConfig\000"
 4600      616C436F 
 4600      6E666967 
 4600      00
 4601              	.LASF182:
 4602 0081 77726974 		.ascii	"writet\000"
 4602      657400
 4603              	.LASF101:
 4604 0088 63665F6F 		.ascii	"cf_off_ctx\000"
 4604      66665F63 
 4604      747800
 4605              	.LASF59:
 4606 0093 76746675 		.ascii	"vtfunc_t\000"
 4606      6E635F74 
 4606      00
 4607              	.LASF201:
 4608 009c 63684951 		.ascii	"chIQInit\000"
 4608      496E6974 
 4608      00
 4609              	.LASF205:
 4610 00a5 63684F51 		.ascii	"chOQWriteTimeout\000"
 4610      57726974 
 4610      6554696D 
 4610      656F7574 
 4610      00
 4611              	.LASF139:
 4612 00b6 4C50435F 		.ascii	"LPC_GPDMACH_TypeDef\000"
 4612      4750444D 
 4612      4143485F 
 4612      54797065 
 4612      44656600 
 4613              	.LASF178:
 4614 00ca 77726974 		.ascii	"write\000"
 4614      6500
 4615              	.LASF130:
 4616 00d0 43544352 		.ascii	"CTCR\000"
 4616      00
 4617              	.LASF85:
 4618 00d5 656C5F66 		.ascii	"el_flags\000"
 4618      6C616773 
 4618      00
 4619              	.LASF150:
 4620 00de 67707473 		.ascii	"gptstate_t\000"
 4620      74617465 
 4620      5F7400
 4621              	.LASF153:
 4622 00e9 636F6E66 		.ascii	"config\000"
 4622      696700
 4623              	.LASF152:
 4624 00f0 73746174 		.ascii	"state\000"
ARM GAS  /tmp/ccn3cifU.s 			page 83


 4624      6500
 4625              	.LASF180:
 4626 00f6 70757474 		.ascii	"putt\000"
 4626      00
 4627              	.LASF97:
 4628 00fb 63685F70 		.ascii	"ch_ptrsize\000"
 4628      74727369 
 4628      7A6500
 4629              	.LASF158:
 4630 0106 63616C6C 		.ascii	"callback\000"
 4630      6261636B 
 4630      00
 4631              	.LASF79:
 4632 010f 6D5F6F77 		.ascii	"m_owner\000"
 4632      6E657200 
 4633              	.LASF65:
 4634 0117 76745F70 		.ascii	"vt_par\000"
 4634      617200
 4635              	.LASF89:
 4636 011e 65786974 		.ascii	"exitcode\000"
 4636      636F6465 
 4636      00
 4637              	.LASF5:
 4638 0127 5F5F7569 		.ascii	"__uint8_t\000"
 4638      6E74385F 
 4638      7400
 4639              	.LASF117:
 4640 0131 715F746F 		.ascii	"q_top\000"
 4640      7000
 4641              	.LASF135:
 4642 0137 43446573 		.ascii	"CDestAddr\000"
 4642      74416464 
 4642      7200
 4643              	.LASF91:
 4644 0141 65776D61 		.ascii	"ewmask\000"
 4644      736B00
 4645              	.LASF99:
 4646 0148 63685F74 		.ascii	"ch_threadsize\000"
 4646      68726561 
 4646      6473697A 
 4646      6500
 4647              	.LASF183:
 4648 0156 72656164 		.ascii	"readt\000"
 4648      7400
 4649              	.LASF200:
 4650 015c 73645F6C 		.ascii	"sd_lld_start\000"
 4650      6C645F73 
 4650      74617274 
 4650      00
 4651              	.LASF116:
 4652 0169 715F6275 		.ascii	"q_buffer\000"
 4652      66666572 
 4652      00
 4653              	.LASF134:
 4654 0172 43537263 		.ascii	"CSrcAddr\000"
 4654      41646472 
 4654      00
ARM GAS  /tmp/ccn3cifU.s 			page 84


 4655              	.LASF120:
 4656 017b 715F6E6F 		.ascii	"q_notify\000"
 4656      74696679 
 4656      00
 4657              	.LASF187:
 4658 0184 73644F62 		.ascii	"sdObjectInit\000"
 4658      6A656374 
 4658      496E6974 
 4658      00
 4659              	.LASF37:
 4660 0191 705F6E65 		.ascii	"p_newer\000"
 4660      77657200 
 4661              	.LASF11:
 4662 0199 6C6F6E67 		.ascii	"long int\000"
 4662      20696E74 
 4662      00
 4663              	.LASF33:
 4664 01a2 705F6E65 		.ascii	"p_next\000"
 4664      787400
 4665              	.LASF119:
 4666 01a9 715F7264 		.ascii	"q_rdptr\000"
 4666      70747200 
 4667              	.LASF106:
 4668 01b1 63665F6F 		.ascii	"cf_off_state\000"
 4668      66665F73 
 4668      74617465 
 4668      00
 4669              	.LASF34:
 4670 01be 705F7072 		.ascii	"p_prev\000"
 4670      657600
 4671              	.LASF160:
 4672 01c5 47505444 		.ascii	"GPTD1\000"
 4672      3100
 4673              	.LASF161:
 4674 01cb 47505444 		.ascii	"GPTD2\000"
 4674      3200
 4675              	.LASF162:
 4676 01d1 47505444 		.ascii	"GPTD3\000"
 4676      3300
 4677              	.LASF163:
 4678 01d7 47505444 		.ascii	"GPTD4\000"
 4678      3400
 4679              	.LASF24:
 4680 01dd 74737461 		.ascii	"tstate_t\000"
 4680      74655F74 
 4680      00
 4681              	.LASF49:
 4682 01e6 705F6D74 		.ascii	"p_mtxlist\000"
 4682      786C6973 
 4682      7400
 4683              	.LASF171:
 4684 01f0 6F717565 		.ascii	"oqueue\000"
 4684      756500
 4685              	.LASF54:
 4686 01f7 72656761 		.ascii	"regarm_t\000"
 4686      726D5F74 
 4686      00
ARM GAS  /tmp/ccn3cifU.s 			page 85


 4687              	.LASF190:
 4688 0200 7364496E 		.ascii	"sdInit\000"
 4688      697400
 4689              	.LASF144:
 4690 0207 70616C5F 		.ascii	"pal_default_config\000"
 4690      64656661 
 4690      756C745F 
 4690      636F6E66 
 4690      696700
 4691              	.LASF3:
 4692 021a 7369676E 		.ascii	"signed char\000"
 4692      65642063 
 4692      68617200 
 4693              	.LASF43:
 4694 0226 705F7072 		.ascii	"p_preempt\000"
 4694      65656D70 
 4694      7400
 4695              	.LASF16:
 4696 0230 75696E74 		.ascii	"uint8_t\000"
 4696      385F7400 
 4697              	.LASF29:
 4698 0238 6576656E 		.ascii	"eventmask_t\000"
 4698      746D6173 
 4698      6B5F7400 
 4699              	.LASF57:
 4700 0244 636F6E74 		.ascii	"context\000"
 4700      65787400 
 4701              	.LASF128:
 4702 024c 52455345 		.ascii	"RESERVED0\000"
 4702      52564544 
 4702      3000
 4703              	.LASF129:
 4704 0256 52455345 		.ascii	"RESERVED1\000"
 4704      52564544 
 4704      3100
 4705              	.LASF6:
 4706 0260 756E7369 		.ascii	"unsigned char\000"
 4706      676E6564 
 4706      20636861 
 4706      7200
 4707              	.LASF121:
 4708 026e 715F6C69 		.ascii	"q_link\000"
 4708      6E6B00
 4709              	.LASF62:
 4710 0275 76745F70 		.ascii	"vt_prev\000"
 4710      72657600 
 4711              	.LASF71:
 4712 027d 725F6E65 		.ascii	"r_newer\000"
 4712      77657200 
 4713              	.LASF164:
 4714 0285 53445F55 		.ascii	"SD_UNINIT\000"
 4714      4E494E49 
 4714      5400
 4715              	.LASF22:
 4716 028f 5F426F6F 		.ascii	"_Bool\000"
 4716      6C00
 4717              	.LASF132:
ARM GAS  /tmp/ccn3cifU.s 			page 86


 4718 0295 52455345 		.ascii	"RESERVED2\000"
 4718      52564544 
 4718      3200
 4719              	.LASF189:
 4720 029f 6F6E6F74 		.ascii	"onotify\000"
 4720      69667900 
 4721              	.LASF92:
 4722 02a7 63686172 		.ascii	"char\000"
 4722      00
 4723              	.LASF206:
 4724 02ac 63684951 		.ascii	"chIQGetTimeout\000"
 4724      47657454 
 4724      696D656F 
 4724      757400
 4725              	.LASF145:
 4726 02bb 4750545F 		.ascii	"GPT_UNINIT\000"
 4726      554E494E 
 4726      495400
 4727              	.LASF35:
 4728 02c6 705F7072 		.ascii	"p_prio\000"
 4728      696F00
 4729              	.LASF8:
 4730 02cd 5F5F7569 		.ascii	"__uint16_t\000"
 4730      6E743136 
 4730      5F7400
 4731              	.LASF113:
 4732 02d8 47656E65 		.ascii	"GenericQueue\000"
 4732      72696351 
 4732      75657565 
 4732      00
 4733              	.LASF90:
 4734 02e5 77746F62 		.ascii	"wtobjp\000"
 4734      6A7000
 4735              	.LASF102:
 4736 02ec 63665F6F 		.ascii	"cf_off_newer\000"
 4736      66665F6E 
 4736      65776572 
 4736      00
 4737              	.LASF181:
 4738 02f9 67657474 		.ascii	"gett\000"
 4738      00
 4739              	.LASF55:
 4740 02fe 73746B61 		.ascii	"stkalign_t\000"
 4740      6C69676E 
 4740      5F7400
 4741              	.LASF124:
 4742 0309 4F757470 		.ascii	"OutputQueue\000"
 4742      75745175 
 4742      65756500 
 4743              	.LASF100:
 4744 0315 63665F6F 		.ascii	"cf_off_prio\000"
 4744      66665F70 
 4744      72696F00 
 4745              	.LASF195:
 4746 0321 63684951 		.ascii	"chIQPutI\000"
 4746      50757449 
 4746      00
ARM GAS  /tmp/ccn3cifU.s 			page 87


 4747              	.LASF64:
 4748 032a 76745F66 		.ascii	"vt_func\000"
 4748      756E6300 
 4749              	.LASF56:
 4750 0332 696E7463 		.ascii	"intctx\000"
 4750      747800
 4751              	.LASF48:
 4752 0339 705F6570 		.ascii	"p_epending\000"
 4752      656E6469 
 4752      6E6700
 4753              	.LASF87:
 4754 0344 65735F6E 		.ascii	"es_next\000"
 4754      65787400 
 4755              	.LASF115:
 4756 034c 715F636F 		.ascii	"q_counter\000"
 4756      756E7465 
 4756      7200
 4757              	.LASF137:
 4758 0356 43436F6E 		.ascii	"CControl\000"
 4758      74726F6C 
 4758      00
 4759              	.LASF86:
 4760 035f 4576656E 		.ascii	"EventSource\000"
 4760      74536F75 
 4760      72636500 
 4761              	.LASF14:
 4762 036b 5F5F7569 		.ascii	"__uint64_t\000"
 4762      6E743634 
 4762      5F7400
 4763              	.LASF13:
 4764 0376 6C6F6E67 		.ascii	"long unsigned int\000"
 4764      20756E73 
 4764      69676E65 
 4764      6420696E 
 4764      7400
 4765              	.LASF94:
 4766 0388 63685F7A 		.ascii	"ch_zero\000"
 4766      65726F00 
 4767              	.LASF127:
 4768 0390 53797374 		.ascii	"SystemCoreClock\000"
 4768      656D436F 
 4768      7265436C 
 4768      6F636B00 
 4769              	.LASF156:
 4770 03a0 67707466 		.ascii	"gptfreq_t\000"
 4770      7265715F 
 4770      7400
 4771              	.LASF207:
 4772 03aa 63684F51 		.ascii	"chOQPutTimeout\000"
 4772      50757454 
 4772      696D656F 
 4772      757400
 4773              	.LASF82:
 4774 03b9 656C5F6E 		.ascii	"el_next\000"
 4774      65787400 
 4775              	.LASF118:
 4776 03c1 715F7772 		.ascii	"q_wrptr\000"
ARM GAS  /tmp/ccn3cifU.s 			page 88


 4776      70747200 
 4777              	.LASF140:
 4778 03c9 5F6C7063 		.ascii	"_lpc17xx_dma_channel_config_t\000"
 4778      31377878 
 4778      5F646D61 
 4778      5F636861 
 4778      6E6E656C 
 4779              	.LASF177:
 4780 03e7 53657269 		.ascii	"SerialDriverVMT\000"
 4780      616C4472 
 4780      69766572 
 4780      564D5400 
 4781              	.LASF186:
 4782 03f7 73645374 		.ascii	"sdStart\000"
 4782      61727400 
 4783              	.LASF154:
 4784 03ff 636C6F63 		.ascii	"clock\000"
 4784      6B00
 4785              	.LASF159:
 4786 0405 47505443 		.ascii	"GPTConfig\000"
 4786      6F6E6669 
 4786      6700
 4787              	.LASF203:
 4788 040f 73645F6C 		.ascii	"sd_lld_init\000"
 4788      6C645F69 
 4788      6E697400 
 4789              	.LASF209:
 4790 041b 2E2E2F2E 		.ascii	"../../os/hal/src/serial.c\000"
 4790      2E2F6F73 
 4790      2F68616C 
 4790      2F737263 
 4790      2F736572 
 4791              	.LASF109:
 4792 0435 63665F6F 		.ascii	"cf_off_preempt\000"
 4792      66665F70 
 4792      7265656D 
 4792      707400
 4793              	.LASF12:
 4794 0444 5F5F7569 		.ascii	"__uint32_t\000"
 4794      6E743332 
 4794      5F7400
 4795              	.LASF77:
 4796 044f 4D757465 		.ascii	"Mutex\000"
 4796      7800
 4797              	.LASF184:
 4798 0455 7364496E 		.ascii	"sdIncomingDataI\000"
 4798      636F6D69 
 4798      6E674461 
 4798      74614900 
 4799              	.LASF1:
 4800 0465 6C6F6E67 		.ascii	"long long int\000"
 4800      206C6F6E 
 4800      6720696E 
 4800      7400
 4801              	.LASF96:
 4802 0473 63685F76 		.ascii	"ch_version\000"
 4802      65727369 
ARM GAS  /tmp/ccn3cifU.s 			page 89


 4802      6F6E00
 4803              	.LASF78:
 4804 047e 6D5F7175 		.ascii	"m_queue\000"
 4804      65756500 
 4805              	.LASF151:
 4806 0486 47505444 		.ascii	"GPTDriver\000"
 4806      72697665 
 4806      7200
 4807              	.LASF61:
 4808 0490 76745F6E 		.ascii	"vt_next\000"
 4808      65787400 
 4809              	.LASF126:
 4810 0498 49544D5F 		.ascii	"ITM_RxBuffer\000"
 4810      52784275 
 4810      66666572 
 4810      00
 4811              	.LASF157:
 4812 04a5 66726571 		.ascii	"frequency\000"
 4812      75656E63 
 4812      7900
 4813              	.LASF192:
 4814 04af 74696D65 		.ascii	"timeout\000"
 4814      6F757400 
 4815              	.LASF122:
 4816 04b7 716E6F74 		.ascii	"qnotify_t\000"
 4816      6966795F 
 4816      7400
 4817              	.LASF149:
 4818 04c1 4750545F 		.ascii	"GPT_ONESHOT\000"
 4818      4F4E4553 
 4818      484F5400 
 4819              	.LASF45:
 4820 04cd 705F7761 		.ascii	"p_waiting\000"
 4820      6974696E 
 4820      6700
 4821              	.LASF169:
 4822 04d7 6576656E 		.ascii	"event\000"
 4822      7400
 4823              	.LASF41:
 4824 04dd 705F666C 		.ascii	"p_flags\000"
 4824      61677300 
 4825              	.LASF179:
 4826 04e5 72656164 		.ascii	"read\000"
 4826      00
 4827              	.LASF0:
 4828 04ea 756E7369 		.ascii	"unsigned int\000"
 4828      676E6564 
 4828      20696E74 
 4828      00
 4829              	.LASF105:
 4830 04f7 63665F6F 		.ascii	"cf_off_stklimit\000"
 4830      66665F73 
 4830      746B6C69 
 4830      6D697400 
 4831              	.LASF51:
 4832 0507 705F6D70 		.ascii	"p_mpool\000"
 4832      6F6F6C00 
ARM GAS  /tmp/ccn3cifU.s 			page 90


 4833              	.LASF42:
 4834 050f 705F7265 		.ascii	"p_refs\000"
 4834      667300
 4835              	.LASF98:
 4836 0516 63685F74 		.ascii	"ch_timesize\000"
 4836      696D6573 
 4836      697A6500 
 4837              	.LASF193:
 4838 0522 63684F51 		.ascii	"chOQGetI\000"
 4838      47657449 
 4838      00
 4839              	.LASF208:
 4840 052b 474E5520 		.ascii	"GNU C11 6.3.1 20170620 -mcpu=cortex-m3 -mno-thumb-i"
 4840      43313120 
 4840      362E332E 
 4840      31203230 
 4840      31373036 
 4841 055e 6E746572 		.ascii	"nterwork -mthumb -ggdb -O2 -fomit-frame-pointer -ff"
 4841      776F726B 
 4841      202D6D74 
 4841      68756D62 
 4841      202D6767 
 4842 0591 756E6374 		.ascii	"unction-sections -fdata-sections -fno-common\000"
 4842      696F6E2D 
 4842      73656374 
 4842      696F6E73 
 4842      202D6664 
 4843              	.LASF173:
 4844 05be 73635F73 		.ascii	"sc_speed\000"
 4844      70656564 
 4844      00
 4845              	.LASF53:
 4846 05c7 54687265 		.ascii	"ThreadsList\000"
 4846      6164734C 
 4846      69737400 
 4847              	.LASF30:
 4848 05d3 666C6167 		.ascii	"flagsmask_t\000"
 4848      736D6173 
 4848      6B5F7400 
 4849              	.LASF44:
 4850 05df 705F7469 		.ascii	"p_time\000"
 4850      6D6500
 4851              	.LASF108:
 4852 05e6 63665F6F 		.ascii	"cf_off_refs\000"
 4852      66665F72 
 4852      65667300 
 4853              	.LASF131:
 4854 05f2 4C50435F 		.ascii	"LPC_TIM_TypeDef\000"
 4854      54494D5F 
 4854      54797065 
 4854      44656600 
 4855              	.LASF185:
 4856 0602 73645374 		.ascii	"sdStop\000"
 4856      6F7000
 4857              	.LASF175:
 4858 0609 73635F66 		.ascii	"sc_fcr\000"
 4858      637200
ARM GAS  /tmp/ccn3cifU.s 			page 91


 4859              	.LASF194:
 4860 0610 63684576 		.ascii	"chEvtBroadcastFlagsI\000"
 4860      7442726F 
 4860      61646361 
 4860      7374466C 
 4860      61677349 
 4861              	.LASF202:
 4862 0625 63684F51 		.ascii	"chOQInit\000"
 4862      496E6974 
 4862      00
 4863              	.LASF2:
 4864 062e 6C6F6E67 		.ascii	"long double\000"
 4864      20646F75 
 4864      626C6500 
 4865              	.LASF50:
 4866 063a 705F7265 		.ascii	"p_realprio\000"
 4866      616C7072 
 4866      696F00
 4867              	.LASF110:
 4868 0645 63665F6F 		.ascii	"cf_off_time\000"
 4868      66665F74 
 4868      696D6500 
 4869              	.LASF210:
 4870 0651 2F686F6D 		.ascii	"/home/ekobayu/Arok-Gandring-Lokajaya/LPC/ChibiOS-RT"
 4870      652F656B 
 4870      6F626179 
 4870      752F4172 
 4870      6F6B2D47 
 4871 0684 2D4C5043 		.ascii	"-LPC/demos/LPC1766\000"
 4871      2F64656D 
 4871      6F732F4C 
 4871      50433137 
 4871      363600
 4872              	.LASF15:
 4873 0697 6C6F6E67 		.ascii	"long long unsigned int\000"
 4873      206C6F6E 
 4873      6720756E 
 4873      7369676E 
 4873      65642069 
 4874              	.LASF38:
 4875 06ae 705F6F6C 		.ascii	"p_older\000"
 4875      64657200 
 4876              	.LASF17:
 4877 06b6 75696E74 		.ascii	"uint16_t\000"
 4877      31365F74 
 4877      00
 4878              	.LASF28:
 4879 06bf 6D73675F 		.ascii	"msg_t\000"
 4879      7400
 4880              	.LASF107:
 4881 06c5 63665F6F 		.ascii	"cf_off_flags\000"
 4881      66665F66 
 4881      6C616773 
 4881      00
 4882              	.LASF26:
 4883 06d2 74736C69 		.ascii	"tslices_t\000"
 4883      6365735F 
ARM GAS  /tmp/ccn3cifU.s 			page 92


 4883      7400
 4884              	.LASF147:
 4885 06dc 4750545F 		.ascii	"GPT_READY\000"
 4885      52454144 
 4885      5900
 4886              	.LASF148:
 4887 06e6 4750545F 		.ascii	"GPT_CONTINUOUS\000"
 4887      434F4E54 
 4887      494E554F 
 4887      555300
 4888              	.LASF73:
 4889 06f5 725F6375 		.ascii	"r_current\000"
 4889      7272656E 
 4889      7400
 4890              	.LASF67:
 4891 06ff 56544C69 		.ascii	"VTList\000"
 4891      737400
 4892              	.LASF133:
 4893 0706 4C50435F 		.ascii	"LPC_UART_TypeDef\000"
 4893      55415254 
 4893      5F547970 
 4893      65446566 
 4893      00
 4894              	.LASF136:
 4895 0717 434C4C49 		.ascii	"CLLI\000"
 4895      00
 4896              	.LASF198:
 4897 071c 63684951 		.ascii	"chIQResetI\000"
 4897      52657365 
 4897      744900
 4898              	.LASF68:
 4899 0727 725F7175 		.ascii	"r_queue\000"
 4899      65756500 
 4900              	.LASF168:
 4901 072f 53657269 		.ascii	"SerialDriver\000"
 4901      616C4472 
 4901      69766572 
 4901      00
 4902              	.LASF191:
 4903 073c 74696D65 		.ascii	"time\000"
 4903      00
 4904              	.LASF114:
 4905 0741 715F7761 		.ascii	"q_waiting\000"
 4905      6974696E 
 4905      6700
 4906              	.LASF76:
 4907 074b 726C6973 		.ascii	"rlist\000"
 4907      7400
 4908              	.LASF23:
 4909 0751 746D6F64 		.ascii	"tmode_t\000"
 4909      655F7400 
 4910              	.LASF167:
 4911 0759 73647374 		.ascii	"sdstate_t\000"
 4911      6174655F 
 4911      7400
 4912              	.LASF66:
 4913 0763 76745F73 		.ascii	"vt_systime\000"
ARM GAS  /tmp/ccn3cifU.s 			page 93


 4913      79737469 
 4913      6D6500
 4914              	.LASF166:
 4915 076e 53445F52 		.ascii	"SD_READY\000"
 4915      45414459 
 4915      00
 4916              	.LASF72:
 4917 0777 725F6F6C 		.ascii	"r_older\000"
 4917      64657200 
 4918              	.LASF211:
 4919 077f 73645265 		.ascii	"sdRequestDataI\000"
 4919      71756573 
 4919      74446174 
 4919      614900
 4920              	.LASF7:
 4921 078e 73686F72 		.ascii	"short int\000"
 4921      7420696E 
 4921      7400
 4922              	.LASF20:
 4923 0798 75696E74 		.ascii	"uint64_t\000"
 4923      36345F74 
 4923      00
 4924              	.LASF199:
 4925 07a1 63685363 		.ascii	"chSchRescheduleS\000"
 4925      68526573 
 4925      63686564 
 4925      756C6553 
 4925      00
 4926              	.LASF172:
 4927 07b2 75617274 		.ascii	"uart\000"
 4927      00
 4928              	.LASF170:
 4929 07b7 69717565 		.ascii	"iqueue\000"
 4929      756500
 4930              	.LASF69:
 4931 07be 725F7072 		.ascii	"r_prio\000"
 4931      696F00
 4932              	.LASF174:
 4933 07c5 73635F6C 		.ascii	"sc_lcr\000"
 4933      637200
 4934              	.LASF142:
 4935 07cc 6C706331 		.ascii	"lpc17xx_gpio_setup_t\000"
 4935      3778785F 
 4935      6770696F 
 4935      5F736574 
 4935      75705F74 
 4936              	.LASF21:
 4937 07e1 626F6F6C 		.ascii	"bool_t\000"
 4937      5F7400
 4938              	.LASF103:
 4939 07e8 63665F6F 		.ascii	"cf_off_older\000"
 4939      66665F6F 
 4939      6C646572 
 4939      00
 4940              	.LASF143:
 4941 07f5 50414C43 		.ascii	"PALConfig\000"
 4941      6F6E6669 
ARM GAS  /tmp/ccn3cifU.s 			page 94


 4941      6700
 4942              	.LASF32:
 4943 07ff 54687265 		.ascii	"Thread\000"
 4943      616400
 4944              	.LASF75:
 4945 0806 76746C69 		.ascii	"vtlist\000"
 4945      737400
 4946              	.LASF138:
 4947 080d 43436F6E 		.ascii	"CConfig\000"
 4947      66696700 
 4948              	.LASF25:
 4949 0815 74726566 		.ascii	"trefs_t\000"
 4949      735F7400 
 4950              	.LASF125:
 4951 081d 5F69646C 		.ascii	"_idle_thread_wa\000"
 4951      655F7468 
 4951      72656164 
 4951      5F776100 
 4952              	.LASF197:
 4953 082d 63684F51 		.ascii	"chOQResetI\000"
 4953      52657365 
 4953      744900
 4954              	.LASF81:
 4955 0838 4576656E 		.ascii	"EventListener\000"
 4955      744C6973 
 4955      74656E65 
 4955      7200
 4956              	.LASF19:
 4957 0846 75696E74 		.ascii	"uint32_t\000"
 4957      33325F74 
 4957      00
 4958              	.LASF60:
 4959 084f 56697274 		.ascii	"VirtualTimer\000"
 4959      75616C54 
 4959      696D6572 
 4959      00
 4960              	.LASF52:
 4961 085c 54687265 		.ascii	"ThreadsQueue\000"
 4961      61647351 
 4961      75657565 
 4961      00
 4962              	.LASF88:
 4963 0869 7264796D 		.ascii	"rdymsg\000"
 4963      736700
 4964              	.LASF146:
 4965 0870 4750545F 		.ascii	"GPT_STOP\000"
 4965      53544F50 
 4965      00
 4966              	.LASF9:
 4967 0879 73686F72 		.ascii	"short unsigned int\000"
 4967      7420756E 
 4967      7369676E 
 4967      65642069 
 4967      6E7400
 4968              	.LASF196:
 4969 088c 73645F6C 		.ascii	"sd_lld_stop\000"
 4969      6C645F73 
ARM GAS  /tmp/ccn3cifU.s 			page 95


 4969      746F7000 
 4970              	.LASF111:
 4971 0898 63686465 		.ascii	"chdebug_t\000"
 4971      6275675F 
 4971      7400
 4972              	.LASF123:
 4973 08a2 496E7075 		.ascii	"InputQueue\000"
 4973      74517565 
 4973      756500
 4974              	.LASF95:
 4975 08ad 63685F73 		.ascii	"ch_size\000"
 4975      697A6500 
 4976              	.LASF10:
 4977 08b5 5F5F696E 		.ascii	"__int32_t\000"
 4977      7433325F 
 4977      7400
 4978              	.LASF165:
 4979 08bf 53445F53 		.ascii	"SD_STOP\000"
 4979      544F5000 
 4980              	.LASF84:
 4981 08c7 656C5F6D 		.ascii	"el_mask\000"
 4981      61736B00 
 4982              	.LASF188:
 4983 08cf 696E6F74 		.ascii	"inotify\000"
 4983      69667900 
 4984              	.LASF74:
 4985 08d7 52656164 		.ascii	"ReadyList\000"
 4985      794C6973 
 4985      7400
 4986              	.LASF39:
 4987 08e1 705F6E61 		.ascii	"p_name\000"
 4987      6D6500
 4988              	.LASF63:
 4989 08e8 76745F74 		.ascii	"vt_time\000"
 4989      696D6500 
 4990              	.LASF141:
 4991 08f0 64617461 		.ascii	"data\000"
 4991      00
 4992              	.LASF80:
 4993 08f5 6D5F6E65 		.ascii	"m_next\000"
 4993      787400
 4994              	.LASF155:
 4995 08fc 67707463 		.ascii	"gptcallback_t\000"
 4995      616C6C62 
 4995      61636B5F 
 4995      7400
 4996              	.LASF47:
 4997 090a 705F6D73 		.ascii	"p_msg\000"
 4997      6700
 4998              	.LASF83:
 4999 0910 656C5F6C 		.ascii	"el_listener\000"
 4999      69737465 
 4999      6E657200 
 5000              	.LASF40:
 5001 091c 705F7374 		.ascii	"p_state\000"
 5001      61746500 
 5002              		.ident	"GCC: (15:6.3.1+svn253039-1build1) 6.3.1 20170620"
ARM GAS  /tmp/ccn3cifU.s 			page 96


ARM GAS  /tmp/ccn3cifU.s 			page 97


DEFINED SYMBOLS
                            *ABS*:0000000000000000 serial.c
     /tmp/ccn3cifU.s:16     .text.readt:0000000000000000 $t
     /tmp/ccn3cifU.s:23     .text.readt:0000000000000000 readt
     /tmp/ccn3cifU.s:41     .text.read:0000000000000000 $t
     /tmp/ccn3cifU.s:48     .text.read:0000000000000000 read
     /tmp/ccn3cifU.s:66     .text.writet:0000000000000000 $t
     /tmp/ccn3cifU.s:73     .text.writet:0000000000000000 writet
     /tmp/ccn3cifU.s:90     .text.write:0000000000000000 $t
     /tmp/ccn3cifU.s:97     .text.write:0000000000000000 write
     /tmp/ccn3cifU.s:115    .text.gett:0000000000000000 $t
     /tmp/ccn3cifU.s:122    .text.gett:0000000000000000 gett
     /tmp/ccn3cifU.s:139    .text.get:0000000000000000 $t
     /tmp/ccn3cifU.s:146    .text.get:0000000000000000 get
     /tmp/ccn3cifU.s:164    .text.putt:0000000000000000 $t
     /tmp/ccn3cifU.s:171    .text.putt:0000000000000000 putt
     /tmp/ccn3cifU.s:188    .text.put:0000000000000000 $t
     /tmp/ccn3cifU.s:195    .text.put:0000000000000000 put
     /tmp/ccn3cifU.s:213    .text.sdInit:0000000000000000 $t
     /tmp/ccn3cifU.s:221    .text.sdInit:0000000000000000 sdInit
     /tmp/ccn3cifU.s:235    .text.sdObjectInit:0000000000000000 $t
     /tmp/ccn3cifU.s:243    .text.sdObjectInit:0000000000000000 sdObjectInit
     /tmp/ccn3cifU.s:302    .text.sdObjectInit:000000000000003c $d
     /tmp/ccn3cifU.s:307    .text.sdStart:0000000000000000 $t
     /tmp/ccn3cifU.s:315    .text.sdStart:0000000000000000 sdStart
     /tmp/ccn3cifU.s:366    .text.sdStop:0000000000000000 $t
     /tmp/ccn3cifU.s:374    .text.sdStop:0000000000000000 sdStop
     /tmp/ccn3cifU.s:434    .text.sdIncomingDataI:0000000000000000 $t
     /tmp/ccn3cifU.s:442    .text.sdIncomingDataI:0000000000000000 sdIncomingDataI
     /tmp/ccn3cifU.s:508    .text.sdRequestDataI:0000000000000000 $t
     /tmp/ccn3cifU.s:516    .text.sdRequestDataI:0000000000000000 sdRequestDataI
     /tmp/ccn3cifU.s:557    .rodata.vmt:0000000000000000 $d
     /tmp/ccn3cifU.s:561    .rodata.vmt:0000000000000000 vmt
                     .debug_frame:0000000000000010 $d

UNDEFINED SYMBOLS
chIQReadTimeout
chOQWriteTimeout
chIQGetTimeout
chOQPutTimeout
sd_lld_init
chIQInit
chOQInit
sd_lld_start
sd_lld_stop
chOQResetI
chIQResetI
chSchRescheduleS
chIQPutI
chEvtBroadcastFlagsI
chOQGetI
