ARM GAS  /tmp/ccn3cifU.s 			page 1


   1              		.cpu cortex-m3
   2              		.eabi_attribute 20, 1
   3              		.eabi_attribute 21, 1
   4              		.eabi_attribute 23, 3
   5              		.eabi_attribute 24, 1
   6              		.eabi_attribute 25, 1
   7              		.eabi_attribute 26, 1
   8              		.eabi_attribute 30, 2
   9              		.eabi_attribute 34, 1
  10              		.eabi_attribute 18, 4
  11              		.file	"serial.c"
  12              		.text
  13              	.Ltext0:
  14              		.cfi_sections	.debug_frame
  15              		.section	.text.readt,"ax",%progbits
  16              		.align	1
  17              		.p2align 2,,3
  18              		.syntax unified
  19              		.thumb
  20              		.thumb_func
  21              		.fpu softvfp
  22              		.type	readt, %function
  23              	readt:
  24              	.LFB70:
  25              		.file 1 "../../os/hal/src/serial.c"
  26              		.loc 1 92 0
  27              		.cfi_startproc
  28              		@ args = 0, pretend = 0, frame = 0
  29              		@ frame_needed = 0, uses_anonymous_args = 0
  30              		@ link register save eliminated.
  31              	.LVL0:
  32              		.loc 1 94 0
  33 0000 0C30     		adds	r0, r0, #12
  34              	.LVL1:
  35 0002 FFF7FEBF 		b	chIQReadTimeout
  36              	.LVL2:
  37              		.cfi_endproc
  38              	.LFE70:
  39              		.size	readt, .-readt
  40 0006 00BF     		.section	.text.read,"ax",%progbits
  41              		.align	1
  42              		.p2align 2,,3
  43              		.syntax unified
  44              		.thumb
  45              		.thumb_func
  46              		.fpu softvfp
  47              		.type	read, %function
  48              	read:
  49              	.LFB64:
  50              		.loc 1 61 0
  51              		.cfi_startproc
  52              		@ args = 0, pretend = 0, frame = 0
  53              		@ frame_needed = 0, uses_anonymous_args = 0
  54              		@ link register save eliminated.
  55              	.LVL3:
  56              		.loc 1 63 0
  57 0000 0C30     		adds	r0, r0, #12
ARM GAS  /tmp/ccn3cifU.s 			page 2


  58              	.LVL4:
  59 0002 4FF0FF33 		mov	r3, #-1
  60 0006 FFF7FEBF 		b	chIQReadTimeout
  61              	.LVL5:
  62              		.cfi_endproc
  63              	.LFE64:
  64              		.size	read, .-read
  65 000a 00BF     		.section	.text.writet,"ax",%progbits
  66              		.align	1
  67              		.p2align 2,,3
  68              		.syntax unified
  69              		.thumb
  70              		.thumb_func
  71              		.fpu softvfp
  72              		.type	writet, %function
  73              	writet:
  74              	.LFB69:
  75              		.loc 1 87 0
  76              		.cfi_startproc
  77              		@ args = 0, pretend = 0, frame = 0
  78              		@ frame_needed = 0, uses_anonymous_args = 0
  79              		@ link register save eliminated.
  80              	.LVL6:
  81              		.loc 1 89 0
  82 0000 3030     		adds	r0, r0, #48
  83              	.LVL7:
  84 0002 FFF7FEBF 		b	chOQWriteTimeout
  85              	.LVL8:
  86              		.cfi_endproc
  87              	.LFE69:
  88              		.size	writet, .-writet
  89 0006 00BF     		.section	.text.write,"ax",%progbits
  90              		.align	1
  91              		.p2align 2,,3
  92              		.syntax unified
  93              		.thumb
  94              		.thumb_func
  95              		.fpu softvfp
  96              		.type	write, %function
  97              	write:
  98              	.LFB63:
  99              		.loc 1 55 0
 100              		.cfi_startproc
 101              		@ args = 0, pretend = 0, frame = 0
 102              		@ frame_needed = 0, uses_anonymous_args = 0
 103              		@ link register save eliminated.
 104              	.LVL9:
 105              		.loc 1 57 0
 106 0000 3030     		adds	r0, r0, #48
 107              	.LVL10:
 108 0002 4FF0FF33 		mov	r3, #-1
 109 0006 FFF7FEBF 		b	chOQWriteTimeout
 110              	.LVL11:
 111              		.cfi_endproc
 112              	.LFE63:
 113              		.size	write, .-write
 114 000a 00BF     		.section	.text.gett,"ax",%progbits
ARM GAS  /tmp/ccn3cifU.s 			page 3


 115              		.align	1
 116              		.p2align 2,,3
 117              		.syntax unified
 118              		.thumb
 119              		.thumb_func
 120              		.fpu softvfp
 121              		.type	gett, %function
 122              	gett:
 123              	.LFB68:
 124              		.loc 1 82 0
 125              		.cfi_startproc
 126              		@ args = 0, pretend = 0, frame = 0
 127              		@ frame_needed = 0, uses_anonymous_args = 0
 128              		@ link register save eliminated.
 129              	.LVL12:
 130              		.loc 1 84 0
 131 0000 0C30     		adds	r0, r0, #12
 132              	.LVL13:
 133 0002 FFF7FEBF 		b	chIQGetTimeout
 134              	.LVL14:
 135              		.cfi_endproc
 136              	.LFE68:
 137              		.size	gett, .-gett
 138 0006 00BF     		.section	.text.get,"ax",%progbits
 139              		.align	1
 140              		.p2align 2,,3
 141              		.syntax unified
 142              		.thumb
 143              		.thumb_func
 144              		.fpu softvfp
 145              		.type	get, %function
 146              	get:
 147              	.LFB66:
 148              		.loc 1 72 0
 149              		.cfi_startproc
 150              		@ args = 0, pretend = 0, frame = 0
 151              		@ frame_needed = 0, uses_anonymous_args = 0
 152              		@ link register save eliminated.
 153              	.LVL15:
 154              		.loc 1 74 0
 155 0000 0C30     		adds	r0, r0, #12
 156              	.LVL16:
 157 0002 4FF0FF31 		mov	r1, #-1
 158 0006 FFF7FEBF 		b	chIQGetTimeout
 159              	.LVL17:
 160              		.cfi_endproc
 161              	.LFE66:
 162              		.size	get, .-get
 163 000a 00BF     		.section	.text.putt,"ax",%progbits
 164              		.align	1
 165              		.p2align 2,,3
 166              		.syntax unified
 167              		.thumb
 168              		.thumb_func
 169              		.fpu softvfp
 170              		.type	putt, %function
 171              	putt:
ARM GAS  /tmp/ccn3cifU.s 			page 4


 172              	.LFB67:
 173              		.loc 1 77 0
 174              		.cfi_startproc
 175              		@ args = 0, pretend = 0, frame = 0
 176              		@ frame_needed = 0, uses_anonymous_args = 0
 177              		@ link register save eliminated.
 178              	.LVL18:
 179              		.loc 1 79 0
 180 0000 3030     		adds	r0, r0, #48
 181              	.LVL19:
 182 0002 FFF7FEBF 		b	chOQPutTimeout
 183              	.LVL20:
 184              		.cfi_endproc
 185              	.LFE67:
 186              		.size	putt, .-putt
 187 0006 00BF     		.section	.text.put,"ax",%progbits
 188              		.align	1
 189              		.p2align 2,,3
 190              		.syntax unified
 191              		.thumb
 192              		.thumb_func
 193              		.fpu softvfp
 194              		.type	put, %function
 195              	put:
 196              	.LFB65:
 197              		.loc 1 67 0
 198              		.cfi_startproc
 199              		@ args = 0, pretend = 0, frame = 0
 200              		@ frame_needed = 0, uses_anonymous_args = 0
 201              		@ link register save eliminated.
 202              	.LVL21:
 203              		.loc 1 69 0
 204 0000 3030     		adds	r0, r0, #48
 205              	.LVL22:
 206 0002 4FF0FF32 		mov	r2, #-1
 207 0006 FFF7FEBF 		b	chOQPutTimeout
 208              	.LVL23:
 209              		.cfi_endproc
 210              	.LFE65:
 211              		.size	put, .-put
 212 000a 00BF     		.section	.text.sdInit,"ax",%progbits
 213              		.align	1
 214              		.p2align 2,,3
 215              		.global	sdInit
 216              		.syntax unified
 217              		.thumb
 218              		.thumb_func
 219              		.fpu softvfp
 220              		.type	sdInit, %function
 221              	sdInit:
 222              	.LFB71:
 223              		.loc 1 113 0
 224              		.cfi_startproc
 225              		@ args = 0, pretend = 0, frame = 0
 226              		@ frame_needed = 0, uses_anonymous_args = 0
 227              		@ link register save eliminated.
 228              		.loc 1 115 0
ARM GAS  /tmp/ccn3cifU.s 			page 5


 229 0000 FFF7FEBF 		b	sd_lld_init
 230              	.LVL24:
 231              		.cfi_endproc
 232              	.LFE71:
 233              		.size	sdInit, .-sdInit
 234              		.section	.text.sdObjectInit,"ax",%progbits
 235              		.align	1
 236              		.p2align 2,,3
 237              		.global	sdObjectInit
 238              		.syntax unified
 239              		.thumb
 240              		.thumb_func
 241              		.fpu softvfp
 242              		.type	sdObjectInit, %function
 243              	sdObjectInit:
 244              	.LFB72:
 245              		.loc 1 133 0
 246              		.cfi_startproc
 247              		@ args = 0, pretend = 0, frame = 0
 248              		@ frame_needed = 0, uses_anonymous_args = 0
 249              	.LVL25:
 250 0000 70B5     		push	{r4, r5, r6, lr}
 251              		.cfi_def_cfa_offset 16
 252              		.cfi_offset 4, -16
 253              		.cfi_offset 5, -12
 254              		.cfi_offset 6, -8
 255              		.cfi_offset 14, -4
 256 0002 0446     		mov	r4, r0
 257              		.loc 1 137 0
 258 0004 0126     		movs	r6, #1
 259              		.loc 1 133 0
 260 0006 1546     		mov	r5, r2
 261              		.loc 1 135 0
 262 0008 0C4B     		ldr	r3, .L12
 263              		.loc 1 133 0
 264 000a 82B0     		sub	sp, sp, #8
 265              		.cfi_def_cfa_offset 24
 266              		.loc 1 138 0
 267 000c 0090     		str	r0, [sp]
 268              		.loc 1 135 0
 269 000e 40F8043B 		str	r3, [r0], #4
 270              	.LVL26:
 271              		.loc 1 136 0
 272 0012 6060     		str	r0, [r4, #4]
 273              		.loc 1 138 0
 274 0014 0B46     		mov	r3, r1
 275 0016 04F10C00 		add	r0, r4, #12
 276 001a 04F15401 		add	r1, r4, #84
 277              	.LVL27:
 278              		.loc 1 137 0
 279 001e 2672     		strb	r6, [r4, #8]
 280              		.loc 1 138 0
 281 0020 1022     		movs	r2, #16
 282              	.LVL28:
 283 0022 FFF7FEFF 		bl	chIQInit
 284              	.LVL29:
 285              		.loc 1 139 0
ARM GAS  /tmp/ccn3cifU.s 			page 6


 286 0026 0094     		str	r4, [sp]
 287 0028 2B46     		mov	r3, r5
 288 002a 04F16401 		add	r1, r4, #100
 289 002e 04F13000 		add	r0, r4, #48
 290 0032 1022     		movs	r2, #16
 291 0034 FFF7FEFF 		bl	chOQInit
 292              	.LVL30:
 293              		.loc 1 140 0
 294 0038 02B0     		add	sp, sp, #8
 295              		.cfi_def_cfa_offset 16
 296              		@ sp needed
 297 003a 70BD     		pop	{r4, r5, r6, pc}
 298              	.LVL31:
 299              	.L13:
 300              		.align	2
 301              	.L12:
 302 003c 00000000 		.word	.LANCHOR0
 303              		.cfi_endproc
 304              	.LFE72:
 305              		.size	sdObjectInit, .-sdObjectInit
 306              		.section	.text.sdStart,"ax",%progbits
 307              		.align	1
 308              		.p2align 2,,3
 309              		.global	sdStart
 310              		.syntax unified
 311              		.thumb
 312              		.thumb_func
 313              		.fpu softvfp
 314              		.type	sdStart, %function
 315              	sdStart:
 316              	.LFB73:
 317              		.loc 1 152 0
 318              		.cfi_startproc
 319              		@ args = 0, pretend = 0, frame = 0
 320              		@ frame_needed = 0, uses_anonymous_args = 0
 321              	.LVL32:
 322 0000 10B5     		push	{r4, lr}
 323              		.cfi_def_cfa_offset 8
 324              		.cfi_offset 4, -8
 325              		.cfi_offset 14, -4
 326              	.LBB2:
 327              		.loc 1 156 0
 328 0002 4023     		movs	r3, #64
 329              	.LBE2:
 330              		.loc 1 152 0
 331 0004 0446     		mov	r4, r0
 332              	.LBB3:
 333              		.loc 1 156 0
 334              		.syntax unified
 335              	@ 156 "../../os/hal/src/serial.c" 1
 336 0006 83F31188 		msr     BASEPRI, r3
 337              	@ 0 "" 2
 338              		.thumb
 339              		.syntax unified
 340              	.LBE3:
 341              		.loc 1 160 0
 342 000a FFF7FEFF 		bl	sd_lld_start
ARM GAS  /tmp/ccn3cifU.s 			page 7


 343              	.LVL33:
 344              		.loc 1 161 0
 345 000e 0222     		movs	r2, #2
 346              	.LBB4:
 347              		.loc 1 162 0
 348 0010 0023     		movs	r3, #0
 349              	.LBE4:
 350              		.loc 1 161 0
 351 0012 2272     		strb	r2, [r4, #8]
 352              	.LBB5:
 353              		.loc 1 162 0
 354              		.syntax unified
 355              	@ 162 "../../os/hal/src/serial.c" 1
 356 0014 83F31188 		msr     BASEPRI, r3
 357              	@ 0 "" 2
 358              		.thumb
 359              		.syntax unified
 360 0018 10BD     		pop	{r4, pc}
 361              	.LBE5:
 362              		.cfi_endproc
 363              	.LFE73:
 364              		.size	sdStart, .-sdStart
 365 001a 00BF     		.section	.text.sdStop,"ax",%progbits
 366              		.align	1
 367              		.p2align 2,,3
 368              		.global	sdStop
 369              		.syntax unified
 370              		.thumb
 371              		.thumb_func
 372              		.fpu softvfp
 373              		.type	sdStop, %function
 374              	sdStop:
 375              	.LFB74:
 376              		.loc 1 174 0
 377              		.cfi_startproc
 378              		@ args = 0, pretend = 0, frame = 0
 379              		@ frame_needed = 0, uses_anonymous_args = 0
 380              	.LVL34:
 381 0000 10B5     		push	{r4, lr}
 382              		.cfi_def_cfa_offset 8
 383              		.cfi_offset 4, -8
 384              		.cfi_offset 14, -4
 385              	.LBB6:
 386              		.loc 1 178 0
 387 0002 4023     		movs	r3, #64
 388              	.LBE6:
 389              		.loc 1 174 0
 390 0004 0446     		mov	r4, r0
 391              	.LBB7:
 392              		.loc 1 178 0
 393              		.syntax unified
 394              	@ 178 "../../os/hal/src/serial.c" 1
 395 0006 83F31188 		msr     BASEPRI, r3
 396              	@ 0 "" 2
 397              		.thumb
 398              		.syntax unified
 399              	.LBE7:
ARM GAS  /tmp/ccn3cifU.s 			page 8


 400              		.loc 1 182 0
 401 000a FFF7FEFF 		bl	sd_lld_stop
 402              	.LVL35:
 403              		.loc 1 183 0
 404 000e 0123     		movs	r3, #1
 405              		.loc 1 184 0
 406 0010 04F13000 		add	r0, r4, #48
 407              		.loc 1 183 0
 408 0014 2372     		strb	r3, [r4, #8]
 409              		.loc 1 184 0
 410 0016 FFF7FEFF 		bl	chOQResetI
 411              	.LVL36:
 412              		.loc 1 185 0
 413 001a 04F10C00 		add	r0, r4, #12
 414 001e FFF7FEFF 		bl	chIQResetI
 415              	.LVL37:
 416              		.loc 1 186 0
 417 0022 FFF7FEFF 		bl	chSchRescheduleS
 418              	.LVL38:
 419              	.LBB8:
 420              		.loc 1 187 0
 421 0026 0023     		movs	r3, #0
 422              		.syntax unified
 423              	@ 187 "../../os/hal/src/serial.c" 1
 424 0028 83F31188 		msr     BASEPRI, r3
 425              	@ 0 "" 2
 426              		.thumb
 427              		.syntax unified
 428 002c 10BD     		pop	{r4, pc}
 429              	.LBE8:
 430              		.cfi_endproc
 431              	.LFE74:
 432              		.size	sdStop, .-sdStop
 433 002e 00BF     		.section	.text.sdIncomingDataI,"ax",%progbits
 434              		.align	1
 435              		.p2align 2,,3
 436              		.global	sdIncomingDataI
 437              		.syntax unified
 438              		.thumb
 439              		.thumb_func
 440              		.fpu softvfp
 441              		.type	sdIncomingDataI, %function
 442              	sdIncomingDataI:
 443              	.LFB75:
 444              		.loc 1 206 0
 445              		.cfi_startproc
 446              		@ args = 0, pretend = 0, frame = 0
 447              		@ frame_needed = 0, uses_anonymous_args = 0
 448              	.LVL39:
 449 0000 38B5     		push	{r3, r4, r5, lr}
 450              		.cfi_def_cfa_offset 16
 451              		.cfi_offset 3, -16
 452              		.cfi_offset 4, -12
 453              		.cfi_offset 5, -8
 454              		.cfi_offset 14, -4
 455              		.loc 1 211 0
 456 0002 4369     		ldr	r3, [r0, #20]
ARM GAS  /tmp/ccn3cifU.s 			page 9


 457              		.loc 1 206 0
 458 0004 0446     		mov	r4, r0
 459 0006 0D46     		mov	r5, r1
 460              		.loc 1 211 0
 461 0008 3BB1     		cbz	r3, .L23
 462              		.loc 1 213 0
 463 000a 2946     		mov	r1, r5
 464              	.LVL40:
 465 000c 04F10C00 		add	r0, r4, #12
 466              	.LVL41:
 467 0010 FFF7FEFF 		bl	chIQPutI
 468              	.LVL42:
 469 0014 0028     		cmp	r0, #0
 470 0016 0BDB     		blt	.L24
 471              	.L18:
 472 0018 38BD     		pop	{r3, r4, r5, pc}
 473              	.LVL43:
 474              	.L23:
 475              		.loc 1 212 0
 476 001a 0421     		movs	r1, #4
 477              	.LVL44:
 478 001c 0844     		add	r0, r0, r1
 479              	.LVL45:
 480 001e FFF7FEFF 		bl	chEvtBroadcastFlagsI
 481              	.LVL46:
 482              		.loc 1 213 0
 483 0022 2946     		mov	r1, r5
 484 0024 04F10C00 		add	r0, r4, #12
 485 0028 FFF7FEFF 		bl	chIQPutI
 486              	.LVL47:
 487 002c 0028     		cmp	r0, #0
 488 002e F3DA     		bge	.L18
 489              	.L24:
 490              		.loc 1 214 0
 491 0030 201D     		adds	r0, r4, #4
 492 0032 8021     		movs	r1, #128
 493              		.loc 1 215 0
 494 0034 BDE83840 		pop	{r3, r4, r5, lr}
 495              		.cfi_restore 14
 496              		.cfi_restore 5
 497              		.cfi_restore 4
 498              		.cfi_restore 3
 499              		.cfi_def_cfa_offset 0
 500              	.LVL48:
 501              		.loc 1 214 0
 502 0038 FFF7FEBF 		b	chEvtBroadcastFlagsI
 503              	.LVL49:
 504              		.cfi_endproc
 505              	.LFE75:
 506              		.size	sdIncomingDataI, .-sdIncomingDataI
 507              		.section	.text.sdRequestDataI,"ax",%progbits
 508              		.align	1
 509              		.p2align 2,,3
 510              		.global	sdRequestDataI
 511              		.syntax unified
 512              		.thumb
 513              		.thumb_func
ARM GAS  /tmp/ccn3cifU.s 			page 10


 514              		.fpu softvfp
 515              		.type	sdRequestDataI, %function
 516              	sdRequestDataI:
 517              	.LFB76:
 518              		.loc 1 232 0
 519              		.cfi_startproc
 520              		@ args = 0, pretend = 0, frame = 0
 521              		@ frame_needed = 0, uses_anonymous_args = 0
 522              	.LVL50:
 523 0000 38B5     		push	{r3, r4, r5, lr}
 524              		.cfi_def_cfa_offset 16
 525              		.cfi_offset 3, -16
 526              		.cfi_offset 4, -12
 527              		.cfi_offset 5, -8
 528              		.cfi_offset 14, -4
 529              		.loc 1 232 0
 530 0002 0446     		mov	r4, r0
 531              		.loc 1 238 0
 532 0004 3030     		adds	r0, r0, #48
 533              	.LVL51:
 534 0006 FFF7FEFF 		bl	chOQGetI
 535              	.LVL52:
 536              		.loc 1 239 0
 537 000a 051E     		subs	r5, r0, #0
 538 000c 01DB     		blt	.L28
 539              		.loc 1 242 0
 540 000e 2846     		mov	r0, r5
 541 0010 38BD     		pop	{r3, r4, r5, pc}
 542              	.LVL53:
 543              	.L28:
 544              		.loc 1 240 0
 545 0012 201D     		adds	r0, r4, #4
 546              	.LVL54:
 547 0014 0821     		movs	r1, #8
 548 0016 FFF7FEFF 		bl	chEvtBroadcastFlagsI
 549              	.LVL55:
 550              		.loc 1 242 0
 551 001a 2846     		mov	r0, r5
 552 001c 38BD     		pop	{r3, r4, r5, pc}
 553              		.cfi_endproc
 554              	.LFE76:
 555              		.size	sdRequestDataI, .-sdRequestDataI
 556 001e 00BF     		.section	.rodata.vmt,"a",%progbits
 557              		.align	2
 558              		.set	.LANCHOR0,. + 0
 559              		.type	vmt, %object
 560              		.size	vmt, 32
 561              	vmt:
 562 0000 00000000 		.word	write
 563 0004 00000000 		.word	read
 564 0008 00000000 		.word	put
 565 000c 00000000 		.word	get
 566 0010 00000000 		.word	putt
 567 0014 00000000 		.word	gett
 568 0018 00000000 		.word	writet
 569 001c 00000000 		.word	readt
 570              		.text
ARM GAS  /tmp/ccn3cifU.s 			page 11


 571              	.Letext0:
 572              		.file 2 "/usr/lib/gcc/arm-none-eabi/6.3.1/include/stddef.h"
 573              		.file 3 "/usr/include/newlib/machine/_default_types.h"
 574              		.file 4 "/usr/include/newlib/sys/_stdint.h"
 575              		.file 5 "../../os/ports/GCC/ARMCMx/chtypes.h"
 576              		.file 6 "../../os/kernel/include/chlists.h"
 577              		.file 7 "../../os/kernel/include/chthreads.h"
 578              		.file 8 "../../os/ports/GCC/ARMCMx/chcore_v7m.h"
 579              		.file 9 "../../os/kernel/include/chvt.h"
 580              		.file 10 "../../os/kernel/include/chschd.h"
 581              		.file 11 "../../os/kernel/include/chmtx.h"
 582              		.file 12 "../../os/kernel/include/chevents.h"
 583              		.file 13 "../../os/kernel/include/chregistry.h"
 584              		.file 14 "../../os/kernel/include/chqueues.h"
 585              		.file 15 "../../os/kernel/include/ch.h"
 586              		.file 16 "../../os/ports/common/ARMCMx/CMSIS/include/core_cm3.h"
 587              		.file 17 "../../os/hal/platforms/LPC17xx/system_LPC17xx.h"
 588              		.file 18 "../../os/hal/platforms/LPC17xx/LPC17xx.h"
 589              		.file 19 "../../os/hal/platforms/LPC17xx/lpc17xx_dma.h"
 590              		.file 20 "../../os/hal/platforms/LPC17xx/pal_lld.h"
 591              		.file 21 "../../os/hal/include/gpt.h"
 592              		.file 22 "../../os/hal/platforms/LPC17xx/gpt_lld.h"
 593              		.file 23 "../../os/hal/include/serial.h"
 594              		.file 24 "../../os/hal/platforms/LPC17xx/serial_lld.h"