ARM GAS  /tmp/cci2Fd8k.s 			page 1


   1              		.cpu cortex-m3
   2              		.eabi_attribute 20, 1
   3              		.eabi_attribute 21, 1
   4              		.eabi_attribute 23, 3
   5              		.eabi_attribute 24, 1
   6              		.eabi_attribute 25, 1
   7              		.eabi_attribute 26, 1
   8              		.eabi_attribute 30, 2
   9              		.eabi_attribute 34, 1
  10              		.eabi_attribute 18, 4
  11              		.file	"spi.c"
  12              		.text
  13              	.Ltext0:
  14              		.cfi_sections	.debug_frame
  15              		.section	.text.spiInit,"ax",%progbits
  16              		.align	1
  17              		.p2align 2,,3
  18              		.global	spiInit
  19              		.syntax unified
  20              		.thumb
  21              		.thumb_func
  22              		.fpu softvfp
  23              		.type	spiInit, %function
  24              	spiInit:
  25              	.LFB63:
  26              		.file 1 "../../os/hal/src/spi.c"
  27              		.loc 1 61 0
  28              		.cfi_startproc
  29              		@ args = 0, pretend = 0, frame = 0
  30              		@ frame_needed = 0, uses_anonymous_args = 0
  31              		@ link register save eliminated.
  32              		.loc 1 63 0
  33 0000 FFF7FEBF 		b	spi_lld_init
  34              	.LVL0:
  35              		.cfi_endproc
  36              	.LFE63:
  37              		.size	spiInit, .-spiInit
  38              		.section	.text.spiObjectInit,"ax",%progbits
  39              		.align	1
  40              		.p2align 2,,3
  41              		.global	spiObjectInit
  42              		.syntax unified
  43              		.thumb
  44              		.thumb_func
  45              		.fpu softvfp
  46              		.type	spiObjectInit, %function
  47              	spiObjectInit:
  48              	.LFB64:
  49              		.loc 1 73 0
  50              		.cfi_startproc
  51              		@ args = 0, pretend = 0, frame = 0
  52              		@ frame_needed = 0, uses_anonymous_args = 0
  53              		@ link register save eliminated.
  54              	.LVL1:
  55              		.loc 1 76 0
  56 0000 0023     		movs	r3, #0
  57              		.loc 1 75 0
ARM GAS  /tmp/cci2Fd8k.s 			page 2


  58 0002 0122     		movs	r2, #1
  59              		.loc 1 76 0
  60 0004 4360     		str	r3, [r0, #4]
  61              		.loc 1 75 0
  62 0006 0270     		strb	r2, [r0]
  63              		.loc 1 78 0
  64 0008 8360     		str	r3, [r0, #8]
  65              		.loc 1 82 0
  66 000a 0C30     		adds	r0, r0, #12
  67              	.LVL2:
  68 000c FFF7FEBF 		b	chMtxInit
  69              	.LVL3:
  70              		.cfi_endproc
  71              	.LFE64:
  72              		.size	spiObjectInit, .-spiObjectInit
  73              		.section	.text.spiStart,"ax",%progbits
  74              		.align	1
  75              		.p2align 2,,3
  76              		.global	spiStart
  77              		.syntax unified
  78              		.thumb
  79              		.thumb_func
  80              		.fpu softvfp
  81              		.type	spiStart, %function
  82              	spiStart:
  83              	.LFB65:
  84              		.loc 1 100 0
  85              		.cfi_startproc
  86              		@ args = 0, pretend = 0, frame = 0
  87              		@ frame_needed = 0, uses_anonymous_args = 0
  88              	.LVL4:
  89 0000 10B5     		push	{r4, lr}
  90              		.cfi_def_cfa_offset 8
  91              		.cfi_offset 4, -8
  92              		.cfi_offset 14, -4
  93              	.LBB2:
  94              		.loc 1 104 0
  95 0002 4023     		movs	r3, #64
  96              	.LBE2:
  97              		.loc 1 100 0
  98 0004 0446     		mov	r4, r0
  99              	.LBB3:
 100              		.loc 1 104 0
 101              		.syntax unified
 102              	@ 104 "../../os/hal/src/spi.c" 1
 103 0006 83F31188 		msr     BASEPRI, r3
 104              	@ 0 "" 2
 105              		.thumb
 106              		.syntax unified
 107              	.LBE3:
 108              		.loc 1 107 0
 109 000a 4160     		str	r1, [r0, #4]
 110              		.loc 1 108 0
 111 000c FFF7FEFF 		bl	spi_lld_start
 112              	.LVL5:
 113              		.loc 1 109 0
 114 0010 0222     		movs	r2, #2
ARM GAS  /tmp/cci2Fd8k.s 			page 3


 115              	.LBB4:
 116              		.loc 1 110 0
 117 0012 0023     		movs	r3, #0
 118              	.LBE4:
 119              		.loc 1 109 0
 120 0014 2270     		strb	r2, [r4]
 121              	.LBB5:
 122              		.loc 1 110 0
 123              		.syntax unified
 124              	@ 110 "../../os/hal/src/spi.c" 1
 125 0016 83F31188 		msr     BASEPRI, r3
 126              	@ 0 "" 2
 127              		.thumb
 128              		.syntax unified
 129 001a 10BD     		pop	{r4, pc}
 130              	.LBE5:
 131              		.cfi_endproc
 132              	.LFE65:
 133              		.size	spiStart, .-spiStart
 134              		.section	.text.spiStop,"ax",%progbits
 135              		.align	1
 136              		.p2align 2,,3
 137              		.global	spiStop
 138              		.syntax unified
 139              		.thumb
 140              		.thumb_func
 141              		.fpu softvfp
 142              		.type	spiStop, %function
 143              	spiStop:
 144              	.LFB66:
 145              		.loc 1 122 0
 146              		.cfi_startproc
 147              		@ args = 0, pretend = 0, frame = 0
 148              		@ frame_needed = 0, uses_anonymous_args = 0
 149              	.LVL6:
 150 0000 10B5     		push	{r4, lr}
 151              		.cfi_def_cfa_offset 8
 152              		.cfi_offset 4, -8
 153              		.cfi_offset 14, -4
 154              	.LBB6:
 155              		.loc 1 126 0
 156 0002 4023     		movs	r3, #64
 157              	.LBE6:
 158              		.loc 1 122 0
 159 0004 0446     		mov	r4, r0
 160              	.LBB7:
 161              		.loc 1 126 0
 162              		.syntax unified
 163              	@ 126 "../../os/hal/src/spi.c" 1
 164 0006 83F31188 		msr     BASEPRI, r3
 165              	@ 0 "" 2
 166              		.thumb
 167              		.syntax unified
 168              	.LBE7:
 169              		.loc 1 129 0
 170 000a FFF7FEFF 		bl	spi_lld_stop
 171              	.LVL7:
ARM GAS  /tmp/cci2Fd8k.s 			page 4


 172              		.loc 1 130 0
 173 000e 0122     		movs	r2, #1
 174              	.LBB8:
 175              		.loc 1 131 0
 176 0010 0023     		movs	r3, #0
 177              	.LBE8:
 178              		.loc 1 130 0
 179 0012 2270     		strb	r2, [r4]
 180              	.LBB9:
 181              		.loc 1 131 0
 182              		.syntax unified
 183              	@ 131 "../../os/hal/src/spi.c" 1
 184 0014 83F31188 		msr     BASEPRI, r3
 185              	@ 0 "" 2
 186              		.thumb
 187              		.syntax unified
 188 0018 10BD     		pop	{r4, pc}
 189              	.LBE9:
 190              		.cfi_endproc
 191              	.LFE66:
 192              		.size	spiStop, .-spiStop
 193 001a 00BF     		.section	.text.spiSelect,"ax",%progbits
 194              		.align	1
 195              		.p2align 2,,3
 196              		.global	spiSelect
 197              		.syntax unified
 198              		.thumb
 199              		.thumb_func
 200              		.fpu softvfp
 201              		.type	spiSelect, %function
 202              	spiSelect:
 203              	.LFB67:
 204              		.loc 1 141 0
 205              		.cfi_startproc
 206              		@ args = 0, pretend = 0, frame = 0
 207              		@ frame_needed = 0, uses_anonymous_args = 0
 208              	.LVL8:
 209 0000 08B5     		push	{r3, lr}
 210              		.cfi_def_cfa_offset 8
 211              		.cfi_offset 3, -8
 212              		.cfi_offset 14, -4
 213              	.LBB10:
 214              		.loc 1 145 0
 215 0002 4023     		movs	r3, #64
 216              		.syntax unified
 217              	@ 145 "../../os/hal/src/spi.c" 1
 218 0004 83F31188 		msr     BASEPRI, r3
 219              	@ 0 "" 2
 220              		.thumb
 221              		.syntax unified
 222              	.LBE10:
 223              		.loc 1 147 0
 224 0008 FFF7FEFF 		bl	spi_lld_select
 225              	.LVL9:
 226              	.LBB11:
 227              		.loc 1 148 0
 228 000c 0023     		movs	r3, #0
ARM GAS  /tmp/cci2Fd8k.s 			page 5


 229              		.syntax unified
 230              	@ 148 "../../os/hal/src/spi.c" 1
 231 000e 83F31188 		msr     BASEPRI, r3
 232              	@ 0 "" 2
 233              		.thumb
 234              		.syntax unified
 235 0012 08BD     		pop	{r3, pc}
 236              	.LBE11:
 237              		.cfi_endproc
 238              	.LFE67:
 239              		.size	spiSelect, .-spiSelect
 240              		.section	.text.spiUnselect,"ax",%progbits
 241              		.align	1
 242              		.p2align 2,,3
 243              		.global	spiUnselect
 244              		.syntax unified
 245              		.thumb
 246              		.thumb_func
 247              		.fpu softvfp
 248              		.type	spiUnselect, %function
 249              	spiUnselect:
 250              	.LFB68:
 251              		.loc 1 159 0
 252              		.cfi_startproc
 253              		@ args = 0, pretend = 0, frame = 0
 254              		@ frame_needed = 0, uses_anonymous_args = 0
 255              	.LVL10:
 256 0000 08B5     		push	{r3, lr}
 257              		.cfi_def_cfa_offset 8
 258              		.cfi_offset 3, -8
 259              		.cfi_offset 14, -4
 260              	.LBB12:
 261              		.loc 1 163 0
 262 0002 4023     		movs	r3, #64
 263              		.syntax unified
 264              	@ 163 "../../os/hal/src/spi.c" 1
 265 0004 83F31188 		msr     BASEPRI, r3
 266              	@ 0 "" 2
 267              		.thumb
 268              		.syntax unified
 269              	.LBE12:
 270              		.loc 1 165 0
 271 0008 FFF7FEFF 		bl	spi_lld_unselect
 272              	.LVL11:
 273              	.LBB13:
 274              		.loc 1 166 0
 275 000c 0023     		movs	r3, #0
 276              		.syntax unified
 277              	@ 166 "../../os/hal/src/spi.c" 1
 278 000e 83F31188 		msr     BASEPRI, r3
 279              	@ 0 "" 2
 280              		.thumb
 281              		.syntax unified
 282 0012 08BD     		pop	{r3, pc}
 283              	.LBE13:
 284              		.cfi_endproc
 285              	.LFE68:
ARM GAS  /tmp/cci2Fd8k.s 			page 6


 286              		.size	spiUnselect, .-spiUnselect
 287              		.section	.text.spiStartIgnore,"ax",%progbits
 288              		.align	1
 289              		.p2align 2,,3
 290              		.global	spiStartIgnore
 291              		.syntax unified
 292              		.thumb
 293              		.thumb_func
 294              		.fpu softvfp
 295              		.type	spiStartIgnore, %function
 296              	spiStartIgnore:
 297              	.LFB69:
 298              		.loc 1 182 0
 299              		.cfi_startproc
 300              		@ args = 0, pretend = 0, frame = 0
 301              		@ frame_needed = 0, uses_anonymous_args = 0
 302              	.LVL12:
 303 0000 08B5     		push	{r3, lr}
 304              		.cfi_def_cfa_offset 8
 305              		.cfi_offset 3, -8
 306              		.cfi_offset 14, -4
 307              	.LBB14:
 308              		.loc 1 186 0
 309 0002 4023     		movs	r3, #64
 310              		.syntax unified
 311              	@ 186 "../../os/hal/src/spi.c" 1
 312 0004 83F31188 		msr     BASEPRI, r3
 313              	@ 0 "" 2
 314              		.thumb
 315              		.syntax unified
 316              	.LBE14:
 317              		.loc 1 188 0
 318 0008 0323     		movs	r3, #3
 319 000a 0370     		strb	r3, [r0]
 320 000c FFF7FEFF 		bl	spi_lld_ignore
 321              	.LVL13:
 322              	.LBB15:
 323              		.loc 1 189 0
 324 0010 0023     		movs	r3, #0
 325              		.syntax unified
 326              	@ 189 "../../os/hal/src/spi.c" 1
 327 0012 83F31188 		msr     BASEPRI, r3
 328              	@ 0 "" 2
 329              		.thumb
 330              		.syntax unified
 331 0016 08BD     		pop	{r3, pc}
 332              	.LBE15:
 333              		.cfi_endproc
 334              	.LFE69:
 335              		.size	spiStartIgnore, .-spiStartIgnore
 336              		.section	.text.spiStartExchange,"ax",%progbits
 337              		.align	1
 338              		.p2align 2,,3
 339              		.global	spiStartExchange
 340              		.syntax unified
 341              		.thumb
 342              		.thumb_func
ARM GAS  /tmp/cci2Fd8k.s 			page 7


 343              		.fpu softvfp
 344              		.type	spiStartExchange, %function
 345              	spiStartExchange:
 346              	.LFB70:
 347              		.loc 1 210 0
 348              		.cfi_startproc
 349              		@ args = 0, pretend = 0, frame = 0
 350              		@ frame_needed = 0, uses_anonymous_args = 0
 351              	.LVL14:
 352 0000 70B5     		push	{r4, r5, r6, lr}
 353              		.cfi_def_cfa_offset 16
 354              		.cfi_offset 4, -16
 355              		.cfi_offset 5, -12
 356              		.cfi_offset 6, -8
 357              		.cfi_offset 14, -4
 358              		.loc 1 210 0
 359 0002 1E46     		mov	r6, r3
 360              	.LBB16:
 361              		.loc 1 215 0
 362 0004 4023     		movs	r3, #64
 363              	.LVL15:
 364              		.syntax unified
 365              	@ 215 "../../os/hal/src/spi.c" 1
 366 0006 83F31188 		msr     BASEPRI, r3
 367              	@ 0 "" 2
 368              		.thumb
 369              		.syntax unified
 370              	.LBE16:
 371              		.loc 1 217 0
 372 000a 0325     		movs	r5, #3
 373 000c 3346     		mov	r3, r6
 374 000e 0570     		strb	r5, [r0]
 375 0010 FFF7FEFF 		bl	spi_lld_exchange
 376              	.LVL16:
 377              	.LBB17:
 378              		.loc 1 218 0
 379 0014 0023     		movs	r3, #0
 380              		.syntax unified
 381              	@ 218 "../../os/hal/src/spi.c" 1
 382 0016 83F31188 		msr     BASEPRI, r3
 383              	@ 0 "" 2
 384              		.thumb
 385              		.syntax unified
 386 001a 70BD     		pop	{r4, r5, r6, pc}
 387              	.LBE17:
 388              		.cfi_endproc
 389              	.LFE70:
 390              		.size	spiStartExchange, .-spiStartExchange
 391              		.section	.text.spiStartSend,"ax",%progbits
 392              		.align	1
 393              		.p2align 2,,3
 394              		.global	spiStartSend
 395              		.syntax unified
 396              		.thumb
 397              		.thumb_func
 398              		.fpu softvfp
 399              		.type	spiStartSend, %function
ARM GAS  /tmp/cci2Fd8k.s 			page 8


 400              	spiStartSend:
 401              	.LFB71:
 402              		.loc 1 236 0
 403              		.cfi_startproc
 404              		@ args = 0, pretend = 0, frame = 0
 405              		@ frame_needed = 0, uses_anonymous_args = 0
 406              	.LVL17:
 407 0000 10B5     		push	{r4, lr}
 408              		.cfi_def_cfa_offset 8
 409              		.cfi_offset 4, -8
 410              		.cfi_offset 14, -4
 411              	.LBB18:
 412              		.loc 1 241 0
 413 0002 4023     		movs	r3, #64
 414              		.syntax unified
 415              	@ 241 "../../os/hal/src/spi.c" 1
 416 0004 83F31188 		msr     BASEPRI, r3
 417              	@ 0 "" 2
 418              		.thumb
 419              		.syntax unified
 420              	.LBE18:
 421              		.loc 1 243 0
 422 0008 0323     		movs	r3, #3
 423 000a 0370     		strb	r3, [r0]
 424 000c FFF7FEFF 		bl	spi_lld_send
 425              	.LVL18:
 426              	.LBB19:
 427              		.loc 1 244 0
 428 0010 0023     		movs	r3, #0
 429              		.syntax unified
 430              	@ 244 "../../os/hal/src/spi.c" 1
 431 0012 83F31188 		msr     BASEPRI, r3
 432              	@ 0 "" 2
 433              		.thumb
 434              		.syntax unified
 435 0016 10BD     		pop	{r4, pc}
 436              	.LBE19:
 437              		.cfi_endproc
 438              	.LFE71:
 439              		.size	spiStartSend, .-spiStartSend
 440              		.section	.text.spiStartReceive,"ax",%progbits
 441              		.align	1
 442              		.p2align 2,,3
 443              		.global	spiStartReceive
 444              		.syntax unified
 445              		.thumb
 446              		.thumb_func
 447              		.fpu softvfp
 448              		.type	spiStartReceive, %function
 449              	spiStartReceive:
 450              	.LFB72:
 451              		.loc 1 262 0
 452              		.cfi_startproc
 453              		@ args = 0, pretend = 0, frame = 0
 454              		@ frame_needed = 0, uses_anonymous_args = 0
 455              	.LVL19:
 456 0000 10B5     		push	{r4, lr}
ARM GAS  /tmp/cci2Fd8k.s 			page 9


 457              		.cfi_def_cfa_offset 8
 458              		.cfi_offset 4, -8
 459              		.cfi_offset 14, -4
 460              	.LBB20:
 461              		.loc 1 267 0
 462 0002 4023     		movs	r3, #64
 463              		.syntax unified
 464              	@ 267 "../../os/hal/src/spi.c" 1
 465 0004 83F31188 		msr     BASEPRI, r3
 466              	@ 0 "" 2
 467              		.thumb
 468              		.syntax unified
 469              	.LBE20:
 470              		.loc 1 269 0
 471 0008 0323     		movs	r3, #3
 472 000a 0370     		strb	r3, [r0]
 473 000c FFF7FEFF 		bl	spi_lld_receive
 474              	.LVL20:
 475              	.LBB21:
 476              		.loc 1 270 0
 477 0010 0023     		movs	r3, #0
 478              		.syntax unified
 479              	@ 270 "../../os/hal/src/spi.c" 1
 480 0012 83F31188 		msr     BASEPRI, r3
 481              	@ 0 "" 2
 482              		.thumb
 483              		.syntax unified
 484 0016 10BD     		pop	{r4, pc}
 485              	.LBE21:
 486              		.cfi_endproc
 487              	.LFE72:
 488              		.size	spiStartReceive, .-spiStartReceive
 489              		.section	.text.spiIgnore,"ax",%progbits
 490              		.align	1
 491              		.p2align 2,,3
 492              		.global	spiIgnore
 493              		.syntax unified
 494              		.thumb
 495              		.thumb_func
 496              		.fpu softvfp
 497              		.type	spiIgnore, %function
 498              	spiIgnore:
 499              	.LFB73:
 500              		.loc 1 288 0
 501              		.cfi_startproc
 502              		@ args = 0, pretend = 0, frame = 0
 503              		@ frame_needed = 0, uses_anonymous_args = 0
 504              	.LVL21:
 505 0000 10B5     		push	{r4, lr}
 506              		.cfi_def_cfa_offset 8
 507              		.cfi_offset 4, -8
 508              		.cfi_offset 14, -4
 509              	.LBB22:
 510              		.loc 1 292 0
 511 0002 4023     		movs	r3, #64
 512              	.LBE22:
 513              		.loc 1 288 0
ARM GAS  /tmp/cci2Fd8k.s 			page 10


 514 0004 0446     		mov	r4, r0
 515              	.LBB23:
 516              		.loc 1 292 0
 517              		.syntax unified
 518              	@ 292 "../../os/hal/src/spi.c" 1
 519 0006 83F31188 		msr     BASEPRI, r3
 520              	@ 0 "" 2
 521              		.thumb
 522              		.syntax unified
 523              	.LBE23:
 524              		.loc 1 295 0
 525 000a 0323     		movs	r3, #3
 526 000c 0370     		strb	r3, [r0]
 527 000e FFF7FEFF 		bl	spi_lld_ignore
 528              	.LVL22:
 529              		.loc 1 296 0
 530 0012 054B     		ldr	r3, .L21
 531 0014 0220     		movs	r0, #2
 532 0016 9B69     		ldr	r3, [r3, #24]
 533 0018 A360     		str	r3, [r4, #8]
 534 001a FFF7FEFF 		bl	chSchGoSleepS
 535              	.LVL23:
 536              	.LBB24:
 537              		.loc 1 297 0
 538 001e 0023     		movs	r3, #0
 539              		.syntax unified
 540              	@ 297 "../../os/hal/src/spi.c" 1
 541 0020 83F31188 		msr     BASEPRI, r3
 542              	@ 0 "" 2
 543              		.thumb
 544              		.syntax unified
 545 0024 10BD     		pop	{r4, pc}
 546              	.LVL24:
 547              	.L22:
 548 0026 00BF     		.align	2
 549              	.L21:
 550 0028 00000000 		.word	rlist
 551              	.LBE24:
 552              		.cfi_endproc
 553              	.LFE73:
 554              		.size	spiIgnore, .-spiIgnore
 555              		.section	.text.spiExchange,"ax",%progbits
 556              		.align	1
 557              		.p2align 2,,3
 558              		.global	spiExchange
 559              		.syntax unified
 560              		.thumb
 561              		.thumb_func
 562              		.fpu softvfp
 563              		.type	spiExchange, %function
 564              	spiExchange:
 565              	.LFB74:
 566              		.loc 1 319 0
 567              		.cfi_startproc
 568              		@ args = 0, pretend = 0, frame = 0
 569              		@ frame_needed = 0, uses_anonymous_args = 0
 570              	.LVL25:
ARM GAS  /tmp/cci2Fd8k.s 			page 11


 571 0000 70B5     		push	{r4, r5, r6, lr}
 572              		.cfi_def_cfa_offset 16
 573              		.cfi_offset 4, -16
 574              		.cfi_offset 5, -12
 575              		.cfi_offset 6, -8
 576              		.cfi_offset 14, -4
 577              		.loc 1 319 0
 578 0002 1E46     		mov	r6, r3
 579 0004 0446     		mov	r4, r0
 580              	.LBB25:
 581              		.loc 1 324 0
 582 0006 4023     		movs	r3, #64
 583              	.LVL26:
 584              		.syntax unified
 585              	@ 324 "../../os/hal/src/spi.c" 1
 586 0008 83F31188 		msr     BASEPRI, r3
 587              	@ 0 "" 2
 588              		.thumb
 589              		.syntax unified
 590              	.LBE25:
 591              		.loc 1 328 0
 592 000c 0325     		movs	r5, #3
 593 000e 3346     		mov	r3, r6
 594 0010 0570     		strb	r5, [r0]
 595 0012 FFF7FEFF 		bl	spi_lld_exchange
 596              	.LVL27:
 597              		.loc 1 329 0
 598 0016 054B     		ldr	r3, .L25
 599 0018 0220     		movs	r0, #2
 600 001a 9B69     		ldr	r3, [r3, #24]
 601 001c A360     		str	r3, [r4, #8]
 602 001e FFF7FEFF 		bl	chSchGoSleepS
 603              	.LVL28:
 604              	.LBB26:
 605              		.loc 1 330 0
 606 0022 0023     		movs	r3, #0
 607              		.syntax unified
 608              	@ 330 "../../os/hal/src/spi.c" 1
 609 0024 83F31188 		msr     BASEPRI, r3
 610              	@ 0 "" 2
 611              		.thumb
 612              		.syntax unified
 613 0028 70BD     		pop	{r4, r5, r6, pc}
 614              	.LVL29:
 615              	.L26:
 616 002a 00BF     		.align	2
 617              	.L25:
 618 002c 00000000 		.word	rlist
 619              	.LBE26:
 620              		.cfi_endproc
 621              	.LFE74:
 622              		.size	spiExchange, .-spiExchange
 623              		.section	.text.spiSend,"ax",%progbits
 624              		.align	1
 625              		.p2align 2,,3
 626              		.global	spiSend
 627              		.syntax unified
ARM GAS  /tmp/cci2Fd8k.s 			page 12


 628              		.thumb
 629              		.thumb_func
 630              		.fpu softvfp
 631              		.type	spiSend, %function
 632              	spiSend:
 633              	.LFB75:
 634              		.loc 1 349 0
 635              		.cfi_startproc
 636              		@ args = 0, pretend = 0, frame = 0
 637              		@ frame_needed = 0, uses_anonymous_args = 0
 638              	.LVL30:
 639 0000 10B5     		push	{r4, lr}
 640              		.cfi_def_cfa_offset 8
 641              		.cfi_offset 4, -8
 642              		.cfi_offset 14, -4
 643              	.LBB27:
 644              		.loc 1 353 0
 645 0002 4023     		movs	r3, #64
 646              	.LBE27:
 647              		.loc 1 349 0
 648 0004 0446     		mov	r4, r0
 649              	.LBB28:
 650              		.loc 1 353 0
 651              		.syntax unified
 652              	@ 353 "../../os/hal/src/spi.c" 1
 653 0006 83F31188 		msr     BASEPRI, r3
 654              	@ 0 "" 2
 655              		.thumb
 656              		.syntax unified
 657              	.LBE28:
 658              		.loc 1 356 0
 659 000a 0323     		movs	r3, #3
 660 000c 0370     		strb	r3, [r0]
 661 000e FFF7FEFF 		bl	spi_lld_send
 662              	.LVL31:
 663              		.loc 1 357 0
 664 0012 054B     		ldr	r3, .L29
 665 0014 0220     		movs	r0, #2
 666 0016 9B69     		ldr	r3, [r3, #24]
 667 0018 A360     		str	r3, [r4, #8]
 668 001a FFF7FEFF 		bl	chSchGoSleepS
 669              	.LVL32:
 670              	.LBB29:
 671              		.loc 1 358 0
 672 001e 0023     		movs	r3, #0
 673              		.syntax unified
 674              	@ 358 "../../os/hal/src/spi.c" 1
 675 0020 83F31188 		msr     BASEPRI, r3
 676              	@ 0 "" 2
 677              		.thumb
 678              		.syntax unified
 679 0024 10BD     		pop	{r4, pc}
 680              	.LVL33:
 681              	.L30:
 682 0026 00BF     		.align	2
 683              	.L29:
 684 0028 00000000 		.word	rlist
ARM GAS  /tmp/cci2Fd8k.s 			page 13


 685              	.LBE29:
 686              		.cfi_endproc
 687              	.LFE75:
 688              		.size	spiSend, .-spiSend
 689              		.section	.text.spiReceive,"ax",%progbits
 690              		.align	1
 691              		.p2align 2,,3
 692              		.global	spiReceive
 693              		.syntax unified
 694              		.thumb
 695              		.thumb_func
 696              		.fpu softvfp
 697              		.type	spiReceive, %function
 698              	spiReceive:
 699              	.LFB76:
 700              		.loc 1 377 0
 701              		.cfi_startproc
 702              		@ args = 0, pretend = 0, frame = 0
 703              		@ frame_needed = 0, uses_anonymous_args = 0
 704              	.LVL34:
 705 0000 10B5     		push	{r4, lr}
 706              		.cfi_def_cfa_offset 8
 707              		.cfi_offset 4, -8
 708              		.cfi_offset 14, -4
 709              	.LBB30:
 710              		.loc 1 382 0
 711 0002 4023     		movs	r3, #64
 712              	.LBE30:
 713              		.loc 1 377 0
 714 0004 0446     		mov	r4, r0
 715              	.LBB31:
 716              		.loc 1 382 0
 717              		.syntax unified
 718              	@ 382 "../../os/hal/src/spi.c" 1
 719 0006 83F31188 		msr     BASEPRI, r3
 720              	@ 0 "" 2
 721              		.thumb
 722              		.syntax unified
 723              	.LBE31:
 724              		.loc 1 386 0
 725 000a 0323     		movs	r3, #3
 726 000c 0370     		strb	r3, [r0]
 727 000e FFF7FEFF 		bl	spi_lld_receive
 728              	.LVL35:
 729              		.loc 1 387 0
 730 0012 054B     		ldr	r3, .L33
 731 0014 0220     		movs	r0, #2
 732 0016 9B69     		ldr	r3, [r3, #24]
 733 0018 A360     		str	r3, [r4, #8]
 734 001a FFF7FEFF 		bl	chSchGoSleepS
 735              	.LVL36:
 736              	.LBB32:
 737              		.loc 1 388 0
 738 001e 0023     		movs	r3, #0
 739              		.syntax unified
 740              	@ 388 "../../os/hal/src/spi.c" 1
 741 0020 83F31188 		msr     BASEPRI, r3
ARM GAS  /tmp/cci2Fd8k.s 			page 14


 742              	@ 0 "" 2
 743              		.thumb
 744              		.syntax unified
 745 0024 10BD     		pop	{r4, pc}
 746              	.LVL37:
 747              	.L34:
 748 0026 00BF     		.align	2
 749              	.L33:
 750 0028 00000000 		.word	rlist
 751              	.LBE32:
 752              		.cfi_endproc
 753              	.LFE76:
 754              		.size	spiReceive, .-spiReceive
 755              		.section	.text.spiAcquireBus,"ax",%progbits
 756              		.align	1
 757              		.p2align 2,,3
 758              		.global	spiAcquireBus
 759              		.syntax unified
 760              		.thumb
 761              		.thumb_func
 762              		.fpu softvfp
 763              		.type	spiAcquireBus, %function
 764              	spiAcquireBus:
 765              	.LFB77:
 766              		.loc 1 404 0
 767              		.cfi_startproc
 768              		@ args = 0, pretend = 0, frame = 0
 769              		@ frame_needed = 0, uses_anonymous_args = 0
 770              		@ link register save eliminated.
 771              	.LVL38:
 772              		.loc 1 409 0
 773 0000 0C30     		adds	r0, r0, #12
 774              	.LVL39:
 775 0002 FFF7FEBF 		b	chMtxLock
 776              	.LVL40:
 777              		.cfi_endproc
 778              	.LFE77:
 779              		.size	spiAcquireBus, .-spiAcquireBus
 780 0006 00BF     		.section	.text.spiReleaseBus,"ax",%progbits
 781              		.align	1
 782              		.p2align 2,,3
 783              		.global	spiReleaseBus
 784              		.syntax unified
 785              		.thumb
 786              		.thumb_func
 787              		.fpu softvfp
 788              		.type	spiReleaseBus, %function
 789              	spiReleaseBus:
 790              	.LFB78:
 791              		.loc 1 424 0
 792              		.cfi_startproc
 793              		@ args = 0, pretend = 0, frame = 0
 794              		@ frame_needed = 0, uses_anonymous_args = 0
 795              		@ link register save eliminated.
 796              	.LVL41:
 797              		.loc 1 430 0
 798 0000 FFF7FEBF 		b	chMtxUnlock
ARM GAS  /tmp/cci2Fd8k.s 			page 15


 799              	.LVL42:
 800              		.cfi_endproc
 801              	.LFE78:
 802              		.size	spiReleaseBus, .-spiReleaseBus
 803              		.text
 804              	.Letext0:
 805              		.file 2 "/usr/lib/gcc/arm-none-eabi/6.3.1/include/stddef.h"
 806              		.file 3 "/usr/include/newlib/machine/_default_types.h"
 807              		.file 4 "/usr/include/newlib/sys/_stdint.h"
 808              		.file 5 "../../os/ports/GCC/ARMCMx/chtypes.h"
 809              		.file 6 "../../os/kernel/include/chlists.h"
 810              		.file 7 "../../os/kernel/include/chthreads.h"
 811              		.file 8 "../../os/ports/GCC/ARMCMx/chcore_v7m.h"
 812              		.file 9 "../../os/kernel/include/chvt.h"
 813              		.file 10 "../../os/kernel/include/chschd.h"
 814              		.file 11 "../../os/kernel/include/chmtx.h"
 815              		.file 12 "../../os/kernel/include/chevents.h"
 816              		.file 13 "../../os/kernel/include/chregistry.h"
 817              		.file 14 "../../os/kernel/include/chqueues.h"
 818              		.file 15 "../../os/kernel/include/ch.h"
 819              		.file 16 "../../os/ports/common/ARMCMx/CMSIS/include/core_cm3.h"
 820              		.file 17 "../../os/hal/platforms/LPC17xx/system_LPC17xx.h"
 821              		.file 18 "../../os/hal/platforms/LPC17xx/LPC17xx.h"
 822              		.file 19 "../../os/hal/platforms/LPC17xx/lpc17xx_dma.h"
 823              		.file 20 "../../os/hal/platforms/LPC17xx/pal_lld.h"
 824              		.file 21 "../../os/hal/include/gpt.h"
 825              		.file 22 "../../os/hal/platforms/LPC17xx/gpt_lld.h"
 826              		.file 23 "../../os/hal/include/serial.h"
 827              		.file 24 "../../os/hal/platforms/LPC17xx/serial_lld.h"
 828              		.file 25 "../../os/hal/include/spi.h"
 829              		.file 26 "../../os/hal/platforms/LPC17xx/spi_lld.h"