ARM GAS  /tmp/ccDoCifw.s 			page 1


   1              		.cpu cortex-m3
   2              		.eabi_attribute 20, 1
   3              		.eabi_attribute 21, 1
   4              		.eabi_attribute 23, 3
   5              		.eabi_attribute 24, 1
   6              		.eabi_attribute 25, 1
   7              		.eabi_attribute 26, 1
   8              		.eabi_attribute 30, 2
   9              		.eabi_attribute 34, 1
  10              		.eabi_attribute 18, 4
  11              		.file	"syscalls.c"
  12              		.text
  13              	.Ltext0:
  14              		.cfi_sections	.debug_frame
  15              		.section	.text._read_r,"ax",%progbits
  16              		.align	1
  17              		.p2align 2,,3
  18              		.global	_read_r
  19              		.syntax unified
  20              		.thumb
  21              		.thumb_func
  22              		.fpu softvfp
  23              		.type	_read_r, %function
  24              	_read_r:
  25              	.LFB7:
  26              		.file 1 "../../os/various/syscalls.c"
  27              		.loc 1 76 0
  28              		.cfi_startproc
  29              		@ args = 0, pretend = 0, frame = 0
  30              		@ frame_needed = 0, uses_anonymous_args = 0
  31              		@ link register save eliminated.
  32              	.LVL0:
  33              		.loc 1 89 0
  34 0000 1623     		movs	r3, #22
  35              	.LVL1:
  36 0002 0360     		str	r3, [r0]
  37              		.loc 1 92 0
  38 0004 4FF0FF30 		mov	r0, #-1
  39              	.LVL2:
  40 0008 7047     		bx	lr
  41              		.cfi_endproc
  42              	.LFE7:
  43              		.size	_read_r, .-_read_r
  44 000a 00BF     		.section	.text._lseek_r,"ax",%progbits
  45              		.align	1
  46              		.p2align 2,,3
  47              		.global	_lseek_r
  48              		.syntax unified
  49              		.thumb
  50              		.thumb_func
  51              		.fpu softvfp
  52              		.type	_lseek_r, %function
  53              	_lseek_r:
  54              	.LFB8:
  55              		.loc 1 97 0
  56              		.cfi_startproc
  57              		@ args = 0, pretend = 0, frame = 0
ARM GAS  /tmp/ccDoCifw.s 			page 2


  58              		@ frame_needed = 0, uses_anonymous_args = 0
  59              		@ link register save eliminated.
  60              	.LVL3:
  61              		.loc 1 104 0
  62 0000 0020     		movs	r0, #0
  63              	.LVL4:
  64 0002 7047     		bx	lr
  65              		.cfi_endproc
  66              	.LFE8:
  67              		.size	_lseek_r, .-_lseek_r
  68              		.section	.text._write_r,"ax",%progbits
  69              		.align	1
  70              		.p2align 2,,3
  71              		.global	_write_r
  72              		.syntax unified
  73              		.thumb
  74              		.thumb_func
  75              		.fpu softvfp
  76              		.type	_write_r, %function
  77              	_write_r:
  78              	.LFB9:
  79              		.loc 1 109 0
  80              		.cfi_startproc
  81              		@ args = 0, pretend = 0, frame = 0
  82              		@ frame_needed = 0, uses_anonymous_args = 0
  83              		@ link register save eliminated.
  84              	.LVL5:
  85              		.loc 1 121 0
  86 0000 1846     		mov	r0, r3
  87              	.LVL6:
  88 0002 7047     		bx	lr
  89              		.cfi_endproc
  90              	.LFE9:
  91              		.size	_write_r, .-_write_r
  92              		.section	.text._close_r,"ax",%progbits
  93              		.align	1
  94              		.p2align 2,,3
  95              		.global	_close_r
  96              		.syntax unified
  97              		.thumb
  98              		.thumb_func
  99              		.fpu softvfp
 100              		.type	_close_r, %function
 101              	_close_r:
 102              	.LFB10:
 103              		.loc 1 126 0
 104              		.cfi_startproc
 105              		@ args = 0, pretend = 0, frame = 0
 106              		@ frame_needed = 0, uses_anonymous_args = 0
 107              		@ link register save eliminated.
 108              	.LVL7:
 109              		.loc 1 131 0
 110 0000 0020     		movs	r0, #0
 111              	.LVL8:
 112 0002 7047     		bx	lr
 113              		.cfi_endproc
 114              	.LFE10:
ARM GAS  /tmp/ccDoCifw.s 			page 3


 115              		.size	_close_r, .-_close_r
 116              		.section	.text._sbrk_r,"ax",%progbits
 117              		.align	1
 118              		.p2align 2,,3
 119              		.global	_sbrk_r
 120              		.syntax unified
 121              		.thumb
 122              		.thumb_func
 123              		.fpu softvfp
 124              		.type	_sbrk_r, %function
 125              	_sbrk_r:
 126              	.LFB11:
 127              		.loc 1 136 0
 128              		.cfi_startproc
 129              		@ args = 0, pretend = 0, frame = 0
 130              		@ frame_needed = 0, uses_anonymous_args = 0
 131              	.LVL9:
 132 0000 10B5     		push	{r4, lr}
 133              		.cfi_def_cfa_offset 8
 134              		.cfi_offset 4, -8
 135              		.cfi_offset 14, -4
 136              		.loc 1 136 0
 137 0002 0446     		mov	r4, r0
 138              		.loc 1 143 0
 139 0004 0846     		mov	r0, r1
 140              	.LVL10:
 141 0006 FFF7FEFF 		bl	chCoreAlloc
 142              	.LVL11:
 143              		.loc 1 144 0
 144 000a 00B1     		cbz	r0, .L10
 145              		.loc 1 153 0
 146 000c 10BD     		pop	{r4, pc}
 147              	.LVL12:
 148              	.L10:
 149              		.loc 1 145 0
 150 000e 0C23     		movs	r3, #12
 151              		.loc 1 146 0
 152 0010 4FF0FF30 		mov	r0, #-1
 153              	.LVL13:
 154              		.loc 1 145 0
 155 0014 2360     		str	r3, [r4]
 156              		.loc 1 153 0
 157 0016 10BD     		pop	{r4, pc}
 158              		.cfi_endproc
 159              	.LFE11:
 160              		.size	_sbrk_r, .-_sbrk_r
 161              		.section	.text._fstat_r,"ax",%progbits
 162              		.align	1
 163              		.p2align 2,,3
 164              		.global	_fstat_r
 165              		.syntax unified
 166              		.thumb
 167              		.thumb_func
 168              		.fpu softvfp
 169              		.type	_fstat_r, %function
 170              	_fstat_r:
 171              	.LFB12:
ARM GAS  /tmp/ccDoCifw.s 			page 4


 172              		.loc 1 158 0
 173              		.cfi_startproc
 174              		@ args = 0, pretend = 0, frame = 0
 175              		@ frame_needed = 0, uses_anonymous_args = 0
 176              	.LVL14:
 177 0000 10B5     		push	{r4, lr}
 178              		.cfi_def_cfa_offset 8
 179              		.cfi_offset 4, -8
 180              		.cfi_offset 14, -4
 181              		.loc 1 162 0
 182 0002 0021     		movs	r1, #0
 183              	.LVL15:
 184              		.loc 1 158 0
 185 0004 1446     		mov	r4, r2
 186              		.loc 1 162 0
 187 0006 1046     		mov	r0, r2
 188              	.LVL16:
 189 0008 3C22     		movs	r2, #60
 190              	.LVL17:
 191 000a FFF7FEFF 		bl	memset
 192              	.LVL18:
 193              		.loc 1 163 0
 194 000e 4FF40053 		mov	r3, #8192
 195              		.loc 1 165 0
 196 0012 0020     		movs	r0, #0
 197              		.loc 1 163 0
 198 0014 6360     		str	r3, [r4, #4]
 199              		.loc 1 165 0
 200 0016 10BD     		pop	{r4, pc}
 201              		.cfi_endproc
 202              	.LFE12:
 203              		.size	_fstat_r, .-_fstat_r
 204              		.section	.text._isatty_r,"ax",%progbits
 205              		.align	1
 206              		.p2align 2,,3
 207              		.global	_isatty_r
 208              		.syntax unified
 209              		.thumb
 210              		.thumb_func
 211              		.fpu softvfp
 212              		.type	_isatty_r, %function
 213              	_isatty_r:
 214              	.LFB13:
 215              		.loc 1 170 0
 216              		.cfi_startproc
 217              		@ args = 0, pretend = 0, frame = 0
 218              		@ frame_needed = 0, uses_anonymous_args = 0
 219              		@ link register save eliminated.
 220              	.LVL19:
 221              		.loc 1 175 0
 222 0000 0120     		movs	r0, #1
 223              	.LVL20:
 224 0002 7047     		bx	lr
 225              		.cfi_endproc
 226              	.LFE13:
 227              		.size	_isatty_r, .-_isatty_r
 228              		.text
ARM GAS  /tmp/ccDoCifw.s 			page 5


 229              	.Letext0:
 230              		.file 2 "/usr/lib/gcc/arm-none-eabi/6.3.1/include/stddef.h"
 231              		.file 3 "/usr/include/newlib/machine/_default_types.h"
 232              		.file 4 "/usr/include/newlib/sys/lock.h"
 233              		.file 5 "/usr/include/newlib/sys/_types.h"
 234              		.file 6 "/usr/include/newlib/sys/reent.h"
 235              		.file 7 "/usr/include/newlib/stdlib.h"
 236              		.file 8 "/usr/include/newlib/sys/errno.h"
 237              		.file 9 "/usr/include/newlib/sys/_stdint.h"
 238              		.file 10 "/usr/include/newlib/sys/_timeval.h"
 239              		.file 11 "/usr/include/newlib/sys/types.h"
 240              		.file 12 "/usr/include/newlib/time.h"
 241              		.file 13 "/usr/include/newlib/sys/stat.h"
 242              		.file 14 "../../os/ports/GCC/ARMCMx/chtypes.h"
 243              		.file 15 "../../os/kernel/include/chlists.h"
 244              		.file 16 "../../os/kernel/include/chthreads.h"
 245              		.file 17 "../../os/ports/GCC/ARMCMx/chcore_v7m.h"
 246              		.file 18 "../../os/kernel/include/chvt.h"
 247              		.file 19 "../../os/kernel/include/chschd.h"
 248              		.file 20 "../../os/kernel/include/chmtx.h"
 249              		.file 21 "../../os/kernel/include/chregistry.h"
 250              		.file 22 "../../os/kernel/include/ch.h"
 251              		.file 23 "../../os/kernel/include/chmemcore.h"